; Listing generated by Microsoft (R) Optimizing Compiler Version 19.28.29335.0 

	TITLE	D:\Metin2 Server Files\mainline\SRC_2014\Metin2Client\UserInterface\UserInterface.cpp
	.686P
	.XMM
	include listing.inc
	.model	flat

INCLUDELIB LIBCMT
INCLUDELIB OLDNAMES

PUBLIC	??_7?$CDynamicPoolEx@VCTextureAnimationCCWDecorator@NEffectUpdateDecorator@@@@6B@ ; CDynamicPoolEx<NEffectUpdateDecorator::CTextureAnimationCCWDecorator>::`vftable'
PUBLIC	??_G?$CDynamicPoolEx@VCTextureAnimationCCWDecorator@NEffectUpdateDecorator@@@@UAEPAXI@Z ; CDynamicPoolEx<NEffectUpdateDecorator::CTextureAnimationCCWDecorator>::`scalar deleting destructor'
PUBLIC	__vsnprintf
PUBLIC	??_7?$CDynamicPoolEx@VCTextureAnimationCWDecorator@NEffectUpdateDecorator@@@@6B@ ; CDynamicPoolEx<NEffectUpdateDecorator::CTextureAnimationCWDecorator>::`vftable'
PUBLIC	??_G?$CDynamicPoolEx@VCTextureAnimationCWDecorator@NEffectUpdateDecorator@@@@UAEPAXI@Z ; CDynamicPoolEx<NEffectUpdateDecorator::CTextureAnimationCWDecorator>::`scalar deleting destructor'
PUBLIC	??_7?$CDynamicPoolEx@VCNullDecorator@NEffectUpdateDecorator@@@@6B@ ; CDynamicPoolEx<NEffectUpdateDecorator::CNullDecorator>::`vftable'
PUBLIC	??_G?$CDynamicPoolEx@VCNullDecorator@NEffectUpdateDecorator@@@@UAEPAXI@Z ; CDynamicPoolEx<NEffectUpdateDecorator::CNullDecorator>::`scalar deleting destructor'
PUBLIC	??_C@_01EEMJAFIK@?6@				; `string'
PUBLIC	??_7?$CDynamicPoolEx@VCHeaderDecorator@NEffectUpdateDecorator@@@@6B@ ; CDynamicPoolEx<NEffectUpdateDecorator::CHeaderDecorator>::`vftable'
PUBLIC	??_G?$CDynamicPoolEx@VCHeaderDecorator@NEffectUpdateDecorator@@@@UAEPAXI@Z ; CDynamicPoolEx<NEffectUpdateDecorator::CHeaderDecorator>::`scalar deleting destructor'
PUBLIC	?__vsnprintf@@3P6AHPADIPBD0@ZA			; __vsnprintf
PUBLIC	?__IS_TEST_SERVER_MODE__@@3_NA			; __IS_TEST_SERVER_MODE__
PUBLIC	??_C@_0N@CMMKLLC@UserDict?4pyc@			; `string'
PUBLIC	??_C@_0P@KBODAEKE@__future__?4pyc@		; `string'
PUBLIC	??_C@_0N@GCNFBOJN@copy_reg?4pyc@		; `string'
PUBLIC	??_C@_0O@COBIIGAD@linecache?4pyc@		; `string'
PUBLIC	??_C@_0L@HJCEJGHC@ntpath?4pyc@			; `string'
PUBLIC	??_C@_06JCOFDJKA@os?4pyc@			; `string'
PUBLIC	??_C@_08FPFMJPEC@site?4pyc@			; `string'
PUBLIC	??_C@_08EFIONJOP@stat?4pyc@			; `string'
PUBLIC	??_C@_0L@NDKNFNNI@string?4pyc@			; `string'
PUBLIC	??_C@_0O@PMKHJGGH@traceback?4pyc@		; `string'
PUBLIC	??_C@_09EHIBBABK@types?4pyc@			; `string'
PUBLIC	?gs_szErrorString@@3PADA			; gs_szErrorString
PUBLIC	??_7?$CDynamicPoolEx@VCRotationDecorator@NEffectUpdateDecorator@@@@6B@ ; CDynamicPoolEx<NEffectUpdateDecorator::CRotationDecorator>::`vftable'
PUBLIC	??_G?$CDynamicPoolEx@VCRotationDecorator@NEffectUpdateDecorator@@@@UAEPAXI@Z ; CDynamicPoolEx<NEffectUpdateDecorator::CRotationDecorator>::`scalar deleting destructor'
PUBLIC	??_7?$CDynamicPoolEx@VCGravityDecorator@NEffectUpdateDecorator@@@@6B@ ; CDynamicPoolEx<NEffectUpdateDecorator::CGravityDecorator>::`vftable'
PUBLIC	??_G?$CDynamicPoolEx@VCGravityDecorator@NEffectUpdateDecorator@@@@UAEPAXI@Z ; CDynamicPoolEx<NEffectUpdateDecorator::CGravityDecorator>::`scalar deleting destructor'
PUBLIC	??_7?$CDynamicPoolEx@VCAirResistanceDecorator@NEffectUpdateDecorator@@@@6B@ ; CDynamicPoolEx<NEffectUpdateDecorator::CAirResistanceDecorator>::`vftable'
PUBLIC	??_G?$CDynamicPoolEx@VCAirResistanceDecorator@NEffectUpdateDecorator@@@@UAEPAXI@Z ; CDynamicPoolEx<NEffectUpdateDecorator::CAirResistanceDecorator>::`scalar deleting destructor'
PUBLIC	??_7?$CDynamicPoolEx@VCTextureAnimationRandomDecorator@NEffectUpdateDecorator@@@@6B@ ; CDynamicPoolEx<NEffectUpdateDecorator::CTextureAnimationRandomDecorator>::`vftable'
PUBLIC	??_G?$CDynamicPoolEx@VCTextureAnimationRandomDecorator@NEffectUpdateDecorator@@@@UAEPAXI@Z ; CDynamicPoolEx<NEffectUpdateDecorator::CTextureAnimationRandomDecorator>::`scalar deleting destructor'
PUBLIC	??_R4?$CDynamicPoolEx@VCHeaderDecorator@NEffectUpdateDecorator@@@@6B@ ; CDynamicPoolEx<NEffectUpdateDecorator::CHeaderDecorator>::`RTTI Complete Object Locator'
PUBLIC	??_R0?AV?$CDynamicPoolEx@VCHeaderDecorator@NEffectUpdateDecorator@@@@@8 ; CDynamicPoolEx<NEffectUpdateDecorator::CHeaderDecorator> `RTTI Type Descriptor'
PUBLIC	??_R3?$CDynamicPoolEx@VCHeaderDecorator@NEffectUpdateDecorator@@@@8 ; CDynamicPoolEx<NEffectUpdateDecorator::CHeaderDecorator>::`RTTI Class Hierarchy Descriptor'
PUBLIC	??_R2?$CDynamicPoolEx@VCHeaderDecorator@NEffectUpdateDecorator@@@@8 ; CDynamicPoolEx<NEffectUpdateDecorator::CHeaderDecorator>::`RTTI Base Class Array'
PUBLIC	??_R1A@?0A@EA@?$CDynamicPoolEx@VCHeaderDecorator@NEffectUpdateDecorator@@@@8 ; CDynamicPoolEx<NEffectUpdateDecorator::CHeaderDecorator>::`RTTI Base Class Descriptor at (0,-1,0,64)'
PUBLIC	??_R4?$CDynamicPoolEx@VCNullDecorator@NEffectUpdateDecorator@@@@6B@ ; CDynamicPoolEx<NEffectUpdateDecorator::CNullDecorator>::`RTTI Complete Object Locator'
PUBLIC	??_R0?AV?$CDynamicPoolEx@VCNullDecorator@NEffectUpdateDecorator@@@@@8 ; CDynamicPoolEx<NEffectUpdateDecorator::CNullDecorator> `RTTI Type Descriptor'
PUBLIC	??_R3?$CDynamicPoolEx@VCNullDecorator@NEffectUpdateDecorator@@@@8 ; CDynamicPoolEx<NEffectUpdateDecorator::CNullDecorator>::`RTTI Class Hierarchy Descriptor'
PUBLIC	??_R2?$CDynamicPoolEx@VCNullDecorator@NEffectUpdateDecorator@@@@8 ; CDynamicPoolEx<NEffectUpdateDecorator::CNullDecorator>::`RTTI Base Class Array'
PUBLIC	??_R1A@?0A@EA@?$CDynamicPoolEx@VCNullDecorator@NEffectUpdateDecorator@@@@8 ; CDynamicPoolEx<NEffectUpdateDecorator::CNullDecorator>::`RTTI Base Class Descriptor at (0,-1,0,64)'
PUBLIC	??_R4?$CDynamicPoolEx@VCTextureAnimationCWDecorator@NEffectUpdateDecorator@@@@6B@ ; CDynamicPoolEx<NEffectUpdateDecorator::CTextureAnimationCWDecorator>::`RTTI Complete Object Locator'
PUBLIC	??_R0?AV?$CDynamicPoolEx@VCTextureAnimationCWDecorator@NEffectUpdateDecorator@@@@@8 ; CDynamicPoolEx<NEffectUpdateDecorator::CTextureAnimationCWDecorator> `RTTI Type Descriptor'
PUBLIC	??_R3?$CDynamicPoolEx@VCTextureAnimationCWDecorator@NEffectUpdateDecorator@@@@8 ; CDynamicPoolEx<NEffectUpdateDecorator::CTextureAnimationCWDecorator>::`RTTI Class Hierarchy Descriptor'
PUBLIC	??_R2?$CDynamicPoolEx@VCTextureAnimationCWDecorator@NEffectUpdateDecorator@@@@8 ; CDynamicPoolEx<NEffectUpdateDecorator::CTextureAnimationCWDecorator>::`RTTI Base Class Array'
PUBLIC	??_R1A@?0A@EA@?$CDynamicPoolEx@VCTextureAnimationCWDecorator@NEffectUpdateDecorator@@@@8 ; CDynamicPoolEx<NEffectUpdateDecorator::CTextureAnimationCWDecorator>::`RTTI Base Class Descriptor at (0,-1,0,64)'
PUBLIC	??_R4?$CDynamicPoolEx@VCTextureAnimationCCWDecorator@NEffectUpdateDecorator@@@@6B@ ; CDynamicPoolEx<NEffectUpdateDecorator::CTextureAnimationCCWDecorator>::`RTTI Complete Object Locator'
PUBLIC	??_R0?AV?$CDynamicPoolEx@VCTextureAnimationCCWDecorator@NEffectUpdateDecorator@@@@@8 ; CDynamicPoolEx<NEffectUpdateDecorator::CTextureAnimationCCWDecorator> `RTTI Type Descriptor'
PUBLIC	??_R3?$CDynamicPoolEx@VCTextureAnimationCCWDecorator@NEffectUpdateDecorator@@@@8 ; CDynamicPoolEx<NEffectUpdateDecorator::CTextureAnimationCCWDecorator>::`RTTI Class Hierarchy Descriptor'
PUBLIC	??_R2?$CDynamicPoolEx@VCTextureAnimationCCWDecorator@NEffectUpdateDecorator@@@@8 ; CDynamicPoolEx<NEffectUpdateDecorator::CTextureAnimationCCWDecorator>::`RTTI Base Class Array'
PUBLIC	??_R1A@?0A@EA@?$CDynamicPoolEx@VCTextureAnimationCCWDecorator@NEffectUpdateDecorator@@@@8 ; CDynamicPoolEx<NEffectUpdateDecorator::CTextureAnimationCCWDecorator>::`RTTI Base Class Descriptor at (0,-1,0,64)'
PUBLIC	??_R4?$CDynamicPoolEx@VCTextureAnimationRandomDecorator@NEffectUpdateDecorator@@@@6B@ ; CDynamicPoolEx<NEffectUpdateDecorator::CTextureAnimationRandomDecorator>::`RTTI Complete Object Locator'
PUBLIC	??_R0?AV?$CDynamicPoolEx@VCTextureAnimationRandomDecorator@NEffectUpdateDecorator@@@@@8 ; CDynamicPoolEx<NEffectUpdateDecorator::CTextureAnimationRandomDecorator> `RTTI Type Descriptor'
PUBLIC	??_R3?$CDynamicPoolEx@VCTextureAnimationRandomDecorator@NEffectUpdateDecorator@@@@8 ; CDynamicPoolEx<NEffectUpdateDecorator::CTextureAnimationRandomDecorator>::`RTTI Class Hierarchy Descriptor'
PUBLIC	??_R2?$CDynamicPoolEx@VCTextureAnimationRandomDecorator@NEffectUpdateDecorator@@@@8 ; CDynamicPoolEx<NEffectUpdateDecorator::CTextureAnimationRandomDecorator>::`RTTI Base Class Array'
PUBLIC	??_R1A@?0A@EA@?$CDynamicPoolEx@VCTextureAnimationRandomDecorator@NEffectUpdateDecorator@@@@8 ; CDynamicPoolEx<NEffectUpdateDecorator::CTextureAnimationRandomDecorator>::`RTTI Base Class Descriptor at (0,-1,0,64)'
PUBLIC	??_R4?$CDynamicPoolEx@VCAirResistanceDecorator@NEffectUpdateDecorator@@@@6B@ ; CDynamicPoolEx<NEffectUpdateDecorator::CAirResistanceDecorator>::`RTTI Complete Object Locator'
PUBLIC	??_R0?AV?$CDynamicPoolEx@VCAirResistanceDecorator@NEffectUpdateDecorator@@@@@8 ; CDynamicPoolEx<NEffectUpdateDecorator::CAirResistanceDecorator> `RTTI Type Descriptor'
PUBLIC	??_R3?$CDynamicPoolEx@VCAirResistanceDecorator@NEffectUpdateDecorator@@@@8 ; CDynamicPoolEx<NEffectUpdateDecorator::CAirResistanceDecorator>::`RTTI Class Hierarchy Descriptor'
PUBLIC	??_R2?$CDynamicPoolEx@VCAirResistanceDecorator@NEffectUpdateDecorator@@@@8 ; CDynamicPoolEx<NEffectUpdateDecorator::CAirResistanceDecorator>::`RTTI Base Class Array'
PUBLIC	??_R1A@?0A@EA@?$CDynamicPoolEx@VCAirResistanceDecorator@NEffectUpdateDecorator@@@@8 ; CDynamicPoolEx<NEffectUpdateDecorator::CAirResistanceDecorator>::`RTTI Base Class Descriptor at (0,-1,0,64)'
PUBLIC	??_R4?$CDynamicPoolEx@VCGravityDecorator@NEffectUpdateDecorator@@@@6B@ ; CDynamicPoolEx<NEffectUpdateDecorator::CGravityDecorator>::`RTTI Complete Object Locator'
PUBLIC	??_R0?AV?$CDynamicPoolEx@VCGravityDecorator@NEffectUpdateDecorator@@@@@8 ; CDynamicPoolEx<NEffectUpdateDecorator::CGravityDecorator> `RTTI Type Descriptor'
PUBLIC	??_R3?$CDynamicPoolEx@VCGravityDecorator@NEffectUpdateDecorator@@@@8 ; CDynamicPoolEx<NEffectUpdateDecorator::CGravityDecorator>::`RTTI Class Hierarchy Descriptor'
PUBLIC	??_R2?$CDynamicPoolEx@VCGravityDecorator@NEffectUpdateDecorator@@@@8 ; CDynamicPoolEx<NEffectUpdateDecorator::CGravityDecorator>::`RTTI Base Class Array'
PUBLIC	??_R1A@?0A@EA@?$CDynamicPoolEx@VCGravityDecorator@NEffectUpdateDecorator@@@@8 ; CDynamicPoolEx<NEffectUpdateDecorator::CGravityDecorator>::`RTTI Base Class Descriptor at (0,-1,0,64)'
PUBLIC	??_R4?$CDynamicPoolEx@VCRotationDecorator@NEffectUpdateDecorator@@@@6B@ ; CDynamicPoolEx<NEffectUpdateDecorator::CRotationDecorator>::`RTTI Complete Object Locator'
PUBLIC	??_R0?AV?$CDynamicPoolEx@VCRotationDecorator@NEffectUpdateDecorator@@@@@8 ; CDynamicPoolEx<NEffectUpdateDecorator::CRotationDecorator> `RTTI Type Descriptor'
PUBLIC	??_R3?$CDynamicPoolEx@VCRotationDecorator@NEffectUpdateDecorator@@@@8 ; CDynamicPoolEx<NEffectUpdateDecorator::CRotationDecorator>::`RTTI Class Hierarchy Descriptor'
PUBLIC	??_R2?$CDynamicPoolEx@VCRotationDecorator@NEffectUpdateDecorator@@@@8 ; CDynamicPoolEx<NEffectUpdateDecorator::CRotationDecorator>::`RTTI Base Class Array'
PUBLIC	??_R1A@?0A@EA@?$CDynamicPoolEx@VCRotationDecorator@NEffectUpdateDecorator@@@@8 ; CDynamicPoolEx<NEffectUpdateDecorator::CRotationDecorator>::`RTTI Base Class Descriptor at (0,-1,0,64)'
EXTRN	??_E?$CDynamicPoolEx@VCTextureAnimationCCWDecorator@NEffectUpdateDecorator@@@@UAEPAXI@Z:PROC ; CDynamicPoolEx<NEffectUpdateDecorator::CTextureAnimationCCWDecorator>::`vector deleting destructor'
EXTRN	??_E?$CDynamicPoolEx@VCTextureAnimationCWDecorator@NEffectUpdateDecorator@@@@UAEPAXI@Z:PROC ; CDynamicPoolEx<NEffectUpdateDecorator::CTextureAnimationCWDecorator>::`vector deleting destructor'
EXTRN	??_E?$CDynamicPoolEx@VCNullDecorator@NEffectUpdateDecorator@@@@UAEPAXI@Z:PROC ; CDynamicPoolEx<NEffectUpdateDecorator::CNullDecorator>::`vector deleting destructor'
EXTRN	??_E?$CDynamicPoolEx@VCHeaderDecorator@NEffectUpdateDecorator@@@@UAEPAXI@Z:PROC ; CDynamicPoolEx<NEffectUpdateDecorator::CHeaderDecorator>::`vector deleting destructor'
EXTRN	__fltused:DWORD
EXTRN	??_7type_info@@6B@:QWORD			; type_info::`vftable'
EXTRN	??_E?$CDynamicPoolEx@VCRotationDecorator@NEffectUpdateDecorator@@@@UAEPAXI@Z:PROC ; CDynamicPoolEx<NEffectUpdateDecorator::CRotationDecorator>::`vector deleting destructor'
EXTRN	??_E?$CDynamicPoolEx@VCGravityDecorator@NEffectUpdateDecorator@@@@UAEPAXI@Z:PROC ; CDynamicPoolEx<NEffectUpdateDecorator::CGravityDecorator>::`vector deleting destructor'
EXTRN	??_E?$CDynamicPoolEx@VCAirResistanceDecorator@NEffectUpdateDecorator@@@@UAEPAXI@Z:PROC ; CDynamicPoolEx<NEffectUpdateDecorator::CAirResistanceDecorator>::`vector deleting destructor'
EXTRN	??_E?$CDynamicPoolEx@VCTextureAnimationRandomDecorator@NEffectUpdateDecorator@@@@UAEPAXI@Z:PROC ; CDynamicPoolEx<NEffectUpdateDecorator::CTextureAnimationRandomDecorator>::`vector deleting destructor'
_BSS	SEGMENT
?__IS_TEST_SERVER_MODE__@@3_NA DB 01H DUP (?)		; __IS_TEST_SERVER_MODE__
	ALIGN	4

?gs_szErrorString@@3PADA DB 0200H DUP (?)		; gs_szErrorString
_BSS	ENDS
;	COMDAT ??_R1A@?0A@EA@?$CDynamicPoolEx@VCRotationDecorator@NEffectUpdateDecorator@@@@8
rdata$r	SEGMENT
??_R1A@?0A@EA@?$CDynamicPoolEx@VCRotationDecorator@NEffectUpdateDecorator@@@@8 DD FLAT:??_R0?AV?$CDynamicPoolEx@VCRotationDecorator@NEffectUpdateDecorator@@@@@8 ; CDynamicPoolEx<NEffectUpdateDecorator::CRotationDecorator>::`RTTI Base Class Descriptor at (0,-1,0,64)'
	DD	00H
	DD	00H
	DD	0ffffffffH
	DD	00H
	DD	040H
	DD	FLAT:??_R3?$CDynamicPoolEx@VCRotationDecorator@NEffectUpdateDecorator@@@@8
rdata$r	ENDS
;	COMDAT ??_R2?$CDynamicPoolEx@VCRotationDecorator@NEffectUpdateDecorator@@@@8
rdata$r	SEGMENT
??_R2?$CDynamicPoolEx@VCRotationDecorator@NEffectUpdateDecorator@@@@8 DD FLAT:??_R1A@?0A@EA@?$CDynamicPoolEx@VCRotationDecorator@NEffectUpdateDecorator@@@@8 ; CDynamicPoolEx<NEffectUpdateDecorator::CRotationDecorator>::`RTTI Base Class Array'
rdata$r	ENDS
;	COMDAT ??_R3?$CDynamicPoolEx@VCRotationDecorator@NEffectUpdateDecorator@@@@8
rdata$r	SEGMENT
??_R3?$CDynamicPoolEx@VCRotationDecorator@NEffectUpdateDecorator@@@@8 DD 00H ; CDynamicPoolEx<NEffectUpdateDecorator::CRotationDecorator>::`RTTI Class Hierarchy Descriptor'
	DD	00H
	DD	01H
	DD	FLAT:??_R2?$CDynamicPoolEx@VCRotationDecorator@NEffectUpdateDecorator@@@@8
rdata$r	ENDS
;	COMDAT ??_R0?AV?$CDynamicPoolEx@VCRotationDecorator@NEffectUpdateDecorator@@@@@8
data$rs	SEGMENT
??_R0?AV?$CDynamicPoolEx@VCRotationDecorator@NEffectUpdateDecorator@@@@@8 DD FLAT:??_7type_info@@6B@ ; CDynamicPoolEx<NEffectUpdateDecorator::CRotationDecorator> `RTTI Type Descriptor'
	DD	00H
	DB	'.?AV?$CDynamicPoolEx@VCRotationDecorator@NEffectUpdateDe'
	DB	'corator@@@@', 00H
data$rs	ENDS
;	COMDAT ??_R4?$CDynamicPoolEx@VCRotationDecorator@NEffectUpdateDecorator@@@@6B@
rdata$r	SEGMENT
??_R4?$CDynamicPoolEx@VCRotationDecorator@NEffectUpdateDecorator@@@@6B@ DD 00H ; CDynamicPoolEx<NEffectUpdateDecorator::CRotationDecorator>::`RTTI Complete Object Locator'
	DD	00H
	DD	00H
	DD	FLAT:??_R0?AV?$CDynamicPoolEx@VCRotationDecorator@NEffectUpdateDecorator@@@@@8
	DD	FLAT:??_R3?$CDynamicPoolEx@VCRotationDecorator@NEffectUpdateDecorator@@@@8
rdata$r	ENDS
;	COMDAT ??_R1A@?0A@EA@?$CDynamicPoolEx@VCGravityDecorator@NEffectUpdateDecorator@@@@8
rdata$r	SEGMENT
??_R1A@?0A@EA@?$CDynamicPoolEx@VCGravityDecorator@NEffectUpdateDecorator@@@@8 DD FLAT:??_R0?AV?$CDynamicPoolEx@VCGravityDecorator@NEffectUpdateDecorator@@@@@8 ; CDynamicPoolEx<NEffectUpdateDecorator::CGravityDecorator>::`RTTI Base Class Descriptor at (0,-1,0,64)'
	DD	00H
	DD	00H
	DD	0ffffffffH
	DD	00H
	DD	040H
	DD	FLAT:??_R3?$CDynamicPoolEx@VCGravityDecorator@NEffectUpdateDecorator@@@@8
rdata$r	ENDS
;	COMDAT ??_R2?$CDynamicPoolEx@VCGravityDecorator@NEffectUpdateDecorator@@@@8
rdata$r	SEGMENT
??_R2?$CDynamicPoolEx@VCGravityDecorator@NEffectUpdateDecorator@@@@8 DD FLAT:??_R1A@?0A@EA@?$CDynamicPoolEx@VCGravityDecorator@NEffectUpdateDecorator@@@@8 ; CDynamicPoolEx<NEffectUpdateDecorator::CGravityDecorator>::`RTTI Base Class Array'
rdata$r	ENDS
;	COMDAT ??_R3?$CDynamicPoolEx@VCGravityDecorator@NEffectUpdateDecorator@@@@8
rdata$r	SEGMENT
??_R3?$CDynamicPoolEx@VCGravityDecorator@NEffectUpdateDecorator@@@@8 DD 00H ; CDynamicPoolEx<NEffectUpdateDecorator::CGravityDecorator>::`RTTI Class Hierarchy Descriptor'
	DD	00H
	DD	01H
	DD	FLAT:??_R2?$CDynamicPoolEx@VCGravityDecorator@NEffectUpdateDecorator@@@@8
rdata$r	ENDS
;	COMDAT ??_R0?AV?$CDynamicPoolEx@VCGravityDecorator@NEffectUpdateDecorator@@@@@8
data$rs	SEGMENT
??_R0?AV?$CDynamicPoolEx@VCGravityDecorator@NEffectUpdateDecorator@@@@@8 DD FLAT:??_7type_info@@6B@ ; CDynamicPoolEx<NEffectUpdateDecorator::CGravityDecorator> `RTTI Type Descriptor'
	DD	00H
	DB	'.?AV?$CDynamicPoolEx@VCGravityDecorator@NEffectUpdateDec'
	DB	'orator@@@@', 00H
data$rs	ENDS
;	COMDAT ??_R4?$CDynamicPoolEx@VCGravityDecorator@NEffectUpdateDecorator@@@@6B@
rdata$r	SEGMENT
??_R4?$CDynamicPoolEx@VCGravityDecorator@NEffectUpdateDecorator@@@@6B@ DD 00H ; CDynamicPoolEx<NEffectUpdateDecorator::CGravityDecorator>::`RTTI Complete Object Locator'
	DD	00H
	DD	00H
	DD	FLAT:??_R0?AV?$CDynamicPoolEx@VCGravityDecorator@NEffectUpdateDecorator@@@@@8
	DD	FLAT:??_R3?$CDynamicPoolEx@VCGravityDecorator@NEffectUpdateDecorator@@@@8
rdata$r	ENDS
;	COMDAT ??_R1A@?0A@EA@?$CDynamicPoolEx@VCAirResistanceDecorator@NEffectUpdateDecorator@@@@8
rdata$r	SEGMENT
??_R1A@?0A@EA@?$CDynamicPoolEx@VCAirResistanceDecorator@NEffectUpdateDecorator@@@@8 DD FLAT:??_R0?AV?$CDynamicPoolEx@VCAirResistanceDecorator@NEffectUpdateDecorator@@@@@8 ; CDynamicPoolEx<NEffectUpdateDecorator::CAirResistanceDecorator>::`RTTI Base Class Descriptor at (0,-1,0,64)'
	DD	00H
	DD	00H
	DD	0ffffffffH
	DD	00H
	DD	040H
	DD	FLAT:??_R3?$CDynamicPoolEx@VCAirResistanceDecorator@NEffectUpdateDecorator@@@@8
rdata$r	ENDS
;	COMDAT ??_R2?$CDynamicPoolEx@VCAirResistanceDecorator@NEffectUpdateDecorator@@@@8
rdata$r	SEGMENT
??_R2?$CDynamicPoolEx@VCAirResistanceDecorator@NEffectUpdateDecorator@@@@8 DD FLAT:??_R1A@?0A@EA@?$CDynamicPoolEx@VCAirResistanceDecorator@NEffectUpdateDecorator@@@@8 ; CDynamicPoolEx<NEffectUpdateDecorator::CAirResistanceDecorator>::`RTTI Base Class Array'
rdata$r	ENDS
;	COMDAT ??_R3?$CDynamicPoolEx@VCAirResistanceDecorator@NEffectUpdateDecorator@@@@8
rdata$r	SEGMENT
??_R3?$CDynamicPoolEx@VCAirResistanceDecorator@NEffectUpdateDecorator@@@@8 DD 00H ; CDynamicPoolEx<NEffectUpdateDecorator::CAirResistanceDecorator>::`RTTI Class Hierarchy Descriptor'
	DD	00H
	DD	01H
	DD	FLAT:??_R2?$CDynamicPoolEx@VCAirResistanceDecorator@NEffectUpdateDecorator@@@@8
rdata$r	ENDS
;	COMDAT ??_R0?AV?$CDynamicPoolEx@VCAirResistanceDecorator@NEffectUpdateDecorator@@@@@8
data$rs	SEGMENT
??_R0?AV?$CDynamicPoolEx@VCAirResistanceDecorator@NEffectUpdateDecorator@@@@@8 DD FLAT:??_7type_info@@6B@ ; CDynamicPoolEx<NEffectUpdateDecorator::CAirResistanceDecorator> `RTTI Type Descriptor'
	DD	00H
	DB	'.?AV?$CDynamicPoolEx@VCAirResistanceDecorator@NEffectUpd'
	DB	'ateDecorator@@@@', 00H
data$rs	ENDS
;	COMDAT ??_R4?$CDynamicPoolEx@VCAirResistanceDecorator@NEffectUpdateDecorator@@@@6B@
rdata$r	SEGMENT
??_R4?$CDynamicPoolEx@VCAirResistanceDecorator@NEffectUpdateDecorator@@@@6B@ DD 00H ; CDynamicPoolEx<NEffectUpdateDecorator::CAirResistanceDecorator>::`RTTI Complete Object Locator'
	DD	00H
	DD	00H
	DD	FLAT:??_R0?AV?$CDynamicPoolEx@VCAirResistanceDecorator@NEffectUpdateDecorator@@@@@8
	DD	FLAT:??_R3?$CDynamicPoolEx@VCAirResistanceDecorator@NEffectUpdateDecorator@@@@8
rdata$r	ENDS
;	COMDAT ??_R1A@?0A@EA@?$CDynamicPoolEx@VCTextureAnimationRandomDecorator@NEffectUpdateDecorator@@@@8
rdata$r	SEGMENT
??_R1A@?0A@EA@?$CDynamicPoolEx@VCTextureAnimationRandomDecorator@NEffectUpdateDecorator@@@@8 DD FLAT:??_R0?AV?$CDynamicPoolEx@VCTextureAnimationRandomDecorator@NEffectUpdateDecorator@@@@@8 ; CDynamicPoolEx<NEffectUpdateDecorator::CTextureAnimationRandomDecorator>::`RTTI Base Class Descriptor at (0,-1,0,64)'
	DD	00H
	DD	00H
	DD	0ffffffffH
	DD	00H
	DD	040H
	DD	FLAT:??_R3?$CDynamicPoolEx@VCTextureAnimationRandomDecorator@NEffectUpdateDecorator@@@@8
rdata$r	ENDS
;	COMDAT ??_R2?$CDynamicPoolEx@VCTextureAnimationRandomDecorator@NEffectUpdateDecorator@@@@8
rdata$r	SEGMENT
??_R2?$CDynamicPoolEx@VCTextureAnimationRandomDecorator@NEffectUpdateDecorator@@@@8 DD FLAT:??_R1A@?0A@EA@?$CDynamicPoolEx@VCTextureAnimationRandomDecorator@NEffectUpdateDecorator@@@@8 ; CDynamicPoolEx<NEffectUpdateDecorator::CTextureAnimationRandomDecorator>::`RTTI Base Class Array'
rdata$r	ENDS
;	COMDAT ??_R3?$CDynamicPoolEx@VCTextureAnimationRandomDecorator@NEffectUpdateDecorator@@@@8
rdata$r	SEGMENT
??_R3?$CDynamicPoolEx@VCTextureAnimationRandomDecorator@NEffectUpdateDecorator@@@@8 DD 00H ; CDynamicPoolEx<NEffectUpdateDecorator::CTextureAnimationRandomDecorator>::`RTTI Class Hierarchy Descriptor'
	DD	00H
	DD	01H
	DD	FLAT:??_R2?$CDynamicPoolEx@VCTextureAnimationRandomDecorator@NEffectUpdateDecorator@@@@8
rdata$r	ENDS
;	COMDAT ??_R0?AV?$CDynamicPoolEx@VCTextureAnimationRandomDecorator@NEffectUpdateDecorator@@@@@8
data$rs	SEGMENT
??_R0?AV?$CDynamicPoolEx@VCTextureAnimationRandomDecorator@NEffectUpdateDecorator@@@@@8 DD FLAT:??_7type_info@@6B@ ; CDynamicPoolEx<NEffectUpdateDecorator::CTextureAnimationRandomDecorator> `RTTI Type Descriptor'
	DD	00H
	DB	'.?AV?$CDynamicPoolEx@VCTextureAnimationRandomDecorator@N'
	DB	'EffectUpdateDecorator@@@@', 00H
data$rs	ENDS
;	COMDAT ??_R4?$CDynamicPoolEx@VCTextureAnimationRandomDecorator@NEffectUpdateDecorator@@@@6B@
rdata$r	SEGMENT
??_R4?$CDynamicPoolEx@VCTextureAnimationRandomDecorator@NEffectUpdateDecorator@@@@6B@ DD 00H ; CDynamicPoolEx<NEffectUpdateDecorator::CTextureAnimationRandomDecorator>::`RTTI Complete Object Locator'
	DD	00H
	DD	00H
	DD	FLAT:??_R0?AV?$CDynamicPoolEx@VCTextureAnimationRandomDecorator@NEffectUpdateDecorator@@@@@8
	DD	FLAT:??_R3?$CDynamicPoolEx@VCTextureAnimationRandomDecorator@NEffectUpdateDecorator@@@@8
rdata$r	ENDS
;	COMDAT ??_R1A@?0A@EA@?$CDynamicPoolEx@VCTextureAnimationCCWDecorator@NEffectUpdateDecorator@@@@8
rdata$r	SEGMENT
??_R1A@?0A@EA@?$CDynamicPoolEx@VCTextureAnimationCCWDecorator@NEffectUpdateDecorator@@@@8 DD FLAT:??_R0?AV?$CDynamicPoolEx@VCTextureAnimationCCWDecorator@NEffectUpdateDecorator@@@@@8 ; CDynamicPoolEx<NEffectUpdateDecorator::CTextureAnimationCCWDecorator>::`RTTI Base Class Descriptor at (0,-1,0,64)'
	DD	00H
	DD	00H
	DD	0ffffffffH
	DD	00H
	DD	040H
	DD	FLAT:??_R3?$CDynamicPoolEx@VCTextureAnimationCCWDecorator@NEffectUpdateDecorator@@@@8
rdata$r	ENDS
;	COMDAT ??_R2?$CDynamicPoolEx@VCTextureAnimationCCWDecorator@NEffectUpdateDecorator@@@@8
rdata$r	SEGMENT
??_R2?$CDynamicPoolEx@VCTextureAnimationCCWDecorator@NEffectUpdateDecorator@@@@8 DD FLAT:??_R1A@?0A@EA@?$CDynamicPoolEx@VCTextureAnimationCCWDecorator@NEffectUpdateDecorator@@@@8 ; CDynamicPoolEx<NEffectUpdateDecorator::CTextureAnimationCCWDecorator>::`RTTI Base Class Array'
rdata$r	ENDS
;	COMDAT ??_R3?$CDynamicPoolEx@VCTextureAnimationCCWDecorator@NEffectUpdateDecorator@@@@8
rdata$r	SEGMENT
??_R3?$CDynamicPoolEx@VCTextureAnimationCCWDecorator@NEffectUpdateDecorator@@@@8 DD 00H ; CDynamicPoolEx<NEffectUpdateDecorator::CTextureAnimationCCWDecorator>::`RTTI Class Hierarchy Descriptor'
	DD	00H
	DD	01H
	DD	FLAT:??_R2?$CDynamicPoolEx@VCTextureAnimationCCWDecorator@NEffectUpdateDecorator@@@@8
rdata$r	ENDS
;	COMDAT ??_R0?AV?$CDynamicPoolEx@VCTextureAnimationCCWDecorator@NEffectUpdateDecorator@@@@@8
data$rs	SEGMENT
??_R0?AV?$CDynamicPoolEx@VCTextureAnimationCCWDecorator@NEffectUpdateDecorator@@@@@8 DD FLAT:??_7type_info@@6B@ ; CDynamicPoolEx<NEffectUpdateDecorator::CTextureAnimationCCWDecorator> `RTTI Type Descriptor'
	DD	00H
	DB	'.?AV?$CDynamicPoolEx@VCTextureAnimationCCWDecorator@NEff'
	DB	'ectUpdateDecorator@@@@', 00H
data$rs	ENDS
;	COMDAT ??_R4?$CDynamicPoolEx@VCTextureAnimationCCWDecorator@NEffectUpdateDecorator@@@@6B@
rdata$r	SEGMENT
??_R4?$CDynamicPoolEx@VCTextureAnimationCCWDecorator@NEffectUpdateDecorator@@@@6B@ DD 00H ; CDynamicPoolEx<NEffectUpdateDecorator::CTextureAnimationCCWDecorator>::`RTTI Complete Object Locator'
	DD	00H
	DD	00H
	DD	FLAT:??_R0?AV?$CDynamicPoolEx@VCTextureAnimationCCWDecorator@NEffectUpdateDecorator@@@@@8
	DD	FLAT:??_R3?$CDynamicPoolEx@VCTextureAnimationCCWDecorator@NEffectUpdateDecorator@@@@8
rdata$r	ENDS
;	COMDAT ??_R1A@?0A@EA@?$CDynamicPoolEx@VCTextureAnimationCWDecorator@NEffectUpdateDecorator@@@@8
rdata$r	SEGMENT
??_R1A@?0A@EA@?$CDynamicPoolEx@VCTextureAnimationCWDecorator@NEffectUpdateDecorator@@@@8 DD FLAT:??_R0?AV?$CDynamicPoolEx@VCTextureAnimationCWDecorator@NEffectUpdateDecorator@@@@@8 ; CDynamicPoolEx<NEffectUpdateDecorator::CTextureAnimationCWDecorator>::`RTTI Base Class Descriptor at (0,-1,0,64)'
	DD	00H
	DD	00H
	DD	0ffffffffH
	DD	00H
	DD	040H
	DD	FLAT:??_R3?$CDynamicPoolEx@VCTextureAnimationCWDecorator@NEffectUpdateDecorator@@@@8
rdata$r	ENDS
;	COMDAT ??_R2?$CDynamicPoolEx@VCTextureAnimationCWDecorator@NEffectUpdateDecorator@@@@8
rdata$r	SEGMENT
??_R2?$CDynamicPoolEx@VCTextureAnimationCWDecorator@NEffectUpdateDecorator@@@@8 DD FLAT:??_R1A@?0A@EA@?$CDynamicPoolEx@VCTextureAnimationCWDecorator@NEffectUpdateDecorator@@@@8 ; CDynamicPoolEx<NEffectUpdateDecorator::CTextureAnimationCWDecorator>::`RTTI Base Class Array'
rdata$r	ENDS
;	COMDAT ??_R3?$CDynamicPoolEx@VCTextureAnimationCWDecorator@NEffectUpdateDecorator@@@@8
rdata$r	SEGMENT
??_R3?$CDynamicPoolEx@VCTextureAnimationCWDecorator@NEffectUpdateDecorator@@@@8 DD 00H ; CDynamicPoolEx<NEffectUpdateDecorator::CTextureAnimationCWDecorator>::`RTTI Class Hierarchy Descriptor'
	DD	00H
	DD	01H
	DD	FLAT:??_R2?$CDynamicPoolEx@VCTextureAnimationCWDecorator@NEffectUpdateDecorator@@@@8
rdata$r	ENDS
;	COMDAT ??_R0?AV?$CDynamicPoolEx@VCTextureAnimationCWDecorator@NEffectUpdateDecorator@@@@@8
data$rs	SEGMENT
??_R0?AV?$CDynamicPoolEx@VCTextureAnimationCWDecorator@NEffectUpdateDecorator@@@@@8 DD FLAT:??_7type_info@@6B@ ; CDynamicPoolEx<NEffectUpdateDecorator::CTextureAnimationCWDecorator> `RTTI Type Descriptor'
	DD	00H
	DB	'.?AV?$CDynamicPoolEx@VCTextureAnimationCWDecorator@NEffe'
	DB	'ctUpdateDecorator@@@@', 00H
data$rs	ENDS
;	COMDAT ??_R4?$CDynamicPoolEx@VCTextureAnimationCWDecorator@NEffectUpdateDecorator@@@@6B@
rdata$r	SEGMENT
??_R4?$CDynamicPoolEx@VCTextureAnimationCWDecorator@NEffectUpdateDecorator@@@@6B@ DD 00H ; CDynamicPoolEx<NEffectUpdateDecorator::CTextureAnimationCWDecorator>::`RTTI Complete Object Locator'
	DD	00H
	DD	00H
	DD	FLAT:??_R0?AV?$CDynamicPoolEx@VCTextureAnimationCWDecorator@NEffectUpdateDecorator@@@@@8
	DD	FLAT:??_R3?$CDynamicPoolEx@VCTextureAnimationCWDecorator@NEffectUpdateDecorator@@@@8
rdata$r	ENDS
;	COMDAT ??_R1A@?0A@EA@?$CDynamicPoolEx@VCNullDecorator@NEffectUpdateDecorator@@@@8
rdata$r	SEGMENT
??_R1A@?0A@EA@?$CDynamicPoolEx@VCNullDecorator@NEffectUpdateDecorator@@@@8 DD FLAT:??_R0?AV?$CDynamicPoolEx@VCNullDecorator@NEffectUpdateDecorator@@@@@8 ; CDynamicPoolEx<NEffectUpdateDecorator::CNullDecorator>::`RTTI Base Class Descriptor at (0,-1,0,64)'
	DD	00H
	DD	00H
	DD	0ffffffffH
	DD	00H
	DD	040H
	DD	FLAT:??_R3?$CDynamicPoolEx@VCNullDecorator@NEffectUpdateDecorator@@@@8
rdata$r	ENDS
;	COMDAT ??_R2?$CDynamicPoolEx@VCNullDecorator@NEffectUpdateDecorator@@@@8
rdata$r	SEGMENT
??_R2?$CDynamicPoolEx@VCNullDecorator@NEffectUpdateDecorator@@@@8 DD FLAT:??_R1A@?0A@EA@?$CDynamicPoolEx@VCNullDecorator@NEffectUpdateDecorator@@@@8 ; CDynamicPoolEx<NEffectUpdateDecorator::CNullDecorator>::`RTTI Base Class Array'
rdata$r	ENDS
;	COMDAT ??_R3?$CDynamicPoolEx@VCNullDecorator@NEffectUpdateDecorator@@@@8
rdata$r	SEGMENT
??_R3?$CDynamicPoolEx@VCNullDecorator@NEffectUpdateDecorator@@@@8 DD 00H ; CDynamicPoolEx<NEffectUpdateDecorator::CNullDecorator>::`RTTI Class Hierarchy Descriptor'
	DD	00H
	DD	01H
	DD	FLAT:??_R2?$CDynamicPoolEx@VCNullDecorator@NEffectUpdateDecorator@@@@8
rdata$r	ENDS
;	COMDAT ??_R0?AV?$CDynamicPoolEx@VCNullDecorator@NEffectUpdateDecorator@@@@@8
data$rs	SEGMENT
??_R0?AV?$CDynamicPoolEx@VCNullDecorator@NEffectUpdateDecorator@@@@@8 DD FLAT:??_7type_info@@6B@ ; CDynamicPoolEx<NEffectUpdateDecorator::CNullDecorator> `RTTI Type Descriptor'
	DD	00H
	DB	'.?AV?$CDynamicPoolEx@VCNullDecorator@NEffectUpdateDecora'
	DB	'tor@@@@', 00H
data$rs	ENDS
;	COMDAT ??_R4?$CDynamicPoolEx@VCNullDecorator@NEffectUpdateDecorator@@@@6B@
rdata$r	SEGMENT
??_R4?$CDynamicPoolEx@VCNullDecorator@NEffectUpdateDecorator@@@@6B@ DD 00H ; CDynamicPoolEx<NEffectUpdateDecorator::CNullDecorator>::`RTTI Complete Object Locator'
	DD	00H
	DD	00H
	DD	FLAT:??_R0?AV?$CDynamicPoolEx@VCNullDecorator@NEffectUpdateDecorator@@@@@8
	DD	FLAT:??_R3?$CDynamicPoolEx@VCNullDecorator@NEffectUpdateDecorator@@@@8
rdata$r	ENDS
;	COMDAT ??_R1A@?0A@EA@?$CDynamicPoolEx@VCHeaderDecorator@NEffectUpdateDecorator@@@@8
rdata$r	SEGMENT
??_R1A@?0A@EA@?$CDynamicPoolEx@VCHeaderDecorator@NEffectUpdateDecorator@@@@8 DD FLAT:??_R0?AV?$CDynamicPoolEx@VCHeaderDecorator@NEffectUpdateDecorator@@@@@8 ; CDynamicPoolEx<NEffectUpdateDecorator::CHeaderDecorator>::`RTTI Base Class Descriptor at (0,-1,0,64)'
	DD	00H
	DD	00H
	DD	0ffffffffH
	DD	00H
	DD	040H
	DD	FLAT:??_R3?$CDynamicPoolEx@VCHeaderDecorator@NEffectUpdateDecorator@@@@8
rdata$r	ENDS
;	COMDAT ??_R2?$CDynamicPoolEx@VCHeaderDecorator@NEffectUpdateDecorator@@@@8
rdata$r	SEGMENT
??_R2?$CDynamicPoolEx@VCHeaderDecorator@NEffectUpdateDecorator@@@@8 DD FLAT:??_R1A@?0A@EA@?$CDynamicPoolEx@VCHeaderDecorator@NEffectUpdateDecorator@@@@8 ; CDynamicPoolEx<NEffectUpdateDecorator::CHeaderDecorator>::`RTTI Base Class Array'
rdata$r	ENDS
;	COMDAT ??_R3?$CDynamicPoolEx@VCHeaderDecorator@NEffectUpdateDecorator@@@@8
rdata$r	SEGMENT
??_R3?$CDynamicPoolEx@VCHeaderDecorator@NEffectUpdateDecorator@@@@8 DD 00H ; CDynamicPoolEx<NEffectUpdateDecorator::CHeaderDecorator>::`RTTI Class Hierarchy Descriptor'
	DD	00H
	DD	01H
	DD	FLAT:??_R2?$CDynamicPoolEx@VCHeaderDecorator@NEffectUpdateDecorator@@@@8
rdata$r	ENDS
;	COMDAT ??_R0?AV?$CDynamicPoolEx@VCHeaderDecorator@NEffectUpdateDecorator@@@@@8
data$rs	SEGMENT
??_R0?AV?$CDynamicPoolEx@VCHeaderDecorator@NEffectUpdateDecorator@@@@@8 DD FLAT:??_7type_info@@6B@ ; CDynamicPoolEx<NEffectUpdateDecorator::CHeaderDecorator> `RTTI Type Descriptor'
	DD	00H
	DB	'.?AV?$CDynamicPoolEx@VCHeaderDecorator@NEffectUpdateDeco'
	DB	'rator@@@@', 00H
data$rs	ENDS
;	COMDAT ??_R4?$CDynamicPoolEx@VCHeaderDecorator@NEffectUpdateDecorator@@@@6B@
rdata$r	SEGMENT
??_R4?$CDynamicPoolEx@VCHeaderDecorator@NEffectUpdateDecorator@@@@6B@ DD 00H ; CDynamicPoolEx<NEffectUpdateDecorator::CHeaderDecorator>::`RTTI Complete Object Locator'
	DD	00H
	DD	00H
	DD	FLAT:??_R0?AV?$CDynamicPoolEx@VCHeaderDecorator@NEffectUpdateDecorator@@@@@8
	DD	FLAT:??_R3?$CDynamicPoolEx@VCHeaderDecorator@NEffectUpdateDecorator@@@@8
rdata$r	ENDS
;	COMDAT ??_7?$CDynamicPoolEx@VCTextureAnimationRandomDecorator@NEffectUpdateDecorator@@@@6B@
CONST	SEGMENT
??_7?$CDynamicPoolEx@VCTextureAnimationRandomDecorator@NEffectUpdateDecorator@@@@6B@ DD FLAT:??_R4?$CDynamicPoolEx@VCTextureAnimationRandomDecorator@NEffectUpdateDecorator@@@@6B@ ; CDynamicPoolEx<NEffectUpdateDecorator::CTextureAnimationRandomDecorator>::`vftable'
	DD	FLAT:??_E?$CDynamicPoolEx@VCTextureAnimationRandomDecorator@NEffectUpdateDecorator@@@@UAEPAXI@Z
CONST	ENDS
;	COMDAT ??_7?$CDynamicPoolEx@VCAirResistanceDecorator@NEffectUpdateDecorator@@@@6B@
CONST	SEGMENT
??_7?$CDynamicPoolEx@VCAirResistanceDecorator@NEffectUpdateDecorator@@@@6B@ DD FLAT:??_R4?$CDynamicPoolEx@VCAirResistanceDecorator@NEffectUpdateDecorator@@@@6B@ ; CDynamicPoolEx<NEffectUpdateDecorator::CAirResistanceDecorator>::`vftable'
	DD	FLAT:??_E?$CDynamicPoolEx@VCAirResistanceDecorator@NEffectUpdateDecorator@@@@UAEPAXI@Z
CONST	ENDS
;	COMDAT ??_7?$CDynamicPoolEx@VCGravityDecorator@NEffectUpdateDecorator@@@@6B@
CONST	SEGMENT
??_7?$CDynamicPoolEx@VCGravityDecorator@NEffectUpdateDecorator@@@@6B@ DD FLAT:??_R4?$CDynamicPoolEx@VCGravityDecorator@NEffectUpdateDecorator@@@@6B@ ; CDynamicPoolEx<NEffectUpdateDecorator::CGravityDecorator>::`vftable'
	DD	FLAT:??_E?$CDynamicPoolEx@VCGravityDecorator@NEffectUpdateDecorator@@@@UAEPAXI@Z
CONST	ENDS
;	COMDAT ??_7?$CDynamicPoolEx@VCRotationDecorator@NEffectUpdateDecorator@@@@6B@
CONST	SEGMENT
??_7?$CDynamicPoolEx@VCRotationDecorator@NEffectUpdateDecorator@@@@6B@ DD FLAT:??_R4?$CDynamicPoolEx@VCRotationDecorator@NEffectUpdateDecorator@@@@6B@ ; CDynamicPoolEx<NEffectUpdateDecorator::CRotationDecorator>::`vftable'
	DD	FLAT:??_E?$CDynamicPoolEx@VCRotationDecorator@NEffectUpdateDecorator@@@@UAEPAXI@Z
CONST	ENDS
CONST	SEGMENT
?piecewise_construct@std@@3Upiecewise_construct_t@1@B	ORG $+1 ; std::piecewise_construct
CONST	ENDS
;	COMDAT ??_C@_09EHIBBABK@types?4pyc@
CONST	SEGMENT
??_C@_09EHIBBABK@types?4pyc@ DB 'types.pyc', 00H	; `string'
CONST	ENDS
;	COMDAT ??_C@_0O@PMKHJGGH@traceback?4pyc@
CONST	SEGMENT
??_C@_0O@PMKHJGGH@traceback?4pyc@ DB 'traceback.pyc', 00H ; `string'
CONST	ENDS
;	COMDAT ??_C@_0L@NDKNFNNI@string?4pyc@
CONST	SEGMENT
??_C@_0L@NDKNFNNI@string?4pyc@ DB 'string.pyc', 00H	; `string'
CONST	ENDS
;	COMDAT ??_C@_08EFIONJOP@stat?4pyc@
CONST	SEGMENT
??_C@_08EFIONJOP@stat?4pyc@ DB 'stat.pyc', 00H		; `string'
CONST	ENDS
;	COMDAT ??_C@_08FPFMJPEC@site?4pyc@
CONST	SEGMENT
??_C@_08FPFMJPEC@site?4pyc@ DB 'site.pyc', 00H		; `string'
CONST	ENDS
;	COMDAT ??_C@_06JCOFDJKA@os?4pyc@
CONST	SEGMENT
??_C@_06JCOFDJKA@os?4pyc@ DB 'os.pyc', 00H		; `string'
CONST	ENDS
;	COMDAT ??_C@_0L@HJCEJGHC@ntpath?4pyc@
CONST	SEGMENT
??_C@_0L@HJCEJGHC@ntpath?4pyc@ DB 'ntpath.pyc', 00H	; `string'
CONST	ENDS
;	COMDAT ??_C@_0O@COBIIGAD@linecache?4pyc@
CONST	SEGMENT
??_C@_0O@COBIIGAD@linecache?4pyc@ DB 'linecache.pyc', 00H ; `string'
CONST	ENDS
;	COMDAT ??_C@_0N@GCNFBOJN@copy_reg?4pyc@
CONST	SEGMENT
??_C@_0N@GCNFBOJN@copy_reg?4pyc@ DB 'copy_reg.pyc', 00H	; `string'
CONST	ENDS
;	COMDAT ??_C@_0P@KBODAEKE@__future__?4pyc@
CONST	SEGMENT
??_C@_0P@KBODAEKE@__future__?4pyc@ DB '__future__.pyc', 00H ; `string'
CONST	ENDS
;	COMDAT ??_C@_0N@CMMKLLC@UserDict?4pyc@
CONST	SEGMENT
??_C@_0N@CMMKLLC@UserDict?4pyc@ DB 'UserDict.pyc', 00H	; `string'
CONST	ENDS
_DATA	SEGMENT
?__vsnprintf@@3P6AHPADIPBD0@ZA DD FLAT:__vsnprintf	; __vsnprintf
_DATA	ENDS
;	COMDAT ??_7?$CDynamicPoolEx@VCHeaderDecorator@NEffectUpdateDecorator@@@@6B@
CONST	SEGMENT
??_7?$CDynamicPoolEx@VCHeaderDecorator@NEffectUpdateDecorator@@@@6B@ DD FLAT:??_R4?$CDynamicPoolEx@VCHeaderDecorator@NEffectUpdateDecorator@@@@6B@ ; CDynamicPoolEx<NEffectUpdateDecorator::CHeaderDecorator>::`vftable'
	DD	FLAT:??_E?$CDynamicPoolEx@VCHeaderDecorator@NEffectUpdateDecorator@@@@UAEPAXI@Z
CONST	ENDS
;	COMDAT ??_C@_01EEMJAFIK@?6@
CONST	SEGMENT
??_C@_01EEMJAFIK@?6@ DB 0aH, 00H			; `string'
CONST	ENDS
;	COMDAT ??_7?$CDynamicPoolEx@VCNullDecorator@NEffectUpdateDecorator@@@@6B@
CONST	SEGMENT
??_7?$CDynamicPoolEx@VCNullDecorator@NEffectUpdateDecorator@@@@6B@ DD FLAT:??_R4?$CDynamicPoolEx@VCNullDecorator@NEffectUpdateDecorator@@@@6B@ ; CDynamicPoolEx<NEffectUpdateDecorator::CNullDecorator>::`vftable'
	DD	FLAT:??_E?$CDynamicPoolEx@VCNullDecorator@NEffectUpdateDecorator@@@@UAEPAXI@Z
CONST	ENDS
;	COMDAT ??_7?$CDynamicPoolEx@VCTextureAnimationCWDecorator@NEffectUpdateDecorator@@@@6B@
CONST	SEGMENT
??_7?$CDynamicPoolEx@VCTextureAnimationCWDecorator@NEffectUpdateDecorator@@@@6B@ DD FLAT:??_R4?$CDynamicPoolEx@VCTextureAnimationCWDecorator@NEffectUpdateDecorator@@@@6B@ ; CDynamicPoolEx<NEffectUpdateDecorator::CTextureAnimationCWDecorator>::`vftable'
	DD	FLAT:??_E?$CDynamicPoolEx@VCTextureAnimationCWDecorator@NEffectUpdateDecorator@@@@UAEPAXI@Z
CONST	ENDS
;	COMDAT ??_7?$CDynamicPoolEx@VCTextureAnimationCCWDecorator@NEffectUpdateDecorator@@@@6B@
CONST	SEGMENT
??_7?$CDynamicPoolEx@VCTextureAnimationCCWDecorator@NEffectUpdateDecorator@@@@6B@ DD FLAT:??_R4?$CDynamicPoolEx@VCTextureAnimationCCWDecorator@NEffectUpdateDecorator@@@@6B@ ; CDynamicPoolEx<NEffectUpdateDecorator::CTextureAnimationCCWDecorator>::`vftable'
	DD	FLAT:??_E?$CDynamicPoolEx@VCTextureAnimationCCWDecorator@NEffectUpdateDecorator@@@@UAEPAXI@Z
CONST	ENDS
PUBLIC	??_H@YGXPAXIIP6EPAX0@Z@Z			; `vector constructor iterator'
PUBLIC	?__empty_global_delete@@YAXPAX@Z		; __empty_global_delete
PUBLIC	?__empty_global_delete@@YAXPAXI@Z		; __empty_global_delete
PUBLIC	_WinMain@16
PUBLIC	___local_stdio_printf_options
PUBLIC	_fprintf
PUBLIC	_sprintf
PUBLIC	??0exception@std@@QAE@ABV01@@Z			; std::exception::exception
PUBLIC	??1exception@std@@UAE@XZ			; std::exception::~exception
PUBLIC	?what@exception@std@@UBEPBDXZ			; std::exception::what
PUBLIC	??_Gexception@std@@UAEPAXI@Z			; std::exception::`scalar deleting destructor'
PUBLIC	??0bad_alloc@std@@QAE@ABV01@@Z			; std::bad_alloc::bad_alloc
PUBLIC	??_Gbad_alloc@std@@UAEPAXI@Z			; std::bad_alloc::`scalar deleting destructor'
PUBLIC	??0bad_array_new_length@std@@QAE@XZ		; std::bad_array_new_length::bad_array_new_length
PUBLIC	??1bad_array_new_length@std@@UAE@XZ		; std::bad_array_new_length::~bad_array_new_length
PUBLIC	??0bad_array_new_length@std@@QAE@ABV01@@Z	; std::bad_array_new_length::bad_array_new_length
PUBLIC	??_Gbad_array_new_length@std@@UAEPAXI@Z		; std::bad_array_new_length::`scalar deleting destructor'
PUBLIC	?_Throw_bad_array_new_length@std@@YAXXZ		; std::_Throw_bad_array_new_length
PUBLIC	?_Xlen_string@std@@YAXXZ			; std::_Xlen_string
PUBLIC	?_Xran@?$_String_val@U?$_Simple_types@D@std@@@std@@SAXXZ ; std::_String_val<std::_Simple_types<char> >::_Xran
PUBLIC	??0?$basic_string@DU?$char_traits@D@std@@V?$allocator@D@2@@std@@QAE@ABV01@@Z ; std::basic_string<char,std::char_traits<char>,std::allocator<char> >::basic_string<char,std::char_traits<char>,std::allocator<char> >
PUBLIC	??0?$basic_string@DU?$char_traits@D@std@@V?$allocator@D@2@@std@@QAE@U_String_constructor_concat_tag@1@ABV01@QBDI2I@Z ; std::basic_string<char,std::char_traits<char>,std::allocator<char> >::basic_string<char,std::char_traits<char>,std::allocator<char> >
PUBLIC	??1?$basic_string@DU?$char_traits@D@std@@V?$allocator@D@2@@std@@QAE@XZ ; std::basic_string<char,std::char_traits<char>,std::allocator<char> >::~basic_string<char,std::char_traits<char>,std::allocator<char> >
PUBLIC	??Y?$basic_string@DU?$char_traits@D@std@@V?$allocator@D@2@@std@@QAEAAV01@D@Z ; std::basic_string<char,std::char_traits<char>,std::allocator<char> >::operator+=
PUBLIC	?append@?$basic_string@DU?$char_traits@D@std@@V?$allocator@D@2@@std@@QAEAAV12@QBDI@Z ; std::basic_string<char,std::char_traits<char>,std::allocator<char> >::append
PUBLIC	?assign@?$basic_string@DU?$char_traits@D@std@@V?$allocator@D@2@@std@@QAEAAV12@QBDI@Z ; std::basic_string<char,std::char_traits<char>,std::allocator<char> >::assign
PUBLIC	?insert@?$basic_string@DU?$char_traits@D@std@@V?$allocator@D@2@@std@@QAEAAV12@IQBDI@Z ; std::basic_string<char,std::char_traits<char>,std::allocator<char> >::insert
PUBLIC	?compare@?$basic_string@DU?$char_traits@D@std@@V?$allocator@D@2@@std@@QBEHQBD@Z ; std::basic_string<char,std::char_traits<char>,std::allocator<char> >::compare
PUBLIC	?_Throw_tree_length_error@std@@YAXXZ		; std::_Throw_tree_length_error
PUBLIC	??1?$vector@V?$basic_string@DU?$char_traits@D@std@@V?$allocator@D@2@@std@@V?$allocator@V?$basic_string@DU?$char_traits@D@std@@V?$allocator@D@2@@std@@@2@@std@@QAE@XZ ; std::vector<std::basic_string<char,std::char_traits<char>,std::allocator<char> >,std::allocator<std::basic_string<char,std::char_traits<char>,std::allocator<char> > > >::~vector<std::basic_string<char,std::char_traits<char>,std::allocator<char> >,std::allocator<std::basic_string<char,std::char_traits<char>,std::allocator<char> > > >
PUBLIC	?_Insert_node@?$_Tree_val@U?$_Tree_simple_types@U?$pair@$$CBKV?$basic_string@DU?$char_traits@D@std@@V?$allocator@D@2@@std@@@std@@@std@@@std@@QAEPAU?$_Tree_node@U?$pair@$$CBKV?$basic_string@DU?$char_traits@D@std@@V?$allocator@D@2@@std@@@std@@PAX@2@U?$_Tree_id@PAU?$_Tree_node@U?$pair@$$CBKV?$basic_string@DU?$char_traits@D@std@@V?$allocator@D@2@@std@@@std@@PAX@std@@@2@QAU32@@Z ; std::_Tree_val<std::_Tree_simple_types<std::pair<unsigned long const ,std::basic_string<char,std::char_traits<char>,std::allocator<char> > > > >::_Insert_node
PUBLIC	??A?$map@KV?$basic_string@DU?$char_traits@D@std@@V?$allocator@D@2@@std@@U?$less@K@2@V?$allocator@U?$pair@$$CBKV?$basic_string@DU?$char_traits@D@std@@V?$allocator@D@2@@std@@@std@@@2@@std@@QAEAAV?$basic_string@DU?$char_traits@D@std@@V?$allocator@D@2@@1@ABK@Z ; std::map<unsigned long,std::basic_string<char,std::char_traits<char>,std::allocator<char> >,std::less<unsigned long>,std::allocator<std::pair<unsigned long const ,std::basic_string<char,std::char_traits<char>,std::allocator<char> > > > >::operator[]
PUBLIC	?ApplicationStringTable_GetString@@YAABV?$basic_string@DU?$char_traits@D@std@@V?$allocator@D@2@@std@@K@Z ; ApplicationStringTable_GetString
PUBLIC	?ApplicationStringTable_GetString@@YAABV?$basic_string@DU?$char_traits@D@std@@V?$allocator@D@2@@std@@KPBD@Z ; ApplicationStringTable_GetString
PUBLIC	?ApplicationStringTable_GetStringz@@YAPBDK@Z	; ApplicationStringTable_GetStringz
PUBLIC	?ApplicationStringTable_GetStringz@@YAPBDKPBD@Z	; ApplicationStringTable_GetStringz
PUBLIC	?ApplicationSetErrorString@@YAXPBD@Z		; ApplicationSetErrorString
PUBLIC	??$_Destroy_in_place@PAD@std@@YAXAAPAD@Z	; std::_Destroy_in_place<char *>
PUBLIC	??$_Construct_in_place@PADABQAD@std@@YAXAAPADABQAD@Z ; std::_Construct_in_place<char *,char * const &>
PUBLIC	??$_Pocma@V?$allocator@D@std@@@std@@YAXAAV?$allocator@D@0@0@Z ; std::_Pocma<std::allocator<char> >
PUBLIC	??$_Deallocate@$07$0A@@std@@YAXPAXI@Z		; std::_Deallocate<8,0>
PUBLIC	??$_Allocate@$07U_Default_allocate_traits@std@@$0A@@std@@YAPAXI@Z ; std::_Allocate<8,std::_Default_allocate_traits,0>
PUBLIC	??$_Allocate_manually_vector_aligned@U_Default_allocate_traits@std@@@std@@YAPAXI@Z ; std::_Allocate_manually_vector_aligned<std::_Default_allocate_traits>
PUBLIC	??$?HDU?$char_traits@D@std@@V?$allocator@D@1@@std@@YA?AV?$basic_string@DU?$char_traits@D@std@@V?$allocator@D@2@@0@ABV10@QBD@Z ; std::operator+<char,std::char_traits<char>,std::allocator<char> >
PUBLIC	??$?HDU?$char_traits@D@std@@V?$allocator@D@1@@std@@YA?AV?$basic_string@DU?$char_traits@D@std@@V?$allocator@D@2@@0@ABV10@$$QAV10@@Z ; std::operator+<char,std::char_traits<char>,std::allocator<char> >
PUBLIC	??$?HDU?$char_traits@D@std@@V?$allocator@D@1@@std@@YA?AV?$basic_string@DU?$char_traits@D@std@@V?$allocator@D@2@@0@ABV10@0@Z ; std::operator+<char,std::char_traits<char>,std::allocator<char> >
PUBLIC	?METIN2_GET_VERSION@@YAHXZ			; METIN2_GET_VERSION
PUBLIC	?CheckPythonLibraryFilenames@@YA_NXZ		; CheckPythonLibraryFilenames
PUBLIC	?ApplicationStringTable_Initialize@@YAXPAUHINSTANCE__@@@Z ; ApplicationStringTable_Initialize
PUBLIC	?Setup@@YAHPAD@Z				; Setup
PUBLIC	?PackInitialize@@YA_NPBD@Z			; PackInitialize
PUBLIC	?RunMainScript@@YA_NAAVCPythonLauncher@@PBD@Z	; RunMainScript
PUBLIC	??$?8DU?$char_traits@D@std@@V?$allocator@D@1@@std@@YA_NABV?$basic_string@DU?$char_traits@D@std@@V?$allocator@D@2@@0@QBD@Z ; std::operator==<char,std::char_traits<char>,std::allocator<char> >
PUBLIC	??$string_join@V?$vector@V?$basic_string@DU?$char_traits@D@std@@V?$allocator@D@2@@std@@V?$allocator@V?$basic_string@DU?$char_traits@D@std@@V?$allocator@D@2@@std@@@2@@std@@@@YAXABV?$basic_string@DU?$char_traits@D@std@@V?$allocator@D@2@@std@@ABV?$vector@V?$basic_string@DU?$char_traits@D@std@@V?$allocator@D@2@@std@@V?$allocator@V?$basic_string@DU?$char_traits@D@std@@V?$allocator@D@2@@std@@@2@@1@PAV01@@Z ; string_join<std::vector<std::basic_string<char,std::char_traits<char>,std::allocator<char> >,std::allocator<std::basic_string<char,std::char_traits<char>,std::allocator<char> > > > >
PUBLIC	??$?8DU?$char_traits@D@std@@V?$allocator@D@1@@std@@YA_NQBDABV?$basic_string@DU?$char_traits@D@std@@V?$allocator@D@2@@0@@Z ; std::operator==<char,std::char_traits<char>,std::allocator<char> >
PUBLIC	?Main@@YA_NPAUHINSTANCE__@@PAD@Z		; Main
PUBLIC	?CreateMetin2GameMutex@@YAPAXXZ			; CreateMetin2GameMutex
PUBLIC	?DestroyMetin2GameMutex@@YAXPAX@Z		; DestroyMetin2GameMutex
PUBLIC	?__ErrorPythonLibraryIsNotExist@@YAXXZ		; __ErrorPythonLibraryIsNotExist
PUBLIC	?__IsTimeStampOption@@YA_NPAD@Z			; __IsTimeStampOption
PUBLIC	?__PrintTimeStamp@@YAXXZ			; __PrintTimeStamp
PUBLIC	?__IsLocaleOption@@YA_NPAD@Z			; __IsLocaleOption
PUBLIC	?__IsLocaleVersion@@YA_NPAD@Z			; __IsLocaleVersion
PUBLIC	??1?$CDynamicPoolEx@VCRotationDecorator@NEffectUpdateDecorator@@@@UAE@XZ ; CDynamicPoolEx<NEffectUpdateDecorator::CRotationDecorator>::~CDynamicPoolEx<NEffectUpdateDecorator::CRotationDecorator>
PUBLIC	?Delete@?$CDynamicPoolEx@VCRotationDecorator@NEffectUpdateDecorator@@@@KAXPAVCRotationDecorator@NEffectUpdateDecorator@@@Z ; CDynamicPoolEx<NEffectUpdateDecorator::CRotationDecorator>::Delete
PUBLIC	??1?$CDynamicPoolEx@VCGravityDecorator@NEffectUpdateDecorator@@@@UAE@XZ ; CDynamicPoolEx<NEffectUpdateDecorator::CGravityDecorator>::~CDynamicPoolEx<NEffectUpdateDecorator::CGravityDecorator>
PUBLIC	?Delete@?$CDynamicPoolEx@VCGravityDecorator@NEffectUpdateDecorator@@@@KAXPAVCGravityDecorator@NEffectUpdateDecorator@@@Z ; CDynamicPoolEx<NEffectUpdateDecorator::CGravityDecorator>::Delete
PUBLIC	??1?$CDynamicPoolEx@VCAirResistanceDecorator@NEffectUpdateDecorator@@@@UAE@XZ ; CDynamicPoolEx<NEffectUpdateDecorator::CAirResistanceDecorator>::~CDynamicPoolEx<NEffectUpdateDecorator::CAirResistanceDecorator>
PUBLIC	?Delete@?$CDynamicPoolEx@VCAirResistanceDecorator@NEffectUpdateDecorator@@@@KAXPAVCAirResistanceDecorator@NEffectUpdateDecorator@@@Z ; CDynamicPoolEx<NEffectUpdateDecorator::CAirResistanceDecorator>::Delete
PUBLIC	??1?$CDynamicPoolEx@VCTextureAnimationRandomDecorator@NEffectUpdateDecorator@@@@UAE@XZ ; CDynamicPoolEx<NEffectUpdateDecorator::CTextureAnimationRandomDecorator>::~CDynamicPoolEx<NEffectUpdateDecorator::CTextureAnimationRandomDecorator>
PUBLIC	?Delete@?$CDynamicPoolEx@VCTextureAnimationRandomDecorator@NEffectUpdateDecorator@@@@KAXPAVCTextureAnimationRandomDecorator@NEffectUpdateDecorator@@@Z ; CDynamicPoolEx<NEffectUpdateDecorator::CTextureAnimationRandomDecorator>::Delete
PUBLIC	??1?$CDynamicPoolEx@VCTextureAnimationCCWDecorator@NEffectUpdateDecorator@@@@UAE@XZ ; CDynamicPoolEx<NEffectUpdateDecorator::CTextureAnimationCCWDecorator>::~CDynamicPoolEx<NEffectUpdateDecorator::CTextureAnimationCCWDecorator>
PUBLIC	?Delete@?$CDynamicPoolEx@VCTextureAnimationCCWDecorator@NEffectUpdateDecorator@@@@KAXPAVCTextureAnimationCCWDecorator@NEffectUpdateDecorator@@@Z ; CDynamicPoolEx<NEffectUpdateDecorator::CTextureAnimationCCWDecorator>::Delete
PUBLIC	??1?$CDynamicPoolEx@VCTextureAnimationCWDecorator@NEffectUpdateDecorator@@@@UAE@XZ ; CDynamicPoolEx<NEffectUpdateDecorator::CTextureAnimationCWDecorator>::~CDynamicPoolEx<NEffectUpdateDecorator::CTextureAnimationCWDecorator>
PUBLIC	?Delete@?$CDynamicPoolEx@VCTextureAnimationCWDecorator@NEffectUpdateDecorator@@@@KAXPAVCTextureAnimationCWDecorator@NEffectUpdateDecorator@@@Z ; CDynamicPoolEx<NEffectUpdateDecorator::CTextureAnimationCWDecorator>::Delete
PUBLIC	??1?$CDynamicPoolEx@VCNullDecorator@NEffectUpdateDecorator@@@@UAE@XZ ; CDynamicPoolEx<NEffectUpdateDecorator::CNullDecorator>::~CDynamicPoolEx<NEffectUpdateDecorator::CNullDecorator>
PUBLIC	?Delete@?$CDynamicPoolEx@VCNullDecorator@NEffectUpdateDecorator@@@@KAXPAVCNullDecorator@NEffectUpdateDecorator@@@Z ; CDynamicPoolEx<NEffectUpdateDecorator::CNullDecorator>::Delete
PUBLIC	??1?$CDynamicPoolEx@VCHeaderDecorator@NEffectUpdateDecorator@@@@UAE@XZ ; CDynamicPoolEx<NEffectUpdateDecorator::CHeaderDecorator>::~CDynamicPoolEx<NEffectUpdateDecorator::CHeaderDecorator>
PUBLIC	?Delete@?$CDynamicPoolEx@VCHeaderDecorator@NEffectUpdateDecorator@@@@KAXPAVCHeaderDecorator@NEffectUpdateDecorator@@@Z ; CDynamicPoolEx<NEffectUpdateDecorator::CHeaderDecorator>::Delete
PUBLIC	??$_Destroy_range@V?$allocator@V?$basic_string@DU?$char_traits@D@std@@V?$allocator@D@2@@std@@@std@@@std@@YAXPAV?$basic_string@DU?$char_traits@D@std@@V?$allocator@D@2@@0@QAV10@AAV?$allocator@V?$basic_string@DU?$char_traits@D@std@@V?$allocator@D@2@@std@@@0@@Z ; std::_Destroy_range<std::allocator<std::basic_string<char,std::char_traits<char>,std::allocator<char> > > >
PUBLIC	??$_Destroy_range@V?$allocator@PAVCHeaderDecorator@NEffectUpdateDecorator@@@std@@@std@@YAXPAPAVCHeaderDecorator@NEffectUpdateDecorator@@QAPAV12@AAV?$allocator@PAVCHeaderDecorator@NEffectUpdateDecorator@@@0@@Z ; std::_Destroy_range<std::allocator<NEffectUpdateDecorator::CHeaderDecorator *> >
PUBLIC	??$_Destroy_range@V?$allocator@PAVCNullDecorator@NEffectUpdateDecorator@@@std@@@std@@YAXPAPAVCNullDecorator@NEffectUpdateDecorator@@QAPAV12@AAV?$allocator@PAVCNullDecorator@NEffectUpdateDecorator@@@0@@Z ; std::_Destroy_range<std::allocator<NEffectUpdateDecorator::CNullDecorator *> >
PUBLIC	??$_Destroy_range@V?$allocator@PAVCTextureAnimationCWDecorator@NEffectUpdateDecorator@@@std@@@std@@YAXPAPAVCTextureAnimationCWDecorator@NEffectUpdateDecorator@@QAPAV12@AAV?$allocator@PAVCTextureAnimationCWDecorator@NEffectUpdateDecorator@@@0@@Z ; std::_Destroy_range<std::allocator<NEffectUpdateDecorator::CTextureAnimationCWDecorator *> >
PUBLIC	??$_Destroy_range@V?$allocator@PAVCTextureAnimationCCWDecorator@NEffectUpdateDecorator@@@std@@@std@@YAXPAPAVCTextureAnimationCCWDecorator@NEffectUpdateDecorator@@QAPAV12@AAV?$allocator@PAVCTextureAnimationCCWDecorator@NEffectUpdateDecorator@@@0@@Z ; std::_Destroy_range<std::allocator<NEffectUpdateDecorator::CTextureAnimationCCWDecorator *> >
PUBLIC	??$_Destroy_range@V?$allocator@PAVCTextureAnimationRandomDecorator@NEffectUpdateDecorator@@@std@@@std@@YAXPAPAVCTextureAnimationRandomDecorator@NEffectUpdateDecorator@@QAPAV12@AAV?$allocator@PAVCTextureAnimationRandomDecorator@NEffectUpdateDecorator@@@0@@Z ; std::_Destroy_range<std::allocator<NEffectUpdateDecorator::CTextureAnimationRandomDecorator *> >
PUBLIC	??$_Destroy_range@V?$allocator@PAVCAirResistanceDecorator@NEffectUpdateDecorator@@@std@@@std@@YAXPAPAVCAirResistanceDecorator@NEffectUpdateDecorator@@QAPAV12@AAV?$allocator@PAVCAirResistanceDecorator@NEffectUpdateDecorator@@@0@@Z ; std::_Destroy_range<std::allocator<NEffectUpdateDecorator::CAirResistanceDecorator *> >
PUBLIC	??$_Destroy_range@V?$allocator@PAVCGravityDecorator@NEffectUpdateDecorator@@@std@@@std@@YAXPAPAVCGravityDecorator@NEffectUpdateDecorator@@QAPAV12@AAV?$allocator@PAVCGravityDecorator@NEffectUpdateDecorator@@@0@@Z ; std::_Destroy_range<std::allocator<NEffectUpdateDecorator::CGravityDecorator *> >
PUBLIC	??$_Destroy_range@V?$allocator@PAVCRotationDecorator@NEffectUpdateDecorator@@@std@@@std@@YAXPAPAVCRotationDecorator@NEffectUpdateDecorator@@QAPAV12@AAV?$allocator@PAVCRotationDecorator@NEffectUpdateDecorator@@@0@@Z ; std::_Destroy_range<std::allocator<NEffectUpdateDecorator::CRotationDecorator *> >
PUBLIC	??$swap@DU?$char_traits@D@std@@V?$allocator@D@2@@std@@YAXAAV?$basic_string@DU?$char_traits@D@std@@V?$allocator@D@2@@0@0@Z ; std::swap<char,std::char_traits<char>,std::allocator<char> >
PUBLIC	??1?$_Alloc_construct_ptr@V?$allocator@U?$_Tree_node@U?$pair@$$CBKV?$basic_string@DU?$char_traits@D@std@@V?$allocator@D@2@@std@@@std@@PAX@std@@@std@@@std@@QAE@XZ ; std::_Alloc_construct_ptr<std::allocator<std::_Tree_node<std::pair<unsigned long const ,std::basic_string<char,std::char_traits<char>,std::allocator<char> > >,void *> > >::~_Alloc_construct_ptr<std::allocator<std::_Tree_node<std::pair<unsigned long const ,std::basic_string<char,std::char_traits<char>,std::allocator<char> > >,void *> > >
PUBLIC	??$_Erase_tree@V?$allocator@U?$_Tree_node@U?$pair@$$CBKV?$basic_string@DU?$char_traits@D@std@@V?$allocator@D@2@@std@@@std@@PAX@std@@@std@@@?$_Tree_val@U?$_Tree_simple_types@U?$pair@$$CBKV?$basic_string@DU?$char_traits@D@std@@V?$allocator@D@2@@std@@@std@@@std@@@std@@QAEXAAV?$allocator@U?$_Tree_node@U?$pair@$$CBKV?$basic_string@DU?$char_traits@D@std@@V?$allocator@D@2@@std@@@std@@PAX@std@@@1@PAU?$_Tree_node@U?$pair@$$CBKV?$basic_string@DU?$char_traits@D@std@@V?$allocator@D@2@@std@@@std@@PAX@1@@Z ; std::_Tree_val<std::_Tree_simple_types<std::pair<unsigned long const ,std::basic_string<char,std::char_traits<char>,std::allocator<char> > > > >::_Erase_tree<std::allocator<std::_Tree_node<std::pair<unsigned long const ,std::basic_string<char,std::char_traits<char>,std::allocator<char> > >,void *> > >
PUBLIC	??$_Construct_in_place@PAU?$_Tree_node@U?$pair@$$CBKV?$basic_string@DU?$char_traits@D@std@@V?$allocator@D@2@@std@@@std@@PAX@std@@ABQAU12@@std@@YAXAAPAU?$_Tree_node@U?$pair@$$CBKV?$basic_string@DU?$char_traits@D@std@@V?$allocator@D@2@@std@@@std@@PAX@0@ABQAU10@@Z ; std::_Construct_in_place<std::_Tree_node<std::pair<unsigned long const ,std::basic_string<char,std::char_traits<char>,std::allocator<char> > >,void *> *,std::_Tree_node<std::pair<unsigned long const ,std::basic_string<char,std::char_traits<char>,std::allocator<char> > >,void *> * const &>
PUBLIC	??$_Destroy_in_place@PAU?$_Tree_node@U?$pair@$$CBKV?$basic_string@DU?$char_traits@D@std@@V?$allocator@D@2@@std@@@std@@PAX@std@@@std@@YAXAAPAU?$_Tree_node@U?$pair@$$CBKV?$basic_string@DU?$char_traits@D@std@@V?$allocator@D@2@@std@@@std@@PAX@0@@Z ; std::_Destroy_in_place<std::_Tree_node<std::pair<unsigned long const ,std::basic_string<char,std::char_traits<char>,std::allocator<char> > >,void *> *>
PUBLIC	??$_Traits_equal@U?$char_traits@D@std@@@std@@YA_NQBDI0I@Z ; std::_Traits_equal<std::char_traits<char> >
PUBLIC	??$_Construct_in_place@PAU?$_Tree_node@U?$pair@$$CBKV?$basic_string@DU?$char_traits@D@std@@V?$allocator@D@2@@std@@@std@@PAX@std@@AAPAU12@@std@@YAXAAPAU?$_Tree_node@U?$pair@$$CBKV?$basic_string@DU?$char_traits@D@std@@V?$allocator@D@2@@std@@@std@@PAX@0@0@Z ; std::_Construct_in_place<std::_Tree_node<std::pair<unsigned long const ,std::basic_string<char,std::char_traits<char>,std::allocator<char> > >,void *> *,std::_Tree_node<std::pair<unsigned long const ,std::basic_string<char,std::char_traits<char>,std::allocator<char> > >,void *> * &>
PUBLIC	??$_Pocs@V?$allocator@D@std@@@std@@YAXAAV?$allocator@D@0@0@Z ; std::_Pocs<std::allocator<char> >
PUBLIC	?_OptionsStorage@?1??__local_stdio_printf_options@@9@4_KA ; `__local_stdio_printf_options'::`2'::_OptionsStorage
PUBLIC	??_7exception@std@@6B@				; std::exception::`vftable'
PUBLIC	??_C@_0BC@EOODALEL@Unknown?5exception@		; `string'
PUBLIC	??_7bad_alloc@std@@6B@				; std::bad_alloc::`vftable'
PUBLIC	??_7bad_array_new_length@std@@6B@		; std::bad_array_new_length::`vftable'
PUBLIC	??_C@_0BF@KINCDENJ@bad?5array?5new?5length@	; `string'
PUBLIC	__TI3?AVbad_array_new_length@std@@
PUBLIC	__CTA3?AVbad_array_new_length@std@@
PUBLIC	??_R0?AVbad_array_new_length@std@@@8		; std::bad_array_new_length `RTTI Type Descriptor'
PUBLIC	__CT??_R0?AVbad_array_new_length@std@@@8??0bad_array_new_length@std@@QAE@ABV01@@Z12
PUBLIC	??_R0?AVbad_alloc@std@@@8			; std::bad_alloc `RTTI Type Descriptor'
PUBLIC	__CT??_R0?AVbad_alloc@std@@@8??0bad_alloc@std@@QAE@ABV01@@Z12
PUBLIC	??_R0?AVexception@std@@@8			; std::exception `RTTI Type Descriptor'
PUBLIC	__CT??_R0?AVexception@std@@@8??0exception@std@@QAE@ABV01@@Z12
PUBLIC	??_C@_0BA@JFNIOLAK@string?5too?5long@		; `string'
PUBLIC	??_C@_0BB@GCADKGJO@map?1set?5too?5long@		; `string'
PUBLIC	??_C@_0BI@CFPLBAOH@invalid?5string?5position@	; `string'
PUBLIC	??_R4exception@std@@6B@				; std::exception::`RTTI Complete Object Locator'
PUBLIC	??_R3exception@std@@8				; std::exception::`RTTI Class Hierarchy Descriptor'
PUBLIC	??_R2exception@std@@8				; std::exception::`RTTI Base Class Array'
PUBLIC	??_R1A@?0A@EA@exception@std@@8			; std::exception::`RTTI Base Class Descriptor at (0,-1,0,64)'
PUBLIC	??_R4bad_alloc@std@@6B@				; std::bad_alloc::`RTTI Complete Object Locator'
PUBLIC	??_R3bad_alloc@std@@8				; std::bad_alloc::`RTTI Class Hierarchy Descriptor'
PUBLIC	??_R2bad_alloc@std@@8				; std::bad_alloc::`RTTI Base Class Array'
PUBLIC	??_R1A@?0A@EA@bad_alloc@std@@8			; std::bad_alloc::`RTTI Base Class Descriptor at (0,-1,0,64)'
PUBLIC	??_R4bad_array_new_length@std@@6B@		; std::bad_array_new_length::`RTTI Complete Object Locator'
PUBLIC	??_R3bad_array_new_length@std@@8		; std::bad_array_new_length::`RTTI Class Hierarchy Descriptor'
PUBLIC	??_R2bad_array_new_length@std@@8		; std::bad_array_new_length::`RTTI Base Class Array'
PUBLIC	??_R1A@?0A@EA@bad_array_new_length@std@@8	; std::bad_array_new_length::`RTTI Base Class Descriptor at (0,-1,0,64)'
PUBLIC	?ms_kPool@?$CPooledObject@VCHeaderDecorator@NEffectUpdateDecorator@@@@1V?$CDynamicPoolEx@VCHeaderDecorator@NEffectUpdateDecorator@@@@A ; CPooledObject<NEffectUpdateDecorator::CHeaderDecorator>::ms_kPool
PUBLIC	?ms_kPool@?$CPooledObject@VCNullDecorator@NEffectUpdateDecorator@@@@1V?$CDynamicPoolEx@VCNullDecorator@NEffectUpdateDecorator@@@@A ; CPooledObject<NEffectUpdateDecorator::CNullDecorator>::ms_kPool
PUBLIC	?ms_kPool@?$CPooledObject@VCTextureAnimationCWDecorator@NEffectUpdateDecorator@@@@1V?$CDynamicPoolEx@VCTextureAnimationCWDecorator@NEffectUpdateDecorator@@@@A ; CPooledObject<NEffectUpdateDecorator::CTextureAnimationCWDecorator>::ms_kPool
PUBLIC	?ms_kPool@?$CPooledObject@VCTextureAnimationCCWDecorator@NEffectUpdateDecorator@@@@1V?$CDynamicPoolEx@VCTextureAnimationCCWDecorator@NEffectUpdateDecorator@@@@A ; CPooledObject<NEffectUpdateDecorator::CTextureAnimationCCWDecorator>::ms_kPool
PUBLIC	?ms_kPool@?$CPooledObject@VCTextureAnimationRandomDecorator@NEffectUpdateDecorator@@@@1V?$CDynamicPoolEx@VCTextureAnimationRandomDecorator@NEffectUpdateDecorator@@@@A ; CPooledObject<NEffectUpdateDecorator::CTextureAnimationRandomDecorator>::ms_kPool
PUBLIC	?ms_kPool@?$CPooledObject@VCAirResistanceDecorator@NEffectUpdateDecorator@@@@1V?$CDynamicPoolEx@VCAirResistanceDecorator@NEffectUpdateDecorator@@@@A ; CPooledObject<NEffectUpdateDecorator::CAirResistanceDecorator>::ms_kPool
PUBLIC	?ms_kPool@?$CPooledObject@VCGravityDecorator@NEffectUpdateDecorator@@@@1V?$CDynamicPoolEx@VCGravityDecorator@NEffectUpdateDecorator@@@@A ; CPooledObject<NEffectUpdateDecorator::CGravityDecorator>::ms_kPool
PUBLIC	?ms_kPool@?$CPooledObject@VCRotationDecorator@NEffectUpdateDecorator@@@@1V?$CDynamicPoolEx@VCRotationDecorator@NEffectUpdateDecorator@@@@A ; CPooledObject<NEffectUpdateDecorator::CRotationDecorator>::ms_kPool
PUBLIC	?ms_singleton@?$CSingleton@VCEterPackManager@@@@0PAVCEterPackManager@@A ; CSingleton<CEterPackManager>::ms_singleton
PUBLIC	__AVOID_FLOATING_POINT_LIBRARY_BUG
PUBLIC	?gs_kAppStrTable@@3UApplicationStringTable@@A	; gs_kAppStrTable
PUBLIC	??_C@_01KICIPPFI@?2@				; `string'
PUBLIC	??_C@_0BB@FPBAACEA@metin2client?4dat@		; `string'
PUBLIC	??_C@_07GHKFPDHK@locale?1@			; `string'
PUBLIC	??_C@_02LFNMGJAP@en@				; `string'
PUBLIC	??_C@_01KMDKNFGN@?1@				; `string'
PUBLIC	??_C@_05FNNGFGLF@Index@				; `string'
PUBLIC	??_C@_0CA@PJKENNIH@FATAL?5ERROR?$CB?5File?5not?5exist?3?5?$CFs@ ; `string'
PUBLIC	??_C@_04PMPMHNFI@FILE@				; `string'
PUBLIC	??_C@_04EDDHFNCG@PACK@				; `string'
PUBLIC	??_C@_0ED@CBACJNDK@Pack?1Index?5has?5invalid?5syntax?4?5@ ; `string'
PUBLIC	??_C@_0BG@FJMFFOHK@?$LO?K?$LI?$LC?3?5?F?Q?5?$LI?p?$LF?e?$MA?T?$LE?O?$LE?Y?4?6@ ; `string'
PUBLIC	??_C@_09ODEGJGJI@_texcache@			; `string'
PUBLIC	??_C@_0O@GIEHGGHC@__DEBUG__?5?$DN?50@		; `string'
PUBLIC	??_C@_0BI@JAFKHBD@RegisterDebugFlag?5Error@	; `string'
PUBLIC	??_C@_03MCGAAIEM@?9cs@				; `string'
PUBLIC	??_C@_04JFPGDMCL@?9ncs@				; `string'
PUBLIC	??_C@_01CLKCMJKC@?5@				; `string'
PUBLIC	??_C@_0BE@FPKDPBJI@__COMMAND_LINE__?5?$DN?5@	; `string'
PUBLIC	??_C@_0BK@DPMNHJLC@RegisterCommandLine?5Error@	; `string'
PUBLIC	??_C@_0BN@KIGJPBEF@?9?9pause?9before?9create?9window@ ; `string'
PUBLIC	??_C@_05PDJBBECF@pause@				; `string'
PUBLIC	??_C@_09LEIJOBCA@system?4py@			; `string'
PUBLIC	??_C@_0O@BEEPKJML@RunMain?5Error@		; `string'
PUBLIC	??_C@_0BF@NHIIGIH@perf_game_update?4txt@	; `string'
PUBLIC	??_C@_0N@JIKFFHPP@newpatch?4exe@		; `string'
PUBLIC	??_C@_0BB@LLCBDFGP@patchupdater?4exe@		; `string'
PUBLIC	??_C@_04IPANLPFO@pack@				; `string'
PUBLIC	??_C@_0DB@BGMLOPGB@Pack?5Initialization?5failed?4?5Che@ ; `string'
PUBLIC	??_C@_0M@PFDHIIAP@eter?4python@			; `string'
PUBLIC	??_C@_0BA@OEEELOKH@Metin2GameMutex@		; `string'
PUBLIC	??_C@_0CN@OHDPHKKH@FATAL?5ERROR?$CB?$CB?5Python?5Library?5fi@ ; `string'
PUBLIC	??_C@_0L@HBFAHJLE@?1timestamp@			; `string'
PUBLIC	??_C@_0BJ@KIGAIBOE@Mon?5Feb?5?51?523?308?309?52021@ ; `string'
PUBLIC	??_C@_0DG@JFMPGIL@METIN2?5BINARY?5TEST?5VERSION?5?$CFs?5?5@ ; `string'
PUBLIC	??_C@_0DL@IHCMKBOK@METIN2?5BINARY?5DISTRIBUTE?5VERSIO@ ; `string'
PUBLIC	??_C@_08LJMAFCGB@?9?9locale@			; `string'
PUBLIC	??_C@_0BE@FJLABEAB@?9?9perforce?9revision@	; `string'
PUBLIC	??_C@_0N@FPLLJIDE@?9?9hackshield@		; `string'
PUBLIC	??_C@_0L@LCFODDFH@locale?4cfg@			; `string'
PUBLIC	??_C@_0L@IBAMLFBB@?$CFs?4version@		; `string'
PUBLIC	??_C@_02BKFDOEMK@wt@				; `string'
PUBLIC	??_C@_04JIBCGPDH@r?$CFd?6@			; `string'
PUBLIC	??_C@_0L@IMHJDJJ@locale?4txt@			; `string'
PUBLIC	??_C@_0BK@LJMCIPPN@service?$FL?$CFs?$FN?5code_page?$FL?$CFd?$FN@ ; `string'
PUBLIC	??_C@_0BD@BMCCGKJE@?9?9force?9set?9locale@	; `string'
PUBLIC	??_C@_08GKBDCAOF@APP_NAME@			; `string'
PUBLIC	??_C@_0BC@PALKPJEA@Invalid?5arguments@		; `string'
EXTRN	??2@YAPAXI@Z:PROC				; operator new
EXTRN	??3@YAXPAX@Z:PROC				; operator delete
EXTRN	??3@YAXPAXI@Z:PROC				; operator delete
EXTRN	_atexit:PROC
EXTRN	__Init_thread_header:PROC
EXTRN	__Init_thread_abort:PROC
EXTRN	__Init_thread_footer:PROC
EXTRN	__invalid_parameter_noinfo_noreturn:PROC
EXTRN	_srand:PROC
EXTRN	_system:PROC
EXTRN	_strstr:PROC
EXTRN	_strncmp:PROC
EXTRN	__strnicmp:PROC
EXTRN	__imp__GetCurrentDirectoryA@8:PROC
EXTRN	__imp__DeleteFileA@4:PROC
EXTRN	__imp__ReleaseMutex@4:PROC
EXTRN	__imp__CreateMutexA@12:PROC
EXTRN	__imp__GetCurrentProcess@0:PROC
EXTRN	__imp__GetModuleFileNameA@12:PROC
EXTRN	__imp__LoadStringA@16:PROC
EXTRN	__imp__GlobalFree@4:PROC
EXTRN	__imp__lstrlenA@4:PROC
EXTRN	__imp__GetPrivateProfileStringA@24:PROC
EXTRN	__imp__MoveFileA@8:PROC
EXTRN	__imp__MessageBoxA@16:PROC
EXTRN	__imp__CoUninitialize@0:PROC
EXTRN	__imp__timeGetDevCaps@8:PROC
EXTRN	__imp__timeBeginPeriod@4:PROC
EXTRN	__imp__timeEndPeriod@4:PROC
EXTRN	_fclose:PROC
EXTRN	_fopen:PROC
EXTRN	___stdio_common_vfprintf:PROC
EXTRN	___stdio_common_vsprintf:PROC
EXTRN	__time32:PROC
EXTRN	___std_exception_copy:PROC
EXTRN	___std_exception_destroy:PROC
EXTRN	??_Eexception@std@@UAEPAXI@Z:PROC		; std::exception::`vector deleting destructor'
EXTRN	??_Ebad_alloc@std@@UAEPAXI@Z:PROC		; std::bad_alloc::`vector deleting destructor'
EXTRN	??_Ebad_array_new_length@std@@UAEPAXI@Z:PROC	; std::bad_array_new_length::`vector deleting destructor'
EXTRN	?_Xlength_error@std@@YAXPBD@Z:PROC		; std::_Xlength_error
EXTRN	?_Xout_of_range@std@@YAXPBD@Z:PROC		; std::_Xout_of_range
EXTRN	?SetLogLevel@@YAXI@Z:PROC			; SetLogLevel
EXTRN	?Tracef@@YAXPBDZZ:PROC				; Tracef
EXTRN	?TraceError@@YAXPBDZZ:PROC			; TraceError
EXTRN	?LogBox@@YAXPBD0PAUHWND__@@@Z:PROC		; LogBox
EXTRN	?LogBoxf@@YAXPBDZZ:PROC				; LogBoxf
EXTRN	?OpenLogFile@@YAX_N@Z:PROC			; OpenLogFile
EXTRN	?MINMAX@@YAHHHH@Z:PROC				; MINMAX
EXTRN	?SplitLine@@YA_NPBD0PAV?$vector@V?$basic_string@DU?$char_traits@D@std@@V?$allocator@D@2@@std@@V?$allocator@V?$basic_string@DU?$char_traits@D@std@@V?$allocator@D@2@@std@@@2@@std@@@Z:PROC ; SplitLine
EXTRN	?CommandLineToArgv@@YAPAPADPADPAH@Z:PROC	; CommandLineToArgv
EXTRN	__access:PROC
EXTRN	??0CPythonLauncher@@QAE@XZ:PROC			; CPythonLauncher::CPythonLauncher
EXTRN	??1CPythonLauncher@@UAE@XZ:PROC			; CPythonLauncher::~CPythonLauncher
EXTRN	?Clear@CPythonLauncher@@QAEXXZ:PROC		; CPythonLauncher::Clear
EXTRN	?Create@CPythonLauncher@@QAE_NPBD@Z:PROC	; CPythonLauncher::Create
EXTRN	?RunLine@CPythonLauncher@@QAE_NPBD@Z:PROC	; CPythonLauncher::RunLine
EXTRN	?RunFile@CPythonLauncher@@QAE_NPBD@Z:PROC	; CPythonLauncher::RunFile
EXTRN	??0CMemoryTextFileLoader@@QAE@XZ:PROC		; CMemoryTextFileLoader::CMemoryTextFileLoader
EXTRN	??1CMemoryTextFileLoader@@UAE@XZ:PROC		; CMemoryTextFileLoader::~CMemoryTextFileLoader
EXTRN	?Bind@CMemoryTextFileLoader@@QAEXHPBX@Z:PROC	; CMemoryTextFileLoader::Bind
EXTRN	?GetLineCount@CMemoryTextFileLoader@@QAEKXZ:PROC ; CMemoryTextFileLoader::GetLineCount
EXTRN	?GetLineString@CMemoryTextFileLoader@@QAEABV?$basic_string@DU?$char_traits@D@std@@V?$allocator@D@2@@std@@K@Z:PROC ; CMemoryTextFileLoader::GetLineString
EXTRN	??0CLZO@@QAE@XZ:PROC				; CLZO::CLZO
EXTRN	??1CLZO@@UAE@XZ:PROC				; CLZO::~CLZO
EXTRN	??0CMappedFile@@QAE@XZ:PROC			; CMappedFile::CMappedFile
EXTRN	??1CMappedFile@@UAE@XZ:PROC			; CMappedFile::~CMappedFile
EXTRN	?Create@CMappedFile@@QAEHPBDPAPBXHH@Z:PROC	; CMappedFile::Create
EXTRN	?Size@CMappedFile@@QAEKXZ:PROC			; CMappedFile::Size
EXTRN	?SetDefaultCodePage@@YA_NK@Z:PROC		; SetDefaultCodePage
EXTRN	?base64_decode@@YAXPBDPAD@Z:PROC		; base64_decode
EXTRN	?SetCacheMode@CTextFileLoader@@SAXXZ:PROC	; CTextFileLoader::SetCacheMode
EXTRN	?initdbg@@YAXXZ:PROC				; initdbg
EXTRN	?SetExceptionSender@@YAXPAVIPythonExceptionSender@@@Z:PROC ; SetExceptionSender
EXTRN	?initgrp@@YAXXZ:PROC				; initgrp
EXTRN	?initgrpImage@@YAXXZ:PROC			; initgrpImage
EXTRN	?initgrpText@@YAXXZ:PROC			; initgrpText
EXTRN	?initwndMgr@@YAXXZ:PROC				; initwndMgr
EXTRN	?srandom@@YAXK@Z:PROC				; srandom
EXTRN	?random@@YAKXZ:PROC				; random
EXTRN	?SetPackMode@CSoundData@@SAXXZ:PROC		; CSoundData::SetPackMode
EXTRN	?LocaleService_GetCodePage@@YAIXZ:PROC		; LocaleService_GetCodePage
EXTRN	?LocaleService_GetName@@YAPBDXZ:PROC		; LocaleService_GetName
EXTRN	?LocaleService_GetLocalePath@@YAPBDXZ:PROC	; LocaleService_GetLocalePath
EXTRN	?LocaleService_ForceSetLocale@@YAXPBD0@Z:PROC	; LocaleService_ForceSetLocale
EXTRN	?LocaleService_LoadConfig@@YAXPBD@Z:PROC	; LocaleService_LoadConfig
EXTRN	?LocaleService_LoadGlobal@@YA_NPAUHINSTANCE__@@@Z:PROC ; LocaleService_LoadGlobal
EXTRN	?initudp@@YAXXZ:PROC				; initudp
EXTRN	?initapp@@YAXXZ:PROC				; initapp
EXTRN	?initime@@YAXXZ:PROC				; initime
EXTRN	?initsystem@@YAXXZ:PROC				; initsystem
EXTRN	?initchr@@YAXXZ:PROC				; initchr
EXTRN	?initchrmgr@@YAXXZ:PROC				; initchrmgr
EXTRN	?initChat@@YAXXZ:PROC				; initChat
EXTRN	?initTextTail@@YAXXZ:PROC			; initTextTail
EXTRN	?initItem@@YAXXZ:PROC				; initItem
EXTRN	?initNonPlayer@@YAXXZ:PROC			; initNonPlayer
EXTRN	?initnet@@YAXXZ:PROC				; initnet
EXTRN	?initPlayer@@YAXXZ:PROC				; initPlayer
EXTRN	?initServerStateChecker@@YAXXZ:PROC		; initServerStateChecker
EXTRN	?initTrade@@YAXXZ:PROC				; initTrade
EXTRN	?initMiniMap@@YAXXZ:PROC			; initMiniMap
EXTRN	?initProfiler@@YAXXZ:PROC			; initProfiler
EXTRN	?initEvent@@YAXXZ:PROC				; initEvent
EXTRN	?initeffect@@YAXXZ:PROC				; initeffect
EXTRN	?initsnd@@YAXXZ:PROC				; initsnd
EXTRN	?initeventmgr@@YAXXZ:PROC			; initeventmgr
EXTRN	?initBackground@@YAXXZ:PROC			; initBackground
EXTRN	?initshop@@YAXXZ:PROC				; initshop
EXTRN	?initpack@@YAXXZ:PROC				; initpack
EXTRN	?initskill@@YAXXZ:PROC				; initskill
EXTRN	?initfly@@YAXXZ:PROC				; initfly
EXTRN	?initquest@@YAXXZ:PROC				; initquest
EXTRN	?initsafebox@@YAXXZ:PROC			; initsafebox
EXTRN	?initguild@@YAXXZ:PROC				; initguild
EXTRN	?initMessenger@@YAXXZ:PROC			; initMessenger
EXTRN	?Initialize@CMSApplication@@QAEXPAUHINSTANCE__@@@Z:PROC ; CMSApplication::Initialize
EXTRN	__imp__ilInit@0:PROC
EXTRN	??0CPythonApplication@@QAE@XZ:PROC		; CPythonApplication::CPythonApplication
EXTRN	?Destroy@CPythonApplication@@QAEXXZ:PROC	; CPythonApplication::Destroy
EXTRN	?Clear@CPythonApplication@@QAEXXZ:PROC		; CPythonApplication::Clear
EXTRN	??0CPythonExceptionSender@@QAE@XZ:PROC		; CPythonExceptionSender::CPythonExceptionSender
EXTRN	??1CPythonExceptionSender@@UAE@XZ:PROC		; CPythonExceptionSender::~CPythonExceptionSender
EXTRN	??0CEterPackManager@@QAE@XZ:PROC		; CEterPackManager::CEterPackManager
EXTRN	??1CEterPackManager@@UAE@XZ:PROC		; CEterPackManager::~CEterPackManager
EXTRN	?SetCacheMode@CEterPackManager@@QAEXXZ:PROC	; CEterPackManager::SetCacheMode
EXTRN	?SetSearchMode@CEterPackManager@@QAEX_N@Z:PROC	; CEterPackManager::SetSearchMode
EXTRN	?RegisterPack@CEterPackManager@@QAE_NPBD0PBE@Z:PROC ; CEterPackManager::RegisterPack
EXTRN	?RegisterRootPack@CEterPackManager@@QAEXPBD@Z:PROC ; CEterPackManager::RegisterRootPack
EXTRN	_WebBrowser_Startup:PROC
EXTRN	_WebBrowser_Cleanup:PROC
EXTRN	@__security_check_cookie@4:PROC
EXTRN	__CxxThrowException@8:PROC
EXTRN	___CxxFrameHandler3:PROC
EXTRN	_memcpy:PROC
EXTRN	_memmove:PROC
EXTRN	__Init_thread_epoch:DWORD
EXTRN	___security_cookie:DWORD
EXTRN	__tls_array:DWORD
EXTRN	__tls_index:DWORD
;	COMDAT ?_OptionsStorage@?1??__local_stdio_printf_options@@9@4_KA
_BSS	SEGMENT
?_OptionsStorage@?1??__local_stdio_printf_options@@9@4_KA DQ 01H DUP (?) ; `__local_stdio_printf_options'::`2'::_OptionsStorage
_BSS	ENDS
;	COMDAT ?ms_singleton@?$CSingleton@VCEterPackManager@@@@0PAVCEterPackManager@@A
_BSS	SEGMENT
?ms_singleton@?$CSingleton@VCEterPackManager@@@@0PAVCEterPackManager@@A DD 01H DUP (?) ; CSingleton<CEterPackManager>::ms_singleton
_BSS	ENDS
_BSS	SEGMENT
__AVOID_FLOATING_POINT_LIBRARY_BUG DD 01H DUP (?)
?gs_kAppStrTable@@3UApplicationStringTable@@A DB 0cH DUP (?) ; gs_kAppStrTable
_BSS	ENDS
;	COMDAT ?lzo@?1??Main@@YA_NPAUHINSTANCE__@@PAD@Z@4VCLZO@@A
_BSS	SEGMENT
?lzo@?1??Main@@YA_NPAUHINSTANCE__@@PAD@Z@4VCLZO@@A DQ 01H DUP (?) ; `Main'::`2'::lzo
_BSS	ENDS
;	COMDAT ?$TSS0@?1??Main@@YA_NPAUHINSTANCE__@@PAD@Z@4HA
_BSS	SEGMENT
?$TSS0@?1??Main@@YA_NPAUHINSTANCE__@@PAD@Z@4HA DD 01H DUP (?) ; `Main'::`2'::$TSS0
_BSS	ENDS
;	COMDAT ?EterPackManager@?1??Main@@YA_NPAUHINSTANCE__@@PAD@Z@4VCEterPackManager@@A
_BSS	SEGMENT
?EterPackManager@?1??Main@@YA_NPAUHINSTANCE__@@PAD@Z@4VCEterPackManager@@A DB 01478H DUP (?) ; `Main'::`2'::EterPackManager
_BSS	ENDS
;	COMDAT ?$TSS1@?1??Main@@YA_NPAUHINSTANCE__@@PAD@Z@4HA
_BSS	SEGMENT
?$TSS1@?1??Main@@YA_NPAUHINSTANCE__@@PAD@Z@4HA DD 01H DUP (?) ; `Main'::`2'::$TSS1
_BSS	ENDS
CRT$XCU	SEGMENT
?_AVOID_FLOATING_POINT_LIBRARY_BUG$initializer$@@3P6AXXZA DD FLAT:??__E_AVOID_FLOATING_POINT_LIBRARY_BUG@@YAXXZ ; _AVOID_FLOATING_POINT_LIBRARY_BUG$initializer$
CRT$XCU	ENDS
;	COMDAT ??_C@_0BC@PALKPJEA@Invalid?5arguments@
CONST	SEGMENT
??_C@_0BC@PALKPJEA@Invalid?5arguments@ DB 'Invalid arguments', 00H ; `string'
CONST	ENDS
;	COMDAT ??_C@_08GKBDCAOF@APP_NAME@
CONST	SEGMENT
??_C@_08GKBDCAOF@APP_NAME@ DB 'APP_NAME', 00H		; `string'
CONST	ENDS
;	COMDAT ??_C@_0BD@BMCCGKJE@?9?9force?9set?9locale@
CONST	SEGMENT
??_C@_0BD@BMCCGKJE@?9?9force?9set?9locale@ DB '--force-set-locale', 00H ; `string'
CONST	ENDS
;	COMDAT ??_C@_0BK@LJMCIPPN@service?$FL?$CFs?$FN?5code_page?$FL?$CFd?$FN@
CONST	SEGMENT
??_C@_0BK@LJMCIPPN@service?$FL?$CFs?$FN?5code_page?$FL?$CFd?$FN@ DB 'serv'
	DB	'ice[%s] code_page[%d]', 00H			; `string'
CONST	ENDS
;	COMDAT ??_C@_0L@IMHJDJJ@locale?4txt@
CONST	SEGMENT
??_C@_0L@IMHJDJJ@locale?4txt@ DB 'locale.txt', 00H	; `string'
CONST	ENDS
;	COMDAT ??_C@_04JIBCGPDH@r?$CFd?6@
CONST	SEGMENT
??_C@_04JIBCGPDH@r?$CFd?6@ DB 'r%d', 0aH, 00H		; `string'
CONST	ENDS
;	COMDAT ??_C@_02BKFDOEMK@wt@
CONST	SEGMENT
??_C@_02BKFDOEMK@wt@ DB 'wt', 00H			; `string'
CONST	ENDS
;	COMDAT ??_C@_0L@IBAMLFBB@?$CFs?4version@
CONST	SEGMENT
??_C@_0L@IBAMLFBB@?$CFs?4version@ DB '%s.version', 00H	; `string'
CONST	ENDS
;	COMDAT ??_C@_0L@LCFODDFH@locale?4cfg@
CONST	SEGMENT
??_C@_0L@LCFODDFH@locale?4cfg@ DB 'locale.cfg', 00H	; `string'
CONST	ENDS
;	COMDAT ??_C@_0N@FPLLJIDE@?9?9hackshield@
CONST	SEGMENT
??_C@_0N@FPLLJIDE@?9?9hackshield@ DB '--hackshield', 00H ; `string'
CONST	ENDS
;	COMDAT ??_C@_0BE@FJLABEAB@?9?9perforce?9revision@
CONST	SEGMENT
??_C@_0BE@FJLABEAB@?9?9perforce?9revision@ DB '--perforce-revision', 00H ; `string'
CONST	ENDS
;	COMDAT ??_C@_08LJMAFCGB@?9?9locale@
CONST	SEGMENT
??_C@_08LJMAFCGB@?9?9locale@ DB '--locale', 00H		; `string'
CONST	ENDS
;	COMDAT ??_C@_0DL@IHCMKBOK@METIN2?5BINARY?5DISTRIBUTE?5VERSIO@
CONST	SEGMENT
??_C@_0DL@IHCMKBOK@METIN2?5BINARY?5DISTRIBUTE?5VERSIO@ DB 'METIN2 BINARY '
	DB	'DISTRIBUTE VERSION %s ( MS C++ %d Compiled )', 00H ; `string'
CONST	ENDS
;	COMDAT ??_C@_0DG@JFMPGIL@METIN2?5BINARY?5TEST?5VERSION?5?$CFs?5?5@
CONST	SEGMENT
??_C@_0DG@JFMPGIL@METIN2?5BINARY?5TEST?5VERSION?5?$CFs?5?5@ DB 'METIN2 BI'
	DB	'NARY TEST VERSION %s  ( MS C++ %d Compiled )', 00H ; `string'
CONST	ENDS
;	COMDAT ??_C@_0BJ@KIGAIBOE@Mon?5Feb?5?51?523?308?309?52021@
CONST	SEGMENT
??_C@_0BJ@KIGAIBOE@Mon?5Feb?5?51?523?308?309?52021@ DB 'Mon Feb  1 23:08:'
	DB	'09 2021', 00H				; `string'
CONST	ENDS
;	COMDAT ??_C@_0L@HBFAHJLE@?1timestamp@
CONST	SEGMENT
??_C@_0L@HBFAHJLE@?1timestamp@ DB '/timestamp', 00H	; `string'
CONST	ENDS
;	COMDAT ??_C@_0CN@OHDPHKKH@FATAL?5ERROR?$CB?$CB?5Python?5Library?5fi@
CONST	SEGMENT
??_C@_0CN@OHDPHKKH@FATAL?5ERROR?$CB?$CB?5Python?5Library?5fi@ DB 'FATAL E'
	DB	'RROR!! Python Library file not exist!', 00H	; `string'
CONST	ENDS
;	COMDAT ??_C@_0BA@OEEELOKH@Metin2GameMutex@
CONST	SEGMENT
??_C@_0BA@OEEELOKH@Metin2GameMutex@ DB 'Metin2GameMutex', 00H ; `string'
CONST	ENDS
;	COMDAT ??_C@_0M@PFDHIIAP@eter?4python@
CONST	SEGMENT
??_C@_0M@PFDHIIAP@eter?4python@ DB 'eter.python', 00H	; `string'
CONST	ENDS
;	COMDAT ??_C@_0DB@BGMLOPGB@Pack?5Initialization?5failed?4?5Che@
CONST	SEGMENT
??_C@_0DB@BGMLOPGB@Pack?5Initialization?5failed?4?5Che@ DB 'Pack Initiali'
	DB	'zation failed. Check log.txt file..', 00H	; `string'
CONST	ENDS
;	COMDAT ??_C@_04IPANLPFO@pack@
CONST	SEGMENT
??_C@_04IPANLPFO@pack@ DB 'pack', 00H			; `string'
CONST	ENDS
;	COMDAT ??_C@_0BB@LLCBDFGP@patchupdater?4exe@
CONST	SEGMENT
??_C@_0BB@LLCBDFGP@patchupdater?4exe@ DB 'patchupdater.exe', 00H ; `string'
CONST	ENDS
;	COMDAT ??_C@_0N@JIKFFHPP@newpatch?4exe@
CONST	SEGMENT
??_C@_0N@JIKFFHPP@newpatch?4exe@ DB 'newpatch.exe', 00H	; `string'
CONST	ENDS
;	COMDAT ??_C@_0BF@NHIIGIH@perf_game_update?4txt@
CONST	SEGMENT
??_C@_0BF@NHIIGIH@perf_game_update?4txt@ DB 'perf_game_update.txt', 00H ; `string'
CONST	ENDS
;	COMDAT ??_C@_0O@BEEPKJML@RunMain?5Error@
CONST	SEGMENT
??_C@_0O@BEEPKJML@RunMain?5Error@ DB 'RunMain Error', 00H ; `string'
CONST	ENDS
;	COMDAT ??_C@_09LEIJOBCA@system?4py@
CONST	SEGMENT
??_C@_09LEIJOBCA@system?4py@ DB 'system.py', 00H	; `string'
CONST	ENDS
;	COMDAT ??_C@_05PDJBBECF@pause@
CONST	SEGMENT
??_C@_05PDJBBECF@pause@ DB 'pause', 00H			; `string'
CONST	ENDS
;	COMDAT ??_C@_0BN@KIGJPBEF@?9?9pause?9before?9create?9window@
CONST	SEGMENT
??_C@_0BN@KIGJPBEF@?9?9pause?9before?9create?9window@ DB '--pause-before-'
	DB	'create-window', 00H				; `string'
CONST	ENDS
;	COMDAT ??_C@_0BK@DPMNHJLC@RegisterCommandLine?5Error@
CONST	SEGMENT
??_C@_0BK@DPMNHJLC@RegisterCommandLine?5Error@ DB 'RegisterCommandLine Er'
	DB	'ror', 00H					; `string'
CONST	ENDS
;	COMDAT ??_C@_0BE@FPKDPBJI@__COMMAND_LINE__?5?$DN?5@
CONST	SEGMENT
??_C@_0BE@FPKDPBJI@__COMMAND_LINE__?5?$DN?5@ DB '__COMMAND_LINE__ = ', 00H ; `string'
CONST	ENDS
;	COMDAT ??_C@_01CLKCMJKC@?5@
CONST	SEGMENT
??_C@_01CLKCMJKC@?5@ DB ' ', 00H			; `string'
CONST	ENDS
;	COMDAT ??_C@_04JFPGDMCL@?9ncs@
CONST	SEGMENT
??_C@_04JFPGDMCL@?9ncs@ DB '-ncs', 00H			; `string'
CONST	ENDS
;	COMDAT ??_C@_03MCGAAIEM@?9cs@
CONST	SEGMENT
??_C@_03MCGAAIEM@?9cs@ DB '-cs', 00H			; `string'
CONST	ENDS
;	COMDAT ??_C@_0BI@JAFKHBD@RegisterDebugFlag?5Error@
CONST	SEGMENT
??_C@_0BI@JAFKHBD@RegisterDebugFlag?5Error@ DB 'RegisterDebugFlag Error', 00H ; `string'
CONST	ENDS
;	COMDAT ??_C@_0O@GIEHGGHC@__DEBUG__?5?$DN?50@
CONST	SEGMENT
??_C@_0O@GIEHGGHC@__DEBUG__?5?$DN?50@ DB '__DEBUG__ = 0', 00H ; `string'
CONST	ENDS
;	COMDAT ??_C@_09ODEGJGJI@_texcache@
CONST	SEGMENT
??_C@_09ODEGJGJI@_texcache@ DB '_texcache', 00H		; `string'
CONST	ENDS
;	COMDAT ??_C@_0BG@FJMFFOHK@?$LO?K?$LI?$LC?3?5?F?Q?5?$LI?p?$LF?e?$MA?T?$LE?O?$LE?Y?4?6@
CONST	SEGMENT
??_C@_0BG@FJMFFOHK@?$LO?K?$LI?$LC?3?5?F?Q?5?$LI?p?$LF?e?$MA?T?$LE?O?$LE?Y?4?6@ DB 0beH
	DB	0cbH, 0b8H, 0b2H, ': ', 0c6H, 0d1H, ' ', 0b8H, 0f0H, 0b5H, 0e5H
	DB	0c0H, 0d4H, 0b4H, 0cfH, 0b4H, 0d9H, '.', 0aH, 00H ; `string'
CONST	ENDS
;	COMDAT ??_C@_0ED@CBACJNDK@Pack?1Index?5has?5invalid?5syntax?4?5@
CONST	SEGMENT
??_C@_0ED@CBACJNDK@Pack?1Index?5has?5invalid?5syntax?4?5@ DB 'Pack/Index '
	DB	'has invalid syntax. First line must be ''PACK'' or ''FILE''', 00H ; `string'
CONST	ENDS
;	COMDAT ??_C@_04EDDHFNCG@PACK@
CONST	SEGMENT
??_C@_04EDDHFNCG@PACK@ DB 'PACK', 00H			; `string'
CONST	ENDS
;	COMDAT ??_C@_04PMPMHNFI@FILE@
CONST	SEGMENT
??_C@_04PMPMHNFI@FILE@ DB 'FILE', 00H			; `string'
CONST	ENDS
;	COMDAT ??_C@_0CA@PJKENNIH@FATAL?5ERROR?$CB?5File?5not?5exist?3?5?$CFs@
CONST	SEGMENT
??_C@_0CA@PJKENNIH@FATAL?5ERROR?$CB?5File?5not?5exist?3?5?$CFs@ DB 'FATAL'
	DB	' ERROR! File not exist: %s', 00H		; `string'
CONST	ENDS
;	COMDAT ??_C@_05FNNGFGLF@Index@
CONST	SEGMENT
??_C@_05FNNGFGLF@Index@ DB 'Index', 00H			; `string'
CONST	ENDS
;	COMDAT ??_C@_01KMDKNFGN@?1@
CONST	SEGMENT
??_C@_01KMDKNFGN@?1@ DB '/', 00H			; `string'
CONST	ENDS
;	COMDAT ??_C@_02LFNMGJAP@en@
CONST	SEGMENT
??_C@_02LFNMGJAP@en@ DB 'en', 00H			; `string'
CONST	ENDS
;	COMDAT ??_C@_07GHKFPDHK@locale?1@
CONST	SEGMENT
??_C@_07GHKFPDHK@locale?1@ DB 'locale/', 00H		; `string'
CONST	ENDS
;	COMDAT ??_C@_0BB@FPBAACEA@metin2client?4dat@
CONST	SEGMENT
??_C@_0BB@FPBAACEA@metin2client?4dat@ DB 'metin2client.dat', 00H ; `string'
CONST	ENDS
;	COMDAT ??_C@_01KICIPPFI@?2@
CONST	SEGMENT
??_C@_01KICIPPFI@?2@ DB '\', 00H			; `string'
CONST	ENDS
_DATA	SEGMENT
?sc_apszPythonLibraryFilenames@@3PAPBDA DD FLAT:??_C@_0N@CMMKLLC@UserDict?4pyc@ ; sc_apszPythonLibraryFilenames
	DD	FLAT:??_C@_0P@KBODAEKE@__future__?4pyc@
	DD	FLAT:??_C@_0N@GCNFBOJN@copy_reg?4pyc@
	DD	FLAT:??_C@_0O@COBIIGAD@linecache?4pyc@
	DD	FLAT:??_C@_0L@HJCEJGHC@ntpath?4pyc@
	DD	FLAT:??_C@_06JCOFDJKA@os?4pyc@
	DD	FLAT:??_C@_08FPFMJPEC@site?4pyc@
	DD	FLAT:??_C@_08EFIONJOP@stat?4pyc@
	DD	FLAT:??_C@_0L@NDKNFNNI@string?4pyc@
	DD	FLAT:??_C@_0O@PMKHJGGH@traceback?4pyc@
	DD	FLAT:??_C@_09EHIBBABK@types?4pyc@
	DD	FLAT:??_C@_01EEMJAFIK@?6@
_DATA	ENDS
;	COMDAT ?ms_kPool@?$CPooledObject@VCRotationDecorator@NEffectUpdateDecorator@@@@1V?$CDynamicPoolEx@VCRotationDecorator@NEffectUpdateDecorator@@@@A
_DATA	SEGMENT
?ms_kPool@?$CPooledObject@VCRotationDecorator@NEffectUpdateDecorator@@@@1V?$CDynamicPoolEx@VCRotationDecorator@NEffectUpdateDecorator@@@@A DD FLAT:??_7?$CDynamicPoolEx@VCRotationDecorator@NEffectUpdateDecorator@@@@6B@ ; CPooledObject<NEffectUpdateDecorator::CRotationDecorator>::ms_kPool
	DD	00H
	DD	00H
	DD	00H
	DD	00H
	DD	00H
	DD	00H
	DD	00H
	DD	00H
_DATA	ENDS
;	COMDAT ?ms_kPool@?$CPooledObject@VCGravityDecorator@NEffectUpdateDecorator@@@@1V?$CDynamicPoolEx@VCGravityDecorator@NEffectUpdateDecorator@@@@A
_DATA	SEGMENT
?ms_kPool@?$CPooledObject@VCGravityDecorator@NEffectUpdateDecorator@@@@1V?$CDynamicPoolEx@VCGravityDecorator@NEffectUpdateDecorator@@@@A DD FLAT:??_7?$CDynamicPoolEx@VCGravityDecorator@NEffectUpdateDecorator@@@@6B@ ; CPooledObject<NEffectUpdateDecorator::CGravityDecorator>::ms_kPool
	DD	00H
	DD	00H
	DD	00H
	DD	00H
	DD	00H
	DD	00H
	DD	00H
	DD	00H
_DATA	ENDS
;	COMDAT ?ms_kPool@?$CPooledObject@VCAirResistanceDecorator@NEffectUpdateDecorator@@@@1V?$CDynamicPoolEx@VCAirResistanceDecorator@NEffectUpdateDecorator@@@@A
_DATA	SEGMENT
?ms_kPool@?$CPooledObject@VCAirResistanceDecorator@NEffectUpdateDecorator@@@@1V?$CDynamicPoolEx@VCAirResistanceDecorator@NEffectUpdateDecorator@@@@A DD FLAT:??_7?$CDynamicPoolEx@VCAirResistanceDecorator@NEffectUpdateDecorator@@@@6B@ ; CPooledObject<NEffectUpdateDecorator::CAirResistanceDecorator>::ms_kPool
	DD	00H
	DD	00H
	DD	00H
	DD	00H
	DD	00H
	DD	00H
	DD	00H
	DD	00H
_DATA	ENDS
;	COMDAT ?ms_kPool@?$CPooledObject@VCTextureAnimationRandomDecorator@NEffectUpdateDecorator@@@@1V?$CDynamicPoolEx@VCTextureAnimationRandomDecorator@NEffectUpdateDecorator@@@@A
_DATA	SEGMENT
?ms_kPool@?$CPooledObject@VCTextureAnimationRandomDecorator@NEffectUpdateDecorator@@@@1V?$CDynamicPoolEx@VCTextureAnimationRandomDecorator@NEffectUpdateDecorator@@@@A DD FLAT:??_7?$CDynamicPoolEx@VCTextureAnimationRandomDecorator@NEffectUpdateDecorator@@@@6B@ ; CPooledObject<NEffectUpdateDecorator::CTextureAnimationRandomDecorator>::ms_kPool
	DD	00H
	DD	00H
	DD	00H
	DD	00H
	DD	00H
	DD	00H
	DD	00H
	DD	00H
_DATA	ENDS
;	COMDAT ?ms_kPool@?$CPooledObject@VCTextureAnimationCCWDecorator@NEffectUpdateDecorator@@@@1V?$CDynamicPoolEx@VCTextureAnimationCCWDecorator@NEffectUpdateDecorator@@@@A
_DATA	SEGMENT
?ms_kPool@?$CPooledObject@VCTextureAnimationCCWDecorator@NEffectUpdateDecorator@@@@1V?$CDynamicPoolEx@VCTextureAnimationCCWDecorator@NEffectUpdateDecorator@@@@A DD FLAT:??_7?$CDynamicPoolEx@VCTextureAnimationCCWDecorator@NEffectUpdateDecorator@@@@6B@ ; CPooledObject<NEffectUpdateDecorator::CTextureAnimationCCWDecorator>::ms_kPool
	DD	00H
	DD	00H
	DD	00H
	DD	00H
	DD	00H
	DD	00H
	DD	00H
	DD	00H
_DATA	ENDS
;	COMDAT ?ms_kPool@?$CPooledObject@VCTextureAnimationCWDecorator@NEffectUpdateDecorator@@@@1V?$CDynamicPoolEx@VCTextureAnimationCWDecorator@NEffectUpdateDecorator@@@@A
_DATA	SEGMENT
?ms_kPool@?$CPooledObject@VCTextureAnimationCWDecorator@NEffectUpdateDecorator@@@@1V?$CDynamicPoolEx@VCTextureAnimationCWDecorator@NEffectUpdateDecorator@@@@A DD FLAT:??_7?$CDynamicPoolEx@VCTextureAnimationCWDecorator@NEffectUpdateDecorator@@@@6B@ ; CPooledObject<NEffectUpdateDecorator::CTextureAnimationCWDecorator>::ms_kPool
	DD	00H
	DD	00H
	DD	00H
	DD	00H
	DD	00H
	DD	00H
	DD	00H
	DD	00H
_DATA	ENDS
;	COMDAT ?ms_kPool@?$CPooledObject@VCNullDecorator@NEffectUpdateDecorator@@@@1V?$CDynamicPoolEx@VCNullDecorator@NEffectUpdateDecorator@@@@A
_DATA	SEGMENT
?ms_kPool@?$CPooledObject@VCNullDecorator@NEffectUpdateDecorator@@@@1V?$CDynamicPoolEx@VCNullDecorator@NEffectUpdateDecorator@@@@A DD FLAT:??_7?$CDynamicPoolEx@VCNullDecorator@NEffectUpdateDecorator@@@@6B@ ; CPooledObject<NEffectUpdateDecorator::CNullDecorator>::ms_kPool
	DD	00H
	DD	00H
	DD	00H
	DD	00H
	DD	00H
	DD	00H
	DD	00H
	DD	00H
_DATA	ENDS
;	COMDAT ?ms_kPool@?$CPooledObject@VCHeaderDecorator@NEffectUpdateDecorator@@@@1V?$CDynamicPoolEx@VCHeaderDecorator@NEffectUpdateDecorator@@@@A
_DATA	SEGMENT
?ms_kPool@?$CPooledObject@VCHeaderDecorator@NEffectUpdateDecorator@@@@1V?$CDynamicPoolEx@VCHeaderDecorator@NEffectUpdateDecorator@@@@A DD FLAT:??_7?$CDynamicPoolEx@VCHeaderDecorator@NEffectUpdateDecorator@@@@6B@ ; CPooledObject<NEffectUpdateDecorator::CHeaderDecorator>::ms_kPool
	DD	00H
	DD	00H
	DD	00H
	DD	00H
	DD	00H
	DD	00H
	DD	00H
	DD	00H
_DATA	ENDS
;	COMDAT ??_R1A@?0A@EA@bad_array_new_length@std@@8
rdata$r	SEGMENT
??_R1A@?0A@EA@bad_array_new_length@std@@8 DD FLAT:??_R0?AVbad_array_new_length@std@@@8 ; std::bad_array_new_length::`RTTI Base Class Descriptor at (0,-1,0,64)'
	DD	02H
	DD	00H
	DD	0ffffffffH
	DD	00H
	DD	040H
	DD	FLAT:??_R3bad_array_new_length@std@@8
rdata$r	ENDS
;	COMDAT ??_R2bad_array_new_length@std@@8
rdata$r	SEGMENT
??_R2bad_array_new_length@std@@8 DD FLAT:??_R1A@?0A@EA@bad_array_new_length@std@@8 ; std::bad_array_new_length::`RTTI Base Class Array'
	DD	FLAT:??_R1A@?0A@EA@bad_alloc@std@@8
	DD	FLAT:??_R1A@?0A@EA@exception@std@@8
rdata$r	ENDS
;	COMDAT ??_R3bad_array_new_length@std@@8
rdata$r	SEGMENT
??_R3bad_array_new_length@std@@8 DD 00H			; std::bad_array_new_length::`RTTI Class Hierarchy Descriptor'
	DD	00H
	DD	03H
	DD	FLAT:??_R2bad_array_new_length@std@@8
rdata$r	ENDS
;	COMDAT ??_R4bad_array_new_length@std@@6B@
rdata$r	SEGMENT
??_R4bad_array_new_length@std@@6B@ DD 00H		; std::bad_array_new_length::`RTTI Complete Object Locator'
	DD	00H
	DD	00H
	DD	FLAT:??_R0?AVbad_array_new_length@std@@@8
	DD	FLAT:??_R3bad_array_new_length@std@@8
rdata$r	ENDS
;	COMDAT ??_R1A@?0A@EA@bad_alloc@std@@8
rdata$r	SEGMENT
??_R1A@?0A@EA@bad_alloc@std@@8 DD FLAT:??_R0?AVbad_alloc@std@@@8 ; std::bad_alloc::`RTTI Base Class Descriptor at (0,-1,0,64)'
	DD	01H
	DD	00H
	DD	0ffffffffH
	DD	00H
	DD	040H
	DD	FLAT:??_R3bad_alloc@std@@8
rdata$r	ENDS
;	COMDAT ??_R2bad_alloc@std@@8
rdata$r	SEGMENT
??_R2bad_alloc@std@@8 DD FLAT:??_R1A@?0A@EA@bad_alloc@std@@8 ; std::bad_alloc::`RTTI Base Class Array'
	DD	FLAT:??_R1A@?0A@EA@exception@std@@8
rdata$r	ENDS
;	COMDAT ??_R3bad_alloc@std@@8
rdata$r	SEGMENT
??_R3bad_alloc@std@@8 DD 00H				; std::bad_alloc::`RTTI Class Hierarchy Descriptor'
	DD	00H
	DD	02H
	DD	FLAT:??_R2bad_alloc@std@@8
rdata$r	ENDS
;	COMDAT ??_R4bad_alloc@std@@6B@
rdata$r	SEGMENT
??_R4bad_alloc@std@@6B@ DD 00H				; std::bad_alloc::`RTTI Complete Object Locator'
	DD	00H
	DD	00H
	DD	FLAT:??_R0?AVbad_alloc@std@@@8
	DD	FLAT:??_R3bad_alloc@std@@8
rdata$r	ENDS
;	COMDAT ??_R1A@?0A@EA@exception@std@@8
rdata$r	SEGMENT
??_R1A@?0A@EA@exception@std@@8 DD FLAT:??_R0?AVexception@std@@@8 ; std::exception::`RTTI Base Class Descriptor at (0,-1,0,64)'
	DD	00H
	DD	00H
	DD	0ffffffffH
	DD	00H
	DD	040H
	DD	FLAT:??_R3exception@std@@8
rdata$r	ENDS
;	COMDAT ??_R2exception@std@@8
rdata$r	SEGMENT
??_R2exception@std@@8 DD FLAT:??_R1A@?0A@EA@exception@std@@8 ; std::exception::`RTTI Base Class Array'
rdata$r	ENDS
;	COMDAT ??_R3exception@std@@8
rdata$r	SEGMENT
??_R3exception@std@@8 DD 00H				; std::exception::`RTTI Class Hierarchy Descriptor'
	DD	00H
	DD	01H
	DD	FLAT:??_R2exception@std@@8
rdata$r	ENDS
;	COMDAT ??_R4exception@std@@6B@
rdata$r	SEGMENT
??_R4exception@std@@6B@ DD 00H				; std::exception::`RTTI Complete Object Locator'
	DD	00H
	DD	00H
	DD	FLAT:??_R0?AVexception@std@@@8
	DD	FLAT:??_R3exception@std@@8
rdata$r	ENDS
;	COMDAT ??_C@_0BI@CFPLBAOH@invalid?5string?5position@
CONST	SEGMENT
??_C@_0BI@CFPLBAOH@invalid?5string?5position@ DB 'invalid string position'
	DB	00H						; `string'
CONST	ENDS
;	COMDAT ??_C@_0BB@GCADKGJO@map?1set?5too?5long@
CONST	SEGMENT
??_C@_0BB@GCADKGJO@map?1set?5too?5long@ DB 'map/set too long', 00H ; `string'
CONST	ENDS
;	COMDAT ??_C@_0BA@JFNIOLAK@string?5too?5long@
CONST	SEGMENT
??_C@_0BA@JFNIOLAK@string?5too?5long@ DB 'string too long', 00H ; `string'
CONST	ENDS
;	COMDAT __CT??_R0?AVexception@std@@@8??0exception@std@@QAE@ABV01@@Z12
xdata$x	SEGMENT
__CT??_R0?AVexception@std@@@8??0exception@std@@QAE@ABV01@@Z12 DD 00H
	DD	FLAT:??_R0?AVexception@std@@@8
	DD	00H
	DD	0ffffffffH
	ORG $+4
	DD	0cH
	DD	FLAT:??0exception@std@@QAE@ABV01@@Z
xdata$x	ENDS
;	COMDAT ??_R0?AVexception@std@@@8
data$r	SEGMENT
??_R0?AVexception@std@@@8 DD FLAT:??_7type_info@@6B@	; std::exception `RTTI Type Descriptor'
	DD	00H
	DB	'.?AVexception@std@@', 00H
data$r	ENDS
;	COMDAT __CT??_R0?AVbad_alloc@std@@@8??0bad_alloc@std@@QAE@ABV01@@Z12
xdata$x	SEGMENT
__CT??_R0?AVbad_alloc@std@@@8??0bad_alloc@std@@QAE@ABV01@@Z12 DD 010H
	DD	FLAT:??_R0?AVbad_alloc@std@@@8
	DD	00H
	DD	0ffffffffH
	ORG $+4
	DD	0cH
	DD	FLAT:??0bad_alloc@std@@QAE@ABV01@@Z
xdata$x	ENDS
;	COMDAT ??_R0?AVbad_alloc@std@@@8
data$r	SEGMENT
??_R0?AVbad_alloc@std@@@8 DD FLAT:??_7type_info@@6B@	; std::bad_alloc `RTTI Type Descriptor'
	DD	00H
	DB	'.?AVbad_alloc@std@@', 00H
data$r	ENDS
;	COMDAT __CT??_R0?AVbad_array_new_length@std@@@8??0bad_array_new_length@std@@QAE@ABV01@@Z12
xdata$x	SEGMENT
__CT??_R0?AVbad_array_new_length@std@@@8??0bad_array_new_length@std@@QAE@ABV01@@Z12 DD 00H
	DD	FLAT:??_R0?AVbad_array_new_length@std@@@8
	DD	00H
	DD	0ffffffffH
	ORG $+4
	DD	0cH
	DD	FLAT:??0bad_array_new_length@std@@QAE@ABV01@@Z
xdata$x	ENDS
;	COMDAT ??_R0?AVbad_array_new_length@std@@@8
data$r	SEGMENT
??_R0?AVbad_array_new_length@std@@@8 DD FLAT:??_7type_info@@6B@ ; std::bad_array_new_length `RTTI Type Descriptor'
	DD	00H
	DB	'.?AVbad_array_new_length@std@@', 00H
data$r	ENDS
;	COMDAT __CTA3?AVbad_array_new_length@std@@
xdata$x	SEGMENT
__CTA3?AVbad_array_new_length@std@@ DD 03H
	DD	FLAT:__CT??_R0?AVbad_array_new_length@std@@@8??0bad_array_new_length@std@@QAE@ABV01@@Z12
	DD	FLAT:__CT??_R0?AVbad_alloc@std@@@8??0bad_alloc@std@@QAE@ABV01@@Z12
	DD	FLAT:__CT??_R0?AVexception@std@@@8??0exception@std@@QAE@ABV01@@Z12
xdata$x	ENDS
;	COMDAT __TI3?AVbad_array_new_length@std@@
xdata$x	SEGMENT
__TI3?AVbad_array_new_length@std@@ DD 00H
	DD	FLAT:??1bad_array_new_length@std@@UAE@XZ
	DD	00H
	DD	FLAT:__CTA3?AVbad_array_new_length@std@@
xdata$x	ENDS
;	COMDAT ??_C@_0BF@KINCDENJ@bad?5array?5new?5length@
CONST	SEGMENT
??_C@_0BF@KINCDENJ@bad?5array?5new?5length@ DB 'bad array new length', 00H ; `string'
CONST	ENDS
;	COMDAT ??_7bad_array_new_length@std@@6B@
CONST	SEGMENT
??_7bad_array_new_length@std@@6B@ DD FLAT:??_R4bad_array_new_length@std@@6B@ ; std::bad_array_new_length::`vftable'
	DD	FLAT:??_Ebad_array_new_length@std@@UAEPAXI@Z
	DD	FLAT:?what@exception@std@@UBEPBDXZ
CONST	ENDS
;	COMDAT ??_7bad_alloc@std@@6B@
CONST	SEGMENT
??_7bad_alloc@std@@6B@ DD FLAT:??_R4bad_alloc@std@@6B@	; std::bad_alloc::`vftable'
	DD	FLAT:??_Ebad_alloc@std@@UAEPAXI@Z
	DD	FLAT:?what@exception@std@@UBEPBDXZ
CONST	ENDS
;	COMDAT ??_C@_0BC@EOODALEL@Unknown?5exception@
CONST	SEGMENT
??_C@_0BC@EOODALEL@Unknown?5exception@ DB 'Unknown exception', 00H ; `string'
CONST	ENDS
;	COMDAT ??_7exception@std@@6B@
CONST	SEGMENT
??_7exception@std@@6B@ DD FLAT:??_R4exception@std@@6B@	; std::exception::`vftable'
	DD	FLAT:??_Eexception@std@@UAEPAXI@Z
	DD	FLAT:?what@exception@std@@UBEPBDXZ
CONST	ENDS
;	COMDAT xdata$x
xdata$x	SEGMENT
__unwindtable$??$?0ABUpiecewise_construct_t@std@@V?$tuple@ABK@1@V?$tuple@$$V@1@@?$_Tree_temp_node@V?$allocator@U?$_Tree_node@U?$pair@$$CBKV?$basic_string@DU?$char_traits@D@std@@V?$allocator@D@2@@std@@@std@@PAX@std@@@std@@@std@@QAE@AAV?$allocator@U?$_Tree_node@U?$pair@$$CBKV?$basic_string@DU?$char_traits@D@std@@V?$allocator@D@2@@std@@@std@@PAX@std@@@1@PAU?$_Tree_node@U?$pair@$$CBKV?$basic_string@DU?$char_traits@D@std@@V?$allocator@D@2@@std@@@std@@PAX@1@ABUpiecewise_construct_t@1@$$QAV?$tuple@ABK@1@$$QAV?$tuple@$$V@1@@Z DD 0ffffffffH
	DD	FLAT:__unwindfunclet$??$?0ABUpiecewise_construct_t@std@@V?$tuple@ABK@1@V?$tuple@$$V@1@@?$_Tree_temp_node@V?$allocator@U?$_Tree_node@U?$pair@$$CBKV?$basic_string@DU?$char_traits@D@std@@V?$allocator@D@2@@std@@@std@@PAX@std@@@std@@@std@@QAE@AAV?$allocator@U?$_Tree_node@U?$pair@$$CBKV?$basic_string@DU?$char_traits@D@std@@V?$allocator@D@2@@std@@@std@@PAX@std@@@1@PAU?$_Tree_node@U?$pair@$$CBKV?$basic_string@DU?$char_traits@D@std@@V?$allocator@D@2@@std@@@std@@PAX@1@ABUpiecewise_construct_t@1@$$QAV?$tuple@ABK@1@$$QAV?$tuple@$$V@1@@Z$1
__ehfuncinfo$??$?0ABUpiecewise_construct_t@std@@V?$tuple@ABK@1@V?$tuple@$$V@1@@?$_Tree_temp_node@V?$allocator@U?$_Tree_node@U?$pair@$$CBKV?$basic_string@DU?$char_traits@D@std@@V?$allocator@D@2@@std@@@std@@PAX@std@@@std@@@std@@QAE@AAV?$allocator@U?$_Tree_node@U?$pair@$$CBKV?$basic_string@DU?$char_traits@D@std@@V?$allocator@D@2@@std@@@std@@PAX@std@@@1@PAU?$_Tree_node@U?$pair@$$CBKV?$basic_string@DU?$char_traits@D@std@@V?$allocator@D@2@@std@@@std@@PAX@1@ABUpiecewise_construct_t@1@$$QAV?$tuple@ABK@1@$$QAV?$tuple@$$V@1@@Z DD 019930522H
	DD	01H
	DD	FLAT:__unwindtable$??$?0ABUpiecewise_construct_t@std@@V?$tuple@ABK@1@V?$tuple@$$V@1@@?$_Tree_temp_node@V?$allocator@U?$_Tree_node@U?$pair@$$CBKV?$basic_string@DU?$char_traits@D@std@@V?$allocator@D@2@@std@@@std@@PAX@std@@@std@@@std@@QAE@AAV?$allocator@U?$_Tree_node@U?$pair@$$CBKV?$basic_string@DU?$char_traits@D@std@@V?$allocator@D@2@@std@@@std@@PAX@std@@@1@PAU?$_Tree_node@U?$pair@$$CBKV?$basic_string@DU?$char_traits@D@std@@V?$allocator@D@2@@std@@@std@@PAX@1@ABUpiecewise_construct_t@1@$$QAV?$tuple@ABK@1@$$QAV?$tuple@$$V@1@@Z
	DD	2 DUP(00H)
	DD	2 DUP(00H)
	DD	00H
	DD	01H
xdata$x	ENDS
;	COMDAT xdata$x
xdata$x	SEGMENT
__unwindtable$??0?$_Tree_temp_node_alloc@V?$allocator@U?$_Tree_node@U?$pair@$$CBKV?$basic_string@DU?$char_traits@D@std@@V?$allocator@D@2@@std@@@std@@PAX@std@@@std@@@std@@QAE@AAV?$allocator@U?$_Tree_node@U?$pair@$$CBKV?$basic_string@DU?$char_traits@D@std@@V?$allocator@D@2@@std@@@std@@PAX@std@@@1@@Z DD 0ffffffffH
	DD	FLAT:__unwindfunclet$??0?$_Tree_temp_node_alloc@V?$allocator@U?$_Tree_node@U?$pair@$$CBKV?$basic_string@DU?$char_traits@D@std@@V?$allocator@D@2@@std@@@std@@PAX@std@@@std@@@std@@QAE@AAV?$allocator@U?$_Tree_node@U?$pair@$$CBKV?$basic_string@DU?$char_traits@D@std@@V?$allocator@D@2@@std@@@std@@PAX@std@@@1@@Z$0
__ehfuncinfo$??0?$_Tree_temp_node_alloc@V?$allocator@U?$_Tree_node@U?$pair@$$CBKV?$basic_string@DU?$char_traits@D@std@@V?$allocator@D@2@@std@@@std@@PAX@std@@@std@@@std@@QAE@AAV?$allocator@U?$_Tree_node@U?$pair@$$CBKV?$basic_string@DU?$char_traits@D@std@@V?$allocator@D@2@@std@@@std@@PAX@std@@@1@@Z DD 019930522H
	DD	01H
	DD	FLAT:__unwindtable$??0?$_Tree_temp_node_alloc@V?$allocator@U?$_Tree_node@U?$pair@$$CBKV?$basic_string@DU?$char_traits@D@std@@V?$allocator@D@2@@std@@@std@@PAX@std@@@std@@@std@@QAE@AAV?$allocator@U?$_Tree_node@U?$pair@$$CBKV?$basic_string@DU?$char_traits@D@std@@V?$allocator@D@2@@std@@@std@@PAX@std@@@1@@Z
	DD	2 DUP(00H)
	DD	2 DUP(00H)
	DD	00H
	DD	01H
xdata$x	ENDS
;	COMDAT xdata$x
xdata$x	SEGMENT
__unwindtable$??$_Try_emplace@ABK$$V@?$map@KV?$basic_string@DU?$char_traits@D@std@@V?$allocator@D@2@@std@@U?$less@K@2@V?$allocator@U?$pair@$$CBKV?$basic_string@DU?$char_traits@D@std@@V?$allocator@D@2@@std@@@std@@@2@@std@@AAE?AU?$pair@PAU?$_Tree_node@U?$pair@$$CBKV?$basic_string@DU?$char_traits@D@std@@V?$allocator@D@2@@std@@@std@@PAX@std@@_N@1@ABK@Z DD 0ffffffffH
	DD	FLAT:__unwindfunclet$??$_Try_emplace@ABK$$V@?$map@KV?$basic_string@DU?$char_traits@D@std@@V?$allocator@D@2@@std@@U?$less@K@2@V?$allocator@U?$pair@$$CBKV?$basic_string@DU?$char_traits@D@std@@V?$allocator@D@2@@std@@@std@@@2@@std@@AAE?AU?$pair@PAU?$_Tree_node@U?$pair@$$CBKV?$basic_string@DU?$char_traits@D@std@@V?$allocator@D@2@@std@@@std@@PAX@std@@_N@1@ABK@Z$2
__ehfuncinfo$??$_Try_emplace@ABK$$V@?$map@KV?$basic_string@DU?$char_traits@D@std@@V?$allocator@D@2@@std@@U?$less@K@2@V?$allocator@U?$pair@$$CBKV?$basic_string@DU?$char_traits@D@std@@V?$allocator@D@2@@std@@@std@@@2@@std@@AAE?AU?$pair@PAU?$_Tree_node@U?$pair@$$CBKV?$basic_string@DU?$char_traits@D@std@@V?$allocator@D@2@@std@@@std@@PAX@std@@_N@1@ABK@Z DD 019930522H
	DD	01H
	DD	FLAT:__unwindtable$??$_Try_emplace@ABK$$V@?$map@KV?$basic_string@DU?$char_traits@D@std@@V?$allocator@D@2@@std@@U?$less@K@2@V?$allocator@U?$pair@$$CBKV?$basic_string@DU?$char_traits@D@std@@V?$allocator@D@2@@std@@@std@@@2@@std@@AAE?AU?$pair@PAU?$_Tree_node@U?$pair@$$CBKV?$basic_string@DU?$char_traits@D@std@@V?$allocator@D@2@@std@@@std@@PAX@std@@_N@1@ABK@Z
	DD	2 DUP(00H)
	DD	2 DUP(00H)
	DD	00H
	DD	01H
xdata$x	ENDS
;	COMDAT xdata$x
xdata$x	SEGMENT
__ehfuncinfo$?Main@@YA_NPAUHINSTANCE__@@PAD@Z DD 019930522H
	DD	05H
	DD	FLAT:__unwindtable$?Main@@YA_NPAUHINSTANCE__@@PAD@Z
	DD	2 DUP(00H)
	DD	2 DUP(00H)
	DD	00H
	DD	01H
__unwindtable$?Main@@YA_NPAUHINSTANCE__@@PAD@Z DD 0ffffffffH
	DD	FLAT:__unwindfunclet$?Main@@YA_NPAUHINSTANCE__@@PAD@Z$0
	DD	0ffffffffH
	DD	FLAT:__unwindfunclet$?Main@@YA_NPAUHINSTANCE__@@PAD@Z$1
	DD	0ffffffffH
	DD	FLAT:__unwindfunclet$?Main@@YA_NPAUHINSTANCE__@@PAD@Z$2
	DD	0ffffffffH
	DD	FLAT:__unwindfunclet$?Main@@YA_NPAUHINSTANCE__@@PAD@Z$3
	DD	03H
	DD	FLAT:__unwindfunclet$?Main@@YA_NPAUHINSTANCE__@@PAD@Z$4
xdata$x	ENDS
;	COMDAT xdata$x
xdata$x	SEGMENT
__unwindtable$??$string_join@V?$vector@V?$basic_string@DU?$char_traits@D@std@@V?$allocator@D@2@@std@@V?$allocator@V?$basic_string@DU?$char_traits@D@std@@V?$allocator@D@2@@std@@@2@@std@@@@YAXABV?$basic_string@DU?$char_traits@D@std@@V?$allocator@D@2@@std@@ABV?$vector@V?$basic_string@DU?$char_traits@D@std@@V?$allocator@D@2@@std@@V?$allocator@V?$basic_string@DU?$char_traits@D@std@@V?$allocator@D@2@@std@@@2@@1@PAV01@@Z DD 0ffffffffH
	DD	FLAT:__unwindfunclet$??$string_join@V?$vector@V?$basic_string@DU?$char_traits@D@std@@V?$allocator@D@2@@std@@V?$allocator@V?$basic_string@DU?$char_traits@D@std@@V?$allocator@D@2@@std@@@2@@std@@@@YAXABV?$basic_string@DU?$char_traits@D@std@@V?$allocator@D@2@@std@@ABV?$vector@V?$basic_string@DU?$char_traits@D@std@@V?$allocator@D@2@@std@@V?$allocator@V?$basic_string@DU?$char_traits@D@std@@V?$allocator@D@2@@std@@@2@@1@PAV01@@Z$0
__ehfuncinfo$??$string_join@V?$vector@V?$basic_string@DU?$char_traits@D@std@@V?$allocator@D@2@@std@@V?$allocator@V?$basic_string@DU?$char_traits@D@std@@V?$allocator@D@2@@std@@@2@@std@@@@YAXABV?$basic_string@DU?$char_traits@D@std@@V?$allocator@D@2@@std@@ABV?$vector@V?$basic_string@DU?$char_traits@D@std@@V?$allocator@D@2@@std@@V?$allocator@V?$basic_string@DU?$char_traits@D@std@@V?$allocator@D@2@@std@@@2@@1@PAV01@@Z DD 019930522H
	DD	01H
	DD	FLAT:__unwindtable$??$string_join@V?$vector@V?$basic_string@DU?$char_traits@D@std@@V?$allocator@D@2@@std@@V?$allocator@V?$basic_string@DU?$char_traits@D@std@@V?$allocator@D@2@@std@@@2@@std@@@@YAXABV?$basic_string@DU?$char_traits@D@std@@V?$allocator@D@2@@std@@ABV?$vector@V?$basic_string@DU?$char_traits@D@std@@V?$allocator@D@2@@std@@V?$allocator@V?$basic_string@DU?$char_traits@D@std@@V?$allocator@D@2@@std@@@2@@1@PAV01@@Z
	DD	2 DUP(00H)
	DD	2 DUP(00H)
	DD	00H
	DD	01H
xdata$x	ENDS
;	COMDAT xdata$x
xdata$x	SEGMENT
__ehfuncinfo$?RunMainScript@@YA_NAAVCPythonLauncher@@PBD@Z DD 019930522H
	DD	07H
	DD	FLAT:__unwindtable$?RunMainScript@@YA_NAAVCPythonLauncher@@PBD@Z
	DD	2 DUP(00H)
	DD	2 DUP(00H)
	DD	00H
	DD	01H
__unwindtable$?RunMainScript@@YA_NAAVCPythonLauncher@@PBD@Z DD 0ffffffffH
	DD	FLAT:__unwindfunclet$?RunMainScript@@YA_NAAVCPythonLauncher@@PBD@Z$0
	DD	0ffffffffH
	DD	FLAT:__unwindfunclet$?RunMainScript@@YA_NAAVCPythonLauncher@@PBD@Z$1
	DD	01H
	DD	FLAT:__unwindfunclet$?RunMainScript@@YA_NAAVCPythonLauncher@@PBD@Z$2
	DD	02H
	DD	FLAT:__unwindfunclet$?RunMainScript@@YA_NAAVCPythonLauncher@@PBD@Z$3
	DD	03H
	DD	FLAT:__unwindfunclet$?RunMainScript@@YA_NAAVCPythonLauncher@@PBD@Z$4
	DD	03H
	DD	FLAT:__unwindfunclet$?RunMainScript@@YA_NAAVCPythonLauncher@@PBD@Z$5
	DD	0ffffffffH
	DD	FLAT:__unwindfunclet$?RunMainScript@@YA_NAAVCPythonLauncher@@PBD@Z$6
xdata$x	ENDS
;	COMDAT xdata$x
xdata$x	SEGMENT
__ehfuncinfo$?PackInitialize@@YA_NPBD@Z DD 019930522H
	DD	08H
	DD	FLAT:__unwindtable$?PackInitialize@@YA_NPBD@Z
	DD	2 DUP(00H)
	DD	2 DUP(00H)
	DD	00H
	DD	01H
__unwindtable$?PackInitialize@@YA_NPBD@Z DD 0ffffffffH
	DD	FLAT:__unwindfunclet$?PackInitialize@@YA_NPBD@Z$0
	DD	00H
	DD	FLAT:__unwindfunclet$?PackInitialize@@YA_NPBD@Z$1
	DD	01H
	DD	FLAT:__unwindfunclet$?PackInitialize@@YA_NPBD@Z$2
	DD	02H
	DD	FLAT:__unwindfunclet$?PackInitialize@@YA_NPBD@Z$3
	DD	03H
	DD	FLAT:__unwindfunclet$?PackInitialize@@YA_NPBD@Z$4
	DD	04H
	DD	FLAT:__unwindfunclet$?PackInitialize@@YA_NPBD@Z$5
	DD	05H
	DD	FLAT:__unwindfunclet$?PackInitialize@@YA_NPBD@Z$8
	DD	06H
	DD	FLAT:__unwindfunclet$?PackInitialize@@YA_NPBD@Z$9
xdata$x	ENDS
;	COMDAT xdata$x
xdata$x	SEGMENT
__unwindtable$?CheckPythonLibraryFilenames@@YA_NXZ DD 0ffffffffH
	DD	FLAT:__unwindfunclet$?CheckPythonLibraryFilenames@@YA_NXZ$0
__ehfuncinfo$?CheckPythonLibraryFilenames@@YA_NXZ DD 019930522H
	DD	01H
	DD	FLAT:__unwindtable$?CheckPythonLibraryFilenames@@YA_NXZ
	DD	2 DUP(00H)
	DD	2 DUP(00H)
	DD	00H
	DD	01H
xdata$x	ENDS
;	COMDAT xdata$x
xdata$x	SEGMENT
__unwindtable$??A?$map@KV?$basic_string@DU?$char_traits@D@std@@V?$allocator@D@2@@std@@U?$less@K@2@V?$allocator@U?$pair@$$CBKV?$basic_string@DU?$char_traits@D@std@@V?$allocator@D@2@@std@@@std@@@2@@std@@QAEAAV?$basic_string@DU?$char_traits@D@std@@V?$allocator@D@2@@1@ABK@Z DD 0ffffffffH
	DD	FLAT:__unwindfunclet$??A?$map@KV?$basic_string@DU?$char_traits@D@std@@V?$allocator@D@2@@std@@U?$less@K@2@V?$allocator@U?$pair@$$CBKV?$basic_string@DU?$char_traits@D@std@@V?$allocator@D@2@@std@@@std@@@2@@std@@QAEAAV?$basic_string@DU?$char_traits@D@std@@V?$allocator@D@2@@1@ABK@Z$2
__ehfuncinfo$??A?$map@KV?$basic_string@DU?$char_traits@D@std@@V?$allocator@D@2@@std@@U?$less@K@2@V?$allocator@U?$pair@$$CBKV?$basic_string@DU?$char_traits@D@std@@V?$allocator@D@2@@std@@@std@@@2@@std@@QAEAAV?$basic_string@DU?$char_traits@D@std@@V?$allocator@D@2@@1@ABK@Z DD 019930522H
	DD	01H
	DD	FLAT:__unwindtable$??A?$map@KV?$basic_string@DU?$char_traits@D@std@@V?$allocator@D@2@@std@@U?$less@K@2@V?$allocator@U?$pair@$$CBKV?$basic_string@DU?$char_traits@D@std@@V?$allocator@D@2@@std@@@std@@@2@@std@@QAEAAV?$basic_string@DU?$char_traits@D@std@@V?$allocator@D@2@@1@ABK@Z
	DD	2 DUP(00H)
	DD	2 DUP(00H)
	DD	00H
	DD	01H
xdata$x	ENDS
CRT$XCU	SEGMENT
?gs_kAppStrTable$initializer$@@3P6AXXZA DD FLAT:??__Egs_kAppStrTable@@YAXXZ ; gs_kAppStrTable$initializer$
CRT$XCU	ENDS
;	COMDAT CRT$XCU
CRT$XCU	SEGMENT
??ms_kPool$initializer$@?$CPooledObject@VCHeaderDecorator@NEffectUpdateDecorator@@@@1P6AXXZA@@3P6AXXZA DD FLAT:??__E?ms_kPool@?$CPooledObject@VCHeaderDecorator@NEffectUpdateDecorator@@@@1V?$CDynamicPoolEx@VCHeaderDecorator@NEffectUpdateDecorator@@@@A@@YAXXZ ; ??ms_kPool$initializer$@?$CPooledObject@VCHeaderDecorator@NEffectUpdateDecorator@@@@1P6AXXZA@@3P6AXXZA
CRT$XCU	ENDS
;	COMDAT CRT$XCU
CRT$XCU	SEGMENT
??ms_kPool$initializer$@?$CPooledObject@VCNullDecorator@NEffectUpdateDecorator@@@@1P6AXXZA@@3P6AXXZA DD FLAT:??__E?ms_kPool@?$CPooledObject@VCNullDecorator@NEffectUpdateDecorator@@@@1V?$CDynamicPoolEx@VCNullDecorator@NEffectUpdateDecorator@@@@A@@YAXXZ ; ??ms_kPool$initializer$@?$CPooledObject@VCNullDecorator@NEffectUpdateDecorator@@@@1P6AXXZA@@3P6AXXZA
CRT$XCU	ENDS
;	COMDAT CRT$XCU
CRT$XCU	SEGMENT
??ms_kPool$initializer$@?$CPooledObject@VCTextureAnimationCWDecorator@NEffectUpdateDecorator@@@@1P6AXXZA@@3P6AXXZA DD FLAT:??__E?ms_kPool@?$CPooledObject@VCTextureAnimationCWDecorator@NEffectUpdateDecorator@@@@1V?$CDynamicPoolEx@VCTextureAnimationCWDecorator@NEffectUpdateDecorator@@@@A@@YAXXZ ; ??ms_kPool$initializer$@?$CPooledObject@VCTextureAnimationCWDecorator@NEffectUpdateDecorator@@@@1P6AXXZA@@3P6AXXZA
CRT$XCU	ENDS
;	COMDAT CRT$XCU
CRT$XCU	SEGMENT
??ms_kPool$initializer$@?$CPooledObject@VCTextureAnimationCCWDecorator@NEffectUpdateDecorator@@@@1P6AXXZA@@3P6AXXZA DD FLAT:??__E?ms_kPool@?$CPooledObject@VCTextureAnimationCCWDecorator@NEffectUpdateDecorator@@@@1V?$CDynamicPoolEx@VCTextureAnimationCCWDecorator@NEffectUpdateDecorator@@@@A@@YAXXZ ; ??ms_kPool$initializer$@?$CPooledObject@VCTextureAnimationCCWDecorator@NEffectUpdateDecorator@@@@1P6AXXZA@@3P6AXXZA
CRT$XCU	ENDS
;	COMDAT CRT$XCU
CRT$XCU	SEGMENT
??ms_kPool$initializer$@?$CPooledObject@VCTextureAnimationRandomDecorator@NEffectUpdateDecorator@@@@1P6AXXZA@@3P6AXXZA DD FLAT:??__E?ms_kPool@?$CPooledObject@VCTextureAnimationRandomDecorator@NEffectUpdateDecorator@@@@1V?$CDynamicPoolEx@VCTextureAnimationRandomDecorator@NEffectUpdateDecorator@@@@A@@YAXXZ ; ??ms_kPool$initializer$@?$CPooledObject@VCTextureAnimationRandomDecorator@NEffectUpdateDecorator@@@@1P6AXXZA@@3P6AXXZA
CRT$XCU	ENDS
;	COMDAT CRT$XCU
CRT$XCU	SEGMENT
??ms_kPool$initializer$@?$CPooledObject@VCAirResistanceDecorator@NEffectUpdateDecorator@@@@1P6AXXZA@@3P6AXXZA DD FLAT:??__E?ms_kPool@?$CPooledObject@VCAirResistanceDecorator@NEffectUpdateDecorator@@@@1V?$CDynamicPoolEx@VCAirResistanceDecorator@NEffectUpdateDecorator@@@@A@@YAXXZ ; ??ms_kPool$initializer$@?$CPooledObject@VCAirResistanceDecorator@NEffectUpdateDecorator@@@@1P6AXXZA@@3P6AXXZA
CRT$XCU	ENDS
;	COMDAT CRT$XCU
CRT$XCU	SEGMENT
??ms_kPool$initializer$@?$CPooledObject@VCGravityDecorator@NEffectUpdateDecorator@@@@1P6AXXZA@@3P6AXXZA DD FLAT:??__E?ms_kPool@?$CPooledObject@VCGravityDecorator@NEffectUpdateDecorator@@@@1V?$CDynamicPoolEx@VCGravityDecorator@NEffectUpdateDecorator@@@@A@@YAXXZ ; ??ms_kPool$initializer$@?$CPooledObject@VCGravityDecorator@NEffectUpdateDecorator@@@@1P6AXXZA@@3P6AXXZA
CRT$XCU	ENDS
;	COMDAT CRT$XCU
CRT$XCU	SEGMENT
??ms_kPool$initializer$@?$CPooledObject@VCRotationDecorator@NEffectUpdateDecorator@@@@1P6AXXZA@@3P6AXXZA DD FLAT:??__E?ms_kPool@?$CPooledObject@VCRotationDecorator@NEffectUpdateDecorator@@@@1V?$CDynamicPoolEx@VCRotationDecorator@NEffectUpdateDecorator@@@@A@@YAXXZ ; ??ms_kPool$initializer$@?$CPooledObject@VCRotationDecorator@NEffectUpdateDecorator@@@@1P6AXXZA@@3P6AXXZA
CRT$XCU	ENDS
; Function compile flags: /Ogtp
; File C:\Program Files (x86)\Microsoft Visual Studio\2019\Community\VC\Tools\MSVC\14.28.29333\include\xmemory
;	COMDAT ??$_Pocs@V?$allocator@D@std@@@std@@YAXAAV?$allocator@D@0@0@Z
_TEXT	SEGMENT
__Left$ = 8						; size = 4
__Right$ = 12						; size = 4
??$_Pocs@V?$allocator@D@std@@@std@@YAXAAV?$allocator@D@0@0@Z PROC ; std::_Pocs<std::allocator<char> >, COMDAT

; 933  :     if constexpr (allocator_traits<_Alloc>::propagate_on_container_swap::value) {
; 934  :         _Swap_adl(_Left, _Right);
; 935  :     } else {
; 936  :         _STL_ASSERT(_Left == _Right, "containers incompatible for swap");
; 937  :     }
; 938  : }

  00000	c2 00 00	 ret	 0
??$_Pocs@V?$allocator@D@std@@@std@@YAXAAV?$allocator@D@0@0@Z ENDP ; std::_Pocs<std::allocator<char> >
_TEXT	ENDS
; Function compile flags: /Ogtp
; File C:\Program Files (x86)\Microsoft Visual Studio\2019\Community\VC\Tools\MSVC\14.28.29333\include\xmemory
;	COMDAT ??$_Construct_in_place@PAU?$_Tree_node@U?$pair@$$CBKV?$basic_string@DU?$char_traits@D@std@@V?$allocator@D@2@@std@@@std@@PAX@std@@AAPAU12@@std@@YAXAAPAU?$_Tree_node@U?$pair@$$CBKV?$basic_string@DU?$char_traits@D@std@@V?$allocator@D@2@@std@@@std@@PAX@0@0@Z
_TEXT	SEGMENT
__Obj$ = 8						; size = 4
_<_Args_0>$ = 12					; size = 4
??$_Construct_in_place@PAU?$_Tree_node@U?$pair@$$CBKV?$basic_string@DU?$char_traits@D@std@@V?$allocator@D@2@@std@@@std@@PAX@std@@AAPAU12@@std@@YAXAAPAU?$_Tree_node@U?$pair@$$CBKV?$basic_string@DU?$char_traits@D@std@@V?$allocator@D@2@@std@@@std@@PAX@0@0@Z PROC ; std::_Construct_in_place<std::_Tree_node<std::pair<unsigned long const ,std::basic_string<char,std::char_traits<char>,std::allocator<char> > >,void *> *,std::_Tree_node<std::pair<unsigned long const ,std::basic_string<char,std::char_traits<char>,std::allocator<char> > >,void *> * &>, COMDAT

; 228  : void _Construct_in_place(_Ty& _Obj, _Types&&... _Args) noexcept(is_nothrow_constructible_v<_Ty, _Types...>) {

  00000	55		 push	 ebp
  00001	8b ec		 mov	 ebp, esp

; 229  :     ::new (const_cast<void*>(static_cast<const volatile void*>(_STD addressof(_Obj))))

  00003	8b 45 0c	 mov	 eax, DWORD PTR _<_Args_0>$[ebp]
  00006	8b 08		 mov	 ecx, DWORD PTR [eax]
  00008	8b 45 08	 mov	 eax, DWORD PTR __Obj$[ebp]
  0000b	89 08		 mov	 DWORD PTR [eax], ecx

; 230  :         _Ty(_STD forward<_Types>(_Args)...);
; 231  : }

  0000d	5d		 pop	 ebp
  0000e	c3		 ret	 0
??$_Construct_in_place@PAU?$_Tree_node@U?$pair@$$CBKV?$basic_string@DU?$char_traits@D@std@@V?$allocator@D@2@@std@@@std@@PAX@std@@AAPAU12@@std@@YAXAAPAU?$_Tree_node@U?$pair@$$CBKV?$basic_string@DU?$char_traits@D@std@@V?$allocator@D@2@@std@@@std@@PAX@0@0@Z ENDP ; std::_Construct_in_place<std::_Tree_node<std::pair<unsigned long const ,std::basic_string<char,std::char_traits<char>,std::allocator<char> > >,void *> *,std::_Tree_node<std::pair<unsigned long const ,std::basic_string<char,std::char_traits<char>,std::allocator<char> > >,void *> * &>
_TEXT	ENDS
; Function compile flags: /Ogtp
; File C:\Program Files (x86)\Microsoft Visual Studio\2019\Community\VC\Tools\MSVC\14.28.29333\include\xstring
;	COMDAT ??$_Traits_equal@U?$char_traits@D@std@@@std@@YA_NQBDI0I@Z
_TEXT	SEGMENT
__Left$ = 8						; size = 4
__Left_size$ = 12					; size = 4
__Right$ = 16						; size = 4
__Right_size$ = 20					; size = 4
??$_Traits_equal@U?$char_traits@D@std@@@std@@YA_NQBDI0I@Z PROC ; std::_Traits_equal<std::char_traits<char> >, COMDAT

; 559  :     _In_reads_(_Right_size) const _Traits_ptr_t<_Traits> _Right, const size_t _Right_size) noexcept {

  00000	55		 push	 ebp
  00001	8b ec		 mov	 ebp, esp

; 560  :     // compare [_Left, _Left + _Left_size) to [_Right, _Right + _Right_size) for equality using _Traits
; 561  :     return _Left_size == _Right_size && _Traits::compare(_Left, _Right, _Left_size) == 0;

  00003	8b 4d 0c	 mov	 ecx, DWORD PTR __Left_size$[ebp]
  00006	3b 4d 14	 cmp	 ecx, DWORD PTR __Right_size$[ebp]
  00009	75 61		 jne	 SHORT $LN3@Traits_equ

; 369  :         return _CSTD memcmp(_First1, _First2, _Count);

  0000b	8b 55 08	 mov	 edx, DWORD PTR __Left$[ebp]
  0000e	56		 push	 esi
  0000f	8b 75 10	 mov	 esi, DWORD PTR __Right$[ebp]
  00012	83 e9 04	 sub	 ecx, 4
  00015	72 11		 jb	 SHORT $LN9@Traits_equ
$LL10@Traits_equ:
  00017	8b 02		 mov	 eax, DWORD PTR [edx]
  00019	3b 06		 cmp	 eax, DWORD PTR [esi]
  0001b	75 10		 jne	 SHORT $LN8@Traits_equ
  0001d	83 c2 04	 add	 edx, 4
  00020	83 c6 04	 add	 esi, 4
  00023	83 e9 04	 sub	 ecx, 4
  00026	73 ef		 jae	 SHORT $LL10@Traits_equ
$LN9@Traits_equ:
  00028	83 f9 fc	 cmp	 ecx, -4			; fffffffcH
  0002b	74 34		 je	 SHORT $LN7@Traits_equ
$LN8@Traits_equ:
  0002d	8a 02		 mov	 al, BYTE PTR [edx]
  0002f	3a 06		 cmp	 al, BYTE PTR [esi]
  00031	75 27		 jne	 SHORT $LN11@Traits_equ
  00033	83 f9 fd	 cmp	 ecx, -3			; fffffffdH
  00036	74 29		 je	 SHORT $LN7@Traits_equ
  00038	8a 42 01	 mov	 al, BYTE PTR [edx+1]
  0003b	3a 46 01	 cmp	 al, BYTE PTR [esi+1]
  0003e	75 1a		 jne	 SHORT $LN11@Traits_equ
  00040	83 f9 fe	 cmp	 ecx, -2			; fffffffeH
  00043	74 1c		 je	 SHORT $LN7@Traits_equ
  00045	8a 42 02	 mov	 al, BYTE PTR [edx+2]
  00048	3a 46 02	 cmp	 al, BYTE PTR [esi+2]
  0004b	75 0d		 jne	 SHORT $LN11@Traits_equ
  0004d	83 f9 ff	 cmp	 ecx, -1
  00050	74 0f		 je	 SHORT $LN7@Traits_equ
  00052	8a 42 03	 mov	 al, BYTE PTR [edx+3]
  00055	3a 46 03	 cmp	 al, BYTE PTR [esi+3]
  00058	74 07		 je	 SHORT $LN7@Traits_equ
$LN11@Traits_equ:
  0005a	1b c0		 sbb	 eax, eax
  0005c	83 c8 01	 or	 eax, 1
  0005f	eb 02		 jmp	 SHORT $LN12@Traits_equ
$LN7@Traits_equ:
  00061	33 c0		 xor	 eax, eax
$LN12@Traits_equ:
  00063	5e		 pop	 esi

; 560  :     // compare [_Left, _Left + _Left_size) to [_Right, _Right + _Right_size) for equality using _Traits
; 561  :     return _Left_size == _Right_size && _Traits::compare(_Left, _Right, _Left_size) == 0;

  00064	85 c0		 test	 eax, eax
  00066	75 04		 jne	 SHORT $LN3@Traits_equ
  00068	b0 01		 mov	 al, 1

; 562  : }

  0006a	5d		 pop	 ebp
  0006b	c3		 ret	 0
$LN3@Traits_equ:

; 560  :     // compare [_Left, _Left + _Left_size) to [_Right, _Right + _Right_size) for equality using _Traits
; 561  :     return _Left_size == _Right_size && _Traits::compare(_Left, _Right, _Left_size) == 0;

  0006c	32 c0		 xor	 al, al

; 562  : }

  0006e	5d		 pop	 ebp
  0006f	c3		 ret	 0
??$_Traits_equal@U?$char_traits@D@std@@@std@@YA_NQBDI0I@Z ENDP ; std::_Traits_equal<std::char_traits<char> >
_TEXT	ENDS
; Function compile flags: /Ogtp
; File C:\Program Files (x86)\Microsoft Visual Studio\2019\Community\VC\Tools\MSVC\14.28.29333\include\xmemory
;	COMDAT ??$_Destroy_in_place@PAU?$_Tree_node@U?$pair@$$CBKV?$basic_string@DU?$char_traits@D@std@@V?$allocator@D@2@@std@@@std@@PAX@std@@@std@@YAXAAPAU?$_Tree_node@U?$pair@$$CBKV?$basic_string@DU?$char_traits@D@std@@V?$allocator@D@2@@std@@@std@@PAX@0@@Z
_TEXT	SEGMENT
__Obj$ = 8						; size = 4
??$_Destroy_in_place@PAU?$_Tree_node@U?$pair@$$CBKV?$basic_string@DU?$char_traits@D@std@@V?$allocator@D@2@@std@@@std@@PAX@std@@@std@@YAXAAPAU?$_Tree_node@U?$pair@$$CBKV?$basic_string@DU?$char_traits@D@std@@V?$allocator@D@2@@std@@@std@@PAX@0@@Z PROC ; std::_Destroy_in_place<std::_Tree_node<std::pair<unsigned long const ,std::basic_string<char,std::char_traits<char>,std::allocator<char> > >,void *> *>, COMDAT

; 271  : #if _HAS_IF_CONSTEXPR
; 272  :     if constexpr (is_array_v<_Ty>) {
; 273  :         _Destroy_range(_Obj, _Obj + extent_v<_Ty>);
; 274  :     } else
; 275  : #endif // _HAS_IF_CONSTEXPR
; 276  :     {
; 277  :         _Obj.~_Ty();
; 278  :     }
; 279  : }

  00000	c2 00 00	 ret	 0
??$_Destroy_in_place@PAU?$_Tree_node@U?$pair@$$CBKV?$basic_string@DU?$char_traits@D@std@@V?$allocator@D@2@@std@@@std@@PAX@std@@@std@@YAXAAPAU?$_Tree_node@U?$pair@$$CBKV?$basic_string@DU?$char_traits@D@std@@V?$allocator@D@2@@std@@@std@@PAX@0@@Z ENDP ; std::_Destroy_in_place<std::_Tree_node<std::pair<unsigned long const ,std::basic_string<char,std::char_traits<char>,std::allocator<char> > >,void *> *>
_TEXT	ENDS
; Function compile flags: /Ogtp
; File C:\Program Files (x86)\Microsoft Visual Studio\2019\Community\VC\Tools\MSVC\14.28.29333\include\xmemory
;	COMDAT ??$_Construct_in_place@PAU?$_Tree_node@U?$pair@$$CBKV?$basic_string@DU?$char_traits@D@std@@V?$allocator@D@2@@std@@@std@@PAX@std@@ABQAU12@@std@@YAXAAPAU?$_Tree_node@U?$pair@$$CBKV?$basic_string@DU?$char_traits@D@std@@V?$allocator@D@2@@std@@@std@@PAX@0@ABQAU10@@Z
_TEXT	SEGMENT
__Obj$ = 8						; size = 4
_<_Args_0>$ = 12					; size = 4
??$_Construct_in_place@PAU?$_Tree_node@U?$pair@$$CBKV?$basic_string@DU?$char_traits@D@std@@V?$allocator@D@2@@std@@@std@@PAX@std@@ABQAU12@@std@@YAXAAPAU?$_Tree_node@U?$pair@$$CBKV?$basic_string@DU?$char_traits@D@std@@V?$allocator@D@2@@std@@@std@@PAX@0@ABQAU10@@Z PROC ; std::_Construct_in_place<std::_Tree_node<std::pair<unsigned long const ,std::basic_string<char,std::char_traits<char>,std::allocator<char> > >,void *> *,std::_Tree_node<std::pair<unsigned long const ,std::basic_string<char,std::char_traits<char>,std::allocator<char> > >,void *> * const &>, COMDAT

; 228  : void _Construct_in_place(_Ty& _Obj, _Types&&... _Args) noexcept(is_nothrow_constructible_v<_Ty, _Types...>) {

  00000	55		 push	 ebp
  00001	8b ec		 mov	 ebp, esp

; 229  :     ::new (const_cast<void*>(static_cast<const volatile void*>(_STD addressof(_Obj))))

  00003	8b 45 0c	 mov	 eax, DWORD PTR _<_Args_0>$[ebp]
  00006	8b 08		 mov	 ecx, DWORD PTR [eax]
  00008	8b 45 08	 mov	 eax, DWORD PTR __Obj$[ebp]
  0000b	89 08		 mov	 DWORD PTR [eax], ecx

; 230  :         _Ty(_STD forward<_Types>(_Args)...);
; 231  : }

  0000d	5d		 pop	 ebp
  0000e	c3		 ret	 0
??$_Construct_in_place@PAU?$_Tree_node@U?$pair@$$CBKV?$basic_string@DU?$char_traits@D@std@@V?$allocator@D@2@@std@@@std@@PAX@std@@ABQAU12@@std@@YAXAAPAU?$_Tree_node@U?$pair@$$CBKV?$basic_string@DU?$char_traits@D@std@@V?$allocator@D@2@@std@@@std@@PAX@0@ABQAU10@@Z ENDP ; std::_Construct_in_place<std::_Tree_node<std::pair<unsigned long const ,std::basic_string<char,std::char_traits<char>,std::allocator<char> > >,void *> *,std::_Tree_node<std::pair<unsigned long const ,std::basic_string<char,std::char_traits<char>,std::allocator<char> > >,void *> * const &>
_TEXT	ENDS
; Function compile flags: /Ogtp
; File C:\Program Files (x86)\Microsoft Visual Studio\2019\Community\VC\Tools\MSVC\14.28.29333\include\xtree
; File C:\Program Files (x86)\Microsoft Visual Studio\2019\Community\VC\Tools\MSVC\14.28.29333\include\utility
; File C:\Program Files (x86)\Microsoft Visual Studio\2019\Community\VC\Tools\MSVC\14.28.29333\include\xstring
; File C:\Program Files (x86)\Microsoft Visual Studio\2019\Community\VC\Tools\MSVC\14.28.29333\include\xmemory
; File C:\Program Files (x86)\Microsoft Visual Studio\2019\Community\VC\Tools\MSVC\14.28.29333\include\xstring
; File C:\Program Files (x86)\Microsoft Visual Studio\2019\Community\VC\Tools\MSVC\14.28.29333\include\xmemory
; File C:\Program Files (x86)\Microsoft Visual Studio\2019\Community\VC\Tools\MSVC\14.28.29333\include\xtree
; File C:\Program Files (x86)\Microsoft Visual Studio\2019\Community\VC\Tools\MSVC\14.28.29333\include\xmemory
; File C:\Program Files (x86)\Microsoft Visual Studio\2019\Community\VC\Tools\MSVC\14.28.29333\include\xtree
;	COMDAT ??$_Erase_tree@V?$allocator@U?$_Tree_node@U?$pair@$$CBKV?$basic_string@DU?$char_traits@D@std@@V?$allocator@D@2@@std@@@std@@PAX@std@@@std@@@?$_Tree_val@U?$_Tree_simple_types@U?$pair@$$CBKV?$basic_string@DU?$char_traits@D@std@@V?$allocator@D@2@@std@@@std@@@std@@@std@@QAEXAAV?$allocator@U?$_Tree_node@U?$pair@$$CBKV?$basic_string@DU?$char_traits@D@std@@V?$allocator@D@2@@std@@@std@@PAX@std@@@1@PAU?$_Tree_node@U?$pair@$$CBKV?$basic_string@DU?$char_traits@D@std@@V?$allocator@D@2@@std@@@std@@PAX@1@@Z
_TEXT	SEGMENT
_this$1$ = -4						; size = 4
__Al$ = 8						; size = 4
__Rootnode$ = 12					; size = 4
??$_Erase_tree@V?$allocator@U?$_Tree_node@U?$pair@$$CBKV?$basic_string@DU?$char_traits@D@std@@V?$allocator@D@2@@std@@@std@@PAX@std@@@std@@@?$_Tree_val@U?$_Tree_simple_types@U?$pair@$$CBKV?$basic_string@DU?$char_traits@D@std@@V?$allocator@D@2@@std@@@std@@@std@@@std@@QAEXAAV?$allocator@U?$_Tree_node@U?$pair@$$CBKV?$basic_string@DU?$char_traits@D@std@@V?$allocator@D@2@@std@@@std@@PAX@std@@@1@PAU?$_Tree_node@U?$pair@$$CBKV?$basic_string@DU?$char_traits@D@std@@V?$allocator@D@2@@std@@@std@@PAX@1@@Z PROC ; std::_Tree_val<std::_Tree_simple_types<std::pair<unsigned long const ,std::basic_string<char,std::char_traits<char>,std::allocator<char> > > > >::_Erase_tree<std::allocator<std::_Tree_node<std::pair<unsigned long const ,std::basic_string<char,std::char_traits<char>,std::allocator<char> > >,void *> > >, COMDAT
; _this$ = ecx

; 742  :     void _Erase_tree(_Alnode& _Al, _Nodeptr _Rootnode) noexcept {

  00000	55		 push	 ebp
  00001	8b ec		 mov	 ebp, esp
  00003	51		 push	 ecx
  00004	57		 push	 edi

; 743  :         while (!_Rootnode->_Isnil) { // free subtrees, then node

  00005	8b 7d 0c	 mov	 edi, DWORD PTR __Rootnode$[ebp]
  00008	8b c1		 mov	 eax, ecx
  0000a	89 45 fc	 mov	 DWORD PTR _this$1$[ebp], eax
  0000d	80 7f 0d 00	 cmp	 BYTE PTR [edi+13], 0
  00011	75 51		 jne	 SHORT $LN3@Erase_tree
  00013	53		 push	 ebx
  00014	8b 5d 08	 mov	 ebx, DWORD PTR __Al$[ebp]
  00017	56		 push	 esi
$LL2@Erase_tree:

; 744  :             _Erase_tree(_Al, _Rootnode->_Right);

  00018	ff 77 08	 push	 DWORD PTR [edi+8]
  0001b	8b c8		 mov	 ecx, eax
  0001d	53		 push	 ebx
  0001e	e8 00 00 00 00	 call	 ??$_Erase_tree@V?$allocator@U?$_Tree_node@U?$pair@$$CBKV?$basic_string@DU?$char_traits@D@std@@V?$allocator@D@2@@std@@@std@@PAX@std@@@std@@@?$_Tree_val@U?$_Tree_simple_types@U?$pair@$$CBKV?$basic_string@DU?$char_traits@D@std@@V?$allocator@D@2@@std@@@std@@@std@@@std@@QAEXAAV?$allocator@U?$_Tree_node@U?$pair@$$CBKV?$basic_string@DU?$char_traits@D@std@@V?$allocator@D@2@@std@@@std@@PAX@std@@@1@PAU?$_Tree_node@U?$pair@$$CBKV?$basic_string@DU?$char_traits@D@std@@V?$allocator@D@2@@std@@@std@@PAX@1@@Z ; std::_Tree_val<std::_Tree_simple_types<std::pair<unsigned long const ,std::basic_string<char,std::char_traits<char>,std::allocator<char> > > > >::_Erase_tree<std::allocator<std::_Tree_node<std::pair<unsigned long const ,std::basic_string<char,std::char_traits<char>,std::allocator<char> > >,void *> > >
; File C:\Program Files (x86)\Microsoft Visual Studio\2019\Community\VC\Tools\MSVC\14.28.29333\include\utility

; 598  :     _Ty _Old_val = static_cast<_Ty&&>(_Val);

  00023	8b f7		 mov	 esi, edi

; 599  :     _Val         = static_cast<_Other&&>(_New_val);

  00025	8b 3f		 mov	 edi, DWORD PTR [edi]
; File C:\Program Files (x86)\Microsoft Visual Studio\2019\Community\VC\Tools\MSVC\14.28.29333\include\xstring

; 2227 :         return _BUF_SIZE <= _Myres;

  00027	8b 46 28	 mov	 eax, DWORD PTR [esi+40]
  0002a	83 f8 10	 cmp	 eax, 16			; 00000010H

; 4385 :         if (_Mypair._Myval2._Large_string_engaged()) {

  0002d	72 0d		 jb	 SHORT $LN21@Erase_tree

; 4386 :             const pointer _Ptr = _Mypair._Myval2._Bx._Ptr;
; 4387 :             auto& _Al          = _Getal();
; 4388 :             _Destroy_in_place(_Mypair._Myval2._Bx._Ptr);
; 4389 :             _Al.deallocate(_Ptr, _Mypair._Myval2._Myres + 1);

  0002f	40		 inc	 eax
; File C:\Program Files (x86)\Microsoft Visual Studio\2019\Community\VC\Tools\MSVC\14.28.29333\include\xmemory

; 810  :         _Deallocate<_New_alignof<_Ty>>(_Ptr, sizeof(_Ty) * _Count);

  00030	50		 push	 eax
  00031	ff 76 14	 push	 DWORD PTR [esi+20]
  00034	e8 00 00 00 00	 call	 ??$_Deallocate@$07$0A@@std@@YAXPAXI@Z ; std::_Deallocate<8,0>
  00039	83 c4 08	 add	 esp, 8
$LN21@Erase_tree:

; 696  :         _Deallocate<_New_alignof<value_type>>(_Ptr, sizeof(value_type) * _Count);

  0003c	6a 2c		 push	 44			; 0000002cH
  0003e	56		 push	 esi
; File C:\Program Files (x86)\Microsoft Visual Studio\2019\Community\VC\Tools\MSVC\14.28.29333\include\xstring

; 4392 :         _Mypair._Myval2._Mysize = 0;

  0003f	c7 46 24 00 00
	00 00		 mov	 DWORD PTR [esi+36], 0

; 4393 :         _Mypair._Myval2._Myres  = _BUF_SIZE - 1;

  00046	c7 46 28 0f 00
	00 00		 mov	 DWORD PTR [esi+40], 15	; 0000000fH

; 4394 :         // the _Traits::assign is last so the codegen doesn't think the char write can alias this
; 4395 :         _Traits::assign(_Mypair._Myval2._Bx._Buf[0], _Elem());

  0004d	c6 46 14 00	 mov	 BYTE PTR [esi+20], 0
; File C:\Program Files (x86)\Microsoft Visual Studio\2019\Community\VC\Tools\MSVC\14.28.29333\include\xmemory

; 696  :         _Deallocate<_New_alignof<value_type>>(_Ptr, sizeof(value_type) * _Count);

  00051	e8 00 00 00 00	 call	 ??$_Deallocate@$07$0A@@std@@YAXPAXI@Z ; std::_Deallocate<8,0>
; File C:\Program Files (x86)\Microsoft Visual Studio\2019\Community\VC\Tools\MSVC\14.28.29333\include\xtree

; 743  :         while (!_Rootnode->_Isnil) { // free subtrees, then node

  00056	8b 45 fc	 mov	 eax, DWORD PTR _this$1$[ebp]
; File C:\Program Files (x86)\Microsoft Visual Studio\2019\Community\VC\Tools\MSVC\14.28.29333\include\xmemory

; 696  :         _Deallocate<_New_alignof<value_type>>(_Ptr, sizeof(value_type) * _Count);

  00059	83 c4 08	 add	 esp, 8
; File C:\Program Files (x86)\Microsoft Visual Studio\2019\Community\VC\Tools\MSVC\14.28.29333\include\xtree

; 743  :         while (!_Rootnode->_Isnil) { // free subtrees, then node

  0005c	80 7f 0d 00	 cmp	 BYTE PTR [edi+13], 0
  00060	74 b6		 je	 SHORT $LL2@Erase_tree
  00062	5e		 pop	 esi
  00063	5b		 pop	 ebx
$LN3@Erase_tree:
  00064	5f		 pop	 edi

; 745  :             _Alnode::value_type::_Freenode(_Al, _STD exchange(_Rootnode, _Rootnode->_Left));
; 746  :         }
; 747  :     }

  00065	8b e5		 mov	 esp, ebp
  00067	5d		 pop	 ebp
  00068	c2 08 00	 ret	 8
??$_Erase_tree@V?$allocator@U?$_Tree_node@U?$pair@$$CBKV?$basic_string@DU?$char_traits@D@std@@V?$allocator@D@2@@std@@@std@@PAX@std@@@std@@@?$_Tree_val@U?$_Tree_simple_types@U?$pair@$$CBKV?$basic_string@DU?$char_traits@D@std@@V?$allocator@D@2@@std@@@std@@@std@@@std@@QAEXAAV?$allocator@U?$_Tree_node@U?$pair@$$CBKV?$basic_string@DU?$char_traits@D@std@@V?$allocator@D@2@@std@@@std@@PAX@std@@@1@PAU?$_Tree_node@U?$pair@$$CBKV?$basic_string@DU?$char_traits@D@std@@V?$allocator@D@2@@std@@@std@@PAX@1@@Z ENDP ; std::_Tree_val<std::_Tree_simple_types<std::pair<unsigned long const ,std::basic_string<char,std::char_traits<char>,std::allocator<char> > > > >::_Erase_tree<std::allocator<std::_Tree_node<std::pair<unsigned long const ,std::basic_string<char,std::char_traits<char>,std::allocator<char> > >,void *> > >
_TEXT	ENDS
; Function compile flags: /Ogtp
; File C:\Program Files (x86)\Microsoft Visual Studio\2019\Community\VC\Tools\MSVC\14.28.29333\include\xmemory
;	COMDAT ??1?$_Alloc_construct_ptr@V?$allocator@U?$_Tree_node@U?$pair@$$CBKV?$basic_string@DU?$char_traits@D@std@@V?$allocator@D@2@@std@@@std@@PAX@std@@@std@@@std@@QAE@XZ
_TEXT	SEGMENT
??1?$_Alloc_construct_ptr@V?$allocator@U?$_Tree_node@U?$pair@$$CBKV?$basic_string@DU?$char_traits@D@std@@V?$allocator@D@2@@std@@@std@@PAX@std@@@std@@@std@@QAE@XZ PROC ; std::_Alloc_construct_ptr<std::allocator<std::_Tree_node<std::pair<unsigned long const ,std::basic_string<char,std::char_traits<char>,std::allocator<char> > >,void *> > >::~_Alloc_construct_ptr<std::allocator<std::_Tree_node<std::pair<unsigned long const ,std::basic_string<char,std::char_traits<char>,std::allocator<char> > >,void *> > >, COMDAT
; _this$ = ecx

; 1057 :         if (_Ptr) {

  00000	8b 41 04	 mov	 eax, DWORD PTR [ecx+4]
  00003	85 c0		 test	 eax, eax
  00005	74 0b		 je	 SHORT $LN2@Alloc_cons

; 810  :         _Deallocate<_New_alignof<_Ty>>(_Ptr, sizeof(_Ty) * _Count);

  00007	6a 2c		 push	 44			; 0000002cH
  00009	50		 push	 eax
  0000a	e8 00 00 00 00	 call	 ??$_Deallocate@$07$0A@@std@@YAXPAXI@Z ; std::_Deallocate<8,0>
  0000f	83 c4 08	 add	 esp, 8
$LN2@Alloc_cons:

; 1058 :             _Al.deallocate(_Ptr, 1);
; 1059 :         }
; 1060 :     }

  00012	c3		 ret	 0
??1?$_Alloc_construct_ptr@V?$allocator@U?$_Tree_node@U?$pair@$$CBKV?$basic_string@DU?$char_traits@D@std@@V?$allocator@D@2@@std@@@std@@PAX@std@@@std@@@std@@QAE@XZ ENDP ; std::_Alloc_construct_ptr<std::allocator<std::_Tree_node<std::pair<unsigned long const ,std::basic_string<char,std::char_traits<char>,std::allocator<char> > >,void *> > >::~_Alloc_construct_ptr<std::allocator<std::_Tree_node<std::pair<unsigned long const ,std::basic_string<char,std::char_traits<char>,std::allocator<char> > >,void *> > >
_TEXT	ENDS
; Function compile flags: /Ogtp
; File C:\Program Files (x86)\Microsoft Visual Studio\2019\Community\VC\Tools\MSVC\14.28.29333\include\xstring
;	COMDAT ??$swap@DU?$char_traits@D@std@@V?$allocator@D@2@@std@@YAXAAV?$basic_string@DU?$char_traits@D@std@@V?$allocator@D@2@@0@0@Z
_TEXT	SEGMENT
__Left$ = 8						; size = 4
__Right$ = 12						; size = 4
??$swap@DU?$char_traits@D@std@@V?$allocator@D@2@@std@@YAXAAV?$basic_string@DU?$char_traits@D@std@@V?$allocator@D@2@@0@0@Z PROC ; std::swap<char,std::char_traits<char>,std::allocator<char> >, COMDAT

; 4438 : /* strengthened */ {

  00000	55		 push	 ebp
  00001	8b ec		 mov	 ebp, esp

; 3876 :         _CSTD memcpy(_My_data_mem, _Right_data_mem, _Memcpy_val_size);

  00003	8b 45 0c	 mov	 eax, DWORD PTR __Right$[ebp]
  00006	8b 4d 08	 mov	 ecx, DWORD PTR __Left$[ebp]
  00009	0f 10 00	 movups	 xmm0, XMMWORD PTR [eax]
  0000c	0f 10 09	 movups	 xmm1, XMMWORD PTR [ecx]
  0000f	f3 0f 7e 51 10	 movq	 xmm2, QWORD PTR [ecx+16]
  00014	0f 11 01	 movups	 XMMWORD PTR [ecx], xmm0
  00017	f3 0f 7e 40 10	 movq	 xmm0, QWORD PTR [eax+16]
  0001c	66 0f d6 41 10	 movq	 QWORD PTR [ecx+16], xmm0

; 3877 :         _CSTD memcpy(_Right_data_mem, _Temp_mem, _Memcpy_val_size);

  00021	0f 11 08	 movups	 XMMWORD PTR [eax], xmm1
  00024	66 0f d6 50 10	 movq	 QWORD PTR [eax+16], xmm2

; 4439 :     _Left.swap(_Right);
; 4440 : }

  00029	5d		 pop	 ebp
  0002a	c3		 ret	 0
??$swap@DU?$char_traits@D@std@@V?$allocator@D@2@@std@@YAXAAV?$basic_string@DU?$char_traits@D@std@@V?$allocator@D@2@@0@0@Z ENDP ; std::swap<char,std::char_traits<char>,std::allocator<char> >
_TEXT	ENDS
; Function compile flags: /Ogtp
;	COMDAT ??__F?ms_kPool@?$CPooledObject@VCRotationDecorator@NEffectUpdateDecorator@@@@1V?$CDynamicPoolEx@VCRotationDecorator@NEffectUpdateDecorator@@@@A@@YAXXZ
text$yd	SEGMENT
??__F?ms_kPool@?$CPooledObject@VCRotationDecorator@NEffectUpdateDecorator@@@@1V?$CDynamicPoolEx@VCRotationDecorator@NEffectUpdateDecorator@@@@A@@YAXXZ PROC ; `dynamic atexit destructor for 'CPooledObject<NEffectUpdateDecorator::CRotationDecorator>::ms_kPool'', COMDAT
  00000	b9 00 00 00 00	 mov	 ecx, OFFSET ?ms_kPool@?$CPooledObject@VCRotationDecorator@NEffectUpdateDecorator@@@@1V?$CDynamicPoolEx@VCRotationDecorator@NEffectUpdateDecorator@@@@A ; CPooledObject<NEffectUpdateDecorator::CRotationDecorator>::ms_kPool
  00005	e9 00 00 00 00	 jmp	 ??1?$CDynamicPoolEx@VCRotationDecorator@NEffectUpdateDecorator@@@@UAE@XZ ; CDynamicPoolEx<NEffectUpdateDecorator::CRotationDecorator>::~CDynamicPoolEx<NEffectUpdateDecorator::CRotationDecorator>
??__F?ms_kPool@?$CPooledObject@VCRotationDecorator@NEffectUpdateDecorator@@@@1V?$CDynamicPoolEx@VCRotationDecorator@NEffectUpdateDecorator@@@@A@@YAXXZ ENDP ; `dynamic atexit destructor for 'CPooledObject<NEffectUpdateDecorator::CRotationDecorator>::ms_kPool''
text$yd	ENDS
; Function compile flags: /Ogtp
; File D:\Metin2 Server Files\mainline\SRC_2014\Metin2Client\eterLib\Pool.h
;	COMDAT ??__E?ms_kPool@?$CPooledObject@VCRotationDecorator@NEffectUpdateDecorator@@@@1V?$CDynamicPoolEx@VCRotationDecorator@NEffectUpdateDecorator@@@@A@@YAXXZ
text$di	SEGMENT
??__E?ms_kPool@?$CPooledObject@VCRotationDecorator@NEffectUpdateDecorator@@@@1V?$CDynamicPoolEx@VCRotationDecorator@NEffectUpdateDecorator@@@@A@@YAXXZ PROC ; `dynamic initializer for 'CPooledObject<NEffectUpdateDecorator::CRotationDecorator>::ms_kPool'', COMDAT

; 272  : template <class T> CDynamicPoolEx<T> CPooledObject<T>::ms_kPool;

  00000	68 00 00 00 00	 push	 OFFSET ??__F?ms_kPool@?$CPooledObject@VCRotationDecorator@NEffectUpdateDecorator@@@@1V?$CDynamicPoolEx@VCRotationDecorator@NEffectUpdateDecorator@@@@A@@YAXXZ ; `dynamic atexit destructor for 'CPooledObject<NEffectUpdateDecorator::CRotationDecorator>::ms_kPool''
  00005	e8 00 00 00 00	 call	 _atexit
  0000a	59		 pop	 ecx
  0000b	c3		 ret	 0
??__E?ms_kPool@?$CPooledObject@VCRotationDecorator@NEffectUpdateDecorator@@@@1V?$CDynamicPoolEx@VCRotationDecorator@NEffectUpdateDecorator@@@@A@@YAXXZ ENDP ; `dynamic initializer for 'CPooledObject<NEffectUpdateDecorator::CRotationDecorator>::ms_kPool''
text$di	ENDS
; Function compile flags: /Ogtp
;	COMDAT ??__F?ms_kPool@?$CPooledObject@VCGravityDecorator@NEffectUpdateDecorator@@@@1V?$CDynamicPoolEx@VCGravityDecorator@NEffectUpdateDecorator@@@@A@@YAXXZ
text$yd	SEGMENT
??__F?ms_kPool@?$CPooledObject@VCGravityDecorator@NEffectUpdateDecorator@@@@1V?$CDynamicPoolEx@VCGravityDecorator@NEffectUpdateDecorator@@@@A@@YAXXZ PROC ; `dynamic atexit destructor for 'CPooledObject<NEffectUpdateDecorator::CGravityDecorator>::ms_kPool'', COMDAT
  00000	b9 00 00 00 00	 mov	 ecx, OFFSET ?ms_kPool@?$CPooledObject@VCGravityDecorator@NEffectUpdateDecorator@@@@1V?$CDynamicPoolEx@VCGravityDecorator@NEffectUpdateDecorator@@@@A ; CPooledObject<NEffectUpdateDecorator::CGravityDecorator>::ms_kPool
  00005	e9 00 00 00 00	 jmp	 ??1?$CDynamicPoolEx@VCGravityDecorator@NEffectUpdateDecorator@@@@UAE@XZ ; CDynamicPoolEx<NEffectUpdateDecorator::CGravityDecorator>::~CDynamicPoolEx<NEffectUpdateDecorator::CGravityDecorator>
??__F?ms_kPool@?$CPooledObject@VCGravityDecorator@NEffectUpdateDecorator@@@@1V?$CDynamicPoolEx@VCGravityDecorator@NEffectUpdateDecorator@@@@A@@YAXXZ ENDP ; `dynamic atexit destructor for 'CPooledObject<NEffectUpdateDecorator::CGravityDecorator>::ms_kPool''
text$yd	ENDS
; Function compile flags: /Ogtp
; File D:\Metin2 Server Files\mainline\SRC_2014\Metin2Client\eterLib\Pool.h
;	COMDAT ??__E?ms_kPool@?$CPooledObject@VCGravityDecorator@NEffectUpdateDecorator@@@@1V?$CDynamicPoolEx@VCGravityDecorator@NEffectUpdateDecorator@@@@A@@YAXXZ
text$di	SEGMENT
??__E?ms_kPool@?$CPooledObject@VCGravityDecorator@NEffectUpdateDecorator@@@@1V?$CDynamicPoolEx@VCGravityDecorator@NEffectUpdateDecorator@@@@A@@YAXXZ PROC ; `dynamic initializer for 'CPooledObject<NEffectUpdateDecorator::CGravityDecorator>::ms_kPool'', COMDAT

; 272  : template <class T> CDynamicPoolEx<T> CPooledObject<T>::ms_kPool;

  00000	68 00 00 00 00	 push	 OFFSET ??__F?ms_kPool@?$CPooledObject@VCGravityDecorator@NEffectUpdateDecorator@@@@1V?$CDynamicPoolEx@VCGravityDecorator@NEffectUpdateDecorator@@@@A@@YAXXZ ; `dynamic atexit destructor for 'CPooledObject<NEffectUpdateDecorator::CGravityDecorator>::ms_kPool''
  00005	e8 00 00 00 00	 call	 _atexit
  0000a	59		 pop	 ecx
  0000b	c3		 ret	 0
??__E?ms_kPool@?$CPooledObject@VCGravityDecorator@NEffectUpdateDecorator@@@@1V?$CDynamicPoolEx@VCGravityDecorator@NEffectUpdateDecorator@@@@A@@YAXXZ ENDP ; `dynamic initializer for 'CPooledObject<NEffectUpdateDecorator::CGravityDecorator>::ms_kPool''
text$di	ENDS
; Function compile flags: /Ogtp
;	COMDAT ??__F?ms_kPool@?$CPooledObject@VCAirResistanceDecorator@NEffectUpdateDecorator@@@@1V?$CDynamicPoolEx@VCAirResistanceDecorator@NEffectUpdateDecorator@@@@A@@YAXXZ
text$yd	SEGMENT
??__F?ms_kPool@?$CPooledObject@VCAirResistanceDecorator@NEffectUpdateDecorator@@@@1V?$CDynamicPoolEx@VCAirResistanceDecorator@NEffectUpdateDecorator@@@@A@@YAXXZ PROC ; `dynamic atexit destructor for 'CPooledObject<NEffectUpdateDecorator::CAirResistanceDecorator>::ms_kPool'', COMDAT
  00000	b9 00 00 00 00	 mov	 ecx, OFFSET ?ms_kPool@?$CPooledObject@VCAirResistanceDecorator@NEffectUpdateDecorator@@@@1V?$CDynamicPoolEx@VCAirResistanceDecorator@NEffectUpdateDecorator@@@@A ; CPooledObject<NEffectUpdateDecorator::CAirResistanceDecorator>::ms_kPool
  00005	e9 00 00 00 00	 jmp	 ??1?$CDynamicPoolEx@VCAirResistanceDecorator@NEffectUpdateDecorator@@@@UAE@XZ ; CDynamicPoolEx<NEffectUpdateDecorator::CAirResistanceDecorator>::~CDynamicPoolEx<NEffectUpdateDecorator::CAirResistanceDecorator>
??__F?ms_kPool@?$CPooledObject@VCAirResistanceDecorator@NEffectUpdateDecorator@@@@1V?$CDynamicPoolEx@VCAirResistanceDecorator@NEffectUpdateDecorator@@@@A@@YAXXZ ENDP ; `dynamic atexit destructor for 'CPooledObject<NEffectUpdateDecorator::CAirResistanceDecorator>::ms_kPool''
text$yd	ENDS
; Function compile flags: /Ogtp
; File D:\Metin2 Server Files\mainline\SRC_2014\Metin2Client\eterLib\Pool.h
;	COMDAT ??__E?ms_kPool@?$CPooledObject@VCAirResistanceDecorator@NEffectUpdateDecorator@@@@1V?$CDynamicPoolEx@VCAirResistanceDecorator@NEffectUpdateDecorator@@@@A@@YAXXZ
text$di	SEGMENT
??__E?ms_kPool@?$CPooledObject@VCAirResistanceDecorator@NEffectUpdateDecorator@@@@1V?$CDynamicPoolEx@VCAirResistanceDecorator@NEffectUpdateDecorator@@@@A@@YAXXZ PROC ; `dynamic initializer for 'CPooledObject<NEffectUpdateDecorator::CAirResistanceDecorator>::ms_kPool'', COMDAT

; 272  : template <class T> CDynamicPoolEx<T> CPooledObject<T>::ms_kPool;

  00000	68 00 00 00 00	 push	 OFFSET ??__F?ms_kPool@?$CPooledObject@VCAirResistanceDecorator@NEffectUpdateDecorator@@@@1V?$CDynamicPoolEx@VCAirResistanceDecorator@NEffectUpdateDecorator@@@@A@@YAXXZ ; `dynamic atexit destructor for 'CPooledObject<NEffectUpdateDecorator::CAirResistanceDecorator>::ms_kPool''
  00005	e8 00 00 00 00	 call	 _atexit
  0000a	59		 pop	 ecx
  0000b	c3		 ret	 0
??__E?ms_kPool@?$CPooledObject@VCAirResistanceDecorator@NEffectUpdateDecorator@@@@1V?$CDynamicPoolEx@VCAirResistanceDecorator@NEffectUpdateDecorator@@@@A@@YAXXZ ENDP ; `dynamic initializer for 'CPooledObject<NEffectUpdateDecorator::CAirResistanceDecorator>::ms_kPool''
text$di	ENDS
; Function compile flags: /Ogtp
;	COMDAT ??__F?ms_kPool@?$CPooledObject@VCTextureAnimationRandomDecorator@NEffectUpdateDecorator@@@@1V?$CDynamicPoolEx@VCTextureAnimationRandomDecorator@NEffectUpdateDecorator@@@@A@@YAXXZ
text$yd	SEGMENT
??__F?ms_kPool@?$CPooledObject@VCTextureAnimationRandomDecorator@NEffectUpdateDecorator@@@@1V?$CDynamicPoolEx@VCTextureAnimationRandomDecorator@NEffectUpdateDecorator@@@@A@@YAXXZ PROC ; `dynamic atexit destructor for 'CPooledObject<NEffectUpdateDecorator::CTextureAnimationRandomDecorator>::ms_kPool'', COMDAT
  00000	b9 00 00 00 00	 mov	 ecx, OFFSET ?ms_kPool@?$CPooledObject@VCTextureAnimationRandomDecorator@NEffectUpdateDecorator@@@@1V?$CDynamicPoolEx@VCTextureAnimationRandomDecorator@NEffectUpdateDecorator@@@@A ; CPooledObject<NEffectUpdateDecorator::CTextureAnimationRandomDecorator>::ms_kPool
  00005	e9 00 00 00 00	 jmp	 ??1?$CDynamicPoolEx@VCTextureAnimationRandomDecorator@NEffectUpdateDecorator@@@@UAE@XZ ; CDynamicPoolEx<NEffectUpdateDecorator::CTextureAnimationRandomDecorator>::~CDynamicPoolEx<NEffectUpdateDecorator::CTextureAnimationRandomDecorator>
??__F?ms_kPool@?$CPooledObject@VCTextureAnimationRandomDecorator@NEffectUpdateDecorator@@@@1V?$CDynamicPoolEx@VCTextureAnimationRandomDecorator@NEffectUpdateDecorator@@@@A@@YAXXZ ENDP ; `dynamic atexit destructor for 'CPooledObject<NEffectUpdateDecorator::CTextureAnimationRandomDecorator>::ms_kPool''
text$yd	ENDS
; Function compile flags: /Ogtp
; File D:\Metin2 Server Files\mainline\SRC_2014\Metin2Client\eterLib\Pool.h
;	COMDAT ??__E?ms_kPool@?$CPooledObject@VCTextureAnimationRandomDecorator@NEffectUpdateDecorator@@@@1V?$CDynamicPoolEx@VCTextureAnimationRandomDecorator@NEffectUpdateDecorator@@@@A@@YAXXZ
text$di	SEGMENT
??__E?ms_kPool@?$CPooledObject@VCTextureAnimationRandomDecorator@NEffectUpdateDecorator@@@@1V?$CDynamicPoolEx@VCTextureAnimationRandomDecorator@NEffectUpdateDecorator@@@@A@@YAXXZ PROC ; `dynamic initializer for 'CPooledObject<NEffectUpdateDecorator::CTextureAnimationRandomDecorator>::ms_kPool'', COMDAT

; 272  : template <class T> CDynamicPoolEx<T> CPooledObject<T>::ms_kPool;

  00000	68 00 00 00 00	 push	 OFFSET ??__F?ms_kPool@?$CPooledObject@VCTextureAnimationRandomDecorator@NEffectUpdateDecorator@@@@1V?$CDynamicPoolEx@VCTextureAnimationRandomDecorator@NEffectUpdateDecorator@@@@A@@YAXXZ ; `dynamic atexit destructor for 'CPooledObject<NEffectUpdateDecorator::CTextureAnimationRandomDecorator>::ms_kPool''
  00005	e8 00 00 00 00	 call	 _atexit
  0000a	59		 pop	 ecx
  0000b	c3		 ret	 0
??__E?ms_kPool@?$CPooledObject@VCTextureAnimationRandomDecorator@NEffectUpdateDecorator@@@@1V?$CDynamicPoolEx@VCTextureAnimationRandomDecorator@NEffectUpdateDecorator@@@@A@@YAXXZ ENDP ; `dynamic initializer for 'CPooledObject<NEffectUpdateDecorator::CTextureAnimationRandomDecorator>::ms_kPool''
text$di	ENDS
; Function compile flags: /Ogtp
;	COMDAT ??__F?ms_kPool@?$CPooledObject@VCTextureAnimationCCWDecorator@NEffectUpdateDecorator@@@@1V?$CDynamicPoolEx@VCTextureAnimationCCWDecorator@NEffectUpdateDecorator@@@@A@@YAXXZ
text$yd	SEGMENT
??__F?ms_kPool@?$CPooledObject@VCTextureAnimationCCWDecorator@NEffectUpdateDecorator@@@@1V?$CDynamicPoolEx@VCTextureAnimationCCWDecorator@NEffectUpdateDecorator@@@@A@@YAXXZ PROC ; `dynamic atexit destructor for 'CPooledObject<NEffectUpdateDecorator::CTextureAnimationCCWDecorator>::ms_kPool'', COMDAT
  00000	b9 00 00 00 00	 mov	 ecx, OFFSET ?ms_kPool@?$CPooledObject@VCTextureAnimationCCWDecorator@NEffectUpdateDecorator@@@@1V?$CDynamicPoolEx@VCTextureAnimationCCWDecorator@NEffectUpdateDecorator@@@@A ; CPooledObject<NEffectUpdateDecorator::CTextureAnimationCCWDecorator>::ms_kPool
  00005	e9 00 00 00 00	 jmp	 ??1?$CDynamicPoolEx@VCTextureAnimationCCWDecorator@NEffectUpdateDecorator@@@@UAE@XZ ; CDynamicPoolEx<NEffectUpdateDecorator::CTextureAnimationCCWDecorator>::~CDynamicPoolEx<NEffectUpdateDecorator::CTextureAnimationCCWDecorator>
??__F?ms_kPool@?$CPooledObject@VCTextureAnimationCCWDecorator@NEffectUpdateDecorator@@@@1V?$CDynamicPoolEx@VCTextureAnimationCCWDecorator@NEffectUpdateDecorator@@@@A@@YAXXZ ENDP ; `dynamic atexit destructor for 'CPooledObject<NEffectUpdateDecorator::CTextureAnimationCCWDecorator>::ms_kPool''
text$yd	ENDS
; Function compile flags: /Ogtp
; File D:\Metin2 Server Files\mainline\SRC_2014\Metin2Client\eterLib\Pool.h
;	COMDAT ??__E?ms_kPool@?$CPooledObject@VCTextureAnimationCCWDecorator@NEffectUpdateDecorator@@@@1V?$CDynamicPoolEx@VCTextureAnimationCCWDecorator@NEffectUpdateDecorator@@@@A@@YAXXZ
text$di	SEGMENT
??__E?ms_kPool@?$CPooledObject@VCTextureAnimationCCWDecorator@NEffectUpdateDecorator@@@@1V?$CDynamicPoolEx@VCTextureAnimationCCWDecorator@NEffectUpdateDecorator@@@@A@@YAXXZ PROC ; `dynamic initializer for 'CPooledObject<NEffectUpdateDecorator::CTextureAnimationCCWDecorator>::ms_kPool'', COMDAT

; 272  : template <class T> CDynamicPoolEx<T> CPooledObject<T>::ms_kPool;

  00000	68 00 00 00 00	 push	 OFFSET ??__F?ms_kPool@?$CPooledObject@VCTextureAnimationCCWDecorator@NEffectUpdateDecorator@@@@1V?$CDynamicPoolEx@VCTextureAnimationCCWDecorator@NEffectUpdateDecorator@@@@A@@YAXXZ ; `dynamic atexit destructor for 'CPooledObject<NEffectUpdateDecorator::CTextureAnimationCCWDecorator>::ms_kPool''
  00005	e8 00 00 00 00	 call	 _atexit
  0000a	59		 pop	 ecx
  0000b	c3		 ret	 0
??__E?ms_kPool@?$CPooledObject@VCTextureAnimationCCWDecorator@NEffectUpdateDecorator@@@@1V?$CDynamicPoolEx@VCTextureAnimationCCWDecorator@NEffectUpdateDecorator@@@@A@@YAXXZ ENDP ; `dynamic initializer for 'CPooledObject<NEffectUpdateDecorator::CTextureAnimationCCWDecorator>::ms_kPool''
text$di	ENDS
; Function compile flags: /Ogtp
;	COMDAT ??__F?ms_kPool@?$CPooledObject@VCTextureAnimationCWDecorator@NEffectUpdateDecorator@@@@1V?$CDynamicPoolEx@VCTextureAnimationCWDecorator@NEffectUpdateDecorator@@@@A@@YAXXZ
text$yd	SEGMENT
??__F?ms_kPool@?$CPooledObject@VCTextureAnimationCWDecorator@NEffectUpdateDecorator@@@@1V?$CDynamicPoolEx@VCTextureAnimationCWDecorator@NEffectUpdateDecorator@@@@A@@YAXXZ PROC ; `dynamic atexit destructor for 'CPooledObject<NEffectUpdateDecorator::CTextureAnimationCWDecorator>::ms_kPool'', COMDAT
  00000	b9 00 00 00 00	 mov	 ecx, OFFSET ?ms_kPool@?$CPooledObject@VCTextureAnimationCWDecorator@NEffectUpdateDecorator@@@@1V?$CDynamicPoolEx@VCTextureAnimationCWDecorator@NEffectUpdateDecorator@@@@A ; CPooledObject<NEffectUpdateDecorator::CTextureAnimationCWDecorator>::ms_kPool
  00005	e9 00 00 00 00	 jmp	 ??1?$CDynamicPoolEx@VCTextureAnimationCWDecorator@NEffectUpdateDecorator@@@@UAE@XZ ; CDynamicPoolEx<NEffectUpdateDecorator::CTextureAnimationCWDecorator>::~CDynamicPoolEx<NEffectUpdateDecorator::CTextureAnimationCWDecorator>
??__F?ms_kPool@?$CPooledObject@VCTextureAnimationCWDecorator@NEffectUpdateDecorator@@@@1V?$CDynamicPoolEx@VCTextureAnimationCWDecorator@NEffectUpdateDecorator@@@@A@@YAXXZ ENDP ; `dynamic atexit destructor for 'CPooledObject<NEffectUpdateDecorator::CTextureAnimationCWDecorator>::ms_kPool''
text$yd	ENDS
; Function compile flags: /Ogtp
; File D:\Metin2 Server Files\mainline\SRC_2014\Metin2Client\eterLib\Pool.h
;	COMDAT ??__E?ms_kPool@?$CPooledObject@VCTextureAnimationCWDecorator@NEffectUpdateDecorator@@@@1V?$CDynamicPoolEx@VCTextureAnimationCWDecorator@NEffectUpdateDecorator@@@@A@@YAXXZ
text$di	SEGMENT
??__E?ms_kPool@?$CPooledObject@VCTextureAnimationCWDecorator@NEffectUpdateDecorator@@@@1V?$CDynamicPoolEx@VCTextureAnimationCWDecorator@NEffectUpdateDecorator@@@@A@@YAXXZ PROC ; `dynamic initializer for 'CPooledObject<NEffectUpdateDecorator::CTextureAnimationCWDecorator>::ms_kPool'', COMDAT

; 272  : template <class T> CDynamicPoolEx<T> CPooledObject<T>::ms_kPool;

  00000	68 00 00 00 00	 push	 OFFSET ??__F?ms_kPool@?$CPooledObject@VCTextureAnimationCWDecorator@NEffectUpdateDecorator@@@@1V?$CDynamicPoolEx@VCTextureAnimationCWDecorator@NEffectUpdateDecorator@@@@A@@YAXXZ ; `dynamic atexit destructor for 'CPooledObject<NEffectUpdateDecorator::CTextureAnimationCWDecorator>::ms_kPool''
  00005	e8 00 00 00 00	 call	 _atexit
  0000a	59		 pop	 ecx
  0000b	c3		 ret	 0
??__E?ms_kPool@?$CPooledObject@VCTextureAnimationCWDecorator@NEffectUpdateDecorator@@@@1V?$CDynamicPoolEx@VCTextureAnimationCWDecorator@NEffectUpdateDecorator@@@@A@@YAXXZ ENDP ; `dynamic initializer for 'CPooledObject<NEffectUpdateDecorator::CTextureAnimationCWDecorator>::ms_kPool''
text$di	ENDS
; Function compile flags: /Ogtp
;	COMDAT ??__F?ms_kPool@?$CPooledObject@VCNullDecorator@NEffectUpdateDecorator@@@@1V?$CDynamicPoolEx@VCNullDecorator@NEffectUpdateDecorator@@@@A@@YAXXZ
text$yd	SEGMENT
??__F?ms_kPool@?$CPooledObject@VCNullDecorator@NEffectUpdateDecorator@@@@1V?$CDynamicPoolEx@VCNullDecorator@NEffectUpdateDecorator@@@@A@@YAXXZ PROC ; `dynamic atexit destructor for 'CPooledObject<NEffectUpdateDecorator::CNullDecorator>::ms_kPool'', COMDAT
  00000	b9 00 00 00 00	 mov	 ecx, OFFSET ?ms_kPool@?$CPooledObject@VCNullDecorator@NEffectUpdateDecorator@@@@1V?$CDynamicPoolEx@VCNullDecorator@NEffectUpdateDecorator@@@@A ; CPooledObject<NEffectUpdateDecorator::CNullDecorator>::ms_kPool
  00005	e9 00 00 00 00	 jmp	 ??1?$CDynamicPoolEx@VCNullDecorator@NEffectUpdateDecorator@@@@UAE@XZ ; CDynamicPoolEx<NEffectUpdateDecorator::CNullDecorator>::~CDynamicPoolEx<NEffectUpdateDecorator::CNullDecorator>
??__F?ms_kPool@?$CPooledObject@VCNullDecorator@NEffectUpdateDecorator@@@@1V?$CDynamicPoolEx@VCNullDecorator@NEffectUpdateDecorator@@@@A@@YAXXZ ENDP ; `dynamic atexit destructor for 'CPooledObject<NEffectUpdateDecorator::CNullDecorator>::ms_kPool''
text$yd	ENDS
; Function compile flags: /Ogtp
; File D:\Metin2 Server Files\mainline\SRC_2014\Metin2Client\eterLib\Pool.h
;	COMDAT ??__E?ms_kPool@?$CPooledObject@VCNullDecorator@NEffectUpdateDecorator@@@@1V?$CDynamicPoolEx@VCNullDecorator@NEffectUpdateDecorator@@@@A@@YAXXZ
text$di	SEGMENT
??__E?ms_kPool@?$CPooledObject@VCNullDecorator@NEffectUpdateDecorator@@@@1V?$CDynamicPoolEx@VCNullDecorator@NEffectUpdateDecorator@@@@A@@YAXXZ PROC ; `dynamic initializer for 'CPooledObject<NEffectUpdateDecorator::CNullDecorator>::ms_kPool'', COMDAT

; 272  : template <class T> CDynamicPoolEx<T> CPooledObject<T>::ms_kPool;

  00000	68 00 00 00 00	 push	 OFFSET ??__F?ms_kPool@?$CPooledObject@VCNullDecorator@NEffectUpdateDecorator@@@@1V?$CDynamicPoolEx@VCNullDecorator@NEffectUpdateDecorator@@@@A@@YAXXZ ; `dynamic atexit destructor for 'CPooledObject<NEffectUpdateDecorator::CNullDecorator>::ms_kPool''
  00005	e8 00 00 00 00	 call	 _atexit
  0000a	59		 pop	 ecx
  0000b	c3		 ret	 0
??__E?ms_kPool@?$CPooledObject@VCNullDecorator@NEffectUpdateDecorator@@@@1V?$CDynamicPoolEx@VCNullDecorator@NEffectUpdateDecorator@@@@A@@YAXXZ ENDP ; `dynamic initializer for 'CPooledObject<NEffectUpdateDecorator::CNullDecorator>::ms_kPool''
text$di	ENDS
; Function compile flags: /Ogtp
;	COMDAT ??__F?ms_kPool@?$CPooledObject@VCHeaderDecorator@NEffectUpdateDecorator@@@@1V?$CDynamicPoolEx@VCHeaderDecorator@NEffectUpdateDecorator@@@@A@@YAXXZ
text$yd	SEGMENT
??__F?ms_kPool@?$CPooledObject@VCHeaderDecorator@NEffectUpdateDecorator@@@@1V?$CDynamicPoolEx@VCHeaderDecorator@NEffectUpdateDecorator@@@@A@@YAXXZ PROC ; `dynamic atexit destructor for 'CPooledObject<NEffectUpdateDecorator::CHeaderDecorator>::ms_kPool'', COMDAT
  00000	b9 00 00 00 00	 mov	 ecx, OFFSET ?ms_kPool@?$CPooledObject@VCHeaderDecorator@NEffectUpdateDecorator@@@@1V?$CDynamicPoolEx@VCHeaderDecorator@NEffectUpdateDecorator@@@@A ; CPooledObject<NEffectUpdateDecorator::CHeaderDecorator>::ms_kPool
  00005	e9 00 00 00 00	 jmp	 ??1?$CDynamicPoolEx@VCHeaderDecorator@NEffectUpdateDecorator@@@@UAE@XZ ; CDynamicPoolEx<NEffectUpdateDecorator::CHeaderDecorator>::~CDynamicPoolEx<NEffectUpdateDecorator::CHeaderDecorator>
??__F?ms_kPool@?$CPooledObject@VCHeaderDecorator@NEffectUpdateDecorator@@@@1V?$CDynamicPoolEx@VCHeaderDecorator@NEffectUpdateDecorator@@@@A@@YAXXZ ENDP ; `dynamic atexit destructor for 'CPooledObject<NEffectUpdateDecorator::CHeaderDecorator>::ms_kPool''
text$yd	ENDS
; Function compile flags: /Ogtp
; File D:\Metin2 Server Files\mainline\SRC_2014\Metin2Client\eterLib\Pool.h
;	COMDAT ??__E?ms_kPool@?$CPooledObject@VCHeaderDecorator@NEffectUpdateDecorator@@@@1V?$CDynamicPoolEx@VCHeaderDecorator@NEffectUpdateDecorator@@@@A@@YAXXZ
text$di	SEGMENT
??__E?ms_kPool@?$CPooledObject@VCHeaderDecorator@NEffectUpdateDecorator@@@@1V?$CDynamicPoolEx@VCHeaderDecorator@NEffectUpdateDecorator@@@@A@@YAXXZ PROC ; `dynamic initializer for 'CPooledObject<NEffectUpdateDecorator::CHeaderDecorator>::ms_kPool'', COMDAT

; 272  : template <class T> CDynamicPoolEx<T> CPooledObject<T>::ms_kPool;

  00000	68 00 00 00 00	 push	 OFFSET ??__F?ms_kPool@?$CPooledObject@VCHeaderDecorator@NEffectUpdateDecorator@@@@1V?$CDynamicPoolEx@VCHeaderDecorator@NEffectUpdateDecorator@@@@A@@YAXXZ ; `dynamic atexit destructor for 'CPooledObject<NEffectUpdateDecorator::CHeaderDecorator>::ms_kPool''
  00005	e8 00 00 00 00	 call	 _atexit
  0000a	59		 pop	 ecx
  0000b	c3		 ret	 0
??__E?ms_kPool@?$CPooledObject@VCHeaderDecorator@NEffectUpdateDecorator@@@@1V?$CDynamicPoolEx@VCHeaderDecorator@NEffectUpdateDecorator@@@@A@@YAXXZ ENDP ; `dynamic initializer for 'CPooledObject<NEffectUpdateDecorator::CHeaderDecorator>::ms_kPool''
text$di	ENDS
; Function compile flags: /Ogtp
; File C:\Program Files (x86)\Microsoft Visual Studio\2019\Community\VC\Tools\MSVC\14.28.29333\include\xmemory
;	COMDAT ??$_Destroy_range@V?$allocator@PAVCRotationDecorator@NEffectUpdateDecorator@@@std@@@std@@YAXPAPAVCRotationDecorator@NEffectUpdateDecorator@@QAPAV12@AAV?$allocator@PAVCRotationDecorator@NEffectUpdateDecorator@@@0@@Z
_TEXT	SEGMENT
__First$ = 8						; size = 4
__Last$ = 12						; size = 4
__Al$ = 16						; size = 4
??$_Destroy_range@V?$allocator@PAVCRotationDecorator@NEffectUpdateDecorator@@@std@@@std@@YAXPAPAVCRotationDecorator@NEffectUpdateDecorator@@QAPAV12@AAV?$allocator@PAVCRotationDecorator@NEffectUpdateDecorator@@@0@@Z PROC ; std::_Destroy_range<std::allocator<NEffectUpdateDecorator::CRotationDecorator *> >, COMDAT

; 963  :     // note that this is an optimization for debug mode codegen; in release mode the BE removes all of this
; 964  :     using _Ty = typename _Alloc::value_type;
; 965  :     if _CONSTEXPR_IF (!conjunction_v<is_trivially_destructible<_Ty>, _Uses_default_destroy<_Alloc, _Ty*>>) {
; 966  :         for (; _First != _Last; ++_First) {
; 967  :             allocator_traits<_Alloc>::destroy(_Al, _Unfancy(_First));
; 968  :         }
; 969  :     }
; 970  : }

  00000	c2 00 00	 ret	 0
??$_Destroy_range@V?$allocator@PAVCRotationDecorator@NEffectUpdateDecorator@@@std@@@std@@YAXPAPAVCRotationDecorator@NEffectUpdateDecorator@@QAPAV12@AAV?$allocator@PAVCRotationDecorator@NEffectUpdateDecorator@@@0@@Z ENDP ; std::_Destroy_range<std::allocator<NEffectUpdateDecorator::CRotationDecorator *> >
_TEXT	ENDS
; Function compile flags: /Ogtp
; File C:\Program Files (x86)\Microsoft Visual Studio\2019\Community\VC\Tools\MSVC\14.28.29333\include\xmemory
;	COMDAT ??$_Destroy_range@V?$allocator@PAVCGravityDecorator@NEffectUpdateDecorator@@@std@@@std@@YAXPAPAVCGravityDecorator@NEffectUpdateDecorator@@QAPAV12@AAV?$allocator@PAVCGravityDecorator@NEffectUpdateDecorator@@@0@@Z
_TEXT	SEGMENT
__First$ = 8						; size = 4
__Last$ = 12						; size = 4
__Al$ = 16						; size = 4
??$_Destroy_range@V?$allocator@PAVCGravityDecorator@NEffectUpdateDecorator@@@std@@@std@@YAXPAPAVCGravityDecorator@NEffectUpdateDecorator@@QAPAV12@AAV?$allocator@PAVCGravityDecorator@NEffectUpdateDecorator@@@0@@Z PROC ; std::_Destroy_range<std::allocator<NEffectUpdateDecorator::CGravityDecorator *> >, COMDAT

; 963  :     // note that this is an optimization for debug mode codegen; in release mode the BE removes all of this
; 964  :     using _Ty = typename _Alloc::value_type;
; 965  :     if _CONSTEXPR_IF (!conjunction_v<is_trivially_destructible<_Ty>, _Uses_default_destroy<_Alloc, _Ty*>>) {
; 966  :         for (; _First != _Last; ++_First) {
; 967  :             allocator_traits<_Alloc>::destroy(_Al, _Unfancy(_First));
; 968  :         }
; 969  :     }
; 970  : }

  00000	c2 00 00	 ret	 0
??$_Destroy_range@V?$allocator@PAVCGravityDecorator@NEffectUpdateDecorator@@@std@@@std@@YAXPAPAVCGravityDecorator@NEffectUpdateDecorator@@QAPAV12@AAV?$allocator@PAVCGravityDecorator@NEffectUpdateDecorator@@@0@@Z ENDP ; std::_Destroy_range<std::allocator<NEffectUpdateDecorator::CGravityDecorator *> >
_TEXT	ENDS
; Function compile flags: /Ogtp
; File C:\Program Files (x86)\Microsoft Visual Studio\2019\Community\VC\Tools\MSVC\14.28.29333\include\xmemory
;	COMDAT ??$_Destroy_range@V?$allocator@PAVCAirResistanceDecorator@NEffectUpdateDecorator@@@std@@@std@@YAXPAPAVCAirResistanceDecorator@NEffectUpdateDecorator@@QAPAV12@AAV?$allocator@PAVCAirResistanceDecorator@NEffectUpdateDecorator@@@0@@Z
_TEXT	SEGMENT
__First$ = 8						; size = 4
__Last$ = 12						; size = 4
__Al$ = 16						; size = 4
??$_Destroy_range@V?$allocator@PAVCAirResistanceDecorator@NEffectUpdateDecorator@@@std@@@std@@YAXPAPAVCAirResistanceDecorator@NEffectUpdateDecorator@@QAPAV12@AAV?$allocator@PAVCAirResistanceDecorator@NEffectUpdateDecorator@@@0@@Z PROC ; std::_Destroy_range<std::allocator<NEffectUpdateDecorator::CAirResistanceDecorator *> >, COMDAT

; 963  :     // note that this is an optimization for debug mode codegen; in release mode the BE removes all of this
; 964  :     using _Ty = typename _Alloc::value_type;
; 965  :     if _CONSTEXPR_IF (!conjunction_v<is_trivially_destructible<_Ty>, _Uses_default_destroy<_Alloc, _Ty*>>) {
; 966  :         for (; _First != _Last; ++_First) {
; 967  :             allocator_traits<_Alloc>::destroy(_Al, _Unfancy(_First));
; 968  :         }
; 969  :     }
; 970  : }

  00000	c2 00 00	 ret	 0
??$_Destroy_range@V?$allocator@PAVCAirResistanceDecorator@NEffectUpdateDecorator@@@std@@@std@@YAXPAPAVCAirResistanceDecorator@NEffectUpdateDecorator@@QAPAV12@AAV?$allocator@PAVCAirResistanceDecorator@NEffectUpdateDecorator@@@0@@Z ENDP ; std::_Destroy_range<std::allocator<NEffectUpdateDecorator::CAirResistanceDecorator *> >
_TEXT	ENDS
; Function compile flags: /Ogtp
; File C:\Program Files (x86)\Microsoft Visual Studio\2019\Community\VC\Tools\MSVC\14.28.29333\include\xmemory
;	COMDAT ??$_Destroy_range@V?$allocator@PAVCTextureAnimationRandomDecorator@NEffectUpdateDecorator@@@std@@@std@@YAXPAPAVCTextureAnimationRandomDecorator@NEffectUpdateDecorator@@QAPAV12@AAV?$allocator@PAVCTextureAnimationRandomDecorator@NEffectUpdateDecorator@@@0@@Z
_TEXT	SEGMENT
__First$ = 8						; size = 4
__Last$ = 12						; size = 4
__Al$ = 16						; size = 4
??$_Destroy_range@V?$allocator@PAVCTextureAnimationRandomDecorator@NEffectUpdateDecorator@@@std@@@std@@YAXPAPAVCTextureAnimationRandomDecorator@NEffectUpdateDecorator@@QAPAV12@AAV?$allocator@PAVCTextureAnimationRandomDecorator@NEffectUpdateDecorator@@@0@@Z PROC ; std::_Destroy_range<std::allocator<NEffectUpdateDecorator::CTextureAnimationRandomDecorator *> >, COMDAT

; 963  :     // note that this is an optimization for debug mode codegen; in release mode the BE removes all of this
; 964  :     using _Ty = typename _Alloc::value_type;
; 965  :     if _CONSTEXPR_IF (!conjunction_v<is_trivially_destructible<_Ty>, _Uses_default_destroy<_Alloc, _Ty*>>) {
; 966  :         for (; _First != _Last; ++_First) {
; 967  :             allocator_traits<_Alloc>::destroy(_Al, _Unfancy(_First));
; 968  :         }
; 969  :     }
; 970  : }

  00000	c2 00 00	 ret	 0
??$_Destroy_range@V?$allocator@PAVCTextureAnimationRandomDecorator@NEffectUpdateDecorator@@@std@@@std@@YAXPAPAVCTextureAnimationRandomDecorator@NEffectUpdateDecorator@@QAPAV12@AAV?$allocator@PAVCTextureAnimationRandomDecorator@NEffectUpdateDecorator@@@0@@Z ENDP ; std::_Destroy_range<std::allocator<NEffectUpdateDecorator::CTextureAnimationRandomDecorator *> >
_TEXT	ENDS
; Function compile flags: /Ogtp
; File C:\Program Files (x86)\Microsoft Visual Studio\2019\Community\VC\Tools\MSVC\14.28.29333\include\xmemory
;	COMDAT ??$_Destroy_range@V?$allocator@PAVCTextureAnimationCCWDecorator@NEffectUpdateDecorator@@@std@@@std@@YAXPAPAVCTextureAnimationCCWDecorator@NEffectUpdateDecorator@@QAPAV12@AAV?$allocator@PAVCTextureAnimationCCWDecorator@NEffectUpdateDecorator@@@0@@Z
_TEXT	SEGMENT
__First$ = 8						; size = 4
__Last$ = 12						; size = 4
__Al$ = 16						; size = 4
??$_Destroy_range@V?$allocator@PAVCTextureAnimationCCWDecorator@NEffectUpdateDecorator@@@std@@@std@@YAXPAPAVCTextureAnimationCCWDecorator@NEffectUpdateDecorator@@QAPAV12@AAV?$allocator@PAVCTextureAnimationCCWDecorator@NEffectUpdateDecorator@@@0@@Z PROC ; std::_Destroy_range<std::allocator<NEffectUpdateDecorator::CTextureAnimationCCWDecorator *> >, COMDAT

; 963  :     // note that this is an optimization for debug mode codegen; in release mode the BE removes all of this
; 964  :     using _Ty = typename _Alloc::value_type;
; 965  :     if _CONSTEXPR_IF (!conjunction_v<is_trivially_destructible<_Ty>, _Uses_default_destroy<_Alloc, _Ty*>>) {
; 966  :         for (; _First != _Last; ++_First) {
; 967  :             allocator_traits<_Alloc>::destroy(_Al, _Unfancy(_First));
; 968  :         }
; 969  :     }
; 970  : }

  00000	c2 00 00	 ret	 0
??$_Destroy_range@V?$allocator@PAVCTextureAnimationCCWDecorator@NEffectUpdateDecorator@@@std@@@std@@YAXPAPAVCTextureAnimationCCWDecorator@NEffectUpdateDecorator@@QAPAV12@AAV?$allocator@PAVCTextureAnimationCCWDecorator@NEffectUpdateDecorator@@@0@@Z ENDP ; std::_Destroy_range<std::allocator<NEffectUpdateDecorator::CTextureAnimationCCWDecorator *> >
_TEXT	ENDS
; Function compile flags: /Ogtp
; File C:\Program Files (x86)\Microsoft Visual Studio\2019\Community\VC\Tools\MSVC\14.28.29333\include\xmemory
;	COMDAT ??$_Destroy_range@V?$allocator@PAVCTextureAnimationCWDecorator@NEffectUpdateDecorator@@@std@@@std@@YAXPAPAVCTextureAnimationCWDecorator@NEffectUpdateDecorator@@QAPAV12@AAV?$allocator@PAVCTextureAnimationCWDecorator@NEffectUpdateDecorator@@@0@@Z
_TEXT	SEGMENT
__First$ = 8						; size = 4
__Last$ = 12						; size = 4
__Al$ = 16						; size = 4
??$_Destroy_range@V?$allocator@PAVCTextureAnimationCWDecorator@NEffectUpdateDecorator@@@std@@@std@@YAXPAPAVCTextureAnimationCWDecorator@NEffectUpdateDecorator@@QAPAV12@AAV?$allocator@PAVCTextureAnimationCWDecorator@NEffectUpdateDecorator@@@0@@Z PROC ; std::_Destroy_range<std::allocator<NEffectUpdateDecorator::CTextureAnimationCWDecorator *> >, COMDAT

; 963  :     // note that this is an optimization for debug mode codegen; in release mode the BE removes all of this
; 964  :     using _Ty = typename _Alloc::value_type;
; 965  :     if _CONSTEXPR_IF (!conjunction_v<is_trivially_destructible<_Ty>, _Uses_default_destroy<_Alloc, _Ty*>>) {
; 966  :         for (; _First != _Last; ++_First) {
; 967  :             allocator_traits<_Alloc>::destroy(_Al, _Unfancy(_First));
; 968  :         }
; 969  :     }
; 970  : }

  00000	c2 00 00	 ret	 0
??$_Destroy_range@V?$allocator@PAVCTextureAnimationCWDecorator@NEffectUpdateDecorator@@@std@@@std@@YAXPAPAVCTextureAnimationCWDecorator@NEffectUpdateDecorator@@QAPAV12@AAV?$allocator@PAVCTextureAnimationCWDecorator@NEffectUpdateDecorator@@@0@@Z ENDP ; std::_Destroy_range<std::allocator<NEffectUpdateDecorator::CTextureAnimationCWDecorator *> >
_TEXT	ENDS
; Function compile flags: /Ogtp
; File C:\Program Files (x86)\Microsoft Visual Studio\2019\Community\VC\Tools\MSVC\14.28.29333\include\xmemory
;	COMDAT ??$_Destroy_range@V?$allocator@PAVCNullDecorator@NEffectUpdateDecorator@@@std@@@std@@YAXPAPAVCNullDecorator@NEffectUpdateDecorator@@QAPAV12@AAV?$allocator@PAVCNullDecorator@NEffectUpdateDecorator@@@0@@Z
_TEXT	SEGMENT
__First$ = 8						; size = 4
__Last$ = 12						; size = 4
__Al$ = 16						; size = 4
??$_Destroy_range@V?$allocator@PAVCNullDecorator@NEffectUpdateDecorator@@@std@@@std@@YAXPAPAVCNullDecorator@NEffectUpdateDecorator@@QAPAV12@AAV?$allocator@PAVCNullDecorator@NEffectUpdateDecorator@@@0@@Z PROC ; std::_Destroy_range<std::allocator<NEffectUpdateDecorator::CNullDecorator *> >, COMDAT

; 963  :     // note that this is an optimization for debug mode codegen; in release mode the BE removes all of this
; 964  :     using _Ty = typename _Alloc::value_type;
; 965  :     if _CONSTEXPR_IF (!conjunction_v<is_trivially_destructible<_Ty>, _Uses_default_destroy<_Alloc, _Ty*>>) {
; 966  :         for (; _First != _Last; ++_First) {
; 967  :             allocator_traits<_Alloc>::destroy(_Al, _Unfancy(_First));
; 968  :         }
; 969  :     }
; 970  : }

  00000	c2 00 00	 ret	 0
??$_Destroy_range@V?$allocator@PAVCNullDecorator@NEffectUpdateDecorator@@@std@@@std@@YAXPAPAVCNullDecorator@NEffectUpdateDecorator@@QAPAV12@AAV?$allocator@PAVCNullDecorator@NEffectUpdateDecorator@@@0@@Z ENDP ; std::_Destroy_range<std::allocator<NEffectUpdateDecorator::CNullDecorator *> >
_TEXT	ENDS
; Function compile flags: /Ogtp
; File C:\Program Files (x86)\Microsoft Visual Studio\2019\Community\VC\Tools\MSVC\14.28.29333\include\xmemory
;	COMDAT ??$_Destroy_range@V?$allocator@PAVCHeaderDecorator@NEffectUpdateDecorator@@@std@@@std@@YAXPAPAVCHeaderDecorator@NEffectUpdateDecorator@@QAPAV12@AAV?$allocator@PAVCHeaderDecorator@NEffectUpdateDecorator@@@0@@Z
_TEXT	SEGMENT
__First$ = 8						; size = 4
__Last$ = 12						; size = 4
__Al$ = 16						; size = 4
??$_Destroy_range@V?$allocator@PAVCHeaderDecorator@NEffectUpdateDecorator@@@std@@@std@@YAXPAPAVCHeaderDecorator@NEffectUpdateDecorator@@QAPAV12@AAV?$allocator@PAVCHeaderDecorator@NEffectUpdateDecorator@@@0@@Z PROC ; std::_Destroy_range<std::allocator<NEffectUpdateDecorator::CHeaderDecorator *> >, COMDAT

; 963  :     // note that this is an optimization for debug mode codegen; in release mode the BE removes all of this
; 964  :     using _Ty = typename _Alloc::value_type;
; 965  :     if _CONSTEXPR_IF (!conjunction_v<is_trivially_destructible<_Ty>, _Uses_default_destroy<_Alloc, _Ty*>>) {
; 966  :         for (; _First != _Last; ++_First) {
; 967  :             allocator_traits<_Alloc>::destroy(_Al, _Unfancy(_First));
; 968  :         }
; 969  :     }
; 970  : }

  00000	c2 00 00	 ret	 0
??$_Destroy_range@V?$allocator@PAVCHeaderDecorator@NEffectUpdateDecorator@@@std@@@std@@YAXPAPAVCHeaderDecorator@NEffectUpdateDecorator@@QAPAV12@AAV?$allocator@PAVCHeaderDecorator@NEffectUpdateDecorator@@@0@@Z ENDP ; std::_Destroy_range<std::allocator<NEffectUpdateDecorator::CHeaderDecorator *> >
_TEXT	ENDS
; Function compile flags: /Ogtp
; File C:\Program Files (x86)\Microsoft Visual Studio\2019\Community\VC\Tools\MSVC\14.28.29333\include\xmemory
; File C:\Program Files (x86)\Microsoft Visual Studio\2019\Community\VC\Tools\MSVC\14.28.29333\include\xstring
; File C:\Program Files (x86)\Microsoft Visual Studio\2019\Community\VC\Tools\MSVC\14.28.29333\include\xmemory
; File C:\Program Files (x86)\Microsoft Visual Studio\2019\Community\VC\Tools\MSVC\14.28.29333\include\xstring
; File C:\Program Files (x86)\Microsoft Visual Studio\2019\Community\VC\Tools\MSVC\14.28.29333\include\xmemory
;	COMDAT ??$_Destroy_range@V?$allocator@V?$basic_string@DU?$char_traits@D@std@@V?$allocator@D@2@@std@@@std@@@std@@YAXPAV?$basic_string@DU?$char_traits@D@std@@V?$allocator@D@2@@0@QAV10@AAV?$allocator@V?$basic_string@DU?$char_traits@D@std@@V?$allocator@D@2@@std@@@0@@Z
_TEXT	SEGMENT
__First$ = 8						; size = 4
__Last$ = 12						; size = 4
__Al$ = 16						; size = 4
??$_Destroy_range@V?$allocator@V?$basic_string@DU?$char_traits@D@std@@V?$allocator@D@2@@std@@@std@@@std@@YAXPAV?$basic_string@DU?$char_traits@D@std@@V?$allocator@D@2@@0@QAV10@AAV?$allocator@V?$basic_string@DU?$char_traits@D@std@@V?$allocator@D@2@@std@@@0@@Z PROC ; std::_Destroy_range<std::allocator<std::basic_string<char,std::char_traits<char>,std::allocator<char> > > >, COMDAT

; 962  :     _Alloc_ptr_t<_Alloc> _First, const _Alloc_ptr_t<_Alloc> _Last, _Alloc& _Al) noexcept {

  00000	55		 push	 ebp
  00001	8b ec		 mov	 ebp, esp
  00003	56		 push	 esi

; 966  :         for (; _First != _Last; ++_First) {

  00004	8b 75 08	 mov	 esi, DWORD PTR __First$[ebp]
  00007	57		 push	 edi
  00008	8b 7d 0c	 mov	 edi, DWORD PTR __Last$[ebp]
  0000b	3b f7		 cmp	 esi, edi
  0000d	74 2d		 je	 SHORT $LN3@Destroy_ra
  0000f	90		 npad	 1
$LL4@Destroy_ra:
; File C:\Program Files (x86)\Microsoft Visual Studio\2019\Community\VC\Tools\MSVC\14.28.29333\include\xstring

; 2227 :         return _BUF_SIZE <= _Myres;

  00010	8b 46 14	 mov	 eax, DWORD PTR [esi+20]
  00013	83 f8 10	 cmp	 eax, 16			; 00000010H

; 4385 :         if (_Mypair._Myval2._Large_string_engaged()) {

  00016	72 0c		 jb	 SHORT $LN15@Destroy_ra

; 4386 :             const pointer _Ptr = _Mypair._Myval2._Bx._Ptr;
; 4387 :             auto& _Al          = _Getal();
; 4388 :             _Destroy_in_place(_Mypair._Myval2._Bx._Ptr);
; 4389 :             _Al.deallocate(_Ptr, _Mypair._Myval2._Myres + 1);

  00018	40		 inc	 eax
; File C:\Program Files (x86)\Microsoft Visual Studio\2019\Community\VC\Tools\MSVC\14.28.29333\include\xmemory

; 810  :         _Deallocate<_New_alignof<_Ty>>(_Ptr, sizeof(_Ty) * _Count);

  00019	50		 push	 eax
  0001a	ff 36		 push	 DWORD PTR [esi]
  0001c	e8 00 00 00 00	 call	 ??$_Deallocate@$07$0A@@std@@YAXPAXI@Z ; std::_Deallocate<8,0>
  00021	83 c4 08	 add	 esp, 8
$LN15@Destroy_ra:
; File C:\Program Files (x86)\Microsoft Visual Studio\2019\Community\VC\Tools\MSVC\14.28.29333\include\xstring

; 4392 :         _Mypair._Myval2._Mysize = 0;

  00024	c7 46 10 00 00
	00 00		 mov	 DWORD PTR [esi+16], 0

; 4393 :         _Mypair._Myval2._Myres  = _BUF_SIZE - 1;

  0002b	c7 46 14 0f 00
	00 00		 mov	 DWORD PTR [esi+20], 15	; 0000000fH

; 4394 :         // the _Traits::assign is last so the codegen doesn't think the char write can alias this
; 4395 :         _Traits::assign(_Mypair._Myval2._Bx._Buf[0], _Elem());

  00032	c6 06 00	 mov	 BYTE PTR [esi], 0
; File C:\Program Files (x86)\Microsoft Visual Studio\2019\Community\VC\Tools\MSVC\14.28.29333\include\xmemory

; 966  :         for (; _First != _Last; ++_First) {

  00035	83 c6 18	 add	 esi, 24			; 00000018H
  00038	3b f7		 cmp	 esi, edi
  0003a	75 d4		 jne	 SHORT $LL4@Destroy_ra
$LN3@Destroy_ra:
  0003c	5f		 pop	 edi

; 967  :             allocator_traits<_Alloc>::destroy(_Al, _Unfancy(_First));
; 968  :         }
; 969  :     }
; 970  : }

  0003d	5e		 pop	 esi
  0003e	5d		 pop	 ebp
  0003f	c3		 ret	 0
??$_Destroy_range@V?$allocator@V?$basic_string@DU?$char_traits@D@std@@V?$allocator@D@2@@std@@@std@@@std@@YAXPAV?$basic_string@DU?$char_traits@D@std@@V?$allocator@D@2@@0@QAV10@AAV?$allocator@V?$basic_string@DU?$char_traits@D@std@@V?$allocator@D@2@@std@@@0@@Z ENDP ; std::_Destroy_range<std::allocator<std::basic_string<char,std::char_traits<char>,std::allocator<char> > > >
_TEXT	ENDS
; Function compile flags: /Ogtp
;	COMDAT ??_G?$CDynamicPoolEx@VCHeaderDecorator@NEffectUpdateDecorator@@@@UAEPAXI@Z
_TEXT	SEGMENT
___flags$ = 8						; size = 4
??_G?$CDynamicPoolEx@VCHeaderDecorator@NEffectUpdateDecorator@@@@UAEPAXI@Z PROC ; CDynamicPoolEx<NEffectUpdateDecorator::CHeaderDecorator>::`scalar deleting destructor', COMDAT
; _this$ = ecx
  00000	55		 push	 ebp
  00001	8b ec		 mov	 ebp, esp
  00003	56		 push	 esi
  00004	8b f1		 mov	 esi, ecx
  00006	e8 00 00 00 00	 call	 ??1?$CDynamicPoolEx@VCHeaderDecorator@NEffectUpdateDecorator@@@@UAE@XZ ; CDynamicPoolEx<NEffectUpdateDecorator::CHeaderDecorator>::~CDynamicPoolEx<NEffectUpdateDecorator::CHeaderDecorator>
  0000b	f6 45 08 01	 test	 BYTE PTR ___flags$[ebp], 1
  0000f	74 0b		 je	 SHORT $LN4@scalar
  00011	6a 24		 push	 36			; 00000024H
  00013	56		 push	 esi
  00014	e8 00 00 00 00	 call	 ??3@YAXPAXI@Z		; operator delete
  00019	83 c4 08	 add	 esp, 8
$LN4@scalar:
  0001c	8b c6		 mov	 eax, esi
  0001e	5e		 pop	 esi
  0001f	5d		 pop	 ebp
  00020	c2 04 00	 ret	 4
??_G?$CDynamicPoolEx@VCHeaderDecorator@NEffectUpdateDecorator@@@@UAEPAXI@Z ENDP ; CDynamicPoolEx<NEffectUpdateDecorator::CHeaderDecorator>::`scalar deleting destructor'
_TEXT	ENDS
; Function compile flags: /Ogtp
; File D:\Metin2 Server Files\mainline\SRC_2014\Metin2Client\eterLib\Pool.h
;	COMDAT ?Delete@?$CDynamicPoolEx@VCHeaderDecorator@NEffectUpdateDecorator@@@@KAXPAVCHeaderDecorator@NEffectUpdateDecorator@@@Z
_TEXT	SEGMENT
_pkData$ = 8						; size = 4
?Delete@?$CDynamicPoolEx@VCHeaderDecorator@NEffectUpdateDecorator@@@@KAXPAVCHeaderDecorator@NEffectUpdateDecorator@@@Z PROC ; CDynamicPoolEx<NEffectUpdateDecorator::CHeaderDecorator>::Delete, COMDAT

; 224  : 			::operator delete(pkData);

  00000	e9 00 00 00 00	 jmp	 ??3@YAXPAX@Z		; operator delete
?Delete@?$CDynamicPoolEx@VCHeaderDecorator@NEffectUpdateDecorator@@@@KAXPAVCHeaderDecorator@NEffectUpdateDecorator@@@Z ENDP ; CDynamicPoolEx<NEffectUpdateDecorator::CHeaderDecorator>::Delete
_TEXT	ENDS
; Function compile flags: /Ogtp
; File D:\Metin2 Server Files\mainline\SRC_2014\Metin2Client\eterLib\Pool.h
; File C:\Program Files (x86)\Microsoft Visual Studio\2019\Community\VC\Tools\MSVC\14.28.29333\include\vector
; File C:\Program Files (x86)\Microsoft Visual Studio\2019\Community\VC\Tools\MSVC\14.28.29333\include\algorithm
; File D:\Metin2 Server Files\mainline\SRC_2014\Metin2Client\eterLib\Pool.h
; File C:\Program Files (x86)\Microsoft Visual Studio\2019\Community\VC\Tools\MSVC\14.28.29333\include\algorithm
; File D:\Metin2 Server Files\mainline\SRC_2014\Metin2Client\eterLib\Pool.h
; File C:\Program Files (x86)\Microsoft Visual Studio\2019\Community\VC\Tools\MSVC\14.28.29333\include\algorithm
; File D:\Metin2 Server Files\mainline\SRC_2014\Metin2Client\eterLib\Pool.h
; File C:\Program Files (x86)\Microsoft Visual Studio\2019\Community\VC\Tools\MSVC\14.28.29333\include\vector
; File C:\Program Files (x86)\Microsoft Visual Studio\2019\Community\VC\Tools\MSVC\14.28.29333\include\xmemory
; File C:\Program Files (x86)\Microsoft Visual Studio\2019\Community\VC\Tools\MSVC\14.28.29333\include\vector
; File C:\Program Files (x86)\Microsoft Visual Studio\2019\Community\VC\Tools\MSVC\14.28.29333\include\xmemory
; File C:\Program Files (x86)\Microsoft Visual Studio\2019\Community\VC\Tools\MSVC\14.28.29333\include\vector
; File C:\Program Files (x86)\Microsoft Visual Studio\2019\Community\VC\Tools\MSVC\14.28.29333\include\xmemory
; File C:\Program Files (x86)\Microsoft Visual Studio\2019\Community\VC\Tools\MSVC\14.28.29333\include\vector
; File C:\Program Files (x86)\Microsoft Visual Studio\2019\Community\VC\Tools\MSVC\14.28.29333\include\xmemory
; File C:\Program Files (x86)\Microsoft Visual Studio\2019\Community\VC\Tools\MSVC\14.28.29333\include\vector
; File D:\Metin2 Server Files\mainline\SRC_2014\Metin2Client\eterLib\Pool.h
;	COMDAT ??1?$CDynamicPoolEx@VCHeaderDecorator@NEffectUpdateDecorator@@@@UAE@XZ
_TEXT	SEGMENT
??1?$CDynamicPoolEx@VCHeaderDecorator@NEffectUpdateDecorator@@@@UAE@XZ PROC ; CDynamicPoolEx<NEffectUpdateDecorator::CHeaderDecorator>::~CDynamicPoolEx<NEffectUpdateDecorator::CHeaderDecorator>, COMDAT
; _this$ = ecx

; 132  : 		{

  00000	53		 push	 ebx
  00001	56		 push	 esi
  00002	57		 push	 edi
  00003	8b f9		 mov	 edi, ecx
  00005	c7 07 00 00 00
	00		 mov	 DWORD PTR [edi], OFFSET ??_7?$CDynamicPoolEx@VCHeaderDecorator@NEffectUpdateDecorator@@@@6B@
; File C:\Program Files (x86)\Microsoft Visual Studio\2019\Community\VC\Tools\MSVC\14.28.29333\include\vector

; 42   :     _Vector_const_iterator(_Tptr _Parg, const _Container_base* _Pvector) noexcept : _Ptr(_Parg) {

  0000b	8b 5f 08	 mov	 ebx, DWORD PTR [edi+8]
  0000e	8b 77 04	 mov	 esi, DWORD PTR [edi+4]
; File C:\Program Files (x86)\Microsoft Visual Studio\2019\Community\VC\Tools\MSVC\14.28.29333\include\algorithm

; 307  :     for (; _UFirst != _ULast; ++_UFirst) {

  00011	3b f3		 cmp	 esi, ebx
  00013	74 14		 je	 SHORT $LN19@CDynamicPo
$LL20@CDynamicPo:
; File D:\Metin2 Server Files\mainline\SRC_2014\Metin2Client\eterLib\Pool.h

; 224  : 			::operator delete(pkData);

  00015	ff 36		 push	 DWORD PTR [esi]
  00017	e8 00 00 00 00	 call	 ??3@YAXPAX@Z		; operator delete
; File C:\Program Files (x86)\Microsoft Visual Studio\2019\Community\VC\Tools\MSVC\14.28.29333\include\algorithm

; 307  :     for (; _UFirst != _ULast; ++_UFirst) {

  0001c	83 c6 04	 add	 esi, 4
; File D:\Metin2 Server Files\mainline\SRC_2014\Metin2Client\eterLib\Pool.h

; 224  : 			::operator delete(pkData);

  0001f	83 c4 04	 add	 esp, 4
; File C:\Program Files (x86)\Microsoft Visual Studio\2019\Community\VC\Tools\MSVC\14.28.29333\include\algorithm

; 307  :     for (; _UFirst != _ULast; ++_UFirst) {

  00022	3b f3		 cmp	 esi, ebx
  00024	75 ef		 jne	 SHORT $LL20@CDynamicPo
  00026	8b 77 04	 mov	 esi, DWORD PTR [edi+4]
$LN19@CDynamicPo:
; File D:\Metin2 Server Files\mainline\SRC_2014\Metin2Client\eterLib\Pool.h

; 162  : 			m_kVct_pkFree.clear();

  00029	8b 4f 10	 mov	 ecx, DWORD PTR [edi+16]
  0002c	89 77 08	 mov	 DWORD PTR [edi+8], esi
  0002f	89 4f 14	 mov	 DWORD PTR [edi+20], ecx
; File C:\Program Files (x86)\Microsoft Visual Studio\2019\Community\VC\Tools\MSVC\14.28.29333\include\vector

; 1694 :         if (_Myfirst) { // destroy and deallocate old array

  00032	85 c9		 test	 ecx, ecx
  00034	74 27		 je	 SHORT $LN27@CDynamicPo

; 1695 :             _Destroy(_Myfirst, _Mylast);
; 1696 :             _Getal().deallocate(_Myfirst, static_cast<size_type>(_Myend - _Myfirst));

  00036	8b 47 18	 mov	 eax, DWORD PTR [edi+24]
  00039	2b c1		 sub	 eax, ecx
; File C:\Program Files (x86)\Microsoft Visual Studio\2019\Community\VC\Tools\MSVC\14.28.29333\include\xmemory

; 810  :         _Deallocate<_New_alignof<_Ty>>(_Ptr, sizeof(_Ty) * _Count);

  0003b	83 e0 fc	 and	 eax, -4			; fffffffcH
  0003e	50		 push	 eax
  0003f	51		 push	 ecx
  00040	e8 00 00 00 00	 call	 ??$_Deallocate@$07$0A@@std@@YAXPAXI@Z ; std::_Deallocate<8,0>
; File C:\Program Files (x86)\Microsoft Visual Studio\2019\Community\VC\Tools\MSVC\14.28.29333\include\vector

; 1698 :             _Myfirst = pointer();

  00045	c7 47 10 00 00
	00 00		 mov	 DWORD PTR [edi+16], 0
; File C:\Program Files (x86)\Microsoft Visual Studio\2019\Community\VC\Tools\MSVC\14.28.29333\include\xmemory

; 810  :         _Deallocate<_New_alignof<_Ty>>(_Ptr, sizeof(_Ty) * _Count);

  0004c	83 c4 08	 add	 esp, 8
; File C:\Program Files (x86)\Microsoft Visual Studio\2019\Community\VC\Tools\MSVC\14.28.29333\include\vector

; 1699 :             _Mylast  = pointer();

  0004f	c7 47 14 00 00
	00 00		 mov	 DWORD PTR [edi+20], 0

; 1700 :             _Myend   = pointer();

  00056	c7 47 18 00 00
	00 00		 mov	 DWORD PTR [edi+24], 0
$LN27@CDynamicPo:

; 1694 :         if (_Myfirst) { // destroy and deallocate old array

  0005d	8b 4f 04	 mov	 ecx, DWORD PTR [edi+4]
  00060	85 c9		 test	 ecx, ecx
  00062	74 27		 je	 SHORT $LN34@CDynamicPo

; 1695 :             _Destroy(_Myfirst, _Mylast);
; 1696 :             _Getal().deallocate(_Myfirst, static_cast<size_type>(_Myend - _Myfirst));

  00064	8b 47 0c	 mov	 eax, DWORD PTR [edi+12]
  00067	2b c1		 sub	 eax, ecx
; File C:\Program Files (x86)\Microsoft Visual Studio\2019\Community\VC\Tools\MSVC\14.28.29333\include\xmemory

; 810  :         _Deallocate<_New_alignof<_Ty>>(_Ptr, sizeof(_Ty) * _Count);

  00069	83 e0 fc	 and	 eax, -4			; fffffffcH
  0006c	50		 push	 eax
  0006d	51		 push	 ecx
  0006e	e8 00 00 00 00	 call	 ??$_Deallocate@$07$0A@@std@@YAXPAXI@Z ; std::_Deallocate<8,0>
; File C:\Program Files (x86)\Microsoft Visual Studio\2019\Community\VC\Tools\MSVC\14.28.29333\include\vector

; 1698 :             _Myfirst = pointer();

  00073	c7 47 04 00 00
	00 00		 mov	 DWORD PTR [edi+4], 0
; File C:\Program Files (x86)\Microsoft Visual Studio\2019\Community\VC\Tools\MSVC\14.28.29333\include\xmemory

; 810  :         _Deallocate<_New_alignof<_Ty>>(_Ptr, sizeof(_Ty) * _Count);

  0007a	83 c4 08	 add	 esp, 8
; File C:\Program Files (x86)\Microsoft Visual Studio\2019\Community\VC\Tools\MSVC\14.28.29333\include\vector

; 1699 :             _Mylast  = pointer();

  0007d	c7 47 08 00 00
	00 00		 mov	 DWORD PTR [edi+8], 0

; 1700 :             _Myend   = pointer();

  00084	c7 47 0c 00 00
	00 00		 mov	 DWORD PTR [edi+12], 0
$LN34@CDynamicPo:
  0008b	5f		 pop	 edi
; File D:\Metin2 Server Files\mainline\SRC_2014\Metin2Client\eterLib\Pool.h

; 142  : 		}

  0008c	5e		 pop	 esi
  0008d	5b		 pop	 ebx
  0008e	c3		 ret	 0
??1?$CDynamicPoolEx@VCHeaderDecorator@NEffectUpdateDecorator@@@@UAE@XZ ENDP ; CDynamicPoolEx<NEffectUpdateDecorator::CHeaderDecorator>::~CDynamicPoolEx<NEffectUpdateDecorator::CHeaderDecorator>
_TEXT	ENDS
; Function compile flags: /Ogtp
;	COMDAT ??_G?$CDynamicPoolEx@VCNullDecorator@NEffectUpdateDecorator@@@@UAEPAXI@Z
_TEXT	SEGMENT
___flags$ = 8						; size = 4
??_G?$CDynamicPoolEx@VCNullDecorator@NEffectUpdateDecorator@@@@UAEPAXI@Z PROC ; CDynamicPoolEx<NEffectUpdateDecorator::CNullDecorator>::`scalar deleting destructor', COMDAT
; _this$ = ecx
  00000	55		 push	 ebp
  00001	8b ec		 mov	 ebp, esp
  00003	56		 push	 esi
  00004	8b f1		 mov	 esi, ecx
  00006	e8 00 00 00 00	 call	 ??1?$CDynamicPoolEx@VCNullDecorator@NEffectUpdateDecorator@@@@UAE@XZ ; CDynamicPoolEx<NEffectUpdateDecorator::CNullDecorator>::~CDynamicPoolEx<NEffectUpdateDecorator::CNullDecorator>
  0000b	f6 45 08 01	 test	 BYTE PTR ___flags$[ebp], 1
  0000f	74 0b		 je	 SHORT $LN4@scalar
  00011	6a 24		 push	 36			; 00000024H
  00013	56		 push	 esi
  00014	e8 00 00 00 00	 call	 ??3@YAXPAXI@Z		; operator delete
  00019	83 c4 08	 add	 esp, 8
$LN4@scalar:
  0001c	8b c6		 mov	 eax, esi
  0001e	5e		 pop	 esi
  0001f	5d		 pop	 ebp
  00020	c2 04 00	 ret	 4
??_G?$CDynamicPoolEx@VCNullDecorator@NEffectUpdateDecorator@@@@UAEPAXI@Z ENDP ; CDynamicPoolEx<NEffectUpdateDecorator::CNullDecorator>::`scalar deleting destructor'
_TEXT	ENDS
; Function compile flags: /Ogtp
; File D:\Metin2 Server Files\mainline\SRC_2014\Metin2Client\eterLib\Pool.h
;	COMDAT ?Delete@?$CDynamicPoolEx@VCNullDecorator@NEffectUpdateDecorator@@@@KAXPAVCNullDecorator@NEffectUpdateDecorator@@@Z
_TEXT	SEGMENT
_pkData$ = 8						; size = 4
?Delete@?$CDynamicPoolEx@VCNullDecorator@NEffectUpdateDecorator@@@@KAXPAVCNullDecorator@NEffectUpdateDecorator@@@Z PROC ; CDynamicPoolEx<NEffectUpdateDecorator::CNullDecorator>::Delete, COMDAT

; 224  : 			::operator delete(pkData);

  00000	e9 00 00 00 00	 jmp	 ??3@YAXPAX@Z		; operator delete
?Delete@?$CDynamicPoolEx@VCNullDecorator@NEffectUpdateDecorator@@@@KAXPAVCNullDecorator@NEffectUpdateDecorator@@@Z ENDP ; CDynamicPoolEx<NEffectUpdateDecorator::CNullDecorator>::Delete
_TEXT	ENDS
; Function compile flags: /Ogtp
; File D:\Metin2 Server Files\mainline\SRC_2014\Metin2Client\eterLib\Pool.h
; File C:\Program Files (x86)\Microsoft Visual Studio\2019\Community\VC\Tools\MSVC\14.28.29333\include\vector
; File C:\Program Files (x86)\Microsoft Visual Studio\2019\Community\VC\Tools\MSVC\14.28.29333\include\algorithm
; File D:\Metin2 Server Files\mainline\SRC_2014\Metin2Client\eterLib\Pool.h
; File C:\Program Files (x86)\Microsoft Visual Studio\2019\Community\VC\Tools\MSVC\14.28.29333\include\algorithm
; File D:\Metin2 Server Files\mainline\SRC_2014\Metin2Client\eterLib\Pool.h
; File C:\Program Files (x86)\Microsoft Visual Studio\2019\Community\VC\Tools\MSVC\14.28.29333\include\algorithm
; File D:\Metin2 Server Files\mainline\SRC_2014\Metin2Client\eterLib\Pool.h
; File C:\Program Files (x86)\Microsoft Visual Studio\2019\Community\VC\Tools\MSVC\14.28.29333\include\vector
; File C:\Program Files (x86)\Microsoft Visual Studio\2019\Community\VC\Tools\MSVC\14.28.29333\include\xmemory
; File C:\Program Files (x86)\Microsoft Visual Studio\2019\Community\VC\Tools\MSVC\14.28.29333\include\vector
; File C:\Program Files (x86)\Microsoft Visual Studio\2019\Community\VC\Tools\MSVC\14.28.29333\include\xmemory
; File C:\Program Files (x86)\Microsoft Visual Studio\2019\Community\VC\Tools\MSVC\14.28.29333\include\vector
; File C:\Program Files (x86)\Microsoft Visual Studio\2019\Community\VC\Tools\MSVC\14.28.29333\include\xmemory
; File C:\Program Files (x86)\Microsoft Visual Studio\2019\Community\VC\Tools\MSVC\14.28.29333\include\vector
; File C:\Program Files (x86)\Microsoft Visual Studio\2019\Community\VC\Tools\MSVC\14.28.29333\include\xmemory
; File C:\Program Files (x86)\Microsoft Visual Studio\2019\Community\VC\Tools\MSVC\14.28.29333\include\vector
; File D:\Metin2 Server Files\mainline\SRC_2014\Metin2Client\eterLib\Pool.h
;	COMDAT ??1?$CDynamicPoolEx@VCNullDecorator@NEffectUpdateDecorator@@@@UAE@XZ
_TEXT	SEGMENT
??1?$CDynamicPoolEx@VCNullDecorator@NEffectUpdateDecorator@@@@UAE@XZ PROC ; CDynamicPoolEx<NEffectUpdateDecorator::CNullDecorator>::~CDynamicPoolEx<NEffectUpdateDecorator::CNullDecorator>, COMDAT
; _this$ = ecx

; 132  : 		{

  00000	53		 push	 ebx
  00001	56		 push	 esi
  00002	57		 push	 edi
  00003	8b f9		 mov	 edi, ecx
  00005	c7 07 00 00 00
	00		 mov	 DWORD PTR [edi], OFFSET ??_7?$CDynamicPoolEx@VCNullDecorator@NEffectUpdateDecorator@@@@6B@
; File C:\Program Files (x86)\Microsoft Visual Studio\2019\Community\VC\Tools\MSVC\14.28.29333\include\vector

; 42   :     _Vector_const_iterator(_Tptr _Parg, const _Container_base* _Pvector) noexcept : _Ptr(_Parg) {

  0000b	8b 5f 08	 mov	 ebx, DWORD PTR [edi+8]
  0000e	8b 77 04	 mov	 esi, DWORD PTR [edi+4]
; File C:\Program Files (x86)\Microsoft Visual Studio\2019\Community\VC\Tools\MSVC\14.28.29333\include\algorithm

; 307  :     for (; _UFirst != _ULast; ++_UFirst) {

  00011	3b f3		 cmp	 esi, ebx
  00013	74 14		 je	 SHORT $LN19@CDynamicPo
$LL20@CDynamicPo:
; File D:\Metin2 Server Files\mainline\SRC_2014\Metin2Client\eterLib\Pool.h

; 224  : 			::operator delete(pkData);

  00015	ff 36		 push	 DWORD PTR [esi]
  00017	e8 00 00 00 00	 call	 ??3@YAXPAX@Z		; operator delete
; File C:\Program Files (x86)\Microsoft Visual Studio\2019\Community\VC\Tools\MSVC\14.28.29333\include\algorithm

; 307  :     for (; _UFirst != _ULast; ++_UFirst) {

  0001c	83 c6 04	 add	 esi, 4
; File D:\Metin2 Server Files\mainline\SRC_2014\Metin2Client\eterLib\Pool.h

; 224  : 			::operator delete(pkData);

  0001f	83 c4 04	 add	 esp, 4
; File C:\Program Files (x86)\Microsoft Visual Studio\2019\Community\VC\Tools\MSVC\14.28.29333\include\algorithm

; 307  :     for (; _UFirst != _ULast; ++_UFirst) {

  00022	3b f3		 cmp	 esi, ebx
  00024	75 ef		 jne	 SHORT $LL20@CDynamicPo
  00026	8b 77 04	 mov	 esi, DWORD PTR [edi+4]
$LN19@CDynamicPo:
; File D:\Metin2 Server Files\mainline\SRC_2014\Metin2Client\eterLib\Pool.h

; 162  : 			m_kVct_pkFree.clear();

  00029	8b 4f 10	 mov	 ecx, DWORD PTR [edi+16]
  0002c	89 77 08	 mov	 DWORD PTR [edi+8], esi
  0002f	89 4f 14	 mov	 DWORD PTR [edi+20], ecx
; File C:\Program Files (x86)\Microsoft Visual Studio\2019\Community\VC\Tools\MSVC\14.28.29333\include\vector

; 1694 :         if (_Myfirst) { // destroy and deallocate old array

  00032	85 c9		 test	 ecx, ecx
  00034	74 27		 je	 SHORT $LN27@CDynamicPo

; 1695 :             _Destroy(_Myfirst, _Mylast);
; 1696 :             _Getal().deallocate(_Myfirst, static_cast<size_type>(_Myend - _Myfirst));

  00036	8b 47 18	 mov	 eax, DWORD PTR [edi+24]
  00039	2b c1		 sub	 eax, ecx
; File C:\Program Files (x86)\Microsoft Visual Studio\2019\Community\VC\Tools\MSVC\14.28.29333\include\xmemory

; 810  :         _Deallocate<_New_alignof<_Ty>>(_Ptr, sizeof(_Ty) * _Count);

  0003b	83 e0 fc	 and	 eax, -4			; fffffffcH
  0003e	50		 push	 eax
  0003f	51		 push	 ecx
  00040	e8 00 00 00 00	 call	 ??$_Deallocate@$07$0A@@std@@YAXPAXI@Z ; std::_Deallocate<8,0>
; File C:\Program Files (x86)\Microsoft Visual Studio\2019\Community\VC\Tools\MSVC\14.28.29333\include\vector

; 1698 :             _Myfirst = pointer();

  00045	c7 47 10 00 00
	00 00		 mov	 DWORD PTR [edi+16], 0
; File C:\Program Files (x86)\Microsoft Visual Studio\2019\Community\VC\Tools\MSVC\14.28.29333\include\xmemory

; 810  :         _Deallocate<_New_alignof<_Ty>>(_Ptr, sizeof(_Ty) * _Count);

  0004c	83 c4 08	 add	 esp, 8
; File C:\Program Files (x86)\Microsoft Visual Studio\2019\Community\VC\Tools\MSVC\14.28.29333\include\vector

; 1699 :             _Mylast  = pointer();

  0004f	c7 47 14 00 00
	00 00		 mov	 DWORD PTR [edi+20], 0

; 1700 :             _Myend   = pointer();

  00056	c7 47 18 00 00
	00 00		 mov	 DWORD PTR [edi+24], 0
$LN27@CDynamicPo:

; 1694 :         if (_Myfirst) { // destroy and deallocate old array

  0005d	8b 4f 04	 mov	 ecx, DWORD PTR [edi+4]
  00060	85 c9		 test	 ecx, ecx
  00062	74 27		 je	 SHORT $LN34@CDynamicPo

; 1695 :             _Destroy(_Myfirst, _Mylast);
; 1696 :             _Getal().deallocate(_Myfirst, static_cast<size_type>(_Myend - _Myfirst));

  00064	8b 47 0c	 mov	 eax, DWORD PTR [edi+12]
  00067	2b c1		 sub	 eax, ecx
; File C:\Program Files (x86)\Microsoft Visual Studio\2019\Community\VC\Tools\MSVC\14.28.29333\include\xmemory

; 810  :         _Deallocate<_New_alignof<_Ty>>(_Ptr, sizeof(_Ty) * _Count);

  00069	83 e0 fc	 and	 eax, -4			; fffffffcH
  0006c	50		 push	 eax
  0006d	51		 push	 ecx
  0006e	e8 00 00 00 00	 call	 ??$_Deallocate@$07$0A@@std@@YAXPAXI@Z ; std::_Deallocate<8,0>
; File C:\Program Files (x86)\Microsoft Visual Studio\2019\Community\VC\Tools\MSVC\14.28.29333\include\vector

; 1698 :             _Myfirst = pointer();

  00073	c7 47 04 00 00
	00 00		 mov	 DWORD PTR [edi+4], 0
; File C:\Program Files (x86)\Microsoft Visual Studio\2019\Community\VC\Tools\MSVC\14.28.29333\include\xmemory

; 810  :         _Deallocate<_New_alignof<_Ty>>(_Ptr, sizeof(_Ty) * _Count);

  0007a	83 c4 08	 add	 esp, 8
; File C:\Program Files (x86)\Microsoft Visual Studio\2019\Community\VC\Tools\MSVC\14.28.29333\include\vector

; 1699 :             _Mylast  = pointer();

  0007d	c7 47 08 00 00
	00 00		 mov	 DWORD PTR [edi+8], 0

; 1700 :             _Myend   = pointer();

  00084	c7 47 0c 00 00
	00 00		 mov	 DWORD PTR [edi+12], 0
$LN34@CDynamicPo:
  0008b	5f		 pop	 edi
; File D:\Metin2 Server Files\mainline\SRC_2014\Metin2Client\eterLib\Pool.h

; 142  : 		}

  0008c	5e		 pop	 esi
  0008d	5b		 pop	 ebx
  0008e	c3		 ret	 0
??1?$CDynamicPoolEx@VCNullDecorator@NEffectUpdateDecorator@@@@UAE@XZ ENDP ; CDynamicPoolEx<NEffectUpdateDecorator::CNullDecorator>::~CDynamicPoolEx<NEffectUpdateDecorator::CNullDecorator>
_TEXT	ENDS
; Function compile flags: /Ogtp
;	COMDAT ??_G?$CDynamicPoolEx@VCTextureAnimationCWDecorator@NEffectUpdateDecorator@@@@UAEPAXI@Z
_TEXT	SEGMENT
___flags$ = 8						; size = 4
??_G?$CDynamicPoolEx@VCTextureAnimationCWDecorator@NEffectUpdateDecorator@@@@UAEPAXI@Z PROC ; CDynamicPoolEx<NEffectUpdateDecorator::CTextureAnimationCWDecorator>::`scalar deleting destructor', COMDAT
; _this$ = ecx
  00000	55		 push	 ebp
  00001	8b ec		 mov	 ebp, esp
  00003	56		 push	 esi
  00004	8b f1		 mov	 esi, ecx
  00006	e8 00 00 00 00	 call	 ??1?$CDynamicPoolEx@VCTextureAnimationCWDecorator@NEffectUpdateDecorator@@@@UAE@XZ ; CDynamicPoolEx<NEffectUpdateDecorator::CTextureAnimationCWDecorator>::~CDynamicPoolEx<NEffectUpdateDecorator::CTextureAnimationCWDecorator>
  0000b	f6 45 08 01	 test	 BYTE PTR ___flags$[ebp], 1
  0000f	74 0b		 je	 SHORT $LN4@scalar
  00011	6a 24		 push	 36			; 00000024H
  00013	56		 push	 esi
  00014	e8 00 00 00 00	 call	 ??3@YAXPAXI@Z		; operator delete
  00019	83 c4 08	 add	 esp, 8
$LN4@scalar:
  0001c	8b c6		 mov	 eax, esi
  0001e	5e		 pop	 esi
  0001f	5d		 pop	 ebp
  00020	c2 04 00	 ret	 4
??_G?$CDynamicPoolEx@VCTextureAnimationCWDecorator@NEffectUpdateDecorator@@@@UAEPAXI@Z ENDP ; CDynamicPoolEx<NEffectUpdateDecorator::CTextureAnimationCWDecorator>::`scalar deleting destructor'
_TEXT	ENDS
; Function compile flags: /Ogtp
; File D:\Metin2 Server Files\mainline\SRC_2014\Metin2Client\eterLib\Pool.h
;	COMDAT ?Delete@?$CDynamicPoolEx@VCTextureAnimationCWDecorator@NEffectUpdateDecorator@@@@KAXPAVCTextureAnimationCWDecorator@NEffectUpdateDecorator@@@Z
_TEXT	SEGMENT
_pkData$ = 8						; size = 4
?Delete@?$CDynamicPoolEx@VCTextureAnimationCWDecorator@NEffectUpdateDecorator@@@@KAXPAVCTextureAnimationCWDecorator@NEffectUpdateDecorator@@@Z PROC ; CDynamicPoolEx<NEffectUpdateDecorator::CTextureAnimationCWDecorator>::Delete, COMDAT

; 224  : 			::operator delete(pkData);

  00000	e9 00 00 00 00	 jmp	 ??3@YAXPAX@Z		; operator delete
?Delete@?$CDynamicPoolEx@VCTextureAnimationCWDecorator@NEffectUpdateDecorator@@@@KAXPAVCTextureAnimationCWDecorator@NEffectUpdateDecorator@@@Z ENDP ; CDynamicPoolEx<NEffectUpdateDecorator::CTextureAnimationCWDecorator>::Delete
_TEXT	ENDS
; Function compile flags: /Ogtp
; File D:\Metin2 Server Files\mainline\SRC_2014\Metin2Client\eterLib\Pool.h
; File C:\Program Files (x86)\Microsoft Visual Studio\2019\Community\VC\Tools\MSVC\14.28.29333\include\vector
; File C:\Program Files (x86)\Microsoft Visual Studio\2019\Community\VC\Tools\MSVC\14.28.29333\include\algorithm
; File D:\Metin2 Server Files\mainline\SRC_2014\Metin2Client\eterLib\Pool.h
; File C:\Program Files (x86)\Microsoft Visual Studio\2019\Community\VC\Tools\MSVC\14.28.29333\include\algorithm
; File D:\Metin2 Server Files\mainline\SRC_2014\Metin2Client\eterLib\Pool.h
; File C:\Program Files (x86)\Microsoft Visual Studio\2019\Community\VC\Tools\MSVC\14.28.29333\include\algorithm
; File D:\Metin2 Server Files\mainline\SRC_2014\Metin2Client\eterLib\Pool.h
; File C:\Program Files (x86)\Microsoft Visual Studio\2019\Community\VC\Tools\MSVC\14.28.29333\include\vector
; File C:\Program Files (x86)\Microsoft Visual Studio\2019\Community\VC\Tools\MSVC\14.28.29333\include\xmemory
; File C:\Program Files (x86)\Microsoft Visual Studio\2019\Community\VC\Tools\MSVC\14.28.29333\include\vector
; File C:\Program Files (x86)\Microsoft Visual Studio\2019\Community\VC\Tools\MSVC\14.28.29333\include\xmemory
; File C:\Program Files (x86)\Microsoft Visual Studio\2019\Community\VC\Tools\MSVC\14.28.29333\include\vector
; File C:\Program Files (x86)\Microsoft Visual Studio\2019\Community\VC\Tools\MSVC\14.28.29333\include\xmemory
; File C:\Program Files (x86)\Microsoft Visual Studio\2019\Community\VC\Tools\MSVC\14.28.29333\include\vector
; File C:\Program Files (x86)\Microsoft Visual Studio\2019\Community\VC\Tools\MSVC\14.28.29333\include\xmemory
; File C:\Program Files (x86)\Microsoft Visual Studio\2019\Community\VC\Tools\MSVC\14.28.29333\include\vector
; File D:\Metin2 Server Files\mainline\SRC_2014\Metin2Client\eterLib\Pool.h
;	COMDAT ??1?$CDynamicPoolEx@VCTextureAnimationCWDecorator@NEffectUpdateDecorator@@@@UAE@XZ
_TEXT	SEGMENT
??1?$CDynamicPoolEx@VCTextureAnimationCWDecorator@NEffectUpdateDecorator@@@@UAE@XZ PROC ; CDynamicPoolEx<NEffectUpdateDecorator::CTextureAnimationCWDecorator>::~CDynamicPoolEx<NEffectUpdateDecorator::CTextureAnimationCWDecorator>, COMDAT
; _this$ = ecx

; 132  : 		{

  00000	53		 push	 ebx
  00001	56		 push	 esi
  00002	57		 push	 edi
  00003	8b f9		 mov	 edi, ecx
  00005	c7 07 00 00 00
	00		 mov	 DWORD PTR [edi], OFFSET ??_7?$CDynamicPoolEx@VCTextureAnimationCWDecorator@NEffectUpdateDecorator@@@@6B@
; File C:\Program Files (x86)\Microsoft Visual Studio\2019\Community\VC\Tools\MSVC\14.28.29333\include\vector

; 42   :     _Vector_const_iterator(_Tptr _Parg, const _Container_base* _Pvector) noexcept : _Ptr(_Parg) {

  0000b	8b 5f 08	 mov	 ebx, DWORD PTR [edi+8]
  0000e	8b 77 04	 mov	 esi, DWORD PTR [edi+4]
; File C:\Program Files (x86)\Microsoft Visual Studio\2019\Community\VC\Tools\MSVC\14.28.29333\include\algorithm

; 307  :     for (; _UFirst != _ULast; ++_UFirst) {

  00011	3b f3		 cmp	 esi, ebx
  00013	74 14		 je	 SHORT $LN19@CDynamicPo
$LL20@CDynamicPo:
; File D:\Metin2 Server Files\mainline\SRC_2014\Metin2Client\eterLib\Pool.h

; 224  : 			::operator delete(pkData);

  00015	ff 36		 push	 DWORD PTR [esi]
  00017	e8 00 00 00 00	 call	 ??3@YAXPAX@Z		; operator delete
; File C:\Program Files (x86)\Microsoft Visual Studio\2019\Community\VC\Tools\MSVC\14.28.29333\include\algorithm

; 307  :     for (; _UFirst != _ULast; ++_UFirst) {

  0001c	83 c6 04	 add	 esi, 4
; File D:\Metin2 Server Files\mainline\SRC_2014\Metin2Client\eterLib\Pool.h

; 224  : 			::operator delete(pkData);

  0001f	83 c4 04	 add	 esp, 4
; File C:\Program Files (x86)\Microsoft Visual Studio\2019\Community\VC\Tools\MSVC\14.28.29333\include\algorithm

; 307  :     for (; _UFirst != _ULast; ++_UFirst) {

  00022	3b f3		 cmp	 esi, ebx
  00024	75 ef		 jne	 SHORT $LL20@CDynamicPo
  00026	8b 77 04	 mov	 esi, DWORD PTR [edi+4]
$LN19@CDynamicPo:
; File D:\Metin2 Server Files\mainline\SRC_2014\Metin2Client\eterLib\Pool.h

; 162  : 			m_kVct_pkFree.clear();

  00029	8b 4f 10	 mov	 ecx, DWORD PTR [edi+16]
  0002c	89 77 08	 mov	 DWORD PTR [edi+8], esi
  0002f	89 4f 14	 mov	 DWORD PTR [edi+20], ecx
; File C:\Program Files (x86)\Microsoft Visual Studio\2019\Community\VC\Tools\MSVC\14.28.29333\include\vector

; 1694 :         if (_Myfirst) { // destroy and deallocate old array

  00032	85 c9		 test	 ecx, ecx
  00034	74 27		 je	 SHORT $LN27@CDynamicPo

; 1695 :             _Destroy(_Myfirst, _Mylast);
; 1696 :             _Getal().deallocate(_Myfirst, static_cast<size_type>(_Myend - _Myfirst));

  00036	8b 47 18	 mov	 eax, DWORD PTR [edi+24]
  00039	2b c1		 sub	 eax, ecx
; File C:\Program Files (x86)\Microsoft Visual Studio\2019\Community\VC\Tools\MSVC\14.28.29333\include\xmemory

; 810  :         _Deallocate<_New_alignof<_Ty>>(_Ptr, sizeof(_Ty) * _Count);

  0003b	83 e0 fc	 and	 eax, -4			; fffffffcH
  0003e	50		 push	 eax
  0003f	51		 push	 ecx
  00040	e8 00 00 00 00	 call	 ??$_Deallocate@$07$0A@@std@@YAXPAXI@Z ; std::_Deallocate<8,0>
; File C:\Program Files (x86)\Microsoft Visual Studio\2019\Community\VC\Tools\MSVC\14.28.29333\include\vector

; 1698 :             _Myfirst = pointer();

  00045	c7 47 10 00 00
	00 00		 mov	 DWORD PTR [edi+16], 0
; File C:\Program Files (x86)\Microsoft Visual Studio\2019\Community\VC\Tools\MSVC\14.28.29333\include\xmemory

; 810  :         _Deallocate<_New_alignof<_Ty>>(_Ptr, sizeof(_Ty) * _Count);

  0004c	83 c4 08	 add	 esp, 8
; File C:\Program Files (x86)\Microsoft Visual Studio\2019\Community\VC\Tools\MSVC\14.28.29333\include\vector

; 1699 :             _Mylast  = pointer();

  0004f	c7 47 14 00 00
	00 00		 mov	 DWORD PTR [edi+20], 0

; 1700 :             _Myend   = pointer();

  00056	c7 47 18 00 00
	00 00		 mov	 DWORD PTR [edi+24], 0
$LN27@CDynamicPo:

; 1694 :         if (_Myfirst) { // destroy and deallocate old array

  0005d	8b 4f 04	 mov	 ecx, DWORD PTR [edi+4]
  00060	85 c9		 test	 ecx, ecx
  00062	74 27		 je	 SHORT $LN34@CDynamicPo

; 1695 :             _Destroy(_Myfirst, _Mylast);
; 1696 :             _Getal().deallocate(_Myfirst, static_cast<size_type>(_Myend - _Myfirst));

  00064	8b 47 0c	 mov	 eax, DWORD PTR [edi+12]
  00067	2b c1		 sub	 eax, ecx
; File C:\Program Files (x86)\Microsoft Visual Studio\2019\Community\VC\Tools\MSVC\14.28.29333\include\xmemory

; 810  :         _Deallocate<_New_alignof<_Ty>>(_Ptr, sizeof(_Ty) * _Count);

  00069	83 e0 fc	 and	 eax, -4			; fffffffcH
  0006c	50		 push	 eax
  0006d	51		 push	 ecx
  0006e	e8 00 00 00 00	 call	 ??$_Deallocate@$07$0A@@std@@YAXPAXI@Z ; std::_Deallocate<8,0>
; File C:\Program Files (x86)\Microsoft Visual Studio\2019\Community\VC\Tools\MSVC\14.28.29333\include\vector

; 1698 :             _Myfirst = pointer();

  00073	c7 47 04 00 00
	00 00		 mov	 DWORD PTR [edi+4], 0
; File C:\Program Files (x86)\Microsoft Visual Studio\2019\Community\VC\Tools\MSVC\14.28.29333\include\xmemory

; 810  :         _Deallocate<_New_alignof<_Ty>>(_Ptr, sizeof(_Ty) * _Count);

  0007a	83 c4 08	 add	 esp, 8
; File C:\Program Files (x86)\Microsoft Visual Studio\2019\Community\VC\Tools\MSVC\14.28.29333\include\vector

; 1699 :             _Mylast  = pointer();

  0007d	c7 47 08 00 00
	00 00		 mov	 DWORD PTR [edi+8], 0

; 1700 :             _Myend   = pointer();

  00084	c7 47 0c 00 00
	00 00		 mov	 DWORD PTR [edi+12], 0
$LN34@CDynamicPo:
  0008b	5f		 pop	 edi
; File D:\Metin2 Server Files\mainline\SRC_2014\Metin2Client\eterLib\Pool.h

; 142  : 		}

  0008c	5e		 pop	 esi
  0008d	5b		 pop	 ebx
  0008e	c3		 ret	 0
??1?$CDynamicPoolEx@VCTextureAnimationCWDecorator@NEffectUpdateDecorator@@@@UAE@XZ ENDP ; CDynamicPoolEx<NEffectUpdateDecorator::CTextureAnimationCWDecorator>::~CDynamicPoolEx<NEffectUpdateDecorator::CTextureAnimationCWDecorator>
_TEXT	ENDS
; Function compile flags: /Ogtp
;	COMDAT ??_G?$CDynamicPoolEx@VCTextureAnimationCCWDecorator@NEffectUpdateDecorator@@@@UAEPAXI@Z
_TEXT	SEGMENT
___flags$ = 8						; size = 4
??_G?$CDynamicPoolEx@VCTextureAnimationCCWDecorator@NEffectUpdateDecorator@@@@UAEPAXI@Z PROC ; CDynamicPoolEx<NEffectUpdateDecorator::CTextureAnimationCCWDecorator>::`scalar deleting destructor', COMDAT
; _this$ = ecx
  00000	55		 push	 ebp
  00001	8b ec		 mov	 ebp, esp
  00003	56		 push	 esi
  00004	8b f1		 mov	 esi, ecx
  00006	e8 00 00 00 00	 call	 ??1?$CDynamicPoolEx@VCTextureAnimationCCWDecorator@NEffectUpdateDecorator@@@@UAE@XZ ; CDynamicPoolEx<NEffectUpdateDecorator::CTextureAnimationCCWDecorator>::~CDynamicPoolEx<NEffectUpdateDecorator::CTextureAnimationCCWDecorator>
  0000b	f6 45 08 01	 test	 BYTE PTR ___flags$[ebp], 1
  0000f	74 0b		 je	 SHORT $LN4@scalar
  00011	6a 24		 push	 36			; 00000024H
  00013	56		 push	 esi
  00014	e8 00 00 00 00	 call	 ??3@YAXPAXI@Z		; operator delete
  00019	83 c4 08	 add	 esp, 8
$LN4@scalar:
  0001c	8b c6		 mov	 eax, esi
  0001e	5e		 pop	 esi
  0001f	5d		 pop	 ebp
  00020	c2 04 00	 ret	 4
??_G?$CDynamicPoolEx@VCTextureAnimationCCWDecorator@NEffectUpdateDecorator@@@@UAEPAXI@Z ENDP ; CDynamicPoolEx<NEffectUpdateDecorator::CTextureAnimationCCWDecorator>::`scalar deleting destructor'
_TEXT	ENDS
; Function compile flags: /Ogtp
; File D:\Metin2 Server Files\mainline\SRC_2014\Metin2Client\eterLib\Pool.h
;	COMDAT ?Delete@?$CDynamicPoolEx@VCTextureAnimationCCWDecorator@NEffectUpdateDecorator@@@@KAXPAVCTextureAnimationCCWDecorator@NEffectUpdateDecorator@@@Z
_TEXT	SEGMENT
_pkData$ = 8						; size = 4
?Delete@?$CDynamicPoolEx@VCTextureAnimationCCWDecorator@NEffectUpdateDecorator@@@@KAXPAVCTextureAnimationCCWDecorator@NEffectUpdateDecorator@@@Z PROC ; CDynamicPoolEx<NEffectUpdateDecorator::CTextureAnimationCCWDecorator>::Delete, COMDAT

; 224  : 			::operator delete(pkData);

  00000	e9 00 00 00 00	 jmp	 ??3@YAXPAX@Z		; operator delete
?Delete@?$CDynamicPoolEx@VCTextureAnimationCCWDecorator@NEffectUpdateDecorator@@@@KAXPAVCTextureAnimationCCWDecorator@NEffectUpdateDecorator@@@Z ENDP ; CDynamicPoolEx<NEffectUpdateDecorator::CTextureAnimationCCWDecorator>::Delete
_TEXT	ENDS
; Function compile flags: /Ogtp
; File D:\Metin2 Server Files\mainline\SRC_2014\Metin2Client\eterLib\Pool.h
; File C:\Program Files (x86)\Microsoft Visual Studio\2019\Community\VC\Tools\MSVC\14.28.29333\include\vector
; File C:\Program Files (x86)\Microsoft Visual Studio\2019\Community\VC\Tools\MSVC\14.28.29333\include\algorithm
; File D:\Metin2 Server Files\mainline\SRC_2014\Metin2Client\eterLib\Pool.h
; File C:\Program Files (x86)\Microsoft Visual Studio\2019\Community\VC\Tools\MSVC\14.28.29333\include\algorithm
; File D:\Metin2 Server Files\mainline\SRC_2014\Metin2Client\eterLib\Pool.h
; File C:\Program Files (x86)\Microsoft Visual Studio\2019\Community\VC\Tools\MSVC\14.28.29333\include\algorithm
; File D:\Metin2 Server Files\mainline\SRC_2014\Metin2Client\eterLib\Pool.h
; File C:\Program Files (x86)\Microsoft Visual Studio\2019\Community\VC\Tools\MSVC\14.28.29333\include\vector
; File C:\Program Files (x86)\Microsoft Visual Studio\2019\Community\VC\Tools\MSVC\14.28.29333\include\xmemory
; File C:\Program Files (x86)\Microsoft Visual Studio\2019\Community\VC\Tools\MSVC\14.28.29333\include\vector
; File C:\Program Files (x86)\Microsoft Visual Studio\2019\Community\VC\Tools\MSVC\14.28.29333\include\xmemory
; File C:\Program Files (x86)\Microsoft Visual Studio\2019\Community\VC\Tools\MSVC\14.28.29333\include\vector
; File C:\Program Files (x86)\Microsoft Visual Studio\2019\Community\VC\Tools\MSVC\14.28.29333\include\xmemory
; File C:\Program Files (x86)\Microsoft Visual Studio\2019\Community\VC\Tools\MSVC\14.28.29333\include\vector
; File C:\Program Files (x86)\Microsoft Visual Studio\2019\Community\VC\Tools\MSVC\14.28.29333\include\xmemory
; File C:\Program Files (x86)\Microsoft Visual Studio\2019\Community\VC\Tools\MSVC\14.28.29333\include\vector
; File D:\Metin2 Server Files\mainline\SRC_2014\Metin2Client\eterLib\Pool.h
;	COMDAT ??1?$CDynamicPoolEx@VCTextureAnimationCCWDecorator@NEffectUpdateDecorator@@@@UAE@XZ
_TEXT	SEGMENT
??1?$CDynamicPoolEx@VCTextureAnimationCCWDecorator@NEffectUpdateDecorator@@@@UAE@XZ PROC ; CDynamicPoolEx<NEffectUpdateDecorator::CTextureAnimationCCWDecorator>::~CDynamicPoolEx<NEffectUpdateDecorator::CTextureAnimationCCWDecorator>, COMDAT
; _this$ = ecx

; 132  : 		{

  00000	53		 push	 ebx
  00001	56		 push	 esi
  00002	57		 push	 edi
  00003	8b f9		 mov	 edi, ecx
  00005	c7 07 00 00 00
	00		 mov	 DWORD PTR [edi], OFFSET ??_7?$CDynamicPoolEx@VCTextureAnimationCCWDecorator@NEffectUpdateDecorator@@@@6B@
; File C:\Program Files (x86)\Microsoft Visual Studio\2019\Community\VC\Tools\MSVC\14.28.29333\include\vector

; 42   :     _Vector_const_iterator(_Tptr _Parg, const _Container_base* _Pvector) noexcept : _Ptr(_Parg) {

  0000b	8b 5f 08	 mov	 ebx, DWORD PTR [edi+8]
  0000e	8b 77 04	 mov	 esi, DWORD PTR [edi+4]
; File C:\Program Files (x86)\Microsoft Visual Studio\2019\Community\VC\Tools\MSVC\14.28.29333\include\algorithm

; 307  :     for (; _UFirst != _ULast; ++_UFirst) {

  00011	3b f3		 cmp	 esi, ebx
  00013	74 14		 je	 SHORT $LN19@CDynamicPo
$LL20@CDynamicPo:
; File D:\Metin2 Server Files\mainline\SRC_2014\Metin2Client\eterLib\Pool.h

; 224  : 			::operator delete(pkData);

  00015	ff 36		 push	 DWORD PTR [esi]
  00017	e8 00 00 00 00	 call	 ??3@YAXPAX@Z		; operator delete
; File C:\Program Files (x86)\Microsoft Visual Studio\2019\Community\VC\Tools\MSVC\14.28.29333\include\algorithm

; 307  :     for (; _UFirst != _ULast; ++_UFirst) {

  0001c	83 c6 04	 add	 esi, 4
; File D:\Metin2 Server Files\mainline\SRC_2014\Metin2Client\eterLib\Pool.h

; 224  : 			::operator delete(pkData);

  0001f	83 c4 04	 add	 esp, 4
; File C:\Program Files (x86)\Microsoft Visual Studio\2019\Community\VC\Tools\MSVC\14.28.29333\include\algorithm

; 307  :     for (; _UFirst != _ULast; ++_UFirst) {

  00022	3b f3		 cmp	 esi, ebx
  00024	75 ef		 jne	 SHORT $LL20@CDynamicPo
  00026	8b 77 04	 mov	 esi, DWORD PTR [edi+4]
$LN19@CDynamicPo:
; File D:\Metin2 Server Files\mainline\SRC_2014\Metin2Client\eterLib\Pool.h

; 162  : 			m_kVct_pkFree.clear();

  00029	8b 4f 10	 mov	 ecx, DWORD PTR [edi+16]
  0002c	89 77 08	 mov	 DWORD PTR [edi+8], esi
  0002f	89 4f 14	 mov	 DWORD PTR [edi+20], ecx
; File C:\Program Files (x86)\Microsoft Visual Studio\2019\Community\VC\Tools\MSVC\14.28.29333\include\vector

; 1694 :         if (_Myfirst) { // destroy and deallocate old array

  00032	85 c9		 test	 ecx, ecx
  00034	74 27		 je	 SHORT $LN27@CDynamicPo

; 1695 :             _Destroy(_Myfirst, _Mylast);
; 1696 :             _Getal().deallocate(_Myfirst, static_cast<size_type>(_Myend - _Myfirst));

  00036	8b 47 18	 mov	 eax, DWORD PTR [edi+24]
  00039	2b c1		 sub	 eax, ecx
; File C:\Program Files (x86)\Microsoft Visual Studio\2019\Community\VC\Tools\MSVC\14.28.29333\include\xmemory

; 810  :         _Deallocate<_New_alignof<_Ty>>(_Ptr, sizeof(_Ty) * _Count);

  0003b	83 e0 fc	 and	 eax, -4			; fffffffcH
  0003e	50		 push	 eax
  0003f	51		 push	 ecx
  00040	e8 00 00 00 00	 call	 ??$_Deallocate@$07$0A@@std@@YAXPAXI@Z ; std::_Deallocate<8,0>
; File C:\Program Files (x86)\Microsoft Visual Studio\2019\Community\VC\Tools\MSVC\14.28.29333\include\vector

; 1698 :             _Myfirst = pointer();

  00045	c7 47 10 00 00
	00 00		 mov	 DWORD PTR [edi+16], 0
; File C:\Program Files (x86)\Microsoft Visual Studio\2019\Community\VC\Tools\MSVC\14.28.29333\include\xmemory

; 810  :         _Deallocate<_New_alignof<_Ty>>(_Ptr, sizeof(_Ty) * _Count);

  0004c	83 c4 08	 add	 esp, 8
; File C:\Program Files (x86)\Microsoft Visual Studio\2019\Community\VC\Tools\MSVC\14.28.29333\include\vector

; 1699 :             _Mylast  = pointer();

  0004f	c7 47 14 00 00
	00 00		 mov	 DWORD PTR [edi+20], 0

; 1700 :             _Myend   = pointer();

  00056	c7 47 18 00 00
	00 00		 mov	 DWORD PTR [edi+24], 0
$LN27@CDynamicPo:

; 1694 :         if (_Myfirst) { // destroy and deallocate old array

  0005d	8b 4f 04	 mov	 ecx, DWORD PTR [edi+4]
  00060	85 c9		 test	 ecx, ecx
  00062	74 27		 je	 SHORT $LN34@CDynamicPo

; 1695 :             _Destroy(_Myfirst, _Mylast);
; 1696 :             _Getal().deallocate(_Myfirst, static_cast<size_type>(_Myend - _Myfirst));

  00064	8b 47 0c	 mov	 eax, DWORD PTR [edi+12]
  00067	2b c1		 sub	 eax, ecx
; File C:\Program Files (x86)\Microsoft Visual Studio\2019\Community\VC\Tools\MSVC\14.28.29333\include\xmemory

; 810  :         _Deallocate<_New_alignof<_Ty>>(_Ptr, sizeof(_Ty) * _Count);

  00069	83 e0 fc	 and	 eax, -4			; fffffffcH
  0006c	50		 push	 eax
  0006d	51		 push	 ecx
  0006e	e8 00 00 00 00	 call	 ??$_Deallocate@$07$0A@@std@@YAXPAXI@Z ; std::_Deallocate<8,0>
; File C:\Program Files (x86)\Microsoft Visual Studio\2019\Community\VC\Tools\MSVC\14.28.29333\include\vector

; 1698 :             _Myfirst = pointer();

  00073	c7 47 04 00 00
	00 00		 mov	 DWORD PTR [edi+4], 0
; File C:\Program Files (x86)\Microsoft Visual Studio\2019\Community\VC\Tools\MSVC\14.28.29333\include\xmemory

; 810  :         _Deallocate<_New_alignof<_Ty>>(_Ptr, sizeof(_Ty) * _Count);

  0007a	83 c4 08	 add	 esp, 8
; File C:\Program Files (x86)\Microsoft Visual Studio\2019\Community\VC\Tools\MSVC\14.28.29333\include\vector

; 1699 :             _Mylast  = pointer();

  0007d	c7 47 08 00 00
	00 00		 mov	 DWORD PTR [edi+8], 0

; 1700 :             _Myend   = pointer();

  00084	c7 47 0c 00 00
	00 00		 mov	 DWORD PTR [edi+12], 0
$LN34@CDynamicPo:
  0008b	5f		 pop	 edi
; File D:\Metin2 Server Files\mainline\SRC_2014\Metin2Client\eterLib\Pool.h

; 142  : 		}

  0008c	5e		 pop	 esi
  0008d	5b		 pop	 ebx
  0008e	c3		 ret	 0
??1?$CDynamicPoolEx@VCTextureAnimationCCWDecorator@NEffectUpdateDecorator@@@@UAE@XZ ENDP ; CDynamicPoolEx<NEffectUpdateDecorator::CTextureAnimationCCWDecorator>::~CDynamicPoolEx<NEffectUpdateDecorator::CTextureAnimationCCWDecorator>
_TEXT	ENDS
; Function compile flags: /Ogtp
;	COMDAT ??_G?$CDynamicPoolEx@VCTextureAnimationRandomDecorator@NEffectUpdateDecorator@@@@UAEPAXI@Z
_TEXT	SEGMENT
___flags$ = 8						; size = 4
??_G?$CDynamicPoolEx@VCTextureAnimationRandomDecorator@NEffectUpdateDecorator@@@@UAEPAXI@Z PROC ; CDynamicPoolEx<NEffectUpdateDecorator::CTextureAnimationRandomDecorator>::`scalar deleting destructor', COMDAT
; _this$ = ecx
  00000	55		 push	 ebp
  00001	8b ec		 mov	 ebp, esp
  00003	56		 push	 esi
  00004	8b f1		 mov	 esi, ecx
  00006	e8 00 00 00 00	 call	 ??1?$CDynamicPoolEx@VCTextureAnimationRandomDecorator@NEffectUpdateDecorator@@@@UAE@XZ ; CDynamicPoolEx<NEffectUpdateDecorator::CTextureAnimationRandomDecorator>::~CDynamicPoolEx<NEffectUpdateDecorator::CTextureAnimationRandomDecorator>
  0000b	f6 45 08 01	 test	 BYTE PTR ___flags$[ebp], 1
  0000f	74 0b		 je	 SHORT $LN4@scalar
  00011	6a 24		 push	 36			; 00000024H
  00013	56		 push	 esi
  00014	e8 00 00 00 00	 call	 ??3@YAXPAXI@Z		; operator delete
  00019	83 c4 08	 add	 esp, 8
$LN4@scalar:
  0001c	8b c6		 mov	 eax, esi
  0001e	5e		 pop	 esi
  0001f	5d		 pop	 ebp
  00020	c2 04 00	 ret	 4
??_G?$CDynamicPoolEx@VCTextureAnimationRandomDecorator@NEffectUpdateDecorator@@@@UAEPAXI@Z ENDP ; CDynamicPoolEx<NEffectUpdateDecorator::CTextureAnimationRandomDecorator>::`scalar deleting destructor'
_TEXT	ENDS
; Function compile flags: /Ogtp
; File D:\Metin2 Server Files\mainline\SRC_2014\Metin2Client\eterLib\Pool.h
;	COMDAT ?Delete@?$CDynamicPoolEx@VCTextureAnimationRandomDecorator@NEffectUpdateDecorator@@@@KAXPAVCTextureAnimationRandomDecorator@NEffectUpdateDecorator@@@Z
_TEXT	SEGMENT
_pkData$ = 8						; size = 4
?Delete@?$CDynamicPoolEx@VCTextureAnimationRandomDecorator@NEffectUpdateDecorator@@@@KAXPAVCTextureAnimationRandomDecorator@NEffectUpdateDecorator@@@Z PROC ; CDynamicPoolEx<NEffectUpdateDecorator::CTextureAnimationRandomDecorator>::Delete, COMDAT

; 224  : 			::operator delete(pkData);

  00000	e9 00 00 00 00	 jmp	 ??3@YAXPAX@Z		; operator delete
?Delete@?$CDynamicPoolEx@VCTextureAnimationRandomDecorator@NEffectUpdateDecorator@@@@KAXPAVCTextureAnimationRandomDecorator@NEffectUpdateDecorator@@@Z ENDP ; CDynamicPoolEx<NEffectUpdateDecorator::CTextureAnimationRandomDecorator>::Delete
_TEXT	ENDS
; Function compile flags: /Ogtp
; File D:\Metin2 Server Files\mainline\SRC_2014\Metin2Client\eterLib\Pool.h
; File C:\Program Files (x86)\Microsoft Visual Studio\2019\Community\VC\Tools\MSVC\14.28.29333\include\vector
; File C:\Program Files (x86)\Microsoft Visual Studio\2019\Community\VC\Tools\MSVC\14.28.29333\include\algorithm
; File D:\Metin2 Server Files\mainline\SRC_2014\Metin2Client\eterLib\Pool.h
; File C:\Program Files (x86)\Microsoft Visual Studio\2019\Community\VC\Tools\MSVC\14.28.29333\include\algorithm
; File D:\Metin2 Server Files\mainline\SRC_2014\Metin2Client\eterLib\Pool.h
; File C:\Program Files (x86)\Microsoft Visual Studio\2019\Community\VC\Tools\MSVC\14.28.29333\include\algorithm
; File D:\Metin2 Server Files\mainline\SRC_2014\Metin2Client\eterLib\Pool.h
; File C:\Program Files (x86)\Microsoft Visual Studio\2019\Community\VC\Tools\MSVC\14.28.29333\include\vector
; File C:\Program Files (x86)\Microsoft Visual Studio\2019\Community\VC\Tools\MSVC\14.28.29333\include\xmemory
; File C:\Program Files (x86)\Microsoft Visual Studio\2019\Community\VC\Tools\MSVC\14.28.29333\include\vector
; File C:\Program Files (x86)\Microsoft Visual Studio\2019\Community\VC\Tools\MSVC\14.28.29333\include\xmemory
; File C:\Program Files (x86)\Microsoft Visual Studio\2019\Community\VC\Tools\MSVC\14.28.29333\include\vector
; File C:\Program Files (x86)\Microsoft Visual Studio\2019\Community\VC\Tools\MSVC\14.28.29333\include\xmemory
; File C:\Program Files (x86)\Microsoft Visual Studio\2019\Community\VC\Tools\MSVC\14.28.29333\include\vector
; File C:\Program Files (x86)\Microsoft Visual Studio\2019\Community\VC\Tools\MSVC\14.28.29333\include\xmemory
; File C:\Program Files (x86)\Microsoft Visual Studio\2019\Community\VC\Tools\MSVC\14.28.29333\include\vector
; File D:\Metin2 Server Files\mainline\SRC_2014\Metin2Client\eterLib\Pool.h
;	COMDAT ??1?$CDynamicPoolEx@VCTextureAnimationRandomDecorator@NEffectUpdateDecorator@@@@UAE@XZ
_TEXT	SEGMENT
??1?$CDynamicPoolEx@VCTextureAnimationRandomDecorator@NEffectUpdateDecorator@@@@UAE@XZ PROC ; CDynamicPoolEx<NEffectUpdateDecorator::CTextureAnimationRandomDecorator>::~CDynamicPoolEx<NEffectUpdateDecorator::CTextureAnimationRandomDecorator>, COMDAT
; _this$ = ecx

; 132  : 		{

  00000	53		 push	 ebx
  00001	56		 push	 esi
  00002	57		 push	 edi
  00003	8b f9		 mov	 edi, ecx
  00005	c7 07 00 00 00
	00		 mov	 DWORD PTR [edi], OFFSET ??_7?$CDynamicPoolEx@VCTextureAnimationRandomDecorator@NEffectUpdateDecorator@@@@6B@
; File C:\Program Files (x86)\Microsoft Visual Studio\2019\Community\VC\Tools\MSVC\14.28.29333\include\vector

; 42   :     _Vector_const_iterator(_Tptr _Parg, const _Container_base* _Pvector) noexcept : _Ptr(_Parg) {

  0000b	8b 5f 08	 mov	 ebx, DWORD PTR [edi+8]
  0000e	8b 77 04	 mov	 esi, DWORD PTR [edi+4]
; File C:\Program Files (x86)\Microsoft Visual Studio\2019\Community\VC\Tools\MSVC\14.28.29333\include\algorithm

; 307  :     for (; _UFirst != _ULast; ++_UFirst) {

  00011	3b f3		 cmp	 esi, ebx
  00013	74 14		 je	 SHORT $LN19@CDynamicPo
$LL20@CDynamicPo:
; File D:\Metin2 Server Files\mainline\SRC_2014\Metin2Client\eterLib\Pool.h

; 224  : 			::operator delete(pkData);

  00015	ff 36		 push	 DWORD PTR [esi]
  00017	e8 00 00 00 00	 call	 ??3@YAXPAX@Z		; operator delete
; File C:\Program Files (x86)\Microsoft Visual Studio\2019\Community\VC\Tools\MSVC\14.28.29333\include\algorithm

; 307  :     for (; _UFirst != _ULast; ++_UFirst) {

  0001c	83 c6 04	 add	 esi, 4
; File D:\Metin2 Server Files\mainline\SRC_2014\Metin2Client\eterLib\Pool.h

; 224  : 			::operator delete(pkData);

  0001f	83 c4 04	 add	 esp, 4
; File C:\Program Files (x86)\Microsoft Visual Studio\2019\Community\VC\Tools\MSVC\14.28.29333\include\algorithm

; 307  :     for (; _UFirst != _ULast; ++_UFirst) {

  00022	3b f3		 cmp	 esi, ebx
  00024	75 ef		 jne	 SHORT $LL20@CDynamicPo
  00026	8b 77 04	 mov	 esi, DWORD PTR [edi+4]
$LN19@CDynamicPo:
; File D:\Metin2 Server Files\mainline\SRC_2014\Metin2Client\eterLib\Pool.h

; 162  : 			m_kVct_pkFree.clear();

  00029	8b 4f 10	 mov	 ecx, DWORD PTR [edi+16]
  0002c	89 77 08	 mov	 DWORD PTR [edi+8], esi
  0002f	89 4f 14	 mov	 DWORD PTR [edi+20], ecx
; File C:\Program Files (x86)\Microsoft Visual Studio\2019\Community\VC\Tools\MSVC\14.28.29333\include\vector

; 1694 :         if (_Myfirst) { // destroy and deallocate old array

  00032	85 c9		 test	 ecx, ecx
  00034	74 27		 je	 SHORT $LN27@CDynamicPo

; 1695 :             _Destroy(_Myfirst, _Mylast);
; 1696 :             _Getal().deallocate(_Myfirst, static_cast<size_type>(_Myend - _Myfirst));

  00036	8b 47 18	 mov	 eax, DWORD PTR [edi+24]
  00039	2b c1		 sub	 eax, ecx
; File C:\Program Files (x86)\Microsoft Visual Studio\2019\Community\VC\Tools\MSVC\14.28.29333\include\xmemory

; 810  :         _Deallocate<_New_alignof<_Ty>>(_Ptr, sizeof(_Ty) * _Count);

  0003b	83 e0 fc	 and	 eax, -4			; fffffffcH
  0003e	50		 push	 eax
  0003f	51		 push	 ecx
  00040	e8 00 00 00 00	 call	 ??$_Deallocate@$07$0A@@std@@YAXPAXI@Z ; std::_Deallocate<8,0>
; File C:\Program Files (x86)\Microsoft Visual Studio\2019\Community\VC\Tools\MSVC\14.28.29333\include\vector

; 1698 :             _Myfirst = pointer();

  00045	c7 47 10 00 00
	00 00		 mov	 DWORD PTR [edi+16], 0
; File C:\Program Files (x86)\Microsoft Visual Studio\2019\Community\VC\Tools\MSVC\14.28.29333\include\xmemory

; 810  :         _Deallocate<_New_alignof<_Ty>>(_Ptr, sizeof(_Ty) * _Count);

  0004c	83 c4 08	 add	 esp, 8
; File C:\Program Files (x86)\Microsoft Visual Studio\2019\Community\VC\Tools\MSVC\14.28.29333\include\vector

; 1699 :             _Mylast  = pointer();

  0004f	c7 47 14 00 00
	00 00		 mov	 DWORD PTR [edi+20], 0

; 1700 :             _Myend   = pointer();

  00056	c7 47 18 00 00
	00 00		 mov	 DWORD PTR [edi+24], 0
$LN27@CDynamicPo:

; 1694 :         if (_Myfirst) { // destroy and deallocate old array

  0005d	8b 4f 04	 mov	 ecx, DWORD PTR [edi+4]
  00060	85 c9		 test	 ecx, ecx
  00062	74 27		 je	 SHORT $LN34@CDynamicPo

; 1695 :             _Destroy(_Myfirst, _Mylast);
; 1696 :             _Getal().deallocate(_Myfirst, static_cast<size_type>(_Myend - _Myfirst));

  00064	8b 47 0c	 mov	 eax, DWORD PTR [edi+12]
  00067	2b c1		 sub	 eax, ecx
; File C:\Program Files (x86)\Microsoft Visual Studio\2019\Community\VC\Tools\MSVC\14.28.29333\include\xmemory

; 810  :         _Deallocate<_New_alignof<_Ty>>(_Ptr, sizeof(_Ty) * _Count);

  00069	83 e0 fc	 and	 eax, -4			; fffffffcH
  0006c	50		 push	 eax
  0006d	51		 push	 ecx
  0006e	e8 00 00 00 00	 call	 ??$_Deallocate@$07$0A@@std@@YAXPAXI@Z ; std::_Deallocate<8,0>
; File C:\Program Files (x86)\Microsoft Visual Studio\2019\Community\VC\Tools\MSVC\14.28.29333\include\vector

; 1698 :             _Myfirst = pointer();

  00073	c7 47 04 00 00
	00 00		 mov	 DWORD PTR [edi+4], 0
; File C:\Program Files (x86)\Microsoft Visual Studio\2019\Community\VC\Tools\MSVC\14.28.29333\include\xmemory

; 810  :         _Deallocate<_New_alignof<_Ty>>(_Ptr, sizeof(_Ty) * _Count);

  0007a	83 c4 08	 add	 esp, 8
; File C:\Program Files (x86)\Microsoft Visual Studio\2019\Community\VC\Tools\MSVC\14.28.29333\include\vector

; 1699 :             _Mylast  = pointer();

  0007d	c7 47 08 00 00
	00 00		 mov	 DWORD PTR [edi+8], 0

; 1700 :             _Myend   = pointer();

  00084	c7 47 0c 00 00
	00 00		 mov	 DWORD PTR [edi+12], 0
$LN34@CDynamicPo:
  0008b	5f		 pop	 edi
; File D:\Metin2 Server Files\mainline\SRC_2014\Metin2Client\eterLib\Pool.h

; 142  : 		}

  0008c	5e		 pop	 esi
  0008d	5b		 pop	 ebx
  0008e	c3		 ret	 0
??1?$CDynamicPoolEx@VCTextureAnimationRandomDecorator@NEffectUpdateDecorator@@@@UAE@XZ ENDP ; CDynamicPoolEx<NEffectUpdateDecorator::CTextureAnimationRandomDecorator>::~CDynamicPoolEx<NEffectUpdateDecorator::CTextureAnimationRandomDecorator>
_TEXT	ENDS
; Function compile flags: /Ogtp
;	COMDAT ??_G?$CDynamicPoolEx@VCAirResistanceDecorator@NEffectUpdateDecorator@@@@UAEPAXI@Z
_TEXT	SEGMENT
___flags$ = 8						; size = 4
??_G?$CDynamicPoolEx@VCAirResistanceDecorator@NEffectUpdateDecorator@@@@UAEPAXI@Z PROC ; CDynamicPoolEx<NEffectUpdateDecorator::CAirResistanceDecorator>::`scalar deleting destructor', COMDAT
; _this$ = ecx
  00000	55		 push	 ebp
  00001	8b ec		 mov	 ebp, esp
  00003	56		 push	 esi
  00004	8b f1		 mov	 esi, ecx
  00006	e8 00 00 00 00	 call	 ??1?$CDynamicPoolEx@VCAirResistanceDecorator@NEffectUpdateDecorator@@@@UAE@XZ ; CDynamicPoolEx<NEffectUpdateDecorator::CAirResistanceDecorator>::~CDynamicPoolEx<NEffectUpdateDecorator::CAirResistanceDecorator>
  0000b	f6 45 08 01	 test	 BYTE PTR ___flags$[ebp], 1
  0000f	74 0b		 je	 SHORT $LN4@scalar
  00011	6a 24		 push	 36			; 00000024H
  00013	56		 push	 esi
  00014	e8 00 00 00 00	 call	 ??3@YAXPAXI@Z		; operator delete
  00019	83 c4 08	 add	 esp, 8
$LN4@scalar:
  0001c	8b c6		 mov	 eax, esi
  0001e	5e		 pop	 esi
  0001f	5d		 pop	 ebp
  00020	c2 04 00	 ret	 4
??_G?$CDynamicPoolEx@VCAirResistanceDecorator@NEffectUpdateDecorator@@@@UAEPAXI@Z ENDP ; CDynamicPoolEx<NEffectUpdateDecorator::CAirResistanceDecorator>::`scalar deleting destructor'
_TEXT	ENDS
; Function compile flags: /Ogtp
; File D:\Metin2 Server Files\mainline\SRC_2014\Metin2Client\eterLib\Pool.h
;	COMDAT ?Delete@?$CDynamicPoolEx@VCAirResistanceDecorator@NEffectUpdateDecorator@@@@KAXPAVCAirResistanceDecorator@NEffectUpdateDecorator@@@Z
_TEXT	SEGMENT
_pkData$ = 8						; size = 4
?Delete@?$CDynamicPoolEx@VCAirResistanceDecorator@NEffectUpdateDecorator@@@@KAXPAVCAirResistanceDecorator@NEffectUpdateDecorator@@@Z PROC ; CDynamicPoolEx<NEffectUpdateDecorator::CAirResistanceDecorator>::Delete, COMDAT

; 224  : 			::operator delete(pkData);

  00000	e9 00 00 00 00	 jmp	 ??3@YAXPAX@Z		; operator delete
?Delete@?$CDynamicPoolEx@VCAirResistanceDecorator@NEffectUpdateDecorator@@@@KAXPAVCAirResistanceDecorator@NEffectUpdateDecorator@@@Z ENDP ; CDynamicPoolEx<NEffectUpdateDecorator::CAirResistanceDecorator>::Delete
_TEXT	ENDS
; Function compile flags: /Ogtp
; File D:\Metin2 Server Files\mainline\SRC_2014\Metin2Client\eterLib\Pool.h
; File C:\Program Files (x86)\Microsoft Visual Studio\2019\Community\VC\Tools\MSVC\14.28.29333\include\vector
; File C:\Program Files (x86)\Microsoft Visual Studio\2019\Community\VC\Tools\MSVC\14.28.29333\include\algorithm
; File D:\Metin2 Server Files\mainline\SRC_2014\Metin2Client\eterLib\Pool.h
; File C:\Program Files (x86)\Microsoft Visual Studio\2019\Community\VC\Tools\MSVC\14.28.29333\include\algorithm
; File D:\Metin2 Server Files\mainline\SRC_2014\Metin2Client\eterLib\Pool.h
; File C:\Program Files (x86)\Microsoft Visual Studio\2019\Community\VC\Tools\MSVC\14.28.29333\include\algorithm
; File D:\Metin2 Server Files\mainline\SRC_2014\Metin2Client\eterLib\Pool.h
; File C:\Program Files (x86)\Microsoft Visual Studio\2019\Community\VC\Tools\MSVC\14.28.29333\include\vector
; File C:\Program Files (x86)\Microsoft Visual Studio\2019\Community\VC\Tools\MSVC\14.28.29333\include\xmemory
; File C:\Program Files (x86)\Microsoft Visual Studio\2019\Community\VC\Tools\MSVC\14.28.29333\include\vector
; File C:\Program Files (x86)\Microsoft Visual Studio\2019\Community\VC\Tools\MSVC\14.28.29333\include\xmemory
; File C:\Program Files (x86)\Microsoft Visual Studio\2019\Community\VC\Tools\MSVC\14.28.29333\include\vector
; File C:\Program Files (x86)\Microsoft Visual Studio\2019\Community\VC\Tools\MSVC\14.28.29333\include\xmemory
; File C:\Program Files (x86)\Microsoft Visual Studio\2019\Community\VC\Tools\MSVC\14.28.29333\include\vector
; File C:\Program Files (x86)\Microsoft Visual Studio\2019\Community\VC\Tools\MSVC\14.28.29333\include\xmemory
; File C:\Program Files (x86)\Microsoft Visual Studio\2019\Community\VC\Tools\MSVC\14.28.29333\include\vector
; File D:\Metin2 Server Files\mainline\SRC_2014\Metin2Client\eterLib\Pool.h
;	COMDAT ??1?$CDynamicPoolEx@VCAirResistanceDecorator@NEffectUpdateDecorator@@@@UAE@XZ
_TEXT	SEGMENT
??1?$CDynamicPoolEx@VCAirResistanceDecorator@NEffectUpdateDecorator@@@@UAE@XZ PROC ; CDynamicPoolEx<NEffectUpdateDecorator::CAirResistanceDecorator>::~CDynamicPoolEx<NEffectUpdateDecorator::CAirResistanceDecorator>, COMDAT
; _this$ = ecx

; 132  : 		{

  00000	53		 push	 ebx
  00001	56		 push	 esi
  00002	57		 push	 edi
  00003	8b f9		 mov	 edi, ecx
  00005	c7 07 00 00 00
	00		 mov	 DWORD PTR [edi], OFFSET ??_7?$CDynamicPoolEx@VCAirResistanceDecorator@NEffectUpdateDecorator@@@@6B@
; File C:\Program Files (x86)\Microsoft Visual Studio\2019\Community\VC\Tools\MSVC\14.28.29333\include\vector

; 42   :     _Vector_const_iterator(_Tptr _Parg, const _Container_base* _Pvector) noexcept : _Ptr(_Parg) {

  0000b	8b 5f 08	 mov	 ebx, DWORD PTR [edi+8]
  0000e	8b 77 04	 mov	 esi, DWORD PTR [edi+4]
; File C:\Program Files (x86)\Microsoft Visual Studio\2019\Community\VC\Tools\MSVC\14.28.29333\include\algorithm

; 307  :     for (; _UFirst != _ULast; ++_UFirst) {

  00011	3b f3		 cmp	 esi, ebx
  00013	74 14		 je	 SHORT $LN19@CDynamicPo
$LL20@CDynamicPo:
; File D:\Metin2 Server Files\mainline\SRC_2014\Metin2Client\eterLib\Pool.h

; 224  : 			::operator delete(pkData);

  00015	ff 36		 push	 DWORD PTR [esi]
  00017	e8 00 00 00 00	 call	 ??3@YAXPAX@Z		; operator delete
; File C:\Program Files (x86)\Microsoft Visual Studio\2019\Community\VC\Tools\MSVC\14.28.29333\include\algorithm

; 307  :     for (; _UFirst != _ULast; ++_UFirst) {

  0001c	83 c6 04	 add	 esi, 4
; File D:\Metin2 Server Files\mainline\SRC_2014\Metin2Client\eterLib\Pool.h

; 224  : 			::operator delete(pkData);

  0001f	83 c4 04	 add	 esp, 4
; File C:\Program Files (x86)\Microsoft Visual Studio\2019\Community\VC\Tools\MSVC\14.28.29333\include\algorithm

; 307  :     for (; _UFirst != _ULast; ++_UFirst) {

  00022	3b f3		 cmp	 esi, ebx
  00024	75 ef		 jne	 SHORT $LL20@CDynamicPo
  00026	8b 77 04	 mov	 esi, DWORD PTR [edi+4]
$LN19@CDynamicPo:
; File D:\Metin2 Server Files\mainline\SRC_2014\Metin2Client\eterLib\Pool.h

; 162  : 			m_kVct_pkFree.clear();

  00029	8b 4f 10	 mov	 ecx, DWORD PTR [edi+16]
  0002c	89 77 08	 mov	 DWORD PTR [edi+8], esi
  0002f	89 4f 14	 mov	 DWORD PTR [edi+20], ecx
; File C:\Program Files (x86)\Microsoft Visual Studio\2019\Community\VC\Tools\MSVC\14.28.29333\include\vector

; 1694 :         if (_Myfirst) { // destroy and deallocate old array

  00032	85 c9		 test	 ecx, ecx
  00034	74 27		 je	 SHORT $LN27@CDynamicPo

; 1695 :             _Destroy(_Myfirst, _Mylast);
; 1696 :             _Getal().deallocate(_Myfirst, static_cast<size_type>(_Myend - _Myfirst));

  00036	8b 47 18	 mov	 eax, DWORD PTR [edi+24]
  00039	2b c1		 sub	 eax, ecx
; File C:\Program Files (x86)\Microsoft Visual Studio\2019\Community\VC\Tools\MSVC\14.28.29333\include\xmemory

; 810  :         _Deallocate<_New_alignof<_Ty>>(_Ptr, sizeof(_Ty) * _Count);

  0003b	83 e0 fc	 and	 eax, -4			; fffffffcH
  0003e	50		 push	 eax
  0003f	51		 push	 ecx
  00040	e8 00 00 00 00	 call	 ??$_Deallocate@$07$0A@@std@@YAXPAXI@Z ; std::_Deallocate<8,0>
; File C:\Program Files (x86)\Microsoft Visual Studio\2019\Community\VC\Tools\MSVC\14.28.29333\include\vector

; 1698 :             _Myfirst = pointer();

  00045	c7 47 10 00 00
	00 00		 mov	 DWORD PTR [edi+16], 0
; File C:\Program Files (x86)\Microsoft Visual Studio\2019\Community\VC\Tools\MSVC\14.28.29333\include\xmemory

; 810  :         _Deallocate<_New_alignof<_Ty>>(_Ptr, sizeof(_Ty) * _Count);

  0004c	83 c4 08	 add	 esp, 8
; File C:\Program Files (x86)\Microsoft Visual Studio\2019\Community\VC\Tools\MSVC\14.28.29333\include\vector

; 1699 :             _Mylast  = pointer();

  0004f	c7 47 14 00 00
	00 00		 mov	 DWORD PTR [edi+20], 0

; 1700 :             _Myend   = pointer();

  00056	c7 47 18 00 00
	00 00		 mov	 DWORD PTR [edi+24], 0
$LN27@CDynamicPo:

; 1694 :         if (_Myfirst) { // destroy and deallocate old array

  0005d	8b 4f 04	 mov	 ecx, DWORD PTR [edi+4]
  00060	85 c9		 test	 ecx, ecx
  00062	74 27		 je	 SHORT $LN34@CDynamicPo

; 1695 :             _Destroy(_Myfirst, _Mylast);
; 1696 :             _Getal().deallocate(_Myfirst, static_cast<size_type>(_Myend - _Myfirst));

  00064	8b 47 0c	 mov	 eax, DWORD PTR [edi+12]
  00067	2b c1		 sub	 eax, ecx
; File C:\Program Files (x86)\Microsoft Visual Studio\2019\Community\VC\Tools\MSVC\14.28.29333\include\xmemory

; 810  :         _Deallocate<_New_alignof<_Ty>>(_Ptr, sizeof(_Ty) * _Count);

  00069	83 e0 fc	 and	 eax, -4			; fffffffcH
  0006c	50		 push	 eax
  0006d	51		 push	 ecx
  0006e	e8 00 00 00 00	 call	 ??$_Deallocate@$07$0A@@std@@YAXPAXI@Z ; std::_Deallocate<8,0>
; File C:\Program Files (x86)\Microsoft Visual Studio\2019\Community\VC\Tools\MSVC\14.28.29333\include\vector

; 1698 :             _Myfirst = pointer();

  00073	c7 47 04 00 00
	00 00		 mov	 DWORD PTR [edi+4], 0
; File C:\Program Files (x86)\Microsoft Visual Studio\2019\Community\VC\Tools\MSVC\14.28.29333\include\xmemory

; 810  :         _Deallocate<_New_alignof<_Ty>>(_Ptr, sizeof(_Ty) * _Count);

  0007a	83 c4 08	 add	 esp, 8
; File C:\Program Files (x86)\Microsoft Visual Studio\2019\Community\VC\Tools\MSVC\14.28.29333\include\vector

; 1699 :             _Mylast  = pointer();

  0007d	c7 47 08 00 00
	00 00		 mov	 DWORD PTR [edi+8], 0

; 1700 :             _Myend   = pointer();

  00084	c7 47 0c 00 00
	00 00		 mov	 DWORD PTR [edi+12], 0
$LN34@CDynamicPo:
  0008b	5f		 pop	 edi
; File D:\Metin2 Server Files\mainline\SRC_2014\Metin2Client\eterLib\Pool.h

; 142  : 		}

  0008c	5e		 pop	 esi
  0008d	5b		 pop	 ebx
  0008e	c3		 ret	 0
??1?$CDynamicPoolEx@VCAirResistanceDecorator@NEffectUpdateDecorator@@@@UAE@XZ ENDP ; CDynamicPoolEx<NEffectUpdateDecorator::CAirResistanceDecorator>::~CDynamicPoolEx<NEffectUpdateDecorator::CAirResistanceDecorator>
_TEXT	ENDS
; Function compile flags: /Ogtp
;	COMDAT ??_G?$CDynamicPoolEx@VCGravityDecorator@NEffectUpdateDecorator@@@@UAEPAXI@Z
_TEXT	SEGMENT
___flags$ = 8						; size = 4
??_G?$CDynamicPoolEx@VCGravityDecorator@NEffectUpdateDecorator@@@@UAEPAXI@Z PROC ; CDynamicPoolEx<NEffectUpdateDecorator::CGravityDecorator>::`scalar deleting destructor', COMDAT
; _this$ = ecx
  00000	55		 push	 ebp
  00001	8b ec		 mov	 ebp, esp
  00003	56		 push	 esi
  00004	8b f1		 mov	 esi, ecx
  00006	e8 00 00 00 00	 call	 ??1?$CDynamicPoolEx@VCGravityDecorator@NEffectUpdateDecorator@@@@UAE@XZ ; CDynamicPoolEx<NEffectUpdateDecorator::CGravityDecorator>::~CDynamicPoolEx<NEffectUpdateDecorator::CGravityDecorator>
  0000b	f6 45 08 01	 test	 BYTE PTR ___flags$[ebp], 1
  0000f	74 0b		 je	 SHORT $LN4@scalar
  00011	6a 24		 push	 36			; 00000024H
  00013	56		 push	 esi
  00014	e8 00 00 00 00	 call	 ??3@YAXPAXI@Z		; operator delete
  00019	83 c4 08	 add	 esp, 8
$LN4@scalar:
  0001c	8b c6		 mov	 eax, esi
  0001e	5e		 pop	 esi
  0001f	5d		 pop	 ebp
  00020	c2 04 00	 ret	 4
??_G?$CDynamicPoolEx@VCGravityDecorator@NEffectUpdateDecorator@@@@UAEPAXI@Z ENDP ; CDynamicPoolEx<NEffectUpdateDecorator::CGravityDecorator>::`scalar deleting destructor'
_TEXT	ENDS
; Function compile flags: /Ogtp
; File D:\Metin2 Server Files\mainline\SRC_2014\Metin2Client\eterLib\Pool.h
;	COMDAT ?Delete@?$CDynamicPoolEx@VCGravityDecorator@NEffectUpdateDecorator@@@@KAXPAVCGravityDecorator@NEffectUpdateDecorator@@@Z
_TEXT	SEGMENT
_pkData$ = 8						; size = 4
?Delete@?$CDynamicPoolEx@VCGravityDecorator@NEffectUpdateDecorator@@@@KAXPAVCGravityDecorator@NEffectUpdateDecorator@@@Z PROC ; CDynamicPoolEx<NEffectUpdateDecorator::CGravityDecorator>::Delete, COMDAT

; 224  : 			::operator delete(pkData);

  00000	e9 00 00 00 00	 jmp	 ??3@YAXPAX@Z		; operator delete
?Delete@?$CDynamicPoolEx@VCGravityDecorator@NEffectUpdateDecorator@@@@KAXPAVCGravityDecorator@NEffectUpdateDecorator@@@Z ENDP ; CDynamicPoolEx<NEffectUpdateDecorator::CGravityDecorator>::Delete
_TEXT	ENDS
; Function compile flags: /Ogtp
; File D:\Metin2 Server Files\mainline\SRC_2014\Metin2Client\eterLib\Pool.h
; File C:\Program Files (x86)\Microsoft Visual Studio\2019\Community\VC\Tools\MSVC\14.28.29333\include\vector
; File C:\Program Files (x86)\Microsoft Visual Studio\2019\Community\VC\Tools\MSVC\14.28.29333\include\algorithm
; File D:\Metin2 Server Files\mainline\SRC_2014\Metin2Client\eterLib\Pool.h
; File C:\Program Files (x86)\Microsoft Visual Studio\2019\Community\VC\Tools\MSVC\14.28.29333\include\algorithm
; File D:\Metin2 Server Files\mainline\SRC_2014\Metin2Client\eterLib\Pool.h
; File C:\Program Files (x86)\Microsoft Visual Studio\2019\Community\VC\Tools\MSVC\14.28.29333\include\algorithm
; File D:\Metin2 Server Files\mainline\SRC_2014\Metin2Client\eterLib\Pool.h
; File C:\Program Files (x86)\Microsoft Visual Studio\2019\Community\VC\Tools\MSVC\14.28.29333\include\vector
; File C:\Program Files (x86)\Microsoft Visual Studio\2019\Community\VC\Tools\MSVC\14.28.29333\include\xmemory
; File C:\Program Files (x86)\Microsoft Visual Studio\2019\Community\VC\Tools\MSVC\14.28.29333\include\vector
; File C:\Program Files (x86)\Microsoft Visual Studio\2019\Community\VC\Tools\MSVC\14.28.29333\include\xmemory
; File C:\Program Files (x86)\Microsoft Visual Studio\2019\Community\VC\Tools\MSVC\14.28.29333\include\vector
; File C:\Program Files (x86)\Microsoft Visual Studio\2019\Community\VC\Tools\MSVC\14.28.29333\include\xmemory
; File C:\Program Files (x86)\Microsoft Visual Studio\2019\Community\VC\Tools\MSVC\14.28.29333\include\vector
; File C:\Program Files (x86)\Microsoft Visual Studio\2019\Community\VC\Tools\MSVC\14.28.29333\include\xmemory
; File C:\Program Files (x86)\Microsoft Visual Studio\2019\Community\VC\Tools\MSVC\14.28.29333\include\vector
; File D:\Metin2 Server Files\mainline\SRC_2014\Metin2Client\eterLib\Pool.h
;	COMDAT ??1?$CDynamicPoolEx@VCGravityDecorator@NEffectUpdateDecorator@@@@UAE@XZ
_TEXT	SEGMENT
??1?$CDynamicPoolEx@VCGravityDecorator@NEffectUpdateDecorator@@@@UAE@XZ PROC ; CDynamicPoolEx<NEffectUpdateDecorator::CGravityDecorator>::~CDynamicPoolEx<NEffectUpdateDecorator::CGravityDecorator>, COMDAT
; _this$ = ecx

; 132  : 		{

  00000	53		 push	 ebx
  00001	56		 push	 esi
  00002	57		 push	 edi
  00003	8b f9		 mov	 edi, ecx
  00005	c7 07 00 00 00
	00		 mov	 DWORD PTR [edi], OFFSET ??_7?$CDynamicPoolEx@VCGravityDecorator@NEffectUpdateDecorator@@@@6B@
; File C:\Program Files (x86)\Microsoft Visual Studio\2019\Community\VC\Tools\MSVC\14.28.29333\include\vector

; 42   :     _Vector_const_iterator(_Tptr _Parg, const _Container_base* _Pvector) noexcept : _Ptr(_Parg) {

  0000b	8b 5f 08	 mov	 ebx, DWORD PTR [edi+8]
  0000e	8b 77 04	 mov	 esi, DWORD PTR [edi+4]
; File C:\Program Files (x86)\Microsoft Visual Studio\2019\Community\VC\Tools\MSVC\14.28.29333\include\algorithm

; 307  :     for (; _UFirst != _ULast; ++_UFirst) {

  00011	3b f3		 cmp	 esi, ebx
  00013	74 14		 je	 SHORT $LN19@CDynamicPo
$LL20@CDynamicPo:
; File D:\Metin2 Server Files\mainline\SRC_2014\Metin2Client\eterLib\Pool.h

; 224  : 			::operator delete(pkData);

  00015	ff 36		 push	 DWORD PTR [esi]
  00017	e8 00 00 00 00	 call	 ??3@YAXPAX@Z		; operator delete
; File C:\Program Files (x86)\Microsoft Visual Studio\2019\Community\VC\Tools\MSVC\14.28.29333\include\algorithm

; 307  :     for (; _UFirst != _ULast; ++_UFirst) {

  0001c	83 c6 04	 add	 esi, 4
; File D:\Metin2 Server Files\mainline\SRC_2014\Metin2Client\eterLib\Pool.h

; 224  : 			::operator delete(pkData);

  0001f	83 c4 04	 add	 esp, 4
; File C:\Program Files (x86)\Microsoft Visual Studio\2019\Community\VC\Tools\MSVC\14.28.29333\include\algorithm

; 307  :     for (; _UFirst != _ULast; ++_UFirst) {

  00022	3b f3		 cmp	 esi, ebx
  00024	75 ef		 jne	 SHORT $LL20@CDynamicPo
  00026	8b 77 04	 mov	 esi, DWORD PTR [edi+4]
$LN19@CDynamicPo:
; File D:\Metin2 Server Files\mainline\SRC_2014\Metin2Client\eterLib\Pool.h

; 162  : 			m_kVct_pkFree.clear();

  00029	8b 4f 10	 mov	 ecx, DWORD PTR [edi+16]
  0002c	89 77 08	 mov	 DWORD PTR [edi+8], esi
  0002f	89 4f 14	 mov	 DWORD PTR [edi+20], ecx
; File C:\Program Files (x86)\Microsoft Visual Studio\2019\Community\VC\Tools\MSVC\14.28.29333\include\vector

; 1694 :         if (_Myfirst) { // destroy and deallocate old array

  00032	85 c9		 test	 ecx, ecx
  00034	74 27		 je	 SHORT $LN27@CDynamicPo

; 1695 :             _Destroy(_Myfirst, _Mylast);
; 1696 :             _Getal().deallocate(_Myfirst, static_cast<size_type>(_Myend - _Myfirst));

  00036	8b 47 18	 mov	 eax, DWORD PTR [edi+24]
  00039	2b c1		 sub	 eax, ecx
; File C:\Program Files (x86)\Microsoft Visual Studio\2019\Community\VC\Tools\MSVC\14.28.29333\include\xmemory

; 810  :         _Deallocate<_New_alignof<_Ty>>(_Ptr, sizeof(_Ty) * _Count);

  0003b	83 e0 fc	 and	 eax, -4			; fffffffcH
  0003e	50		 push	 eax
  0003f	51		 push	 ecx
  00040	e8 00 00 00 00	 call	 ??$_Deallocate@$07$0A@@std@@YAXPAXI@Z ; std::_Deallocate<8,0>
; File C:\Program Files (x86)\Microsoft Visual Studio\2019\Community\VC\Tools\MSVC\14.28.29333\include\vector

; 1698 :             _Myfirst = pointer();

  00045	c7 47 10 00 00
	00 00		 mov	 DWORD PTR [edi+16], 0
; File C:\Program Files (x86)\Microsoft Visual Studio\2019\Community\VC\Tools\MSVC\14.28.29333\include\xmemory

; 810  :         _Deallocate<_New_alignof<_Ty>>(_Ptr, sizeof(_Ty) * _Count);

  0004c	83 c4 08	 add	 esp, 8
; File C:\Program Files (x86)\Microsoft Visual Studio\2019\Community\VC\Tools\MSVC\14.28.29333\include\vector

; 1699 :             _Mylast  = pointer();

  0004f	c7 47 14 00 00
	00 00		 mov	 DWORD PTR [edi+20], 0

; 1700 :             _Myend   = pointer();

  00056	c7 47 18 00 00
	00 00		 mov	 DWORD PTR [edi+24], 0
$LN27@CDynamicPo:

; 1694 :         if (_Myfirst) { // destroy and deallocate old array

  0005d	8b 4f 04	 mov	 ecx, DWORD PTR [edi+4]
  00060	85 c9		 test	 ecx, ecx
  00062	74 27		 je	 SHORT $LN34@CDynamicPo

; 1695 :             _Destroy(_Myfirst, _Mylast);
; 1696 :             _Getal().deallocate(_Myfirst, static_cast<size_type>(_Myend - _Myfirst));

  00064	8b 47 0c	 mov	 eax, DWORD PTR [edi+12]
  00067	2b c1		 sub	 eax, ecx
; File C:\Program Files (x86)\Microsoft Visual Studio\2019\Community\VC\Tools\MSVC\14.28.29333\include\xmemory

; 810  :         _Deallocate<_New_alignof<_Ty>>(_Ptr, sizeof(_Ty) * _Count);

  00069	83 e0 fc	 and	 eax, -4			; fffffffcH
  0006c	50		 push	 eax
  0006d	51		 push	 ecx
  0006e	e8 00 00 00 00	 call	 ??$_Deallocate@$07$0A@@std@@YAXPAXI@Z ; std::_Deallocate<8,0>
; File C:\Program Files (x86)\Microsoft Visual Studio\2019\Community\VC\Tools\MSVC\14.28.29333\include\vector

; 1698 :             _Myfirst = pointer();

  00073	c7 47 04 00 00
	00 00		 mov	 DWORD PTR [edi+4], 0
; File C:\Program Files (x86)\Microsoft Visual Studio\2019\Community\VC\Tools\MSVC\14.28.29333\include\xmemory

; 810  :         _Deallocate<_New_alignof<_Ty>>(_Ptr, sizeof(_Ty) * _Count);

  0007a	83 c4 08	 add	 esp, 8
; File C:\Program Files (x86)\Microsoft Visual Studio\2019\Community\VC\Tools\MSVC\14.28.29333\include\vector

; 1699 :             _Mylast  = pointer();

  0007d	c7 47 08 00 00
	00 00		 mov	 DWORD PTR [edi+8], 0

; 1700 :             _Myend   = pointer();

  00084	c7 47 0c 00 00
	00 00		 mov	 DWORD PTR [edi+12], 0
$LN34@CDynamicPo:
  0008b	5f		 pop	 edi
; File D:\Metin2 Server Files\mainline\SRC_2014\Metin2Client\eterLib\Pool.h

; 142  : 		}

  0008c	5e		 pop	 esi
  0008d	5b		 pop	 ebx
  0008e	c3		 ret	 0
??1?$CDynamicPoolEx@VCGravityDecorator@NEffectUpdateDecorator@@@@UAE@XZ ENDP ; CDynamicPoolEx<NEffectUpdateDecorator::CGravityDecorator>::~CDynamicPoolEx<NEffectUpdateDecorator::CGravityDecorator>
_TEXT	ENDS
; Function compile flags: /Ogtp
;	COMDAT ??_G?$CDynamicPoolEx@VCRotationDecorator@NEffectUpdateDecorator@@@@UAEPAXI@Z
_TEXT	SEGMENT
___flags$ = 8						; size = 4
??_G?$CDynamicPoolEx@VCRotationDecorator@NEffectUpdateDecorator@@@@UAEPAXI@Z PROC ; CDynamicPoolEx<NEffectUpdateDecorator::CRotationDecorator>::`scalar deleting destructor', COMDAT
; _this$ = ecx
  00000	55		 push	 ebp
  00001	8b ec		 mov	 ebp, esp
  00003	56		 push	 esi
  00004	8b f1		 mov	 esi, ecx
  00006	e8 00 00 00 00	 call	 ??1?$CDynamicPoolEx@VCRotationDecorator@NEffectUpdateDecorator@@@@UAE@XZ ; CDynamicPoolEx<NEffectUpdateDecorator::CRotationDecorator>::~CDynamicPoolEx<NEffectUpdateDecorator::CRotationDecorator>
  0000b	f6 45 08 01	 test	 BYTE PTR ___flags$[ebp], 1
  0000f	74 0b		 je	 SHORT $LN4@scalar
  00011	6a 24		 push	 36			; 00000024H
  00013	56		 push	 esi
  00014	e8 00 00 00 00	 call	 ??3@YAXPAXI@Z		; operator delete
  00019	83 c4 08	 add	 esp, 8
$LN4@scalar:
  0001c	8b c6		 mov	 eax, esi
  0001e	5e		 pop	 esi
  0001f	5d		 pop	 ebp
  00020	c2 04 00	 ret	 4
??_G?$CDynamicPoolEx@VCRotationDecorator@NEffectUpdateDecorator@@@@UAEPAXI@Z ENDP ; CDynamicPoolEx<NEffectUpdateDecorator::CRotationDecorator>::`scalar deleting destructor'
_TEXT	ENDS
; Function compile flags: /Ogtp
; File D:\Metin2 Server Files\mainline\SRC_2014\Metin2Client\eterLib\Pool.h
;	COMDAT ?Delete@?$CDynamicPoolEx@VCRotationDecorator@NEffectUpdateDecorator@@@@KAXPAVCRotationDecorator@NEffectUpdateDecorator@@@Z
_TEXT	SEGMENT
_pkData$ = 8						; size = 4
?Delete@?$CDynamicPoolEx@VCRotationDecorator@NEffectUpdateDecorator@@@@KAXPAVCRotationDecorator@NEffectUpdateDecorator@@@Z PROC ; CDynamicPoolEx<NEffectUpdateDecorator::CRotationDecorator>::Delete, COMDAT

; 224  : 			::operator delete(pkData);

  00000	e9 00 00 00 00	 jmp	 ??3@YAXPAX@Z		; operator delete
?Delete@?$CDynamicPoolEx@VCRotationDecorator@NEffectUpdateDecorator@@@@KAXPAVCRotationDecorator@NEffectUpdateDecorator@@@Z ENDP ; CDynamicPoolEx<NEffectUpdateDecorator::CRotationDecorator>::Delete
_TEXT	ENDS
; Function compile flags: /Ogtp
; File D:\Metin2 Server Files\mainline\SRC_2014\Metin2Client\eterLib\Pool.h
; File C:\Program Files (x86)\Microsoft Visual Studio\2019\Community\VC\Tools\MSVC\14.28.29333\include\vector
; File C:\Program Files (x86)\Microsoft Visual Studio\2019\Community\VC\Tools\MSVC\14.28.29333\include\algorithm
; File D:\Metin2 Server Files\mainline\SRC_2014\Metin2Client\eterLib\Pool.h
; File C:\Program Files (x86)\Microsoft Visual Studio\2019\Community\VC\Tools\MSVC\14.28.29333\include\algorithm
; File D:\Metin2 Server Files\mainline\SRC_2014\Metin2Client\eterLib\Pool.h
; File C:\Program Files (x86)\Microsoft Visual Studio\2019\Community\VC\Tools\MSVC\14.28.29333\include\algorithm
; File D:\Metin2 Server Files\mainline\SRC_2014\Metin2Client\eterLib\Pool.h
; File C:\Program Files (x86)\Microsoft Visual Studio\2019\Community\VC\Tools\MSVC\14.28.29333\include\vector
; File C:\Program Files (x86)\Microsoft Visual Studio\2019\Community\VC\Tools\MSVC\14.28.29333\include\xmemory
; File C:\Program Files (x86)\Microsoft Visual Studio\2019\Community\VC\Tools\MSVC\14.28.29333\include\vector
; File C:\Program Files (x86)\Microsoft Visual Studio\2019\Community\VC\Tools\MSVC\14.28.29333\include\xmemory
; File C:\Program Files (x86)\Microsoft Visual Studio\2019\Community\VC\Tools\MSVC\14.28.29333\include\vector
; File C:\Program Files (x86)\Microsoft Visual Studio\2019\Community\VC\Tools\MSVC\14.28.29333\include\xmemory
; File C:\Program Files (x86)\Microsoft Visual Studio\2019\Community\VC\Tools\MSVC\14.28.29333\include\vector
; File C:\Program Files (x86)\Microsoft Visual Studio\2019\Community\VC\Tools\MSVC\14.28.29333\include\xmemory
; File C:\Program Files (x86)\Microsoft Visual Studio\2019\Community\VC\Tools\MSVC\14.28.29333\include\vector
; File D:\Metin2 Server Files\mainline\SRC_2014\Metin2Client\eterLib\Pool.h
;	COMDAT ??1?$CDynamicPoolEx@VCRotationDecorator@NEffectUpdateDecorator@@@@UAE@XZ
_TEXT	SEGMENT
??1?$CDynamicPoolEx@VCRotationDecorator@NEffectUpdateDecorator@@@@UAE@XZ PROC ; CDynamicPoolEx<NEffectUpdateDecorator::CRotationDecorator>::~CDynamicPoolEx<NEffectUpdateDecorator::CRotationDecorator>, COMDAT
; _this$ = ecx

; 132  : 		{

  00000	53		 push	 ebx
  00001	56		 push	 esi
  00002	57		 push	 edi
  00003	8b f9		 mov	 edi, ecx
  00005	c7 07 00 00 00
	00		 mov	 DWORD PTR [edi], OFFSET ??_7?$CDynamicPoolEx@VCRotationDecorator@NEffectUpdateDecorator@@@@6B@
; File C:\Program Files (x86)\Microsoft Visual Studio\2019\Community\VC\Tools\MSVC\14.28.29333\include\vector

; 42   :     _Vector_const_iterator(_Tptr _Parg, const _Container_base* _Pvector) noexcept : _Ptr(_Parg) {

  0000b	8b 5f 08	 mov	 ebx, DWORD PTR [edi+8]
  0000e	8b 77 04	 mov	 esi, DWORD PTR [edi+4]
; File C:\Program Files (x86)\Microsoft Visual Studio\2019\Community\VC\Tools\MSVC\14.28.29333\include\algorithm

; 307  :     for (; _UFirst != _ULast; ++_UFirst) {

  00011	3b f3		 cmp	 esi, ebx
  00013	74 14		 je	 SHORT $LN19@CDynamicPo
$LL20@CDynamicPo:
; File D:\Metin2 Server Files\mainline\SRC_2014\Metin2Client\eterLib\Pool.h

; 224  : 			::operator delete(pkData);

  00015	ff 36		 push	 DWORD PTR [esi]
  00017	e8 00 00 00 00	 call	 ??3@YAXPAX@Z		; operator delete
; File C:\Program Files (x86)\Microsoft Visual Studio\2019\Community\VC\Tools\MSVC\14.28.29333\include\algorithm

; 307  :     for (; _UFirst != _ULast; ++_UFirst) {

  0001c	83 c6 04	 add	 esi, 4
; File D:\Metin2 Server Files\mainline\SRC_2014\Metin2Client\eterLib\Pool.h

; 224  : 			::operator delete(pkData);

  0001f	83 c4 04	 add	 esp, 4
; File C:\Program Files (x86)\Microsoft Visual Studio\2019\Community\VC\Tools\MSVC\14.28.29333\include\algorithm

; 307  :     for (; _UFirst != _ULast; ++_UFirst) {

  00022	3b f3		 cmp	 esi, ebx
  00024	75 ef		 jne	 SHORT $LL20@CDynamicPo
  00026	8b 77 04	 mov	 esi, DWORD PTR [edi+4]
$LN19@CDynamicPo:
; File D:\Metin2 Server Files\mainline\SRC_2014\Metin2Client\eterLib\Pool.h

; 162  : 			m_kVct_pkFree.clear();

  00029	8b 4f 10	 mov	 ecx, DWORD PTR [edi+16]
  0002c	89 77 08	 mov	 DWORD PTR [edi+8], esi
  0002f	89 4f 14	 mov	 DWORD PTR [edi+20], ecx
; File C:\Program Files (x86)\Microsoft Visual Studio\2019\Community\VC\Tools\MSVC\14.28.29333\include\vector

; 1694 :         if (_Myfirst) { // destroy and deallocate old array

  00032	85 c9		 test	 ecx, ecx
  00034	74 27		 je	 SHORT $LN27@CDynamicPo

; 1695 :             _Destroy(_Myfirst, _Mylast);
; 1696 :             _Getal().deallocate(_Myfirst, static_cast<size_type>(_Myend - _Myfirst));

  00036	8b 47 18	 mov	 eax, DWORD PTR [edi+24]
  00039	2b c1		 sub	 eax, ecx
; File C:\Program Files (x86)\Microsoft Visual Studio\2019\Community\VC\Tools\MSVC\14.28.29333\include\xmemory

; 810  :         _Deallocate<_New_alignof<_Ty>>(_Ptr, sizeof(_Ty) * _Count);

  0003b	83 e0 fc	 and	 eax, -4			; fffffffcH
  0003e	50		 push	 eax
  0003f	51		 push	 ecx
  00040	e8 00 00 00 00	 call	 ??$_Deallocate@$07$0A@@std@@YAXPAXI@Z ; std::_Deallocate<8,0>
; File C:\Program Files (x86)\Microsoft Visual Studio\2019\Community\VC\Tools\MSVC\14.28.29333\include\vector

; 1698 :             _Myfirst = pointer();

  00045	c7 47 10 00 00
	00 00		 mov	 DWORD PTR [edi+16], 0
; File C:\Program Files (x86)\Microsoft Visual Studio\2019\Community\VC\Tools\MSVC\14.28.29333\include\xmemory

; 810  :         _Deallocate<_New_alignof<_Ty>>(_Ptr, sizeof(_Ty) * _Count);

  0004c	83 c4 08	 add	 esp, 8
; File C:\Program Files (x86)\Microsoft Visual Studio\2019\Community\VC\Tools\MSVC\14.28.29333\include\vector

; 1699 :             _Mylast  = pointer();

  0004f	c7 47 14 00 00
	00 00		 mov	 DWORD PTR [edi+20], 0

; 1700 :             _Myend   = pointer();

  00056	c7 47 18 00 00
	00 00		 mov	 DWORD PTR [edi+24], 0
$LN27@CDynamicPo:

; 1694 :         if (_Myfirst) { // destroy and deallocate old array

  0005d	8b 4f 04	 mov	 ecx, DWORD PTR [edi+4]
  00060	85 c9		 test	 ecx, ecx
  00062	74 27		 je	 SHORT $LN34@CDynamicPo

; 1695 :             _Destroy(_Myfirst, _Mylast);
; 1696 :             _Getal().deallocate(_Myfirst, static_cast<size_type>(_Myend - _Myfirst));

  00064	8b 47 0c	 mov	 eax, DWORD PTR [edi+12]
  00067	2b c1		 sub	 eax, ecx
; File C:\Program Files (x86)\Microsoft Visual Studio\2019\Community\VC\Tools\MSVC\14.28.29333\include\xmemory

; 810  :         _Deallocate<_New_alignof<_Ty>>(_Ptr, sizeof(_Ty) * _Count);

  00069	83 e0 fc	 and	 eax, -4			; fffffffcH
  0006c	50		 push	 eax
  0006d	51		 push	 ecx
  0006e	e8 00 00 00 00	 call	 ??$_Deallocate@$07$0A@@std@@YAXPAXI@Z ; std::_Deallocate<8,0>
; File C:\Program Files (x86)\Microsoft Visual Studio\2019\Community\VC\Tools\MSVC\14.28.29333\include\vector

; 1698 :             _Myfirst = pointer();

  00073	c7 47 04 00 00
	00 00		 mov	 DWORD PTR [edi+4], 0
; File C:\Program Files (x86)\Microsoft Visual Studio\2019\Community\VC\Tools\MSVC\14.28.29333\include\xmemory

; 810  :         _Deallocate<_New_alignof<_Ty>>(_Ptr, sizeof(_Ty) * _Count);

  0007a	83 c4 08	 add	 esp, 8
; File C:\Program Files (x86)\Microsoft Visual Studio\2019\Community\VC\Tools\MSVC\14.28.29333\include\vector

; 1699 :             _Mylast  = pointer();

  0007d	c7 47 08 00 00
	00 00		 mov	 DWORD PTR [edi+8], 0

; 1700 :             _Myend   = pointer();

  00084	c7 47 0c 00 00
	00 00		 mov	 DWORD PTR [edi+12], 0
$LN34@CDynamicPo:
  0008b	5f		 pop	 edi
; File D:\Metin2 Server Files\mainline\SRC_2014\Metin2Client\eterLib\Pool.h

; 142  : 		}

  0008c	5e		 pop	 esi
  0008d	5b		 pop	 ebx
  0008e	c3		 ret	 0
??1?$CDynamicPoolEx@VCRotationDecorator@NEffectUpdateDecorator@@@@UAE@XZ ENDP ; CDynamicPoolEx<NEffectUpdateDecorator::CRotationDecorator>::~CDynamicPoolEx<NEffectUpdateDecorator::CRotationDecorator>
_TEXT	ENDS
; Function compile flags: /Ogtp
; File D:\Metin2 Server Files\mainline\SRC_2014\Metin2Client\UserInterface\UserInterface.cpp
;	COMDAT ?__IsLocaleVersion@@YA_NPAD@Z
_TEXT	SEGMENT
_lpCmdLine$ = 8						; size = 4
?__IsLocaleVersion@@YA_NPAD@Z PROC			; __IsLocaleVersion, COMDAT

; 507  : {

  00000	55		 push	 ebp
  00001	8b ec		 mov	 ebp, esp

; 508  : 	return (strcmp(lpCmdLine, "--perforce-revision") == 0);

  00003	8b 45 08	 mov	 eax, DWORD PTR _lpCmdLine$[ebp]
  00006	b9 00 00 00 00	 mov	 ecx, OFFSET ??_C@_0BE@FJLABEAB@?9?9perforce?9revision@
  0000b	0f 1f 44 00 00	 npad	 5
$LL3@IsLocaleVe:
  00010	8a 10		 mov	 dl, BYTE PTR [eax]
  00012	3a 11		 cmp	 dl, BYTE PTR [ecx]
  00014	75 1f		 jne	 SHORT $LN4@IsLocaleVe
  00016	84 d2		 test	 dl, dl
  00018	74 12		 je	 SHORT $LN5@IsLocaleVe
  0001a	8a 50 01	 mov	 dl, BYTE PTR [eax+1]
  0001d	3a 51 01	 cmp	 dl, BYTE PTR [ecx+1]
  00020	75 13		 jne	 SHORT $LN4@IsLocaleVe
  00022	83 c0 02	 add	 eax, 2
  00025	83 c1 02	 add	 ecx, 2
  00028	84 d2		 test	 dl, dl
  0002a	75 e4		 jne	 SHORT $LL3@IsLocaleVe
$LN5@IsLocaleVe:
  0002c	33 c0		 xor	 eax, eax
  0002e	85 c0		 test	 eax, eax
  00030	0f 94 c0	 sete	 al

; 509  : }

  00033	5d		 pop	 ebp
  00034	c3		 ret	 0
$LN4@IsLocaleVe:

; 508  : 	return (strcmp(lpCmdLine, "--perforce-revision") == 0);

  00035	1b c0		 sbb	 eax, eax
  00037	83 c8 01	 or	 eax, 1
  0003a	85 c0		 test	 eax, eax
  0003c	0f 94 c0	 sete	 al

; 509  : }

  0003f	5d		 pop	 ebp
  00040	c3		 ret	 0
?__IsLocaleVersion@@YA_NPAD@Z ENDP			; __IsLocaleVersion
_TEXT	ENDS
; Function compile flags: /Ogtp
; File D:\Metin2 Server Files\mainline\SRC_2014\Metin2Client\UserInterface\UserInterface.cpp
;	COMDAT ?__IsLocaleOption@@YA_NPAD@Z
_TEXT	SEGMENT
_lpCmdLine$ = 8						; size = 4
?__IsLocaleOption@@YA_NPAD@Z PROC			; __IsLocaleOption, COMDAT

; 502  : {

  00000	55		 push	 ebp
  00001	8b ec		 mov	 ebp, esp

; 503  : 	return (strcmp(lpCmdLine, "--locale") == 0);

  00003	8b 45 08	 mov	 eax, DWORD PTR _lpCmdLine$[ebp]
  00006	b9 00 00 00 00	 mov	 ecx, OFFSET ??_C@_08LJMAFCGB@?9?9locale@
  0000b	0f 1f 44 00 00	 npad	 5
$LL3@IsLocaleOp:
  00010	8a 10		 mov	 dl, BYTE PTR [eax]
  00012	3a 11		 cmp	 dl, BYTE PTR [ecx]
  00014	75 1f		 jne	 SHORT $LN4@IsLocaleOp
  00016	84 d2		 test	 dl, dl
  00018	74 12		 je	 SHORT $LN5@IsLocaleOp
  0001a	8a 50 01	 mov	 dl, BYTE PTR [eax+1]
  0001d	3a 51 01	 cmp	 dl, BYTE PTR [ecx+1]
  00020	75 13		 jne	 SHORT $LN4@IsLocaleOp
  00022	83 c0 02	 add	 eax, 2
  00025	83 c1 02	 add	 ecx, 2
  00028	84 d2		 test	 dl, dl
  0002a	75 e4		 jne	 SHORT $LL3@IsLocaleOp
$LN5@IsLocaleOp:
  0002c	33 c0		 xor	 eax, eax
  0002e	85 c0		 test	 eax, eax
  00030	0f 94 c0	 sete	 al

; 504  : }

  00033	5d		 pop	 ebp
  00034	c3		 ret	 0
$LN4@IsLocaleOp:

; 503  : 	return (strcmp(lpCmdLine, "--locale") == 0);

  00035	1b c0		 sbb	 eax, eax
  00037	83 c8 01	 or	 eax, 1
  0003a	85 c0		 test	 eax, eax
  0003c	0f 94 c0	 sete	 al

; 504  : }

  0003f	5d		 pop	 ebp
  00040	c3		 ret	 0
?__IsLocaleOption@@YA_NPAD@Z ENDP			; __IsLocaleOption
_TEXT	ENDS
; Function compile flags: /Ogtp
; File D:\Metin2 Server Files\mainline\SRC_2014\Metin2Client\UserInterface\UserInterface.cpp
;	COMDAT ?__PrintTimeStamp@@YAXXZ
_TEXT	SEGMENT
?__PrintTimeStamp@@YAXXZ PROC				; __PrintTimeStamp, COMDAT

; 487  : #ifdef	_DEBUG
; 488  : 	if (__IS_TEST_SERVER_MODE__)
; 489  : 		LogBoxf("METIN2 BINARY TEST DEBUG VERSION %s  ( MS C++ %d Compiled )", __TIMESTAMP__, _MSC_VER);
; 490  : 	else
; 491  : 		LogBoxf("METIN2 BINARY DEBUG VERSION %s ( MS C++ %d Compiled )", __TIMESTAMP__, _MSC_VER);
; 492  : 	
; 493  : #else
; 494  : 	if (__IS_TEST_SERVER_MODE__)

  00000	80 3d 00 00 00
	00 00		 cmp	 BYTE PTR ?__IS_TEST_SERVER_MODE__@@3_NA, 0 ; __IS_TEST_SERVER_MODE__
  00007	b9 00 00 00 00	 mov	 ecx, OFFSET ??_C@_0DL@IHCMKBOK@METIN2?5BINARY?5DISTRIBUTE?5VERSIO@

; 495  : 		LogBoxf("METIN2 BINARY TEST VERSION %s  ( MS C++ %d Compiled )", __TIMESTAMP__, _MSC_VER);
; 496  : 	else
; 497  : 		LogBoxf("METIN2 BINARY DISTRIBUTE VERSION %s ( MS C++ %d Compiled )", __TIMESTAMP__, _MSC_VER);			
; 498  : #endif			
; 499  : }

  0000c	68 88 07 00 00	 push	 1928			; 00000788H
  00011	b8 00 00 00 00	 mov	 eax, OFFSET ??_C@_0DG@JFMPGIL@METIN2?5BINARY?5TEST?5VERSION?5?$CFs?5?5@
  00016	0f 44 c1	 cmove	 eax, ecx
  00019	68 00 00 00 00	 push	 OFFSET ??_C@_0BJ@KIGAIBOE@Mon?5Feb?5?51?523?308?309?52021@
  0001e	50		 push	 eax
  0001f	e8 00 00 00 00	 call	 ?LogBoxf@@YAXPBDZZ	; LogBoxf
  00024	83 c4 0c	 add	 esp, 12			; 0000000cH
  00027	c3		 ret	 0
?__PrintTimeStamp@@YAXXZ ENDP				; __PrintTimeStamp
_TEXT	ENDS
; Function compile flags: /Ogtp
; File D:\Metin2 Server Files\mainline\SRC_2014\Metin2Client\UserInterface\UserInterface.cpp
;	COMDAT ?__IsTimeStampOption@@YA_NPAD@Z
_TEXT	SEGMENT
_lpCmdLine$ = 8						; size = 4
?__IsTimeStampOption@@YA_NPAD@Z PROC			; __IsTimeStampOption, COMDAT

; 480  : {

  00000	55		 push	 ebp
  00001	8b ec		 mov	 ebp, esp

; 481  : 	const char* TIMESTAMP = "/timestamp";
; 482  : 	return (strncmp(lpCmdLine, TIMESTAMP, strlen(TIMESTAMP))==0);

  00003	6a 0a		 push	 10			; 0000000aH
  00005	68 00 00 00 00	 push	 OFFSET ??_C@_0L@HBFAHJLE@?1timestamp@
  0000a	ff 75 08	 push	 DWORD PTR _lpCmdLine$[ebp]
  0000d	e8 00 00 00 00	 call	 _strncmp
  00012	83 c4 0c	 add	 esp, 12			; 0000000cH
  00015	85 c0		 test	 eax, eax
  00017	0f 94 c0	 sete	 al

; 483  : }

  0001a	5d		 pop	 ebp
  0001b	c3		 ret	 0
?__IsTimeStampOption@@YA_NPAD@Z ENDP			; __IsTimeStampOption
_TEXT	ENDS
; Function compile flags: /Ogtp
; File D:\Metin2 Server Files\mainline\SRC_2014\Metin2Client\UserInterface\UserInterface.cpp
;	COMDAT ?__ErrorPythonLibraryIsNotExist@@YAXXZ
_TEXT	SEGMENT
?__ErrorPythonLibraryIsNotExist@@YAXXZ PROC		; __ErrorPythonLibraryIsNotExist, COMDAT

; 476  : 	LogBoxf("FATAL ERROR!! Python Library file not exist!");

  00000	68 00 00 00 00	 push	 OFFSET ??_C@_0CN@OHDPHKKH@FATAL?5ERROR?$CB?$CB?5Python?5Library?5fi@
  00005	e8 00 00 00 00	 call	 ?LogBoxf@@YAXPBDZZ	; LogBoxf
  0000a	59		 pop	 ecx

; 477  : }

  0000b	c3		 ret	 0
?__ErrorPythonLibraryIsNotExist@@YAXXZ ENDP		; __ErrorPythonLibraryIsNotExist
_TEXT	ENDS
; Function compile flags: /Ogtp
; File D:\Metin2 Server Files\mainline\SRC_2014\Metin2Client\UserInterface\UserInterface.cpp
;	COMDAT ?DestroyMetin2GameMutex@@YAXPAX@Z
_TEXT	SEGMENT
_hMutex$ = 8						; size = 4
?DestroyMetin2GameMutex@@YAXPAX@Z PROC			; DestroyMetin2GameMutex, COMDAT

; 466  : {

  00000	55		 push	 ebp
  00001	8b ec		 mov	 ebp, esp

; 467  : 	if (hMutex)

  00003	8b 45 08	 mov	 eax, DWORD PTR _hMutex$[ebp]
  00006	85 c0		 test	 eax, eax
  00008	74 07		 je	 SHORT $LN2@DestroyMet

; 468  : 	{
; 469  : 		ReleaseMutex(hMutex);

  0000a	50		 push	 eax
  0000b	ff 15 00 00 00
	00		 call	 DWORD PTR __imp__ReleaseMutex@4
$LN2@DestroyMet:

; 470  : 		hMutex = NULL;
; 471  : 	}
; 472  : }

  00011	5d		 pop	 ebp
  00012	c3		 ret	 0
?DestroyMetin2GameMutex@@YAXPAX@Z ENDP			; DestroyMetin2GameMutex
_TEXT	ENDS
; Function compile flags: /Ogtp
; File D:\Metin2 Server Files\mainline\SRC_2014\Metin2Client\UserInterface\UserInterface.cpp
;	COMDAT ?CreateMetin2GameMutex@@YAPAXXZ
_TEXT	SEGMENT
_sa$ = -12						; size = 12
?CreateMetin2GameMutex@@YAPAXXZ PROC			; CreateMetin2GameMutex, COMDAT

; 455  : {

  00000	55		 push	 ebp
  00001	8b ec		 mov	 ebp, esp
  00003	83 ec 0c	 sub	 esp, 12			; 0000000cH

; 456  : 	SECURITY_ATTRIBUTES sa;
; 457  : 	ZeroMemory(&sa, sizeof(SECURITY_ATTRIBUTES));
; 458  : 	sa.nLength				= sizeof(sa);
; 459  : 	sa.lpSecurityDescriptor	= NULL;
; 460  : 	sa.bInheritHandle		= FALSE;
; 461  : 
; 462  : 	return CreateMutex(&sa, FALSE, "Metin2GameMutex");

  00006	68 00 00 00 00	 push	 OFFSET ??_C@_0BA@OEEELOKH@Metin2GameMutex@
  0000b	6a 00		 push	 0
  0000d	8d 45 f4	 lea	 eax, DWORD PTR _sa$[ebp]
  00010	c7 45 f4 0c 00
	00 00		 mov	 DWORD PTR _sa$[ebp], 12	; 0000000cH
  00017	50		 push	 eax
  00018	c7 45 f8 00 00
	00 00		 mov	 DWORD PTR _sa$[ebp+4], 0
  0001f	c7 45 fc 00 00
	00 00		 mov	 DWORD PTR _sa$[ebp+8], 0
  00026	ff 15 00 00 00
	00		 call	 DWORD PTR __imp__CreateMutexA@12

; 463  : }

  0002c	8b e5		 mov	 esp, ebp
  0002e	5d		 pop	 ebp
  0002f	c3		 ret	 0
?CreateMetin2GameMutex@@YAPAXXZ ENDP			; CreateMetin2GameMutex
_TEXT	ENDS
; Function compile flags: /Ogtp
;	COMDAT ??__FEterPackManager@?1??Main@@YA_NPAUHINSTANCE__@@PAD@Z@YAXXZ
text$yd	SEGMENT
??__FEterPackManager@?1??Main@@YA_NPAUHINSTANCE__@@PAD@Z@YAXXZ PROC ; `Main'::`2'::`dynamic atexit destructor for 'EterPackManager'', COMDAT
  00000	b9 00 00 00 00	 mov	 ecx, OFFSET ?EterPackManager@?1??Main@@YA_NPAUHINSTANCE__@@PAD@Z@4VCEterPackManager@@A
  00005	e9 00 00 00 00	 jmp	 ??1CEterPackManager@@UAE@XZ ; CEterPackManager::~CEterPackManager
??__FEterPackManager@?1??Main@@YA_NPAUHINSTANCE__@@PAD@Z@YAXXZ ENDP ; `Main'::`2'::`dynamic atexit destructor for 'EterPackManager''
text$yd	ENDS
; Function compile flags: /Ogtp
;	COMDAT ??__Flzo@?1??Main@@YA_NPAUHINSTANCE__@@PAD@Z@YAXXZ
text$yd	SEGMENT
??__Flzo@?1??Main@@YA_NPAUHINSTANCE__@@PAD@Z@YAXXZ PROC	; `Main'::`2'::`dynamic atexit destructor for 'lzo'', COMDAT
  00000	b9 00 00 00 00	 mov	 ecx, OFFSET ?lzo@?1??Main@@YA_NPAUHINSTANCE__@@PAD@Z@4VCLZO@@A
  00005	e9 00 00 00 00	 jmp	 ??1CLZO@@UAE@XZ		; CLZO::~CLZO
??__Flzo@?1??Main@@YA_NPAUHINSTANCE__@@PAD@Z@YAXXZ ENDP	; `Main'::`2'::`dynamic atexit destructor for 'lzo''
text$yd	ENDS
; Function compile flags: /Ogtp
; File D:\Metin2 Server Files\mainline\SRC_2014\Metin2Client\UserInterface\UserInterface.cpp
; File C:\Program Files (x86)\Windows Kits\10\Include\10.0.18362.0\ucrt\time.h
; File D:\Metin2 Server Files\mainline\SRC_2014\Metin2Client\UserInterface\UserInterface.cpp
;	COMDAT ?Main@@YA_NPAUHINSTANCE__@@PAD@Z
_TEXT	SEGMENT
$T2 = -68						; size = 4
_pyLauncher$3 = -64					; size = 12
_pyExceptionSender$4 = -52				; size = 36
__$ArrayPad$ = -16					; size = 4
__$EHRec$ = -12						; size = 12
_hInstance$ = 8						; size = 4
_lpCmdLine$ = 12					; size = 4
?Main@@YA_NPAUHINSTANCE__@@PAD@Z PROC			; Main, COMDAT

; 372  : {

  00000	55		 push	 ebp
  00001	8b ec		 mov	 ebp, esp
  00003	6a ff		 push	 -1
  00005	68 00 00 00 00	 push	 __ehhandler$?Main@@YA_NPAUHINSTANCE__@@PAD@Z
  0000a	64 a1 00 00 00
	00		 mov	 eax, DWORD PTR fs:0
  00010	50		 push	 eax
  00011	83 ec 38	 sub	 esp, 56			; 00000038H
  00014	a1 00 00 00 00	 mov	 eax, DWORD PTR ___security_cookie
  00019	33 c5		 xor	 eax, ebp
  0001b	89 45 f0	 mov	 DWORD PTR __$ArrayPad$[ebp], eax
  0001e	53		 push	 ebx
  0001f	56		 push	 esi
  00020	57		 push	 edi
  00021	50		 push	 eax
  00022	8d 45 f4	 lea	 eax, DWORD PTR __$EHRec$[ebp]
  00025	64 a3 00 00 00
	00		 mov	 DWORD PTR fs:0, eax
  0002b	8b 5d 08	 mov	 ebx, DWORD PTR _hInstance$[ebp]
  0002e	8b 7d 0c	 mov	 edi, DWORD PTR _lpCmdLine$[ebp]
; File C:\Program Files (x86)\Windows Kits\10\Include\10.0.18362.0\ucrt\time.h

; 431  :             return _time32(_Time);

  00031	6a 00		 push	 0
  00033	e8 00 00 00 00	 call	 __time32
  00038	83 c4 04	 add	 esp, 4
  0003b	8b f0		 mov	 esi, eax
; File D:\Metin2 Server Files\mainline\SRC_2014\Metin2Client\UserInterface\UserInterface.cpp

; 378  : 	DWORD dwRandSeed=time(NULL)+DWORD(GetCurrentProcess());

  0003d	ff 15 00 00 00
	00		 call	 DWORD PTR __imp__GetCurrentProcess@0
  00043	03 c6		 add	 eax, esi

; 379  : 	srandom(dwRandSeed);

  00045	50		 push	 eax
  00046	e8 00 00 00 00	 call	 ?srandom@@YAXK@Z	; srandom

; 380  : 	srand(random());

  0004b	e8 00 00 00 00	 call	 ?random@@YAKXZ		; random
  00050	50		 push	 eax
  00051	e8 00 00 00 00	 call	 _srand

; 381  : 
; 382  : 	SetLogLevel(1);

  00056	6a 01		 push	 1
  00058	e8 00 00 00 00	 call	 ?SetLogLevel@@YAXI@Z	; SetLogLevel

; 383  : 
; 384  : #ifdef LOCALE_SERVICE_VIETNAM_MILD
; 385  : 	extern BOOL USE_VIETNAM_CONVERT_WEAPON_VNUM;
; 386  : 	USE_VIETNAM_CONVERT_WEAPON_VNUM = true;
; 387  : #endif
; 388  : 
; 389  : 	if (_access("perf_game_update.txt", 0)==0)

  0005d	6a 00		 push	 0
  0005f	68 00 00 00 00	 push	 OFFSET ??_C@_0BF@NHIIGIH@perf_game_update?4txt@
  00064	e8 00 00 00 00	 call	 __access
  00069	83 c4 14	 add	 esp, 20			; 00000014H
  0006c	85 c0		 test	 eax, eax
  0006e	75 0b		 jne	 SHORT $LN4@Main

; 390  : 	{
; 391  : 		DeleteFile("perf_game_update.txt");

  00070	68 00 00 00 00	 push	 OFFSET ??_C@_0BF@NHIIGIH@perf_game_update?4txt@
  00075	ff 15 00 00 00
	00		 call	 DWORD PTR __imp__DeleteFileA@4
$LN4@Main:

; 392  : 	}
; 393  : 
; 394  : 	if (_access("newpatch.exe", 0)==0)

  0007b	6a 00		 push	 0
  0007d	68 00 00 00 00	 push	 OFFSET ??_C@_0N@JIKFFHPP@newpatch?4exe@
  00082	e8 00 00 00 00	 call	 __access
  00087	83 c4 08	 add	 esp, 8
  0008a	85 c0		 test	 eax, eax
  0008c	75 14		 jne	 SHORT $LN5@Main

; 395  : 	{		
; 396  : 		system("patchupdater.exe");

  0008e	68 00 00 00 00	 push	 OFFSET ??_C@_0BB@LLCBDFGP@patchupdater?4exe@
  00093	e8 00 00 00 00	 call	 _system
  00098	83 c4 04	 add	 esp, 4
$LN23@Main:

; 452  : }

  0009b	32 c0		 xor	 al, al
  0009d	e9 55 01 00 00	 jmp	 $LN1@Main
$LN5@Main:

; 397  : 		return false;
; 398  : 	}
; 399  : #ifndef __VTUNE__
; 400  : 	ilInit();

  000a2	ff 15 00 00 00
	00		 call	 DWORD PTR __imp__ilInit@0

; 401  : #endif
; 402  : 	if (!Setup(lpCmdLine))

  000a8	57		 push	 edi
  000a9	e8 00 00 00 00	 call	 ?Setup@@YAHPAD@Z	; Setup
  000ae	83 c4 04	 add	 esp, 4
  000b1	85 c0		 test	 eax, eax
  000b3	74 e6		 je	 SHORT $LN23@Main

; 403  : 		return false;
; 404  : 
; 405  : #ifdef _DEBUG
; 406  : 	OpenConsoleWindow();
; 407  : 	OpenLogFile(true); // true == uses syserr.txt and log.txt
; 408  : #else
; 409  : 	OpenLogFile(false); // false == uses syserr.txt only

  000b5	6a 00		 push	 0
  000b7	e8 00 00 00 00	 call	 ?OpenLogFile@@YAX_N@Z	; OpenLogFile

; 410  : #endif
; 411  : 
; 412  : 	static CLZO				lzo;

  000bc	64 a1 00 00 00
	00		 mov	 eax, DWORD PTR fs:__tls_array
  000c2	83 c4 04	 add	 esp, 4
  000c5	8b 0d 00 00 00
	00		 mov	 ecx, DWORD PTR __tls_index
  000cb	8b 34 88	 mov	 esi, DWORD PTR [eax+ecx*4]
  000ce	a1 00 00 00 00	 mov	 eax, DWORD PTR ?$TSS0@?1??Main@@YA_NPAUHINSTANCE__@@PAD@Z@4HA
  000d3	3b 86 00 00 00
	00		 cmp	 eax, DWORD PTR __Init_thread_epoch[esi]
  000d9	0f 8f 34 01 00
	00		 jg	 $LN25@Main
$LN2@Main:

; 413  : 	static CEterPackManager	EterPackManager;

  000df	a1 00 00 00 00	 mov	 eax, DWORD PTR ?$TSS1@?1??Main@@YA_NPAUHINSTANCE__@@PAD@Z@4HA
  000e4	3b 86 00 00 00
	00		 cmp	 eax, DWORD PTR __Init_thread_epoch[esi]
  000ea	0f 8f 71 01 00
	00		 jg	 $LN26@Main
$LN3@Main:

; 414  : 
; 415  : 	if (!PackInitialize("pack"))

  000f0	68 00 00 00 00	 push	 OFFSET ??_C@_04IPANLPFO@pack@
  000f5	e8 00 00 00 00	 call	 ?PackInitialize@@YA_NPBD@Z ; PackInitialize
  000fa	83 c4 04	 add	 esp, 4
  000fd	84 c0		 test	 al, al
  000ff	75 18		 jne	 SHORT $LN7@Main

; 416  : 	{
; 417  : 		LogBox("Pack Initialization failed. Check log.txt file..");

  00101	6a 00		 push	 0
  00103	6a 00		 push	 0
  00105	68 00 00 00 00	 push	 OFFSET ??_C@_0DB@BGMLOPGB@Pack?5Initialization?5failed?4?5Che@
  0010a	e8 00 00 00 00	 call	 ?LogBox@@YAXPBD0PAUHWND__@@@Z ; LogBox
  0010f	83 c4 0c	 add	 esp, 12			; 0000000cH

; 418  : 		return false;

  00112	32 c0		 xor	 al, al
  00114	e9 de 00 00 00	 jmp	 $LN1@Main
$LN7@Main:

; 419  : 	}
; 420  : 
; 421  : 	if(LocaleService_LoadGlobal(hInstance))

  00119	53		 push	 ebx
  0011a	e8 00 00 00 00	 call	 ?LocaleService_LoadGlobal@@YA_NPAUHINSTANCE__@@@Z ; LocaleService_LoadGlobal
  0011f	83 c4 04	 add	 esp, 4
  00122	84 c0		 test	 al, al
  00124	74 0e		 je	 SHORT $LN8@Main

; 422  : 		SetDefaultCodePage(LocaleService_GetCodePage());

  00126	e8 00 00 00 00	 call	 ?LocaleService_GetCodePage@@YAIXZ ; LocaleService_GetCodePage
  0012b	50		 push	 eax
  0012c	e8 00 00 00 00	 call	 ?SetDefaultCodePage@@YA_NK@Z ; SetDefaultCodePage
  00131	83 c4 04	 add	 esp, 4
$LN8@Main:

; 423  : 
; 424  : 	CPythonApplication * app = new CPythonApplication;

  00134	68 a8 ee 01 00	 push	 126632			; 0001eea8H
  00139	e8 00 00 00 00	 call	 ??2@YAPAXI@Z		; operator new
  0013e	83 c4 04	 add	 esp, 4
  00141	89 45 bc	 mov	 DWORD PTR $T2[ebp], eax
  00144	c7 45 fc 02 00
	00 00		 mov	 DWORD PTR __$EHRec$[ebp+8], 2
  0014b	85 c0		 test	 eax, eax
  0014d	74 0b		 je	 SHORT $LN11@Main
  0014f	8b c8		 mov	 ecx, eax
  00151	e8 00 00 00 00	 call	 ??0CPythonApplication@@QAE@XZ ; CPythonApplication::CPythonApplication
  00156	8b f0		 mov	 esi, eax
  00158	eb 02		 jmp	 SHORT $LN12@Main
$LN11@Main:
  0015a	33 f6		 xor	 esi, esi
$LN12@Main:

; 425  : 
; 426  : 	app->Initialize(hInstance);

  0015c	53		 push	 ebx
  0015d	8b ce		 mov	 ecx, esi
  0015f	c7 45 fc ff ff
	ff ff		 mov	 DWORD PTR __$EHRec$[ebp+8], -1
  00166	e8 00 00 00 00	 call	 ?Initialize@CMSApplication@@QAEXPAUHINSTANCE__@@@Z ; CMSApplication::Initialize

; 427  : 
; 428  : 	bool ret=false;
; 429  : 	{
; 430  : 		CPythonLauncher pyLauncher;

  0016b	8d 4d c0	 lea	 ecx, DWORD PTR _pyLauncher$3[ebp]
  0016e	32 db		 xor	 bl, bl
  00170	e8 00 00 00 00	 call	 ??0CPythonLauncher@@QAE@XZ ; CPythonLauncher::CPythonLauncher

; 431  : 		CPythonExceptionSender pyExceptionSender;

  00175	8d 4d cc	 lea	 ecx, DWORD PTR _pyExceptionSender$4[ebp]
  00178	c7 45 fc 03 00
	00 00		 mov	 DWORD PTR __$EHRec$[ebp+8], 3
  0017f	e8 00 00 00 00	 call	 ??0CPythonExceptionSender@@QAE@XZ ; CPythonExceptionSender::CPythonExceptionSender

; 432  : 		SetExceptionSender(&pyExceptionSender);

  00184	8d 45 cc	 lea	 eax, DWORD PTR _pyExceptionSender$4[ebp]
  00187	c6 45 fc 04	 mov	 BYTE PTR __$EHRec$[ebp+8], 4
  0018b	50		 push	 eax
  0018c	e8 00 00 00 00	 call	 ?SetExceptionSender@@YAXPAVIPythonExceptionSender@@@Z ; SetExceptionSender
  00191	83 c4 04	 add	 esp, 4

; 433  : 
; 434  : 		if (pyLauncher.Create())

  00194	8d 4d c0	 lea	 ecx, DWORD PTR _pyLauncher$3[ebp]
  00197	68 00 00 00 00	 push	 OFFSET ??_C@_0M@PFDHIIAP@eter?4python@
  0019c	e8 00 00 00 00	 call	 ?Create@CPythonLauncher@@QAE_NPBD@Z ; CPythonLauncher::Create
  001a1	84 c0		 test	 al, al
  001a3	74 0f		 je	 SHORT $LN9@Main

; 435  : 		{
; 436  : 			ret=RunMainScript(pyLauncher, lpCmdLine);	//    .

  001a5	8d 45 c0	 lea	 eax, DWORD PTR _pyLauncher$3[ebp]
  001a8	57		 push	 edi
  001a9	50		 push	 eax
  001aa	e8 00 00 00 00	 call	 ?RunMainScript@@YA_NAAVCPythonLauncher@@PBD@Z ; RunMainScript
  001af	83 c4 08	 add	 esp, 8
  001b2	8a d8		 mov	 bl, al
$LN9@Main:

; 437  : 		}
; 438  : 
; 439  : 		//ProcessScanner_ReleaseQuitEvent();
; 440  : 		
; 441  : 		// .
; 442  : 		app->Clear();

  001b4	8b ce		 mov	 ecx, esi
  001b6	e8 00 00 00 00	 call	 ?Clear@CPythonApplication@@QAEXXZ ; CPythonApplication::Clear

; 443  : 
; 444  : 		timeEndPeriod(1);

  001bb	6a 01		 push	 1
  001bd	ff 15 00 00 00
	00		 call	 DWORD PTR __imp__timeEndPeriod@4

; 445  : 		pyLauncher.Clear();

  001c3	8d 4d c0	 lea	 ecx, DWORD PTR _pyLauncher$3[ebp]
  001c6	e8 00 00 00 00	 call	 ?Clear@CPythonLauncher@@QAEXXZ ; CPythonLauncher::Clear

; 446  : 	}

  001cb	8d 4d cc	 lea	 ecx, DWORD PTR _pyExceptionSender$4[ebp]
  001ce	e8 00 00 00 00	 call	 ??1CPythonExceptionSender@@UAE@XZ ; CPythonExceptionSender::~CPythonExceptionSender
  001d3	8d 4d c0	 lea	 ecx, DWORD PTR _pyLauncher$3[ebp]
  001d6	c7 45 fc ff ff
	ff ff		 mov	 DWORD PTR __$EHRec$[ebp+8], -1
  001dd	e8 00 00 00 00	 call	 ??1CPythonLauncher@@UAE@XZ ; CPythonLauncher::~CPythonLauncher

; 447  : 
; 448  : 	app->Destroy();

  001e2	8b ce		 mov	 ecx, esi
  001e4	e8 00 00 00 00	 call	 ?Destroy@CPythonApplication@@QAEXXZ ; CPythonApplication::Destroy

; 449  : 	delete app;

  001e9	85 f6		 test	 esi, esi
  001eb	74 08		 je	 SHORT $LN13@Main
  001ed	8b 06		 mov	 eax, DWORD PTR [esi]
  001ef	8b ce		 mov	 ecx, esi
  001f1	6a 01		 push	 1
  001f3	ff 10		 call	 DWORD PTR [eax]
$LN13@Main:

; 450  : 	
; 451  : 	return ret;

  001f5	8a c3		 mov	 al, bl
$LN1@Main:

; 452  : }

  001f7	8b 4d f4	 mov	 ecx, DWORD PTR __$EHRec$[ebp]
  001fa	64 89 0d 00 00
	00 00		 mov	 DWORD PTR fs:0, ecx
  00201	59		 pop	 ecx
  00202	5f		 pop	 edi
  00203	5e		 pop	 esi
  00204	5b		 pop	 ebx
  00205	8b 4d f0	 mov	 ecx, DWORD PTR __$ArrayPad$[ebp]
  00208	33 cd		 xor	 ecx, ebp
  0020a	e8 00 00 00 00	 call	 @__security_check_cookie@4
  0020f	8b e5		 mov	 esp, ebp
  00211	5d		 pop	 ebp
  00212	c3		 ret	 0
$LN25@Main:

; 410  : #endif
; 411  : 
; 412  : 	static CLZO				lzo;

  00213	68 00 00 00 00	 push	 OFFSET ?$TSS0@?1??Main@@YA_NPAUHINSTANCE__@@PAD@Z@4HA
  00218	e8 00 00 00 00	 call	 __Init_thread_header
  0021d	83 c4 04	 add	 esp, 4
  00220	83 3d 00 00 00
	00 ff		 cmp	 DWORD PTR ?$TSS0@?1??Main@@YA_NPAUHINSTANCE__@@PAD@Z@4HA, -1
  00227	0f 85 b2 fe ff
	ff		 jne	 $LN2@Main
  0022d	b9 00 00 00 00	 mov	 ecx, OFFSET ?lzo@?1??Main@@YA_NPAUHINSTANCE__@@PAD@Z@4VCLZO@@A
  00232	c7 45 fc 00 00
	00 00		 mov	 DWORD PTR __$EHRec$[ebp+8], 0
  00239	e8 00 00 00 00	 call	 ??0CLZO@@QAE@XZ		; CLZO::CLZO
  0023e	68 00 00 00 00	 push	 OFFSET ??__Flzo@?1??Main@@YA_NPAUHINSTANCE__@@PAD@Z@YAXXZ ; `Main'::`2'::`dynamic atexit destructor for 'lzo''
  00243	e8 00 00 00 00	 call	 _atexit
  00248	68 00 00 00 00	 push	 OFFSET ?$TSS0@?1??Main@@YA_NPAUHINSTANCE__@@PAD@Z@4HA
  0024d	c7 45 fc ff ff
	ff ff		 mov	 DWORD PTR __$EHRec$[ebp+8], -1
  00254	e8 00 00 00 00	 call	 __Init_thread_footer
  00259	83 c4 08	 add	 esp, 8
  0025c	e9 7e fe ff ff	 jmp	 $LN2@Main
$LN26@Main:

; 413  : 	static CEterPackManager	EterPackManager;

  00261	68 00 00 00 00	 push	 OFFSET ?$TSS1@?1??Main@@YA_NPAUHINSTANCE__@@PAD@Z@4HA
  00266	e8 00 00 00 00	 call	 __Init_thread_header
  0026b	83 c4 04	 add	 esp, 4
  0026e	83 3d 00 00 00
	00 ff		 cmp	 DWORD PTR ?$TSS1@?1??Main@@YA_NPAUHINSTANCE__@@PAD@Z@4HA, -1
  00275	0f 85 75 fe ff
	ff		 jne	 $LN3@Main
  0027b	b9 00 00 00 00	 mov	 ecx, OFFSET ?EterPackManager@?1??Main@@YA_NPAUHINSTANCE__@@PAD@Z@4VCEterPackManager@@A
  00280	c7 45 fc 01 00
	00 00		 mov	 DWORD PTR __$EHRec$[ebp+8], 1
  00287	e8 00 00 00 00	 call	 ??0CEterPackManager@@QAE@XZ ; CEterPackManager::CEterPackManager
  0028c	68 00 00 00 00	 push	 OFFSET ??__FEterPackManager@?1??Main@@YA_NPAUHINSTANCE__@@PAD@Z@YAXXZ ; `Main'::`2'::`dynamic atexit destructor for 'EterPackManager''
  00291	e8 00 00 00 00	 call	 _atexit
  00296	68 00 00 00 00	 push	 OFFSET ?$TSS1@?1??Main@@YA_NPAUHINSTANCE__@@PAD@Z@4HA
  0029b	c7 45 fc ff ff
	ff ff		 mov	 DWORD PTR __$EHRec$[ebp+8], -1
  002a2	e8 00 00 00 00	 call	 __Init_thread_footer
  002a7	83 c4 08	 add	 esp, 8
  002aa	e9 41 fe ff ff	 jmp	 $LN3@Main
_TEXT	ENDS
;	COMDAT text$x
text$x	SEGMENT
__unwindfunclet$?Main@@YA_NPAUHINSTANCE__@@PAD@Z$2:
  00000	68 a8 ee 01 00	 push	 126632			; 0001eea8H
  00005	8b 45 bc	 mov	 eax, DWORD PTR $T2[ebp]
  00008	50		 push	 eax
  00009	e8 00 00 00 00	 call	 ??3@YAXPAXI@Z		; operator delete
  0000e	83 c4 08	 add	 esp, 8
  00011	c3		 ret	 0
__unwindfunclet$?Main@@YA_NPAUHINSTANCE__@@PAD@Z$3:
  00012	8d 4d c0	 lea	 ecx, DWORD PTR _pyLauncher$3[ebp]
  00015	e9 00 00 00 00	 jmp	 ??1CPythonLauncher@@UAE@XZ ; CPythonLauncher::~CPythonLauncher
__unwindfunclet$?Main@@YA_NPAUHINSTANCE__@@PAD@Z$4:
  0001a	8d 4d cc	 lea	 ecx, DWORD PTR _pyExceptionSender$4[ebp]
  0001d	e9 00 00 00 00	 jmp	 ??1CPythonExceptionSender@@UAE@XZ ; CPythonExceptionSender::~CPythonExceptionSender
__unwindfunclet$?Main@@YA_NPAUHINSTANCE__@@PAD@Z$0:
  00022	68 00 00 00 00	 push	 OFFSET ?$TSS0@?1??Main@@YA_NPAUHINSTANCE__@@PAD@Z@4HA
  00027	e8 00 00 00 00	 call	 __Init_thread_abort
  0002c	59		 pop	 ecx
  0002d	c3		 ret	 0
__unwindfunclet$?Main@@YA_NPAUHINSTANCE__@@PAD@Z$1:
  0002e	68 00 00 00 00	 push	 OFFSET ?$TSS1@?1??Main@@YA_NPAUHINSTANCE__@@PAD@Z@4HA
  00033	e8 00 00 00 00	 call	 __Init_thread_abort
  00038	59		 pop	 ecx
  00039	c3		 ret	 0
  0003a	cc		 int	 3
  0003b	cc		 int	 3
  0003c	cc		 int	 3
  0003d	cc		 int	 3
  0003e	cc		 int	 3
__ehhandler$?Main@@YA_NPAUHINSTANCE__@@PAD@Z:
  0003f	90		 npad	 1
  00040	90		 npad	 1
  00041	8b 54 24 08	 mov	 edx, DWORD PTR [esp+8]
  00045	8d 42 0c	 lea	 eax, DWORD PTR [edx+12]
  00048	8b 4a b8	 mov	 ecx, DWORD PTR [edx-72]
  0004b	33 c8		 xor	 ecx, eax
  0004d	e8 00 00 00 00	 call	 @__security_check_cookie@4
  00052	8b 4a fc	 mov	 ecx, DWORD PTR [edx-4]
  00055	33 c8		 xor	 ecx, eax
  00057	e8 00 00 00 00	 call	 @__security_check_cookie@4
  0005c	b8 00 00 00 00	 mov	 eax, OFFSET __ehfuncinfo$?Main@@YA_NPAUHINSTANCE__@@PAD@Z
  00061	e9 00 00 00 00	 jmp	 ___CxxFrameHandler3
text$x	ENDS
?Main@@YA_NPAUHINSTANCE__@@PAD@Z ENDP			; Main
; Function compile flags: /Ogtp
; File C:\Program Files (x86)\Microsoft Visual Studio\2019\Community\VC\Tools\MSVC\14.28.29333\include\xstring
;	COMDAT ??$?8DU?$char_traits@D@std@@V?$allocator@D@1@@std@@YA_NQBDABV?$basic_string@DU?$char_traits@D@std@@V?$allocator@D@2@@0@@Z
_TEXT	SEGMENT
__Left$ = 8						; size = 4
__Right$ = 12						; size = 4
??$?8DU?$char_traits@D@std@@V?$allocator@D@1@@std@@YA_NQBDABV?$basic_string@DU?$char_traits@D@std@@V?$allocator@D@2@@0@@Z PROC ; std::operator==<char,std::char_traits<char>,std::allocator<char> >, COMDAT

; 4559 : _NODISCARD bool operator==(_In_z_ const _Elem* const _Left, const basic_string<_Elem, _Traits, _Alloc>& _Right) {

  00000	55		 push	 ebp
  00001	8b ec		 mov	 ebp, esp

; 389  :         return _CSTD strlen(reinterpret_cast<const char*>(_First));

  00003	8b 4d 08	 mov	 ecx, DWORD PTR __Left$[ebp]
  00006	8d 51 01	 lea	 edx, DWORD PTR [ecx+1]
  00009	0f 1f 80 00 00
	00 00		 npad	 7
$LL12@operator:
  00010	8a 01		 mov	 al, BYTE PTR [ecx]
  00012	41		 inc	 ecx
  00013	84 c0		 test	 al, al
  00015	75 f9		 jne	 SHORT $LL12@operator

; 2218 :         const value_type* _Result = _Bx._Buf;

  00017	8b 45 0c	 mov	 eax, DWORD PTR __Right$[ebp]

; 389  :         return _CSTD strlen(reinterpret_cast<const char*>(_First));

  0001a	2b ca		 sub	 ecx, edx

; 2218 :         const value_type* _Result = _Bx._Buf;

  0001c	8b d0		 mov	 edx, eax

; 2227 :         return _BUF_SIZE <= _Myres;

  0001e	83 78 14 10	 cmp	 DWORD PTR [eax+20], 16	; 00000010H

; 2219 :         if (_Large_string_engaged()) {

  00022	72 02		 jb	 SHORT $LN8@operator

; 2220 :             _Result = _Unfancy(_Bx._Ptr);

  00024	8b 10		 mov	 edx, DWORD PTR [eax]
$LN8@operator:

; 4180 :         return _Traits_equal<_Traits>(_Mypair._Myval2._Myptr(), _Mypair._Myval2._Mysize, _Ptr, _Traits::length(_Ptr));

  00026	51		 push	 ecx
  00027	ff 75 08	 push	 DWORD PTR __Left$[ebp]
  0002a	ff 70 10	 push	 DWORD PTR [eax+16]
  0002d	52		 push	 edx
  0002e	e8 00 00 00 00	 call	 ??$_Traits_equal@U?$char_traits@D@std@@@std@@YA_NQBDI0I@Z ; std::_Traits_equal<std::char_traits<char> >
  00033	83 c4 10	 add	 esp, 16			; 00000010H

; 4560 :     return _Right._Equal(_Left);
; 4561 : }

  00036	5d		 pop	 ebp
  00037	c3		 ret	 0
??$?8DU?$char_traits@D@std@@V?$allocator@D@1@@std@@YA_NQBDABV?$basic_string@DU?$char_traits@D@std@@V?$allocator@D@2@@0@@Z ENDP ; std::operator==<char,std::char_traits<char>,std::allocator<char> >
_TEXT	ENDS
; Function compile flags: /Ogtp
; File D:\Metin2 Server Files\mainline\SRC_2014\Metin2Client\eterBase\Utils.h
; File C:\Program Files (x86)\Microsoft Visual Studio\2019\Community\VC\Tools\MSVC\14.28.29333\include\vector
; File D:\Metin2 Server Files\mainline\SRC_2014\Metin2Client\eterBase\Utils.h
; File C:\Program Files (x86)\Microsoft Visual Studio\2019\Community\VC\Tools\MSVC\14.28.29333\include\vector
; File D:\Metin2 Server Files\mainline\SRC_2014\Metin2Client\eterBase\Utils.h
; File C:\Program Files (x86)\Microsoft Visual Studio\2019\Community\VC\Tools\MSVC\14.28.29333\include\vector
; File D:\Metin2 Server Files\mainline\SRC_2014\Metin2Client\eterBase\Utils.h
; File C:\Program Files (x86)\Microsoft Visual Studio\2019\Community\VC\Tools\MSVC\14.28.29333\include\vector
; File D:\Metin2 Server Files\mainline\SRC_2014\Metin2Client\eterBase\Utils.h
; File C:\Program Files (x86)\Microsoft Visual Studio\2019\Community\VC\Tools\MSVC\14.28.29333\include\xstring
; File D:\Metin2 Server Files\mainline\SRC_2014\Metin2Client\eterBase\Utils.h
; File C:\Program Files (x86)\Microsoft Visual Studio\2019\Community\VC\Tools\MSVC\14.28.29333\include\xstring
; File C:\Program Files (x86)\Microsoft Visual Studio\2019\Community\VC\Tools\MSVC\14.28.29333\include\utility
; File C:\Program Files (x86)\Microsoft Visual Studio\2019\Community\VC\Tools\MSVC\14.28.29333\include\xstring
; File C:\Program Files (x86)\Microsoft Visual Studio\2019\Community\VC\Tools\MSVC\14.28.29333\include\xmemory
; File C:\Program Files (x86)\Microsoft Visual Studio\2019\Community\VC\Tools\MSVC\14.28.29333\include\xstring
; File C:\Program Files (x86)\Microsoft Visual Studio\2019\Community\VC\Tools\MSVC\14.28.29333\include\vector
; File D:\Metin2 Server Files\mainline\SRC_2014\Metin2Client\eterBase\Utils.h
; File C:\Program Files (x86)\Microsoft Visual Studio\2019\Community\VC\Tools\MSVC\14.28.29333\include\vector
; File C:\Program Files (x86)\Microsoft Visual Studio\2019\Community\VC\Tools\MSVC\14.28.29333\include\xstring
; File C:\Program Files (x86)\Microsoft Visual Studio\2019\Community\VC\Tools\MSVC\14.28.29333\include\vector
; File D:\Metin2 Server Files\mainline\SRC_2014\Metin2Client\eterBase\Utils.h
; File C:\Program Files (x86)\Microsoft Visual Studio\2019\Community\VC\Tools\MSVC\14.28.29333\include\xstring
; File D:\Metin2 Server Files\mainline\SRC_2014\Metin2Client\eterBase\Utils.h
; File C:\Program Files (x86)\Microsoft Visual Studio\2019\Community\VC\Tools\MSVC\14.28.29333\include\xstring
; File D:\Metin2 Server Files\mainline\SRC_2014\Metin2Client\eterBase\Utils.h
; File C:\Program Files (x86)\Microsoft Visual Studio\2019\Community\VC\Tools\MSVC\14.28.29333\include\xstring
; File C:\Program Files (x86)\Microsoft Visual Studio\2019\Community\VC\Tools\MSVC\14.28.29333\include\xmemory
; File D:\Metin2 Server Files\mainline\SRC_2014\Metin2Client\eterBase\Utils.h
; File C:\Program Files (x86)\Microsoft Visual Studio\2019\Community\VC\Tools\MSVC\14.28.29333\include\xstring
; File D:\Metin2 Server Files\mainline\SRC_2014\Metin2Client\eterBase\Utils.h
;	COMDAT ??$string_join@V?$vector@V?$basic_string@DU?$char_traits@D@std@@V?$allocator@D@2@@std@@V?$allocator@V?$basic_string@DU?$char_traits@D@std@@V?$allocator@D@2@@std@@@2@@std@@@@YAXABV?$basic_string@DU?$char_traits@D@std@@V?$allocator@D@2@@std@@ABV?$vector@V?$basic_string@DU?$char_traits@D@std@@V?$allocator@D@2@@std@@V?$allocator@V?$basic_string@DU?$char_traits@D@std@@V?$allocator@D@2@@std@@@2@@1@PAV01@@Z
_TEXT	SEGMENT
_ret$GSCopy$1$ = -52					; size = 4
_container$GSCopy$1$ = -48				; size = 4
__New_ptr$2 = -44					; size = 4
_buf$ = -40						; size = 24
__$ArrayPad$ = -16					; size = 4
__$EHRec$ = -12						; size = 12
_sep$ = 8						; size = 4
_container$ = 12					; size = 4
_ret$ = 16						; size = 4
??$string_join@V?$vector@V?$basic_string@DU?$char_traits@D@std@@V?$allocator@D@2@@std@@V?$allocator@V?$basic_string@DU?$char_traits@D@std@@V?$allocator@D@2@@std@@@2@@std@@@@YAXABV?$basic_string@DU?$char_traits@D@std@@V?$allocator@D@2@@std@@ABV?$vector@V?$basic_string@DU?$char_traits@D@std@@V?$allocator@D@2@@std@@V?$allocator@V?$basic_string@DU?$char_traits@D@std@@V?$allocator@D@2@@std@@@2@@1@PAV01@@Z PROC ; string_join<std::vector<std::basic_string<char,std::char_traits<char>,std::allocator<char> >,std::allocator<std::basic_string<char,std::char_traits<char>,std::allocator<char> > > > >, COMDAT

; 117  : {

  00000	55		 push	 ebp
  00001	8b ec		 mov	 ebp, esp
  00003	6a ff		 push	 -1
  00005	68 00 00 00 00	 push	 __ehhandler$??$string_join@V?$vector@V?$basic_string@DU?$char_traits@D@std@@V?$allocator@D@2@@std@@V?$allocator@V?$basic_string@DU?$char_traits@D@std@@V?$allocator@D@2@@std@@@2@@std@@@@YAXABV?$basic_string@DU?$char_traits@D@std@@V?$allocator@D@2@@std@@ABV?$vector@V?$basic_string@DU?$char_traits@D@std@@V?$allocator@D@2@@std@@V?$allocator@V?$basic_string@DU?$char_traits@D@std@@V?$allocator@D@2@@std@@@2@@1@PAV01@@Z
  0000a	64 a1 00 00 00
	00		 mov	 eax, DWORD PTR fs:0
  00010	50		 push	 eax
  00011	83 ec 28	 sub	 esp, 40			; 00000028H
  00014	a1 00 00 00 00	 mov	 eax, DWORD PTR ___security_cookie
  00019	33 c5		 xor	 eax, ebp
  0001b	89 45 f0	 mov	 DWORD PTR __$ArrayPad$[ebp], eax
  0001e	53		 push	 ebx
  0001f	56		 push	 esi
  00020	57		 push	 edi
  00021	50		 push	 eax
  00022	8d 45 f4	 lea	 eax, DWORD PTR __$EHRec$[ebp]
  00025	64 a3 00 00 00
	00		 mov	 DWORD PTR fs:0, eax
  0002b	8b 45 0c	 mov	 eax, DWORD PTR _container$[ebp]
  0002e	8b 4d 10	 mov	 ecx, DWORD PTR _ret$[ebp]
  00031	8b 5d 08	 mov	 ebx, DWORD PTR _sep$[ebp]
  00034	89 45 d0	 mov	 DWORD PTR _container$GSCopy$1$[ebp], eax
; File C:\Program Files (x86)\Microsoft Visual Studio\2019\Community\VC\Tools\MSVC\14.28.29333\include\vector

; 1484 :         return static_cast<size_type>(_My_data._Mylast - _My_data._Myfirst);

  00037	8b 78 04	 mov	 edi, DWORD PTR [eax+4]
  0003a	8b d7		 mov	 edx, edi
; File D:\Metin2 Server Files\mainline\SRC_2014\Metin2Client\eterBase\Utils.h

; 117  : {

  0003c	89 4d cc	 mov	 DWORD PTR _ret$GSCopy$1$[ebp], ecx
; File C:\Program Files (x86)\Microsoft Visual Studio\2019\Community\VC\Tools\MSVC\14.28.29333\include\vector

; 1484 :         return static_cast<size_type>(_My_data._Mylast - _My_data._Myfirst);

  0003f	8b 08		 mov	 ecx, DWORD PTR [eax]
  00041	2b d1		 sub	 edx, ecx
; File D:\Metin2 Server Files\mainline\SRC_2014\Metin2Client\eterBase\Utils.h

; 118  : 	unsigned int capacity = sep.length() * container.size() - 1;

  00043	8b 73 10	 mov	 esi, DWORD PTR [ebx+16]
; File C:\Program Files (x86)\Microsoft Visual Studio\2019\Community\VC\Tools\MSVC\14.28.29333\include\vector

; 1484 :         return static_cast<size_type>(_My_data._Mylast - _My_data._Myfirst);

  00046	b8 ab aa aa 2a	 mov	 eax, 715827883		; 2aaaaaabH
  0004b	f7 ea		 imul	 edx
  0004d	c1 fa 02	 sar	 edx, 2
  00050	8b c2		 mov	 eax, edx
  00052	c1 e8 1f	 shr	 eax, 31			; 0000001fH
  00055	03 c2		 add	 eax, edx
; File D:\Metin2 Server Files\mainline\SRC_2014\Metin2Client\eterBase\Utils.h

; 118  : 	unsigned int capacity = sep.length() * container.size() - 1;

  00057	0f af f0	 imul	 esi, eax
  0005a	4e		 dec	 esi

; 122  :         for (C::const_iterator i = container.begin(); i != container.end(); ++i)

  0005b	3b cf		 cmp	 ecx, edi
  0005d	74 0b		 je	 SHORT $LN3@string_joi
  0005f	90		 npad	 1
$LL16@string_joi:

; 123  :             capacity += (*i).length();

  00060	03 71 10	 add	 esi, DWORD PTR [ecx+16]
; File C:\Program Files (x86)\Microsoft Visual Studio\2019\Community\VC\Tools\MSVC\14.28.29333\include\vector

; 75   :         ++_Ptr;

  00063	83 c1 18	 add	 ecx, 24			; 00000018H
; File D:\Metin2 Server Files\mainline\SRC_2014\Metin2Client\eterBase\Utils.h

; 122  :         for (C::const_iterator i = container.begin(); i != container.end(); ++i)

  00066	3b cf		 cmp	 ecx, edi
  00068	75 f6		 jne	 SHORT $LL16@string_joi
$LN3@string_joi:
; File C:\Program Files (x86)\Microsoft Visual Studio\2019\Community\VC\Tools\MSVC\14.28.29333\include\xstring

; 4377 :         _Mypair._Myval2._Mysize = 0;

  0006a	c7 45 e8 00 00
	00 00		 mov	 DWORD PTR _buf$[ebp+16], 0

; 4378 :         _Mypair._Myval2._Myres  = _BUF_SIZE - 1;

  00071	c7 45 ec 0f 00
	00 00		 mov	 DWORD PTR _buf$[ebp+20], 15 ; 0000000fH

; 4379 :         // the _Traits::assign is last so the codegen doesn't think the char write can alias this
; 4380 :         _Traits::assign(_Mypair._Myval2._Bx._Buf[0], _Elem());

  00078	c6 45 d8 00	 mov	 BYTE PTR _buf$[ebp], 0
; File D:\Metin2 Server Files\mainline\SRC_2014\Metin2Client\eterBase\Utils.h

; 126  :     string buf;

  0007c	c7 45 fc 00 00
	00 00		 mov	 DWORD PTR __$EHRec$[ebp+8], 0
; File C:\Program Files (x86)\Microsoft Visual Studio\2019\Community\VC\Tools\MSVC\14.28.29333\include\xstring

; 3822 :         if (_Mypair._Myval2._Myres == _Newcap) { // we're already at the requested capacity

  00083	83 fe 0f	 cmp	 esi, 15			; 0000000fH

; 3823 :             return; // nothing to do
; 3824 :         }
; 3825 : 
; 3826 :         if (_Mypair._Myval2._Myres < _Newcap) { // reallocate to grow

  00086	76 56		 jbe	 SHORT $LN39@string_joi

; 4333 :         if (max_size() - _Old_size < _Size_increase) {

  00088	81 fe ff ff ff
	7f		 cmp	 esi, 2147483647		; 7fffffffH
  0008e	0f 87 e7 00 00
	00		 ja	 $LN137@string_joi

; 4285 :         const size_type _Masked = _Requested | _ALLOC_MASK;

  00094	8b fe		 mov	 edi, esi
  00096	83 cf 0f	 or	 edi, 15			; 0000000fH
  00099	81 ff ff ff ff
	7f		 cmp	 edi, 2147483647		; 7fffffffH

; 4286 :         if (_Masked > _Max) { // the mask overflows, settle for max_size()

  0009f	76 07		 jbe	 SHORT $LN50@string_joi

; 4287 :             return _Max;

  000a1	bf ff ff ff 7f	 mov	 edi, 2147483647		; 7fffffffH
  000a6	eb 0a		 jmp	 SHORT $LN49@string_joi
$LN50@string_joi:
; File C:\Program Files (x86)\Microsoft Visual Studio\2019\Community\VC\Tools\MSVC\14.28.29333\include\utility

; 44   :     return _Left < _Right ? _Right : _Left;

  000a8	b8 16 00 00 00	 mov	 eax, 22			; 00000016H
  000ad	3b f8		 cmp	 edi, eax
  000af	0f 42 f8	 cmovb	 edi, eax
$LN49@string_joi:
; File C:\Program Files (x86)\Microsoft Visual Studio\2019\Community\VC\Tools\MSVC\14.28.29333\include\xstring

; 4341 :         const pointer _New_ptr        = _Al.allocate(_New_capacity + 1); // throws

  000b2	8d 47 01	 lea	 eax, DWORD PTR [edi+1]
; File C:\Program Files (x86)\Microsoft Visual Studio\2019\Community\VC\Tools\MSVC\14.28.29333\include\xmemory

; 814  :         return static_cast<_Ty*>(_Allocate<_New_alignof<_Ty>>(_Get_size_of_n<sizeof(_Ty)>(_Count)));

  000b5	50		 push	 eax
  000b6	e8 00 00 00 00	 call	 ??$_Allocate@$07U_Default_allocate_traits@std@@$0A@@std@@YAPAXI@Z ; std::_Allocate<8,std::_Default_allocate_traits,0>
; File C:\Program Files (x86)\Microsoft Visual Studio\2019\Community\VC\Tools\MSVC\14.28.29333\include\xstring

; 4341 :         const pointer _New_ptr        = _Al.allocate(_New_capacity + 1); // throws

  000bb	89 45 d4	 mov	 DWORD PTR __New_ptr$2[ebp], eax

; 4342 :         _My_data._Orphan_all();
; 4343 :         _My_data._Mysize      = _New_size;

  000be	89 75 e8	 mov	 DWORD PTR _buf$[ebp+16], esi

; 4344 :         _My_data._Myres       = _New_capacity;

  000c1	89 7d ec	 mov	 DWORD PTR _buf$[ebp+20], edi

; 62   :         _CSTD memcpy(_First1, _First2, _Count * sizeof(_Elem));

  000c4	c6 00 00	 mov	 BYTE PTR [eax], 0

; 4353 :             _Construct_in_place(_My_data._Bx._Ptr, _New_ptr);

  000c7	8d 45 d4	 lea	 eax, DWORD PTR __New_ptr$2[ebp]
  000ca	50		 push	 eax
  000cb	8d 45 d8	 lea	 eax, DWORD PTR _buf$[ebp]
  000ce	50		 push	 eax
  000cf	e8 00 00 00 00	 call	 ??$_Construct_in_place@PADABQAD@std@@YAXAAPADABQAD@Z ; std::_Construct_in_place<char *,char * const &>
  000d4	83 c4 0c	 add	 esp, 12			; 0000000cH

; 3833 :             _Mypair._Myval2._Mysize = _Old_size;

  000d7	c7 45 e8 00 00
	00 00		 mov	 DWORD PTR _buf$[ebp+16], 0
$LN39@string_joi:
; File C:\Program Files (x86)\Microsoft Visual Studio\2019\Community\VC\Tools\MSVC\14.28.29333\include\vector

; 42   :     _Vector_const_iterator(_Tptr _Parg, const _Container_base* _Pvector) noexcept : _Ptr(_Parg) {

  000de	8b 7d d0	 mov	 edi, DWORD PTR _container$GSCopy$1$[ebp]
  000e1	8b 37		 mov	 esi, DWORD PTR [edi]

; 92   :         --_Ptr;

  000e3	8b 7f 04	 mov	 edi, DWORD PTR [edi+4]
  000e6	83 ef 18	 sub	 edi, 24			; 00000018H

; 149  :         return _Ptr == _Right._Ptr;

  000e9	3b f7		 cmp	 esi, edi
; File D:\Metin2 Server Files\mainline\SRC_2014\Metin2Client\eterBase\Utils.h

; 135  :         while (cur != end)

  000eb	74 38		 je	 SHORT $LN6@string_joi
  000ed	0f 1f 00	 npad	 3
$LL5@string_joi:
; File C:\Program Files (x86)\Microsoft Visual Studio\2019\Community\VC\Tools\MSVC\14.28.29333\include\vector

; 80   :         _Vector_const_iterator _Tmp = *this;

  000f0	8b c6		 mov	 eax, esi

; 75   :         ++_Ptr;

  000f2	83 c6 18	 add	 esi, 24			; 00000018H
; File C:\Program Files (x86)\Microsoft Visual Studio\2019\Community\VC\Tools\MSVC\14.28.29333\include\xstring

; 2218 :         const value_type* _Result = _Bx._Buf;

  000f5	8b c8		 mov	 ecx, eax

; 2227 :         return _BUF_SIZE <= _Myres;

  000f7	83 78 14 10	 cmp	 DWORD PTR [eax+20], 16	; 00000010H

; 2219 :         if (_Large_string_engaged()) {

  000fb	72 02		 jb	 SHORT $LN98@string_joi

; 2220 :             _Result = _Unfancy(_Bx._Ptr);

  000fd	8b 08		 mov	 ecx, DWORD PTR [eax]
$LN98@string_joi:

; 2910 :         return append(_Right._Mypair._Myval2._Myptr(), _Right._Mypair._Myval2._Mysize);

  000ff	ff 70 10	 push	 DWORD PTR [eax+16]
  00102	51		 push	 ecx
  00103	8d 4d d8	 lea	 ecx, DWORD PTR _buf$[ebp]
  00106	e8 00 00 00 00	 call	 ?append@?$basic_string@DU?$char_traits@D@std@@V?$allocator@D@2@@std@@QAEAAV12@QBDI@Z ; std::basic_string<char,std::char_traits<char>,std::allocator<char> >::append

; 2227 :         return _BUF_SIZE <= _Myres;

  0010b	83 7b 14 10	 cmp	 DWORD PTR [ebx+20], 16	; 00000010H

; 2218 :         const value_type* _Result = _Bx._Buf;

  0010f	8b c3		 mov	 eax, ebx

; 2219 :         if (_Large_string_engaged()) {

  00111	72 02		 jb	 SHORT $LN105@string_joi

; 2220 :             _Result = _Unfancy(_Bx._Ptr);

  00113	8b 03		 mov	 eax, DWORD PTR [ebx]
$LN105@string_joi:

; 2910 :         return append(_Right._Mypair._Myval2._Myptr(), _Right._Mypair._Myval2._Mysize);

  00115	ff 73 10	 push	 DWORD PTR [ebx+16]
  00118	8d 4d d8	 lea	 ecx, DWORD PTR _buf$[ebp]
  0011b	50		 push	 eax
  0011c	e8 00 00 00 00	 call	 ?append@?$basic_string@DU?$char_traits@D@std@@V?$allocator@D@2@@std@@QAEAAV12@QBDI@Z ; std::basic_string<char,std::char_traits<char>,std::allocator<char> >::append
; File C:\Program Files (x86)\Microsoft Visual Studio\2019\Community\VC\Tools\MSVC\14.28.29333\include\vector

; 149  :         return _Ptr == _Right._Ptr;

  00121	3b f7		 cmp	 esi, edi
; File D:\Metin2 Server Files\mainline\SRC_2014\Metin2Client\eterBase\Utils.h

; 135  :         while (cur != end)

  00123	75 cb		 jne	 SHORT $LL5@string_joi
$LN6@string_joi:
; File C:\Program Files (x86)\Microsoft Visual Studio\2019\Community\VC\Tools\MSVC\14.28.29333\include\xstring

; 2227 :         return _BUF_SIZE <= _Myres;

  00125	83 7e 14 10	 cmp	 DWORD PTR [esi+20], 16	; 00000010H

; 2218 :         const value_type* _Result = _Bx._Buf;

  00129	8b c6		 mov	 eax, esi

; 2219 :         if (_Large_string_engaged()) {

  0012b	72 02		 jb	 SHORT $LN112@string_joi

; 2220 :             _Result = _Unfancy(_Bx._Ptr);

  0012d	8b 06		 mov	 eax, DWORD PTR [esi]
$LN112@string_joi:

; 2910 :         return append(_Right._Mypair._Myval2._Myptr(), _Right._Mypair._Myval2._Mysize);

  0012f	ff 76 10	 push	 DWORD PTR [esi+16]
  00132	8d 4d d8	 lea	 ecx, DWORD PTR _buf$[ebp]
  00135	50		 push	 eax
  00136	e8 00 00 00 00	 call	 ?append@?$basic_string@DU?$char_traits@D@std@@V?$allocator@D@2@@std@@QAEAAV12@QBDI@Z ; std::basic_string<char,std::char_traits<char>,std::allocator<char> >::append
; File D:\Metin2 Server Files\mainline\SRC_2014\Metin2Client\eterBase\Utils.h

; 143  :     swap(*ret, buf);

  0013b	8d 45 d8	 lea	 eax, DWORD PTR _buf$[ebp]
  0013e	50		 push	 eax
  0013f	ff 75 cc	 push	 DWORD PTR _ret$GSCopy$1$[ebp]
  00142	e8 00 00 00 00	 call	 ??$swap@DU?$char_traits@D@std@@V?$allocator@D@2@@std@@YAXAAV?$basic_string@DU?$char_traits@D@std@@V?$allocator@D@2@@0@0@Z ; std::swap<char,std::char_traits<char>,std::allocator<char> >
; File C:\Program Files (x86)\Microsoft Visual Studio\2019\Community\VC\Tools\MSVC\14.28.29333\include\xstring

; 2227 :         return _BUF_SIZE <= _Myres;

  00147	8b 45 ec	 mov	 eax, DWORD PTR _buf$[ebp+20]
; File D:\Metin2 Server Files\mainline\SRC_2014\Metin2Client\eterBase\Utils.h

; 143  :     swap(*ret, buf);

  0014a	83 c4 08	 add	 esp, 8
; File C:\Program Files (x86)\Microsoft Visual Studio\2019\Community\VC\Tools\MSVC\14.28.29333\include\xstring

; 2227 :         return _BUF_SIZE <= _Myres;

  0014d	83 f8 10	 cmp	 eax, 16			; 00000010H

; 4385 :         if (_Mypair._Myval2._Large_string_engaged()) {

  00150	72 0d		 jb	 SHORT $LN120@string_joi

; 4386 :             const pointer _Ptr = _Mypair._Myval2._Bx._Ptr;
; 4387 :             auto& _Al          = _Getal();
; 4388 :             _Destroy_in_place(_Mypair._Myval2._Bx._Ptr);
; 4389 :             _Al.deallocate(_Ptr, _Mypair._Myval2._Myres + 1);

  00152	40		 inc	 eax
; File C:\Program Files (x86)\Microsoft Visual Studio\2019\Community\VC\Tools\MSVC\14.28.29333\include\xmemory

; 810  :         _Deallocate<_New_alignof<_Ty>>(_Ptr, sizeof(_Ty) * _Count);

  00153	50		 push	 eax
  00154	ff 75 d8	 push	 DWORD PTR _buf$[ebp]
  00157	e8 00 00 00 00	 call	 ??$_Deallocate@$07$0A@@std@@YAXPAXI@Z ; std::_Deallocate<8,0>
  0015c	83 c4 08	 add	 esp, 8
$LN120@string_joi:
; File D:\Metin2 Server Files\mainline\SRC_2014\Metin2Client\eterBase\Utils.h

; 144  : }

  0015f	8b 4d f4	 mov	 ecx, DWORD PTR __$EHRec$[ebp]
  00162	64 89 0d 00 00
	00 00		 mov	 DWORD PTR fs:0, ecx
  00169	59		 pop	 ecx
  0016a	5f		 pop	 edi
  0016b	5e		 pop	 esi
  0016c	5b		 pop	 ebx
  0016d	8b 4d f0	 mov	 ecx, DWORD PTR __$ArrayPad$[ebp]
  00170	33 cd		 xor	 ecx, ebp
  00172	e8 00 00 00 00	 call	 @__security_check_cookie@4
  00177	8b e5		 mov	 esp, ebp
  00179	5d		 pop	 ebp
  0017a	c3		 ret	 0
$LN137@string_joi:
; File C:\Program Files (x86)\Microsoft Visual Studio\2019\Community\VC\Tools\MSVC\14.28.29333\include\xstring

; 4334 :             _Xlen_string(); // result too long

  0017b	e8 00 00 00 00	 call	 ?_Xlen_string@std@@YAXXZ ; std::_Xlen_string
$LN135@string_joi:
  00180	cc		 int	 3
_TEXT	ENDS
;	COMDAT text$x
text$x	SEGMENT
__unwindfunclet$??$string_join@V?$vector@V?$basic_string@DU?$char_traits@D@std@@V?$allocator@D@2@@std@@V?$allocator@V?$basic_string@DU?$char_traits@D@std@@V?$allocator@D@2@@std@@@2@@std@@@@YAXABV?$basic_string@DU?$char_traits@D@std@@V?$allocator@D@2@@std@@ABV?$vector@V?$basic_string@DU?$char_traits@D@std@@V?$allocator@D@2@@std@@V?$allocator@V?$basic_string@DU?$char_traits@D@std@@V?$allocator@D@2@@std@@@2@@1@PAV01@@Z$0:
  00000	8d 4d d8	 lea	 ecx, DWORD PTR _buf$[ebp]
  00003	e9 00 00 00 00	 jmp	 ??1?$basic_string@DU?$char_traits@D@std@@V?$allocator@D@2@@std@@QAE@XZ ; std::basic_string<char,std::char_traits<char>,std::allocator<char> >::~basic_string<char,std::char_traits<char>,std::allocator<char> >
  00008	cc		 int	 3
  00009	cc		 int	 3
  0000a	cc		 int	 3
  0000b	cc		 int	 3
  0000c	cc		 int	 3
__ehhandler$??$string_join@V?$vector@V?$basic_string@DU?$char_traits@D@std@@V?$allocator@D@2@@std@@V?$allocator@V?$basic_string@DU?$char_traits@D@std@@V?$allocator@D@2@@std@@@2@@std@@@@YAXABV?$basic_string@DU?$char_traits@D@std@@V?$allocator@D@2@@std@@ABV?$vector@V?$basic_string@DU?$char_traits@D@std@@V?$allocator@D@2@@std@@V?$allocator@V?$basic_string@DU?$char_traits@D@std@@V?$allocator@D@2@@std@@@2@@1@PAV01@@Z:
  0000d	90		 npad	 1
  0000e	90		 npad	 1
  0000f	8b 54 24 08	 mov	 edx, DWORD PTR [esp+8]
  00013	8d 42 0c	 lea	 eax, DWORD PTR [edx+12]
  00016	8b 4a c8	 mov	 ecx, DWORD PTR [edx-56]
  00019	33 c8		 xor	 ecx, eax
  0001b	e8 00 00 00 00	 call	 @__security_check_cookie@4
  00020	8b 4a fc	 mov	 ecx, DWORD PTR [edx-4]
  00023	33 c8		 xor	 ecx, eax
  00025	e8 00 00 00 00	 call	 @__security_check_cookie@4
  0002a	b8 00 00 00 00	 mov	 eax, OFFSET __ehfuncinfo$??$string_join@V?$vector@V?$basic_string@DU?$char_traits@D@std@@V?$allocator@D@2@@std@@V?$allocator@V?$basic_string@DU?$char_traits@D@std@@V?$allocator@D@2@@std@@@2@@std@@@@YAXABV?$basic_string@DU?$char_traits@D@std@@V?$allocator@D@2@@std@@ABV?$vector@V?$basic_string@DU?$char_traits@D@std@@V?$allocator@D@2@@std@@V?$allocator@V?$basic_string@DU?$char_traits@D@std@@V?$allocator@D@2@@std@@@2@@1@PAV01@@Z
  0002f	e9 00 00 00 00	 jmp	 ___CxxFrameHandler3
text$x	ENDS
??$string_join@V?$vector@V?$basic_string@DU?$char_traits@D@std@@V?$allocator@D@2@@std@@V?$allocator@V?$basic_string@DU?$char_traits@D@std@@V?$allocator@D@2@@std@@@2@@std@@@@YAXABV?$basic_string@DU?$char_traits@D@std@@V?$allocator@D@2@@std@@ABV?$vector@V?$basic_string@DU?$char_traits@D@std@@V?$allocator@D@2@@std@@V?$allocator@V?$basic_string@DU?$char_traits@D@std@@V?$allocator@D@2@@std@@@2@@1@PAV01@@Z ENDP ; string_join<std::vector<std::basic_string<char,std::char_traits<char>,std::allocator<char> >,std::allocator<std::basic_string<char,std::char_traits<char>,std::allocator<char> > > > >
; Function compile flags: /Ogtp
; File C:\Program Files (x86)\Microsoft Visual Studio\2019\Community\VC\Tools\MSVC\14.28.29333\include\xstring
;	COMDAT ??$?8DU?$char_traits@D@std@@V?$allocator@D@1@@std@@YA_NABV?$basic_string@DU?$char_traits@D@std@@V?$allocator@D@2@@0@QBD@Z
_TEXT	SEGMENT
__Left$ = 8						; size = 4
__Right$ = 12						; size = 4
??$?8DU?$char_traits@D@std@@V?$allocator@D@1@@std@@YA_NABV?$basic_string@DU?$char_traits@D@std@@V?$allocator@D@2@@0@QBD@Z PROC ; std::operator==<char,std::char_traits<char>,std::allocator<char> >, COMDAT

; 4564 : _NODISCARD bool operator==(const basic_string<_Elem, _Traits, _Alloc>& _Left, _In_z_ const _Elem* const _Right) {

  00000	55		 push	 ebp
  00001	8b ec		 mov	 ebp, esp

; 389  :         return _CSTD strlen(reinterpret_cast<const char*>(_First));

  00003	8b 4d 0c	 mov	 ecx, DWORD PTR __Right$[ebp]
  00006	8d 51 01	 lea	 edx, DWORD PTR [ecx+1]
  00009	0f 1f 80 00 00
	00 00		 npad	 7
$LL12@operator:
  00010	8a 01		 mov	 al, BYTE PTR [ecx]
  00012	41		 inc	 ecx
  00013	84 c0		 test	 al, al
  00015	75 f9		 jne	 SHORT $LL12@operator

; 2218 :         const value_type* _Result = _Bx._Buf;

  00017	8b 45 08	 mov	 eax, DWORD PTR __Left$[ebp]

; 389  :         return _CSTD strlen(reinterpret_cast<const char*>(_First));

  0001a	2b ca		 sub	 ecx, edx

; 2218 :         const value_type* _Result = _Bx._Buf;

  0001c	8b d0		 mov	 edx, eax

; 2227 :         return _BUF_SIZE <= _Myres;

  0001e	83 78 14 10	 cmp	 DWORD PTR [eax+20], 16	; 00000010H

; 2219 :         if (_Large_string_engaged()) {

  00022	72 02		 jb	 SHORT $LN8@operator

; 2220 :             _Result = _Unfancy(_Bx._Ptr);

  00024	8b 10		 mov	 edx, DWORD PTR [eax]
$LN8@operator:

; 4180 :         return _Traits_equal<_Traits>(_Mypair._Myval2._Myptr(), _Mypair._Myval2._Mysize, _Ptr, _Traits::length(_Ptr));

  00026	51		 push	 ecx
  00027	ff 75 0c	 push	 DWORD PTR __Right$[ebp]
  0002a	ff 70 10	 push	 DWORD PTR [eax+16]
  0002d	52		 push	 edx
  0002e	e8 00 00 00 00	 call	 ??$_Traits_equal@U?$char_traits@D@std@@@std@@YA_NQBDI0I@Z ; std::_Traits_equal<std::char_traits<char> >
  00033	83 c4 10	 add	 esp, 16			; 00000010H

; 4565 :     return _Left._Equal(_Right);
; 4566 : }

  00036	5d		 pop	 ebp
  00037	c3		 ret	 0
??$?8DU?$char_traits@D@std@@V?$allocator@D@1@@std@@YA_NABV?$basic_string@DU?$char_traits@D@std@@V?$allocator@D@2@@0@QBD@Z ENDP ; std::operator==<char,std::char_traits<char>,std::allocator<char> >
_TEXT	ENDS
; Function compile flags: /Ogtp
; File D:\Metin2 Server Files\mainline\SRC_2014\Metin2Client\UserInterface\UserInterface.cpp
; File C:\Program Files (x86)\Microsoft Visual Studio\2019\Community\VC\Tools\MSVC\14.28.29333\include\xstring
; File D:\Metin2 Server Files\mainline\SRC_2014\Metin2Client\UserInterface\UserInterface.cpp
; File C:\Program Files (x86)\Microsoft Visual Studio\2019\Community\VC\Tools\MSVC\14.28.29333\include\xstring
; File D:\Metin2 Server Files\mainline\SRC_2014\Metin2Client\UserInterface\UserInterface.cpp
; File C:\Program Files (x86)\Microsoft Visual Studio\2019\Community\VC\Tools\MSVC\14.28.29333\include\xstring
; File D:\Metin2 Server Files\mainline\SRC_2014\Metin2Client\UserInterface\UserInterface.cpp
; File C:\Program Files (x86)\Microsoft Visual Studio\2019\Community\VC\Tools\MSVC\14.28.29333\include\xstring
; File D:\Metin2 Server Files\mainline\SRC_2014\Metin2Client\UserInterface\UserInterface.cpp
; File C:\Program Files (x86)\Microsoft Visual Studio\2019\Community\VC\Tools\MSVC\14.28.29333\include\xstring
; File C:\Program Files (x86)\Microsoft Visual Studio\2019\Community\VC\Tools\MSVC\14.28.29333\include\xmemory
; File D:\Metin2 Server Files\mainline\SRC_2014\Metin2Client\UserInterface\UserInterface.cpp
; File C:\Program Files (x86)\Microsoft Visual Studio\2019\Community\VC\Tools\MSVC\14.28.29333\include\xstring
; File C:\Program Files (x86)\Microsoft Visual Studio\2019\Community\VC\Tools\MSVC\14.28.29333\include\xmemory
; File C:\Program Files (x86)\Microsoft Visual Studio\2019\Community\VC\Tools\MSVC\14.28.29333\include\xstring
; File D:\Metin2 Server Files\mainline\SRC_2014\Metin2Client\UserInterface\UserInterface.cpp
; File C:\Program Files (x86)\Microsoft Visual Studio\2019\Community\VC\Tools\MSVC\14.28.29333\include\xstring
; File C:\Program Files (x86)\Microsoft Visual Studio\2019\Community\VC\Tools\MSVC\14.28.29333\include\vector
; File D:\Metin2 Server Files\mainline\SRC_2014\Metin2Client\UserInterface\UserInterface.cpp
; File C:\Program Files (x86)\Microsoft Visual Studio\2019\Community\VC\Tools\MSVC\14.28.29333\include\vector
; File D:\Metin2 Server Files\mainline\SRC_2014\Metin2Client\UserInterface\UserInterface.cpp
; File C:\Program Files (x86)\Microsoft Visual Studio\2019\Community\VC\Tools\MSVC\14.28.29333\include\vector
; File D:\Metin2 Server Files\mainline\SRC_2014\Metin2Client\UserInterface\UserInterface.cpp
; File C:\Program Files (x86)\Microsoft Visual Studio\2019\Community\VC\Tools\MSVC\14.28.29333\include\vector
; File C:\Program Files (x86)\Microsoft Visual Studio\2019\Community\VC\Tools\MSVC\14.28.29333\include\xstring
; File D:\Metin2 Server Files\mainline\SRC_2014\Metin2Client\UserInterface\UserInterface.cpp
; File C:\Program Files (x86)\Microsoft Visual Studio\2019\Community\VC\Tools\MSVC\14.28.29333\include\vector
; File C:\Program Files (x86)\Microsoft Visual Studio\2019\Community\VC\Tools\MSVC\14.28.29333\include\xstring
; File D:\Metin2 Server Files\mainline\SRC_2014\Metin2Client\UserInterface\UserInterface.cpp
; File C:\Program Files (x86)\Microsoft Visual Studio\2019\Community\VC\Tools\MSVC\14.28.29333\include\xstring
; File D:\Metin2 Server Files\mainline\SRC_2014\Metin2Client\UserInterface\UserInterface.cpp
; File C:\Program Files (x86)\Microsoft Visual Studio\2019\Community\VC\Tools\MSVC\14.28.29333\include\xstring
; File D:\Metin2 Server Files\mainline\SRC_2014\Metin2Client\UserInterface\UserInterface.cpp
; File C:\Program Files (x86)\Microsoft Visual Studio\2019\Community\VC\Tools\MSVC\14.28.29333\include\xstring
; File C:\Program Files (x86)\Microsoft Visual Studio\2019\Community\VC\Tools\MSVC\14.28.29333\include\xmemory
; File D:\Metin2 Server Files\mainline\SRC_2014\Metin2Client\UserInterface\UserInterface.cpp
; File C:\Program Files (x86)\Microsoft Visual Studio\2019\Community\VC\Tools\MSVC\14.28.29333\include\xstring
; File D:\Metin2 Server Files\mainline\SRC_2014\Metin2Client\UserInterface\UserInterface.cpp
; File C:\Program Files (x86)\Microsoft Visual Studio\2019\Community\VC\Tools\MSVC\14.28.29333\include\xstring
; File D:\Metin2 Server Files\mainline\SRC_2014\Metin2Client\UserInterface\UserInterface.cpp
; File C:\Program Files (x86)\Microsoft Visual Studio\2019\Community\VC\Tools\MSVC\14.28.29333\include\xstring
; File C:\Program Files (x86)\Microsoft Visual Studio\2019\Community\VC\Tools\MSVC\14.28.29333\include\xmemory
; File D:\Metin2 Server Files\mainline\SRC_2014\Metin2Client\UserInterface\UserInterface.cpp
; File C:\Program Files (x86)\Microsoft Visual Studio\2019\Community\VC\Tools\MSVC\14.28.29333\include\xstring
; File C:\Program Files (x86)\Microsoft Visual Studio\2019\Community\VC\Tools\MSVC\14.28.29333\include\xmemory
; File C:\Program Files (x86)\Microsoft Visual Studio\2019\Community\VC\Tools\MSVC\14.28.29333\include\xstring
; File C:\Program Files (x86)\Microsoft Visual Studio\2019\Community\VC\Tools\MSVC\14.28.29333\include\xmemory
; File C:\Program Files (x86)\Microsoft Visual Studio\2019\Community\VC\Tools\MSVC\14.28.29333\include\xstring
; File C:\Program Files (x86)\Microsoft Visual Studio\2019\Community\VC\Tools\MSVC\14.28.29333\include\xmemory
; File C:\Program Files (x86)\Microsoft Visual Studio\2019\Community\VC\Tools\MSVC\14.28.29333\include\xstring
; File D:\Metin2 Server Files\mainline\SRC_2014\Metin2Client\UserInterface\UserInterface.cpp
; File C:\Program Files (x86)\Microsoft Visual Studio\2019\Community\VC\Tools\MSVC\14.28.29333\include\xstring
; File D:\Metin2 Server Files\mainline\SRC_2014\Metin2Client\UserInterface\UserInterface.cpp
; File C:\Program Files (x86)\Microsoft Visual Studio\2019\Community\VC\Tools\MSVC\14.28.29333\include\xstring
; File D:\Metin2 Server Files\mainline\SRC_2014\Metin2Client\UserInterface\UserInterface.cpp
; File C:\Program Files (x86)\Microsoft Visual Studio\2019\Community\VC\Tools\MSVC\14.28.29333\include\xstring
; File D:\Metin2 Server Files\mainline\SRC_2014\Metin2Client\UserInterface\UserInterface.cpp
; File C:\Program Files (x86)\Microsoft Visual Studio\2019\Community\VC\Tools\MSVC\14.28.29333\include\vector
; File D:\Metin2 Server Files\mainline\SRC_2014\Metin2Client\UserInterface\UserInterface.cpp
; File C:\Program Files (x86)\Microsoft Visual Studio\2019\Community\VC\Tools\MSVC\14.28.29333\include\vector
; File C:\Program Files (x86)\Microsoft Visual Studio\2019\Community\VC\Tools\MSVC\14.28.29333\include\xmemory
; File C:\Program Files (x86)\Microsoft Visual Studio\2019\Community\VC\Tools\MSVC\14.28.29333\include\vector
; File C:\Program Files (x86)\Microsoft Visual Studio\2019\Community\VC\Tools\MSVC\14.28.29333\include\xstring
; File C:\Program Files (x86)\Microsoft Visual Studio\2019\Community\VC\Tools\MSVC\14.28.29333\include\xmemory
; File C:\Program Files (x86)\Microsoft Visual Studio\2019\Community\VC\Tools\MSVC\14.28.29333\include\xstring
; File C:\Program Files (x86)\Microsoft Visual Studio\2019\Community\VC\Tools\MSVC\14.28.29333\include\xmemory
; File D:\Metin2 Server Files\mainline\SRC_2014\Metin2Client\UserInterface\UserInterface.cpp
; File C:\Program Files (x86)\Microsoft Visual Studio\2019\Community\VC\Tools\MSVC\14.28.29333\include\vector
; File C:\Program Files (x86)\Microsoft Visual Studio\2019\Community\VC\Tools\MSVC\14.28.29333\include\xmemory
; File C:\Program Files (x86)\Microsoft Visual Studio\2019\Community\VC\Tools\MSVC\14.28.29333\include\vector
; File C:\Program Files (x86)\Microsoft Visual Studio\2019\Community\VC\Tools\MSVC\14.28.29333\include\xstring
; File C:\Program Files (x86)\Microsoft Visual Studio\2019\Community\VC\Tools\MSVC\14.28.29333\include\xmemory
; File C:\Program Files (x86)\Microsoft Visual Studio\2019\Community\VC\Tools\MSVC\14.28.29333\include\xstring
; File C:\Program Files (x86)\Microsoft Visual Studio\2019\Community\VC\Tools\MSVC\14.28.29333\include\xmemory
; File C:\Program Files (x86)\Microsoft Visual Studio\2019\Community\VC\Tools\MSVC\14.28.29333\include\vector
; File D:\Metin2 Server Files\mainline\SRC_2014\Metin2Client\UserInterface\UserInterface.cpp
; File C:\Program Files (x86)\Microsoft Visual Studio\2019\Community\VC\Tools\MSVC\14.28.29333\include\vector
; File D:\Metin2 Server Files\mainline\SRC_2014\Metin2Client\UserInterface\UserInterface.cpp
; File C:\Program Files (x86)\Microsoft Visual Studio\2019\Community\VC\Tools\MSVC\14.28.29333\include\vector
; File D:\Metin2 Server Files\mainline\SRC_2014\Metin2Client\UserInterface\UserInterface.cpp
; File C:\Program Files (x86)\Microsoft Visual Studio\2019\Community\VC\Tools\MSVC\14.28.29333\include\vector
; File D:\Metin2 Server Files\mainline\SRC_2014\Metin2Client\UserInterface\UserInterface.cpp
; File C:\Program Files (x86)\Microsoft Visual Studio\2019\Community\VC\Tools\MSVC\14.28.29333\include\vector
; File C:\Program Files (x86)\Microsoft Visual Studio\2019\Community\VC\Tools\MSVC\14.28.29333\include\xmemory
; File D:\Metin2 Server Files\mainline\SRC_2014\Metin2Client\UserInterface\UserInterface.cpp
; File C:\Program Files (x86)\Microsoft Visual Studio\2019\Community\VC\Tools\MSVC\14.28.29333\include\vector
; File C:\Program Files (x86)\Microsoft Visual Studio\2019\Community\VC\Tools\MSVC\14.28.29333\include\xmemory
; File D:\Metin2 Server Files\mainline\SRC_2014\Metin2Client\UserInterface\UserInterface.cpp
;	COMDAT ?RunMainScript@@YA_NAAVCPythonLauncher@@PBD@Z
_TEXT	SEGMENT
__New_ptr$2 = -376					; size = 4
_pyLauncher$GSCopy$1$ = -372				; size = 4
$T3 = -368						; size = 4
_lpCmdLine$GSCopy$1$ = -364				; size = 4
_stVec$4 = -360						; size = 12
_stVec$5 = -360						; size = 12
$T6 = -348						; size = 24
$T7 = -348						; size = 24
_stRegisterCmdLine$8 = -324				; size = 24
_stCmdLine$9 = -300					; size = 24
_stRegisterDebugFlag$10 = -300				; size = 24
_buf$11 = -276						; size = 260
__$ArrayPad$ = -16					; size = 4
__$EHRec$ = -12						; size = 12
_pyLauncher$ = 8					; size = 4
_lpCmdLine$ = 12					; size = 4
?RunMainScript@@YA_NAAVCPythonLauncher@@PBD@Z PROC	; RunMainScript, COMDAT

; 253  : {

  00000	55		 push	 ebp
  00001	8b ec		 mov	 ebp, esp
  00003	6a ff		 push	 -1
  00005	68 00 00 00 00	 push	 __ehhandler$?RunMainScript@@YA_NAAVCPythonLauncher@@PBD@Z
  0000a	64 a1 00 00 00
	00		 mov	 eax, DWORD PTR fs:0
  00010	50		 push	 eax
  00011	81 ec 6c 01 00
	00		 sub	 esp, 364		; 0000016cH
  00017	a1 00 00 00 00	 mov	 eax, DWORD PTR ___security_cookie
  0001c	33 c5		 xor	 eax, ebp
  0001e	89 45 f0	 mov	 DWORD PTR __$ArrayPad$[ebp], eax
  00021	53		 push	 ebx
  00022	56		 push	 esi
  00023	57		 push	 edi
  00024	50		 push	 eax
  00025	8d 45 f4	 lea	 eax, DWORD PTR __$EHRec$[ebp]
  00028	64 a3 00 00 00
	00		 mov	 DWORD PTR fs:0, eax
  0002e	8b 45 08	 mov	 eax, DWORD PTR _pyLauncher$[ebp]
  00031	89 85 8c fe ff
	ff		 mov	 DWORD PTR _pyLauncher$GSCopy$1$[ebp], eax
  00037	8b 45 0c	 mov	 eax, DWORD PTR _lpCmdLine$[ebp]
  0003a	89 85 94 fe ff
	ff		 mov	 DWORD PTR _lpCmdLine$GSCopy$1$[ebp], eax

; 254  : 	initpack();

  00040	e8 00 00 00 00	 call	 ?initpack@@YAXXZ	; initpack

; 255  : 	initdbg();

  00045	e8 00 00 00 00	 call	 ?initdbg@@YAXXZ		; initdbg

; 256  : 	initime();

  0004a	e8 00 00 00 00	 call	 ?initime@@YAXXZ		; initime

; 257  : 	initgrp();

  0004f	e8 00 00 00 00	 call	 ?initgrp@@YAXXZ		; initgrp

; 258  : 	initgrpImage();

  00054	e8 00 00 00 00	 call	 ?initgrpImage@@YAXXZ	; initgrpImage

; 259  : 	initgrpText();

  00059	e8 00 00 00 00	 call	 ?initgrpText@@YAXXZ	; initgrpText

; 260  : 	initwndMgr();

  0005e	e8 00 00 00 00	 call	 ?initwndMgr@@YAXXZ	; initwndMgr

; 261  : 	/////////////////////////////////////////////
; 262  : 	initudp();

  00063	e8 00 00 00 00	 call	 ?initudp@@YAXXZ		; initudp

; 263  : 	initapp();

  00068	e8 00 00 00 00	 call	 ?initapp@@YAXXZ		; initapp

; 264  : 	initsystem();

  0006d	e8 00 00 00 00	 call	 ?initsystem@@YAXXZ	; initsystem

; 265  : 	initchr();

  00072	e8 00 00 00 00	 call	 ?initchr@@YAXXZ		; initchr

; 266  : 	initchrmgr();

  00077	e8 00 00 00 00	 call	 ?initchrmgr@@YAXXZ	; initchrmgr

; 267  : 	initPlayer();

  0007c	e8 00 00 00 00	 call	 ?initPlayer@@YAXXZ	; initPlayer

; 268  : 	initItem();

  00081	e8 00 00 00 00	 call	 ?initItem@@YAXXZ	; initItem

; 269  : 	initNonPlayer();

  00086	e8 00 00 00 00	 call	 ?initNonPlayer@@YAXXZ	; initNonPlayer

; 270  : 	initTrade();

  0008b	e8 00 00 00 00	 call	 ?initTrade@@YAXXZ	; initTrade

; 271  : 	initChat();

  00090	e8 00 00 00 00	 call	 ?initChat@@YAXXZ	; initChat

; 272  : 	initTextTail();

  00095	e8 00 00 00 00	 call	 ?initTextTail@@YAXXZ	; initTextTail

; 273  : 	initnet();

  0009a	e8 00 00 00 00	 call	 ?initnet@@YAXXZ		; initnet

; 274  : 	initMiniMap();

  0009f	e8 00 00 00 00	 call	 ?initMiniMap@@YAXXZ	; initMiniMap

; 275  : 	initProfiler();

  000a4	e8 00 00 00 00	 call	 ?initProfiler@@YAXXZ	; initProfiler

; 276  : 	initEvent();

  000a9	e8 00 00 00 00	 call	 ?initEvent@@YAXXZ	; initEvent

; 277  : 	initeffect();

  000ae	e8 00 00 00 00	 call	 ?initeffect@@YAXXZ	; initeffect

; 278  : 	initfly();

  000b3	e8 00 00 00 00	 call	 ?initfly@@YAXXZ		; initfly

; 279  : 	initsnd();

  000b8	e8 00 00 00 00	 call	 ?initsnd@@YAXXZ		; initsnd

; 280  : 	initeventmgr();

  000bd	e8 00 00 00 00	 call	 ?initeventmgr@@YAXXZ	; initeventmgr

; 281  : 	initshop();

  000c2	e8 00 00 00 00	 call	 ?initshop@@YAXXZ	; initshop

; 282  : 	initskill();

  000c7	e8 00 00 00 00	 call	 ?initskill@@YAXXZ	; initskill

; 283  : 	initquest();

  000cc	e8 00 00 00 00	 call	 ?initquest@@YAXXZ	; initquest

; 284  : 	initBackground();

  000d1	e8 00 00 00 00	 call	 ?initBackground@@YAXXZ	; initBackground

; 285  : 	initMessenger();

  000d6	e8 00 00 00 00	 call	 ?initMessenger@@YAXXZ	; initMessenger

; 286  : 	initsafebox();

  000db	e8 00 00 00 00	 call	 ?initsafebox@@YAXXZ	; initsafebox

; 287  : 	initguild();

  000e0	e8 00 00 00 00	 call	 ?initguild@@YAXXZ	; initguild

; 288  : 	initServerStateChecker();

  000e5	e8 00 00 00 00	 call	 ?initServerStateChecker@@YAXXZ ; initServerStateChecker

; 289  : 
; 290  : 	NANOBEGIN

  000ea	eb		 DB	 -21			; ffffffebH
  000eb	03		 DB	 3
  000ec	d6		 DB	 -42			; ffffffd6H
  000ed	d7		 DB	 -41			; ffffffd7H
  000ee	01		 DB	 1
; File C:\Program Files (x86)\Microsoft Visual Studio\2019\Community\VC\Tools\MSVC\14.28.29333\include\xstring

; 4378 :         _Mypair._Myval2._Myres  = _BUF_SIZE - 1;

  000ef	b9 0f 00 00 00	 mov	 ecx, 15			; 0000000fH
  000f4	89 8d e8 fe ff
	ff		 mov	 DWORD PTR _stRegisterDebugFlag$10[ebp+20], ecx

; 119  :         _CSTD memmove(_First1, _First2, _Count * sizeof(_Elem));

  000fa	a1 08 00 00 00	 mov	 eax, DWORD PTR ??_C@_0O@GIEHGGHC@__DEBUG__?5?$DN?50@+8
  000ff	f3 0f 7e 05 00
	00 00 00	 movq	 xmm0, QWORD PTR ??_C@_0O@GIEHGGHC@__DEBUG__?5?$DN?50@
; File D:\Metin2 Server Files\mainline\SRC_2014\Metin2Client\UserInterface\UserInterface.cpp

; 302  : 		if (!pyLauncher.RunLine(stRegisterDebugFlag.c_str()))

  00107	8b 8d 8c fe ff
	ff		 mov	 ecx, DWORD PTR _pyLauncher$GSCopy$1$[ebp]
; File C:\Program Files (x86)\Microsoft Visual Studio\2019\Community\VC\Tools\MSVC\14.28.29333\include\xstring

; 119  :         _CSTD memmove(_First1, _First2, _Count * sizeof(_Elem));

  0010d	89 85 dc fe ff
	ff		 mov	 DWORD PTR _stRegisterDebugFlag$10[ebp+8], eax
  00113	a0 0c 00 00 00	 mov	 al, BYTE PTR ??_C@_0O@GIEHGGHC@__DEBUG__?5?$DN?50@+12
  00118	88 85 e0 fe ff
	ff		 mov	 BYTE PTR _stRegisterDebugFlag$10[ebp+12], al

; 2218 :         const value_type* _Result = _Bx._Buf;

  0011e	8d 85 d4 fe ff
	ff		 lea	 eax, DWORD PTR _stRegisterDebugFlag$10[ebp]
; File D:\Metin2 Server Files\mainline\SRC_2014\Metin2Client\UserInterface\UserInterface.cpp

; 302  : 		if (!pyLauncher.RunLine(stRegisterDebugFlag.c_str()))

  00124	50		 push	 eax
  00125	c7 45 fc 00 00
	00 00		 mov	 DWORD PTR __$EHRec$[ebp+8], 0
; File C:\Program Files (x86)\Microsoft Visual Studio\2019\Community\VC\Tools\MSVC\14.28.29333\include\xstring

; 3046 :             _Mypair._Myval2._Mysize = _Count;

  0012c	c7 85 e4 fe ff
	ff 0d 00 00 00	 mov	 DWORD PTR _stRegisterDebugFlag$10[ebp+16], 13 ; 0000000dH

; 119  :         _CSTD memmove(_First1, _First2, _Count * sizeof(_Elem));

  00136	66 0f d6 85 d4
	fe ff ff	 movq	 QWORD PTR _stRegisterDebugFlag$10[ebp], xmm0

; 3048 :             _Traits::assign(_Old_ptr[_Count], _Elem());

  0013e	c6 85 e1 fe ff
	ff 00		 mov	 BYTE PTR _stRegisterDebugFlag$10[ebp+13], 0
; File D:\Metin2 Server Files\mainline\SRC_2014\Metin2Client\UserInterface\UserInterface.cpp

; 302  : 		if (!pyLauncher.RunLine(stRegisterDebugFlag.c_str()))

  00145	e8 00 00 00 00	 call	 ?RunLine@CPythonLauncher@@QAE_NPBD@Z ; CPythonLauncher::RunLine
  0014a	84 c0		 test	 al, al
  0014c	75 33		 jne	 SHORT $LN2@RunMainScr

; 304  : 			TraceError("RegisterDebugFlag Error");

  0014e	68 00 00 00 00	 push	 OFFSET ??_C@_0BI@JAFKHBD@RegisterDebugFlag?5Error@
  00153	e8 00 00 00 00	 call	 ?TraceError@@YAXPBDZZ	; TraceError
; File C:\Program Files (x86)\Microsoft Visual Studio\2019\Community\VC\Tools\MSVC\14.28.29333\include\xstring

; 2227 :         return _BUF_SIZE <= _Myres;

  00158	8b 85 e8 fe ff
	ff		 mov	 eax, DWORD PTR _stRegisterDebugFlag$10[ebp+20]
; File D:\Metin2 Server Files\mainline\SRC_2014\Metin2Client\UserInterface\UserInterface.cpp

; 304  : 			TraceError("RegisterDebugFlag Error");

  0015e	83 c4 04	 add	 esp, 4
; File C:\Program Files (x86)\Microsoft Visual Studio\2019\Community\VC\Tools\MSVC\14.28.29333\include\xstring

; 2227 :         return _BUF_SIZE <= _Myres;

  00161	83 f8 10	 cmp	 eax, 16			; 00000010H

; 4385 :         if (_Mypair._Myval2._Large_string_engaged()) {

  00164	0f 82 d0 05 00
	00		 jb	 $LN407@RunMainScr

; 4386 :             const pointer _Ptr = _Mypair._Myval2._Bx._Ptr;
; 4387 :             auto& _Al          = _Getal();
; 4388 :             _Destroy_in_place(_Mypair._Myval2._Bx._Ptr);
; 4389 :             _Al.deallocate(_Ptr, _Mypair._Myval2._Myres + 1);

  0016a	40		 inc	 eax
; File C:\Program Files (x86)\Microsoft Visual Studio\2019\Community\VC\Tools\MSVC\14.28.29333\include\xmemory

; 810  :         _Deallocate<_New_alignof<_Ty>>(_Ptr, sizeof(_Ty) * _Count);

  0016b	50		 push	 eax
  0016c	ff b5 d4 fe ff
	ff		 push	 DWORD PTR _stRegisterDebugFlag$10[ebp]
  00172	e8 00 00 00 00	 call	 ??$_Deallocate@$07$0A@@std@@YAXPAXI@Z ; std::_Deallocate<8,0>
  00177	83 c4 08	 add	 esp, 8
; File D:\Metin2 Server Files\mainline\SRC_2014\Metin2Client\UserInterface\UserInterface.cpp

; 363  : 			return false;

  0017a	32 c0		 xor	 al, al
  0017c	e9 10 06 00 00	 jmp	 $LN1@RunMainScr
$LN2@RunMainScr:
; File C:\Program Files (x86)\Microsoft Visual Studio\2019\Community\VC\Tools\MSVC\14.28.29333\include\xstring

; 4385 :         if (_Mypair._Myval2._Large_string_engaged()) {

  00181	8b 85 e8 fe ff
	ff		 mov	 eax, DWORD PTR _stRegisterDebugFlag$10[ebp+20]
  00187	83 f8 10	 cmp	 eax, 16			; 00000010H
  0018a	72 10		 jb	 SHORT $LN91@RunMainScr

; 4386 :             const pointer _Ptr = _Mypair._Myval2._Bx._Ptr;
; 4387 :             auto& _Al          = _Getal();
; 4388 :             _Destroy_in_place(_Mypair._Myval2._Bx._Ptr);
; 4389 :             _Al.deallocate(_Ptr, _Mypair._Myval2._Myres + 1);

  0018c	40		 inc	 eax
; File C:\Program Files (x86)\Microsoft Visual Studio\2019\Community\VC\Tools\MSVC\14.28.29333\include\xmemory

; 810  :         _Deallocate<_New_alignof<_Ty>>(_Ptr, sizeof(_Ty) * _Count);

  0018d	50		 push	 eax
  0018e	ff b5 d4 fe ff
	ff		 push	 DWORD PTR _stRegisterDebugFlag$10[ebp]
  00194	e8 00 00 00 00	 call	 ??$_Deallocate@$07$0A@@std@@YAXPAXI@Z ; std::_Deallocate<8,0>
  00199	83 c4 08	 add	 esp, 8
$LN91@RunMainScr:
; File C:\Program Files (x86)\Microsoft Visual Studio\2019\Community\VC\Tools\MSVC\14.28.29333\include\xstring

; 4377 :         _Mypair._Myval2._Mysize = 0;

  0019c	c7 85 cc fe ff
	ff 00 00 00 00	 mov	 DWORD PTR _stRegisterCmdLine$8[ebp+16], 0

; 4378 :         _Mypair._Myval2._Myres  = _BUF_SIZE - 1;

  001a6	c7 85 d0 fe ff
	ff 0f 00 00 00	 mov	 DWORD PTR _stRegisterCmdLine$8[ebp+20], 15 ; 0000000fH

; 4379 :         // the _Traits::assign is last so the codegen doesn't think the char write can alias this
; 4380 :         _Traits::assign(_Mypair._Myval2._Bx._Buf[0], _Elem());

  001b0	c6 85 bc fe ff
	ff 00		 mov	 BYTE PTR _stRegisterCmdLine$8[ebp], 0
; File D:\Metin2 Server Files\mainline\SRC_2014\Metin2Client\UserInterface\UserInterface.cpp

; 311  : 		std::string stRegisterCmdLine;

  001b7	c7 45 fc 01 00
	00 00		 mov	 DWORD PTR __$EHRec$[ebp+8], 1
; File C:\Program Files (x86)\Microsoft Visual Studio\2019\Community\VC\Tools\MSVC\14.28.29333\include\xstring

; 4377 :         _Mypair._Myval2._Mysize = 0;

  001be	c7 85 e4 fe ff
	ff 00 00 00 00	 mov	 DWORD PTR _stCmdLine$9[ebp+16], 0

; 4378 :         _Mypair._Myval2._Myres  = _BUF_SIZE - 1;

  001c8	c7 85 e8 fe ff
	ff 0f 00 00 00	 mov	 DWORD PTR _stCmdLine$9[ebp+20], 15 ; 0000000fH

; 4379 :         // the _Traits::assign is last so the codegen doesn't think the char write can alias this
; 4380 :         _Traits::assign(_Mypair._Myval2._Bx._Buf[0], _Elem());

  001d2	c6 85 d4 fe ff
	ff 00		 mov	 BYTE PTR _stCmdLine$9[ebp], 0
; File C:\Program Files (x86)\Microsoft Visual Studio\2019\Community\VC\Tools\MSVC\14.28.29333\include\vector

; 375  :     _Vector_val() noexcept : _Myfirst(), _Mylast(), _Myend() {}

  001d9	c7 85 98 fe ff
	ff 00 00 00 00	 mov	 DWORD PTR _stVec$5[ebp], 0
  001e3	c7 85 9c fe ff
	ff 00 00 00 00	 mov	 DWORD PTR _stVec$5[ebp+4], 0
  001ed	c7 85 a0 fe ff
	ff 00 00 00 00	 mov	 DWORD PTR _stVec$5[ebp+8], 0
; File D:\Metin2 Server Files\mainline\SRC_2014\Metin2Client\UserInterface\UserInterface.cpp

; 320  : 		SplitLine(lpCmdLine,seperator,&stVec);

  001f7	8d 85 98 fe ff
	ff		 lea	 eax, DWORD PTR _stVec$5[ebp]
  001fd	c6 45 fc 03	 mov	 BYTE PTR __$EHRec$[ebp+8], 3
  00201	50		 push	 eax
  00202	68 00 00 00 00	 push	 OFFSET ??_C@_01CLKCMJKC@?5@
  00207	ff b5 94 fe ff
	ff		 push	 DWORD PTR _lpCmdLine$GSCopy$1$[ebp]
  0020d	e8 00 00 00 00	 call	 ?SplitLine@@YA_NPBD0PAV?$vector@V?$basic_string@DU?$char_traits@D@std@@V?$allocator@D@2@@std@@V?$allocator@V?$basic_string@DU?$char_traits@D@std@@V?$allocator@D@2@@std@@@2@@std@@@Z ; SplitLine
; File C:\Program Files (x86)\Microsoft Visual Studio\2019\Community\VC\Tools\MSVC\14.28.29333\include\vector

; 1484 :         return static_cast<size_type>(_My_data._Mylast - _My_data._Myfirst);

  00212	8b 8d 9c fe ff
	ff		 mov	 ecx, DWORD PTR _stVec$5[ebp+4]
  00218	b8 ab aa aa 2a	 mov	 eax, 715827883		; 2aaaaaabH
  0021d	8b b5 98 fe ff
	ff		 mov	 esi, DWORD PTR _stVec$5[ebp]
; File D:\Metin2 Server Files\mainline\SRC_2014\Metin2Client\UserInterface\UserInterface.cpp

; 320  : 		SplitLine(lpCmdLine,seperator,&stVec);

  00223	83 c4 0c	 add	 esp, 12			; 0000000cH
; File C:\Program Files (x86)\Microsoft Visual Studio\2019\Community\VC\Tools\MSVC\14.28.29333\include\vector

; 1484 :         return static_cast<size_type>(_My_data._Mylast - _My_data._Myfirst);

  00226	2b ce		 sub	 ecx, esi
  00228	f7 e9		 imul	 ecx
  0022a	c1 fa 02	 sar	 edx, 2
  0022d	8b fa		 mov	 edi, edx
  0022f	c1 ef 1f	 shr	 edi, 31			; 0000001fH
  00232	03 fa		 add	 edi, edx
; File D:\Metin2 Server Files\mainline\SRC_2014\Metin2Client\UserInterface\UserInterface.cpp

; 321  : 		if (CmdSize == stVec.size() && stVec[0]==loginMark)

  00234	83 ff 03	 cmp	 edi, 3
  00237	0f 85 ce 00 00
	00		 jne	 $LN425@RunMainScr
  0023d	68 00 00 00 00	 push	 OFFSET ??_C@_03MCGAAIEM@?9cs@
  00242	56		 push	 esi
  00243	e8 00 00 00 00	 call	 ??$?8DU?$char_traits@D@std@@V?$allocator@D@1@@std@@YA_NABV?$basic_string@DU?$char_traits@D@std@@V?$allocator@D@2@@0@QBD@Z ; std::operator==<char,std::char_traits<char>,std::allocator<char> >
  00248	83 c4 08	 add	 esp, 8
  0024b	84 c0		 test	 al, al
  0024d	0f 84 b5 00 00
	00		 je	 $LN3@RunMainScr
; File C:\Program Files (x86)\Microsoft Visual Studio\2019\Community\VC\Tools\MSVC\14.28.29333\include\vector

; 1504 :         return _My_data._Myfirst[_Pos];

  00253	83 c6 30	 add	 esi, 48			; 00000030H
; File C:\Program Files (x86)\Microsoft Visual Studio\2019\Community\VC\Tools\MSVC\14.28.29333\include\xstring

; 2219 :         if (_Large_string_engaged()) {

  00256	83 7e 14 10	 cmp	 DWORD PTR [esi+20], 16	; 00000010H
  0025a	72 02		 jb	 SHORT $LN134@RunMainScr

; 2220 :             _Result = _Unfancy(_Bx._Ptr);

  0025c	8b 36		 mov	 esi, DWORD PTR [esi]
$LN134@RunMainScr:
; File D:\Metin2 Server Files\mainline\SRC_2014\Metin2Client\UserInterface\UserInterface.cpp

; 324  : 			base64_decode(stVec[2].c_str(),buf);

  0025e	8d 85 ec fe ff
	ff		 lea	 eax, DWORD PTR _buf$11[ebp]
  00264	50		 push	 eax
  00265	56		 push	 esi
  00266	e8 00 00 00 00	 call	 ?base64_decode@@YAXPBDPAD@Z ; base64_decode
; File C:\Program Files (x86)\Microsoft Visual Studio\2019\Community\VC\Tools\MSVC\14.28.29333\include\vector

; 1504 :         return _My_data._Myfirst[_Pos];

  0026b	8b 95 98 fe ff
	ff		 mov	 edx, DWORD PTR _stVec$5[ebp]
; File C:\Program Files (x86)\Microsoft Visual Studio\2019\Community\VC\Tools\MSVC\14.28.29333\include\xstring

; 389  :         return _CSTD strlen(reinterpret_cast<const char*>(_First));

  00271	8d 8d ec fe ff
	ff		 lea	 ecx, DWORD PTR _buf$11[ebp]
; File D:\Metin2 Server Files\mainline\SRC_2014\Metin2Client\UserInterface\UserInterface.cpp

; 324  : 			base64_decode(stVec[2].c_str(),buf);

  00277	83 c4 08	 add	 esp, 8
; File C:\Program Files (x86)\Microsoft Visual Studio\2019\Community\VC\Tools\MSVC\14.28.29333\include\xstring

; 389  :         return _CSTD strlen(reinterpret_cast<const char*>(_First));

  0027a	8d 71 01	 lea	 esi, DWORD PTR [ecx+1]
  0027d	0f 1f 00	 npad	 3
$LL422@RunMainScr:
  00280	8a 01		 mov	 al, BYTE PTR [ecx]
  00282	41		 inc	 ecx
  00283	84 c0		 test	 al, al
  00285	75 f9		 jne	 SHORT $LL422@RunMainScr
  00287	2b ce		 sub	 ecx, esi

; 3062 :         return assign(_Ptr, _Convert_size<size_type>(_Traits::length(_Ptr)));

  00289	8d 85 ec fe ff
	ff		 lea	 eax, DWORD PTR _buf$11[ebp]
  0028f	51		 push	 ecx
  00290	50		 push	 eax
  00291	8d 4a 30	 lea	 ecx, DWORD PTR [edx+48]
  00294	e8 00 00 00 00	 call	 ?assign@?$basic_string@DU?$char_traits@D@std@@V?$allocator@D@2@@std@@QAEAAV12@QBDI@Z ; std::basic_string<char,std::char_traits<char>,std::allocator<char> >::assign

; 119  :         _CSTD memmove(_First1, _First2, _Count * sizeof(_Elem));

  00299	a0 00 00 00 00	 mov	 al, BYTE PTR ??_C@_01CLKCMJKC@?5@

; 4378 :         _Mypair._Myval2._Myres  = _BUF_SIZE - 1;

  0029e	c7 85 b8 fe ff
	ff 0f 00 00 00	 mov	 DWORD PTR $T7[ebp+20], 15 ; 0000000fH

; 3046 :             _Mypair._Myval2._Mysize = _Count;

  002a8	c7 85 b4 fe ff
	ff 01 00 00 00	 mov	 DWORD PTR $T7[ebp+16], 1

; 119  :         _CSTD memmove(_First1, _First2, _Count * sizeof(_Elem));

  002b2	88 85 a4 fe ff
	ff		 mov	 BYTE PTR $T7[ebp], al

; 3048 :             _Traits::assign(_Old_ptr[_Count], _Elem());

  002b8	c6 85 a5 fe ff
	ff 00		 mov	 BYTE PTR $T7[ebp+1], 0
; File D:\Metin2 Server Files\mainline\SRC_2014\Metin2Client\UserInterface\UserInterface.cpp

; 326  : 			string_join(seperator,stVec,&stCmdLine);

  002bf	8d 85 d4 fe ff
	ff		 lea	 eax, DWORD PTR _stCmdLine$9[ebp]
  002c5	c6 45 fc 04	 mov	 BYTE PTR __$EHRec$[ebp+8], 4
  002c9	50		 push	 eax
  002ca	8d 85 98 fe ff
	ff		 lea	 eax, DWORD PTR _stVec$5[ebp]
  002d0	50		 push	 eax
  002d1	8d 85 a4 fe ff
	ff		 lea	 eax, DWORD PTR $T7[ebp]
  002d7	50		 push	 eax
  002d8	e8 00 00 00 00	 call	 ??$string_join@V?$vector@V?$basic_string@DU?$char_traits@D@std@@V?$allocator@D@2@@std@@V?$allocator@V?$basic_string@DU?$char_traits@D@std@@V?$allocator@D@2@@std@@@2@@std@@@@YAXABV?$basic_string@DU?$char_traits@D@std@@V?$allocator@D@2@@std@@ABV?$vector@V?$basic_string@DU?$char_traits@D@std@@V?$allocator@D@2@@std@@V?$allocator@V?$basic_string@DU?$char_traits@D@std@@V?$allocator@D@2@@std@@@2@@1@PAV01@@Z ; string_join<std::vector<std::basic_string<char,std::char_traits<char>,std::allocator<char> >,std::allocator<std::basic_string<char,std::char_traits<char>,std::allocator<char> > > > >
; File C:\Program Files (x86)\Microsoft Visual Studio\2019\Community\VC\Tools\MSVC\14.28.29333\include\xstring

; 4385 :         if (_Mypair._Myval2._Large_string_engaged()) {

  002dd	8b 85 b8 fe ff
	ff		 mov	 eax, DWORD PTR $T7[ebp+20]
; File D:\Metin2 Server Files\mainline\SRC_2014\Metin2Client\UserInterface\UserInterface.cpp

; 326  : 			string_join(seperator,stVec,&stCmdLine);

  002e3	83 c4 0c	 add	 esp, 12			; 0000000cH
  002e6	c6 45 fc 03	 mov	 BYTE PTR __$EHRec$[ebp+8], 3
; File C:\Program Files (x86)\Microsoft Visual Studio\2019\Community\VC\Tools\MSVC\14.28.29333\include\xstring

; 4385 :         if (_Mypair._Myval2._Large_string_engaged()) {

  002ea	83 f8 10	 cmp	 eax, 16			; 00000010H
  002ed	0f 82 ba 00 00
	00		 jb	 $LN6@RunMainScr

; 4386 :             const pointer _Ptr = _Mypair._Myval2._Bx._Ptr;
; 4387 :             auto& _Al          = _Getal();
; 4388 :             _Destroy_in_place(_Mypair._Myval2._Bx._Ptr);
; 4389 :             _Al.deallocate(_Ptr, _Mypair._Myval2._Myres + 1);

  002f3	40		 inc	 eax
; File C:\Program Files (x86)\Microsoft Visual Studio\2019\Community\VC\Tools\MSVC\14.28.29333\include\xmemory

; 810  :         _Deallocate<_New_alignof<_Ty>>(_Ptr, sizeof(_Ty) * _Count);

  002f4	50		 push	 eax
  002f5	ff b5 a4 fe ff
	ff		 push	 DWORD PTR $T7[ebp]
  002fb	e8 00 00 00 00	 call	 ??$_Deallocate@$07$0A@@std@@YAXPAXI@Z ; std::_Deallocate<8,0>
  00300	83 c4 08	 add	 esp, 8
; File D:\Metin2 Server Files\mainline\SRC_2014\Metin2Client\UserInterface\UserInterface.cpp

; 327  : 		}

  00303	e9 a5 00 00 00	 jmp	 $LN6@RunMainScr
$LN3@RunMainScr:

; 328  : 		else if (CmdSize <= stVec.size() && stVec[0]==loginMark_NonEncode)

  00308	83 ff 03	 cmp	 edi, 3
$LN425@RunMainScr:
  0030b	72 7f		 jb	 SHORT $LN5@RunMainScr
  0030d	68 00 00 00 00	 push	 OFFSET ??_C@_04JFPGDMCL@?9ncs@
  00312	56		 push	 esi
  00313	e8 00 00 00 00	 call	 ??$?8DU?$char_traits@D@std@@V?$allocator@D@1@@std@@YA_NABV?$basic_string@DU?$char_traits@D@std@@V?$allocator@D@2@@0@QBD@Z ; std::operator==<char,std::char_traits<char>,std::allocator<char> >
  00318	83 c4 08	 add	 esp, 8
  0031b	84 c0		 test	 al, al
  0031d	74 6d		 je	 SHORT $LN5@RunMainScr
; File C:\Program Files (x86)\Microsoft Visual Studio\2019\Community\VC\Tools\MSVC\14.28.29333\include\xstring

; 3062 :         return assign(_Ptr, _Convert_size<size_type>(_Traits::length(_Ptr)));

  0031f	6a 03		 push	 3
  00321	68 00 00 00 00	 push	 OFFSET ??_C@_03MCGAAIEM@?9cs@
  00326	8b ce		 mov	 ecx, esi
  00328	e8 00 00 00 00	 call	 ?assign@?$basic_string@DU?$char_traits@D@std@@V?$allocator@D@2@@std@@QAEAAV12@QBDI@Z ; std::basic_string<char,std::char_traits<char>,std::allocator<char> >::assign

; 4378 :         _Mypair._Myval2._Myres  = _BUF_SIZE - 1;

  0032d	c7 85 b8 fe ff
	ff 0f 00 00 00	 mov	 DWORD PTR $T6[ebp+20], 15 ; 0000000fH

; 3046 :             _Mypair._Myval2._Mysize = _Count;

  00337	c7 85 b4 fe ff
	ff 01 00 00 00	 mov	 DWORD PTR $T6[ebp+16], 1

; 119  :         _CSTD memmove(_First1, _First2, _Count * sizeof(_Elem));

  00341	66 c7 85 a4 fe
	ff ff 20 00	 mov	 WORD PTR $T6[ebp], 32	; 00000020H
; File D:\Metin2 Server Files\mainline\SRC_2014\Metin2Client\UserInterface\UserInterface.cpp

; 331  : 			string_join(" ",stVec,&stCmdLine);

  0034a	8d 85 d4 fe ff
	ff		 lea	 eax, DWORD PTR _stCmdLine$9[ebp]
  00350	c6 45 fc 05	 mov	 BYTE PTR __$EHRec$[ebp+8], 5
  00354	50		 push	 eax
  00355	8d 85 98 fe ff
	ff		 lea	 eax, DWORD PTR _stVec$5[ebp]
  0035b	50		 push	 eax
  0035c	8d 85 a4 fe ff
	ff		 lea	 eax, DWORD PTR $T6[ebp]
  00362	50		 push	 eax
  00363	e8 00 00 00 00	 call	 ??$string_join@V?$vector@V?$basic_string@DU?$char_traits@D@std@@V?$allocator@D@2@@std@@V?$allocator@V?$basic_string@DU?$char_traits@D@std@@V?$allocator@D@2@@std@@@2@@std@@@@YAXABV?$basic_string@DU?$char_traits@D@std@@V?$allocator@D@2@@std@@ABV?$vector@V?$basic_string@DU?$char_traits@D@std@@V?$allocator@D@2@@std@@V?$allocator@V?$basic_string@DU?$char_traits@D@std@@V?$allocator@D@2@@std@@@2@@1@PAV01@@Z ; string_join<std::vector<std::basic_string<char,std::char_traits<char>,std::allocator<char> >,std::allocator<std::basic_string<char,std::char_traits<char>,std::allocator<char> > > > >
; File C:\Program Files (x86)\Microsoft Visual Studio\2019\Community\VC\Tools\MSVC\14.28.29333\include\xstring

; 4385 :         if (_Mypair._Myval2._Large_string_engaged()) {

  00368	8b 85 b8 fe ff
	ff		 mov	 eax, DWORD PTR $T6[ebp+20]
; File D:\Metin2 Server Files\mainline\SRC_2014\Metin2Client\UserInterface\UserInterface.cpp

; 331  : 			string_join(" ",stVec,&stCmdLine);

  0036e	83 c4 0c	 add	 esp, 12			; 0000000cH
  00371	c6 45 fc 03	 mov	 BYTE PTR __$EHRec$[ebp+8], 3
; File C:\Program Files (x86)\Microsoft Visual Studio\2019\Community\VC\Tools\MSVC\14.28.29333\include\xstring

; 4385 :         if (_Mypair._Myval2._Large_string_engaged()) {

  00375	83 f8 10	 cmp	 eax, 16			; 00000010H
  00378	72 33		 jb	 SHORT $LN6@RunMainScr

; 4386 :             const pointer _Ptr = _Mypair._Myval2._Bx._Ptr;
; 4387 :             auto& _Al          = _Getal();
; 4388 :             _Destroy_in_place(_Mypair._Myval2._Bx._Ptr);
; 4389 :             _Al.deallocate(_Ptr, _Mypair._Myval2._Myres + 1);

  0037a	40		 inc	 eax
; File C:\Program Files (x86)\Microsoft Visual Studio\2019\Community\VC\Tools\MSVC\14.28.29333\include\xmemory

; 810  :         _Deallocate<_New_alignof<_Ty>>(_Ptr, sizeof(_Ty) * _Count);

  0037b	50		 push	 eax
  0037c	ff b5 a4 fe ff
	ff		 push	 DWORD PTR $T6[ebp]
  00382	e8 00 00 00 00	 call	 ??$_Deallocate@$07$0A@@std@@YAXPAXI@Z ; std::_Deallocate<8,0>
  00387	83 c4 08	 add	 esp, 8
; File D:\Metin2 Server Files\mainline\SRC_2014\Metin2Client\UserInterface\UserInterface.cpp

; 332  : 		}

  0038a	eb 21		 jmp	 SHORT $LN6@RunMainScr
$LN5@RunMainScr:
; File C:\Program Files (x86)\Microsoft Visual Studio\2019\Community\VC\Tools\MSVC\14.28.29333\include\xstring

; 389  :         return _CSTD strlen(reinterpret_cast<const char*>(_First));

  0038c	8b b5 94 fe ff
	ff		 mov	 esi, DWORD PTR _lpCmdLine$GSCopy$1$[ebp]
  00392	8b ce		 mov	 ecx, esi
  00394	8d 51 01	 lea	 edx, DWORD PTR [ecx+1]
$LL423@RunMainScr:
  00397	8a 01		 mov	 al, BYTE PTR [ecx]
  00399	41		 inc	 ecx
  0039a	84 c0		 test	 al, al
  0039c	75 f9		 jne	 SHORT $LL423@RunMainScr
  0039e	2b ca		 sub	 ecx, edx

; 3062 :         return assign(_Ptr, _Convert_size<size_type>(_Traits::length(_Ptr)));

  003a0	51		 push	 ecx
  003a1	56		 push	 esi
  003a2	8d 8d d4 fe ff
	ff		 lea	 ecx, DWORD PTR _stCmdLine$9[ebp]
  003a8	e8 00 00 00 00	 call	 ?assign@?$basic_string@DU?$char_traits@D@std@@V?$allocator@D@2@@std@@QAEAAV12@QBDI@Z ; std::basic_string<char,std::char_traits<char>,std::allocator<char> >::assign
$LN6@RunMainScr:

; 3044 :         if (_Count <= _Mypair._Myval2._Myres) {

  003ad	8b bd d0 fe ff
	ff		 mov	 edi, DWORD PTR _stRegisterCmdLine$8[ebp+20]
  003b3	83 ff 13	 cmp	 edi, 19			; 00000013H
  003b6	72 33		 jb	 SHORT $LN297@RunMainScr

; 2210 :         if (_Large_string_engaged()) {

  003b8	83 ff 10	 cmp	 edi, 16			; 00000010H

; 3046 :             _Mypair._Myval2._Mysize = _Count;

  003bb	c7 85 cc fe ff
	ff 13 00 00 00	 mov	 DWORD PTR _stRegisterCmdLine$8[ebp+16], 19 ; 00000013H

; 119  :         _CSTD memmove(_First1, _First2, _Count * sizeof(_Elem));

  003c5	6a 13		 push	 19			; 00000013H

; 2209 :         value_type* _Result = _Bx._Buf;

  003c7	8d b5 bc fe ff
	ff		 lea	 esi, DWORD PTR _stRegisterCmdLine$8[ebp]

; 2210 :         if (_Large_string_engaged()) {

  003cd	0f 43 b5 bc fe
	ff ff		 cmovae	 esi, DWORD PTR _stRegisterCmdLine$8[ebp]

; 119  :         _CSTD memmove(_First1, _First2, _Count * sizeof(_Elem));

  003d4	68 00 00 00 00	 push	 OFFSET ??_C@_0BE@FPKDPBJI@__COMMAND_LINE__?5?$DN?5@
  003d9	56		 push	 esi
  003da	e8 00 00 00 00	 call	 _memmove
  003df	83 c4 0c	 add	 esp, 12			; 0000000cH

; 3048 :             _Traits::assign(_Old_ptr[_Count], _Elem());

  003e2	c6 46 13 00	 mov	 BYTE PTR [esi+19], 0

; 3049 :             return *this;

  003e6	e9 a5 00 00 00	 jmp	 $LN299@RunMainScr
$LN297@RunMainScr:

; 4309 :         const size_type _Old_capacity = _Mypair._Myval2._Myres;

  003eb	8b cf		 mov	 ecx, edi

; 4290 :         if (_Old > _Max - _Old / 2) { // similarly, geometric overflows

  003ed	b8 ff ff ff 7f	 mov	 eax, 2147483647		; 7fffffffH

; 4309 :         const size_type _Old_capacity = _Mypair._Myval2._Myres;

  003f2	d1 e9		 shr	 ecx, 1

; 4290 :         if (_Old > _Max - _Old / 2) { // similarly, geometric overflows

  003f4	2b c1		 sub	 eax, ecx
  003f6	3b f8		 cmp	 edi, eax
  003f8	76 07		 jbe	 SHORT $LN305@RunMainScr

; 4291 :             return _Max;

  003fa	b9 ff ff ff 7f	 mov	 ecx, 2147483647		; 7fffffffH
  003ff	eb 0d		 jmp	 SHORT $LN426@RunMainScr
$LN305@RunMainScr:

; 4292 :         }
; 4293 : 
; 4294 :         return (_STD max)(_Masked, _Old + _Old / 2);

  00401	8d 04 39	 lea	 eax, DWORD PTR [ecx+edi]
  00404	b9 1f 00 00 00	 mov	 ecx, 31			; 0000001fH
  00409	3b c1		 cmp	 eax, ecx
  0040b	0f 47 c8	 cmova	 ecx, eax
$LN426@RunMainScr:

; 4312 :         const pointer _New_ptr        = _Al.allocate(_New_capacity + 1); // throws

  0040e	8d 41 01	 lea	 eax, DWORD PTR [ecx+1]
  00411	89 8d 90 fe ff
	ff		 mov	 DWORD PTR $T3[ebp], ecx
; File C:\Program Files (x86)\Microsoft Visual Studio\2019\Community\VC\Tools\MSVC\14.28.29333\include\xmemory

; 814  :         return static_cast<_Ty*>(_Allocate<_New_alignof<_Ty>>(_Get_size_of_n<sizeof(_Ty)>(_Count)));

  00417	50		 push	 eax
  00418	e8 00 00 00 00	 call	 ??$_Allocate@$07U_Default_allocate_traits@std@@$0A@@std@@YAPAXI@Z ; std::_Allocate<8,std::_Default_allocate_traits,0>
; File C:\Program Files (x86)\Microsoft Visual Studio\2019\Community\VC\Tools\MSVC\14.28.29333\include\xstring

; 62   :         _CSTD memcpy(_First1, _First2, _Count * sizeof(_Elem));

  0041d	0f 10 05 00 00
	00 00		 movups	 xmm0, XMMWORD PTR ??_C@_0BE@FPKDPBJI@__COMMAND_LINE__?5?$DN?5@

; 4312 :         const pointer _New_ptr        = _Al.allocate(_New_capacity + 1); // throws

  00424	8b f0		 mov	 esi, eax

; 4313 :         _Mypair._Myval2._Orphan_all();
; 4314 :         _Mypair._Myval2._Mysize = _New_size;

  00426	c7 85 cc fe ff
	ff 13 00 00 00	 mov	 DWORD PTR _stRegisterCmdLine$8[ebp+16], 19 ; 00000013H

; 4315 :         _Mypair._Myval2._Myres  = _New_capacity;

  00430	8b 85 90 fe ff
	ff		 mov	 eax, DWORD PTR $T3[ebp]
; File C:\Program Files (x86)\Microsoft Visual Studio\2019\Community\VC\Tools\MSVC\14.28.29333\include\xmemory

; 814  :         return static_cast<_Ty*>(_Allocate<_New_alignof<_Ty>>(_Get_size_of_n<sizeof(_Ty)>(_Count)));

  00436	83 c4 04	 add	 esp, 4
; File C:\Program Files (x86)\Microsoft Visual Studio\2019\Community\VC\Tools\MSVC\14.28.29333\include\xstring

; 4315 :         _Mypair._Myval2._Myres  = _New_capacity;

  00439	89 85 d0 fe ff
	ff		 mov	 DWORD PTR _stRegisterCmdLine$8[ebp+20], eax
  0043f	89 b5 88 fe ff
	ff		 mov	 DWORD PTR __New_ptr$2[ebp], esi

; 62   :         _CSTD memcpy(_First1, _First2, _Count * sizeof(_Elem));

  00445	0f 11 06	 movups	 XMMWORD PTR [esi], xmm0
  00448	66 a1 10 00 00
	00		 mov	 ax, WORD PTR ??_C@_0BE@FPKDPBJI@__COMMAND_LINE__?5?$DN?5@+16
  0044e	66 89 46 10	 mov	 WORD PTR [esi+16], ax
  00452	a0 12 00 00 00	 mov	 al, BYTE PTR ??_C@_0BE@FPKDPBJI@__COMMAND_LINE__?5?$DN?5@+18
  00457	88 46 12	 mov	 BYTE PTR [esi+18], al

; 3056 :                 _Traits::assign(_New_ptr[_Count], _Elem());

  0045a	c6 46 13 00	 mov	 BYTE PTR [esi+19], 0

; 4317 :         if (_BUF_SIZE <= _Old_capacity) {

  0045e	83 ff 10	 cmp	 edi, 16			; 00000010H
  00461	72 17		 jb	 SHORT $LN298@RunMainScr

; 4318 :             _Al.deallocate(_Mypair._Myval2._Bx._Ptr, _Old_capacity + 1);

  00463	8d 47 01	 lea	 eax, DWORD PTR [edi+1]
; File C:\Program Files (x86)\Microsoft Visual Studio\2019\Community\VC\Tools\MSVC\14.28.29333\include\xmemory

; 810  :         _Deallocate<_New_alignof<_Ty>>(_Ptr, sizeof(_Ty) * _Count);

  00466	50		 push	 eax
  00467	ff b5 bc fe ff
	ff		 push	 DWORD PTR _stRegisterCmdLine$8[ebp]
  0046d	e8 00 00 00 00	 call	 ??$_Deallocate@$07$0A@@std@@YAXPAXI@Z ; std::_Deallocate<8,0>
; File C:\Program Files (x86)\Microsoft Visual Studio\2019\Community\VC\Tools\MSVC\14.28.29333\include\xstring

; 4319 :             _Mypair._Myval2._Bx._Ptr = _New_ptr;

  00472	89 b5 bc fe ff
	ff		 mov	 DWORD PTR _stRegisterCmdLine$8[ebp], esi

; 4320 :         } else {

  00478	eb 13		 jmp	 SHORT $LN427@RunMainScr
$LN298@RunMainScr:

; 4321 :             _Construct_in_place(_Mypair._Myval2._Bx._Ptr, _New_ptr);

  0047a	8d 85 88 fe ff
	ff		 lea	 eax, DWORD PTR __New_ptr$2[ebp]
  00480	50		 push	 eax
  00481	8d 85 bc fe ff
	ff		 lea	 eax, DWORD PTR _stRegisterCmdLine$8[ebp]
  00487	50		 push	 eax
  00488	e8 00 00 00 00	 call	 ??$_Construct_in_place@PADABQAD@std@@YAXAAPADABQAD@Z ; std::_Construct_in_place<char *,char * const &>
$LN427@RunMainScr:
; File D:\Metin2 Server Files\mainline\SRC_2014\Metin2Client\UserInterface\UserInterface.cpp

; 337  : 		stRegisterCmdLine+='"';

  0048d	83 c4 08	 add	 esp, 8
$LN299@RunMainScr:
  00490	6a 22		 push	 34			; 00000022H
  00492	8d 8d bc fe ff
	ff		 lea	 ecx, DWORD PTR _stRegisterCmdLine$8[ebp]
  00498	e8 00 00 00 00	 call	 ??Y?$basic_string@DU?$char_traits@D@std@@V?$allocator@D@2@@std@@QAEAAV01@D@Z ; std::basic_string<char,std::char_traits<char>,std::allocator<char> >::operator+=
; File C:\Program Files (x86)\Microsoft Visual Studio\2019\Community\VC\Tools\MSVC\14.28.29333\include\xstring

; 2219 :         if (_Large_string_engaged()) {

  0049d	83 bd e8 fe ff
	ff 10		 cmp	 DWORD PTR _stCmdLine$9[ebp+20], 16 ; 00000010H
  004a4	8d 85 d4 fe ff
	ff		 lea	 eax, DWORD PTR _stCmdLine$9[ebp]

; 2910 :         return append(_Right._Mypair._Myval2._Myptr(), _Right._Mypair._Myval2._Mysize);

  004aa	ff b5 e4 fe ff
	ff		 push	 DWORD PTR _stCmdLine$9[ebp+16]

; 2219 :         if (_Large_string_engaged()) {

  004b0	0f 43 85 d4 fe
	ff ff		 cmovae	 eax, DWORD PTR _stCmdLine$9[ebp]

; 2910 :         return append(_Right._Mypair._Myval2._Myptr(), _Right._Mypair._Myval2._Mysize);

  004b7	8d 8d bc fe ff
	ff		 lea	 ecx, DWORD PTR _stRegisterCmdLine$8[ebp]
  004bd	50		 push	 eax
  004be	e8 00 00 00 00	 call	 ?append@?$basic_string@DU?$char_traits@D@std@@V?$allocator@D@2@@std@@QAEAAV12@QBDI@Z ; std::basic_string<char,std::char_traits<char>,std::allocator<char> >::append
; File D:\Metin2 Server Files\mainline\SRC_2014\Metin2Client\UserInterface\UserInterface.cpp

; 339  : 		stRegisterCmdLine+='"';

  004c3	6a 22		 push	 34			; 00000022H
  004c5	8d 8d bc fe ff
	ff		 lea	 ecx, DWORD PTR _stRegisterCmdLine$8[ebp]
  004cb	e8 00 00 00 00	 call	 ??Y?$basic_string@DU?$char_traits@D@std@@V?$allocator@D@2@@std@@QAEAAV01@D@Z ; std::basic_string<char,std::char_traits<char>,std::allocator<char> >::operator+=
; File C:\Program Files (x86)\Microsoft Visual Studio\2019\Community\VC\Tools\MSVC\14.28.29333\include\xstring

; 2219 :         if (_Large_string_engaged()) {

  004d0	83 bd d0 fe ff
	ff 10		 cmp	 DWORD PTR _stRegisterCmdLine$8[ebp+20], 16 ; 00000010H
  004d7	8d 85 bc fe ff
	ff		 lea	 eax, DWORD PTR _stRegisterCmdLine$8[ebp]
; File D:\Metin2 Server Files\mainline\SRC_2014\Metin2Client\UserInterface\UserInterface.cpp

; 342  : 		if (!pyLauncher.RunLine(c_szRegisterCmdLine))

  004dd	8b bd 8c fe ff
	ff		 mov	 edi, DWORD PTR _pyLauncher$GSCopy$1$[ebp]
  004e3	8b cf		 mov	 ecx, edi
; File C:\Program Files (x86)\Microsoft Visual Studio\2019\Community\VC\Tools\MSVC\14.28.29333\include\xstring

; 2219 :         if (_Large_string_engaged()) {

  004e5	0f 43 85 bc fe
	ff ff		 cmovae	 eax, DWORD PTR _stRegisterCmdLine$8[ebp]
; File D:\Metin2 Server Files\mainline\SRC_2014\Metin2Client\UserInterface\UserInterface.cpp

; 342  : 		if (!pyLauncher.RunLine(c_szRegisterCmdLine))

  004ec	50		 push	 eax
  004ed	e8 00 00 00 00	 call	 ?RunLine@CPythonLauncher@@QAE_NPBD@Z ; CPythonLauncher::RunLine
  004f2	84 c0		 test	 al, al
  004f4	0f 85 b8 00 00
	00		 jne	 $LN7@RunMainScr

; 344  : 			TraceError("RegisterCommandLine Error");

  004fa	68 00 00 00 00	 push	 OFFSET ??_C@_0BK@DPMNHJLC@RegisterCommandLine?5Error@
  004ff	e8 00 00 00 00	 call	 ?TraceError@@YAXPBDZZ	; TraceError
; File C:\Program Files (x86)\Microsoft Visual Studio\2019\Community\VC\Tools\MSVC\14.28.29333\include\vector

; 1694 :         if (_Myfirst) { // destroy and deallocate old array

  00504	8b 8d 98 fe ff
	ff		 mov	 ecx, DWORD PTR _stVec$5[ebp]
; File D:\Metin2 Server Files\mainline\SRC_2014\Metin2Client\UserInterface\UserInterface.cpp

; 344  : 			TraceError("RegisterCommandLine Error");

  0050a	83 c4 04	 add	 esp, 4
; File C:\Program Files (x86)\Microsoft Visual Studio\2019\Community\VC\Tools\MSVC\14.28.29333\include\vector

; 1694 :         if (_Myfirst) { // destroy and deallocate old array

  0050d	85 c9		 test	 ecx, ecx
  0050f	74 60		 je	 SHORT $LN339@RunMainScr

; 1612 :         _Destroy_range(_First, _Last, _Getal());

  00511	8d 85 98 fe ff
	ff		 lea	 eax, DWORD PTR _stVec$5[ebp]
  00517	50		 push	 eax
  00518	ff b5 9c fe ff
	ff		 push	 DWORD PTR _stVec$5[ebp+4]
  0051e	51		 push	 ecx
  0051f	e8 00 00 00 00	 call	 ??$_Destroy_range@V?$allocator@V?$basic_string@DU?$char_traits@D@std@@V?$allocator@D@2@@std@@@std@@@std@@YAXPAV?$basic_string@DU?$char_traits@D@std@@V?$allocator@D@2@@0@QAV10@AAV?$allocator@V?$basic_string@DU?$char_traits@D@std@@V?$allocator@D@2@@std@@@0@@Z ; std::_Destroy_range<std::allocator<std::basic_string<char,std::char_traits<char>,std::allocator<char> > > >

; 1696 :             _Getal().deallocate(_Myfirst, static_cast<size_type>(_Myend - _Myfirst));

  00524	8b 8d a0 fe ff
	ff		 mov	 ecx, DWORD PTR _stVec$5[ebp+8]
  0052a	b8 ab aa aa 2a	 mov	 eax, 715827883		; 2aaaaaabH
  0052f	8b b5 98 fe ff
	ff		 mov	 esi, DWORD PTR _stVec$5[ebp]
  00535	2b ce		 sub	 ecx, esi
  00537	f7 e9		 imul	 ecx
  00539	c1 fa 02	 sar	 edx, 2
  0053c	8b c2		 mov	 eax, edx
  0053e	c1 e8 1f	 shr	 eax, 31			; 0000001fH
  00541	03 c2		 add	 eax, edx
; File C:\Program Files (x86)\Microsoft Visual Studio\2019\Community\VC\Tools\MSVC\14.28.29333\include\xmemory

; 810  :         _Deallocate<_New_alignof<_Ty>>(_Ptr, sizeof(_Ty) * _Count);

  00543	8d 04 40	 lea	 eax, DWORD PTR [eax+eax*2]
  00546	c1 e0 03	 shl	 eax, 3
  00549	50		 push	 eax
  0054a	56		 push	 esi
  0054b	e8 00 00 00 00	 call	 ??$_Deallocate@$07$0A@@std@@YAXPAXI@Z ; std::_Deallocate<8,0>
  00550	83 c4 14	 add	 esp, 20			; 00000014H
; File C:\Program Files (x86)\Microsoft Visual Studio\2019\Community\VC\Tools\MSVC\14.28.29333\include\vector

; 1698 :             _Myfirst = pointer();

  00553	c7 85 98 fe ff
	ff 00 00 00 00	 mov	 DWORD PTR _stVec$5[ebp], 0

; 1699 :             _Mylast  = pointer();

  0055d	c7 85 9c fe ff
	ff 00 00 00 00	 mov	 DWORD PTR _stVec$5[ebp+4], 0

; 1700 :             _Myend   = pointer();

  00567	c7 85 a0 fe ff
	ff 00 00 00 00	 mov	 DWORD PTR _stVec$5[ebp+8], 0
$LN339@RunMainScr:
; File C:\Program Files (x86)\Microsoft Visual Studio\2019\Community\VC\Tools\MSVC\14.28.29333\include\xstring

; 2227 :         return _BUF_SIZE <= _Myres;

  00571	8b 85 e8 fe ff
	ff		 mov	 eax, DWORD PTR _stCmdLine$9[ebp+20]
  00577	83 f8 10	 cmp	 eax, 16			; 00000010H

; 4385 :         if (_Mypair._Myval2._Large_string_engaged()) {

  0057a	72 10		 jb	 SHORT $LN349@RunMainScr

; 4386 :             const pointer _Ptr = _Mypair._Myval2._Bx._Ptr;
; 4387 :             auto& _Al          = _Getal();
; 4388 :             _Destroy_in_place(_Mypair._Myval2._Bx._Ptr);
; 4389 :             _Al.deallocate(_Ptr, _Mypair._Myval2._Myres + 1);

  0057c	40		 inc	 eax
; File C:\Program Files (x86)\Microsoft Visual Studio\2019\Community\VC\Tools\MSVC\14.28.29333\include\xmemory

; 810  :         _Deallocate<_New_alignof<_Ty>>(_Ptr, sizeof(_Ty) * _Count);

  0057d	50		 push	 eax
  0057e	ff b5 d4 fe ff
	ff		 push	 DWORD PTR _stCmdLine$9[ebp]
  00584	e8 00 00 00 00	 call	 ??$_Deallocate@$07$0A@@std@@YAXPAXI@Z ; std::_Deallocate<8,0>
  00589	83 c4 08	 add	 esp, 8
$LN349@RunMainScr:
; File C:\Program Files (x86)\Microsoft Visual Studio\2019\Community\VC\Tools\MSVC\14.28.29333\include\xstring

; 2227 :         return _BUF_SIZE <= _Myres;

  0058c	8b 85 d0 fe ff
	ff		 mov	 eax, DWORD PTR _stRegisterCmdLine$8[ebp+20]
  00592	83 f8 10	 cmp	 eax, 16			; 00000010H

; 4385 :         if (_Mypair._Myval2._Large_string_engaged()) {

  00595	0f 82 9f 01 00
	00		 jb	 $LN407@RunMainScr

; 4386 :             const pointer _Ptr = _Mypair._Myval2._Bx._Ptr;
; 4387 :             auto& _Al          = _Getal();
; 4388 :             _Destroy_in_place(_Mypair._Myval2._Bx._Ptr);
; 4389 :             _Al.deallocate(_Ptr, _Mypair._Myval2._Myres + 1);

  0059b	40		 inc	 eax
; File C:\Program Files (x86)\Microsoft Visual Studio\2019\Community\VC\Tools\MSVC\14.28.29333\include\xmemory

; 810  :         _Deallocate<_New_alignof<_Ty>>(_Ptr, sizeof(_Ty) * _Count);

  0059c	50		 push	 eax
  0059d	ff b5 bc fe ff
	ff		 push	 DWORD PTR _stRegisterCmdLine$8[ebp]
  005a3	e8 00 00 00 00	 call	 ??$_Deallocate@$07$0A@@std@@YAXPAXI@Z ; std::_Deallocate<8,0>
  005a8	83 c4 08	 add	 esp, 8
; File D:\Metin2 Server Files\mainline\SRC_2014\Metin2Client\UserInterface\UserInterface.cpp

; 363  : 			return false;

  005ab	32 c0		 xor	 al, al
  005ad	e9 df 01 00 00	 jmp	 $LN1@RunMainScr
$LN7@RunMainScr:
; File C:\Program Files (x86)\Microsoft Visual Studio\2019\Community\VC\Tools\MSVC\14.28.29333\include\vector

; 1694 :         if (_Myfirst) { // destroy and deallocate old array

  005b2	8b 85 98 fe ff
	ff		 mov	 eax, DWORD PTR _stVec$5[ebp]
  005b8	85 c0		 test	 eax, eax
  005ba	74 60		 je	 SHORT $LN368@RunMainScr

; 1612 :         _Destroy_range(_First, _Last, _Getal());

  005bc	8d 8d 98 fe ff
	ff		 lea	 ecx, DWORD PTR _stVec$5[ebp]
  005c2	51		 push	 ecx
  005c3	ff b5 9c fe ff
	ff		 push	 DWORD PTR _stVec$5[ebp+4]
  005c9	50		 push	 eax
  005ca	e8 00 00 00 00	 call	 ??$_Destroy_range@V?$allocator@V?$basic_string@DU?$char_traits@D@std@@V?$allocator@D@2@@std@@@std@@@std@@YAXPAV?$basic_string@DU?$char_traits@D@std@@V?$allocator@D@2@@0@QAV10@AAV?$allocator@V?$basic_string@DU?$char_traits@D@std@@V?$allocator@D@2@@std@@@0@@Z ; std::_Destroy_range<std::allocator<std::basic_string<char,std::char_traits<char>,std::allocator<char> > > >

; 1696 :             _Getal().deallocate(_Myfirst, static_cast<size_type>(_Myend - _Myfirst));

  005cf	8b 8d a0 fe ff
	ff		 mov	 ecx, DWORD PTR _stVec$5[ebp+8]
  005d5	b8 ab aa aa 2a	 mov	 eax, 715827883		; 2aaaaaabH
  005da	8b b5 98 fe ff
	ff		 mov	 esi, DWORD PTR _stVec$5[ebp]
  005e0	2b ce		 sub	 ecx, esi
  005e2	f7 e9		 imul	 ecx
  005e4	c1 fa 02	 sar	 edx, 2
  005e7	8b c2		 mov	 eax, edx
  005e9	c1 e8 1f	 shr	 eax, 31			; 0000001fH
  005ec	03 c2		 add	 eax, edx
; File C:\Program Files (x86)\Microsoft Visual Studio\2019\Community\VC\Tools\MSVC\14.28.29333\include\xmemory

; 810  :         _Deallocate<_New_alignof<_Ty>>(_Ptr, sizeof(_Ty) * _Count);

  005ee	8d 04 40	 lea	 eax, DWORD PTR [eax+eax*2]
  005f1	c1 e0 03	 shl	 eax, 3
  005f4	50		 push	 eax
  005f5	56		 push	 esi
  005f6	e8 00 00 00 00	 call	 ??$_Deallocate@$07$0A@@std@@YAXPAXI@Z ; std::_Deallocate<8,0>
  005fb	83 c4 14	 add	 esp, 20			; 00000014H
; File C:\Program Files (x86)\Microsoft Visual Studio\2019\Community\VC\Tools\MSVC\14.28.29333\include\vector

; 1698 :             _Myfirst = pointer();

  005fe	c7 85 98 fe ff
	ff 00 00 00 00	 mov	 DWORD PTR _stVec$5[ebp], 0

; 1699 :             _Mylast  = pointer();

  00608	c7 85 9c fe ff
	ff 00 00 00 00	 mov	 DWORD PTR _stVec$5[ebp+4], 0

; 1700 :             _Myend   = pointer();

  00612	c7 85 a0 fe ff
	ff 00 00 00 00	 mov	 DWORD PTR _stVec$5[ebp+8], 0
$LN368@RunMainScr:
; File C:\Program Files (x86)\Microsoft Visual Studio\2019\Community\VC\Tools\MSVC\14.28.29333\include\xstring

; 4385 :         if (_Mypair._Myval2._Large_string_engaged()) {

  0061c	8b 85 e8 fe ff
	ff		 mov	 eax, DWORD PTR _stCmdLine$9[ebp+20]
  00622	83 f8 10	 cmp	 eax, 16			; 00000010H
  00625	72 10		 jb	 SHORT $LN378@RunMainScr

; 4386 :             const pointer _Ptr = _Mypair._Myval2._Bx._Ptr;
; 4387 :             auto& _Al          = _Getal();
; 4388 :             _Destroy_in_place(_Mypair._Myval2._Bx._Ptr);
; 4389 :             _Al.deallocate(_Ptr, _Mypair._Myval2._Myres + 1);

  00627	40		 inc	 eax
; File C:\Program Files (x86)\Microsoft Visual Studio\2019\Community\VC\Tools\MSVC\14.28.29333\include\xmemory

; 810  :         _Deallocate<_New_alignof<_Ty>>(_Ptr, sizeof(_Ty) * _Count);

  00628	50		 push	 eax
  00629	ff b5 d4 fe ff
	ff		 push	 DWORD PTR _stCmdLine$9[ebp]
  0062f	e8 00 00 00 00	 call	 ??$_Deallocate@$07$0A@@std@@YAXPAXI@Z ; std::_Deallocate<8,0>
  00634	83 c4 08	 add	 esp, 8
$LN378@RunMainScr:
; File C:\Program Files (x86)\Microsoft Visual Studio\2019\Community\VC\Tools\MSVC\14.28.29333\include\xstring

; 4385 :         if (_Mypair._Myval2._Large_string_engaged()) {

  00637	8b 85 d0 fe ff
	ff		 mov	 eax, DWORD PTR _stRegisterCmdLine$8[ebp+20]
  0063d	83 f8 10	 cmp	 eax, 16			; 00000010H
  00640	72 10		 jb	 SHORT $LN388@RunMainScr

; 4386 :             const pointer _Ptr = _Mypair._Myval2._Bx._Ptr;
; 4387 :             auto& _Al          = _Getal();
; 4388 :             _Destroy_in_place(_Mypair._Myval2._Bx._Ptr);
; 4389 :             _Al.deallocate(_Ptr, _Mypair._Myval2._Myres + 1);

  00642	40		 inc	 eax
; File C:\Program Files (x86)\Microsoft Visual Studio\2019\Community\VC\Tools\MSVC\14.28.29333\include\xmemory

; 810  :         _Deallocate<_New_alignof<_Ty>>(_Ptr, sizeof(_Ty) * _Count);

  00643	50		 push	 eax
  00644	ff b5 bc fe ff
	ff		 push	 DWORD PTR _stRegisterCmdLine$8[ebp]
  0064a	e8 00 00 00 00	 call	 ??$_Deallocate@$07$0A@@std@@YAXPAXI@Z ; std::_Deallocate<8,0>
  0064f	83 c4 08	 add	 esp, 8
$LN388@RunMainScr:
; File C:\Program Files (x86)\Microsoft Visual Studio\2019\Community\VC\Tools\MSVC\14.28.29333\include\vector

; 375  :     _Vector_val() noexcept : _Myfirst(), _Mylast(), _Myend() {}

  00652	c7 85 98 fe ff
	ff 00 00 00 00	 mov	 DWORD PTR _stVec$4[ebp], 0
  0065c	c7 85 9c fe ff
	ff 00 00 00 00	 mov	 DWORD PTR _stVec$4[ebp+4], 0
  00666	c7 85 a0 fe ff
	ff 00 00 00 00	 mov	 DWORD PTR _stVec$4[ebp+8], 0
; File D:\Metin2 Server Files\mainline\SRC_2014\Metin2Client\UserInterface\UserInterface.cpp

; 350  : 		SplitLine(lpCmdLine," " ,&stVec);

  00670	8d 85 98 fe ff
	ff		 lea	 eax, DWORD PTR _stVec$4[ebp]
  00676	c7 45 fc 06 00
	00 00		 mov	 DWORD PTR __$EHRec$[ebp+8], 6
  0067d	50		 push	 eax
  0067e	68 00 00 00 00	 push	 OFFSET ??_C@_01CLKCMJKC@?5@
  00683	ff b5 94 fe ff
	ff		 push	 DWORD PTR _lpCmdLine$GSCopy$1$[ebp]
  00689	e8 00 00 00 00	 call	 ?SplitLine@@YA_NPBD0PAV?$vector@V?$basic_string@DU?$char_traits@D@std@@V?$allocator@D@2@@std@@V?$allocator@V?$basic_string@DU?$char_traits@D@std@@V?$allocator@D@2@@std@@@2@@std@@@Z ; SplitLine
; File C:\Program Files (x86)\Microsoft Visual Studio\2019\Community\VC\Tools\MSVC\14.28.29333\include\vector

; 1484 :         return static_cast<size_type>(_My_data._Mylast - _My_data._Myfirst);

  0068e	8b 8d 9c fe ff
	ff		 mov	 ecx, DWORD PTR _stVec$4[ebp+4]
  00694	b8 ab aa aa 2a	 mov	 eax, 715827883		; 2aaaaaabH
  00699	8b b5 98 fe ff
	ff		 mov	 esi, DWORD PTR _stVec$4[ebp]
; File D:\Metin2 Server Files\mainline\SRC_2014\Metin2Client\UserInterface\UserInterface.cpp

; 350  : 		SplitLine(lpCmdLine," " ,&stVec);

  0069f	83 c4 0c	 add	 esp, 12			; 0000000cH
; File C:\Program Files (x86)\Microsoft Visual Studio\2019\Community\VC\Tools\MSVC\14.28.29333\include\vector

; 1484 :         return static_cast<size_type>(_My_data._Mylast - _My_data._Myfirst);

  006a2	2b ce		 sub	 ecx, esi
  006a4	f7 e9		 imul	 ecx
  006a6	c1 fa 02	 sar	 edx, 2
  006a9	8b c2		 mov	 eax, edx
  006ab	c1 e8 1f	 shr	 eax, 31			; 0000001fH
  006ae	03 c2		 add	 eax, edx
; File D:\Metin2 Server Files\mainline\SRC_2014\Metin2Client\UserInterface\UserInterface.cpp

; 352  : 		if (stVec.size() != 0 && "--pause-before-create-window" == stVec[0])

  006b0	74 1f		 je	 SHORT $LN8@RunMainScr
  006b2	56		 push	 esi
  006b3	68 00 00 00 00	 push	 OFFSET ??_C@_0BN@KIGJPBEF@?9?9pause?9before?9create?9window@
  006b8	e8 00 00 00 00	 call	 ??$?8DU?$char_traits@D@std@@V?$allocator@D@1@@std@@YA_NQBDABV?$basic_string@DU?$char_traits@D@std@@V?$allocator@D@2@@0@@Z ; std::operator==<char,std::char_traits<char>,std::allocator<char> >
  006bd	83 c4 08	 add	 esp, 8
  006c0	84 c0		 test	 al, al
  006c2	74 0d		 je	 SHORT $LN8@RunMainScr

; 353  : 		{
; 354  : #ifdef XTRAP_CLIENT_ENABLE
; 355  : 			if (!XTrap_CheckInit())
; 356  : 				return false;
; 357  : #endif
; 358  : 			system("pause");

  006c4	68 00 00 00 00	 push	 OFFSET ??_C@_05PDJBBECF@pause@
  006c9	e8 00 00 00 00	 call	 _system
  006ce	83 c4 04	 add	 esp, 4
$LN8@RunMainScr:

; 359  : 		}
; 360  : 		if (!pyLauncher.RunFile("system.py"))

  006d1	68 00 00 00 00	 push	 OFFSET ??_C@_09LEIJOBCA@system?4py@
  006d6	8b cf		 mov	 ecx, edi
  006d8	e8 00 00 00 00	 call	 ?RunFile@CPythonLauncher@@QAE_NPBD@Z ; CPythonLauncher::RunFile
  006dd	84 c0		 test	 al, al
  006df	75 5d		 jne	 SHORT $LN9@RunMainScr

; 362  : 			TraceError("RunMain Error");

  006e1	68 00 00 00 00	 push	 OFFSET ??_C@_0O@BEEPKJML@RunMain?5Error@
  006e6	e8 00 00 00 00	 call	 ?TraceError@@YAXPBDZZ	; TraceError
; File C:\Program Files (x86)\Microsoft Visual Studio\2019\Community\VC\Tools\MSVC\14.28.29333\include\vector

; 1694 :         if (_Myfirst) { // destroy and deallocate old array

  006eb	8b 85 98 fe ff
	ff		 mov	 eax, DWORD PTR _stVec$4[ebp]
; File D:\Metin2 Server Files\mainline\SRC_2014\Metin2Client\UserInterface\UserInterface.cpp

; 362  : 			TraceError("RunMain Error");

  006f1	83 c4 04	 add	 esp, 4
; File C:\Program Files (x86)\Microsoft Visual Studio\2019\Community\VC\Tools\MSVC\14.28.29333\include\vector

; 1694 :         if (_Myfirst) { // destroy and deallocate old array

  006f4	85 c0		 test	 eax, eax
  006f6	74 42		 je	 SHORT $LN407@RunMainScr

; 1612 :         _Destroy_range(_First, _Last, _Getal());

  006f8	8d 8d 98 fe ff
	ff		 lea	 ecx, DWORD PTR _stVec$4[ebp]
  006fe	51		 push	 ecx
  006ff	ff b5 9c fe ff
	ff		 push	 DWORD PTR _stVec$4[ebp+4]
  00705	50		 push	 eax
  00706	e8 00 00 00 00	 call	 ??$_Destroy_range@V?$allocator@V?$basic_string@DU?$char_traits@D@std@@V?$allocator@D@2@@std@@@std@@@std@@YAXPAV?$basic_string@DU?$char_traits@D@std@@V?$allocator@D@2@@0@QAV10@AAV?$allocator@V?$basic_string@DU?$char_traits@D@std@@V?$allocator@D@2@@std@@@0@@Z ; std::_Destroy_range<std::allocator<std::basic_string<char,std::char_traits<char>,std::allocator<char> > > >

; 1696 :             _Getal().deallocate(_Myfirst, static_cast<size_type>(_Myend - _Myfirst));

  0070b	8b 8d a0 fe ff
	ff		 mov	 ecx, DWORD PTR _stVec$4[ebp+8]
  00711	b8 ab aa aa 2a	 mov	 eax, 715827883		; 2aaaaaabH
  00716	8b b5 98 fe ff
	ff		 mov	 esi, DWORD PTR _stVec$4[ebp]
  0071c	2b ce		 sub	 ecx, esi
  0071e	f7 e9		 imul	 ecx
  00720	c1 fa 02	 sar	 edx, 2
  00723	8b c2		 mov	 eax, edx
  00725	c1 e8 1f	 shr	 eax, 31			; 0000001fH
  00728	03 c2		 add	 eax, edx
; File C:\Program Files (x86)\Microsoft Visual Studio\2019\Community\VC\Tools\MSVC\14.28.29333\include\xmemory

; 810  :         _Deallocate<_New_alignof<_Ty>>(_Ptr, sizeof(_Ty) * _Count);

  0072a	8d 04 40	 lea	 eax, DWORD PTR [eax+eax*2]
  0072d	c1 e0 03	 shl	 eax, 3
  00730	50		 push	 eax
  00731	56		 push	 esi
  00732	e8 00 00 00 00	 call	 ??$_Deallocate@$07$0A@@std@@YAXPAXI@Z ; std::_Deallocate<8,0>
  00737	83 c4 14	 add	 esp, 20			; 00000014H
$LN407@RunMainScr:
; File D:\Metin2 Server Files\mainline\SRC_2014\Metin2Client\UserInterface\UserInterface.cpp

; 363  : 			return false;

  0073a	32 c0		 xor	 al, al
  0073c	eb 53		 jmp	 SHORT $LN1@RunMainScr
$LN9@RunMainScr:
; File C:\Program Files (x86)\Microsoft Visual Studio\2019\Community\VC\Tools\MSVC\14.28.29333\include\vector

; 1694 :         if (_Myfirst) { // destroy and deallocate old array

  0073e	8b 85 98 fe ff
	ff		 mov	 eax, DWORD PTR _stVec$4[ebp]
  00744	85 c0		 test	 eax, eax
  00746	74 42		 je	 SHORT $LN416@RunMainScr

; 1612 :         _Destroy_range(_First, _Last, _Getal());

  00748	8d 8d 98 fe ff
	ff		 lea	 ecx, DWORD PTR _stVec$4[ebp]
  0074e	51		 push	 ecx
  0074f	ff b5 9c fe ff
	ff		 push	 DWORD PTR _stVec$4[ebp+4]
  00755	50		 push	 eax
  00756	e8 00 00 00 00	 call	 ??$_Destroy_range@V?$allocator@V?$basic_string@DU?$char_traits@D@std@@V?$allocator@D@2@@std@@@std@@@std@@YAXPAV?$basic_string@DU?$char_traits@D@std@@V?$allocator@D@2@@0@QAV10@AAV?$allocator@V?$basic_string@DU?$char_traits@D@std@@V?$allocator@D@2@@std@@@0@@Z ; std::_Destroy_range<std::allocator<std::basic_string<char,std::char_traits<char>,std::allocator<char> > > >

; 1696 :             _Getal().deallocate(_Myfirst, static_cast<size_type>(_Myend - _Myfirst));

  0075b	8b 8d a0 fe ff
	ff		 mov	 ecx, DWORD PTR _stVec$4[ebp+8]
  00761	b8 ab aa aa 2a	 mov	 eax, 715827883		; 2aaaaaabH
  00766	8b b5 98 fe ff
	ff		 mov	 esi, DWORD PTR _stVec$4[ebp]
  0076c	2b ce		 sub	 ecx, esi
  0076e	f7 e9		 imul	 ecx
  00770	c1 fa 02	 sar	 edx, 2
  00773	8b c2		 mov	 eax, edx
  00775	c1 e8 1f	 shr	 eax, 31			; 0000001fH
  00778	03 c2		 add	 eax, edx
; File C:\Program Files (x86)\Microsoft Visual Studio\2019\Community\VC\Tools\MSVC\14.28.29333\include\xmemory

; 810  :         _Deallocate<_New_alignof<_Ty>>(_Ptr, sizeof(_Ty) * _Count);

  0077a	8d 04 40	 lea	 eax, DWORD PTR [eax+eax*2]
  0077d	c1 e0 03	 shl	 eax, 3
  00780	50		 push	 eax
  00781	56		 push	 esi
  00782	e8 00 00 00 00	 call	 ??$_Deallocate@$07$0A@@std@@YAXPAXI@Z ; std::_Deallocate<8,0>
  00787	83 c4 14	 add	 esp, 20			; 00000014H
$LN416@RunMainScr:
; File D:\Metin2 Server Files\mainline\SRC_2014\Metin2Client\UserInterface\UserInterface.cpp

; 367  : 	NANOEND

  0078a	eb		 DB	 -21			; ffffffebH
  0078b	03		 DB	 3
  0078c	d6		 DB	 -42			; ffffffd6H
  0078d	d7		 DB	 -41			; ffffffd7H
  0078e	00		 DB	 0
  0078f	b0 01		 mov	 al, 1
$LN1@RunMainScr:

; 368  : 	return true;
; 369  : }

  00791	8b 4d f4	 mov	 ecx, DWORD PTR __$EHRec$[ebp]
  00794	64 89 0d 00 00
	00 00		 mov	 DWORD PTR fs:0, ecx
  0079b	59		 pop	 ecx
  0079c	5f		 pop	 edi
  0079d	5e		 pop	 esi
  0079e	5b		 pop	 ebx
  0079f	8b 4d f0	 mov	 ecx, DWORD PTR __$ArrayPad$[ebp]
  007a2	33 cd		 xor	 ecx, ebp
  007a4	e8 00 00 00 00	 call	 @__security_check_cookie@4
  007a9	8b e5		 mov	 esp, ebp
  007ab	5d		 pop	 ebp
  007ac	c3		 ret	 0
_TEXT	ENDS
;	COMDAT text$x
text$x	SEGMENT
__unwindfunclet$?RunMainScript@@YA_NAAVCPythonLauncher@@PBD@Z$0:
  00000	8d 8d d4 fe ff
	ff		 lea	 ecx, DWORD PTR _stRegisterDebugFlag$10[ebp]
  00006	e9 00 00 00 00	 jmp	 ??1?$basic_string@DU?$char_traits@D@std@@V?$allocator@D@2@@std@@QAE@XZ ; std::basic_string<char,std::char_traits<char>,std::allocator<char> >::~basic_string<char,std::char_traits<char>,std::allocator<char> >
__unwindfunclet$?RunMainScript@@YA_NAAVCPythonLauncher@@PBD@Z$1:
  0000b	8d 8d bc fe ff
	ff		 lea	 ecx, DWORD PTR _stRegisterCmdLine$8[ebp]
  00011	e9 00 00 00 00	 jmp	 ??1?$basic_string@DU?$char_traits@D@std@@V?$allocator@D@2@@std@@QAE@XZ ; std::basic_string<char,std::char_traits<char>,std::allocator<char> >::~basic_string<char,std::char_traits<char>,std::allocator<char> >
__unwindfunclet$?RunMainScript@@YA_NAAVCPythonLauncher@@PBD@Z$2:
  00016	8d 8d d4 fe ff
	ff		 lea	 ecx, DWORD PTR _stCmdLine$9[ebp]
  0001c	e9 00 00 00 00	 jmp	 ??1?$basic_string@DU?$char_traits@D@std@@V?$allocator@D@2@@std@@QAE@XZ ; std::basic_string<char,std::char_traits<char>,std::allocator<char> >::~basic_string<char,std::char_traits<char>,std::allocator<char> >
__unwindfunclet$?RunMainScript@@YA_NAAVCPythonLauncher@@PBD@Z$3:
  00021	8d 8d 98 fe ff
	ff		 lea	 ecx, DWORD PTR _stVec$5[ebp]
  00027	e9 00 00 00 00	 jmp	 ??1?$vector@V?$basic_string@DU?$char_traits@D@std@@V?$allocator@D@2@@std@@V?$allocator@V?$basic_string@DU?$char_traits@D@std@@V?$allocator@D@2@@std@@@2@@std@@QAE@XZ ; std::vector<std::basic_string<char,std::char_traits<char>,std::allocator<char> >,std::allocator<std::basic_string<char,std::char_traits<char>,std::allocator<char> > > >::~vector<std::basic_string<char,std::char_traits<char>,std::allocator<char> >,std::allocator<std::basic_string<char,std::char_traits<char>,std::allocator<char> > > >
__unwindfunclet$?RunMainScript@@YA_NAAVCPythonLauncher@@PBD@Z$4:
  0002c	8d 8d a4 fe ff
	ff		 lea	 ecx, DWORD PTR $T7[ebp]
  00032	e9 00 00 00 00	 jmp	 ??1?$basic_string@DU?$char_traits@D@std@@V?$allocator@D@2@@std@@QAE@XZ ; std::basic_string<char,std::char_traits<char>,std::allocator<char> >::~basic_string<char,std::char_traits<char>,std::allocator<char> >
__unwindfunclet$?RunMainScript@@YA_NAAVCPythonLauncher@@PBD@Z$5:
  00037	8d 8d a4 fe ff
	ff		 lea	 ecx, DWORD PTR $T6[ebp]
  0003d	e9 00 00 00 00	 jmp	 ??1?$basic_string@DU?$char_traits@D@std@@V?$allocator@D@2@@std@@QAE@XZ ; std::basic_string<char,std::char_traits<char>,std::allocator<char> >::~basic_string<char,std::char_traits<char>,std::allocator<char> >
__unwindfunclet$?RunMainScript@@YA_NAAVCPythonLauncher@@PBD@Z$6:
  00042	8d 8d 98 fe ff
	ff		 lea	 ecx, DWORD PTR _stVec$4[ebp]
  00048	e9 00 00 00 00	 jmp	 ??1?$vector@V?$basic_string@DU?$char_traits@D@std@@V?$allocator@D@2@@std@@V?$allocator@V?$basic_string@DU?$char_traits@D@std@@V?$allocator@D@2@@std@@@2@@std@@QAE@XZ ; std::vector<std::basic_string<char,std::char_traits<char>,std::allocator<char> >,std::allocator<std::basic_string<char,std::char_traits<char>,std::allocator<char> > > >::~vector<std::basic_string<char,std::char_traits<char>,std::allocator<char> >,std::allocator<std::basic_string<char,std::char_traits<char>,std::allocator<char> > > >
  0004d	cc		 int	 3
  0004e	cc		 int	 3
  0004f	cc		 int	 3
  00050	cc		 int	 3
  00051	cc		 int	 3
__ehhandler$?RunMainScript@@YA_NAAVCPythonLauncher@@PBD@Z:
  00052	90		 npad	 1
  00053	90		 npad	 1
  00054	8b 54 24 08	 mov	 edx, DWORD PTR [esp+8]
  00058	8d 42 0c	 lea	 eax, DWORD PTR [edx+12]
  0005b	8b 8a 84 fe ff
	ff		 mov	 ecx, DWORD PTR [edx-380]
  00061	33 c8		 xor	 ecx, eax
  00063	e8 00 00 00 00	 call	 @__security_check_cookie@4
  00068	8b 4a fc	 mov	 ecx, DWORD PTR [edx-4]
  0006b	33 c8		 xor	 ecx, eax
  0006d	e8 00 00 00 00	 call	 @__security_check_cookie@4
  00072	b8 00 00 00 00	 mov	 eax, OFFSET __ehfuncinfo$?RunMainScript@@YA_NAAVCPythonLauncher@@PBD@Z
  00077	e9 00 00 00 00	 jmp	 ___CxxFrameHandler3
text$x	ENDS
?RunMainScript@@YA_NAAVCPythonLauncher@@PBD@Z ENDP	; RunMainScript
; Function compile flags: /Ogtp
; File D:\Metin2 Server Files\mainline\SRC_2014\Metin2Client\UserInterface\UserInterface.cpp
; File C:\Program Files (x86)\Microsoft Visual Studio\2019\Community\VC\Tools\MSVC\14.28.29333\include\xstring
; File D:\Metin2 Server Files\mainline\SRC_2014\Metin2Client\UserInterface\UserInterface.cpp
; File C:\Program Files (x86)\Microsoft Visual Studio\2019\Community\VC\Tools\MSVC\14.28.29333\include\xstring
; File D:\Metin2 Server Files\mainline\SRC_2014\Metin2Client\UserInterface\UserInterface.cpp
; File C:\Program Files (x86)\Microsoft Visual Studio\2019\Community\VC\Tools\MSVC\14.28.29333\include\xstring
; File D:\Metin2 Server Files\mainline\SRC_2014\Metin2Client\UserInterface\UserInterface.cpp
; File C:\Program Files (x86)\Microsoft Visual Studio\2019\Community\VC\Tools\MSVC\14.28.29333\include\xstring
; File D:\Metin2 Server Files\mainline\SRC_2014\Metin2Client\UserInterface\UserInterface.cpp
; File C:\Program Files (x86)\Microsoft Visual Studio\2019\Community\VC\Tools\MSVC\14.28.29333\include\xstring
; File D:\Metin2 Server Files\mainline\SRC_2014\Metin2Client\UserInterface\UserInterface.cpp
; File C:\Program Files (x86)\Microsoft Visual Studio\2019\Community\VC\Tools\MSVC\14.28.29333\include\xstring
; File D:\Metin2 Server Files\mainline\SRC_2014\Metin2Client\UserInterface\UserInterface.cpp
; File C:\Program Files (x86)\Microsoft Visual Studio\2019\Community\VC\Tools\MSVC\14.28.29333\include\xstring
; File D:\Metin2 Server Files\mainline\SRC_2014\Metin2Client\UserInterface\UserInterface.cpp
; File C:\Program Files (x86)\Microsoft Visual Studio\2019\Community\VC\Tools\MSVC\14.28.29333\include\xstring
; File D:\Metin2 Server Files\mainline\SRC_2014\Metin2Client\UserInterface\UserInterface.cpp
; File C:\Program Files (x86)\Microsoft Visual Studio\2019\Community\VC\Tools\MSVC\14.28.29333\include\xstring
; File D:\Metin2 Server Files\mainline\SRC_2014\Metin2Client\UserInterface\UserInterface.cpp
; File C:\Program Files (x86)\Microsoft Visual Studio\2019\Community\VC\Tools\MSVC\14.28.29333\include\xstring
; File D:\Metin2 Server Files\mainline\SRC_2014\Metin2Client\UserInterface\UserInterface.cpp
; File C:\Program Files (x86)\Microsoft Visual Studio\2019\Community\VC\Tools\MSVC\14.28.29333\include\xstring
; File C:\Program Files (x86)\Microsoft Visual Studio\2019\Community\VC\Tools\MSVC\14.28.29333\include\xmemory
; File C:\Program Files (x86)\Microsoft Visual Studio\2019\Community\VC\Tools\MSVC\14.28.29333\include\xstring
; File C:\Program Files (x86)\Microsoft Visual Studio\2019\Community\VC\Tools\MSVC\14.28.29333\include\xmemory
; File D:\Metin2 Server Files\mainline\SRC_2014\Metin2Client\UserInterface\UserInterface.cpp
; File C:\Program Files (x86)\Microsoft Visual Studio\2019\Community\VC\Tools\MSVC\14.28.29333\include\xstring
; File C:\Program Files (x86)\Microsoft Visual Studio\2019\Community\VC\Tools\MSVC\14.28.29333\include\xmemory
; File C:\Program Files (x86)\Microsoft Visual Studio\2019\Community\VC\Tools\MSVC\14.28.29333\include\xstring
; File C:\Program Files (x86)\Microsoft Visual Studio\2019\Community\VC\Tools\MSVC\14.28.29333\include\xmemory
; File C:\Program Files (x86)\Microsoft Visual Studio\2019\Community\VC\Tools\MSVC\14.28.29333\include\xstring
; File D:\Metin2 Server Files\mainline\SRC_2014\Metin2Client\UserInterface\UserInterface.cpp
; File C:\Program Files (x86)\Microsoft Visual Studio\2019\Community\VC\Tools\MSVC\14.28.29333\include\xstring
; File D:\Metin2 Server Files\mainline\SRC_2014\Metin2Client\UserInterface\UserInterface.cpp
; File C:\Program Files (x86)\Microsoft Visual Studio\2019\Community\VC\Tools\MSVC\14.28.29333\include\xstring
; File D:\Metin2 Server Files\mainline\SRC_2014\Metin2Client\UserInterface\UserInterface.cpp
; File C:\Program Files (x86)\Microsoft Visual Studio\2019\Community\VC\Tools\MSVC\14.28.29333\include\xstring
; File D:\Metin2 Server Files\mainline\SRC_2014\Metin2Client\UserInterface\UserInterface.cpp
; File C:\Program Files (x86)\Microsoft Visual Studio\2019\Community\VC\Tools\MSVC\14.28.29333\include\xstring
; File D:\Metin2 Server Files\mainline\SRC_2014\Metin2Client\UserInterface\UserInterface.cpp
; File C:\Program Files (x86)\Microsoft Visual Studio\2019\Community\VC\Tools\MSVC\14.28.29333\include\xstring
; File D:\Metin2 Server Files\mainline\SRC_2014\Metin2Client\UserInterface\UserInterface.cpp
; File C:\Program Files (x86)\Microsoft Visual Studio\2019\Community\VC\Tools\MSVC\14.28.29333\include\xstring
; File D:\Metin2 Server Files\mainline\SRC_2014\Metin2Client\UserInterface\UserInterface.cpp
; File C:\Program Files (x86)\Microsoft Visual Studio\2019\Community\VC\Tools\MSVC\14.28.29333\include\xstring
; File C:\Program Files (x86)\Microsoft Visual Studio\2019\Community\VC\Tools\MSVC\14.28.29333\include\xmemory
; File C:\Program Files (x86)\Microsoft Visual Studio\2019\Community\VC\Tools\MSVC\14.28.29333\include\xstring
; File C:\Program Files (x86)\Microsoft Visual Studio\2019\Community\VC\Tools\MSVC\14.28.29333\include\xmemory
; File D:\Metin2 Server Files\mainline\SRC_2014\Metin2Client\UserInterface\UserInterface.cpp
; File C:\Program Files (x86)\Microsoft Visual Studio\2019\Community\VC\Tools\MSVC\14.28.29333\include\xstring
; File D:\Metin2 Server Files\mainline\SRC_2014\Metin2Client\UserInterface\UserInterface.cpp
; File C:\Program Files (x86)\Microsoft Visual Studio\2019\Community\VC\Tools\MSVC\14.28.29333\include\xstring
; File C:\Program Files (x86)\Microsoft Visual Studio\2019\Community\VC\Tools\MSVC\14.28.29333\include\xmemory
; File C:\Program Files (x86)\Microsoft Visual Studio\2019\Community\VC\Tools\MSVC\14.28.29333\include\xstring
; File C:\Program Files (x86)\Microsoft Visual Studio\2019\Community\VC\Tools\MSVC\14.28.29333\include\xmemory
; File C:\Program Files (x86)\Microsoft Visual Studio\2019\Community\VC\Tools\MSVC\14.28.29333\include\xstring
; File D:\Metin2 Server Files\mainline\SRC_2014\Metin2Client\UserInterface\UserInterface.cpp
; File C:\Program Files (x86)\Microsoft Visual Studio\2019\Community\VC\Tools\MSVC\14.28.29333\include\xstring
; File C:\Program Files (x86)\Microsoft Visual Studio\2019\Community\VC\Tools\MSVC\14.28.29333\include\xmemory
; File C:\Program Files (x86)\Microsoft Visual Studio\2019\Community\VC\Tools\MSVC\14.28.29333\include\xstring
; File C:\Program Files (x86)\Microsoft Visual Studio\2019\Community\VC\Tools\MSVC\14.28.29333\include\xmemory
; File D:\Metin2 Server Files\mainline\SRC_2014\Metin2Client\UserInterface\UserInterface.cpp
;	COMDAT ?PackInitialize@@YA_NPBD@Z
_TEXT	SEGMENT
_TextLoader$ = -512					; size = 16
_pvData$ = -496						; size = 4
_c_pszFolder$GSCopy$1$ = -492				; size = 4
_i$1$ = -492						; size = 4
$T2 = -485						; size = 1
_file$ = -484						; size = 324
$T3 = -160						; size = 24
_stFolder$ = -136					; size = 24
$T4 = -112						; size = 24
$T5 = -112						; size = 24
$T6 = -112						; size = 24
_stFileName$ = -88					; size = 24
_strTexCachePackName$ = -64				; size = 24
_strPackName$ = -40					; size = 24
__$ArrayPad$ = -16					; size = 4
__$EHRec$ = -12						; size = 12
_c_pszFolder$ = 8					; size = 4
?PackInitialize@@YA_NPBD@Z PROC				; PackInitialize, COMDAT

; 174  : {

  00000	55		 push	 ebp
  00001	8b ec		 mov	 ebp, esp
  00003	6a ff		 push	 -1
  00005	68 00 00 00 00	 push	 __ehhandler$?PackInitialize@@YA_NPBD@Z
  0000a	64 a1 00 00 00
	00		 mov	 eax, DWORD PTR fs:0
  00010	50		 push	 eax
  00011	81 ec f4 01 00
	00		 sub	 esp, 500		; 000001f4H
  00017	a1 00 00 00 00	 mov	 eax, DWORD PTR ___security_cookie
  0001c	33 c5		 xor	 eax, ebp
  0001e	89 45 f0	 mov	 DWORD PTR __$ArrayPad$[ebp], eax
  00021	53		 push	 ebx
  00022	56		 push	 esi
  00023	57		 push	 edi
  00024	50		 push	 eax
  00025	8d 45 f4	 lea	 eax, DWORD PTR __$EHRec$[ebp]
  00028	64 a3 00 00 00
	00		 mov	 DWORD PTR fs:0, eax
  0002e	8b 45 08	 mov	 eax, DWORD PTR _c_pszFolder$[ebp]
  00031	89 85 14 fe ff
	ff		 mov	 DWORD PTR _c_pszFolder$GSCopy$1$[ebp], eax

; 175  : 	NANOBEGIN

  00037	eb		 DB	 -21			; ffffffebH
  00038	03		 DB	 3
  00039	d6		 DB	 -42			; ffffffd6H
  0003a	d7		 DB	 -41			; ffffffd7H
  0003b	01		 DB	 1
  0003c	8b b5 14 fe ff
	ff		 mov	 esi, DWORD PTR _c_pszFolder$GSCopy$1$[ebp]
  00042	6a 00		 push	 0
  00044	56		 push	 esi
  00045	e8 00 00 00 00	 call	 __access
  0004a	83 c4 08	 add	 esp, 8
  0004d	85 c0		 test	 eax, eax
  0004f	74 07		 je	 SHORT $LN5@PackInitia

; 176  : 	if (_access(c_pszFolder, 0) != 0)
; 177  : 		return true;

  00051	b0 01		 mov	 al, 1
  00053	e9 97 04 00 00	 jmp	 $LN1@PackInitia
$LN5@PackInitia:
; File C:\Program Files (x86)\Microsoft Visual Studio\2019\Community\VC\Tools\MSVC\14.28.29333\include\xstring

; 389  :         return _CSTD strlen(reinterpret_cast<const char*>(_First));

  00058	8b ce		 mov	 ecx, esi

; 4377 :         _Mypair._Myval2._Mysize = 0;

  0005a	c7 45 88 00 00
	00 00		 mov	 DWORD PTR _stFolder$[ebp+16], 0

; 4378 :         _Mypair._Myval2._Myres  = _BUF_SIZE - 1;

  00061	c7 45 8c 0f 00
	00 00		 mov	 DWORD PTR _stFolder$[ebp+20], 15 ; 0000000fH

; 4379 :         // the _Traits::assign is last so the codegen doesn't think the char write can alias this
; 4380 :         _Traits::assign(_Mypair._Myval2._Bx._Buf[0], _Elem());

  00068	c6 85 78 ff ff
	ff 00		 mov	 BYTE PTR _stFolder$[ebp], 0

; 389  :         return _CSTD strlen(reinterpret_cast<const char*>(_First));

  0006f	8d 51 01	 lea	 edx, DWORD PTR [ecx+1]
$LL318@PackInitia:
  00072	8a 01		 mov	 al, BYTE PTR [ecx]
  00074	41		 inc	 ecx
  00075	84 c0		 test	 al, al
  00077	75 f9		 jne	 SHORT $LL318@PackInitia
  00079	2b ca		 sub	 ecx, edx

; 3062 :         return assign(_Ptr, _Convert_size<size_type>(_Traits::length(_Ptr)));

  0007b	51		 push	 ecx
  0007c	56		 push	 esi
  0007d	8d 8d 78 ff ff
	ff		 lea	 ecx, DWORD PTR _stFolder$[ebp]
  00083	e8 00 00 00 00	 call	 ?assign@?$basic_string@DU?$char_traits@D@std@@V?$allocator@D@2@@std@@QAEAAV12@QBDI@Z ; std::basic_string<char,std::char_traits<char>,std::allocator<char> >::assign

; 2958 :         return append(_Ptr, _Convert_size<size_type>(_Traits::length(_Ptr)));

  00088	6a 01		 push	 1
  0008a	68 00 00 00 00	 push	 OFFSET ??_C@_01KMDKNFGN@?1@
  0008f	8d 8d 78 ff ff
	ff		 lea	 ecx, DWORD PTR _stFolder$[ebp]
; File D:\Metin2 Server Files\mainline\SRC_2014\Metin2Client\UserInterface\UserInterface.cpp

; 179  : 	std::string stFolder(c_pszFolder);

  00095	c7 45 fc 00 00
	00 00		 mov	 DWORD PTR __$EHRec$[ebp+8], 0
; File C:\Program Files (x86)\Microsoft Visual Studio\2019\Community\VC\Tools\MSVC\14.28.29333\include\xstring

; 2958 :         return append(_Ptr, _Convert_size<size_type>(_Traits::length(_Ptr)));

  0009c	e8 00 00 00 00	 call	 ?append@?$basic_string@DU?$char_traits@D@std@@V?$allocator@D@2@@std@@QAEAAV12@QBDI@Z ; std::basic_string<char,std::char_traits<char>,std::allocator<char> >::append
; File D:\Metin2 Server Files\mainline\SRC_2014\Metin2Client\UserInterface\UserInterface.cpp

; 182  : 	std::string stFileName(stFolder);

  000a1	8d 85 78 ff ff
	ff		 lea	 eax, DWORD PTR _stFolder$[ebp]
  000a7	50		 push	 eax
  000a8	8d 4d a8	 lea	 ecx, DWORD PTR _stFileName$[ebp]
  000ab	e8 00 00 00 00	 call	 ??0?$basic_string@DU?$char_traits@D@std@@V?$allocator@D@2@@std@@QAE@ABV01@@Z ; std::basic_string<char,std::char_traits<char>,std::allocator<char> >::basic_string<char,std::char_traits<char>,std::allocator<char> >
; File C:\Program Files (x86)\Microsoft Visual Studio\2019\Community\VC\Tools\MSVC\14.28.29333\include\xstring

; 2958 :         return append(_Ptr, _Convert_size<size_type>(_Traits::length(_Ptr)));

  000b0	6a 05		 push	 5
  000b2	68 00 00 00 00	 push	 OFFSET ??_C@_05FNNGFGLF@Index@
  000b7	8d 4d a8	 lea	 ecx, DWORD PTR _stFileName$[ebp]
; File D:\Metin2 Server Files\mainline\SRC_2014\Metin2Client\UserInterface\UserInterface.cpp

; 182  : 	std::string stFileName(stFolder);

  000ba	c6 45 fc 01	 mov	 BYTE PTR __$EHRec$[ebp+8], 1
; File C:\Program Files (x86)\Microsoft Visual Studio\2019\Community\VC\Tools\MSVC\14.28.29333\include\xstring

; 2958 :         return append(_Ptr, _Convert_size<size_type>(_Traits::length(_Ptr)));

  000be	e8 00 00 00 00	 call	 ?append@?$basic_string@DU?$char_traits@D@std@@V?$allocator@D@2@@std@@QAEAAV12@QBDI@Z ; std::basic_string<char,std::char_traits<char>,std::allocator<char> >::append
; File D:\Metin2 Server Files\mainline\SRC_2014\Metin2Client\UserInterface\UserInterface.cpp

; 185  : 	CMappedFile file;

  000c3	8d 8d 1c fe ff
	ff		 lea	 ecx, DWORD PTR _file$[ebp]
  000c9	e8 00 00 00 00	 call	 ??0CMappedFile@@QAE@XZ	; CMappedFile::CMappedFile
; File C:\Program Files (x86)\Microsoft Visual Studio\2019\Community\VC\Tools\MSVC\14.28.29333\include\xstring

; 2219 :         if (_Large_string_engaged()) {

  000ce	83 7d bc 10	 cmp	 DWORD PTR _stFileName$[ebp+20], 16 ; 00000010H
; File D:\Metin2 Server Files\mainline\SRC_2014\Metin2Client\UserInterface\UserInterface.cpp

; 188  : 	if (!file.Create(stFileName.c_str(), &pvData, 0, 0))

  000d2	8d 8d 10 fe ff
	ff		 lea	 ecx, DWORD PTR _pvData$[ebp]
  000d8	6a 00		 push	 0
  000da	6a 00		 push	 0
; File C:\Program Files (x86)\Microsoft Visual Studio\2019\Community\VC\Tools\MSVC\14.28.29333\include\xstring

; 2218 :         const value_type* _Result = _Bx._Buf;

  000dc	8d 45 a8	 lea	 eax, DWORD PTR _stFileName$[ebp]
; File D:\Metin2 Server Files\mainline\SRC_2014\Metin2Client\UserInterface\UserInterface.cpp

; 185  : 	CMappedFile file;

  000df	c6 45 fc 02	 mov	 BYTE PTR __$EHRec$[ebp+8], 2
; File C:\Program Files (x86)\Microsoft Visual Studio\2019\Community\VC\Tools\MSVC\14.28.29333\include\xstring

; 2219 :         if (_Large_string_engaged()) {

  000e3	0f 43 45 a8	 cmovae	 eax, DWORD PTR _stFileName$[ebp]
; File D:\Metin2 Server Files\mainline\SRC_2014\Metin2Client\UserInterface\UserInterface.cpp

; 188  : 	if (!file.Create(stFileName.c_str(), &pvData, 0, 0))

  000e7	51		 push	 ecx
  000e8	50		 push	 eax
  000e9	8d 8d 1c fe ff
	ff		 lea	 ecx, DWORD PTR _file$[ebp]
  000ef	e8 00 00 00 00	 call	 ?Create@CMappedFile@@QAEHPBDPAPBXHH@Z ; CMappedFile::Create
  000f4	85 c0		 test	 eax, eax
  000f6	75 3b		 jne	 SHORT $LN6@PackInitia
; File C:\Program Files (x86)\Microsoft Visual Studio\2019\Community\VC\Tools\MSVC\14.28.29333\include\xstring

; 2227 :         return _BUF_SIZE <= _Myres;

  000f8	83 7d bc 10	 cmp	 DWORD PTR _stFileName$[ebp+20], 16 ; 00000010H

; 2218 :         const value_type* _Result = _Bx._Buf;

  000fc	8d 45 a8	 lea	 eax, DWORD PTR _stFileName$[ebp]

; 2219 :         if (_Large_string_engaged()) {

  000ff	0f 43 45 a8	 cmovae	 eax, DWORD PTR _stFileName$[ebp]
; File D:\Metin2 Server Files\mainline\SRC_2014\Metin2Client\UserInterface\UserInterface.cpp

; 190  : 		LogBoxf("FATAL ERROR! File not exist: %s", stFileName.c_str());

  00103	50		 push	 eax
  00104	68 00 00 00 00	 push	 OFFSET ??_C@_0CA@PJKENNIH@FATAL?5ERROR?$CB?5File?5not?5exist?3?5?$CFs@
  00109	e8 00 00 00 00	 call	 ?LogBoxf@@YAXPBDZZ	; LogBoxf
; File C:\Program Files (x86)\Microsoft Visual Studio\2019\Community\VC\Tools\MSVC\14.28.29333\include\xstring

; 2227 :         return _BUF_SIZE <= _Myres;

  0010e	83 7d bc 10	 cmp	 DWORD PTR _stFileName$[ebp+20], 16 ; 00000010H

; 2218 :         const value_type* _Result = _Bx._Buf;

  00112	8d 45 a8	 lea	 eax, DWORD PTR _stFileName$[ebp]

; 2219 :         if (_Large_string_engaged()) {

  00115	0f 43 45 a8	 cmovae	 eax, DWORD PTR _stFileName$[ebp]
; File D:\Metin2 Server Files\mainline\SRC_2014\Metin2Client\UserInterface\UserInterface.cpp

; 191  : 		TraceError("FATAL ERROR! File not exist: %s", stFileName.c_str());

  00119	50		 push	 eax
  0011a	68 00 00 00 00	 push	 OFFSET ??_C@_0CA@PJKENNIH@FATAL?5ERROR?$CB?5File?5not?5exist?3?5?$CFs@
  0011f	e8 00 00 00 00	 call	 ?TraceError@@YAXPBDZZ	; TraceError
  00124	83 c4 10	 add	 esp, 16			; 00000010H
  00127	c6 85 1b fe ff
	ff 01		 mov	 BYTE PTR $T2[ebp], 1
  0012e	e9 6c 03 00 00	 jmp	 $LN19@PackInitia
$LN6@PackInitia:

; 192  : 		return true;
; 193  : 	}
; 194  : 
; 195  : 	CMemoryTextFileLoader TextLoader;

  00133	8d 8d 00 fe ff
	ff		 lea	 ecx, DWORD PTR _TextLoader$[ebp]
  00139	e8 00 00 00 00	 call	 ??0CMemoryTextFileLoader@@QAE@XZ ; CMemoryTextFileLoader::CMemoryTextFileLoader

; 196  : 	TextLoader.Bind(file.Size(), pvData);

  0013e	ff b5 10 fe ff
	ff		 push	 DWORD PTR _pvData$[ebp]
  00144	8d 8d 1c fe ff
	ff		 lea	 ecx, DWORD PTR _file$[ebp]
  0014a	c6 45 fc 03	 mov	 BYTE PTR __$EHRec$[ebp+8], 3
  0014e	e8 00 00 00 00	 call	 ?Size@CMappedFile@@QAEKXZ ; CMappedFile::Size
  00153	50		 push	 eax
  00154	8d 8d 00 fe ff
	ff		 lea	 ecx, DWORD PTR _TextLoader$[ebp]
  0015a	e8 00 00 00 00	 call	 ?Bind@CMemoryTextFileLoader@@QAEXHPBX@Z ; CMemoryTextFileLoader::Bind

; 197  : 
; 198  : 	bool bPackFirst = TRUE;
; 199  : 
; 200  : 	const std::string& strPackType = TextLoader.GetLineString(0);

  0015f	6a 00		 push	 0
  00161	8d 8d 00 fe ff
	ff		 lea	 ecx, DWORD PTR _TextLoader$[ebp]
  00167	e8 00 00 00 00	 call	 ?GetLineString@CMemoryTextFileLoader@@QAEABV?$basic_string@DU?$char_traits@D@std@@V?$allocator@D@2@@std@@K@Z ; CMemoryTextFileLoader::GetLineString
  0016c	8b f0		 mov	 esi, eax

; 201  : 
; 202  : 	if (strPackType.compare("FILE") && strPackType.compare("PACK"))

  0016e	68 00 00 00 00	 push	 OFFSET ??_C@_04PMPMHNFI@FILE@
  00173	8b ce		 mov	 ecx, esi
  00175	e8 00 00 00 00	 call	 ?compare@?$basic_string@DU?$char_traits@D@std@@V?$allocator@D@2@@std@@QBEHQBD@Z ; std::basic_string<char,std::char_traits<char>,std::allocator<char> >::compare
  0017a	85 c0		 test	 eax, eax
  0017c	74 29		 je	 SHORT $LN7@PackInitia
  0017e	68 00 00 00 00	 push	 OFFSET ??_C@_04EDDHFNCG@PACK@
  00183	8b ce		 mov	 ecx, esi
  00185	e8 00 00 00 00	 call	 ?compare@?$basic_string@DU?$char_traits@D@std@@V?$allocator@D@2@@std@@QBEHQBD@Z ; std::basic_string<char,std::char_traits<char>,std::allocator<char> >::compare
  0018a	85 c0		 test	 eax, eax
  0018c	74 19		 je	 SHORT $LN7@PackInitia

; 203  : 	{
; 204  : 		TraceError("Pack/Index has invalid syntax. First line must be 'PACK' or 'FILE'");

  0018e	68 00 00 00 00	 push	 OFFSET ??_C@_0ED@CBACJNDK@Pack?1Index?5has?5invalid?5syntax?4?5@
  00193	e8 00 00 00 00	 call	 ?TraceError@@YAXPBDZZ	; TraceError
  00198	83 c4 04	 add	 esp, 4
  0019b	c6 85 1b fe ff
	ff 00		 mov	 BYTE PTR $T2[ebp], 0
  001a2	e9 ed 02 00 00	 jmp	 $LN285@PackInitia
$LN7@PackInitia:

; 205  : 		return false;
; 206  : 	}
; 207  : 
; 208  : #ifdef _DISTRIBUTE
; 209  : 	Tracef(":  .\n");

  001a7	68 00 00 00 00	 push	 OFFSET ??_C@_0BG@FJMFFOHK@?$LO?K?$LI?$LC?3?5?F?Q?5?$LI?p?$LF?e?$MA?T?$LE?O?$LE?Y?4?6@
  001ac	e8 00 00 00 00	 call	 ?Tracef@@YAXPBDZZ	; Tracef
  001b1	83 c4 04	 add	 esp, 4

; 210  : 	
; 211  : 	//if (0 == strPackType.compare("FILE"))
; 212  : 	//{
; 213  : 	//	bPackFirst = FALSE;
; 214  : 	//	Tracef(":  .\n");
; 215  : 	//}
; 216  : 	//else
; 217  : 	//{
; 218  : 	//	Tracef(":  .\n");
; 219  : 	//}
; 220  : #else
; 221  : 	bPackFirst = FALSE;
; 222  : 	Tracef(":  .\n");
; 223  : #endif
; 224  : 
; 225  : 	CTextFileLoader::SetCacheMode();

  001b4	e8 00 00 00 00	 call	 ?SetCacheMode@CTextFileLoader@@SAXXZ ; CTextFileLoader::SetCacheMode

; 226  : #if defined(USE_RELATIVE_PATH)
; 227  : 	CEterPackManager::Instance().SetRelativePathMode();
; 228  : #endif
; 229  : 	CEterPackManager::Instance().SetCacheMode();

  001b9	8b 0d 00 00 00
	00		 mov	 ecx, DWORD PTR ?ms_singleton@?$CSingleton@VCEterPackManager@@@@0PAVCEterPackManager@@A ; CSingleton<CEterPackManager>::ms_singleton
  001bf	e8 00 00 00 00	 call	 ?SetCacheMode@CEterPackManager@@QAEXXZ ; CEterPackManager::SetCacheMode

; 230  : 	CEterPackManager::Instance().SetSearchMode(bPackFirst);

  001c4	8b 0d 00 00 00
	00		 mov	 ecx, DWORD PTR ?ms_singleton@?$CSingleton@VCEterPackManager@@@@0PAVCEterPackManager@@A ; CSingleton<CEterPackManager>::ms_singleton
  001ca	6a 01		 push	 1
  001cc	e8 00 00 00 00	 call	 ?SetSearchMode@CEterPackManager@@QAEX_N@Z ; CEterPackManager::SetSearchMode

; 231  : 
; 232  : 	CSoundData::SetPackMode(); // Miles   

  001d1	e8 00 00 00 00	 call	 ?SetPackMode@CSoundData@@SAXXZ ; CSoundData::SetPackMode
; File C:\Program Files (x86)\Microsoft Visual Studio\2019\Community\VC\Tools\MSVC\14.28.29333\include\xstring

; 4377 :         _Mypair._Myval2._Mysize = 0;

  001d6	c7 45 e8 00 00
	00 00		 mov	 DWORD PTR _strPackName$[ebp+16], 0

; 4378 :         _Mypair._Myval2._Myres  = _BUF_SIZE - 1;

  001dd	c7 45 ec 0f 00
	00 00		 mov	 DWORD PTR _strPackName$[ebp+20], 15 ; 0000000fH

; 4379 :         // the _Traits::assign is last so the codegen doesn't think the char write can alias this
; 4380 :         _Traits::assign(_Mypair._Myval2._Bx._Buf[0], _Elem());

  001e4	c6 45 d8 00	 mov	 BYTE PTR _strPackName$[ebp], 0

; 4377 :         _Mypair._Myval2._Mysize = 0;

  001e8	c7 45 d0 00 00
	00 00		 mov	 DWORD PTR _strTexCachePackName$[ebp+16], 0

; 4378 :         _Mypair._Myval2._Myres  = _BUF_SIZE - 1;

  001ef	c7 45 d4 0f 00
	00 00		 mov	 DWORD PTR _strTexCachePackName$[ebp+20], 15 ; 0000000fH

; 4379 :         // the _Traits::assign is last so the codegen doesn't think the char write can alias this
; 4380 :         _Traits::assign(_Mypair._Myval2._Bx._Buf[0], _Elem());

  001f6	c6 45 c0 00	 mov	 BYTE PTR _strTexCachePackName$[ebp], 0
; File D:\Metin2 Server Files\mainline\SRC_2014\Metin2Client\UserInterface\UserInterface.cpp

; 235  : 	for (DWORD i = 1; i < TextLoader.GetLineCount() - 1; i += 2)

  001fa	bf 01 00 00 00	 mov	 edi, 1
  001ff	c6 45 fc 05	 mov	 BYTE PTR __$EHRec$[ebp+8], 5
  00203	8d 8d 00 fe ff
	ff		 lea	 ecx, DWORD PTR _TextLoader$[ebp]
  00209	89 bd 14 fe ff
	ff		 mov	 DWORD PTR _i$1$[ebp], edi
  0020f	e8 00 00 00 00	 call	 ?GetLineCount@CMemoryTextFileLoader@@QAEKXZ ; CMemoryTextFileLoader::GetLineCount
  00214	48		 dec	 eax
  00215	3b c7		 cmp	 eax, edi
  00217	0f 86 80 01 00
	00		 jbe	 $LN3@PackInitia
  0021d	0f 1f 00	 npad	 3
$LL4@PackInitia:

; 236  : 	{
; 237  : 		const std::string & c_rstFolder = TextLoader.GetLineString(i);

  00220	57		 push	 edi
  00221	8d 8d 00 fe ff
	ff		 lea	 ecx, DWORD PTR _TextLoader$[ebp]
  00227	e8 00 00 00 00	 call	 ?GetLineString@CMemoryTextFileLoader@@QAEABV?$basic_string@DU?$char_traits@D@std@@V?$allocator@D@2@@std@@K@Z ; CMemoryTextFileLoader::GetLineString
  0022c	8b f0		 mov	 esi, eax

; 238  : 		const std::string & c_rstName = TextLoader.GetLineString(i + 1);

  0022e	8d 8d 00 fe ff
	ff		 lea	 ecx, DWORD PTR _TextLoader$[ebp]
  00234	8d 47 01	 lea	 eax, DWORD PTR [edi+1]
  00237	50		 push	 eax
  00238	e8 00 00 00 00	 call	 ?GetLineString@CMemoryTextFileLoader@@QAEABV?$basic_string@DU?$char_traits@D@std@@V?$allocator@D@2@@std@@K@Z ; CMemoryTextFileLoader::GetLineString

; 239  : 
; 240  : 		strPackName = stFolder + c_rstName;

  0023d	50		 push	 eax
  0023e	8d 85 78 ff ff
	ff		 lea	 eax, DWORD PTR _stFolder$[ebp]
  00244	50		 push	 eax
  00245	8d 45 90	 lea	 eax, DWORD PTR $T6[ebp]
  00248	50		 push	 eax
  00249	e8 00 00 00 00	 call	 ??$?HDU?$char_traits@D@std@@V?$allocator@D@1@@std@@YA?AV?$basic_string@DU?$char_traits@D@std@@V?$allocator@D@2@@0@ABV10@0@Z ; std::operator+<char,std::char_traits<char>,std::allocator<char> >
  0024e	8b f8		 mov	 edi, eax
  00250	83 c4 0c	 add	 esp, 12			; 0000000cH
; File C:\Program Files (x86)\Microsoft Visual Studio\2019\Community\VC\Tools\MSVC\14.28.29333\include\xstring

; 2665 :         if (this != _STD addressof(_Right)) {

  00253	8d 45 d8	 lea	 eax, DWORD PTR _strPackName$[ebp]
  00256	3b c7		 cmp	 eax, edi
  00258	74 49		 je	 SHORT $LN127@PackInitia

; 4385 :         if (_Mypair._Myval2._Large_string_engaged()) {

  0025a	8b 45 ec	 mov	 eax, DWORD PTR _strPackName$[ebp+20]
  0025d	83 f8 10	 cmp	 eax, 16			; 00000010H
  00260	72 0d		 jb	 SHORT $LN116@PackInitia

; 4386 :             const pointer _Ptr = _Mypair._Myval2._Bx._Ptr;
; 4387 :             auto& _Al          = _Getal();
; 4388 :             _Destroy_in_place(_Mypair._Myval2._Bx._Ptr);
; 4389 :             _Al.deallocate(_Ptr, _Mypair._Myval2._Myres + 1);

  00262	40		 inc	 eax
; File C:\Program Files (x86)\Microsoft Visual Studio\2019\Community\VC\Tools\MSVC\14.28.29333\include\xmemory

; 810  :         _Deallocate<_New_alignof<_Ty>>(_Ptr, sizeof(_Ty) * _Count);

  00263	50		 push	 eax
  00264	ff 75 d8	 push	 DWORD PTR _strPackName$[ebp]
  00267	e8 00 00 00 00	 call	 ??$_Deallocate@$07$0A@@std@@YAXPAXI@Z ; std::_Deallocate<8,0>
  0026c	83 c4 08	 add	 esp, 8
$LN116@PackInitia:
; File C:\Program Files (x86)\Microsoft Visual Studio\2019\Community\VC\Tools\MSVC\14.28.29333\include\xstring

; 4392 :         _Mypair._Myval2._Mysize = 0;

  0026f	c7 45 e8 00 00
	00 00		 mov	 DWORD PTR _strPackName$[ebp+16], 0

; 4393 :         _Mypair._Myval2._Myres  = _BUF_SIZE - 1;

  00276	c7 45 ec 0f 00
	00 00		 mov	 DWORD PTR _strPackName$[ebp+20], 15 ; 0000000fH

; 4394 :         // the _Traits::assign is last so the codegen doesn't think the char write can alias this
; 4395 :         _Traits::assign(_Mypair._Myval2._Bx._Buf[0], _Elem());

  0027d	c6 45 d8 00	 mov	 BYTE PTR _strPackName$[ebp], 0

; 2684 :         _CSTD memcpy(_My_data_mem, _Right_data_mem, _Memcpy_val_size);

  00281	0f 10 07	 movups	 xmm0, XMMWORD PTR [edi]
  00284	0f 11 45 d8	 movups	 XMMWORD PTR _strPackName$[ebp], xmm0
  00288	f3 0f 7e 47 10	 movq	 xmm0, QWORD PTR [edi+16]
  0028d	66 0f d6 45 e8	 movq	 QWORD PTR _strPackName$[ebp+16], xmm0

; 4377 :         _Mypair._Myval2._Mysize = 0;

  00292	c7 47 10 00 00
	00 00		 mov	 DWORD PTR [edi+16], 0

; 4378 :         _Mypair._Myval2._Myres  = _BUF_SIZE - 1;

  00299	c7 47 14 0f 00
	00 00		 mov	 DWORD PTR [edi+20], 15	; 0000000fH

; 4379 :         // the _Traits::assign is last so the codegen doesn't think the char write can alias this
; 4380 :         _Traits::assign(_Mypair._Myval2._Bx._Buf[0], _Elem());

  002a0	c6 07 00	 mov	 BYTE PTR [edi], 0
$LN127@PackInitia:

; 4385 :         if (_Mypair._Myval2._Large_string_engaged()) {

  002a3	8b 45 a4	 mov	 eax, DWORD PTR $T6[ebp+20]
  002a6	83 f8 10	 cmp	 eax, 16			; 00000010H
  002a9	72 0d		 jb	 SHORT $LN132@PackInitia

; 4386 :             const pointer _Ptr = _Mypair._Myval2._Bx._Ptr;
; 4387 :             auto& _Al          = _Getal();
; 4388 :             _Destroy_in_place(_Mypair._Myval2._Bx._Ptr);
; 4389 :             _Al.deallocate(_Ptr, _Mypair._Myval2._Myres + 1);

  002ab	40		 inc	 eax
; File C:\Program Files (x86)\Microsoft Visual Studio\2019\Community\VC\Tools\MSVC\14.28.29333\include\xmemory

; 810  :         _Deallocate<_New_alignof<_Ty>>(_Ptr, sizeof(_Ty) * _Count);

  002ac	50		 push	 eax
  002ad	ff 75 90	 push	 DWORD PTR $T6[ebp]
  002b0	e8 00 00 00 00	 call	 ??$_Deallocate@$07$0A@@std@@YAXPAXI@Z ; std::_Deallocate<8,0>
  002b5	83 c4 08	 add	 esp, 8
$LN132@PackInitia:
; File D:\Metin2 Server Files\mainline\SRC_2014\Metin2Client\UserInterface\UserInterface.cpp

; 241  : 		strTexCachePackName = strPackName + "_texcache";

  002b8	68 00 00 00 00	 push	 OFFSET ??_C@_09ODEGJGJI@_texcache@
  002bd	8d 45 d8	 lea	 eax, DWORD PTR _strPackName$[ebp]
  002c0	50		 push	 eax
  002c1	8d 45 90	 lea	 eax, DWORD PTR $T5[ebp]
  002c4	50		 push	 eax
  002c5	e8 00 00 00 00	 call	 ??$?HDU?$char_traits@D@std@@V?$allocator@D@1@@std@@YA?AV?$basic_string@DU?$char_traits@D@std@@V?$allocator@D@2@@0@ABV10@QBD@Z ; std::operator+<char,std::char_traits<char>,std::allocator<char> >
  002ca	8b f8		 mov	 edi, eax
  002cc	83 c4 0c	 add	 esp, 12			; 0000000cH
; File C:\Program Files (x86)\Microsoft Visual Studio\2019\Community\VC\Tools\MSVC\14.28.29333\include\xstring

; 2665 :         if (this != _STD addressof(_Right)) {

  002cf	8d 45 c0	 lea	 eax, DWORD PTR _strTexCachePackName$[ebp]
  002d2	3b c7		 cmp	 eax, edi
  002d4	74 49		 je	 SHORT $LN155@PackInitia

; 4385 :         if (_Mypair._Myval2._Large_string_engaged()) {

  002d6	8b 45 d4	 mov	 eax, DWORD PTR _strTexCachePackName$[ebp+20]
  002d9	83 f8 10	 cmp	 eax, 16			; 00000010H
  002dc	72 0d		 jb	 SHORT $LN144@PackInitia

; 4386 :             const pointer _Ptr = _Mypair._Myval2._Bx._Ptr;
; 4387 :             auto& _Al          = _Getal();
; 4388 :             _Destroy_in_place(_Mypair._Myval2._Bx._Ptr);
; 4389 :             _Al.deallocate(_Ptr, _Mypair._Myval2._Myres + 1);

  002de	40		 inc	 eax
; File C:\Program Files (x86)\Microsoft Visual Studio\2019\Community\VC\Tools\MSVC\14.28.29333\include\xmemory

; 810  :         _Deallocate<_New_alignof<_Ty>>(_Ptr, sizeof(_Ty) * _Count);

  002df	50		 push	 eax
  002e0	ff 75 c0	 push	 DWORD PTR _strTexCachePackName$[ebp]
  002e3	e8 00 00 00 00	 call	 ??$_Deallocate@$07$0A@@std@@YAXPAXI@Z ; std::_Deallocate<8,0>
  002e8	83 c4 08	 add	 esp, 8
$LN144@PackInitia:
; File C:\Program Files (x86)\Microsoft Visual Studio\2019\Community\VC\Tools\MSVC\14.28.29333\include\xstring

; 4392 :         _Mypair._Myval2._Mysize = 0;

  002eb	c7 45 d0 00 00
	00 00		 mov	 DWORD PTR _strTexCachePackName$[ebp+16], 0

; 4393 :         _Mypair._Myval2._Myres  = _BUF_SIZE - 1;

  002f2	c7 45 d4 0f 00
	00 00		 mov	 DWORD PTR _strTexCachePackName$[ebp+20], 15 ; 0000000fH

; 4394 :         // the _Traits::assign is last so the codegen doesn't think the char write can alias this
; 4395 :         _Traits::assign(_Mypair._Myval2._Bx._Buf[0], _Elem());

  002f9	c6 45 c0 00	 mov	 BYTE PTR _strTexCachePackName$[ebp], 0

; 2684 :         _CSTD memcpy(_My_data_mem, _Right_data_mem, _Memcpy_val_size);

  002fd	0f 10 07	 movups	 xmm0, XMMWORD PTR [edi]
  00300	0f 11 45 c0	 movups	 XMMWORD PTR _strTexCachePackName$[ebp], xmm0
  00304	f3 0f 7e 47 10	 movq	 xmm0, QWORD PTR [edi+16]
  00309	66 0f d6 45 d0	 movq	 QWORD PTR _strTexCachePackName$[ebp+16], xmm0

; 4377 :         _Mypair._Myval2._Mysize = 0;

  0030e	c7 47 10 00 00
	00 00		 mov	 DWORD PTR [edi+16], 0

; 4378 :         _Mypair._Myval2._Myres  = _BUF_SIZE - 1;

  00315	c7 47 14 0f 00
	00 00		 mov	 DWORD PTR [edi+20], 15	; 0000000fH

; 4379 :         // the _Traits::assign is last so the codegen doesn't think the char write can alias this
; 4380 :         _Traits::assign(_Mypair._Myval2._Bx._Buf[0], _Elem());

  0031c	c6 07 00	 mov	 BYTE PTR [edi], 0
$LN155@PackInitia:

; 4385 :         if (_Mypair._Myval2._Large_string_engaged()) {

  0031f	8b 45 a4	 mov	 eax, DWORD PTR $T5[ebp+20]
  00322	83 f8 10	 cmp	 eax, 16			; 00000010H
  00325	72 0d		 jb	 SHORT $LN160@PackInitia

; 4386 :             const pointer _Ptr = _Mypair._Myval2._Bx._Ptr;
; 4387 :             auto& _Al          = _Getal();
; 4388 :             _Destroy_in_place(_Mypair._Myval2._Bx._Ptr);
; 4389 :             _Al.deallocate(_Ptr, _Mypair._Myval2._Myres + 1);

  00327	40		 inc	 eax
; File C:\Program Files (x86)\Microsoft Visual Studio\2019\Community\VC\Tools\MSVC\14.28.29333\include\xmemory

; 810  :         _Deallocate<_New_alignof<_Ty>>(_Ptr, sizeof(_Ty) * _Count);

  00328	50		 push	 eax
  00329	ff 75 90	 push	 DWORD PTR $T5[ebp]
  0032c	e8 00 00 00 00	 call	 ??$_Deallocate@$07$0A@@std@@YAXPAXI@Z ; std::_Deallocate<8,0>
  00331	83 c4 08	 add	 esp, 8
$LN160@PackInitia:
; File C:\Program Files (x86)\Microsoft Visual Studio\2019\Community\VC\Tools\MSVC\14.28.29333\include\xstring

; 2219 :         if (_Large_string_engaged()) {

  00334	83 7e 14 10	 cmp	 DWORD PTR [esi+20], 16	; 00000010H
  00338	8b ce		 mov	 ecx, esi
  0033a	72 02		 jb	 SHORT $LN317@PackInitia

; 2220 :             _Result = _Unfancy(_Bx._Ptr);

  0033c	8b 0e		 mov	 ecx, DWORD PTR [esi]
$LN317@PackInitia:

; 2219 :         if (_Large_string_engaged()) {

  0033e	83 7d ec 10	 cmp	 DWORD PTR _strPackName$[ebp+20], 16 ; 00000010H
  00342	8d 45 d8	 lea	 eax, DWORD PTR _strPackName$[ebp]
; File D:\Metin2 Server Files\mainline\SRC_2014\Metin2Client\UserInterface\UserInterface.cpp

; 243  : 		CEterPackManager::Instance().RegisterPack(strPackName.c_str(), c_rstFolder.c_str());

  00345	6a 00		 push	 0
; File C:\Program Files (x86)\Microsoft Visual Studio\2019\Community\VC\Tools\MSVC\14.28.29333\include\xstring

; 2219 :         if (_Large_string_engaged()) {

  00347	0f 43 45 d8	 cmovae	 eax, DWORD PTR _strPackName$[ebp]
; File D:\Metin2 Server Files\mainline\SRC_2014\Metin2Client\UserInterface\UserInterface.cpp

; 243  : 		CEterPackManager::Instance().RegisterPack(strPackName.c_str(), c_rstFolder.c_str());

  0034b	51		 push	 ecx
  0034c	8b 0d 00 00 00
	00		 mov	 ecx, DWORD PTR ?ms_singleton@?$CSingleton@VCEterPackManager@@@@0PAVCEterPackManager@@A ; CSingleton<CEterPackManager>::ms_singleton
  00352	50		 push	 eax
  00353	e8 00 00 00 00	 call	 ?RegisterPack@CEterPackManager@@QAE_NPBD0PBE@Z ; CEterPackManager::RegisterPack
; File C:\Program Files (x86)\Microsoft Visual Studio\2019\Community\VC\Tools\MSVC\14.28.29333\include\xstring

; 2219 :         if (_Large_string_engaged()) {

  00358	83 7e 14 10	 cmp	 DWORD PTR [esi+20], 16	; 00000010H
  0035c	72 02		 jb	 SHORT $LN316@PackInitia

; 2220 :             _Result = _Unfancy(_Bx._Ptr);

  0035e	8b 36		 mov	 esi, DWORD PTR [esi]
$LN316@PackInitia:

; 2219 :         if (_Large_string_engaged()) {

  00360	83 7d d4 10	 cmp	 DWORD PTR _strTexCachePackName$[ebp+20], 16 ; 00000010H
  00364	8d 45 c0	 lea	 eax, DWORD PTR _strTexCachePackName$[ebp]
; File D:\Metin2 Server Files\mainline\SRC_2014\Metin2Client\UserInterface\UserInterface.cpp

; 244  : 		CEterPackManager::Instance().RegisterPack(strTexCachePackName.c_str(), c_rstFolder.c_str());

  00367	8b 0d 00 00 00
	00		 mov	 ecx, DWORD PTR ?ms_singleton@?$CSingleton@VCEterPackManager@@@@0PAVCEterPackManager@@A ; CSingleton<CEterPackManager>::ms_singleton
; File C:\Program Files (x86)\Microsoft Visual Studio\2019\Community\VC\Tools\MSVC\14.28.29333\include\xstring

; 2219 :         if (_Large_string_engaged()) {

  0036d	0f 43 45 c0	 cmovae	 eax, DWORD PTR _strTexCachePackName$[ebp]
; File D:\Metin2 Server Files\mainline\SRC_2014\Metin2Client\UserInterface\UserInterface.cpp

; 244  : 		CEterPackManager::Instance().RegisterPack(strTexCachePackName.c_str(), c_rstFolder.c_str());

  00371	6a 00		 push	 0
  00373	56		 push	 esi
  00374	50		 push	 eax
  00375	e8 00 00 00 00	 call	 ?RegisterPack@CEterPackManager@@QAE_NPBD0PBE@Z ; CEterPackManager::RegisterPack
  0037a	8b bd 14 fe ff
	ff		 mov	 edi, DWORD PTR _i$1$[ebp]
  00380	8d 8d 00 fe ff
	ff		 lea	 ecx, DWORD PTR _TextLoader$[ebp]
  00386	83 c7 02	 add	 edi, 2
  00389	89 bd 14 fe ff
	ff		 mov	 DWORD PTR _i$1$[ebp], edi
  0038f	e8 00 00 00 00	 call	 ?GetLineCount@CMemoryTextFileLoader@@QAEKXZ ; CMemoryTextFileLoader::GetLineCount
  00394	48		 dec	 eax
  00395	3b f8		 cmp	 edi, eax
  00397	0f 82 83 fe ff
	ff		 jb	 $LL4@PackInitia
$LN3@PackInitia:
; File C:\Program Files (x86)\Microsoft Visual Studio\2019\Community\VC\Tools\MSVC\14.28.29333\include\xstring

; 4378 :         _Mypair._Myval2._Myres  = _BUF_SIZE - 1;

  0039d	c7 85 74 ff ff
	ff 0f 00 00 00	 mov	 DWORD PTR $T3[ebp+20], 15 ; 0000000fH

; 3046 :             _Mypair._Myval2._Mysize = _Count;

  003a7	c7 85 70 ff ff
	ff 04 00 00 00	 mov	 DWORD PTR $T3[ebp+16], 4

; 119  :         _CSTD memmove(_First1, _First2, _Count * sizeof(_Elem));

  003b1	c7 85 60 ff ff
	ff 72 6f 6f 74	 mov	 DWORD PTR $T3[ebp], 1953460082 ; 746f6f72H

; 3048 :             _Traits::assign(_Old_ptr[_Count], _Elem());

  003bb	c6 85 64 ff ff
	ff 00		 mov	 BYTE PTR $T3[ebp+4], 0
; File D:\Metin2 Server Files\mainline\SRC_2014\Metin2Client\UserInterface\UserInterface.cpp

; 247  : 	CEterPackManager::Instance().RegisterRootPack((stFolder + std::string("root")).c_str());

  003c2	8d 85 60 ff ff
	ff		 lea	 eax, DWORD PTR $T3[ebp]
  003c8	c6 45 fc 06	 mov	 BYTE PTR __$EHRec$[ebp+8], 6
  003cc	50		 push	 eax
  003cd	8d 85 78 ff ff
	ff		 lea	 eax, DWORD PTR _stFolder$[ebp]
  003d3	50		 push	 eax
  003d4	8d 45 90	 lea	 eax, DWORD PTR $T4[ebp]
  003d7	50		 push	 eax
  003d8	e8 00 00 00 00	 call	 ??$?HDU?$char_traits@D@std@@V?$allocator@D@1@@std@@YA?AV?$basic_string@DU?$char_traits@D@std@@V?$allocator@D@2@@0@ABV10@$$QAV10@@Z ; std::operator+<char,std::char_traits<char>,std::allocator<char> >
  003dd	83 c4 0c	 add	 esp, 12			; 0000000cH
; File C:\Program Files (x86)\Microsoft Visual Studio\2019\Community\VC\Tools\MSVC\14.28.29333\include\xstring

; 2227 :         return _BUF_SIZE <= _Myres;

  003e0	83 78 14 10	 cmp	 DWORD PTR [eax+20], 16	; 00000010H
; File D:\Metin2 Server Files\mainline\SRC_2014\Metin2Client\UserInterface\UserInterface.cpp

; 247  : 	CEterPackManager::Instance().RegisterRootPack((stFolder + std::string("root")).c_str());

  003e4	c6 45 fc 07	 mov	 BYTE PTR __$EHRec$[ebp+8], 7
; File C:\Program Files (x86)\Microsoft Visual Studio\2019\Community\VC\Tools\MSVC\14.28.29333\include\xstring

; 2219 :         if (_Large_string_engaged()) {

  003e8	72 02		 jb	 SHORT $LN246@PackInitia

; 2220 :             _Result = _Unfancy(_Bx._Ptr);

  003ea	8b 00		 mov	 eax, DWORD PTR [eax]
$LN246@PackInitia:
; File D:\Metin2 Server Files\mainline\SRC_2014\Metin2Client\UserInterface\UserInterface.cpp

; 247  : 	CEterPackManager::Instance().RegisterRootPack((stFolder + std::string("root")).c_str());

  003ec	8b 0d 00 00 00
	00		 mov	 ecx, DWORD PTR ?ms_singleton@?$CSingleton@VCEterPackManager@@@@0PAVCEterPackManager@@A ; CSingleton<CEterPackManager>::ms_singleton
  003f2	50		 push	 eax
  003f3	e8 00 00 00 00	 call	 ?RegisterRootPack@CEterPackManager@@QAEXPBD@Z ; CEterPackManager::RegisterRootPack
; File C:\Program Files (x86)\Microsoft Visual Studio\2019\Community\VC\Tools\MSVC\14.28.29333\include\xstring

; 2227 :         return _BUF_SIZE <= _Myres;

  003f8	8b 45 a4	 mov	 eax, DWORD PTR $T4[ebp+20]
  003fb	83 f8 10	 cmp	 eax, 16			; 00000010H

; 4385 :         if (_Mypair._Myval2._Large_string_engaged()) {

  003fe	72 0d		 jb	 SHORT $LN254@PackInitia

; 4386 :             const pointer _Ptr = _Mypair._Myval2._Bx._Ptr;
; 4387 :             auto& _Al          = _Getal();
; 4388 :             _Destroy_in_place(_Mypair._Myval2._Bx._Ptr);
; 4389 :             _Al.deallocate(_Ptr, _Mypair._Myval2._Myres + 1);

  00400	40		 inc	 eax
; File C:\Program Files (x86)\Microsoft Visual Studio\2019\Community\VC\Tools\MSVC\14.28.29333\include\xmemory

; 810  :         _Deallocate<_New_alignof<_Ty>>(_Ptr, sizeof(_Ty) * _Count);

  00401	50		 push	 eax
  00402	ff 75 90	 push	 DWORD PTR $T4[ebp]
  00405	e8 00 00 00 00	 call	 ??$_Deallocate@$07$0A@@std@@YAXPAXI@Z ; std::_Deallocate<8,0>
  0040a	83 c4 08	 add	 esp, 8
$LN254@PackInitia:
; File C:\Program Files (x86)\Microsoft Visual Studio\2019\Community\VC\Tools\MSVC\14.28.29333\include\xstring

; 2227 :         return _BUF_SIZE <= _Myres;

  0040d	8b 85 74 ff ff
	ff		 mov	 eax, DWORD PTR $T3[ebp+20]

; 4392 :         _Mypair._Myval2._Mysize = 0;

  00413	c7 45 a0 00 00
	00 00		 mov	 DWORD PTR $T4[ebp+16], 0

; 4393 :         _Mypair._Myval2._Myres  = _BUF_SIZE - 1;

  0041a	c7 45 a4 0f 00
	00 00		 mov	 DWORD PTR $T4[ebp+20], 15 ; 0000000fH

; 4394 :         // the _Traits::assign is last so the codegen doesn't think the char write can alias this
; 4395 :         _Traits::assign(_Mypair._Myval2._Bx._Buf[0], _Elem());

  00421	c6 45 90 00	 mov	 BYTE PTR $T4[ebp], 0

; 2227 :         return _BUF_SIZE <= _Myres;

  00425	83 f8 10	 cmp	 eax, 16			; 00000010H

; 4385 :         if (_Mypair._Myval2._Large_string_engaged()) {

  00428	72 10		 jb	 SHORT $LN264@PackInitia

; 4386 :             const pointer _Ptr = _Mypair._Myval2._Bx._Ptr;
; 4387 :             auto& _Al          = _Getal();
; 4388 :             _Destroy_in_place(_Mypair._Myval2._Bx._Ptr);
; 4389 :             _Al.deallocate(_Ptr, _Mypair._Myval2._Myres + 1);

  0042a	40		 inc	 eax
; File C:\Program Files (x86)\Microsoft Visual Studio\2019\Community\VC\Tools\MSVC\14.28.29333\include\xmemory

; 810  :         _Deallocate<_New_alignof<_Ty>>(_Ptr, sizeof(_Ty) * _Count);

  0042b	50		 push	 eax
  0042c	ff b5 60 ff ff
	ff		 push	 DWORD PTR $T3[ebp]
  00432	e8 00 00 00 00	 call	 ??$_Deallocate@$07$0A@@std@@YAXPAXI@Z ; std::_Deallocate<8,0>
  00437	83 c4 08	 add	 esp, 8
$LN264@PackInitia:
; File D:\Metin2 Server Files\mainline\SRC_2014\Metin2Client\UserInterface\UserInterface.cpp

; 248  : 	NANOEND

  0043a	eb		 DB	 -21			; ffffffebH
  0043b	03		 DB	 3
  0043c	d6		 DB	 -42			; ffffffd6H
  0043d	d7		 DB	 -41			; ffffffd7H
  0043e	00		 DB	 0
; File C:\Program Files (x86)\Microsoft Visual Studio\2019\Community\VC\Tools\MSVC\14.28.29333\include\xstring

; 2227 :         return _BUF_SIZE <= _Myres;

  0043f	8b 45 d4	 mov	 eax, DWORD PTR _strTexCachePackName$[ebp+20]
; File D:\Metin2 Server Files\mainline\SRC_2014\Metin2Client\UserInterface\UserInterface.cpp

; 248  : 	NANOEND

  00442	c6 85 1b fe ff
	ff 01		 mov	 BYTE PTR $T2[ebp], 1
; File C:\Program Files (x86)\Microsoft Visual Studio\2019\Community\VC\Tools\MSVC\14.28.29333\include\xstring

; 2227 :         return _BUF_SIZE <= _Myres;

  00449	83 f8 10	 cmp	 eax, 16			; 00000010H

; 4385 :         if (_Mypair._Myval2._Large_string_engaged()) {

  0044c	72 0d		 jb	 SHORT $LN274@PackInitia

; 4386 :             const pointer _Ptr = _Mypair._Myval2._Bx._Ptr;
; 4387 :             auto& _Al          = _Getal();
; 4388 :             _Destroy_in_place(_Mypair._Myval2._Bx._Ptr);
; 4389 :             _Al.deallocate(_Ptr, _Mypair._Myval2._Myres + 1);

  0044e	40		 inc	 eax
; File C:\Program Files (x86)\Microsoft Visual Studio\2019\Community\VC\Tools\MSVC\14.28.29333\include\xmemory

; 810  :         _Deallocate<_New_alignof<_Ty>>(_Ptr, sizeof(_Ty) * _Count);

  0044f	50		 push	 eax
  00450	ff 75 c0	 push	 DWORD PTR _strTexCachePackName$[ebp]
  00453	e8 00 00 00 00	 call	 ??$_Deallocate@$07$0A@@std@@YAXPAXI@Z ; std::_Deallocate<8,0>
  00458	83 c4 08	 add	 esp, 8
$LN274@PackInitia:
; File C:\Program Files (x86)\Microsoft Visual Studio\2019\Community\VC\Tools\MSVC\14.28.29333\include\xstring

; 2227 :         return _BUF_SIZE <= _Myres;

  0045b	8b 45 ec	 mov	 eax, DWORD PTR _strPackName$[ebp+20]

; 4392 :         _Mypair._Myval2._Mysize = 0;

  0045e	c7 45 d0 00 00
	00 00		 mov	 DWORD PTR _strTexCachePackName$[ebp+16], 0

; 4393 :         _Mypair._Myval2._Myres  = _BUF_SIZE - 1;

  00465	c7 45 d4 0f 00
	00 00		 mov	 DWORD PTR _strTexCachePackName$[ebp+20], 15 ; 0000000fH

; 4394 :         // the _Traits::assign is last so the codegen doesn't think the char write can alias this
; 4395 :         _Traits::assign(_Mypair._Myval2._Bx._Buf[0], _Elem());

  0046c	c6 45 c0 00	 mov	 BYTE PTR _strTexCachePackName$[ebp], 0

; 2227 :         return _BUF_SIZE <= _Myres;

  00470	83 f8 10	 cmp	 eax, 16			; 00000010H

; 4385 :         if (_Mypair._Myval2._Large_string_engaged()) {

  00473	72 0d		 jb	 SHORT $LN284@PackInitia

; 4386 :             const pointer _Ptr = _Mypair._Myval2._Bx._Ptr;
; 4387 :             auto& _Al          = _Getal();
; 4388 :             _Destroy_in_place(_Mypair._Myval2._Bx._Ptr);
; 4389 :             _Al.deallocate(_Ptr, _Mypair._Myval2._Myres + 1);

  00475	40		 inc	 eax
; File C:\Program Files (x86)\Microsoft Visual Studio\2019\Community\VC\Tools\MSVC\14.28.29333\include\xmemory

; 810  :         _Deallocate<_New_alignof<_Ty>>(_Ptr, sizeof(_Ty) * _Count);

  00476	50		 push	 eax
  00477	ff 75 d8	 push	 DWORD PTR _strPackName$[ebp]
  0047a	e8 00 00 00 00	 call	 ??$_Deallocate@$07$0A@@std@@YAXPAXI@Z ; std::_Deallocate<8,0>
  0047f	83 c4 08	 add	 esp, 8
$LN284@PackInitia:
; File C:\Program Files (x86)\Microsoft Visual Studio\2019\Community\VC\Tools\MSVC\14.28.29333\include\xstring

; 4392 :         _Mypair._Myval2._Mysize = 0;

  00482	c7 45 e8 00 00
	00 00		 mov	 DWORD PTR _strPackName$[ebp+16], 0

; 4393 :         _Mypair._Myval2._Myres  = _BUF_SIZE - 1;

  00489	c7 45 ec 0f 00
	00 00		 mov	 DWORD PTR _strPackName$[ebp+20], 15 ; 0000000fH

; 4394 :         // the _Traits::assign is last so the codegen doesn't think the char write can alias this
; 4395 :         _Traits::assign(_Mypair._Myval2._Bx._Buf[0], _Elem());

  00490	c6 45 d8 00	 mov	 BYTE PTR _strPackName$[ebp], 0
$LN285@PackInitia:
; File D:\Metin2 Server Files\mainline\SRC_2014\Metin2Client\UserInterface\UserInterface.cpp

; 248  : 	NANOEND

  00494	8d 8d 00 fe ff
	ff		 lea	 ecx, DWORD PTR _TextLoader$[ebp]
  0049a	e8 00 00 00 00	 call	 ??1CMemoryTextFileLoader@@UAE@XZ ; CMemoryTextFileLoader::~CMemoryTextFileLoader
$LN19@PackInitia:
  0049f	8d 8d 1c fe ff
	ff		 lea	 ecx, DWORD PTR _file$[ebp]
  004a5	e8 00 00 00 00	 call	 ??1CMappedFile@@UAE@XZ	; CMappedFile::~CMappedFile
; File C:\Program Files (x86)\Microsoft Visual Studio\2019\Community\VC\Tools\MSVC\14.28.29333\include\xstring

; 2227 :         return _BUF_SIZE <= _Myres;

  004aa	8b 45 bc	 mov	 eax, DWORD PTR _stFileName$[ebp+20]
  004ad	83 f8 10	 cmp	 eax, 16			; 00000010H

; 4385 :         if (_Mypair._Myval2._Large_string_engaged()) {

  004b0	72 0d		 jb	 SHORT $LN294@PackInitia

; 4386 :             const pointer _Ptr = _Mypair._Myval2._Bx._Ptr;
; 4387 :             auto& _Al          = _Getal();
; 4388 :             _Destroy_in_place(_Mypair._Myval2._Bx._Ptr);
; 4389 :             _Al.deallocate(_Ptr, _Mypair._Myval2._Myres + 1);

  004b2	40		 inc	 eax
; File C:\Program Files (x86)\Microsoft Visual Studio\2019\Community\VC\Tools\MSVC\14.28.29333\include\xmemory

; 810  :         _Deallocate<_New_alignof<_Ty>>(_Ptr, sizeof(_Ty) * _Count);

  004b3	50		 push	 eax
  004b4	ff 75 a8	 push	 DWORD PTR _stFileName$[ebp]
  004b7	e8 00 00 00 00	 call	 ??$_Deallocate@$07$0A@@std@@YAXPAXI@Z ; std::_Deallocate<8,0>
  004bc	83 c4 08	 add	 esp, 8
$LN294@PackInitia:
; File C:\Program Files (x86)\Microsoft Visual Studio\2019\Community\VC\Tools\MSVC\14.28.29333\include\xstring

; 2227 :         return _BUF_SIZE <= _Myres;

  004bf	8b 4d 8c	 mov	 ecx, DWORD PTR _stFolder$[ebp+20]

; 4392 :         _Mypair._Myval2._Mysize = 0;

  004c2	c7 45 b8 00 00
	00 00		 mov	 DWORD PTR _stFileName$[ebp+16], 0

; 4393 :         _Mypair._Myval2._Myres  = _BUF_SIZE - 1;

  004c9	c7 45 bc 0f 00
	00 00		 mov	 DWORD PTR _stFileName$[ebp+20], 15 ; 0000000fH

; 4394 :         // the _Traits::assign is last so the codegen doesn't think the char write can alias this
; 4395 :         _Traits::assign(_Mypair._Myval2._Bx._Buf[0], _Elem());

  004d0	c6 45 a8 00	 mov	 BYTE PTR _stFileName$[ebp], 0

; 2227 :         return _BUF_SIZE <= _Myres;

  004d4	83 f9 10	 cmp	 ecx, 16			; 00000010H

; 4385 :         if (_Mypair._Myval2._Large_string_engaged()) {

  004d7	72 10		 jb	 SHORT $LN304@PackInitia

; 4386 :             const pointer _Ptr = _Mypair._Myval2._Bx._Ptr;
; 4387 :             auto& _Al          = _Getal();
; 4388 :             _Destroy_in_place(_Mypair._Myval2._Bx._Ptr);
; 4389 :             _Al.deallocate(_Ptr, _Mypair._Myval2._Myres + 1);

  004d9	41		 inc	 ecx
; File C:\Program Files (x86)\Microsoft Visual Studio\2019\Community\VC\Tools\MSVC\14.28.29333\include\xmemory

; 810  :         _Deallocate<_New_alignof<_Ty>>(_Ptr, sizeof(_Ty) * _Count);

  004da	51		 push	 ecx
  004db	ff b5 78 ff ff
	ff		 push	 DWORD PTR _stFolder$[ebp]
  004e1	e8 00 00 00 00	 call	 ??$_Deallocate@$07$0A@@std@@YAXPAXI@Z ; std::_Deallocate<8,0>
  004e6	83 c4 08	 add	 esp, 8
$LN304@PackInitia:
; File D:\Metin2 Server Files\mainline\SRC_2014\Metin2Client\UserInterface\UserInterface.cpp

; 248  : 	NANOEND

  004e9	8a 85 1b fe ff
	ff		 mov	 al, BYTE PTR $T2[ebp]
$LN1@PackInitia:

; 249  : 	return true;
; 250  : }

  004ef	8b 4d f4	 mov	 ecx, DWORD PTR __$EHRec$[ebp]
  004f2	64 89 0d 00 00
	00 00		 mov	 DWORD PTR fs:0, ecx
  004f9	59		 pop	 ecx
  004fa	5f		 pop	 edi
  004fb	5e		 pop	 esi
  004fc	5b		 pop	 ebx
  004fd	8b 4d f0	 mov	 ecx, DWORD PTR __$ArrayPad$[ebp]
  00500	33 cd		 xor	 ecx, ebp
  00502	e8 00 00 00 00	 call	 @__security_check_cookie@4
  00507	8b e5		 mov	 esp, ebp
  00509	5d		 pop	 ebp
  0050a	c3		 ret	 0
_TEXT	ENDS
;	COMDAT text$x
text$x	SEGMENT
__unwindfunclet$?PackInitialize@@YA_NPBD@Z$0:
  00000	8d 8d 78 ff ff
	ff		 lea	 ecx, DWORD PTR _stFolder$[ebp]
  00006	e9 00 00 00 00	 jmp	 ??1?$basic_string@DU?$char_traits@D@std@@V?$allocator@D@2@@std@@QAE@XZ ; std::basic_string<char,std::char_traits<char>,std::allocator<char> >::~basic_string<char,std::char_traits<char>,std::allocator<char> >
__unwindfunclet$?PackInitialize@@YA_NPBD@Z$1:
  0000b	8d 4d a8	 lea	 ecx, DWORD PTR _stFileName$[ebp]
  0000e	e9 00 00 00 00	 jmp	 ??1?$basic_string@DU?$char_traits@D@std@@V?$allocator@D@2@@std@@QAE@XZ ; std::basic_string<char,std::char_traits<char>,std::allocator<char> >::~basic_string<char,std::char_traits<char>,std::allocator<char> >
__unwindfunclet$?PackInitialize@@YA_NPBD@Z$2:
  00013	8d 8d 1c fe ff
	ff		 lea	 ecx, DWORD PTR _file$[ebp]
  00019	e9 00 00 00 00	 jmp	 ??1CMappedFile@@UAE@XZ	; CMappedFile::~CMappedFile
__unwindfunclet$?PackInitialize@@YA_NPBD@Z$3:
  0001e	8d 8d 00 fe ff
	ff		 lea	 ecx, DWORD PTR _TextLoader$[ebp]
  00024	e9 00 00 00 00	 jmp	 ??1CMemoryTextFileLoader@@UAE@XZ ; CMemoryTextFileLoader::~CMemoryTextFileLoader
__unwindfunclet$?PackInitialize@@YA_NPBD@Z$4:
  00029	8d 4d d8	 lea	 ecx, DWORD PTR _strPackName$[ebp]
  0002c	e9 00 00 00 00	 jmp	 ??1?$basic_string@DU?$char_traits@D@std@@V?$allocator@D@2@@std@@QAE@XZ ; std::basic_string<char,std::char_traits<char>,std::allocator<char> >::~basic_string<char,std::char_traits<char>,std::allocator<char> >
__unwindfunclet$?PackInitialize@@YA_NPBD@Z$5:
  00031	8d 4d c0	 lea	 ecx, DWORD PTR _strTexCachePackName$[ebp]
  00034	e9 00 00 00 00	 jmp	 ??1?$basic_string@DU?$char_traits@D@std@@V?$allocator@D@2@@std@@QAE@XZ ; std::basic_string<char,std::char_traits<char>,std::allocator<char> >::~basic_string<char,std::char_traits<char>,std::allocator<char> >
__unwindfunclet$?PackInitialize@@YA_NPBD@Z$8:
  00039	8d 8d 60 ff ff
	ff		 lea	 ecx, DWORD PTR $T3[ebp]
  0003f	e9 00 00 00 00	 jmp	 ??1?$basic_string@DU?$char_traits@D@std@@V?$allocator@D@2@@std@@QAE@XZ ; std::basic_string<char,std::char_traits<char>,std::allocator<char> >::~basic_string<char,std::char_traits<char>,std::allocator<char> >
__unwindfunclet$?PackInitialize@@YA_NPBD@Z$9:
  00044	8d 4d 90	 lea	 ecx, DWORD PTR $T4[ebp]
  00047	e9 00 00 00 00	 jmp	 ??1?$basic_string@DU?$char_traits@D@std@@V?$allocator@D@2@@std@@QAE@XZ ; std::basic_string<char,std::char_traits<char>,std::allocator<char> >::~basic_string<char,std::char_traits<char>,std::allocator<char> >
  0004c	cc		 int	 3
  0004d	cc		 int	 3
  0004e	cc		 int	 3
  0004f	cc		 int	 3
  00050	cc		 int	 3
__ehhandler$?PackInitialize@@YA_NPBD@Z:
  00051	90		 npad	 1
  00052	90		 npad	 1
  00053	8b 54 24 08	 mov	 edx, DWORD PTR [esp+8]
  00057	8d 42 0c	 lea	 eax, DWORD PTR [edx+12]
  0005a	8b 8a fc fd ff
	ff		 mov	 ecx, DWORD PTR [edx-516]
  00060	33 c8		 xor	 ecx, eax
  00062	e8 00 00 00 00	 call	 @__security_check_cookie@4
  00067	8b 4a fc	 mov	 ecx, DWORD PTR [edx-4]
  0006a	33 c8		 xor	 ecx, eax
  0006c	e8 00 00 00 00	 call	 @__security_check_cookie@4
  00071	b8 00 00 00 00	 mov	 eax, OFFSET __ehfuncinfo$?PackInitialize@@YA_NPBD@Z
  00076	e9 00 00 00 00	 jmp	 ___CxxFrameHandler3
text$x	ENDS
?PackInitialize@@YA_NPBD@Z ENDP				; PackInitialize
; Function compile flags: /Ogtp
; File D:\Metin2 Server Files\mainline\SRC_2014\Metin2Client\UserInterface\UserInterface.cpp
;	COMDAT ?Setup@@YAHPAD@Z
_TEXT	SEGMENT
_tc$ = -8						; size = 8
_lpCmdLine$ = 8						; size = 4
?Setup@@YAHPAD@Z PROC					; Setup, COMDAT

; 712  : {

  00000	55		 push	 ebp
  00001	8b ec		 mov	 ebp, esp
  00003	83 ec 08	 sub	 esp, 8

; 713  : 	/* 
; 714  : 	 *	  .
; 715  : 	 */
; 716  : 	TIMECAPS tc; 
; 717  : 	UINT wTimerRes; 
; 718  : 
; 719  : 	if (timeGetDevCaps(&tc, sizeof(TIMECAPS)) != TIMERR_NOERROR) 

  00006	8d 45 f8	 lea	 eax, DWORD PTR _tc$[ebp]
  00009	6a 08		 push	 8
  0000b	50		 push	 eax
  0000c	ff 15 00 00 00
	00		 call	 DWORD PTR __imp__timeGetDevCaps@8
  00012	85 c0		 test	 eax, eax
  00014	74 06		 je	 SHORT $LN2@Setup

; 720  : 		return 0;

  00016	33 c0		 xor	 eax, eax

; 734  : }

  00018	8b e5		 mov	 esp, ebp
  0001a	5d		 pop	 ebp
  0001b	c3		 ret	 0
$LN2@Setup:

; 721  : 
; 722  : 	wTimerRes = MINMAX(tc.wPeriodMin, 1, tc.wPeriodMax); 

  0001c	ff 75 fc	 push	 DWORD PTR _tc$[ebp+4]
  0001f	6a 01		 push	 1
  00021	ff 75 f8	 push	 DWORD PTR _tc$[ebp]
  00024	e8 00 00 00 00	 call	 ?MINMAX@@YAHHHH@Z	; MINMAX
  00029	83 c4 0c	 add	 esp, 12			; 0000000cH

; 723  : 	timeBeginPeriod(wTimerRes); 

  0002c	50		 push	 eax
  0002d	ff 15 00 00 00
	00		 call	 DWORD PTR __imp__timeBeginPeriod@4

; 724  : 
; 725  : 	/*
; 726  : 	 *	  
; 727  : 	 */
; 728  : 
; 729  : 	/*granny_log_callback Callback;
; 730  :     Callback.Function = GrannyError;
; 731  :     Callback.UserData = 0;
; 732  :     GrannySetLogCallback(&Callback);*/
; 733  : 	return 1;

  00033	b8 01 00 00 00	 mov	 eax, 1

; 734  : }

  00038	8b e5		 mov	 esp, ebp
  0003a	5d		 pop	 ebp
  0003b	c3		 ret	 0
?Setup@@YAHPAD@Z ENDP					; Setup
_TEXT	ENDS
; Function compile flags: /Ogtp
; File D:\Metin2 Server Files\mainline\SRC_2014\Metin2Client\UserInterface\UserInterface.cpp
;	COMDAT ?ApplicationStringTable_Initialize@@YAXPAUHINSTANCE__@@@Z
_TEXT	SEGMENT
_hInstance$ = 8						; size = 4
?ApplicationStringTable_Initialize@@YAXPAUHINSTANCE__@@@Z PROC ; ApplicationStringTable_Initialize, COMDAT

; 116  : {

  00000	55		 push	 ebp
  00001	8b ec		 mov	 ebp, esp

; 117  : 	gs_kAppStrTable.m_hInstance=hInstance;

  00003	8b 45 08	 mov	 eax, DWORD PTR _hInstance$[ebp]
  00006	a3 00 00 00 00	 mov	 DWORD PTR ?gs_kAppStrTable@@3UApplicationStringTable@@A, eax

; 118  : }

  0000b	5d		 pop	 ebp
  0000c	c3		 ret	 0
?ApplicationStringTable_Initialize@@YAXPAUHINSTANCE__@@@Z ENDP ; ApplicationStringTable_Initialize
_TEXT	ENDS
; Function compile flags: /Ogtp
; File C:\Program Files (x86)\Microsoft Visual Studio\2019\Community\VC\Tools\MSVC\14.28.29333\include\xtree
; File C:\Program Files (x86)\Microsoft Visual Studio\2019\Community\VC\Tools\MSVC\14.28.29333\include\xmemory
;	COMDAT ??__Fgs_kAppStrTable@@YAXXZ
text$yd	SEGMENT
??__Fgs_kAppStrTable@@YAXXZ PROC			; `dynamic atexit destructor for 'gs_kAppStrTable'', COMDAT
; File C:\Program Files (x86)\Microsoft Visual Studio\2019\Community\VC\Tools\MSVC\14.28.29333\include\xtree

; 752  :         _Erase_tree(_Al, _Myhead->_Parent);

  00000	a1 04 00 00 00	 mov	 eax, DWORD PTR ?gs_kAppStrTable@@3UApplicationStringTable@@A+4
  00005	b9 04 00 00 00	 mov	 ecx, OFFSET ?gs_kAppStrTable@@3UApplicationStringTable@@A+4
  0000a	56		 push	 esi
  0000b	ff 70 04	 push	 DWORD PTR [eax+4]
  0000e	68 04 00 00 00	 push	 OFFSET ?gs_kAppStrTable@@3UApplicationStringTable@@A+4
  00013	e8 00 00 00 00	 call	 ??$_Erase_tree@V?$allocator@U?$_Tree_node@U?$pair@$$CBKV?$basic_string@DU?$char_traits@D@std@@V?$allocator@D@2@@std@@@std@@PAX@std@@@std@@@?$_Tree_val@U?$_Tree_simple_types@U?$pair@$$CBKV?$basic_string@DU?$char_traits@D@std@@V?$allocator@D@2@@std@@@std@@@std@@@std@@QAEXAAV?$allocator@U?$_Tree_node@U?$pair@$$CBKV?$basic_string@DU?$char_traits@D@std@@V?$allocator@D@2@@std@@@std@@PAX@std@@@1@PAU?$_Tree_node@U?$pair@$$CBKV?$basic_string@DU?$char_traits@D@std@@V?$allocator@D@2@@std@@@std@@PAX@1@@Z ; std::_Tree_val<std::_Tree_simple_types<std::pair<unsigned long const ,std::basic_string<char,std::char_traits<char>,std::allocator<char> > > > >::_Erase_tree<std::allocator<std::_Tree_node<std::pair<unsigned long const ,std::basic_string<char,std::char_traits<char>,std::allocator<char> > >,void *> > >

; 753  :         _Alnode::value_type::_Freenode0(_Al, _Myhead);

  00018	8b 35 04 00 00
	00		 mov	 esi, DWORD PTR ?gs_kAppStrTable@@3UApplicationStringTable@@A+4

; 370  :         _Destroy_in_place(_Ptr->_Left);

  0001e	56		 push	 esi
  0001f	e8 00 00 00 00	 call	 ??$_Destroy_in_place@PAU?$_Tree_node@U?$pair@$$CBKV?$basic_string@DU?$char_traits@D@std@@V?$allocator@D@2@@std@@@std@@PAX@std@@@std@@YAXAAPAU?$_Tree_node@U?$pair@$$CBKV?$basic_string@DU?$char_traits@D@std@@V?$allocator@D@2@@std@@@std@@PAX@0@@Z ; std::_Destroy_in_place<std::_Tree_node<std::pair<unsigned long const ,std::basic_string<char,std::char_traits<char>,std::allocator<char> > >,void *> *>

; 371  :         _Destroy_in_place(_Ptr->_Parent);

  00024	8d 46 04	 lea	 eax, DWORD PTR [esi+4]
  00027	50		 push	 eax
  00028	e8 00 00 00 00	 call	 ??$_Destroy_in_place@PAU?$_Tree_node@U?$pair@$$CBKV?$basic_string@DU?$char_traits@D@std@@V?$allocator@D@2@@std@@@std@@PAX@std@@@std@@YAXAAPAU?$_Tree_node@U?$pair@$$CBKV?$basic_string@DU?$char_traits@D@std@@V?$allocator@D@2@@std@@@std@@PAX@0@@Z ; std::_Destroy_in_place<std::_Tree_node<std::pair<unsigned long const ,std::basic_string<char,std::char_traits<char>,std::allocator<char> > >,void *> *>

; 372  :         _Destroy_in_place(_Ptr->_Right);

  0002d	8d 46 08	 lea	 eax, DWORD PTR [esi+8]
  00030	50		 push	 eax
  00031	e8 00 00 00 00	 call	 ??$_Destroy_in_place@PAU?$_Tree_node@U?$pair@$$CBKV?$basic_string@DU?$char_traits@D@std@@V?$allocator@D@2@@std@@@std@@PAX@std@@@std@@YAXAAPAU?$_Tree_node@U?$pair@$$CBKV?$basic_string@DU?$char_traits@D@std@@V?$allocator@D@2@@std@@@std@@PAX@0@@Z ; std::_Destroy_in_place<std::_Tree_node<std::pair<unsigned long const ,std::basic_string<char,std::char_traits<char>,std::allocator<char> > >,void *> *>
; File C:\Program Files (x86)\Microsoft Visual Studio\2019\Community\VC\Tools\MSVC\14.28.29333\include\xmemory

; 696  :         _Deallocate<_New_alignof<value_type>>(_Ptr, sizeof(value_type) * _Count);

  00036	6a 2c		 push	 44			; 0000002cH
  00038	56		 push	 esi
  00039	e8 00 00 00 00	 call	 ??$_Deallocate@$07$0A@@std@@YAXPAXI@Z ; std::_Deallocate<8,0>
  0003e	83 c4 14	 add	 esp, 20			; 00000014H
  00041	5e		 pop	 esi
  00042	c3		 ret	 0
??__Fgs_kAppStrTable@@YAXXZ ENDP			; `dynamic atexit destructor for 'gs_kAppStrTable''
text$yd	ENDS
; Function compile flags: /Ogtp
; File D:\Metin2 Server Files\mainline\SRC_2014\Metin2Client\UserInterface\UserInterface.cpp
; File C:\Program Files (x86)\Microsoft Visual Studio\2019\Community\VC\Tools\MSVC\14.28.29333\include\xmemory
; File C:\Program Files (x86)\Microsoft Visual Studio\2019\Community\VC\Tools\MSVC\14.28.29333\include\xtree
; File D:\Metin2 Server Files\mainline\SRC_2014\Metin2Client\UserInterface\UserInterface.cpp
; File C:\Program Files (x86)\Microsoft Visual Studio\2019\Community\VC\Tools\MSVC\14.28.29333\include\xtree
; File D:\Metin2 Server Files\mainline\SRC_2014\Metin2Client\UserInterface\UserInterface.cpp
;	COMDAT ??__Egs_kAppStrTable@@YAXXZ
text$di	SEGMENT
__Pnode$1 = -4						; size = 4
??__Egs_kAppStrTable@@YAXXZ PROC			; `dynamic initializer for 'gs_kAppStrTable'', COMDAT

; 113  : } gs_kAppStrTable;

  00000	55		 push	 ebp
  00001	8b ec		 mov	 ebp, esp
  00003	51		 push	 ecx
; File C:\Program Files (x86)\Microsoft Visual Studio\2019\Community\VC\Tools\MSVC\14.28.29333\include\xmemory

; 814  :         return static_cast<_Ty*>(_Allocate<_New_alignof<_Ty>>(_Get_size_of_n<sizeof(_Ty)>(_Count)));

  00004	6a 2c		 push	 44			; 0000002cH
  00006	e8 00 00 00 00	 call	 ??$_Allocate@$07U_Default_allocate_traits@std@@$0A@@std@@YAPAXI@Z ; std::_Allocate<8,std::_Default_allocate_traits,0>
; File C:\Program Files (x86)\Microsoft Visual Studio\2019\Community\VC\Tools\MSVC\14.28.29333\include\xtree

; 344  :         _Construct_in_place(_Pnode->_Left, _Pnode);

  0000b	8d 4d fc	 lea	 ecx, DWORD PTR __Pnode$1[ebp]
  0000e	89 45 fc	 mov	 DWORD PTR __Pnode$1[ebp], eax
  00011	51		 push	 ecx
  00012	50		 push	 eax
  00013	e8 00 00 00 00	 call	 ??$_Construct_in_place@PAU?$_Tree_node@U?$pair@$$CBKV?$basic_string@DU?$char_traits@D@std@@V?$allocator@D@2@@std@@@std@@PAX@std@@ABQAU12@@std@@YAXAAPAU?$_Tree_node@U?$pair@$$CBKV?$basic_string@DU?$char_traits@D@std@@V?$allocator@D@2@@std@@@std@@PAX@0@ABQAU10@@Z ; std::_Construct_in_place<std::_Tree_node<std::pair<unsigned long const ,std::basic_string<char,std::char_traits<char>,std::allocator<char> > >,void *> *,std::_Tree_node<std::pair<unsigned long const ,std::basic_string<char,std::char_traits<char>,std::allocator<char> > >,void *> * const &>

; 345  :         _Construct_in_place(_Pnode->_Parent, _Pnode);

  00018	8d 45 fc	 lea	 eax, DWORD PTR __Pnode$1[ebp]
  0001b	50		 push	 eax
  0001c	8b 45 fc	 mov	 eax, DWORD PTR __Pnode$1[ebp]
  0001f	83 c0 04	 add	 eax, 4
  00022	50		 push	 eax
  00023	e8 00 00 00 00	 call	 ??$_Construct_in_place@PAU?$_Tree_node@U?$pair@$$CBKV?$basic_string@DU?$char_traits@D@std@@V?$allocator@D@2@@std@@@std@@PAX@std@@ABQAU12@@std@@YAXAAPAU?$_Tree_node@U?$pair@$$CBKV?$basic_string@DU?$char_traits@D@std@@V?$allocator@D@2@@std@@@std@@PAX@0@ABQAU10@@Z ; std::_Construct_in_place<std::_Tree_node<std::pair<unsigned long const ,std::basic_string<char,std::char_traits<char>,std::allocator<char> > >,void *> *,std::_Tree_node<std::pair<unsigned long const ,std::basic_string<char,std::char_traits<char>,std::allocator<char> > >,void *> * const &>

; 346  :         _Construct_in_place(_Pnode->_Right, _Pnode);

  00028	8d 45 fc	 lea	 eax, DWORD PTR __Pnode$1[ebp]
  0002b	50		 push	 eax
  0002c	8b 45 fc	 mov	 eax, DWORD PTR __Pnode$1[ebp]
  0002f	83 c0 08	 add	 eax, 8
  00032	50		 push	 eax
  00033	e8 00 00 00 00	 call	 ??$_Construct_in_place@PAU?$_Tree_node@U?$pair@$$CBKV?$basic_string@DU?$char_traits@D@std@@V?$allocator@D@2@@std@@@std@@PAX@std@@ABQAU12@@std@@YAXAAPAU?$_Tree_node@U?$pair@$$CBKV?$basic_string@DU?$char_traits@D@std@@V?$allocator@D@2@@std@@@std@@PAX@0@ABQAU10@@Z ; std::_Construct_in_place<std::_Tree_node<std::pair<unsigned long const ,std::basic_string<char,std::char_traits<char>,std::allocator<char> > >,void *> *,std::_Tree_node<std::pair<unsigned long const ,std::basic_string<char,std::char_traits<char>,std::allocator<char> > >,void *> * const &>

; 347  :         _Pnode->_Color = _Black;

  00038	8b 45 fc	 mov	 eax, DWORD PTR __Pnode$1[ebp]
; File D:\Metin2 Server Files\mainline\SRC_2014\Metin2Client\UserInterface\UserInterface.cpp

; 113  : } gs_kAppStrTable;

  0003b	68 00 00 00 00	 push	 OFFSET ??__Fgs_kAppStrTable@@YAXXZ ; `dynamic atexit destructor for 'gs_kAppStrTable''
; File C:\Program Files (x86)\Microsoft Visual Studio\2019\Community\VC\Tools\MSVC\14.28.29333\include\xtree

; 347  :         _Pnode->_Color = _Black;

  00040	c6 40 0c 01	 mov	 BYTE PTR [eax+12], 1

; 348  :         _Pnode->_Isnil = true;

  00044	8b 45 fc	 mov	 eax, DWORD PTR __Pnode$1[ebp]
  00047	c6 40 0d 01	 mov	 BYTE PTR [eax+13], 1

; 2021 :         _Scary->_Myhead = _Node::_Buyheadnode(_Getal());

  0004b	8b 45 fc	 mov	 eax, DWORD PTR __Pnode$1[ebp]
  0004e	a3 04 00 00 00	 mov	 DWORD PTR ?gs_kAppStrTable@@3UApplicationStringTable@@A+4, eax
; File D:\Metin2 Server Files\mainline\SRC_2014\Metin2Client\UserInterface\UserInterface.cpp

; 113  : } gs_kAppStrTable;

  00053	e8 00 00 00 00	 call	 _atexit
  00058	83 c4 20	 add	 esp, 32			; 00000020H
  0005b	8b e5		 mov	 esp, ebp
  0005d	5d		 pop	 ebp
  0005e	c3		 ret	 0
??__Egs_kAppStrTable@@YAXXZ ENDP			; `dynamic initializer for 'gs_kAppStrTable''
text$di	ENDS
; Function compile flags: /Ogtp
; File D:\Metin2 Server Files\mainline\SRC_2014\Metin2Client\UserInterface\UserInterface.cpp
; File C:\Program Files (x86)\Microsoft Visual Studio\2019\Community\VC\Tools\MSVC\14.28.29333\include\xstring
; File D:\Metin2 Server Files\mainline\SRC_2014\Metin2Client\UserInterface\UserInterface.cpp
; File C:\Program Files (x86)\Microsoft Visual Studio\2019\Community\VC\Tools\MSVC\14.28.29333\include\xstring
; File D:\Metin2 Server Files\mainline\SRC_2014\Metin2Client\UserInterface\UserInterface.cpp
; File C:\Program Files (x86)\Microsoft Visual Studio\2019\Community\VC\Tools\MSVC\14.28.29333\include\xstring
; File D:\Metin2 Server Files\mainline\SRC_2014\Metin2Client\UserInterface\UserInterface.cpp
; File C:\Program Files (x86)\Microsoft Visual Studio\2019\Community\VC\Tools\MSVC\14.28.29333\include\xstring
; File D:\Metin2 Server Files\mainline\SRC_2014\Metin2Client\UserInterface\UserInterface.cpp
; File C:\Program Files (x86)\Microsoft Visual Studio\2019\Community\VC\Tools\MSVC\14.28.29333\include\xstring
; File D:\Metin2 Server Files\mainline\SRC_2014\Metin2Client\UserInterface\UserInterface.cpp
; File C:\Program Files (x86)\Microsoft Visual Studio\2019\Community\VC\Tools\MSVC\14.28.29333\include\xstring
; File C:\Program Files (x86)\Microsoft Visual Studio\2019\Community\VC\Tools\MSVC\14.28.29333\include\xmemory
; File D:\Metin2 Server Files\mainline\SRC_2014\Metin2Client\UserInterface\UserInterface.cpp
; File C:\Program Files (x86)\Microsoft Visual Studio\2019\Community\VC\Tools\MSVC\14.28.29333\include\xstring
; File C:\Program Files (x86)\Microsoft Visual Studio\2019\Community\VC\Tools\MSVC\14.28.29333\include\xmemory
; File D:\Metin2 Server Files\mainline\SRC_2014\Metin2Client\UserInterface\UserInterface.cpp
;	COMDAT ?CheckPythonLibraryFilenames@@YA_NXZ
_TEXT	SEGMENT
_stFilename$2 = -40					; size = 24
__$ArrayPad$ = -16					; size = 4
__$EHRec$ = -12						; size = 12
?CheckPythonLibraryFilenames@@YA_NXZ PROC		; CheckPythonLibraryFilenames, COMDAT

; 92   : {

  00000	55		 push	 ebp
  00001	8b ec		 mov	 ebp, esp
  00003	6a ff		 push	 -1
  00005	68 00 00 00 00	 push	 __ehhandler$?CheckPythonLibraryFilenames@@YA_NXZ
  0000a	64 a1 00 00 00
	00		 mov	 eax, DWORD PTR fs:0
  00010	50		 push	 eax
  00011	83 ec 1c	 sub	 esp, 28			; 0000001cH
  00014	a1 00 00 00 00	 mov	 eax, DWORD PTR ___security_cookie
  00019	33 c5		 xor	 eax, ebp
  0001b	89 45 f0	 mov	 DWORD PTR __$ArrayPad$[ebp], eax
  0001e	53		 push	 ebx
  0001f	56		 push	 esi
  00020	57		 push	 edi
  00021	50		 push	 eax
  00022	8d 45 f4	 lea	 eax, DWORD PTR __$EHRec$[ebp]
  00025	64 a3 00 00 00
	00		 mov	 DWORD PTR fs:0, eax

; 93   : 	for (int i = 0; *sc_apszPythonLibraryFilenames[i] != '\n'; ++i)

  0002b	8b 15 00 00 00
	00		 mov	 edx, DWORD PTR ?sc_apszPythonLibraryFilenames@@3PAPBDA
  00031	33 ff		 xor	 edi, edi
  00033	80 3a 0a	 cmp	 BYTE PTR [edx], 10	; 0000000aH
  00036	0f 84 9b 00 00
	00		 je	 $LN3@CheckPytho
  0003c	8b 1d 00 00 00
	00		 mov	 ebx, DWORD PTR __imp__MoveFileA@8
$LL4@CheckPytho:
; File C:\Program Files (x86)\Microsoft Visual Studio\2019\Community\VC\Tools\MSVC\14.28.29333\include\xstring

; 4378 :         _Mypair._Myval2._Myres  = _BUF_SIZE - 1;

  00042	c7 45 ec 0f 00
	00 00		 mov	 DWORD PTR _stFilename$2[ebp+20], 15 ; 0000000fH

; 3046 :             _Mypair._Myval2._Mysize = _Count;

  00049	c7 45 e8 04 00
	00 00		 mov	 DWORD PTR _stFilename$2[ebp+16], 4

; 119  :         _CSTD memmove(_First1, _First2, _Count * sizeof(_Elem));

  00050	c7 45 d8 6c 69
	62 5c		 mov	 DWORD PTR _stFilename$2[ebp], 1549953388 ; 5c62696cH

; 3048 :             _Traits::assign(_Old_ptr[_Count], _Elem());

  00057	c6 45 dc 00	 mov	 BYTE PTR _stFilename$2[ebp+4], 0

; 389  :         return _CSTD strlen(reinterpret_cast<const char*>(_First));

  0005b	8b c2		 mov	 eax, edx
; File D:\Metin2 Server Files\mainline\SRC_2014\Metin2Client\UserInterface\UserInterface.cpp

; 95   : 		std::string stFilename = "lib\\";

  0005d	c7 45 fc 00 00
	00 00		 mov	 DWORD PTR __$EHRec$[ebp+8], 0
; File C:\Program Files (x86)\Microsoft Visual Studio\2019\Community\VC\Tools\MSVC\14.28.29333\include\xstring

; 389  :         return _CSTD strlen(reinterpret_cast<const char*>(_First));

  00064	8d 70 01	 lea	 esi, DWORD PTR [eax+1]
$LL110@CheckPytho:
  00067	8a 08		 mov	 cl, BYTE PTR [eax]
  00069	40		 inc	 eax
  0006a	84 c9		 test	 cl, cl
  0006c	75 f9		 jne	 SHORT $LL110@CheckPytho
  0006e	2b c6		 sub	 eax, esi

; 2958 :         return append(_Ptr, _Convert_size<size_type>(_Traits::length(_Ptr)));

  00070	8d 4d d8	 lea	 ecx, DWORD PTR _stFilename$2[ebp]
  00073	50		 push	 eax
  00074	52		 push	 edx
  00075	e8 00 00 00 00	 call	 ?append@?$basic_string@DU?$char_traits@D@std@@V?$allocator@D@2@@std@@QAEAAV12@QBDI@Z ; std::basic_string<char,std::char_traits<char>,std::allocator<char> >::append

; 2219 :         if (_Large_string_engaged()) {

  0007a	83 7d ec 10	 cmp	 DWORD PTR _stFilename$2[ebp+20], 16 ; 00000010H
  0007e	8d 45 d8	 lea	 eax, DWORD PTR _stFilename$2[ebp]
; File D:\Metin2 Server Files\mainline\SRC_2014\Metin2Client\UserInterface\UserInterface.cpp

; 98   : 		if (_access(stFilename.c_str(), 0) != 0)

  00081	6a 00		 push	 0
; File C:\Program Files (x86)\Microsoft Visual Studio\2019\Community\VC\Tools\MSVC\14.28.29333\include\xstring

; 2219 :         if (_Large_string_engaged()) {

  00083	0f 43 45 d8	 cmovae	 eax, DWORD PTR _stFilename$2[ebp]
; File D:\Metin2 Server Files\mainline\SRC_2014\Metin2Client\UserInterface\UserInterface.cpp

; 98   : 		if (_access(stFilename.c_str(), 0) != 0)

  00087	50		 push	 eax
  00088	e8 00 00 00 00	 call	 __access
  0008d	83 c4 08	 add	 esp, 8
  00090	85 c0		 test	 eax, eax
  00092	75 61		 jne	 SHORT $LN106@CheckPytho
; File C:\Program Files (x86)\Microsoft Visual Studio\2019\Community\VC\Tools\MSVC\14.28.29333\include\xstring

; 2219 :         if (_Large_string_engaged()) {

  00094	83 7d ec 10	 cmp	 DWORD PTR _stFilename$2[ebp+20], 16 ; 00000010H
  00098	8d 75 d8	 lea	 esi, DWORD PTR _stFilename$2[ebp]

; 2218 :         const value_type* _Result = _Bx._Buf;

  0009b	8d 4d d8	 lea	 ecx, DWORD PTR _stFilename$2[ebp]

; 2219 :         if (_Large_string_engaged()) {

  0009e	0f 43 75 d8	 cmovae	 esi, DWORD PTR _stFilename$2[ebp]
  000a2	0f 43 4d d8	 cmovae	 ecx, DWORD PTR _stFilename$2[ebp]
; File D:\Metin2 Server Files\mainline\SRC_2014\Metin2Client\UserInterface\UserInterface.cpp

; 103  : 		MoveFile(stFilename.c_str(), stFilename.c_str());

  000a6	56		 push	 esi
  000a7	51		 push	 ecx
  000a8	ff d3		 call	 ebx
; File C:\Program Files (x86)\Microsoft Visual Studio\2019\Community\VC\Tools\MSVC\14.28.29333\include\xstring

; 2227 :         return _BUF_SIZE <= _Myres;

  000aa	8b 45 ec	 mov	 eax, DWORD PTR _stFilename$2[ebp+20]
; File D:\Metin2 Server Files\mainline\SRC_2014\Metin2Client\UserInterface\UserInterface.cpp

; 104  : 	}

  000ad	c7 45 fc ff ff
	ff ff		 mov	 DWORD PTR __$EHRec$[ebp+8], -1
; File C:\Program Files (x86)\Microsoft Visual Studio\2019\Community\VC\Tools\MSVC\14.28.29333\include\xstring

; 2227 :         return _BUF_SIZE <= _Myres;

  000b4	83 f8 10	 cmp	 eax, 16			; 00000010H

; 4385 :         if (_Mypair._Myval2._Large_string_engaged()) {

  000b7	72 0d		 jb	 SHORT $LN98@CheckPytho

; 4386 :             const pointer _Ptr = _Mypair._Myval2._Bx._Ptr;
; 4387 :             auto& _Al          = _Getal();
; 4388 :             _Destroy_in_place(_Mypair._Myval2._Bx._Ptr);
; 4389 :             _Al.deallocate(_Ptr, _Mypair._Myval2._Myres + 1);

  000b9	40		 inc	 eax
; File C:\Program Files (x86)\Microsoft Visual Studio\2019\Community\VC\Tools\MSVC\14.28.29333\include\xmemory

; 810  :         _Deallocate<_New_alignof<_Ty>>(_Ptr, sizeof(_Ty) * _Count);

  000ba	50		 push	 eax
  000bb	ff 75 d8	 push	 DWORD PTR _stFilename$2[ebp]
  000be	e8 00 00 00 00	 call	 ??$_Deallocate@$07$0A@@std@@YAXPAXI@Z ; std::_Deallocate<8,0>
  000c3	83 c4 08	 add	 esp, 8
$LN98@CheckPytho:
; File D:\Metin2 Server Files\mainline\SRC_2014\Metin2Client\UserInterface\UserInterface.cpp

; 93   : 	for (int i = 0; *sc_apszPythonLibraryFilenames[i] != '\n'; ++i)

  000c6	8b 14 bd 04 00
	00 00		 mov	 edx, DWORD PTR ?sc_apszPythonLibraryFilenames@@3PAPBDA[edi*4+4]
  000cd	47		 inc	 edi
  000ce	80 3a 0a	 cmp	 BYTE PTR [edx], 10	; 0000000aH
  000d1	0f 85 6b ff ff
	ff		 jne	 $LL4@CheckPytho
$LN3@CheckPytho:

; 105  : 
; 106  : 	return true;

  000d7	b0 01		 mov	 al, 1
$LN1@CheckPytho:

; 107  : }

  000d9	8b 4d f4	 mov	 ecx, DWORD PTR __$EHRec$[ebp]
  000dc	64 89 0d 00 00
	00 00		 mov	 DWORD PTR fs:0, ecx
  000e3	59		 pop	 ecx
  000e4	5f		 pop	 edi
  000e5	5e		 pop	 esi
  000e6	5b		 pop	 ebx
  000e7	8b 4d f0	 mov	 ecx, DWORD PTR __$ArrayPad$[ebp]
  000ea	33 cd		 xor	 ecx, ebp
  000ec	e8 00 00 00 00	 call	 @__security_check_cookie@4
  000f1	8b e5		 mov	 esp, ebp
  000f3	5d		 pop	 ebp
  000f4	c3		 ret	 0
$LN106@CheckPytho:
; File C:\Program Files (x86)\Microsoft Visual Studio\2019\Community\VC\Tools\MSVC\14.28.29333\include\xstring

; 2227 :         return _BUF_SIZE <= _Myres;

  000f5	8b 45 ec	 mov	 eax, DWORD PTR _stFilename$2[ebp+20]
  000f8	83 f8 10	 cmp	 eax, 16			; 00000010H

; 4385 :         if (_Mypair._Myval2._Large_string_engaged()) {

  000fb	72 0d		 jb	 SHORT $LN74@CheckPytho

; 4386 :             const pointer _Ptr = _Mypair._Myval2._Bx._Ptr;
; 4387 :             auto& _Al          = _Getal();
; 4388 :             _Destroy_in_place(_Mypair._Myval2._Bx._Ptr);
; 4389 :             _Al.deallocate(_Ptr, _Mypair._Myval2._Myres + 1);

  000fd	40		 inc	 eax
; File C:\Program Files (x86)\Microsoft Visual Studio\2019\Community\VC\Tools\MSVC\14.28.29333\include\xmemory

; 810  :         _Deallocate<_New_alignof<_Ty>>(_Ptr, sizeof(_Ty) * _Count);

  000fe	50		 push	 eax
  000ff	ff 75 d8	 push	 DWORD PTR _stFilename$2[ebp]
  00102	e8 00 00 00 00	 call	 ??$_Deallocate@$07$0A@@std@@YAXPAXI@Z ; std::_Deallocate<8,0>
  00107	83 c4 08	 add	 esp, 8
$LN74@CheckPytho:
; File D:\Metin2 Server Files\mainline\SRC_2014\Metin2Client\UserInterface\UserInterface.cpp

; 100  : 			return false;

  0010a	32 c0		 xor	 al, al
  0010c	eb cb		 jmp	 SHORT $LN1@CheckPytho
_TEXT	ENDS
;	COMDAT text$x
text$x	SEGMENT
__unwindfunclet$?CheckPythonLibraryFilenames@@YA_NXZ$0:
  00000	8d 4d d8	 lea	 ecx, DWORD PTR _stFilename$2[ebp]
  00003	e9 00 00 00 00	 jmp	 ??1?$basic_string@DU?$char_traits@D@std@@V?$allocator@D@2@@std@@QAE@XZ ; std::basic_string<char,std::char_traits<char>,std::allocator<char> >::~basic_string<char,std::char_traits<char>,std::allocator<char> >
  00008	cc		 int	 3
  00009	cc		 int	 3
  0000a	cc		 int	 3
  0000b	cc		 int	 3
  0000c	cc		 int	 3
__ehhandler$?CheckPythonLibraryFilenames@@YA_NXZ:
  0000d	90		 npad	 1
  0000e	90		 npad	 1
  0000f	8b 54 24 08	 mov	 edx, DWORD PTR [esp+8]
  00013	8d 42 0c	 lea	 eax, DWORD PTR [edx+12]
  00016	8b 4a d4	 mov	 ecx, DWORD PTR [edx-44]
  00019	33 c8		 xor	 ecx, eax
  0001b	e8 00 00 00 00	 call	 @__security_check_cookie@4
  00020	8b 4a fc	 mov	 ecx, DWORD PTR [edx-4]
  00023	33 c8		 xor	 ecx, eax
  00025	e8 00 00 00 00	 call	 @__security_check_cookie@4
  0002a	b8 00 00 00 00	 mov	 eax, OFFSET __ehfuncinfo$?CheckPythonLibraryFilenames@@YA_NXZ
  0002f	e9 00 00 00 00	 jmp	 ___CxxFrameHandler3
text$x	ENDS
?CheckPythonLibraryFilenames@@YA_NXZ ENDP		; CheckPythonLibraryFilenames
; Function compile flags: /Ogtp
; File D:\Metin2 Server Files\mainline\SRC_2014\Metin2Client\UserInterface\UserInterface.cpp
;	COMDAT ??__E_AVOID_FLOATING_POINT_LIBRARY_BUG@@YAXXZ
text$di	SEGMENT
??__E_AVOID_FLOATING_POINT_LIBRARY_BUG@@YAXXZ PROC	; `dynamic initializer for '_AVOID_FLOATING_POINT_LIBRARY_BUG'', COMDAT

; 25   : volatile int _AVOID_FLOATING_POINT_LIBRARY_BUG = _fltused;  

  00000	a1 00 00 00 00	 mov	 eax, DWORD PTR __fltused
  00005	a3 00 00 00 00	 mov	 DWORD PTR __AVOID_FLOATING_POINT_LIBRARY_BUG, eax
  0000a	c3		 ret	 0
??__E_AVOID_FLOATING_POINT_LIBRARY_BUG@@YAXXZ ENDP	; `dynamic initializer for '_AVOID_FLOATING_POINT_LIBRARY_BUG''
text$di	ENDS
; Function compile flags: /Ogtp
; File D:\Metin2 Server Files\mainline\SRC_2014\Metin2Client\UserInterface\Version.h
;	COMDAT ?METIN2_GET_VERSION@@YAHXZ
_TEXT	SEGMENT
?METIN2_GET_VERSION@@YAHXZ PROC				; METIN2_GET_VERSION, COMDAT

; 3    : int METIN2_GET_VERSION() { return 28249; }

  00000	b8 59 6e 00 00	 mov	 eax, 28249		; 00006e59H
  00005	c3		 ret	 0
?METIN2_GET_VERSION@@YAHXZ ENDP				; METIN2_GET_VERSION
_TEXT	ENDS
; Function compile flags: /Ogtp
; File C:\Program Files (x86)\Microsoft Visual Studio\2019\Community\VC\Tools\MSVC\14.28.29333\include\xstring
;	COMDAT ??$?HDU?$char_traits@D@std@@V?$allocator@D@1@@std@@YA?AV?$basic_string@DU?$char_traits@D@std@@V?$allocator@D@2@@0@ABV10@0@Z
_TEXT	SEGMENT
___$ReturnUdt$ = 8					; size = 4
$T1 = 12						; size = 1
__Left$ = 12						; size = 4
__Right$ = 16						; size = 4
??$?HDU?$char_traits@D@std@@V?$allocator@D@1@@std@@YA?AV?$basic_string@DU?$char_traits@D@std@@V?$allocator@D@2@@0@ABV10@0@Z PROC ; std::operator+<char,std::char_traits<char>,std::allocator<char> >, COMDAT

; 4444 :     const basic_string<_Elem, _Traits, _Alloc>& _Left, const basic_string<_Elem, _Traits, _Alloc>& _Right) {

  00000	55		 push	 ebp
  00001	8b ec		 mov	 ebp, esp

; 4445 :     const auto _Left_size  = _Left.size();

  00003	8b 4d 0c	 mov	 ecx, DWORD PTR __Left$[ebp]

; 4446 :     const auto _Right_size = _Right.size();
; 4447 :     if (_Left.max_size() - _Left_size < _Right_size) {

  00006	b8 ff ff ff 7f	 mov	 eax, 2147483647		; 7fffffffH
  0000b	8b 55 10	 mov	 edx, DWORD PTR __Right$[ebp]
  0000e	56		 push	 esi
  0000f	57		 push	 edi
  00010	8b 71 10	 mov	 esi, DWORD PTR [ecx+16]
  00013	2b c6		 sub	 eax, esi
  00015	8b 7a 10	 mov	 edi, DWORD PTR [edx+16]
  00018	3b c7		 cmp	 eax, edi
  0001a	72 29		 jb	 SHORT $LN22@operator

; 2227 :         return _BUF_SIZE <= _Myres;

  0001c	83 79 14 10	 cmp	 DWORD PTR [ecx+20], 16	; 00000010H

; 2218 :         const value_type* _Result = _Bx._Buf;

  00020	8b c1		 mov	 eax, ecx

; 2219 :         if (_Large_string_engaged()) {

  00022	72 02		 jb	 SHORT $LN9@operator

; 2220 :             _Result = _Unfancy(_Bx._Ptr);

  00024	8b 01		 mov	 eax, DWORD PTR [ecx]
$LN9@operator:

; 2227 :         return _BUF_SIZE <= _Myres;

  00026	83 7a 14 10	 cmp	 DWORD PTR [edx+20], 16	; 00000010H

; 2219 :         if (_Large_string_engaged()) {

  0002a	72 02		 jb	 SHORT $LN16@operator

; 2220 :             _Result = _Unfancy(_Bx._Ptr);

  0002c	8b 12		 mov	 edx, DWORD PTR [edx]
$LN16@operator:

; 4449 :     }
; 4450 : 
; 4451 :     return {_String_constructor_concat_tag{}, _Left, _Left.c_str(), _Left_size, _Right.c_str(), _Right_size};

  0002e	57		 push	 edi
  0002f	52		 push	 edx
  00030	56		 push	 esi
  00031	50		 push	 eax
  00032	51		 push	 ecx
  00033	ff 75 0c	 push	 DWORD PTR $T1[ebp]
  00036	8b 4d 08	 mov	 ecx, DWORD PTR ___$ReturnUdt$[ebp]
  00039	e8 00 00 00 00	 call	 ??0?$basic_string@DU?$char_traits@D@std@@V?$allocator@D@2@@std@@QAE@U_String_constructor_concat_tag@1@ABV01@QBDI2I@Z ; std::basic_string<char,std::char_traits<char>,std::allocator<char> >::basic_string<char,std::char_traits<char>,std::allocator<char> >
  0003e	8b 45 08	 mov	 eax, DWORD PTR ___$ReturnUdt$[ebp]
  00041	5f		 pop	 edi
  00042	5e		 pop	 esi

; 4452 : }

  00043	5d		 pop	 ebp
  00044	c3		 ret	 0
$LN22@operator:

; 4448 :         _Xlen_string();

  00045	e8 00 00 00 00	 call	 ?_Xlen_string@std@@YAXXZ ; std::_Xlen_string
$LN20@operator:
  0004a	cc		 int	 3
??$?HDU?$char_traits@D@std@@V?$allocator@D@1@@std@@YA?AV?$basic_string@DU?$char_traits@D@std@@V?$allocator@D@2@@0@ABV10@0@Z ENDP ; std::operator+<char,std::char_traits<char>,std::allocator<char> >
_TEXT	ENDS
; Function compile flags: /Ogtp
; File C:\Program Files (x86)\Microsoft Visual Studio\2019\Community\VC\Tools\MSVC\14.28.29333\include\xstring
;	COMDAT ??$?HDU?$char_traits@D@std@@V?$allocator@D@1@@std@@YA?AV?$basic_string@DU?$char_traits@D@std@@V?$allocator@D@2@@0@ABV10@$$QAV10@@Z
_TEXT	SEGMENT
___$ReturnUdt$ = 8					; size = 4
__Left$ = 12						; size = 4
__Right$ = 16						; size = 4
??$?HDU?$char_traits@D@std@@V?$allocator@D@1@@std@@YA?AV?$basic_string@DU?$char_traits@D@std@@V?$allocator@D@2@@0@ABV10@$$QAV10@@Z PROC ; std::operator+<char,std::char_traits<char>,std::allocator<char> >, COMDAT

; 4504 :     const basic_string<_Elem, _Traits, _Alloc>& _Left, basic_string<_Elem, _Traits, _Alloc>&& _Right) {

  00000	55		 push	 ebp
  00001	8b ec		 mov	 ebp, esp

; 2218 :         const value_type* _Result = _Bx._Buf;

  00003	8b 45 0c	 mov	 eax, DWORD PTR __Left$[ebp]
  00006	8b c8		 mov	 ecx, eax

; 2227 :         return _BUF_SIZE <= _Myres;

  00008	83 78 14 10	 cmp	 DWORD PTR [eax+20], 16	; 00000010H

; 2219 :         if (_Large_string_engaged()) {

  0000c	72 02		 jb	 SHORT $LN8@operator

; 2220 :             _Result = _Unfancy(_Bx._Ptr);

  0000e	8b 08		 mov	 ecx, DWORD PTR [eax]
$LN8@operator:

; 3129 :         return insert(_Off, _Right._Mypair._Myval2._Myptr(), _Right._Mypair._Myval2._Mysize);

  00010	ff 70 10	 push	 DWORD PTR [eax+16]
  00013	51		 push	 ecx
  00014	8b 4d 10	 mov	 ecx, DWORD PTR __Right$[ebp]
  00017	6a 00		 push	 0
  00019	e8 00 00 00 00	 call	 ?insert@?$basic_string@DU?$char_traits@D@std@@V?$allocator@D@2@@std@@QAEAAV12@IQBDI@Z ; std::basic_string<char,std::char_traits<char>,std::allocator<char> >::insert

; 2198 :     _String_val() noexcept : _Bx(), _Mysize(0), _Myres(0) {}

  0001e	8b 4d 08	 mov	 ecx, DWORD PTR ___$ReturnUdt$[ebp]
  00021	c7 41 10 00 00
	00 00		 mov	 DWORD PTR [ecx+16], 0
  00028	c7 41 14 00 00
	00 00		 mov	 DWORD PTR [ecx+20], 0

; 2684 :         _CSTD memcpy(_My_data_mem, _Right_data_mem, _Memcpy_val_size);

  0002f	0f 10 00	 movups	 xmm0, XMMWORD PTR [eax]
  00032	0f 11 01	 movups	 XMMWORD PTR [ecx], xmm0
  00035	f3 0f 7e 40 10	 movq	 xmm0, QWORD PTR [eax+16]
  0003a	66 0f d6 41 10	 movq	 QWORD PTR [ecx+16], xmm0

; 4377 :         _Mypair._Myval2._Mysize = 0;

  0003f	c7 40 10 00 00
	00 00		 mov	 DWORD PTR [eax+16], 0

; 4378 :         _Mypair._Myval2._Myres  = _BUF_SIZE - 1;

  00046	c7 40 14 0f 00
	00 00		 mov	 DWORD PTR [eax+20], 15	; 0000000fH

; 4379 :         // the _Traits::assign is last so the codegen doesn't think the char write can alias this
; 4380 :         _Traits::assign(_Mypair._Myval2._Bx._Buf[0], _Elem());

  0004d	c6 00 00	 mov	 BYTE PTR [eax], 0

; 4505 :     return _STD move(_Right.insert(0, _Left));

  00050	8b c1		 mov	 eax, ecx

; 4506 : }

  00052	5d		 pop	 ebp
  00053	c3		 ret	 0
??$?HDU?$char_traits@D@std@@V?$allocator@D@1@@std@@YA?AV?$basic_string@DU?$char_traits@D@std@@V?$allocator@D@2@@0@ABV10@$$QAV10@@Z ENDP ; std::operator+<char,std::char_traits<char>,std::allocator<char> >
_TEXT	ENDS
; Function compile flags: /Ogtp
; File C:\Program Files (x86)\Microsoft Visual Studio\2019\Community\VC\Tools\MSVC\14.28.29333\include\xstring
;	COMDAT ??$?HDU?$char_traits@D@std@@V?$allocator@D@1@@std@@YA?AV?$basic_string@DU?$char_traits@D@std@@V?$allocator@D@2@@0@ABV10@QBD@Z
_TEXT	SEGMENT
___$ReturnUdt$ = 8					; size = 4
$T1 = 12						; size = 1
__Left$ = 12						; size = 4
__Right$ = 16						; size = 4
??$?HDU?$char_traits@D@std@@V?$allocator@D@1@@std@@YA?AV?$basic_string@DU?$char_traits@D@std@@V?$allocator@D@2@@0@ABV10@QBD@Z PROC ; std::operator+<char,std::char_traits<char>,std::allocator<char> >, COMDAT

; 4480 :     const basic_string<_Elem, _Traits, _Alloc>& _Left, _In_z_ const _Elem* const _Right) {

  00000	55		 push	 ebp
  00001	8b ec		 mov	 ebp, esp

; 4481 :     using _Size_type       = typename basic_string<_Elem, _Traits, _Alloc>::size_type;
; 4482 :     const auto _Left_size  = _Left.size();

  00003	8b 55 0c	 mov	 edx, DWORD PTR __Left$[ebp]

; 389  :         return _CSTD strlen(reinterpret_cast<const char*>(_First));

  00006	8b 4d 10	 mov	 ecx, DWORD PTR __Right$[ebp]

; 4480 :     const basic_string<_Elem, _Traits, _Alloc>& _Left, _In_z_ const _Elem* const _Right) {

  00009	53		 push	 ebx
  0000a	56		 push	 esi

; 4481 :     using _Size_type       = typename basic_string<_Elem, _Traits, _Alloc>::size_type;
; 4482 :     const auto _Left_size  = _Left.size();

  0000b	8b 72 10	 mov	 esi, DWORD PTR [edx+16]

; 389  :         return _CSTD strlen(reinterpret_cast<const char*>(_First));

  0000e	8d 59 01	 lea	 ebx, DWORD PTR [ecx+1]
$LL15@operator:
  00011	8a 01		 mov	 al, BYTE PTR [ecx]
  00013	41		 inc	 ecx
  00014	84 c0		 test	 al, al
  00016	75 f9		 jne	 SHORT $LL15@operator

; 4483 :     const auto _Right_size = _Convert_size<_Size_type>(_Traits::length(_Right));
; 4484 :     if (_Left.max_size() - _Left_size < _Right_size) {

  00018	b8 ff ff ff 7f	 mov	 eax, 2147483647		; 7fffffffH

; 389  :         return _CSTD strlen(reinterpret_cast<const char*>(_First));

  0001d	2b cb		 sub	 ecx, ebx

; 4483 :     const auto _Right_size = _Convert_size<_Size_type>(_Traits::length(_Right));
; 4484 :     if (_Left.max_size() - _Left_size < _Right_size) {

  0001f	2b c6		 sub	 eax, esi
  00021	3b c1		 cmp	 eax, ecx
  00023	72 23		 jb	 SHORT $LN18@operator

; 2227 :         return _BUF_SIZE <= _Myres;

  00025	83 7a 14 10	 cmp	 DWORD PTR [edx+20], 16	; 00000010H

; 2218 :         const value_type* _Result = _Bx._Buf;

  00029	8b c2		 mov	 eax, edx

; 2219 :         if (_Large_string_engaged()) {

  0002b	72 02		 jb	 SHORT $LN11@operator

; 2220 :             _Result = _Unfancy(_Bx._Ptr);

  0002d	8b 02		 mov	 eax, DWORD PTR [edx]
$LN11@operator:

; 4486 :     }
; 4487 : 
; 4488 :     return {_String_constructor_concat_tag{}, _Left, _Left.c_str(), _Left_size, _Right, _Right_size};

  0002f	51		 push	 ecx
  00030	ff 75 10	 push	 DWORD PTR __Right$[ebp]
  00033	8b 4d 08	 mov	 ecx, DWORD PTR ___$ReturnUdt$[ebp]
  00036	56		 push	 esi
  00037	50		 push	 eax
  00038	52		 push	 edx
  00039	ff 75 0c	 push	 DWORD PTR $T1[ebp]
  0003c	e8 00 00 00 00	 call	 ??0?$basic_string@DU?$char_traits@D@std@@V?$allocator@D@2@@std@@QAE@U_String_constructor_concat_tag@1@ABV01@QBDI2I@Z ; std::basic_string<char,std::char_traits<char>,std::allocator<char> >::basic_string<char,std::char_traits<char>,std::allocator<char> >
  00041	8b 45 08	 mov	 eax, DWORD PTR ___$ReturnUdt$[ebp]
  00044	5e		 pop	 esi
  00045	5b		 pop	 ebx

; 4489 : }

  00046	5d		 pop	 ebp
  00047	c3		 ret	 0
$LN18@operator:

; 4485 :         _Xlen_string();

  00048	e8 00 00 00 00	 call	 ?_Xlen_string@std@@YAXXZ ; std::_Xlen_string
$LN16@operator:
  0004d	cc		 int	 3
??$?HDU?$char_traits@D@std@@V?$allocator@D@1@@std@@YA?AV?$basic_string@DU?$char_traits@D@std@@V?$allocator@D@2@@0@ABV10@QBD@Z ENDP ; std::operator+<char,std::char_traits<char>,std::allocator<char> >
_TEXT	ENDS
; Function compile flags: /Ogtp
; File C:\Program Files (x86)\Microsoft Visual Studio\2019\Community\VC\Tools\MSVC\14.28.29333\include\xmemory
;	COMDAT ??$_Allocate_manually_vector_aligned@U_Default_allocate_traits@std@@@std@@YAPAXI@Z
_TEXT	SEGMENT
__Bytes$ = 8						; size = 4
??$_Allocate_manually_vector_aligned@U_Default_allocate_traits@std@@@std@@YAPAXI@Z PROC ; std::_Allocate_manually_vector_aligned<std::_Default_allocate_traits>, COMDAT

; 113  : __declspec(allocator) void* _Allocate_manually_vector_aligned(const size_t _Bytes) {

  00000	55		 push	 ebp
  00001	8b ec		 mov	 ebp, esp

; 114  :     // allocate _Bytes manually aligned to at least _Big_allocation_alignment
; 115  :     const size_t _Block_size = _Non_user_size + _Bytes;

  00003	8b 45 08	 mov	 eax, DWORD PTR __Bytes$[ebp]
  00006	8d 48 23	 lea	 ecx, DWORD PTR [eax+35]

; 116  :     if (_Block_size <= _Bytes) {

  00009	3b c8		 cmp	 ecx, eax
  0000b	0f 86 00 00 00
	00		 jbe	 ?_Throw_bad_array_new_length@std@@YAXXZ ; std::_Throw_bad_array_new_length

; 77   :         return ::operator new(_Bytes);

  00011	51		 push	 ecx
  00012	e8 00 00 00 00	 call	 ??2@YAPAXI@Z		; operator new

; 117  :         _Throw_bad_array_new_length(); // add overflow
; 118  :     }
; 119  : 
; 120  :     const uintptr_t _Ptr_container = reinterpret_cast<uintptr_t>(_Traits::_Allocate(_Block_size));

  00017	8b c8		 mov	 ecx, eax

; 77   :         return ::operator new(_Bytes);

  00019	83 c4 04	 add	 esp, 4

; 121  :     _STL_VERIFY(_Ptr_container != 0, "invalid argument"); // validate even in release since we're doing p[-1]

  0001c	85 c9		 test	 ecx, ecx
  0001e	74 0b		 je	 SHORT $LN7@Allocate_m

; 122  :     void* const _Ptr = reinterpret_cast<void*>((_Ptr_container + _Non_user_size) & ~(_Big_allocation_alignment - 1));

  00020	8d 41 23	 lea	 eax, DWORD PTR [ecx+35]
  00023	83 e0 e0	 and	 eax, -32		; ffffffe0H

; 123  :     static_cast<uintptr_t*>(_Ptr)[-1] = _Ptr_container;

  00026	89 48 fc	 mov	 DWORD PTR [eax-4], ecx

; 124  : 
; 125  : #ifdef _DEBUG
; 126  :     static_cast<uintptr_t*>(_Ptr)[-2] = _Big_allocation_sentinel;
; 127  : #endif // _DEBUG
; 128  :     return _Ptr;
; 129  : }

  00029	5d		 pop	 ebp
  0002a	c3		 ret	 0
$LN7@Allocate_m:

; 121  :     _STL_VERIFY(_Ptr_container != 0, "invalid argument"); // validate even in release since we're doing p[-1]

  0002b	e9 00 00 00 00	 jmp	 __invalid_parameter_noinfo_noreturn
??$_Allocate_manually_vector_aligned@U_Default_allocate_traits@std@@@std@@YAPAXI@Z ENDP ; std::_Allocate_manually_vector_aligned<std::_Default_allocate_traits>
_TEXT	ENDS
; Function compile flags: /Ogtp
; File C:\Program Files (x86)\Microsoft Visual Studio\2019\Community\VC\Tools\MSVC\14.28.29333\include\xmemory
;	COMDAT ??$_Allocate@$07U_Default_allocate_traits@std@@$0A@@std@@YAPAXI@Z
_TEXT	SEGMENT
__Bytes$ = 8						; size = 4
??$_Allocate@$07U_Default_allocate_traits@std@@$0A@@std@@YAPAXI@Z PROC ; std::_Allocate<8,std::_Default_allocate_traits,0>, COMDAT

; 197  : __declspec(allocator) void* _Allocate(const size_t _Bytes) {

  00000	55		 push	 ebp
  00001	8b ec		 mov	 ebp, esp

; 198  :     // allocate _Bytes when !_HAS_ALIGNED_NEW || _Align <= __STDCPP_DEFAULT_NEW_ALIGNMENT__
; 199  : #if defined(_M_IX86) || defined(_M_X64)
; 200  :     if (_Bytes >= _Big_allocation_threshold) { // boost the alignment of big allocations to help autovectorization

  00003	8b 45 08	 mov	 eax, DWORD PTR __Bytes$[ebp]
  00006	3d 00 10 00 00	 cmp	 eax, 4096		; 00001000H
  0000b	72 09		 jb	 SHORT $LN2@Allocate

; 201  :         return _Allocate_manually_vector_aligned<_Traits>(_Bytes);

  0000d	89 45 08	 mov	 DWORD PTR __Bytes$[ebp], eax

; 210  : }

  00010	5d		 pop	 ebp

; 201  :         return _Allocate_manually_vector_aligned<_Traits>(_Bytes);

  00011	e9 00 00 00 00	 jmp	 ??$_Allocate_manually_vector_aligned@U_Default_allocate_traits@std@@@std@@YAPAXI@Z ; std::_Allocate_manually_vector_aligned<std::_Default_allocate_traits>
$LN2@Allocate:

; 202  :     }
; 203  : #endif // defined(_M_IX86) || defined(_M_X64)
; 204  : 
; 205  :     if (_Bytes != 0) {

  00016	85 c0		 test	 eax, eax
  00018	74 09		 je	 SHORT $LN3@Allocate

; 77   :         return ::operator new(_Bytes);

  0001a	89 45 08	 mov	 DWORD PTR __Bytes$[ebp], eax

; 210  : }

  0001d	5d		 pop	 ebp

; 77   :         return ::operator new(_Bytes);

  0001e	e9 00 00 00 00	 jmp	 ??2@YAPAXI@Z		; operator new
$LN3@Allocate:

; 206  :         return _Traits::_Allocate(_Bytes);
; 207  :     }
; 208  : 
; 209  :     return nullptr;

  00023	33 c0		 xor	 eax, eax

; 210  : }

  00025	5d		 pop	 ebp
  00026	c3		 ret	 0
??$_Allocate@$07U_Default_allocate_traits@std@@$0A@@std@@YAPAXI@Z ENDP ; std::_Allocate<8,std::_Default_allocate_traits,0>
_TEXT	ENDS
; Function compile flags: /Ogtp
; File C:\Program Files (x86)\Microsoft Visual Studio\2019\Community\VC\Tools\MSVC\14.28.29333\include\xmemory
;	COMDAT ??$_Deallocate@$07$0A@@std@@YAXPAXI@Z
_TEXT	SEGMENT
__Ptr$ = 8						; size = 4
__Bytes$ = 12						; size = 4
??$_Deallocate@$07$0A@@std@@YAXPAXI@Z PROC		; std::_Deallocate<8,0>, COMDAT

; 213  : void _Deallocate(void* _Ptr, size_t _Bytes) noexcept {

  00000	55		 push	 ebp
  00001	8b ec		 mov	 ebp, esp

; 214  :     // deallocate storage allocated by _Allocate when !_HAS_ALIGNED_NEW || _Align <= __STDCPP_DEFAULT_NEW_ALIGNMENT__
; 215  : #if defined(_M_IX86) || defined(_M_X64)
; 216  :     if (_Bytes >= _Big_allocation_threshold) { // boost the alignment of big allocations to help autovectorization

  00003	8b 4d 0c	 mov	 ecx, DWORD PTR __Bytes$[ebp]
  00006	81 f9 00 10 00
	00		 cmp	 ecx, 4096		; 00001000H
  0000c	72 18		 jb	 SHORT $LN15@Deallocate

; 137  :     const uintptr_t _Ptr_container   = _Ptr_user[-1];

  0000e	8b 45 08	 mov	 eax, DWORD PTR __Ptr$[ebp]
  00011	83 c1 23	 add	 ecx, 35			; 00000023H
  00014	8b 50 fc	 mov	 edx, DWORD PTR [eax-4]

; 138  : 
; 139  :     // If the following asserts, it likely means that we are performing
; 140  :     // an aligned delete on memory coming from an unaligned allocation.
; 141  :     _STL_ASSERT(_Ptr_user[-2] == _Big_allocation_sentinel, "invalid argument");
; 142  : 
; 143  :     // Extra paranoia on aligned allocation/deallocation; ensure _Ptr_container is
; 144  :     // in range [_Min_back_shift, _Non_user_size]
; 145  : #ifdef _DEBUG
; 146  :     constexpr uintptr_t _Min_back_shift = 2 * sizeof(void*);
; 147  : #else // ^^^ _DEBUG ^^^ // vvv !_DEBUG vvv
; 148  :     constexpr uintptr_t _Min_back_shift = sizeof(void*);
; 149  : #endif // _DEBUG
; 150  :     const uintptr_t _Back_shift = reinterpret_cast<uintptr_t>(_Ptr) - _Ptr_container;

  00017	2b c2		 sub	 eax, edx

; 151  :     _STL_VERIFY(_Back_shift >= _Min_back_shift && _Back_shift <= _Non_user_size, "invalid argument");

  00019	83 c0 fc	 add	 eax, -4			; fffffffcH
  0001c	83 f8 1f	 cmp	 eax, 31			; 0000001fH
  0001f	76 08		 jbe	 SHORT $LN13@Deallocate
  00021	e9 00 00 00 00	 jmp	 __invalid_parameter_noinfo_noreturn
$LN15@Deallocate:

; 214  :     // deallocate storage allocated by _Allocate when !_HAS_ALIGNED_NEW || _Align <= __STDCPP_DEFAULT_NEW_ALIGNMENT__
; 215  : #if defined(_M_IX86) || defined(_M_X64)
; 216  :     if (_Bytes >= _Big_allocation_threshold) { // boost the alignment of big allocations to help autovectorization

  00026	8b 55 08	 mov	 edx, DWORD PTR __Ptr$[ebp]
$LN13@Deallocate:

; 217  :         _Adjust_manually_vector_aligned(_Ptr, _Bytes);
; 218  :     }
; 219  : #endif // defined(_M_IX86) || defined(_M_X64)
; 220  : 
; 221  :     ::operator delete(_Ptr, _Bytes);

  00029	89 4d 0c	 mov	 DWORD PTR __Bytes$[ebp], ecx
  0002c	89 55 08	 mov	 DWORD PTR __Ptr$[ebp], edx

; 222  : }

  0002f	5d		 pop	 ebp

; 217  :         _Adjust_manually_vector_aligned(_Ptr, _Bytes);
; 218  :     }
; 219  : #endif // defined(_M_IX86) || defined(_M_X64)
; 220  : 
; 221  :     ::operator delete(_Ptr, _Bytes);

  00030	e9 00 00 00 00	 jmp	 ??3@YAXPAXI@Z		; operator delete
??$_Deallocate@$07$0A@@std@@YAXPAXI@Z ENDP		; std::_Deallocate<8,0>
_TEXT	ENDS
; Function compile flags: /Ogtp
; File C:\Program Files (x86)\Microsoft Visual Studio\2019\Community\VC\Tools\MSVC\14.28.29333\include\xmemory
;	COMDAT ??$_Pocma@V?$allocator@D@std@@@std@@YAXAAV?$allocator@D@0@0@Z
_TEXT	SEGMENT
__Left$ = 8						; size = 4
__Right$ = 12						; size = 4
??$_Pocma@V?$allocator@D@std@@@std@@YAXAAV?$allocator@D@0@0@Z PROC ; std::_Pocma<std::allocator<char> >, COMDAT

; 909  :     if constexpr (allocator_traits<_Alloc>::propagate_on_container_move_assignment::value) {
; 910  :         _Left = _STD move(_Right);
; 911  :     }
; 912  : }

  00000	c2 00 00	 ret	 0
??$_Pocma@V?$allocator@D@std@@@std@@YAXAAV?$allocator@D@0@0@Z ENDP ; std::_Pocma<std::allocator<char> >
_TEXT	ENDS
; Function compile flags: /Ogtp
; File C:\Program Files (x86)\Microsoft Visual Studio\2019\Community\VC\Tools\MSVC\14.28.29333\include\xmemory
;	COMDAT ??$_Construct_in_place@PADABQAD@std@@YAXAAPADABQAD@Z
_TEXT	SEGMENT
__Obj$ = 8						; size = 4
_<_Args_0>$ = 12					; size = 4
??$_Construct_in_place@PADABQAD@std@@YAXAAPADABQAD@Z PROC ; std::_Construct_in_place<char *,char * const &>, COMDAT

; 228  : void _Construct_in_place(_Ty& _Obj, _Types&&... _Args) noexcept(is_nothrow_constructible_v<_Ty, _Types...>) {

  00000	55		 push	 ebp
  00001	8b ec		 mov	 ebp, esp

; 229  :     ::new (const_cast<void*>(static_cast<const volatile void*>(_STD addressof(_Obj))))

  00003	8b 45 0c	 mov	 eax, DWORD PTR _<_Args_0>$[ebp]
  00006	8b 08		 mov	 ecx, DWORD PTR [eax]
  00008	8b 45 08	 mov	 eax, DWORD PTR __Obj$[ebp]
  0000b	89 08		 mov	 DWORD PTR [eax], ecx

; 230  :         _Ty(_STD forward<_Types>(_Args)...);
; 231  : }

  0000d	5d		 pop	 ebp
  0000e	c3		 ret	 0
??$_Construct_in_place@PADABQAD@std@@YAXAAPADABQAD@Z ENDP ; std::_Construct_in_place<char *,char * const &>
_TEXT	ENDS
; Function compile flags: /Ogtp
; File C:\Program Files (x86)\Microsoft Visual Studio\2019\Community\VC\Tools\MSVC\14.28.29333\include\xmemory
;	COMDAT ??$_Destroy_in_place@PAD@std@@YAXAAPAD@Z
_TEXT	SEGMENT
__Obj$ = 8						; size = 4
??$_Destroy_in_place@PAD@std@@YAXAAPAD@Z PROC		; std::_Destroy_in_place<char *>, COMDAT

; 271  : #if _HAS_IF_CONSTEXPR
; 272  :     if constexpr (is_array_v<_Ty>) {
; 273  :         _Destroy_range(_Obj, _Obj + extent_v<_Ty>);
; 274  :     } else
; 275  : #endif // _HAS_IF_CONSTEXPR
; 276  :     {
; 277  :         _Obj.~_Ty();
; 278  :     }
; 279  : }

  00000	c2 00 00	 ret	 0
??$_Destroy_in_place@PAD@std@@YAXAAPAD@Z ENDP		; std::_Destroy_in_place<char *>
_TEXT	ENDS
; Function compile flags: /Ogtp
; File D:\Metin2 Server Files\mainline\SRC_2014\Metin2Client\UserInterface\UserInterface.cpp
;	COMDAT ?ApplicationSetErrorString@@YAXPBD@Z
_TEXT	SEGMENT
_szErrorString$ = 8					; size = 4
?ApplicationSetErrorString@@YAXPBD@Z PROC		; ApplicationSetErrorString, COMDAT

; 87   : {

  00000	55		 push	 ebp
  00001	8b ec		 mov	 ebp, esp

; 88   : 	strcpy(gs_szErrorString, szErrorString);

  00003	8b 45 08	 mov	 eax, DWORD PTR _szErrorString$[ebp]
  00006	ba 00 00 00 00	 mov	 edx, OFFSET ?gs_szErrorString@@3PADA ; gs_szErrorString
  0000b	2b d0		 sub	 edx, eax
  0000d	0f 1f 00	 npad	 3
$LL3@Applicatio:
  00010	8a 08		 mov	 cl, BYTE PTR [eax]
  00012	8d 40 01	 lea	 eax, DWORD PTR [eax+1]
  00015	88 4c 02 ff	 mov	 BYTE PTR [edx+eax-1], cl
  00019	84 c9		 test	 cl, cl
  0001b	75 f3		 jne	 SHORT $LL3@Applicatio

; 89   : }

  0001d	5d		 pop	 ebp
  0001e	c3		 ret	 0
?ApplicationSetErrorString@@YAXPBD@Z ENDP		; ApplicationSetErrorString
_TEXT	ENDS
; Function compile flags: /Ogtp
; File D:\Metin2 Server Files\mainline\SRC_2014\Metin2Client\UserInterface\UserInterface.cpp
; File C:\Program Files (x86)\Microsoft Visual Studio\2019\Community\VC\Tools\MSVC\14.28.29333\include\xstring
; File D:\Metin2 Server Files\mainline\SRC_2014\Metin2Client\UserInterface\UserInterface.cpp
;	COMDAT ?ApplicationStringTable_GetStringz@@YAPBDKPBD@Z
_TEXT	SEGMENT
_dwID$ = 8						; size = 4
_szKey$ = 12						; size = 4
?ApplicationStringTable_GetStringz@@YAPBDKPBD@Z PROC	; ApplicationStringTable_GetStringz, COMDAT

; 160  : {

  00000	55		 push	 ebp
  00001	8b ec		 mov	 ebp, esp

; 161  : 	return ApplicationStringTable_GetString(dwID, szKey).c_str();

  00003	ff 75 0c	 push	 DWORD PTR _szKey$[ebp]
  00006	ff 75 08	 push	 DWORD PTR _dwID$[ebp]
  00009	e8 00 00 00 00	 call	 ?ApplicationStringTable_GetString@@YAABV?$basic_string@DU?$char_traits@D@std@@V?$allocator@D@2@@std@@KPBD@Z ; ApplicationStringTable_GetString
  0000e	83 c4 08	 add	 esp, 8
; File C:\Program Files (x86)\Microsoft Visual Studio\2019\Community\VC\Tools\MSVC\14.28.29333\include\xstring

; 2227 :         return _BUF_SIZE <= _Myres;

  00011	83 78 14 10	 cmp	 DWORD PTR [eax+20], 16	; 00000010H

; 2219 :         if (_Large_string_engaged()) {

  00015	72 02		 jb	 SHORT $LN6@Applicatio
; File D:\Metin2 Server Files\mainline\SRC_2014\Metin2Client\UserInterface\UserInterface.cpp

; 161  : 	return ApplicationStringTable_GetString(dwID, szKey).c_str();

  00017	8b 00		 mov	 eax, DWORD PTR [eax]
$LN6@Applicatio:

; 162  : }

  00019	5d		 pop	 ebp
  0001a	c3		 ret	 0
?ApplicationStringTable_GetStringz@@YAPBDKPBD@Z ENDP	; ApplicationStringTable_GetStringz
_TEXT	ENDS
; Function compile flags: /Ogtp
; File D:\Metin2 Server Files\mainline\SRC_2014\Metin2Client\UserInterface\UserInterface.cpp
; File C:\Program Files (x86)\Microsoft Visual Studio\2019\Community\VC\Tools\MSVC\14.28.29333\include\xstring
; File D:\Metin2 Server Files\mainline\SRC_2014\Metin2Client\UserInterface\UserInterface.cpp
;	COMDAT ?ApplicationStringTable_GetStringz@@YAPBDK@Z
_TEXT	SEGMENT
_dwID$ = 8						; size = 4
?ApplicationStringTable_GetStringz@@YAPBDK@Z PROC	; ApplicationStringTable_GetStringz, COMDAT

; 165  : {

  00000	55		 push	 ebp
  00001	8b ec		 mov	 ebp, esp

; 166  : 	return ApplicationStringTable_GetString(dwID).c_str();

  00003	ff 75 08	 push	 DWORD PTR _dwID$[ebp]
  00006	e8 00 00 00 00	 call	 ?ApplicationStringTable_GetString@@YAABV?$basic_string@DU?$char_traits@D@std@@V?$allocator@D@2@@std@@K@Z ; ApplicationStringTable_GetString
  0000b	83 c4 04	 add	 esp, 4
; File C:\Program Files (x86)\Microsoft Visual Studio\2019\Community\VC\Tools\MSVC\14.28.29333\include\xstring

; 2227 :         return _BUF_SIZE <= _Myres;

  0000e	83 78 14 10	 cmp	 DWORD PTR [eax+20], 16	; 00000010H

; 2219 :         if (_Large_string_engaged()) {

  00012	72 02		 jb	 SHORT $LN6@Applicatio
; File D:\Metin2 Server Files\mainline\SRC_2014\Metin2Client\UserInterface\UserInterface.cpp

; 166  : 	return ApplicationStringTable_GetString(dwID).c_str();

  00014	8b 00		 mov	 eax, DWORD PTR [eax]
$LN6@Applicatio:

; 167  : }

  00016	5d		 pop	 ebp
  00017	c3		 ret	 0
?ApplicationStringTable_GetStringz@@YAPBDK@Z ENDP	; ApplicationStringTable_GetStringz
_TEXT	ENDS
; Function compile flags: /Ogtp
; File D:\Metin2 Server Files\mainline\SRC_2014\Metin2Client\UserInterface\UserInterface.cpp
; File C:\Program Files (x86)\Microsoft Visual Studio\2019\Community\VC\Tools\MSVC\14.28.29333\include\xstring
; File D:\Metin2 Server Files\mainline\SRC_2014\Metin2Client\UserInterface\UserInterface.cpp
; File C:\Program Files (x86)\Microsoft Visual Studio\2019\Community\VC\Tools\MSVC\14.28.29333\include\xstring
; File D:\Metin2 Server Files\mainline\SRC_2014\Metin2Client\UserInterface\UserInterface.cpp
;	COMDAT ?ApplicationStringTable_GetString@@YAABV?$basic_string@DU?$char_traits@D@std@@V?$allocator@D@2@@std@@KPBD@Z
_TEXT	SEGMENT
_szLocale$ = -1028					; size = 256
_szBuffer$ = -772					; size = 512
_szIniFileName$ = -260					; size = 256
__$ArrayPad$ = -4					; size = 4
_dwID$ = 8						; size = 4
_szKey$ = 12						; size = 4
?ApplicationStringTable_GetString@@YAABV?$basic_string@DU?$char_traits@D@std@@V?$allocator@D@2@@std@@KPBD@Z PROC ; ApplicationStringTable_GetString, COMDAT

; 121  : {

  00000	55		 push	 ebp
  00001	8b ec		 mov	 ebp, esp
  00003	81 ec 04 04 00
	00		 sub	 esp, 1028		; 00000404H
  00009	a1 00 00 00 00	 mov	 eax, DWORD PTR ___security_cookie
  0000e	33 c5		 xor	 eax, ebp
  00010	89 45 fc	 mov	 DWORD PTR __$ArrayPad$[ebp], eax
  00013	56		 push	 esi
  00014	8b 75 0c	 mov	 esi, DWORD PTR _szKey$[ebp]

; 122  : 	char szBuffer[512];
; 123  : 	char szIniFileName[256];
; 124  : 	char szLocale[256];
; 125  : 
; 126  : 	::GetCurrentDirectory(sizeof(szIniFileName), szIniFileName);

  00017	8d 85 fc fe ff
	ff		 lea	 eax, DWORD PTR _szIniFileName$[ebp]
  0001d	57		 push	 edi
  0001e	50		 push	 eax
  0001f	68 00 01 00 00	 push	 256			; 00000100H
  00024	ff 15 00 00 00
	00		 call	 DWORD PTR __imp__GetCurrentDirectoryA@8

; 127  : 	if(szIniFileName[lstrlen(szIniFileName)-1] != '\\')

  0002a	8d 85 fc fe ff
	ff		 lea	 eax, DWORD PTR _szIniFileName$[ebp]
  00030	50		 push	 eax
  00031	ff 15 00 00 00
	00		 call	 DWORD PTR __imp__lstrlenA@4
  00037	80 bc 05 fb fe
	ff ff 5c	 cmp	 BYTE PTR _szIniFileName$[ebp+eax-1], 92 ; 0000005cH
  0003f	74 1a		 je	 SHORT $LN2@Applicatio

; 128  : 		strcat(szIniFileName, "\\");

  00041	8d bd fc fe ff
	ff		 lea	 edi, DWORD PTR _szIniFileName$[ebp]
  00047	4f		 dec	 edi
$LL26@Applicatio:
  00048	8a 47 01	 mov	 al, BYTE PTR [edi+1]
  0004b	8d 7f 01	 lea	 edi, DWORD PTR [edi+1]
  0004e	84 c0		 test	 al, al
  00050	75 f6		 jne	 SHORT $LL26@Applicatio
  00052	66 a1 00 00 00
	00		 mov	 ax, WORD PTR ??_C@_01KICIPPFI@?2@
  00058	66 89 07	 mov	 WORD PTR [edi], ax
$LN2@Applicatio:

; 129  : 	strcat(szIniFileName, "metin2client.dat");

  0005b	8d 8d fc fe ff
	ff		 lea	 ecx, DWORD PTR _szIniFileName$[ebp]
  00061	49		 dec	 ecx
$LL27@Applicatio:
  00062	8a 41 01	 mov	 al, BYTE PTR [ecx+1]
  00065	8d 49 01	 lea	 ecx, DWORD PTR [ecx+1]
  00068	84 c0		 test	 al, al
  0006a	75 f6		 jne	 SHORT $LL27@Applicatio
  0006c	a1 00 00 00 00	 mov	 eax, DWORD PTR ??_C@_0BB@FPBAACEA@metin2client?4dat@
  00071	89 01		 mov	 DWORD PTR [ecx], eax
  00073	a1 04 00 00 00	 mov	 eax, DWORD PTR ??_C@_0BB@FPBAACEA@metin2client?4dat@+4
  00078	89 41 04	 mov	 DWORD PTR [ecx+4], eax
  0007b	a1 08 00 00 00	 mov	 eax, DWORD PTR ??_C@_0BB@FPBAACEA@metin2client?4dat@+8
  00080	89 41 08	 mov	 DWORD PTR [ecx+8], eax
  00083	a1 0c 00 00 00	 mov	 eax, DWORD PTR ??_C@_0BB@FPBAACEA@metin2client?4dat@+12
  00088	89 41 0c	 mov	 DWORD PTR [ecx+12], eax
  0008b	a0 10 00 00 00	 mov	 al, BYTE PTR ??_C@_0BB@FPBAACEA@metin2client?4dat@+16
  00090	88 41 10	 mov	 BYTE PTR [ecx+16], al

; 130  : 
; 131  : 	strcpy(szLocale, LocaleService_GetLocalePath());

  00093	e8 00 00 00 00	 call	 ?LocaleService_GetLocalePath@@YAPBDXZ ; LocaleService_GetLocalePath
  00098	8d 95 fc fb ff
	ff		 lea	 edx, DWORD PTR _szLocale$[ebp]
  0009e	2b d0		 sub	 edx, eax
$LL8@Applicatio:
  000a0	8a 08		 mov	 cl, BYTE PTR [eax]
  000a2	8d 40 01	 lea	 eax, DWORD PTR [eax+1]
  000a5	88 4c 02 ff	 mov	 BYTE PTR [edx+eax-1], cl
  000a9	84 c9		 test	 cl, cl
  000ab	75 f3		 jne	 SHORT $LL8@Applicatio

; 132  : 	if(strnicmp(szLocale, "locale/", strlen("locale/")) == 0)

  000ad	6a 07		 push	 7
  000af	8d 85 fc fb ff
	ff		 lea	 eax, DWORD PTR _szLocale$[ebp]
  000b5	68 00 00 00 00	 push	 OFFSET ??_C@_07GHKFPDHK@locale?1@
  000ba	50		 push	 eax
  000bb	e8 00 00 00 00	 call	 __strnicmp
  000c0	83 c4 0c	 add	 esp, 12			; 0000000cH
  000c3	85 c0		 test	 eax, eax
  000c5	75 1d		 jne	 SHORT $LN3@Applicatio

; 133  : 		strcpy(szLocale, LocaleService_GetLocalePath() + strlen("locale/"));

  000c7	e8 00 00 00 00	 call	 ?LocaleService_GetLocalePath@@YAPBDXZ ; LocaleService_GetLocalePath
  000cc	8d 95 fc fb ff
	ff		 lea	 edx, DWORD PTR _szLocale$[ebp]
  000d2	8d 48 07	 lea	 ecx, DWORD PTR [eax+7]
  000d5	2b d1		 sub	 edx, ecx
$LL9@Applicatio:
  000d7	8a 01		 mov	 al, BYTE PTR [ecx]
  000d9	8d 49 01	 lea	 ecx, DWORD PTR [ecx+1]
  000dc	88 44 0a ff	 mov	 BYTE PTR [edx+ecx-1], al
  000e0	84 c0		 test	 al, al
  000e2	75 f3		 jne	 SHORT $LL9@Applicatio
$LN3@Applicatio:

; 134  : 	::GetPrivateProfileString(szLocale, szKey, NULL, szBuffer, sizeof(szBuffer)-1, szIniFileName);

  000e4	8b 3d 00 00 00
	00		 mov	 edi, DWORD PTR __imp__GetPrivateProfileStringA@24
  000ea	8d 85 fc fe ff
	ff		 lea	 eax, DWORD PTR _szIniFileName$[ebp]
  000f0	50		 push	 eax
  000f1	68 ff 01 00 00	 push	 511			; 000001ffH
  000f6	8d 85 fc fc ff
	ff		 lea	 eax, DWORD PTR _szBuffer$[ebp]
  000fc	50		 push	 eax
  000fd	6a 00		 push	 0
  000ff	56		 push	 esi
  00100	8d 85 fc fb ff
	ff		 lea	 eax, DWORD PTR _szLocale$[ebp]
  00106	50		 push	 eax
  00107	ff d7		 call	 edi

; 135  : 	if(szBuffer[0] == '\0')

  00109	80 bd fc fc ff
	ff 00		 cmp	 BYTE PTR _szBuffer$[ebp], 0
  00110	75 5f		 jne	 SHORT $LN6@Applicatio

; 136  : 		LoadString(gs_kAppStrTable.m_hInstance, dwID, szBuffer, sizeof(szBuffer)-1);

  00112	68 ff 01 00 00	 push	 511			; 000001ffH
  00117	8d 85 fc fc ff
	ff		 lea	 eax, DWORD PTR _szBuffer$[ebp]
  0011d	50		 push	 eax
  0011e	ff 75 08	 push	 DWORD PTR _dwID$[ebp]
  00121	ff 35 00 00 00
	00		 push	 DWORD PTR ?gs_kAppStrTable@@3UApplicationStringTable@@A
  00127	ff 15 00 00 00
	00		 call	 DWORD PTR __imp__LoadStringA@16

; 137  : 	if(szBuffer[0] == '\0')

  0012d	80 bd fc fc ff
	ff 00		 cmp	 BYTE PTR _szBuffer$[ebp], 0
  00134	75 3b		 jne	 SHORT $LN6@Applicatio

; 138  : 		::GetPrivateProfileString("en", szKey, NULL, szBuffer, sizeof(szBuffer)-1, szIniFileName);

  00136	8d 85 fc fe ff
	ff		 lea	 eax, DWORD PTR _szIniFileName$[ebp]
  0013c	50		 push	 eax
  0013d	68 ff 01 00 00	 push	 511			; 000001ffH
  00142	8d 85 fc fc ff
	ff		 lea	 eax, DWORD PTR _szBuffer$[ebp]
  00148	50		 push	 eax
  00149	6a 00		 push	 0
  0014b	56		 push	 esi
  0014c	68 00 00 00 00	 push	 OFFSET ??_C@_02LFNMGJAP@en@
  00151	ff d7		 call	 edi

; 139  : 	if(szBuffer[0] == '\0')

  00153	80 bd fc fc ff
	ff 00		 cmp	 BYTE PTR _szBuffer$[ebp], 0
  0015a	75 15		 jne	 SHORT $LN6@Applicatio

; 140  : 		strcpy(szBuffer, szKey);

  0015c	8d 8d fc fc ff
	ff		 lea	 ecx, DWORD PTR _szBuffer$[ebp]
  00162	2b ce		 sub	 ecx, esi
$LL10@Applicatio:
  00164	8a 06		 mov	 al, BYTE PTR [esi]
  00166	8d 76 01	 lea	 esi, DWORD PTR [esi+1]
  00169	88 44 31 ff	 mov	 BYTE PTR [ecx+esi-1], al
  0016d	84 c0		 test	 al, al
  0016f	75 f3		 jne	 SHORT $LL10@Applicatio
$LN6@Applicatio:

; 142  : 	std::string& rstLocale=gs_kAppStrTable.m_kMap_dwID_stLocale[dwID];

  00171	8d 45 08	 lea	 eax, DWORD PTR _dwID$[ebp]
  00174	b9 04 00 00 00	 mov	 ecx, OFFSET ?gs_kAppStrTable@@3UApplicationStringTable@@A+4
  00179	50		 push	 eax
  0017a	e8 00 00 00 00	 call	 ??A?$map@KV?$basic_string@DU?$char_traits@D@std@@V?$allocator@D@2@@std@@U?$less@K@2@V?$allocator@U?$pair@$$CBKV?$basic_string@DU?$char_traits@D@std@@V?$allocator@D@2@@std@@@std@@@2@@std@@QAEAAV?$basic_string@DU?$char_traits@D@std@@V?$allocator@D@2@@1@ABK@Z ; std::map<unsigned long,std::basic_string<char,std::char_traits<char>,std::allocator<char> >,std::less<unsigned long>,std::allocator<std::pair<unsigned long const ,std::basic_string<char,std::char_traits<char>,std::allocator<char> > > > >::operator[]
; File C:\Program Files (x86)\Microsoft Visual Studio\2019\Community\VC\Tools\MSVC\14.28.29333\include\xstring

; 389  :         return _CSTD strlen(reinterpret_cast<const char*>(_First));

  0017f	8d 8d fc fc ff
	ff		 lea	 ecx, DWORD PTR _szBuffer$[ebp]
; File D:\Metin2 Server Files\mainline\SRC_2014\Metin2Client\UserInterface\UserInterface.cpp

; 142  : 	std::string& rstLocale=gs_kAppStrTable.m_kMap_dwID_stLocale[dwID];

  00185	8b f0		 mov	 esi, eax
; File C:\Program Files (x86)\Microsoft Visual Studio\2019\Community\VC\Tools\MSVC\14.28.29333\include\xstring

; 389  :         return _CSTD strlen(reinterpret_cast<const char*>(_First));

  00187	8d 51 01	 lea	 edx, DWORD PTR [ecx+1]
  0018a	66 0f 1f 44 00
	00		 npad	 6
$LL28@Applicatio:
  00190	8a 01		 mov	 al, BYTE PTR [ecx]
  00192	41		 inc	 ecx
  00193	84 c0		 test	 al, al
  00195	75 f9		 jne	 SHORT $LL28@Applicatio
  00197	2b ca		 sub	 ecx, edx

; 3062 :         return assign(_Ptr, _Convert_size<size_type>(_Traits::length(_Ptr)));

  00199	8d 85 fc fc ff
	ff		 lea	 eax, DWORD PTR _szBuffer$[ebp]
  0019f	51		 push	 ecx
  001a0	50		 push	 eax
  001a1	8b ce		 mov	 ecx, esi
  001a3	e8 00 00 00 00	 call	 ?assign@?$basic_string@DU?$char_traits@D@std@@V?$allocator@D@2@@std@@QAEAAV12@QBDI@Z ; std::basic_string<char,std::char_traits<char>,std::allocator<char> >::assign
; File D:\Metin2 Server Files\mainline\SRC_2014\Metin2Client\UserInterface\UserInterface.cpp

; 146  : }

  001a8	8b 4d fc	 mov	 ecx, DWORD PTR __$ArrayPad$[ebp]
  001ab	8b c6		 mov	 eax, esi
  001ad	5f		 pop	 edi
  001ae	33 cd		 xor	 ecx, ebp
  001b0	5e		 pop	 esi
  001b1	e8 00 00 00 00	 call	 @__security_check_cookie@4
  001b6	8b e5		 mov	 esp, ebp
  001b8	5d		 pop	 ebp
  001b9	c3		 ret	 0
?ApplicationStringTable_GetString@@YAABV?$basic_string@DU?$char_traits@D@std@@V?$allocator@D@2@@std@@KPBD@Z ENDP ; ApplicationStringTable_GetString
_TEXT	ENDS
; Function compile flags: /Ogtp
; File D:\Metin2 Server Files\mainline\SRC_2014\Metin2Client\UserInterface\UserInterface.cpp
; File C:\Program Files (x86)\Microsoft Visual Studio\2019\Community\VC\Tools\MSVC\14.28.29333\include\xstring
; File D:\Metin2 Server Files\mainline\SRC_2014\Metin2Client\UserInterface\UserInterface.cpp
; File C:\Program Files (x86)\Microsoft Visual Studio\2019\Community\VC\Tools\MSVC\14.28.29333\include\xstring
; File D:\Metin2 Server Files\mainline\SRC_2014\Metin2Client\UserInterface\UserInterface.cpp
;	COMDAT ?ApplicationStringTable_GetString@@YAABV?$basic_string@DU?$char_traits@D@std@@V?$allocator@D@2@@std@@K@Z
_TEXT	SEGMENT
_szBuffer$ = -516					; size = 512
__$ArrayPad$ = -4					; size = 4
_dwID$ = 8						; size = 4
?ApplicationStringTable_GetString@@YAABV?$basic_string@DU?$char_traits@D@std@@V?$allocator@D@2@@std@@K@Z PROC ; ApplicationStringTable_GetString, COMDAT

; 149  : {

  00000	55		 push	 ebp
  00001	8b ec		 mov	 ebp, esp
  00003	81 ec 04 02 00
	00		 sub	 esp, 516		; 00000204H
  00009	a1 00 00 00 00	 mov	 eax, DWORD PTR ___security_cookie
  0000e	33 c5		 xor	 eax, ebp
  00010	89 45 fc	 mov	 DWORD PTR __$ArrayPad$[ebp], eax
  00013	56		 push	 esi

; 150  : 	char szBuffer[512];
; 151  : 
; 152  : 	LoadString(gs_kAppStrTable.m_hInstance, dwID, szBuffer, sizeof(szBuffer)-1);

  00014	68 ff 01 00 00	 push	 511			; 000001ffH
  00019	8d 85 fc fd ff
	ff		 lea	 eax, DWORD PTR _szBuffer$[ebp]
  0001f	50		 push	 eax
  00020	ff 75 08	 push	 DWORD PTR _dwID$[ebp]
  00023	ff 35 00 00 00
	00		 push	 DWORD PTR ?gs_kAppStrTable@@3UApplicationStringTable@@A
  00029	ff 15 00 00 00
	00		 call	 DWORD PTR __imp__LoadStringA@16

; 153  : 	std::string& rstLocale=gs_kAppStrTable.m_kMap_dwID_stLocale[dwID];

  0002f	8d 45 08	 lea	 eax, DWORD PTR _dwID$[ebp]
  00032	b9 04 00 00 00	 mov	 ecx, OFFSET ?gs_kAppStrTable@@3UApplicationStringTable@@A+4
  00037	50		 push	 eax
  00038	e8 00 00 00 00	 call	 ??A?$map@KV?$basic_string@DU?$char_traits@D@std@@V?$allocator@D@2@@std@@U?$less@K@2@V?$allocator@U?$pair@$$CBKV?$basic_string@DU?$char_traits@D@std@@V?$allocator@D@2@@std@@@std@@@2@@std@@QAEAAV?$basic_string@DU?$char_traits@D@std@@V?$allocator@D@2@@1@ABK@Z ; std::map<unsigned long,std::basic_string<char,std::char_traits<char>,std::allocator<char> >,std::less<unsigned long>,std::allocator<std::pair<unsigned long const ,std::basic_string<char,std::char_traits<char>,std::allocator<char> > > > >::operator[]
; File C:\Program Files (x86)\Microsoft Visual Studio\2019\Community\VC\Tools\MSVC\14.28.29333\include\xstring

; 389  :         return _CSTD strlen(reinterpret_cast<const char*>(_First));

  0003d	8d 8d fc fd ff
	ff		 lea	 ecx, DWORD PTR _szBuffer$[ebp]
; File D:\Metin2 Server Files\mainline\SRC_2014\Metin2Client\UserInterface\UserInterface.cpp

; 153  : 	std::string& rstLocale=gs_kAppStrTable.m_kMap_dwID_stLocale[dwID];

  00043	8b f0		 mov	 esi, eax
; File C:\Program Files (x86)\Microsoft Visual Studio\2019\Community\VC\Tools\MSVC\14.28.29333\include\xstring

; 389  :         return _CSTD strlen(reinterpret_cast<const char*>(_First));

  00045	8d 51 01	 lea	 edx, DWORD PTR [ecx+1]
$LL9@Applicatio:
  00048	8a 01		 mov	 al, BYTE PTR [ecx]
  0004a	41		 inc	 ecx
  0004b	84 c0		 test	 al, al
  0004d	75 f9		 jne	 SHORT $LL9@Applicatio
  0004f	2b ca		 sub	 ecx, edx

; 3062 :         return assign(_Ptr, _Convert_size<size_type>(_Traits::length(_Ptr)));

  00051	8d 85 fc fd ff
	ff		 lea	 eax, DWORD PTR _szBuffer$[ebp]
  00057	51		 push	 ecx
  00058	50		 push	 eax
  00059	8b ce		 mov	 ecx, esi
  0005b	e8 00 00 00 00	 call	 ?assign@?$basic_string@DU?$char_traits@D@std@@V?$allocator@D@2@@std@@QAEAAV12@QBDI@Z ; std::basic_string<char,std::char_traits<char>,std::allocator<char> >::assign
; File D:\Metin2 Server Files\mainline\SRC_2014\Metin2Client\UserInterface\UserInterface.cpp

; 157  : }

  00060	8b 4d fc	 mov	 ecx, DWORD PTR __$ArrayPad$[ebp]
  00063	8b c6		 mov	 eax, esi
  00065	33 cd		 xor	 ecx, ebp
  00067	5e		 pop	 esi
  00068	e8 00 00 00 00	 call	 @__security_check_cookie@4
  0006d	8b e5		 mov	 esp, ebp
  0006f	5d		 pop	 ebp
  00070	c3		 ret	 0
?ApplicationStringTable_GetString@@YAABV?$basic_string@DU?$char_traits@D@std@@V?$allocator@D@2@@std@@K@Z ENDP ; ApplicationStringTable_GetString
_TEXT	ENDS
; Function compile flags: /Ogtp
; File C:\Program Files (x86)\Microsoft Visual Studio\2019\Community\VC\Tools\MSVC\14.28.29333\include\map
; File C:\Program Files (x86)\Microsoft Visual Studio\2019\Community\VC\Tools\MSVC\14.28.29333\include\xtree
; File C:\Program Files (x86)\Microsoft Visual Studio\2019\Community\VC\Tools\MSVC\14.28.29333\include\xstddef
; File C:\Program Files (x86)\Microsoft Visual Studio\2019\Community\VC\Tools\MSVC\14.28.29333\include\xtree
; File C:\Program Files (x86)\Microsoft Visual Studio\2019\Community\VC\Tools\MSVC\14.28.29333\include\xstddef
; File C:\Program Files (x86)\Microsoft Visual Studio\2019\Community\VC\Tools\MSVC\14.28.29333\include\xtree
; File C:\Program Files (x86)\Microsoft Visual Studio\2019\Community\VC\Tools\MSVC\14.28.29333\include\xstddef
; File C:\Program Files (x86)\Microsoft Visual Studio\2019\Community\VC\Tools\MSVC\14.28.29333\include\xtree
; File C:\Program Files (x86)\Microsoft Visual Studio\2019\Community\VC\Tools\MSVC\14.28.29333\include\map
; File C:\Program Files (x86)\Microsoft Visual Studio\2019\Community\VC\Tools\MSVC\14.28.29333\include\xmemory
; File C:\Program Files (x86)\Microsoft Visual Studio\2019\Community\VC\Tools\MSVC\14.28.29333\include\xtree
; File C:\Program Files (x86)\Microsoft Visual Studio\2019\Community\VC\Tools\MSVC\14.28.29333\include\xmemory
; File C:\Program Files (x86)\Microsoft Visual Studio\2019\Community\VC\Tools\MSVC\14.28.29333\include\tuple
; File C:\Program Files (x86)\Microsoft Visual Studio\2019\Community\VC\Tools\MSVC\14.28.29333\include\xtree
; File C:\Program Files (x86)\Microsoft Visual Studio\2019\Community\VC\Tools\MSVC\14.28.29333\include\xstring
; File C:\Program Files (x86)\Microsoft Visual Studio\2019\Community\VC\Tools\MSVC\14.28.29333\include\xtree
; File C:\Program Files (x86)\Microsoft Visual Studio\2019\Community\VC\Tools\MSVC\14.28.29333\include\map
; File C:\Program Files (x86)\Microsoft Visual Studio\2019\Community\VC\Tools\MSVC\14.28.29333\include\xtree
; File C:\Program Files (x86)\Microsoft Visual Studio\2019\Community\VC\Tools\MSVC\14.28.29333\include\map
; File C:\Program Files (x86)\Microsoft Visual Studio\2019\Community\VC\Tools\MSVC\14.28.29333\include\xtree
; File C:\Program Files (x86)\Microsoft Visual Studio\2019\Community\VC\Tools\MSVC\14.28.29333\include\map
;	COMDAT ??A?$map@KV?$basic_string@DU?$char_traits@D@std@@V?$allocator@D@2@@std@@U?$less@K@2@V?$allocator@U?$pair@$$CBKV?$basic_string@DU?$char_traits@D@std@@V?$allocator@D@2@@std@@@std@@@2@@std@@QAEAAV?$basic_string@DU?$char_traits@D@std@@V?$allocator@D@2@@1@ABK@Z
_TEXT	SEGMENT
$T4 = -28						; size = 8
_this$1$ = -20						; size = 4
__Myhead$ = -16						; size = 4
__$EHRec$ = -12						; size = 12
__Keyval$ = 8						; size = 4
??A?$map@KV?$basic_string@DU?$char_traits@D@std@@V?$allocator@D@2@@std@@U?$less@K@2@V?$allocator@U?$pair@$$CBKV?$basic_string@DU?$char_traits@D@std@@V?$allocator@D@2@@std@@@std@@@2@@std@@QAEAAV?$basic_string@DU?$char_traits@D@std@@V?$allocator@D@2@@1@ABK@Z PROC ; std::map<unsigned long,std::basic_string<char,std::char_traits<char>,std::allocator<char> >,std::less<unsigned long>,std::allocator<std::pair<unsigned long const ,std::basic_string<char,std::char_traits<char>,std::allocator<char> > > > >::operator[], COMDAT
; _this$ = ecx

; 324  :     mapped_type& operator[](const key_type& _Keyval) {

  00000	55		 push	 ebp
  00001	8b ec		 mov	 ebp, esp
  00003	6a ff		 push	 -1
  00005	68 00 00 00 00	 push	 __ehhandler$??A?$map@KV?$basic_string@DU?$char_traits@D@std@@V?$allocator@D@2@@std@@U?$less@K@2@V?$allocator@U?$pair@$$CBKV?$basic_string@DU?$char_traits@D@std@@V?$allocator@D@2@@std@@@std@@@2@@std@@QAEAAV?$basic_string@DU?$char_traits@D@std@@V?$allocator@D@2@@1@ABK@Z
  0000a	64 a1 00 00 00
	00		 mov	 eax, DWORD PTR fs:0
  00010	50		 push	 eax
  00011	83 ec 10	 sub	 esp, 16			; 00000010H
  00014	53		 push	 ebx
  00015	56		 push	 esi
  00016	57		 push	 edi
  00017	a1 00 00 00 00	 mov	 eax, DWORD PTR ___security_cookie
  0001c	33 c5		 xor	 eax, ebp
  0001e	50		 push	 eax
  0001f	8d 45 f4	 lea	 eax, DWORD PTR __$EHRec$[ebp]
  00022	64 a3 00 00 00
	00		 mov	 DWORD PTR fs:0, eax
  00028	89 4d ec	 mov	 DWORD PTR _this$1$[ebp], ecx
; File C:\Program Files (x86)\Microsoft Visual Studio\2019\Community\VC\Tools\MSVC\14.28.29333\include\xtree

; 1701 :         _Tree_find_result<_Nodeptr> _Result{{_Scary->_Myhead->_Parent, _Tree_child::_Right}, _Scary->_Myhead};

  0002b	8b 01		 mov	 eax, DWORD PTR [ecx]
  0002d	33 ff		 xor	 edi, edi

; 1702 :         _Nodeptr _Trynode = _Result._Location._Parent;
; 1703 :         while (!_Trynode->_Isnil) {

  0002f	8b 75 08	 mov	 esi, DWORD PTR __Keyval$[ebp]
  00032	8b d0		 mov	 edx, eax
  00034	8b 58 04	 mov	 ebx, DWORD PTR [eax+4]
  00037	80 7b 0d 00	 cmp	 BYTE PTR [ebx+13], 0
  0003b	75 24		 jne	 SHORT $LN9@operator
; File C:\Program Files (x86)\Microsoft Visual Studio\2019\Community\VC\Tools\MSVC\14.28.29333\include\xstddef

; 127  :         return _Left < _Right;

  0003d	8b 0e		 mov	 ecx, DWORD PTR [esi]
  0003f	8b c3		 mov	 eax, ebx
$LL8@operator:
; File C:\Program Files (x86)\Microsoft Visual Studio\2019\Community\VC\Tools\MSVC\14.28.29333\include\xtree

; 1704 :             _Result._Location._Parent = _Trynode;

  00041	8b d8		 mov	 ebx, eax
; File C:\Program Files (x86)\Microsoft Visual Studio\2019\Community\VC\Tools\MSVC\14.28.29333\include\xstddef

; 127  :         return _Left < _Right;

  00043	39 48 10	 cmp	 DWORD PTR [eax+16], ecx
; File C:\Program Files (x86)\Microsoft Visual Studio\2019\Community\VC\Tools\MSVC\14.28.29333\include\xtree

; 1705 :             if (_DEBUG_LT_PRED(_Getcomp(), _Traits::_Kfn(_Trynode->_Myval), _Keyval)) {

  00046	73 07		 jae	 SHORT $LN10@operator

; 1706 :                 _Result._Location._Child = _Tree_child::_Right;
; 1707 :                 _Trynode                 = _Trynode->_Right;

  00048	8b 40 08	 mov	 eax, DWORD PTR [eax+8]
  0004b	33 ff		 xor	 edi, edi

; 1708 :             } else {

  0004d	eb 09		 jmp	 SHORT $LN11@operator
$LN10@operator:

; 1709 :                 _Result._Location._Child = _Tree_child::_Left;
; 1710 :                 _Result._Bound           = _Trynode;

  0004f	8b d0		 mov	 edx, eax
  00051	bf 01 00 00 00	 mov	 edi, 1

; 1711 :                 _Trynode                 = _Trynode->_Left;

  00056	8b 00		 mov	 eax, DWORD PTR [eax]
$LN11@operator:

; 1702 :         _Nodeptr _Trynode = _Result._Location._Parent;
; 1703 :         while (!_Trynode->_Isnil) {

  00058	80 78 0d 00	 cmp	 BYTE PTR [eax+13], 0
  0005c	74 e3		 je	 SHORT $LL8@operator
  0005e	8b 4d ec	 mov	 ecx, DWORD PTR _this$1$[ebp]
$LN9@operator:

; 1695 :         return !_Bound->_Isnil && !_DEBUG_LT_PRED(_Getcomp(), _Keyval, _Traits::_Kfn(_Bound->_Myval));

  00061	80 7a 0d 00	 cmp	 BYTE PTR [edx+13], 0
  00065	75 0b		 jne	 SHORT $LN4@operator
; File C:\Program Files (x86)\Microsoft Visual Studio\2019\Community\VC\Tools\MSVC\14.28.29333\include\xstddef

; 127  :         return _Left < _Right;

  00067	8b 06		 mov	 eax, DWORD PTR [esi]
  00069	3b 42 10	 cmp	 eax, DWORD PTR [edx+16]
; File C:\Program Files (x86)\Microsoft Visual Studio\2019\Community\VC\Tools\MSVC\14.28.29333\include\xtree

; 1695 :         return !_Bound->_Isnil && !_DEBUG_LT_PRED(_Getcomp(), _Keyval, _Traits::_Kfn(_Bound->_Myval));

  0006c	0f 83 80 00 00
	00		 jae	 $LN3@operator
$LN4@operator:

; 1719 :         if (max_size() == _Get_scary()->_Mysize) {

  00072	81 79 04 5d 74
	d1 05		 cmp	 DWORD PTR [ecx+4], 97612893 ; 05d1745dH
  00079	0f 84 8a 00 00
	00		 je	 $LN119@operator
; File C:\Program Files (x86)\Microsoft Visual Studio\2019\Community\VC\Tools\MSVC\14.28.29333\include\map

; 184  :         const auto _Inserted = _Tree_temp_node<_Alnode>(_Mybase::_Getal(), _Scary->_Myhead, piecewise_construct,

  0007f	8b 01		 mov	 eax, DWORD PTR [ecx]
  00081	89 45 f0	 mov	 DWORD PTR __Myhead$[ebp], eax
; File C:\Program Files (x86)\Microsoft Visual Studio\2019\Community\VC\Tools\MSVC\14.28.29333\include\xmemory

; 1045 :     explicit _Alloc_construct_ptr(_Alloc& _Al_) : _Al(_Al_), _Ptr(nullptr) {}

  00084	89 4d e4	 mov	 DWORD PTR $T4[ebp], ecx

; 814  :         return static_cast<_Ty*>(_Allocate<_New_alignof<_Ty>>(_Get_size_of_n<sizeof(_Ty)>(_Count)));

  00087	6a 2c		 push	 44			; 0000002cH
; File C:\Program Files (x86)\Microsoft Visual Studio\2019\Community\VC\Tools\MSVC\14.28.29333\include\xtree

; 784  :     explicit _Tree_temp_node_alloc(_Alnode& _Al_) : _Alloc_construct_ptr<_Alnode>(_Al_) {

  00089	c7 45 fc 00 00
	00 00		 mov	 DWORD PTR __$EHRec$[ebp+8], 0
; File C:\Program Files (x86)\Microsoft Visual Studio\2019\Community\VC\Tools\MSVC\14.28.29333\include\xmemory

; 1052 :         _Ptr = nullptr; // if allocate throws, prevents double-free

  00090	c7 45 e8 00 00
	00 00		 mov	 DWORD PTR $T4[ebp+4], 0

; 814  :         return static_cast<_Ty*>(_Allocate<_New_alignof<_Ty>>(_Get_size_of_n<sizeof(_Ty)>(_Count)));

  00097	e8 00 00 00 00	 call	 ??$_Allocate@$07U_Default_allocate_traits@std@@$0A@@std@@YAPAXI@Z ; std::_Allocate<8,std::_Default_allocate_traits,0>

; 1053 :         _Ptr = _Al.allocate(1);

  0009c	8b f0		 mov	 esi, eax
; File C:\Program Files (x86)\Microsoft Visual Studio\2019\Community\VC\Tools\MSVC\14.28.29333\include\tuple

; 980  :     : first(_STD get<_Indexes1>(_STD move(_Val1))...), second(_STD get<_Indexes2>(_STD move(_Val2))...) {}

  0009e	8b 45 08	 mov	 eax, DWORD PTR __Keyval$[ebp]
  000a1	8b 00		 mov	 eax, DWORD PTR [eax]
  000a3	89 46 10	 mov	 DWORD PTR [esi+16], eax
; File C:\Program Files (x86)\Microsoft Visual Studio\2019\Community\VC\Tools\MSVC\14.28.29333\include\xtree

; 807  :         _Construct_in_place(this->_Ptr->_Left, _Myhead);

  000a6	8d 45 f0	 lea	 eax, DWORD PTR __Myhead$[ebp]
  000a9	50		 push	 eax
  000aa	56		 push	 esi
; File C:\Program Files (x86)\Microsoft Visual Studio\2019\Community\VC\Tools\MSVC\14.28.29333\include\xstring

; 4377 :         _Mypair._Myval2._Mysize = 0;

  000ab	c7 46 24 00 00
	00 00		 mov	 DWORD PTR [esi+36], 0

; 4378 :         _Mypair._Myval2._Myres  = _BUF_SIZE - 1;

  000b2	c7 46 28 0f 00
	00 00		 mov	 DWORD PTR [esi+40], 15	; 0000000fH

; 4379 :         // the _Traits::assign is last so the codegen doesn't think the char write can alias this
; 4380 :         _Traits::assign(_Mypair._Myval2._Bx._Buf[0], _Elem());

  000b9	c6 46 14 00	 mov	 BYTE PTR [esi+20], 0
; File C:\Program Files (x86)\Microsoft Visual Studio\2019\Community\VC\Tools\MSVC\14.28.29333\include\xtree

; 807  :         _Construct_in_place(this->_Ptr->_Left, _Myhead);

  000bd	e8 00 00 00 00	 call	 ??$_Construct_in_place@PAU?$_Tree_node@U?$pair@$$CBKV?$basic_string@DU?$char_traits@D@std@@V?$allocator@D@2@@std@@@std@@PAX@std@@AAPAU12@@std@@YAXAAPAU?$_Tree_node@U?$pair@$$CBKV?$basic_string@DU?$char_traits@D@std@@V?$allocator@D@2@@std@@@std@@PAX@0@0@Z ; std::_Construct_in_place<std::_Tree_node<std::pair<unsigned long const ,std::basic_string<char,std::char_traits<char>,std::allocator<char> > >,void *> *,std::_Tree_node<std::pair<unsigned long const ,std::basic_string<char,std::char_traits<char>,std::allocator<char> > >,void *> * &>

; 808  :         _Construct_in_place(this->_Ptr->_Parent, _Myhead);

  000c2	8d 45 f0	 lea	 eax, DWORD PTR __Myhead$[ebp]
  000c5	50		 push	 eax
  000c6	8d 46 04	 lea	 eax, DWORD PTR [esi+4]
  000c9	50		 push	 eax
  000ca	e8 00 00 00 00	 call	 ??$_Construct_in_place@PAU?$_Tree_node@U?$pair@$$CBKV?$basic_string@DU?$char_traits@D@std@@V?$allocator@D@2@@std@@@std@@PAX@std@@AAPAU12@@std@@YAXAAPAU?$_Tree_node@U?$pair@$$CBKV?$basic_string@DU?$char_traits@D@std@@V?$allocator@D@2@@std@@@std@@PAX@0@0@Z ; std::_Construct_in_place<std::_Tree_node<std::pair<unsigned long const ,std::basic_string<char,std::char_traits<char>,std::allocator<char> > >,void *> *,std::_Tree_node<std::pair<unsigned long const ,std::basic_string<char,std::char_traits<char>,std::allocator<char> > >,void *> * &>

; 809  :         _Construct_in_place(this->_Ptr->_Right, _Myhead);

  000cf	8d 45 f0	 lea	 eax, DWORD PTR __Myhead$[ebp]
  000d2	50		 push	 eax
  000d3	8d 46 08	 lea	 eax, DWORD PTR [esi+8]
  000d6	50		 push	 eax
  000d7	e8 00 00 00 00	 call	 ??$_Construct_in_place@PAU?$_Tree_node@U?$pair@$$CBKV?$basic_string@DU?$char_traits@D@std@@V?$allocator@D@2@@std@@@std@@PAX@std@@AAPAU12@@std@@YAXAAPAU?$_Tree_node@U?$pair@$$CBKV?$basic_string@DU?$char_traits@D@std@@V?$allocator@D@2@@std@@@std@@PAX@0@0@Z ; std::_Construct_in_place<std::_Tree_node<std::pair<unsigned long const ,std::basic_string<char,std::char_traits<char>,std::allocator<char> > >,void *> *,std::_Tree_node<std::pair<unsigned long const ,std::basic_string<char,std::char_traits<char>,std::allocator<char> > >,void *> * &>
; File C:\Program Files (x86)\Microsoft Visual Studio\2019\Community\VC\Tools\MSVC\14.28.29333\include\map

; 190  :         return {_Scary->_Insert_node(_Loc._Location, _Inserted), true};

  000dc	8b 4d ec	 mov	 ecx, DWORD PTR _this$1$[ebp]
; File C:\Program Files (x86)\Microsoft Visual Studio\2019\Community\VC\Tools\MSVC\14.28.29333\include\xtree

; 809  :         _Construct_in_place(this->_Ptr->_Right, _Myhead);

  000df	83 c4 1c	 add	 esp, 28			; 0000001cH

; 810  :         this->_Ptr->_Color = _Red;

  000e2	66 c7 46 0c 00
	00		 mov	 WORD PTR [esi+12], 0
; File C:\Program Files (x86)\Microsoft Visual Studio\2019\Community\VC\Tools\MSVC\14.28.29333\include\map

; 190  :         return {_Scary->_Insert_node(_Loc._Location, _Inserted), true};

  000e8	56		 push	 esi
  000e9	57		 push	 edi
  000ea	53		 push	 ebx
  000eb	e8 00 00 00 00	 call	 ?_Insert_node@?$_Tree_val@U?$_Tree_simple_types@U?$pair@$$CBKV?$basic_string@DU?$char_traits@D@std@@V?$allocator@D@2@@std@@@std@@@std@@@std@@QAEPAU?$_Tree_node@U?$pair@$$CBKV?$basic_string@DU?$char_traits@D@std@@V?$allocator@D@2@@std@@@std@@PAX@2@U?$_Tree_id@PAU?$_Tree_node@U?$pair@$$CBKV?$basic_string@DU?$char_traits@D@std@@V?$allocator@D@2@@std@@@std@@PAX@std@@@2@QAU32@@Z ; std::_Tree_val<std::_Tree_simple_types<std::pair<unsigned long const ,std::basic_string<char,std::char_traits<char>,std::allocator<char> > > > >::_Insert_node
  000f0	8b d0		 mov	 edx, eax
$LN3@operator:

; 325  :         return _Try_emplace(_Keyval).first->_Myval.second;

  000f2	8d 42 14	 lea	 eax, DWORD PTR [edx+20]

; 326  :     }

  000f5	8b 4d f4	 mov	 ecx, DWORD PTR __$EHRec$[ebp]
  000f8	64 89 0d 00 00
	00 00		 mov	 DWORD PTR fs:0, ecx
  000ff	59		 pop	 ecx
  00100	5f		 pop	 edi
  00101	5e		 pop	 esi
  00102	5b		 pop	 ebx
  00103	8b e5		 mov	 esp, ebp
  00105	5d		 pop	 ebp
  00106	c2 04 00	 ret	 4
$LN119@operator:
; File C:\Program Files (x86)\Microsoft Visual Studio\2019\Community\VC\Tools\MSVC\14.28.29333\include\xtree

; 1720 :             _Throw_tree_length_error();

  00109	e8 00 00 00 00	 call	 ?_Throw_tree_length_error@std@@YAXXZ ; std::_Throw_tree_length_error
$LN117@operator:
  0010e	cc		 int	 3
_TEXT	ENDS
;	COMDAT text$x
text$x	SEGMENT
__unwindfunclet$??A?$map@KV?$basic_string@DU?$char_traits@D@std@@V?$allocator@D@2@@std@@U?$less@K@2@V?$allocator@U?$pair@$$CBKV?$basic_string@DU?$char_traits@D@std@@V?$allocator@D@2@@std@@@std@@@2@@std@@QAEAAV?$basic_string@DU?$char_traits@D@std@@V?$allocator@D@2@@1@ABK@Z$2:
  00000	8d 4d e4	 lea	 ecx, DWORD PTR $T4[ebp]
  00003	e9 00 00 00 00	 jmp	 ??1?$_Alloc_construct_ptr@V?$allocator@U?$_Tree_node@U?$pair@$$CBKV?$basic_string@DU?$char_traits@D@std@@V?$allocator@D@2@@std@@@std@@PAX@std@@@std@@@std@@QAE@XZ ; std::_Alloc_construct_ptr<std::allocator<std::_Tree_node<std::pair<unsigned long const ,std::basic_string<char,std::char_traits<char>,std::allocator<char> > >,void *> > >::~_Alloc_construct_ptr<std::allocator<std::_Tree_node<std::pair<unsigned long const ,std::basic_string<char,std::char_traits<char>,std::allocator<char> > >,void *> > >
  00008	cc		 int	 3
  00009	cc		 int	 3
  0000a	cc		 int	 3
  0000b	cc		 int	 3
  0000c	cc		 int	 3
__ehhandler$??A?$map@KV?$basic_string@DU?$char_traits@D@std@@V?$allocator@D@2@@std@@U?$less@K@2@V?$allocator@U?$pair@$$CBKV?$basic_string@DU?$char_traits@D@std@@V?$allocator@D@2@@std@@@std@@@2@@std@@QAEAAV?$basic_string@DU?$char_traits@D@std@@V?$allocator@D@2@@1@ABK@Z:
  0000d	90		 npad	 1
  0000e	90		 npad	 1
  0000f	8b 54 24 08	 mov	 edx, DWORD PTR [esp+8]
  00013	8d 42 0c	 lea	 eax, DWORD PTR [edx+12]
  00016	8b 4a e0	 mov	 ecx, DWORD PTR [edx-32]
  00019	33 c8		 xor	 ecx, eax
  0001b	e8 00 00 00 00	 call	 @__security_check_cookie@4
  00020	b8 00 00 00 00	 mov	 eax, OFFSET __ehfuncinfo$??A?$map@KV?$basic_string@DU?$char_traits@D@std@@V?$allocator@D@2@@std@@U?$less@K@2@V?$allocator@U?$pair@$$CBKV?$basic_string@DU?$char_traits@D@std@@V?$allocator@D@2@@std@@@std@@@2@@std@@QAEAAV?$basic_string@DU?$char_traits@D@std@@V?$allocator@D@2@@1@ABK@Z
  00025	e9 00 00 00 00	 jmp	 ___CxxFrameHandler3
text$x	ENDS
??A?$map@KV?$basic_string@DU?$char_traits@D@std@@V?$allocator@D@2@@std@@U?$less@K@2@V?$allocator@U?$pair@$$CBKV?$basic_string@DU?$char_traits@D@std@@V?$allocator@D@2@@std@@@std@@@2@@std@@QAEAAV?$basic_string@DU?$char_traits@D@std@@V?$allocator@D@2@@1@ABK@Z ENDP ; std::map<unsigned long,std::basic_string<char,std::char_traits<char>,std::allocator<char> >,std::less<unsigned long>,std::allocator<std::pair<unsigned long const ,std::basic_string<char,std::char_traits<char>,std::allocator<char> > > > >::operator[]
; Function compile flags: /Ogtp
; File C:\Program Files (x86)\Microsoft Visual Studio\2019\Community\VC\Tools\MSVC\14.28.29333\include\xtree
;	COMDAT ?_Insert_node@?$_Tree_val@U?$_Tree_simple_types@U?$pair@$$CBKV?$basic_string@DU?$char_traits@D@std@@V?$allocator@D@2@@std@@@std@@@std@@@std@@QAEPAU?$_Tree_node@U?$pair@$$CBKV?$basic_string@DU?$char_traits@D@std@@V?$allocator@D@2@@std@@@std@@PAX@2@U?$_Tree_id@PAU?$_Tree_node@U?$pair@$$CBKV?$basic_string@DU?$char_traits@D@std@@V?$allocator@D@2@@std@@@std@@PAX@std@@@2@QAU32@@Z
_TEXT	SEGMENT
__Head$1$ = -8						; size = 4
_this$1$ = -4						; size = 4
__Loc$ = 8						; size = 8
__Newnode$ = 16						; size = 4
?_Insert_node@?$_Tree_val@U?$_Tree_simple_types@U?$pair@$$CBKV?$basic_string@DU?$char_traits@D@std@@V?$allocator@D@2@@std@@@std@@@std@@@std@@QAEPAU?$_Tree_node@U?$pair@$$CBKV?$basic_string@DU?$char_traits@D@std@@V?$allocator@D@2@@std@@@std@@PAX@2@U?$_Tree_id@PAU?$_Tree_node@U?$pair@$$CBKV?$basic_string@DU?$char_traits@D@std@@V?$allocator@D@2@@std@@@std@@PAX@std@@@2@QAU32@@Z PROC ; std::_Tree_val<std::_Tree_simple_types<std::pair<unsigned long const ,std::basic_string<char,std::char_traits<char>,std::allocator<char> > > > >::_Insert_node, COMDAT
; _this$ = ecx

; 644  :     _Nodeptr _Insert_node(const _Tree_id<_Nodeptr> _Loc, const _Nodeptr _Newnode) noexcept {

  00000	55		 push	 ebp
  00001	8b ec		 mov	 ebp, esp
  00003	83 ec 08	 sub	 esp, 8

; 645  :         ++_Mysize;
; 646  :         const auto _Head  = _Myhead;
; 647  :         _Newnode->_Parent = _Loc._Parent;

  00006	8b 55 08	 mov	 edx, DWORD PTR __Loc$[ebp]
  00009	8b c1		 mov	 eax, ecx
  0000b	89 45 fc	 mov	 DWORD PTR _this$1$[ebp], eax
  0000e	8b 08		 mov	 ecx, DWORD PTR [eax]
  00010	ff 40 04	 inc	 DWORD PTR [eax+4]
  00013	8b 45 10	 mov	 eax, DWORD PTR __Newnode$[ebp]
  00016	89 4d f8	 mov	 DWORD PTR __Head$1$[ebp], ecx
  00019	89 50 04	 mov	 DWORD PTR [eax+4], edx

; 648  :         if (_Loc._Parent == _Head) { // first node in tree, just set head values

  0001c	3b d1		 cmp	 edx, ecx
  0001e	75 12		 jne	 SHORT $LN5@Insert_nod

; 649  :             _Head->_Left     = _Newnode;

  00020	89 01		 mov	 DWORD PTR [ecx], eax

; 650  :             _Head->_Parent   = _Newnode;

  00022	89 41 04	 mov	 DWORD PTR [ecx+4], eax

; 651  :             _Head->_Right    = _Newnode;

  00025	89 41 08	 mov	 DWORD PTR [ecx+8], eax

; 652  :             _Newnode->_Color = _Black; // the root is black

  00028	c6 40 0c 01	 mov	 BYTE PTR [eax+12], 1

; 711  :     }

  0002c	8b e5		 mov	 esp, ebp
  0002e	5d		 pop	 ebp
  0002f	c2 0c 00	 ret	 12			; 0000000cH
$LN5@Insert_nod:

; 653  :             return _Newnode;
; 654  :         }
; 655  : 
; 656  :         _STL_INTERNAL_CHECK(_Loc._Child != _Tree_child::_Unused);
; 657  :         if (_Loc._Child == _Tree_child::_Right) { // add to right of _Loc._Parent

  00032	83 7d 0c 00	 cmp	 DWORD PTR __Loc$[ebp+4], 0
  00036	75 0d		 jne	 SHORT $LN6@Insert_nod

; 658  :             _STL_INTERNAL_CHECK(_Loc._Parent->_Right->_Isnil);
; 659  :             _Loc._Parent->_Right = _Newnode;

  00038	89 42 08	 mov	 DWORD PTR [edx+8], eax

; 660  :             if (_Loc._Parent == _Head->_Right) { // remember rightmost node

  0003b	3b 51 08	 cmp	 edx, DWORD PTR [ecx+8]
  0003e	75 0d		 jne	 SHORT $LN9@Insert_nod

; 661  :                 _Head->_Right = _Newnode;

  00040	89 41 08	 mov	 DWORD PTR [ecx+8], eax

; 662  :             }
; 663  :         } else { // add to left of _Loc._Parent

  00043	eb 08		 jmp	 SHORT $LN9@Insert_nod
$LN6@Insert_nod:

; 664  :             _STL_INTERNAL_CHECK(_Loc._Parent->_Left->_Isnil);
; 665  :             _Loc._Parent->_Left = _Newnode;

  00045	89 02		 mov	 DWORD PTR [edx], eax

; 666  :             if (_Loc._Parent == _Head->_Left) { // remember leftmost node

  00047	3b 11		 cmp	 edx, DWORD PTR [ecx]
  00049	75 02		 jne	 SHORT $LN9@Insert_nod

; 667  :                 _Head->_Left = _Newnode;

  0004b	89 01		 mov	 DWORD PTR [ecx], eax
$LN9@Insert_nod:

; 668  :             }
; 669  :         }
; 670  : 
; 671  :         for (_Nodeptr _Pnode = _Newnode; _Pnode->_Parent->_Color == _Red;) {

  0004d	8b d0		 mov	 edx, eax
  0004f	8b 40 04	 mov	 eax, DWORD PTR [eax+4]
  00052	80 78 0c 00	 cmp	 BYTE PTR [eax+12], 0
  00056	0f 85 99 01 00
	00		 jne	 $LN3@Insert_nod
  0005c	53		 push	 ebx
  0005d	56		 push	 esi
  0005e	57		 push	 edi
  0005f	90		 npad	 1
$LL2@Insert_nod:

; 672  :             if (_Pnode->_Parent == _Pnode->_Parent->_Parent->_Left) { // fixup red-red in left subtree

  00060	8b 4a 04	 mov	 ecx, DWORD PTR [edx+4]
  00063	8d 7a 04	 lea	 edi, DWORD PTR [edx+4]
  00066	8b 71 04	 mov	 esi, DWORD PTR [ecx+4]
  00069	8d 59 04	 lea	 ebx, DWORD PTR [ecx+4]
  0006c	8b 06		 mov	 eax, DWORD PTR [esi]
  0006e	3b c8		 cmp	 ecx, eax
  00070	0f 85 ba 00 00
	00		 jne	 $LN10@Insert_nod

; 673  :                 const auto _Parent_sibling = _Pnode->_Parent->_Parent->_Right;

  00076	8b 46 08	 mov	 eax, DWORD PTR [esi+8]

; 674  :                 if (_Parent_sibling->_Color == _Red) { // parent's sibling has two red children, blacken both

  00079	80 78 0c 00	 cmp	 BYTE PTR [eax+12], 0
  0007d	0f 84 b3 00 00
	00		 je	 $LN53@Insert_nod

; 675  :                     _Pnode->_Parent->_Color          = _Black;
; 676  :                     _Parent_sibling->_Color          = _Black;
; 677  :                     _Pnode->_Parent->_Parent->_Color = _Red;
; 678  :                     _Pnode                           = _Pnode->_Parent->_Parent;
; 679  :                 } else { // parent's sibling has red and black children
; 680  :                     if (_Pnode == _Pnode->_Parent->_Right) { // rotate right child to left

  00083	8b 71 08	 mov	 esi, DWORD PTR [ecx+8]
  00086	3b d6		 cmp	 edx, esi
  00088	75 47		 jne	 SHORT $LN51@Insert_nod

; 460  :         _Wherenode->_Right = _Pnode->_Left;

  0008a	8b 06		 mov	 eax, DWORD PTR [esi]

; 681  :                         _Pnode = _Pnode->_Parent;

  0008c	8b d1		 mov	 edx, ecx

; 460  :         _Wherenode->_Right = _Pnode->_Left;

  0008e	89 42 08	 mov	 DWORD PTR [edx+8], eax

; 461  : 
; 462  :         if (!_Pnode->_Left->_Isnil) {

  00091	8b 06		 mov	 eax, DWORD PTR [esi]
  00093	80 78 0d 00	 cmp	 BYTE PTR [eax+13], 0
  00097	75 03		 jne	 SHORT $LN20@Insert_nod

; 463  :             _Pnode->_Left->_Parent = _Wherenode;

  00099	89 50 04	 mov	 DWORD PTR [eax+4], edx
$LN20@Insert_nod:

; 464  :         }
; 465  : 
; 466  :         _Pnode->_Parent = _Wherenode->_Parent;

  0009c	8b 03		 mov	 eax, DWORD PTR [ebx]
  0009e	89 46 04	 mov	 DWORD PTR [esi+4], eax

; 467  : 
; 468  :         if (_Wherenode == _Myhead->_Parent) {

  000a1	8b 45 fc	 mov	 eax, DWORD PTR _this$1$[ebp]
  000a4	8b 00		 mov	 eax, DWORD PTR [eax]
  000a6	3b 50 04	 cmp	 edx, DWORD PTR [eax+4]
  000a9	75 0b		 jne	 SHORT $LN21@Insert_nod

; 469  :             _Myhead->_Parent = _Pnode;

  000ab	89 70 04	 mov	 DWORD PTR [eax+4], esi

; 477  :         _Wherenode->_Parent = _Pnode;

  000ae	8b fb		 mov	 edi, ebx
  000b0	89 16		 mov	 DWORD PTR [esi], edx
  000b2	89 33		 mov	 DWORD PTR [ebx], esi
  000b4	eb 1d		 jmp	 SHORT $LN49@Insert_nod
$LN21@Insert_nod:

; 470  :         } else if (_Wherenode == _Wherenode->_Parent->_Left) {

  000b6	8b 03		 mov	 eax, DWORD PTR [ebx]
  000b8	3b 10		 cmp	 edx, DWORD PTR [eax]
  000ba	75 0a		 jne	 SHORT $LN23@Insert_nod

; 471  :             _Wherenode->_Parent->_Left = _Pnode;

  000bc	89 30		 mov	 DWORD PTR [eax], esi

; 477  :         _Wherenode->_Parent = _Pnode;

  000be	8b fb		 mov	 edi, ebx
  000c0	89 16		 mov	 DWORD PTR [esi], edx
  000c2	89 33		 mov	 DWORD PTR [ebx], esi
  000c4	eb 0d		 jmp	 SHORT $LN49@Insert_nod
$LN23@Insert_nod:

; 473  :             _Wherenode->_Parent->_Right = _Pnode;

  000c6	89 70 08	 mov	 DWORD PTR [eax+8], esi

; 477  :         _Wherenode->_Parent = _Pnode;

  000c9	8b fb		 mov	 edi, ebx
  000cb	89 16		 mov	 DWORD PTR [esi], edx
  000cd	89 33		 mov	 DWORD PTR [ebx], esi
  000cf	eb 02		 jmp	 SHORT $LN49@Insert_nod
$LN51@Insert_nod:
  000d1	8b f1		 mov	 esi, ecx
$LN49@Insert_nod:

; 682  :                         _Lrotate(_Pnode);
; 683  :                     }
; 684  : 
; 685  :                     _Pnode->_Parent->_Color          = _Black; // propagate red up

  000d3	c6 46 0c 01	 mov	 BYTE PTR [esi+12], 1

; 686  :                     _Pnode->_Parent->_Parent->_Color = _Red;

  000d7	8b 07		 mov	 eax, DWORD PTR [edi]
  000d9	8b 40 04	 mov	 eax, DWORD PTR [eax+4]
  000dc	c6 40 0c 00	 mov	 BYTE PTR [eax+12], 0

; 687  :                     _Rrotate(_Pnode->_Parent->_Parent);

  000e0	8b 07		 mov	 eax, DWORD PTR [edi]
  000e2	8b 48 04	 mov	 ecx, DWORD PTR [eax+4]

; 481  :         _Nodeptr _Pnode   = _Wherenode->_Left;

  000e5	8b 31		 mov	 esi, DWORD PTR [ecx]

; 482  :         _Wherenode->_Left = _Pnode->_Right;

  000e7	8b 46 08	 mov	 eax, DWORD PTR [esi+8]
  000ea	89 01		 mov	 DWORD PTR [ecx], eax

; 483  : 
; 484  :         if (!_Pnode->_Right->_Isnil) {

  000ec	8b 46 08	 mov	 eax, DWORD PTR [esi+8]
  000ef	80 78 0d 00	 cmp	 BYTE PTR [eax+13], 0
  000f3	75 03		 jne	 SHORT $LN27@Insert_nod

; 485  :             _Pnode->_Right->_Parent = _Wherenode;

  000f5	89 48 04	 mov	 DWORD PTR [eax+4], ecx
$LN27@Insert_nod:

; 486  :         }
; 487  : 
; 488  :         _Pnode->_Parent = _Wherenode->_Parent;

  000f8	8b 41 04	 mov	 eax, DWORD PTR [ecx+4]
  000fb	89 46 04	 mov	 DWORD PTR [esi+4], eax

; 489  : 
; 490  :         if (_Wherenode == _Myhead->_Parent) {

  000fe	8b 45 fc	 mov	 eax, DWORD PTR _this$1$[ebp]
  00101	8b 00		 mov	 eax, DWORD PTR [eax]
  00103	3b 48 04	 cmp	 ecx, DWORD PTR [eax+4]
  00106	75 0b		 jne	 SHORT $LN28@Insert_nod

; 491  :             _Myhead->_Parent = _Pnode;

  00108	89 70 04	 mov	 DWORD PTR [eax+4], esi

; 496  :         }
; 497  : 
; 498  :         _Pnode->_Right      = _Wherenode;

  0010b	89 4e 08	 mov	 DWORD PTR [esi+8], ecx

; 688  :                 }
; 689  :             } else { // fixup red-red in right subtree

  0010e	e9 cc 00 00 00	 jmp	 $LN52@Insert_nod
$LN28@Insert_nod:

; 492  :         } else if (_Wherenode == _Wherenode->_Parent->_Right) {

  00113	8b 41 04	 mov	 eax, DWORD PTR [ecx+4]
  00116	3b 48 08	 cmp	 ecx, DWORD PTR [eax+8]
  00119	75 0b		 jne	 SHORT $LN30@Insert_nod

; 493  :             _Wherenode->_Parent->_Right = _Pnode;

  0011b	89 70 08	 mov	 DWORD PTR [eax+8], esi

; 496  :         }
; 497  : 
; 498  :         _Pnode->_Right      = _Wherenode;

  0011e	89 4e 08	 mov	 DWORD PTR [esi+8], ecx

; 688  :                 }
; 689  :             } else { // fixup red-red in right subtree

  00121	e9 b9 00 00 00	 jmp	 $LN52@Insert_nod
$LN30@Insert_nod:

; 495  :             _Wherenode->_Parent->_Left = _Pnode;

  00126	89 30		 mov	 DWORD PTR [eax], esi

; 496  :         }
; 497  : 
; 498  :         _Pnode->_Right      = _Wherenode;

  00128	89 4e 08	 mov	 DWORD PTR [esi+8], ecx

; 688  :                 }
; 689  :             } else { // fixup red-red in right subtree

  0012b	e9 af 00 00 00	 jmp	 $LN52@Insert_nod
$LN10@Insert_nod:

; 690  :                 const auto _Parent_sibling = _Pnode->_Parent->_Parent->_Left;
; 691  :                 if (_Parent_sibling->_Color == _Red) { // parent's sibling has two red children, blacken both

  00130	80 78 0c 00	 cmp	 BYTE PTR [eax+12], 0
  00134	75 1b		 jne	 SHORT $LN15@Insert_nod
$LN53@Insert_nod:

; 668  :             }
; 669  :         }
; 670  : 
; 671  :         for (_Nodeptr _Pnode = _Newnode; _Pnode->_Parent->_Color == _Red;) {

  00136	c6 41 0c 01	 mov	 BYTE PTR [ecx+12], 1
  0013a	c6 40 0c 01	 mov	 BYTE PTR [eax+12], 1
  0013e	8b 07		 mov	 eax, DWORD PTR [edi]
  00140	8b 40 04	 mov	 eax, DWORD PTR [eax+4]
  00143	c6 40 0c 00	 mov	 BYTE PTR [eax+12], 0
  00147	8b 07		 mov	 eax, DWORD PTR [edi]
  00149	8b 50 04	 mov	 edx, DWORD PTR [eax+4]
  0014c	e9 91 00 00 00	 jmp	 $LN46@Insert_nod
$LN15@Insert_nod:

; 692  :                     _Pnode->_Parent->_Color          = _Black;
; 693  :                     _Parent_sibling->_Color          = _Black;
; 694  :                     _Pnode->_Parent->_Parent->_Color = _Red;
; 695  :                     _Pnode                           = _Pnode->_Parent->_Parent;
; 696  :                 } else { // parent's sibling has red and black children
; 697  :                     if (_Pnode == _Pnode->_Parent->_Left) { // rotate left child to right

  00151	8b 01		 mov	 eax, DWORD PTR [ecx]
  00153	3b d0		 cmp	 edx, eax
  00155	75 3e		 jne	 SHORT $LN39@Insert_nod

; 698  :                         _Pnode = _Pnode->_Parent;

  00157	8b d1		 mov	 edx, ecx

; 481  :         _Nodeptr _Pnode   = _Wherenode->_Left;

  00159	8b c8		 mov	 ecx, eax

; 482  :         _Wherenode->_Left = _Pnode->_Right;

  0015b	8b 41 08	 mov	 eax, DWORD PTR [ecx+8]
  0015e	89 02		 mov	 DWORD PTR [edx], eax

; 483  : 
; 484  :         if (!_Pnode->_Right->_Isnil) {

  00160	8b 41 08	 mov	 eax, DWORD PTR [ecx+8]
  00163	80 78 0d 00	 cmp	 BYTE PTR [eax+13], 0
  00167	75 03		 jne	 SHORT $LN34@Insert_nod

; 485  :             _Pnode->_Right->_Parent = _Wherenode;

  00169	89 50 04	 mov	 DWORD PTR [eax+4], edx
$LN34@Insert_nod:

; 486  :         }
; 487  : 
; 488  :         _Pnode->_Parent = _Wherenode->_Parent;

  0016c	8b 03		 mov	 eax, DWORD PTR [ebx]
  0016e	89 41 04	 mov	 DWORD PTR [ecx+4], eax

; 489  : 
; 490  :         if (_Wherenode == _Myhead->_Parent) {

  00171	8b 45 fc	 mov	 eax, DWORD PTR _this$1$[ebp]
  00174	8b 00		 mov	 eax, DWORD PTR [eax]
  00176	3b 50 04	 cmp	 edx, DWORD PTR [eax+4]
  00179	75 05		 jne	 SHORT $LN35@Insert_nod

; 491  :             _Myhead->_Parent = _Pnode;

  0017b	89 48 04	 mov	 DWORD PTR [eax+4], ecx
  0017e	eb 0e		 jmp	 SHORT $LN38@Insert_nod
$LN35@Insert_nod:

; 492  :         } else if (_Wherenode == _Wherenode->_Parent->_Right) {

  00180	8b 03		 mov	 eax, DWORD PTR [ebx]
  00182	3b 50 08	 cmp	 edx, DWORD PTR [eax+8]
  00185	75 05		 jne	 SHORT $LN37@Insert_nod

; 493  :             _Wherenode->_Parent->_Right = _Pnode;

  00187	89 48 08	 mov	 DWORD PTR [eax+8], ecx

; 494  :         } else {

  0018a	eb 02		 jmp	 SHORT $LN38@Insert_nod
$LN37@Insert_nod:

; 495  :             _Wherenode->_Parent->_Left = _Pnode;

  0018c	89 08		 mov	 DWORD PTR [eax], ecx
$LN38@Insert_nod:

; 496  :         }
; 497  : 
; 498  :         _Pnode->_Right      = _Wherenode;

  0018e	89 51 08	 mov	 DWORD PTR [ecx+8], edx

; 499  :         _Wherenode->_Parent = _Pnode;

  00191	8b fb		 mov	 edi, ebx
  00193	89 0b		 mov	 DWORD PTR [ebx], ecx
$LN39@Insert_nod:

; 699  :                         _Rrotate(_Pnode);
; 700  :                     }
; 701  : 
; 702  :                     _Pnode->_Parent->_Color          = _Black; // propagate red up

  00195	c6 41 0c 01	 mov	 BYTE PTR [ecx+12], 1

; 703  :                     _Pnode->_Parent->_Parent->_Color = _Red;

  00199	8b 07		 mov	 eax, DWORD PTR [edi]
  0019b	8b 40 04	 mov	 eax, DWORD PTR [eax+4]
  0019e	c6 40 0c 00	 mov	 BYTE PTR [eax+12], 0

; 704  :                     _Lrotate(_Pnode->_Parent->_Parent);

  001a2	8b 07		 mov	 eax, DWORD PTR [edi]
  001a4	8b 48 04	 mov	 ecx, DWORD PTR [eax+4]

; 459  :         _Nodeptr _Pnode    = _Wherenode->_Right;

  001a7	8b 71 08	 mov	 esi, DWORD PTR [ecx+8]

; 460  :         _Wherenode->_Right = _Pnode->_Left;

  001aa	8b 06		 mov	 eax, DWORD PTR [esi]
  001ac	89 41 08	 mov	 DWORD PTR [ecx+8], eax

; 461  : 
; 462  :         if (!_Pnode->_Left->_Isnil) {

  001af	8b 06		 mov	 eax, DWORD PTR [esi]
  001b1	80 78 0d 00	 cmp	 BYTE PTR [eax+13], 0
  001b5	75 03		 jne	 SHORT $LN41@Insert_nod

; 463  :             _Pnode->_Left->_Parent = _Wherenode;

  001b7	89 48 04	 mov	 DWORD PTR [eax+4], ecx
$LN41@Insert_nod:

; 464  :         }
; 465  : 
; 466  :         _Pnode->_Parent = _Wherenode->_Parent;

  001ba	8b 41 04	 mov	 eax, DWORD PTR [ecx+4]
  001bd	89 46 04	 mov	 DWORD PTR [esi+4], eax

; 467  : 
; 468  :         if (_Wherenode == _Myhead->_Parent) {

  001c0	8b 45 fc	 mov	 eax, DWORD PTR _this$1$[ebp]
  001c3	8b 00		 mov	 eax, DWORD PTR [eax]
  001c5	3b 48 04	 cmp	 ecx, DWORD PTR [eax+4]
  001c8	75 05		 jne	 SHORT $LN42@Insert_nod

; 469  :             _Myhead->_Parent = _Pnode;

  001ca	89 70 04	 mov	 DWORD PTR [eax+4], esi
  001cd	eb 0e		 jmp	 SHORT $LN45@Insert_nod
$LN42@Insert_nod:

; 470  :         } else if (_Wherenode == _Wherenode->_Parent->_Left) {

  001cf	8b 41 04	 mov	 eax, DWORD PTR [ecx+4]
  001d2	3b 08		 cmp	 ecx, DWORD PTR [eax]
  001d4	75 04		 jne	 SHORT $LN44@Insert_nod

; 471  :             _Wherenode->_Parent->_Left = _Pnode;

  001d6	89 30		 mov	 DWORD PTR [eax], esi

; 472  :         } else {

  001d8	eb 03		 jmp	 SHORT $LN45@Insert_nod
$LN44@Insert_nod:

; 473  :             _Wherenode->_Parent->_Right = _Pnode;

  001da	89 70 08	 mov	 DWORD PTR [eax+8], esi
$LN45@Insert_nod:

; 474  :         }
; 475  : 
; 476  :         _Pnode->_Left       = _Wherenode;

  001dd	89 0e		 mov	 DWORD PTR [esi], ecx
$LN52@Insert_nod:

; 668  :             }
; 669  :         }
; 670  : 
; 671  :         for (_Nodeptr _Pnode = _Newnode; _Pnode->_Parent->_Color == _Red;) {

  001df	89 71 04	 mov	 DWORD PTR [ecx+4], esi
$LN46@Insert_nod:
  001e2	8b 42 04	 mov	 eax, DWORD PTR [edx+4]
  001e5	80 78 0c 00	 cmp	 BYTE PTR [eax+12], 0
  001e9	0f 84 71 fe ff
	ff		 je	 $LL2@Insert_nod
  001ef	8b 4d f8	 mov	 ecx, DWORD PTR __Head$1$[ebp]
  001f2	5f		 pop	 edi
  001f3	5e		 pop	 esi
  001f4	5b		 pop	 ebx
$LN3@Insert_nod:

; 705  :                 }
; 706  :             }
; 707  :         }
; 708  : 
; 709  :         _Head->_Parent->_Color = _Black; // root is always black

  001f5	8b 41 04	 mov	 eax, DWORD PTR [ecx+4]
  001f8	c6 40 0c 01	 mov	 BYTE PTR [eax+12], 1

; 710  :         return _Newnode;

  001fc	8b 45 10	 mov	 eax, DWORD PTR __Newnode$[ebp]

; 711  :     }

  001ff	8b e5		 mov	 esp, ebp
  00201	5d		 pop	 ebp
  00202	c2 0c 00	 ret	 12			; 0000000cH
?_Insert_node@?$_Tree_val@U?$_Tree_simple_types@U?$pair@$$CBKV?$basic_string@DU?$char_traits@D@std@@V?$allocator@D@2@@std@@@std@@@std@@@std@@QAEPAU?$_Tree_node@U?$pair@$$CBKV?$basic_string@DU?$char_traits@D@std@@V?$allocator@D@2@@std@@@std@@PAX@2@U?$_Tree_id@PAU?$_Tree_node@U?$pair@$$CBKV?$basic_string@DU?$char_traits@D@std@@V?$allocator@D@2@@std@@@std@@PAX@std@@@2@QAU32@@Z ENDP ; std::_Tree_val<std::_Tree_simple_types<std::pair<unsigned long const ,std::basic_string<char,std::char_traits<char>,std::allocator<char> > > > >::_Insert_node
_TEXT	ENDS
; Function compile flags: /Ogtp
; File C:\Program Files (x86)\Microsoft Visual Studio\2019\Community\VC\Tools\MSVC\14.28.29333\include\vector
; File C:\Program Files (x86)\Microsoft Visual Studio\2019\Community\VC\Tools\MSVC\14.28.29333\include\xmemory
; File C:\Program Files (x86)\Microsoft Visual Studio\2019\Community\VC\Tools\MSVC\14.28.29333\include\vector
; File C:\Program Files (x86)\Microsoft Visual Studio\2019\Community\VC\Tools\MSVC\14.28.29333\include\xmemory
; File C:\Program Files (x86)\Microsoft Visual Studio\2019\Community\VC\Tools\MSVC\14.28.29333\include\vector
;	COMDAT ??1?$vector@V?$basic_string@DU?$char_traits@D@std@@V?$allocator@D@2@@std@@V?$allocator@V?$basic_string@DU?$char_traits@D@std@@V?$allocator@D@2@@std@@@2@@std@@QAE@XZ
_TEXT	SEGMENT
??1?$vector@V?$basic_string@DU?$char_traits@D@std@@V?$allocator@D@2@@std@@V?$allocator@V?$basic_string@DU?$char_traits@D@std@@V?$allocator@D@2@@std@@@2@@std@@QAE@XZ PROC ; std::vector<std::basic_string<char,std::char_traits<char>,std::allocator<char> >,std::allocator<std::basic_string<char,std::char_traits<char>,std::allocator<char> > > >::~vector<std::basic_string<char,std::char_traits<char>,std::allocator<char> >,std::allocator<std::basic_string<char,std::char_traits<char>,std::allocator<char> > > >, COMDAT
; _this$ = ecx

; 672  :     ~vector() noexcept {

  00000	57		 push	 edi
  00001	8b f9		 mov	 edi, ecx

; 1694 :         if (_Myfirst) { // destroy and deallocate old array

  00003	8b 07		 mov	 eax, DWORD PTR [edi]
  00005	85 c0		 test	 eax, eax
  00007	74 45		 je	 SHORT $LN4@vector

; 1612 :         _Destroy_range(_First, _Last, _Getal());

  00009	57		 push	 edi
  0000a	ff 77 04	 push	 DWORD PTR [edi+4]
  0000d	50		 push	 eax
  0000e	e8 00 00 00 00	 call	 ??$_Destroy_range@V?$allocator@V?$basic_string@DU?$char_traits@D@std@@V?$allocator@D@2@@std@@@std@@@std@@YAXPAV?$basic_string@DU?$char_traits@D@std@@V?$allocator@D@2@@0@QAV10@AAV?$allocator@V?$basic_string@DU?$char_traits@D@std@@V?$allocator@D@2@@std@@@0@@Z ; std::_Destroy_range<std::allocator<std::basic_string<char,std::char_traits<char>,std::allocator<char> > > >

; 1696 :             _Getal().deallocate(_Myfirst, static_cast<size_type>(_Myend - _Myfirst));

  00013	8b 4f 08	 mov	 ecx, DWORD PTR [edi+8]
  00016	b8 ab aa aa 2a	 mov	 eax, 715827883		; 2aaaaaabH
  0001b	2b 0f		 sub	 ecx, DWORD PTR [edi]
  0001d	f7 e9		 imul	 ecx
  0001f	c1 fa 02	 sar	 edx, 2
  00022	8b c2		 mov	 eax, edx
  00024	c1 e8 1f	 shr	 eax, 31			; 0000001fH
  00027	03 c2		 add	 eax, edx
; File C:\Program Files (x86)\Microsoft Visual Studio\2019\Community\VC\Tools\MSVC\14.28.29333\include\xmemory

; 810  :         _Deallocate<_New_alignof<_Ty>>(_Ptr, sizeof(_Ty) * _Count);

  00029	8d 04 40	 lea	 eax, DWORD PTR [eax+eax*2]
  0002c	c1 e0 03	 shl	 eax, 3
  0002f	50		 push	 eax
  00030	ff 37		 push	 DWORD PTR [edi]
  00032	e8 00 00 00 00	 call	 ??$_Deallocate@$07$0A@@std@@YAXPAXI@Z ; std::_Deallocate<8,0>
; File C:\Program Files (x86)\Microsoft Visual Studio\2019\Community\VC\Tools\MSVC\14.28.29333\include\vector

; 1698 :             _Myfirst = pointer();

  00037	c7 07 00 00 00
	00		 mov	 DWORD PTR [edi], 0
; File C:\Program Files (x86)\Microsoft Visual Studio\2019\Community\VC\Tools\MSVC\14.28.29333\include\xmemory

; 810  :         _Deallocate<_New_alignof<_Ty>>(_Ptr, sizeof(_Ty) * _Count);

  0003d	83 c4 14	 add	 esp, 20			; 00000014H
; File C:\Program Files (x86)\Microsoft Visual Studio\2019\Community\VC\Tools\MSVC\14.28.29333\include\vector

; 1699 :             _Mylast  = pointer();

  00040	c7 47 04 00 00
	00 00		 mov	 DWORD PTR [edi+4], 0

; 1700 :             _Myend   = pointer();

  00047	c7 47 08 00 00
	00 00		 mov	 DWORD PTR [edi+8], 0
$LN4@vector:
  0004e	5f		 pop	 edi

; 673  :         _Tidy();
; 674  : #if _ITERATOR_DEBUG_LEVEL != 0
; 675  :         auto&& _Alproxy = _GET_PROXY_ALLOCATOR(_Alty, _Getal());
; 676  :         _Delete_plain_internal(_Alproxy, _STD exchange(_Mypair._Myval2._Myproxy, nullptr));
; 677  : #endif // _ITERATOR_DEBUG_LEVEL != 0
; 678  :     }

  0004f	c3		 ret	 0
??1?$vector@V?$basic_string@DU?$char_traits@D@std@@V?$allocator@D@2@@std@@V?$allocator@V?$basic_string@DU?$char_traits@D@std@@V?$allocator@D@2@@std@@@2@@std@@QAE@XZ ENDP ; std::vector<std::basic_string<char,std::char_traits<char>,std::allocator<char> >,std::allocator<std::basic_string<char,std::char_traits<char>,std::allocator<char> > > >::~vector<std::basic_string<char,std::char_traits<char>,std::allocator<char> >,std::allocator<std::basic_string<char,std::char_traits<char>,std::allocator<char> > > >
_TEXT	ENDS
; Function compile flags: /Ogtp
; File C:\Program Files (x86)\Microsoft Visual Studio\2019\Community\VC\Tools\MSVC\14.28.29333\include\xtree
;	COMDAT ?_Throw_tree_length_error@std@@YAXXZ
_TEXT	SEGMENT
?_Throw_tree_length_error@std@@YAXXZ PROC		; std::_Throw_tree_length_error, COMDAT

; 415  :     _Xlength_error("map/set too long");

  00000	68 00 00 00 00	 push	 OFFSET ??_C@_0BB@GCADKGJO@map?1set?5too?5long@
  00005	e8 00 00 00 00	 call	 ?_Xlength_error@std@@YAXPBD@Z ; std::_Xlength_error
$LN3@Throw_tree:
  0000a	cc		 int	 3
?_Throw_tree_length_error@std@@YAXXZ ENDP		; std::_Throw_tree_length_error
_TEXT	ENDS
; Function compile flags: /Ogtp
; File C:\Program Files (x86)\Microsoft Visual Studio\2019\Community\VC\Tools\MSVC\14.28.29333\include\xstring
; File C:\Program Files (x86)\Microsoft Visual Studio\2019\Community\VC\Tools\MSVC\14.28.29333\include\utility
; File C:\Program Files (x86)\Microsoft Visual Studio\2019\Community\VC\Tools\MSVC\14.28.29333\include\xstring
;	COMDAT ?compare@?$basic_string@DU?$char_traits@D@std@@V?$allocator@D@2@@std@@QBEHQBD@Z
_TEXT	SEGMENT
__Ptr$ = 8						; size = 4
?compare@?$basic_string@DU?$char_traits@D@std@@V?$allocator@D@2@@std@@QBEHQBD@Z PROC ; std::basic_string<char,std::char_traits<char>,std::allocator<char> >::compare, COMDAT
; _this$ = ecx

; 4233 :     _NODISCARD int compare(_In_z_ const _Elem* const _Ptr) const noexcept /* strengthened */ {

  00000	55		 push	 ebp
  00001	8b ec		 mov	 ebp, esp
  00003	53		 push	 ebx
  00004	56		 push	 esi

; 389  :         return _CSTD strlen(reinterpret_cast<const char*>(_First));

  00005	8b 75 08	 mov	 esi, DWORD PTR __Ptr$[ebp]

; 4233 :     _NODISCARD int compare(_In_z_ const _Elem* const _Ptr) const noexcept /* strengthened */ {

  00008	8b d1		 mov	 edx, ecx
  0000a	57		 push	 edi

; 389  :         return _CSTD strlen(reinterpret_cast<const char*>(_First));

  0000b	8b fe		 mov	 edi, esi
  0000d	8d 4f 01	 lea	 ecx, DWORD PTR [edi+1]
$LL19@compare:
  00010	8a 07		 mov	 al, BYTE PTR [edi]
  00012	47		 inc	 edi
  00013	84 c0		 test	 al, al
  00015	75 f9		 jne	 SHORT $LL19@compare
  00017	2b f9		 sub	 edi, ecx

; 2227 :         return _BUF_SIZE <= _Myres;

  00019	83 7a 14 10	 cmp	 DWORD PTR [edx+20], 16	; 00000010H

; 2218 :         const value_type* _Result = _Bx._Buf;

  0001d	8b ca		 mov	 ecx, edx

; 2219 :         if (_Large_string_engaged()) {

  0001f	72 02		 jb	 SHORT $LN6@compare

; 2220 :             _Result = _Unfancy(_Bx._Ptr);

  00021	8b 0a		 mov	 ecx, DWORD PTR [edx]
$LN6@compare:

; 4234 :         // compare [0, size()) with [_Ptr, <null>)
; 4235 :         return _Traits_compare<_Traits>(_Mypair._Myval2._Myptr(), _Mypair._Myval2._Mysize, _Ptr, _Traits::length(_Ptr));

  00023	8b 5a 10	 mov	 ebx, DWORD PTR [edx+16]
; File C:\Program Files (x86)\Microsoft Visual Studio\2019\Community\VC\Tools\MSVC\14.28.29333\include\utility

; 68   :     return _Right < _Left ? _Right : _Left;

  00026	3b fb		 cmp	 edi, ebx
  00028	8b d3		 mov	 edx, ebx
  0002a	0f 42 d7	 cmovb	 edx, edi
; File C:\Program Files (x86)\Microsoft Visual Studio\2019\Community\VC\Tools\MSVC\14.28.29333\include\xstring

; 369  :         return _CSTD memcmp(_First1, _First2, _Count);

  0002d	83 ea 04	 sub	 edx, 4
  00030	72 11		 jb	 SHORT $LN22@compare
$LL23@compare:
  00032	8b 01		 mov	 eax, DWORD PTR [ecx]
  00034	3b 06		 cmp	 eax, DWORD PTR [esi]
  00036	75 10		 jne	 SHORT $LN21@compare
  00038	83 c1 04	 add	 ecx, 4
  0003b	83 c6 04	 add	 esi, 4
  0003e	83 ea 04	 sub	 edx, 4
  00041	73 ef		 jae	 SHORT $LL23@compare
$LN22@compare:
  00043	83 fa fc	 cmp	 edx, -4			; fffffffcH
  00046	74 34		 je	 SHORT $LN20@compare
$LN21@compare:
  00048	8a 01		 mov	 al, BYTE PTR [ecx]
  0004a	3a 06		 cmp	 al, BYTE PTR [esi]
  0004c	75 27		 jne	 SHORT $LN24@compare
  0004e	83 fa fd	 cmp	 edx, -3			; fffffffdH
  00051	74 29		 je	 SHORT $LN20@compare
  00053	8a 41 01	 mov	 al, BYTE PTR [ecx+1]
  00056	3a 46 01	 cmp	 al, BYTE PTR [esi+1]
  00059	75 1a		 jne	 SHORT $LN24@compare
  0005b	83 fa fe	 cmp	 edx, -2			; fffffffeH
  0005e	74 1c		 je	 SHORT $LN20@compare
  00060	8a 41 02	 mov	 al, BYTE PTR [ecx+2]
  00063	3a 46 02	 cmp	 al, BYTE PTR [esi+2]
  00066	75 0d		 jne	 SHORT $LN24@compare
  00068	83 fa ff	 cmp	 edx, -1
  0006b	74 0f		 je	 SHORT $LN20@compare
  0006d	8a 41 03	 mov	 al, BYTE PTR [ecx+3]
  00070	3a 46 03	 cmp	 al, BYTE PTR [esi+3]
  00073	74 07		 je	 SHORT $LN20@compare
$LN24@compare:
  00075	1b c0		 sbb	 eax, eax
  00077	83 c8 01	 or	 eax, 1
  0007a	eb 02		 jmp	 SHORT $LN25@compare
$LN20@compare:
  0007c	33 c0		 xor	 eax, eax
$LN25@compare:

; 570  :     if (_Ans != 0) {

  0007e	85 c0		 test	 eax, eax
  00080	75 12		 jne	 SHORT $LN13@compare

; 571  :         return _Ans;
; 572  :     }
; 573  : 
; 574  :     if (_Left_size < _Right_size) {

  00082	3b fb		 cmp	 edi, ebx
  00084	76 0a		 jbe	 SHORT $LN26@compare

; 4236 :     }

  00086	5f		 pop	 edi
  00087	5e		 pop	 esi
  00088	83 c8 ff	 or	 eax, -1
  0008b	5b		 pop	 ebx
  0008c	5d		 pop	 ebp
  0008d	c2 04 00	 ret	 4
$LN26@compare:

; 578  :     if (_Left_size > _Right_size) {

  00090	1b c0		 sbb	 eax, eax
  00092	f7 d8		 neg	 eax
$LN13@compare:
  00094	5f		 pop	 edi

; 4236 :     }

  00095	5e		 pop	 esi
  00096	5b		 pop	 ebx
  00097	5d		 pop	 ebp
  00098	c2 04 00	 ret	 4
?compare@?$basic_string@DU?$char_traits@D@std@@V?$allocator@D@2@@std@@QBEHQBD@Z ENDP ; std::basic_string<char,std::char_traits<char>,std::allocator<char> >::compare
_TEXT	ENDS
; Function compile flags: /Ogtp
; File C:\Program Files (x86)\Microsoft Visual Studio\2019\Community\VC\Tools\MSVC\14.28.29333\include\xstring
; File C:\Program Files (x86)\Microsoft Visual Studio\2019\Community\VC\Tools\MSVC\14.28.29333\include\utility
; File C:\Program Files (x86)\Microsoft Visual Studio\2019\Community\VC\Tools\MSVC\14.28.29333\include\xstring
; File C:\Program Files (x86)\Microsoft Visual Studio\2019\Community\VC\Tools\MSVC\14.28.29333\include\xmemory
; File C:\Program Files (x86)\Microsoft Visual Studio\2019\Community\VC\Tools\MSVC\14.28.29333\include\xstring
; File C:\Program Files (x86)\Microsoft Visual Studio\2019\Community\VC\Tools\MSVC\14.28.29333\include\xmemory
; File C:\Program Files (x86)\Microsoft Visual Studio\2019\Community\VC\Tools\MSVC\14.28.29333\include\xstring
; File C:\Program Files (x86)\Microsoft Visual Studio\2019\Community\VC\Tools\MSVC\14.28.29333\include\xmemory
; File C:\Program Files (x86)\Microsoft Visual Studio\2019\Community\VC\Tools\MSVC\14.28.29333\include\xstring
;	COMDAT ?insert@?$basic_string@DU?$char_traits@D@std@@V?$allocator@D@2@@std@@QAEAAV12@IQBDI@Z
_TEXT	SEGMENT
tv519 = -16						; size = 4
__New_ptr$1 = -12					; size = 4
tv518 = -8						; size = 4
__Old$1$ = -4						; size = 4
__Result$1$ = 8						; size = 4
__Ptr_shifted_after$1$ = 8				; size = 4
__Off$ = 8						; size = 4
__Ptr$ = 12						; size = 4
tv522 = 16						; size = 4
tv520 = 16						; size = 4
$T2 = 16						; size = 4
__Insert_at$1$ = 16					; size = 4
__Count$ = 16						; size = 4
?insert@?$basic_string@DU?$char_traits@D@std@@V?$allocator@D@2@@std@@QAEAAV12@IQBDI@Z PROC ; std::basic_string<char,std::char_traits<char>,std::allocator<char> >::insert, COMDAT
; _this$ = ecx

; 3156 :         const size_type _Off, _In_reads_(_Count) const _Elem* const _Ptr, _CRT_GUARDOVERFLOW const size_type _Count) {

  00000	55		 push	 ebp
  00001	8b ec		 mov	 ebp, esp
  00003	83 ec 10	 sub	 esp, 16			; 00000010H
  00006	53		 push	 ebx
  00007	56		 push	 esi
  00008	57		 push	 edi
  00009	8b f9		 mov	 edi, ecx

; 2231 :         if (_Mysize < _Off) {

  0000b	8b 4d 08	 mov	 ecx, DWORD PTR __Off$[ebp]
  0000e	8b 77 10	 mov	 esi, DWORD PTR [edi+16]
  00011	3b f1		 cmp	 esi, ecx
  00013	0f 82 a0 01 00
	00		 jb	 $LN61@insert

; 3157 :         // insert [_Ptr, _Ptr + _Count) at _Off
; 3158 :         _Mypair._Myval2._Check_offset(_Off);
; 3159 :         const size_type _Old_size = _Mypair._Myval2._Mysize;
; 3160 :         if (_Count <= _Mypair._Myval2._Myres - _Old_size) {

  00019	8b 57 14	 mov	 edx, DWORD PTR [edi+20]
  0001c	8b c2		 mov	 eax, edx
  0001e	8b 5d 10	 mov	 ebx, DWORD PTR __Count$[ebp]
  00021	2b c6		 sub	 eax, esi
  00023	89 55 fc	 mov	 DWORD PTR __Old$1$[ebp], edx
  00026	3b d8		 cmp	 ebx, eax
  00028	0f 87 8a 00 00
	00		 ja	 $LN2@insert

; 2209 :         value_type* _Result = _Bx._Buf;

  0002e	89 7d 08	 mov	 DWORD PTR __Result$1$[ebp], edi

; 3161 :             _Mypair._Myval2._Mysize = _Old_size + _Count;

  00031	8d 04 1e	 lea	 eax, DWORD PTR [esi+ebx]
  00034	89 47 10	 mov	 DWORD PTR [edi+16], eax

; 2209 :         value_type* _Result = _Bx._Buf;

  00037	8b c7		 mov	 eax, edi

; 2227 :         return _BUF_SIZE <= _Myres;

  00039	83 fa 10	 cmp	 edx, 16			; 00000010H

; 2210 :         if (_Large_string_engaged()) {

  0003c	72 05		 jb	 SHORT $LN14@insert

; 2211 :             _Result = _Unfancy(_Bx._Ptr);

  0003e	8b 07		 mov	 eax, DWORD PTR [edi]
  00040	89 45 08	 mov	 DWORD PTR __Result$1$[ebp], eax
$LN14@insert:

; 3162 :             _Elem* const _Old_ptr   = _Mypair._Myval2._Myptr();
; 3163 :             _Elem* const _Insert_at = _Old_ptr + _Off;

  00043	8d 14 08	 lea	 edx, DWORD PTR [eax+ecx]

; 3164 :             // the range [_Ptr, _Ptr + _Ptr_shifted_after) is left alone by moving the suffix out,
; 3165 :             // while the range [_Ptr + _Ptr_shifted_after, _Ptr + _Count) shifts down by _Count
; 3166 :             size_type _Ptr_shifted_after;
; 3167 :             if (_Ptr + _Count <= _Insert_at
; 3168 :                 || _Ptr > _Old_ptr + _Old_size) { // inserted content is before the shifted region, or does not alias

  00046	8b 45 0c	 mov	 eax, DWORD PTR __Ptr$[ebp]
  00049	03 c3		 add	 eax, ebx
  0004b	89 55 10	 mov	 DWORD PTR __Insert_at$1$[ebp], edx
  0004e	3b c2		 cmp	 eax, edx
  00050	76 20		 jbe	 SHORT $LN5@insert
  00052	8b 45 08	 mov	 eax, DWORD PTR __Result$1$[ebp]
  00055	03 c6		 add	 eax, esi
  00057	39 45 0c	 cmp	 DWORD PTR __Ptr$[ebp], eax
  0005a	77 16		 ja	 SHORT $LN5@insert

; 3170 :             } else if (_Insert_at <= _Ptr) { // all of [_Ptr, _Ptr + _Count) shifts

  0005c	3b 55 0c	 cmp	 edx, DWORD PTR __Ptr$[ebp]
  0005f	77 07		 ja	 SHORT $LN6@insert

; 3171 :                 _Ptr_shifted_after = 0;

  00061	33 c0		 xor	 eax, eax
  00063	89 45 08	 mov	 DWORD PTR __Ptr_shifted_after$1$[ebp], eax

; 3172 :             } else { // [_Ptr, _Ptr + _Count) contains _Insert_at, so only the part after _Insert_at shifts

  00066	eb 0d		 jmp	 SHORT $LN7@insert
$LN6@insert:

; 3173 :                 _Ptr_shifted_after = static_cast<size_type>(_Insert_at - _Ptr);

  00068	8b c2		 mov	 eax, edx
  0006a	2b 45 0c	 sub	 eax, DWORD PTR __Ptr$[ebp]
  0006d	89 45 08	 mov	 DWORD PTR __Ptr_shifted_after$1$[ebp], eax
  00070	eb 03		 jmp	 SHORT $LN7@insert
$LN5@insert:

; 3169 :                 _Ptr_shifted_after = _Count; // none of _Ptr's data shifts

  00072	89 5d 08	 mov	 DWORD PTR __Ptr_shifted_after$1$[ebp], ebx
$LN7@insert:

; 119  :         _CSTD memmove(_First1, _First2, _Count * sizeof(_Elem));

  00075	2b f1		 sub	 esi, ecx

; 3174 :             }
; 3175 : 
; 3176 :             _Traits::move(_Insert_at + _Count, _Insert_at, _Old_size - _Off + 1); // move suffix + null down

  00077	8d 04 1a	 lea	 eax, DWORD PTR [edx+ebx]
  0007a	46		 inc	 esi

; 119  :         _CSTD memmove(_First1, _First2, _Count * sizeof(_Elem));

  0007b	56		 push	 esi
  0007c	52		 push	 edx
  0007d	50		 push	 eax
  0007e	e8 00 00 00 00	 call	 _memmove

; 62   :         _CSTD memcpy(_First1, _First2, _Count * sizeof(_Elem));

  00083	8b 75 08	 mov	 esi, DWORD PTR __Ptr_shifted_after$1$[ebp]
  00086	56		 push	 esi
  00087	ff 75 0c	 push	 DWORD PTR __Ptr$[ebp]
  0008a	ff 75 10	 push	 DWORD PTR __Insert_at$1$[ebp]
  0008d	e8 00 00 00 00	 call	 _memcpy

; 3177 :             _Traits::copy(_Insert_at, _Ptr, _Ptr_shifted_after);
; 3178 :             _Traits::copy(

  00092	8b c3		 mov	 eax, ebx
  00094	2b c6		 sub	 eax, esi

; 62   :         _CSTD memcpy(_First1, _First2, _Count * sizeof(_Elem));

  00096	50		 push	 eax

; 3177 :             _Traits::copy(_Insert_at, _Ptr, _Ptr_shifted_after);
; 3178 :             _Traits::copy(

  00097	8b 45 0c	 mov	 eax, DWORD PTR __Ptr$[ebp]
  0009a	03 c6		 add	 eax, esi
  0009c	03 c3		 add	 eax, ebx

; 62   :         _CSTD memcpy(_First1, _First2, _Count * sizeof(_Elem));

  0009e	50		 push	 eax

; 3177 :             _Traits::copy(_Insert_at, _Ptr, _Ptr_shifted_after);
; 3178 :             _Traits::copy(

  0009f	8b 45 10	 mov	 eax, DWORD PTR __Insert_at$1$[ebp]
  000a2	03 c6		 add	 eax, esi

; 62   :         _CSTD memcpy(_First1, _First2, _Count * sizeof(_Elem));

  000a4	50		 push	 eax
  000a5	e8 00 00 00 00	 call	 _memcpy
  000aa	83 c4 24	 add	 esp, 36			; 00000024H

; 3190 :             },
; 3191 :             _Off, _Ptr, _Count);
; 3192 :     }

  000ad	8b c7		 mov	 eax, edi
  000af	5f		 pop	 edi
  000b0	5e		 pop	 esi
  000b1	5b		 pop	 ebx
  000b2	8b e5		 mov	 esp, ebp
  000b4	5d		 pop	 ebp
  000b5	c2 0c 00	 ret	 12			; 0000000cH
$LN2@insert:

; 4333 :         if (max_size() - _Old_size < _Size_increase) {

  000b8	b8 ff ff ff 7f	 mov	 eax, 2147483647		; 7fffffffH
  000bd	2b c6		 sub	 eax, esi
  000bf	3b c3		 cmp	 eax, ebx
  000c1	0f 82 f7 00 00
	00		 jb	 $LN62@insert

; 4335 :         }
; 4336 : 
; 4337 :         const size_type _New_size     = _Old_size + _Size_increase;

  000c7	8d 0c 1e	 lea	 ecx, DWORD PTR [esi+ebx]

; 4285 :         const size_type _Masked = _Requested | _ALLOC_MASK;

  000ca	83 c9 0f	 or	 ecx, 15			; 0000000fH
  000cd	81 f9 ff ff ff
	7f		 cmp	 ecx, 2147483647		; 7fffffffH

; 4286 :         if (_Masked > _Max) { // the mask overflows, settle for max_size()

  000d3	76 07		 jbe	 SHORT $LN32@insert

; 4287 :             return _Max;

  000d5	b9 ff ff ff 7f	 mov	 ecx, 2147483647		; 7fffffffH
  000da	eb 24		 jmp	 SHORT $LN58@insert
$LN32@insert:

; 4288 :         }
; 4289 : 
; 4290 :         if (_Old > _Max - _Old / 2) { // similarly, geometric overflows

  000dc	8b c2		 mov	 eax, edx
  000de	d1 e8		 shr	 eax, 1
  000e0	89 45 10	 mov	 DWORD PTR tv522[ebp], eax
  000e3	b8 ff ff ff 7f	 mov	 eax, 2147483647		; 7fffffffH
  000e8	2b 45 10	 sub	 eax, DWORD PTR tv522[ebp]
  000eb	3b d0		 cmp	 edx, eax
  000ed	76 07		 jbe	 SHORT $LN33@insert

; 4291 :             return _Max;

  000ef	b9 ff ff ff 7f	 mov	 ecx, 2147483647		; 7fffffffH
  000f4	eb 0a		 jmp	 SHORT $LN58@insert
$LN33@insert:

; 4292 :         }
; 4293 : 
; 4294 :         return (_STD max)(_Masked, _Old + _Old / 2);

  000f6	8b 45 10	 mov	 eax, DWORD PTR tv522[ebp]
  000f9	03 c2		 add	 eax, edx
; File C:\Program Files (x86)\Microsoft Visual Studio\2019\Community\VC\Tools\MSVC\14.28.29333\include\utility

; 44   :     return _Left < _Right ? _Right : _Left;

  000fb	3b c8		 cmp	 ecx, eax
  000fd	0f 42 c8	 cmovb	 ecx, eax
$LN58@insert:
; File C:\Program Files (x86)\Microsoft Visual Studio\2019\Community\VC\Tools\MSVC\14.28.29333\include\xstring

; 4341 :         const pointer _New_ptr        = _Al.allocate(_New_capacity + 1); // throws

  00100	8d 41 01	 lea	 eax, DWORD PTR [ecx+1]
  00103	89 4d 10	 mov	 DWORD PTR $T2[ebp], ecx
; File C:\Program Files (x86)\Microsoft Visual Studio\2019\Community\VC\Tools\MSVC\14.28.29333\include\xmemory

; 814  :         return static_cast<_Ty*>(_Allocate<_New_alignof<_Ty>>(_Get_size_of_n<sizeof(_Ty)>(_Count)));

  00106	50		 push	 eax
  00107	e8 00 00 00 00	 call	 ??$_Allocate@$07U_Default_allocate_traits@std@@$0A@@std@@YAPAXI@Z ; std::_Allocate<8,std::_Default_allocate_traits,0>
; File C:\Program Files (x86)\Microsoft Visual Studio\2019\Community\VC\Tools\MSVC\14.28.29333\include\xstring

; 4344 :         _My_data._Myres       = _New_capacity;

  0010c	8b 4d 10	 mov	 ecx, DWORD PTR $T2[ebp]
  0010f	8b d0		 mov	 edx, eax
  00111	8d 04 1e	 lea	 eax, DWORD PTR [esi+ebx]
  00114	89 4f 14	 mov	 DWORD PTR [edi+20], ecx
  00117	89 47 10	 mov	 DWORD PTR [edi+16], eax
; File C:\Program Files (x86)\Microsoft Visual Studio\2019\Community\VC\Tools\MSVC\14.28.29333\include\xmemory

; 814  :         return static_cast<_Ty*>(_Allocate<_New_alignof<_Ty>>(_Get_size_of_n<sizeof(_Ty)>(_Count)));

  0011a	83 c4 04	 add	 esp, 4
; File C:\Program Files (x86)\Microsoft Visual Studio\2019\Community\VC\Tools\MSVC\14.28.29333\include\xstring

; 4345 :         _Elem* const _Raw_new = _Unfancy(_New_ptr);

  0011d	8b 45 08	 mov	 eax, DWORD PTR __Off$[ebp]
  00120	2b f0		 sub	 esi, eax
  00122	46		 inc	 esi
  00123	89 55 f4	 mov	 DWORD PTR __New_ptr$1[ebp], edx
  00126	89 75 f0	 mov	 DWORD PTR tv519[ebp], esi

; 4346 :         if (_BUF_SIZE <= _Old_capacity) {

  00129	50		 push	 eax
  0012a	8d 0c 02	 lea	 ecx, DWORD PTR [edx+eax]
  0012d	89 4d 10	 mov	 DWORD PTR tv520[ebp], ecx
  00130	03 cb		 add	 ecx, ebx
  00132	83 7d fc 10	 cmp	 DWORD PTR __Old$1$[ebp], 16 ; 00000010H
  00136	89 4d f8	 mov	 DWORD PTR tv518[ebp], ecx
  00139	72 44		 jb	 SHORT $LN26@insert

; 4347 :             const pointer _Old_ptr = _My_data._Bx._Ptr;

  0013b	8b 37		 mov	 esi, DWORD PTR [edi]

; 62   :         _CSTD memcpy(_First1, _First2, _Count * sizeof(_Elem));

  0013d	56		 push	 esi
  0013e	52		 push	 edx
  0013f	e8 00 00 00 00	 call	 _memcpy
  00144	53		 push	 ebx
  00145	ff 75 0c	 push	 DWORD PTR __Ptr$[ebp]
  00148	ff 75 10	 push	 DWORD PTR tv520[ebp]
  0014b	e8 00 00 00 00	 call	 _memcpy
  00150	ff 75 f0	 push	 DWORD PTR tv519[ebp]

; 3189 :                 _Traits::copy(_New_ptr + _Off + _Count, _Old_ptr + _Off, _Old_size - _Off + 1);

  00153	8b 45 08	 mov	 eax, DWORD PTR __Off$[ebp]
  00156	03 c6		 add	 eax, esi

; 62   :         _CSTD memcpy(_First1, _First2, _Count * sizeof(_Elem));

  00158	50		 push	 eax
  00159	ff 75 f8	 push	 DWORD PTR tv518[ebp]
  0015c	e8 00 00 00 00	 call	 _memcpy

; 4349 :             _Al.deallocate(_Old_ptr, _Old_capacity + 1);

  00161	8b 45 fc	 mov	 eax, DWORD PTR __Old$1$[ebp]
  00164	40		 inc	 eax
; File C:\Program Files (x86)\Microsoft Visual Studio\2019\Community\VC\Tools\MSVC\14.28.29333\include\xmemory

; 810  :         _Deallocate<_New_alignof<_Ty>>(_Ptr, sizeof(_Ty) * _Count);

  00165	50		 push	 eax
  00166	56		 push	 esi
  00167	e8 00 00 00 00	 call	 ??$_Deallocate@$07$0A@@std@@YAXPAXI@Z ; std::_Deallocate<8,0>
; File C:\Program Files (x86)\Microsoft Visual Studio\2019\Community\VC\Tools\MSVC\14.28.29333\include\xstring

; 4350 :             _My_data._Bx._Ptr = _New_ptr;

  0016c	8b 45 f4	 mov	 eax, DWORD PTR __New_ptr$1[ebp]

; 3190 :             },
; 3191 :             _Off, _Ptr, _Count);
; 3192 :     }

  0016f	83 c4 2c	 add	 esp, 44			; 0000002cH

; 4350 :             _My_data._Bx._Ptr = _New_ptr;

  00172	89 07		 mov	 DWORD PTR [edi], eax

; 3190 :             },
; 3191 :             _Off, _Ptr, _Count);
; 3192 :     }

  00174	8b c7		 mov	 eax, edi
  00176	5f		 pop	 edi
  00177	5e		 pop	 esi
  00178	5b		 pop	 ebx
  00179	8b e5		 mov	 esp, ebp
  0017b	5d		 pop	 ebp
  0017c	c2 0c 00	 ret	 12			; 0000000cH
$LN26@insert:

; 62   :         _CSTD memcpy(_First1, _First2, _Count * sizeof(_Elem));

  0017f	57		 push	 edi
  00180	52		 push	 edx
  00181	e8 00 00 00 00	 call	 _memcpy
  00186	53		 push	 ebx
  00187	ff 75 0c	 push	 DWORD PTR __Ptr$[ebp]
  0018a	ff 75 10	 push	 DWORD PTR tv520[ebp]
  0018d	e8 00 00 00 00	 call	 _memcpy

; 3189 :                 _Traits::copy(_New_ptr + _Off + _Count, _Old_ptr + _Off, _Old_size - _Off + 1);

  00192	8b 45 08	 mov	 eax, DWORD PTR __Off$[ebp]

; 62   :         _CSTD memcpy(_First1, _First2, _Count * sizeof(_Elem));

  00195	56		 push	 esi

; 3189 :                 _Traits::copy(_New_ptr + _Off + _Count, _Old_ptr + _Off, _Old_size - _Off + 1);

  00196	03 c7		 add	 eax, edi

; 62   :         _CSTD memcpy(_First1, _First2, _Count * sizeof(_Elem));

  00198	50		 push	 eax
  00199	ff 75 f8	 push	 DWORD PTR tv518[ebp]
  0019c	e8 00 00 00 00	 call	 _memcpy

; 4353 :             _Construct_in_place(_My_data._Bx._Ptr, _New_ptr);

  001a1	8d 45 f4	 lea	 eax, DWORD PTR __New_ptr$1[ebp]
  001a4	50		 push	 eax
  001a5	57		 push	 edi
  001a6	e8 00 00 00 00	 call	 ??$_Construct_in_place@PADABQAD@std@@YAXAAPADABQAD@Z ; std::_Construct_in_place<char *,char * const &>

; 3190 :             },
; 3191 :             _Off, _Ptr, _Count);
; 3192 :     }

  001ab	83 c4 2c	 add	 esp, 44			; 0000002cH
  001ae	8b c7		 mov	 eax, edi
  001b0	5f		 pop	 edi
  001b1	5e		 pop	 esi
  001b2	5b		 pop	 ebx
  001b3	8b e5		 mov	 esp, ebp
  001b5	5d		 pop	 ebp
  001b6	c2 0c 00	 ret	 12			; 0000000cH
$LN61@insert:

; 2232 :             _Xran();

  001b9	e8 00 00 00 00	 call	 ?_Xran@?$_String_val@U?$_Simple_types@D@std@@@std@@SAXXZ ; std::_String_val<std::_Simple_types<char> >::_Xran
$LN62@insert:

; 4334 :             _Xlen_string(); // result too long

  001be	e8 00 00 00 00	 call	 ?_Xlen_string@std@@YAXXZ ; std::_Xlen_string
$LN57@insert:
  001c3	cc		 int	 3
?insert@?$basic_string@DU?$char_traits@D@std@@V?$allocator@D@2@@std@@QAEAAV12@IQBDI@Z ENDP ; std::basic_string<char,std::char_traits<char>,std::allocator<char> >::insert
_TEXT	ENDS
; Function compile flags: /Ogtp
; File C:\Program Files (x86)\Microsoft Visual Studio\2019\Community\VC\Tools\MSVC\14.28.29333\include\xstring
; File C:\Program Files (x86)\Microsoft Visual Studio\2019\Community\VC\Tools\MSVC\14.28.29333\include\utility
; File C:\Program Files (x86)\Microsoft Visual Studio\2019\Community\VC\Tools\MSVC\14.28.29333\include\xstring
; File C:\Program Files (x86)\Microsoft Visual Studio\2019\Community\VC\Tools\MSVC\14.28.29333\include\xmemory
; File C:\Program Files (x86)\Microsoft Visual Studio\2019\Community\VC\Tools\MSVC\14.28.29333\include\xstring
; File C:\Program Files (x86)\Microsoft Visual Studio\2019\Community\VC\Tools\MSVC\14.28.29333\include\xmemory
; File C:\Program Files (x86)\Microsoft Visual Studio\2019\Community\VC\Tools\MSVC\14.28.29333\include\xstring
;	COMDAT ?assign@?$basic_string@DU?$char_traits@D@std@@V?$allocator@D@2@@std@@QAEAAV12@QBDI@Z
_TEXT	SEGMENT
__Old$1$ = -4						; size = 4
__Ptr$ = 8						; size = 4
__New_ptr$1 = 12					; size = 4
__Count$ = 12						; size = 4
?assign@?$basic_string@DU?$char_traits@D@std@@V?$allocator@D@2@@std@@QAEAAV12@QBDI@Z PROC ; std::basic_string<char,std::char_traits<char>,std::allocator<char> >::assign, COMDAT
; _this$ = ecx

; 3042 :     basic_string& assign(_In_reads_(_Count) const _Elem* const _Ptr, _CRT_GUARDOVERFLOW const size_type _Count) {

  00000	55		 push	 ebp
  00001	8b ec		 mov	 ebp, esp
  00003	51		 push	 ecx
  00004	53		 push	 ebx
  00005	56		 push	 esi
  00006	8b f1		 mov	 esi, ecx
  00008	57		 push	 edi

; 3043 :         // assign [_Ptr, _Ptr + _Count)
; 3044 :         if (_Count <= _Mypair._Myval2._Myres) {

  00009	8b 7d 0c	 mov	 edi, DWORD PTR __Count$[ebp]
  0000c	8b 4e 14	 mov	 ecx, DWORD PTR [esi+20]
  0000f	89 4d fc	 mov	 DWORD PTR __Old$1$[ebp], ecx
  00012	3b f9		 cmp	 edi, ecx
  00014	77 28		 ja	 SHORT $LN2@assign

; 2209 :         value_type* _Result = _Bx._Buf;

  00016	8b de		 mov	 ebx, esi

; 2227 :         return _BUF_SIZE <= _Myres;

  00018	83 f9 10	 cmp	 ecx, 16			; 00000010H

; 2210 :         if (_Large_string_engaged()) {

  0001b	72 02		 jb	 SHORT $LN5@assign

; 2211 :             _Result = _Unfancy(_Bx._Ptr);

  0001d	8b 1e		 mov	 ebx, DWORD PTR [esi]
$LN5@assign:

; 119  :         _CSTD memmove(_First1, _First2, _Count * sizeof(_Elem));

  0001f	57		 push	 edi
  00020	ff 75 08	 push	 DWORD PTR __Ptr$[ebp]

; 3045 :             _Elem* const _Old_ptr   = _Mypair._Myval2._Myptr();
; 3046 :             _Mypair._Myval2._Mysize = _Count;

  00023	89 7e 10	 mov	 DWORD PTR [esi+16], edi

; 119  :         _CSTD memmove(_First1, _First2, _Count * sizeof(_Elem));

  00026	53		 push	 ebx
  00027	e8 00 00 00 00	 call	 _memmove
  0002c	83 c4 0c	 add	 esp, 12			; 0000000cH

; 3047 :             _Traits::move(_Old_ptr, _Ptr, _Count);
; 3048 :             _Traits::assign(_Old_ptr[_Count], _Elem());

  0002f	c6 04 3b 00	 mov	 BYTE PTR [ebx+edi], 0

; 3059 :     }

  00033	8b c6		 mov	 eax, esi
  00035	5f		 pop	 edi
  00036	5e		 pop	 esi
  00037	5b		 pop	 ebx
  00038	8b e5		 mov	 esp, ebp
  0003a	5d		 pop	 ebp
  0003b	c2 08 00	 ret	 8
$LN2@assign:

; 4305 :         if (_New_size > max_size()) {

  0003e	81 ff ff ff ff
	7f		 cmp	 edi, 2147483647		; 7fffffffH
  00044	0f 87 91 00 00
	00		 ja	 $LN36@assign

; 4285 :         const size_type _Masked = _Requested | _ALLOC_MASK;

  0004a	8b df		 mov	 ebx, edi
  0004c	83 cb 0f	 or	 ebx, 15			; 0000000fH
  0004f	81 fb ff ff ff
	7f		 cmp	 ebx, 2147483647		; 7fffffffH

; 4286 :         if (_Masked > _Max) { // the mask overflows, settle for max_size()

  00055	76 07		 jbe	 SHORT $LN19@assign

; 4287 :             return _Max;

  00057	bb ff ff ff 7f	 mov	 ebx, 2147483647		; 7fffffffH
  0005c	eb 1e		 jmp	 SHORT $LN18@assign
$LN19@assign:

; 4288 :         }
; 4289 : 
; 4290 :         if (_Old > _Max - _Old / 2) { // similarly, geometric overflows

  0005e	8b d1		 mov	 edx, ecx
  00060	b8 ff ff ff 7f	 mov	 eax, 2147483647		; 7fffffffH
  00065	d1 ea		 shr	 edx, 1
  00067	2b c2		 sub	 eax, edx
  00069	3b c8		 cmp	 ecx, eax
  0006b	76 07		 jbe	 SHORT $LN20@assign

; 4291 :             return _Max;

  0006d	bb ff ff ff 7f	 mov	 ebx, 2147483647		; 7fffffffH
  00072	eb 08		 jmp	 SHORT $LN18@assign
$LN20@assign:

; 4292 :         }
; 4293 : 
; 4294 :         return (_STD max)(_Masked, _Old + _Old / 2);

  00074	8d 04 0a	 lea	 eax, DWORD PTR [edx+ecx]
; File C:\Program Files (x86)\Microsoft Visual Studio\2019\Community\VC\Tools\MSVC\14.28.29333\include\utility

; 44   :     return _Left < _Right ? _Right : _Left;

  00077	3b d8		 cmp	 ebx, eax
  00079	0f 42 d8	 cmovb	 ebx, eax
$LN18@assign:
; File C:\Program Files (x86)\Microsoft Visual Studio\2019\Community\VC\Tools\MSVC\14.28.29333\include\xstring

; 4312 :         const pointer _New_ptr        = _Al.allocate(_New_capacity + 1); // throws

  0007c	8d 43 01	 lea	 eax, DWORD PTR [ebx+1]
; File C:\Program Files (x86)\Microsoft Visual Studio\2019\Community\VC\Tools\MSVC\14.28.29333\include\xmemory

; 814  :         return static_cast<_Ty*>(_Allocate<_New_alignof<_Ty>>(_Get_size_of_n<sizeof(_Ty)>(_Count)));

  0007f	50		 push	 eax
  00080	e8 00 00 00 00	 call	 ??$_Allocate@$07U_Default_allocate_traits@std@@$0A@@std@@YAPAXI@Z ; std::_Allocate<8,std::_Default_allocate_traits,0>
; File C:\Program Files (x86)\Microsoft Visual Studio\2019\Community\VC\Tools\MSVC\14.28.29333\include\xstring

; 62   :         _CSTD memcpy(_First1, _First2, _Count * sizeof(_Elem));

  00085	57		 push	 edi
  00086	ff 75 08	 push	 DWORD PTR __Ptr$[ebp]

; 4312 :         const pointer _New_ptr        = _Al.allocate(_New_capacity + 1); // throws

  00089	89 45 0c	 mov	 DWORD PTR __New_ptr$1[ebp], eax

; 62   :         _CSTD memcpy(_First1, _First2, _Count * sizeof(_Elem));

  0008c	50		 push	 eax

; 4314 :         _Mypair._Myval2._Mysize = _New_size;

  0008d	89 7e 10	 mov	 DWORD PTR [esi+16], edi

; 4315 :         _Mypair._Myval2._Myres  = _New_capacity;

  00090	89 5e 14	 mov	 DWORD PTR [esi+20], ebx

; 62   :         _CSTD memcpy(_First1, _First2, _Count * sizeof(_Elem));

  00093	e8 00 00 00 00	 call	 _memcpy

; 3056 :                 _Traits::assign(_New_ptr[_Count], _Elem());

  00098	8b 5d 0c	 mov	 ebx, DWORD PTR __New_ptr$1[ebp]

; 62   :         _CSTD memcpy(_First1, _First2, _Count * sizeof(_Elem));

  0009b	83 c4 10	 add	 esp, 16			; 00000010H

; 4317 :         if (_BUF_SIZE <= _Old_capacity) {

  0009e	8b 45 fc	 mov	 eax, DWORD PTR __Old$1$[ebp]

; 3056 :                 _Traits::assign(_New_ptr[_Count], _Elem());

  000a1	c6 04 3b 00	 mov	 BYTE PTR [ebx+edi], 0

; 4317 :         if (_BUF_SIZE <= _Old_capacity) {

  000a5	83 f8 10	 cmp	 eax, 16			; 00000010H
  000a8	72 19		 jb	 SHORT $LN13@assign

; 4318 :             _Al.deallocate(_Mypair._Myval2._Bx._Ptr, _Old_capacity + 1);

  000aa	40		 inc	 eax
; File C:\Program Files (x86)\Microsoft Visual Studio\2019\Community\VC\Tools\MSVC\14.28.29333\include\xmemory

; 810  :         _Deallocate<_New_alignof<_Ty>>(_Ptr, sizeof(_Ty) * _Count);

  000ab	50		 push	 eax
  000ac	ff 36		 push	 DWORD PTR [esi]
  000ae	e8 00 00 00 00	 call	 ??$_Deallocate@$07$0A@@std@@YAXPAXI@Z ; std::_Deallocate<8,0>
; File C:\Program Files (x86)\Microsoft Visual Studio\2019\Community\VC\Tools\MSVC\14.28.29333\include\xstring

; 3059 :     }

  000b3	83 c4 08	 add	 esp, 8

; 4319 :             _Mypair._Myval2._Bx._Ptr = _New_ptr;

  000b6	89 1e		 mov	 DWORD PTR [esi], ebx

; 3059 :     }

  000b8	8b c6		 mov	 eax, esi
  000ba	5f		 pop	 edi
  000bb	5e		 pop	 esi
  000bc	5b		 pop	 ebx
  000bd	8b e5		 mov	 esp, ebp
  000bf	5d		 pop	 ebp
  000c0	c2 08 00	 ret	 8
$LN13@assign:

; 4321 :             _Construct_in_place(_Mypair._Myval2._Bx._Ptr, _New_ptr);

  000c3	8d 45 0c	 lea	 eax, DWORD PTR __New_ptr$1[ebp]
  000c6	50		 push	 eax
  000c7	56		 push	 esi
  000c8	e8 00 00 00 00	 call	 ??$_Construct_in_place@PADABQAD@std@@YAXAAPADABQAD@Z ; std::_Construct_in_place<char *,char * const &>

; 3059 :     }

  000cd	83 c4 08	 add	 esp, 8
  000d0	8b c6		 mov	 eax, esi
  000d2	5f		 pop	 edi
  000d3	5e		 pop	 esi
  000d4	5b		 pop	 ebx
  000d5	8b e5		 mov	 esp, ebp
  000d7	5d		 pop	 ebp
  000d8	c2 08 00	 ret	 8
$LN36@assign:

; 4306 :             _Xlen_string(); // result too long

  000db	e8 00 00 00 00	 call	 ?_Xlen_string@std@@YAXXZ ; std::_Xlen_string
$LN33@assign:
  000e0	cc		 int	 3
?assign@?$basic_string@DU?$char_traits@D@std@@V?$allocator@D@2@@std@@QAEAAV12@QBDI@Z ENDP ; std::basic_string<char,std::char_traits<char>,std::allocator<char> >::assign
_TEXT	ENDS
; Function compile flags: /Ogtp
; File C:\Program Files (x86)\Microsoft Visual Studio\2019\Community\VC\Tools\MSVC\14.28.29333\include\xstring
; File C:\Program Files (x86)\Microsoft Visual Studio\2019\Community\VC\Tools\MSVC\14.28.29333\include\utility
; File C:\Program Files (x86)\Microsoft Visual Studio\2019\Community\VC\Tools\MSVC\14.28.29333\include\xstring
; File C:\Program Files (x86)\Microsoft Visual Studio\2019\Community\VC\Tools\MSVC\14.28.29333\include\xmemory
; File C:\Program Files (x86)\Microsoft Visual Studio\2019\Community\VC\Tools\MSVC\14.28.29333\include\xstring
; File C:\Program Files (x86)\Microsoft Visual Studio\2019\Community\VC\Tools\MSVC\14.28.29333\include\xmemory
; File C:\Program Files (x86)\Microsoft Visual Studio\2019\Community\VC\Tools\MSVC\14.28.29333\include\xstring
; File C:\Program Files (x86)\Microsoft Visual Studio\2019\Community\VC\Tools\MSVC\14.28.29333\include\xmemory
; File C:\Program Files (x86)\Microsoft Visual Studio\2019\Community\VC\Tools\MSVC\14.28.29333\include\xstring
;	COMDAT ?append@?$basic_string@DU?$char_traits@D@std@@V?$allocator@D@2@@std@@QAEAAV12@QBDI@Z
_TEXT	SEGMENT
__Old_size$1$ = -16					; size = 4
__New_ptr$1 = -12					; size = 4
tv448 = -8						; size = 4
__Old$1$ = -4						; size = 4
__Ptr$ = 8						; size = 4
tv452 = 12						; size = 4
tv449 = 12						; size = 4
$T2 = 12						; size = 4
__Count$ = 12						; size = 4
?append@?$basic_string@DU?$char_traits@D@std@@V?$allocator@D@2@@std@@QAEAAV12@QBDI@Z PROC ; std::basic_string<char,std::char_traits<char>,std::allocator<char> >::append, COMDAT
; _this$ = ecx

; 2935 :     basic_string& append(_In_reads_(_Count) const _Elem* const _Ptr, _CRT_GUARDOVERFLOW const size_type _Count) {

  00000	55		 push	 ebp
  00001	8b ec		 mov	 ebp, esp
  00003	83 ec 10	 sub	 esp, 16			; 00000010H
  00006	53		 push	 ebx

; 2936 :         // append [_Ptr, _Ptr + _Count)
; 2937 :         const size_type _Old_size = _Mypair._Myval2._Mysize;
; 2938 :         if (_Count <= _Mypair._Myval2._Myres - _Old_size) {

  00007	8b 5d 0c	 mov	 ebx, DWORD PTR __Count$[ebp]
  0000a	56		 push	 esi
  0000b	57		 push	 edi
  0000c	8b f9		 mov	 edi, ecx
  0000e	8b 57 14	 mov	 edx, DWORD PTR [edi+20]
  00011	8b c2		 mov	 eax, edx
  00013	8b 77 10	 mov	 esi, DWORD PTR [edi+16]
  00016	2b c6		 sub	 eax, esi
  00018	89 75 f0	 mov	 DWORD PTR __Old_size$1$[ebp], esi
  0001b	89 55 fc	 mov	 DWORD PTR __Old$1$[ebp], edx
  0001e	3b d8		 cmp	 ebx, eax
  00020	77 2d		 ja	 SHORT $LN2@append

; 2939 :             _Mypair._Myval2._Mysize = _Old_size + _Count;

  00022	8d 04 1e	 lea	 eax, DWORD PTR [esi+ebx]
  00025	89 47 10	 mov	 DWORD PTR [edi+16], eax

; 2209 :         value_type* _Result = _Bx._Buf;

  00028	8b c7		 mov	 eax, edi

; 2227 :         return _BUF_SIZE <= _Myres;

  0002a	83 fa 10	 cmp	 edx, 16			; 00000010H

; 2210 :         if (_Large_string_engaged()) {

  0002d	72 02		 jb	 SHORT $LN5@append

; 2211 :             _Result = _Unfancy(_Bx._Ptr);

  0002f	8b 07		 mov	 eax, DWORD PTR [edi]
$LN5@append:

; 119  :         _CSTD memmove(_First1, _First2, _Count * sizeof(_Elem));

  00031	53		 push	 ebx
  00032	ff 75 08	 push	 DWORD PTR __Ptr$[ebp]

; 2940 :             _Elem* const _Old_ptr   = _Mypair._Myval2._Myptr();
; 2941 :             _Traits::move(_Old_ptr + _Old_size, _Ptr, _Count);

  00035	03 f0		 add	 esi, eax

; 119  :         _CSTD memmove(_First1, _First2, _Count * sizeof(_Elem));

  00037	56		 push	 esi
  00038	e8 00 00 00 00	 call	 _memmove
  0003d	83 c4 0c	 add	 esp, 12			; 0000000cH

; 2942 :             _Traits::assign(_Old_ptr[_Old_size + _Count], _Elem());

  00040	c6 04 1e 00	 mov	 BYTE PTR [esi+ebx], 0

; 2953 :             },
; 2954 :             _Ptr, _Count);
; 2955 :     }

  00044	8b c7		 mov	 eax, edi
  00046	5f		 pop	 edi
  00047	5e		 pop	 esi
  00048	5b		 pop	 ebx
  00049	8b e5		 mov	 esp, ebp
  0004b	5d		 pop	 ebp
  0004c	c2 08 00	 ret	 8
$LN2@append:

; 4333 :         if (max_size() - _Old_size < _Size_increase) {

  0004f	b8 ff ff ff 7f	 mov	 eax, 2147483647		; 7fffffffH
  00054	2b c6		 sub	 eax, esi
  00056	3b c3		 cmp	 eax, ebx
  00058	0f 82 d6 00 00
	00		 jb	 $LN45@append

; 4335 :         }
; 4336 : 
; 4337 :         const size_type _New_size     = _Old_size + _Size_increase;

  0005e	8d 0c 1e	 lea	 ecx, DWORD PTR [esi+ebx]

; 4285 :         const size_type _Masked = _Requested | _ALLOC_MASK;

  00061	83 c9 0f	 or	 ecx, 15			; 0000000fH
  00064	81 f9 ff ff ff
	7f		 cmp	 ecx, 2147483647		; 7fffffffH

; 4286 :         if (_Masked > _Max) { // the mask overflows, settle for max_size()

  0006a	76 07		 jbe	 SHORT $LN19@append

; 4287 :             return _Max;

  0006c	b9 ff ff ff 7f	 mov	 ecx, 2147483647		; 7fffffffH
  00071	eb 24		 jmp	 SHORT $LN42@append
$LN19@append:

; 4288 :         }
; 4289 : 
; 4290 :         if (_Old > _Max - _Old / 2) { // similarly, geometric overflows

  00073	8b c2		 mov	 eax, edx
  00075	d1 e8		 shr	 eax, 1
  00077	89 45 0c	 mov	 DWORD PTR tv452[ebp], eax
  0007a	b8 ff ff ff 7f	 mov	 eax, 2147483647		; 7fffffffH
  0007f	2b 45 0c	 sub	 eax, DWORD PTR tv452[ebp]
  00082	3b d0		 cmp	 edx, eax
  00084	76 07		 jbe	 SHORT $LN20@append

; 4291 :             return _Max;

  00086	b9 ff ff ff 7f	 mov	 ecx, 2147483647		; 7fffffffH
  0008b	eb 0a		 jmp	 SHORT $LN42@append
$LN20@append:

; 4292 :         }
; 4293 : 
; 4294 :         return (_STD max)(_Masked, _Old + _Old / 2);

  0008d	8b 45 0c	 mov	 eax, DWORD PTR tv452[ebp]
  00090	03 c2		 add	 eax, edx
; File C:\Program Files (x86)\Microsoft Visual Studio\2019\Community\VC\Tools\MSVC\14.28.29333\include\utility

; 44   :     return _Left < _Right ? _Right : _Left;

  00092	3b c8		 cmp	 ecx, eax
  00094	0f 42 c8	 cmovb	 ecx, eax
$LN42@append:
; File C:\Program Files (x86)\Microsoft Visual Studio\2019\Community\VC\Tools\MSVC\14.28.29333\include\xstring

; 4341 :         const pointer _New_ptr        = _Al.allocate(_New_capacity + 1); // throws

  00097	8d 41 01	 lea	 eax, DWORD PTR [ecx+1]
  0009a	89 4d 0c	 mov	 DWORD PTR $T2[ebp], ecx
; File C:\Program Files (x86)\Microsoft Visual Studio\2019\Community\VC\Tools\MSVC\14.28.29333\include\xmemory

; 814  :         return static_cast<_Ty*>(_Allocate<_New_alignof<_Ty>>(_Get_size_of_n<sizeof(_Ty)>(_Count)));

  0009d	50		 push	 eax
  0009e	e8 00 00 00 00	 call	 ??$_Allocate@$07U_Default_allocate_traits@std@@$0A@@std@@YAPAXI@Z ; std::_Allocate<8,std::_Default_allocate_traits,0>
; File C:\Program Files (x86)\Microsoft Visual Studio\2019\Community\VC\Tools\MSVC\14.28.29333\include\xstring

; 4343 :         _My_data._Mysize      = _New_size;

  000a3	8d 0c 1e	 lea	 ecx, DWORD PTR [esi+ebx]
  000a6	89 45 f4	 mov	 DWORD PTR __New_ptr$1[ebp], eax
  000a9	89 4f 10	 mov	 DWORD PTR [edi+16], ecx
; File C:\Program Files (x86)\Microsoft Visual Studio\2019\Community\VC\Tools\MSVC\14.28.29333\include\xmemory

; 814  :         return static_cast<_Ty*>(_Allocate<_New_alignof<_Ty>>(_Get_size_of_n<sizeof(_Ty)>(_Count)));

  000ac	83 c4 04	 add	 esp, 4
; File C:\Program Files (x86)\Microsoft Visual Studio\2019\Community\VC\Tools\MSVC\14.28.29333\include\xstring

; 4344 :         _My_data._Myres       = _New_capacity;

  000af	8b 4d 0c	 mov	 ecx, DWORD PTR $T2[ebp]
  000b2	89 4f 14	 mov	 DWORD PTR [edi+20], ecx

; 4345 :         _Elem* const _Raw_new = _Unfancy(_New_ptr);

  000b5	8d 0c 30	 lea	 ecx, DWORD PTR [eax+esi]
  000b8	89 4d 0c	 mov	 DWORD PTR tv449[ebp], ecx
  000bb	03 cb		 add	 ecx, ebx

; 4346 :         if (_BUF_SIZE <= _Old_capacity) {

  000bd	83 7d fc 10	 cmp	 DWORD PTR __Old$1$[ebp], 16 ; 00000010H
  000c1	89 4d f8	 mov	 DWORD PTR tv448[ebp], ecx
  000c4	72 3c		 jb	 SHORT $LN13@append

; 62   :         _CSTD memcpy(_First1, _First2, _Count * sizeof(_Elem));

  000c6	ff 75 f0	 push	 DWORD PTR __Old_size$1$[ebp]

; 4347 :             const pointer _Old_ptr = _My_data._Bx._Ptr;

  000c9	8b 37		 mov	 esi, DWORD PTR [edi]

; 62   :         _CSTD memcpy(_First1, _First2, _Count * sizeof(_Elem));

  000cb	56		 push	 esi
  000cc	50		 push	 eax
  000cd	e8 00 00 00 00	 call	 _memcpy
  000d2	53		 push	 ebx
  000d3	ff 75 08	 push	 DWORD PTR __Ptr$[ebp]
  000d6	ff 75 0c	 push	 DWORD PTR tv449[ebp]
  000d9	e8 00 00 00 00	 call	 _memcpy

; 2952 :                 _Traits::assign(_New_ptr[_Old_size + _Count], _Elem());

  000de	8b 45 f8	 mov	 eax, DWORD PTR tv448[ebp]
  000e1	c6 00 00	 mov	 BYTE PTR [eax], 0

; 4349 :             _Al.deallocate(_Old_ptr, _Old_capacity + 1);

  000e4	8b 45 fc	 mov	 eax, DWORD PTR __Old$1$[ebp]
  000e7	40		 inc	 eax
; File C:\Program Files (x86)\Microsoft Visual Studio\2019\Community\VC\Tools\MSVC\14.28.29333\include\xmemory

; 810  :         _Deallocate<_New_alignof<_Ty>>(_Ptr, sizeof(_Ty) * _Count);

  000e8	50		 push	 eax
  000e9	56		 push	 esi
  000ea	e8 00 00 00 00	 call	 ??$_Deallocate@$07$0A@@std@@YAXPAXI@Z ; std::_Deallocate<8,0>
; File C:\Program Files (x86)\Microsoft Visual Studio\2019\Community\VC\Tools\MSVC\14.28.29333\include\xstring

; 4350 :             _My_data._Bx._Ptr = _New_ptr;

  000ef	8b 45 f4	 mov	 eax, DWORD PTR __New_ptr$1[ebp]

; 2953 :             },
; 2954 :             _Ptr, _Count);
; 2955 :     }

  000f2	83 c4 20	 add	 esp, 32			; 00000020H

; 4350 :             _My_data._Bx._Ptr = _New_ptr;

  000f5	89 07		 mov	 DWORD PTR [edi], eax

; 2953 :             },
; 2954 :             _Ptr, _Count);
; 2955 :     }

  000f7	8b c7		 mov	 eax, edi
  000f9	5f		 pop	 edi
  000fa	5e		 pop	 esi
  000fb	5b		 pop	 ebx
  000fc	8b e5		 mov	 esp, ebp
  000fe	5d		 pop	 ebp
  000ff	c2 08 00	 ret	 8
$LN13@append:

; 62   :         _CSTD memcpy(_First1, _First2, _Count * sizeof(_Elem));

  00102	56		 push	 esi
  00103	57		 push	 edi
  00104	50		 push	 eax
  00105	e8 00 00 00 00	 call	 _memcpy
  0010a	53		 push	 ebx
  0010b	ff 75 08	 push	 DWORD PTR __Ptr$[ebp]
  0010e	ff 75 0c	 push	 DWORD PTR tv449[ebp]
  00111	e8 00 00 00 00	 call	 _memcpy

; 2952 :                 _Traits::assign(_New_ptr[_Old_size + _Count], _Elem());

  00116	8b 45 f8	 mov	 eax, DWORD PTR tv448[ebp]
  00119	c6 00 00	 mov	 BYTE PTR [eax], 0

; 4353 :             _Construct_in_place(_My_data._Bx._Ptr, _New_ptr);

  0011c	8d 45 f4	 lea	 eax, DWORD PTR __New_ptr$1[ebp]
  0011f	50		 push	 eax
  00120	57		 push	 edi
  00121	e8 00 00 00 00	 call	 ??$_Construct_in_place@PADABQAD@std@@YAXAAPADABQAD@Z ; std::_Construct_in_place<char *,char * const &>

; 2953 :             },
; 2954 :             _Ptr, _Count);
; 2955 :     }

  00126	83 c4 20	 add	 esp, 32			; 00000020H
  00129	8b c7		 mov	 eax, edi
  0012b	5f		 pop	 edi
  0012c	5e		 pop	 esi
  0012d	5b		 pop	 ebx
  0012e	8b e5		 mov	 esp, ebp
  00130	5d		 pop	 ebp
  00131	c2 08 00	 ret	 8
$LN45@append:

; 4334 :             _Xlen_string(); // result too long

  00134	e8 00 00 00 00	 call	 ?_Xlen_string@std@@YAXXZ ; std::_Xlen_string
$LN41@append:
  00139	cc		 int	 3
?append@?$basic_string@DU?$char_traits@D@std@@V?$allocator@D@2@@std@@QAEAAV12@QBDI@Z ENDP ; std::basic_string<char,std::char_traits<char>,std::allocator<char> >::append
_TEXT	ENDS
; Function compile flags: /Ogtp
; File C:\Program Files (x86)\Microsoft Visual Studio\2019\Community\VC\Tools\MSVC\14.28.29333\include\xstring
; File C:\Program Files (x86)\Microsoft Visual Studio\2019\Community\VC\Tools\MSVC\14.28.29333\include\utility
; File C:\Program Files (x86)\Microsoft Visual Studio\2019\Community\VC\Tools\MSVC\14.28.29333\include\xstring
; File C:\Program Files (x86)\Microsoft Visual Studio\2019\Community\VC\Tools\MSVC\14.28.29333\include\xmemory
; File C:\Program Files (x86)\Microsoft Visual Studio\2019\Community\VC\Tools\MSVC\14.28.29333\include\xstring
; File C:\Program Files (x86)\Microsoft Visual Studio\2019\Community\VC\Tools\MSVC\14.28.29333\include\xmemory
; File C:\Program Files (x86)\Microsoft Visual Studio\2019\Community\VC\Tools\MSVC\14.28.29333\include\xstring
;	COMDAT ??Y?$basic_string@DU?$char_traits@D@std@@V?$allocator@D@2@@std@@QAEAAV01@D@Z
_TEXT	SEGMENT
__Old$1$ = -8						; size = 4
__New_ptr$1 = -4					; size = 4
__Ch$ = 8						; size = 1
??Y?$basic_string@DU?$char_traits@D@std@@V?$allocator@D@2@@std@@QAEAAV01@D@Z PROC ; std::basic_string<char,std::char_traits<char>,std::allocator<char> >::operator+=, COMDAT
; _this$ = ecx

; 2904 :     basic_string& operator+=(_Elem _Ch) {

  00000	55		 push	 ebp
  00001	8b ec		 mov	 ebp, esp
  00003	83 ec 08	 sub	 esp, 8
  00006	53		 push	 ebx
  00007	57		 push	 edi
  00008	8b f9		 mov	 edi, ecx

; 3693 :         if (_Old_size < _Mypair._Myval2._Myres) {

  0000a	8b 4f 14	 mov	 ecx, DWORD PTR [edi+20]
  0000d	8b 5f 10	 mov	 ebx, DWORD PTR [edi+16]
  00010	89 4d f8	 mov	 DWORD PTR __Old$1$[ebp], ecx
  00013	3b d9		 cmp	 ebx, ecx
  00015	73 24		 jae	 SHORT $LN4@operator

; 3694 :             _Mypair._Myval2._Mysize = _Old_size + 1;

  00017	8d 43 01	 lea	 eax, DWORD PTR [ebx+1]

; 2209 :         value_type* _Result = _Bx._Buf;

  0001a	8b d7		 mov	 edx, edi

; 3694 :             _Mypair._Myval2._Mysize = _Old_size + 1;

  0001c	89 47 10	 mov	 DWORD PTR [edi+16], eax

; 2227 :         return _BUF_SIZE <= _Myres;

  0001f	83 f9 10	 cmp	 ecx, 16			; 00000010H

; 2210 :         if (_Large_string_engaged()) {

  00022	72 02		 jb	 SHORT $LN7@operator

; 2211 :             _Result = _Unfancy(_Bx._Ptr);

  00024	8b 17		 mov	 edx, DWORD PTR [edi]
$LN7@operator:

; 3696 :             _Traits::assign(_Ptr[_Old_size], _Ch);

  00026	8a 45 08	 mov	 al, BYTE PTR __Ch$[ebp]
  00029	88 04 1a	 mov	 BYTE PTR [edx+ebx], al

; 2905 :         push_back(_Ch);
; 2906 :         return *this;

  0002c	8b c7		 mov	 eax, edi
  0002e	5f		 pop	 edi

; 3697 :             _Traits::assign(_Ptr[_Old_size + 1], _Elem());

  0002f	c6 44 1a 01 00	 mov	 BYTE PTR [edx+ebx+1], 0

; 2905 :         push_back(_Ch);
; 2906 :         return *this;

  00034	5b		 pop	 ebx

; 2907 :     }

  00035	8b e5		 mov	 esp, ebp
  00037	5d		 pop	 ebp
  00038	c2 04 00	 ret	 4
$LN4@operator:

; 4333 :         if (max_size() - _Old_size < _Size_increase) {

  0003b	ba ff ff ff 7f	 mov	 edx, 2147483647		; 7fffffffH
  00040	8b c2		 mov	 eax, edx
  00042	2b c3		 sub	 eax, ebx
  00044	83 f8 01	 cmp	 eax, 1
  00047	0f 82 a8 00 00
	00		 jb	 $LN42@operator
  0004d	56		 push	 esi

; 4335 :         }
; 4336 : 
; 4337 :         const size_type _New_size     = _Old_size + _Size_increase;

  0004e	8d 73 01	 lea	 esi, DWORD PTR [ebx+1]

; 4285 :         const size_type _Masked = _Requested | _ALLOC_MASK;

  00051	83 ce 0f	 or	 esi, 15			; 0000000fH
  00054	3b f2		 cmp	 esi, edx

; 4286 :         if (_Masked > _Max) { // the mask overflows, settle for max_size()

  00056	76 04		 jbe	 SHORT $LN19@operator

; 4287 :             return _Max;

  00058	8b f2		 mov	 esi, edx
  0005a	eb 18		 jmp	 SHORT $LN18@operator
$LN19@operator:

; 4288 :         }
; 4289 : 
; 4290 :         if (_Old > _Max - _Old / 2) { // similarly, geometric overflows

  0005c	8b c1		 mov	 eax, ecx
  0005e	d1 e8		 shr	 eax, 1
  00060	2b d0		 sub	 edx, eax
  00062	3b ca		 cmp	 ecx, edx
  00064	76 07		 jbe	 SHORT $LN20@operator

; 4291 :             return _Max;

  00066	be ff ff ff 7f	 mov	 esi, 2147483647		; 7fffffffH
  0006b	eb 07		 jmp	 SHORT $LN18@operator
$LN20@operator:

; 4292 :         }
; 4293 : 
; 4294 :         return (_STD max)(_Masked, _Old + _Old / 2);

  0006d	03 c1		 add	 eax, ecx
; File C:\Program Files (x86)\Microsoft Visual Studio\2019\Community\VC\Tools\MSVC\14.28.29333\include\utility

; 44   :     return _Left < _Right ? _Right : _Left;

  0006f	3b f0		 cmp	 esi, eax
  00071	0f 42 f0	 cmovb	 esi, eax
$LN18@operator:
; File C:\Program Files (x86)\Microsoft Visual Studio\2019\Community\VC\Tools\MSVC\14.28.29333\include\xstring

; 4341 :         const pointer _New_ptr        = _Al.allocate(_New_capacity + 1); // throws

  00074	8d 46 01	 lea	 eax, DWORD PTR [esi+1]
; File C:\Program Files (x86)\Microsoft Visual Studio\2019\Community\VC\Tools\MSVC\14.28.29333\include\xmemory

; 814  :         return static_cast<_Ty*>(_Allocate<_New_alignof<_Ty>>(_Get_size_of_n<sizeof(_Ty)>(_Count)));

  00077	50		 push	 eax
  00078	e8 00 00 00 00	 call	 ??$_Allocate@$07U_Default_allocate_traits@std@@$0A@@std@@YAPAXI@Z ; std::_Allocate<8,std::_Default_allocate_traits,0>
  0007d	83 c4 04	 add	 esp, 4
; File C:\Program Files (x86)\Microsoft Visual Studio\2019\Community\VC\Tools\MSVC\14.28.29333\include\xstring

; 4341 :         const pointer _New_ptr        = _Al.allocate(_New_capacity + 1); // throws

  00080	89 45 fc	 mov	 DWORD PTR __New_ptr$1[ebp], eax

; 4342 :         _My_data._Orphan_all();
; 4343 :         _My_data._Mysize      = _New_size;
; 4344 :         _My_data._Myres       = _New_capacity;
; 4345 :         _Elem* const _Raw_new = _Unfancy(_New_ptr);
; 4346 :         if (_BUF_SIZE <= _Old_capacity) {

  00083	83 7d f8 10	 cmp	 DWORD PTR __Old$1$[ebp], 16 ; 00000010H
  00087	8d 4b 01	 lea	 ecx, DWORD PTR [ebx+1]
  0008a	89 4f 10	 mov	 DWORD PTR [edi+16], ecx
  0008d	89 77 14	 mov	 DWORD PTR [edi+20], esi
  00090	53		 push	 ebx
  00091	72 35		 jb	 SHORT $LN13@operator

; 4347 :             const pointer _Old_ptr = _My_data._Bx._Ptr;

  00093	8b 37		 mov	 esi, DWORD PTR [edi]

; 62   :         _CSTD memcpy(_First1, _First2, _Count * sizeof(_Elem));

  00095	56		 push	 esi
  00096	50		 push	 eax
  00097	e8 00 00 00 00	 call	 _memcpy

; 3705 :                 _Traits::assign(_New_ptr[_Old_size], _Ch);

  0009c	8b 4d fc	 mov	 ecx, DWORD PTR __New_ptr$1[ebp]
  0009f	8a 45 08	 mov	 al, BYTE PTR __Ch$[ebp]
  000a2	88 04 19	 mov	 BYTE PTR [ecx+ebx], al

; 4349 :             _Al.deallocate(_Old_ptr, _Old_capacity + 1);

  000a5	8b 45 f8	 mov	 eax, DWORD PTR __Old$1$[ebp]
  000a8	40		 inc	 eax

; 3706 :                 _Traits::assign(_New_ptr[_Old_size + 1], _Elem());

  000a9	c6 44 19 01 00	 mov	 BYTE PTR [ecx+ebx+1], 0
; File C:\Program Files (x86)\Microsoft Visual Studio\2019\Community\VC\Tools\MSVC\14.28.29333\include\xmemory

; 810  :         _Deallocate<_New_alignof<_Ty>>(_Ptr, sizeof(_Ty) * _Count);

  000ae	50		 push	 eax
  000af	56		 push	 esi
  000b0	e8 00 00 00 00	 call	 ??$_Deallocate@$07$0A@@std@@YAXPAXI@Z ; std::_Deallocate<8,0>
; File C:\Program Files (x86)\Microsoft Visual Studio\2019\Community\VC\Tools\MSVC\14.28.29333\include\xstring

; 4350 :             _My_data._Bx._Ptr = _New_ptr;

  000b5	8b 45 fc	 mov	 eax, DWORD PTR __New_ptr$1[ebp]

; 4351 :         } else {
; 4352 :             _Fn(_Raw_new, _My_data._Bx._Buf, _Old_size, _Args...);
; 4353 :             _Construct_in_place(_My_data._Bx._Ptr, _New_ptr);

  000b8	83 c4 14	 add	 esp, 20			; 00000014H
  000bb	89 07		 mov	 DWORD PTR [edi], eax

; 2905 :         push_back(_Ch);
; 2906 :         return *this;

  000bd	8b c7		 mov	 eax, edi
  000bf	5e		 pop	 esi
  000c0	5f		 pop	 edi
  000c1	5b		 pop	 ebx

; 2907 :     }

  000c2	8b e5		 mov	 esp, ebp
  000c4	5d		 pop	 ebp
  000c5	c2 04 00	 ret	 4
$LN13@operator:

; 62   :         _CSTD memcpy(_First1, _First2, _Count * sizeof(_Elem));

  000c8	57		 push	 edi
  000c9	50		 push	 eax
  000ca	e8 00 00 00 00	 call	 _memcpy

; 3705 :                 _Traits::assign(_New_ptr[_Old_size], _Ch);

  000cf	8b 4d fc	 mov	 ecx, DWORD PTR __New_ptr$1[ebp]
  000d2	8a 45 08	 mov	 al, BYTE PTR __Ch$[ebp]
  000d5	88 04 19	 mov	 BYTE PTR [ecx+ebx], al

; 4353 :             _Construct_in_place(_My_data._Bx._Ptr, _New_ptr);

  000d8	8d 45 fc	 lea	 eax, DWORD PTR __New_ptr$1[ebp]
  000db	50		 push	 eax
  000dc	57		 push	 edi

; 3706 :                 _Traits::assign(_New_ptr[_Old_size + 1], _Elem());

  000dd	c6 44 19 01 00	 mov	 BYTE PTR [ecx+ebx+1], 0

; 4353 :             _Construct_in_place(_My_data._Bx._Ptr, _New_ptr);

  000e2	e8 00 00 00 00	 call	 ??$_Construct_in_place@PADABQAD@std@@YAXAAPADABQAD@Z ; std::_Construct_in_place<char *,char * const &>
  000e7	83 c4 14	 add	 esp, 20			; 00000014H

; 2905 :         push_back(_Ch);
; 2906 :         return *this;

  000ea	8b c7		 mov	 eax, edi
  000ec	5e		 pop	 esi
  000ed	5f		 pop	 edi
  000ee	5b		 pop	 ebx

; 2907 :     }

  000ef	8b e5		 mov	 esp, ebp
  000f1	5d		 pop	 ebp
  000f2	c2 04 00	 ret	 4
$LN42@operator:

; 4334 :             _Xlen_string(); // result too long

  000f5	e8 00 00 00 00	 call	 ?_Xlen_string@std@@YAXXZ ; std::_Xlen_string
$LN39@operator:
  000fa	cc		 int	 3
??Y?$basic_string@DU?$char_traits@D@std@@V?$allocator@D@2@@std@@QAEAAV01@D@Z ENDP ; std::basic_string<char,std::char_traits<char>,std::allocator<char> >::operator+=
_TEXT	ENDS
; Function compile flags: /Ogtp
; File C:\Program Files (x86)\Microsoft Visual Studio\2019\Community\VC\Tools\MSVC\14.28.29333\include\xstring
; File C:\Program Files (x86)\Microsoft Visual Studio\2019\Community\VC\Tools\MSVC\14.28.29333\include\xmemory
; File C:\Program Files (x86)\Microsoft Visual Studio\2019\Community\VC\Tools\MSVC\14.28.29333\include\xstring
;	COMDAT ??1?$basic_string@DU?$char_traits@D@std@@V?$allocator@D@2@@std@@QAE@XZ
_TEXT	SEGMENT
??1?$basic_string@DU?$char_traits@D@std@@V?$allocator@D@2@@std@@QAE@XZ PROC ; std::basic_string<char,std::char_traits<char>,std::allocator<char> >::~basic_string<char,std::char_traits<char>,std::allocator<char> >, COMDAT
; _this$ = ecx

; 2800 :     ~basic_string() noexcept {

  00000	56		 push	 esi
  00001	8b f1		 mov	 esi, ecx

; 2227 :         return _BUF_SIZE <= _Myres;

  00003	8b 46 14	 mov	 eax, DWORD PTR [esi+20]
  00006	83 f8 10	 cmp	 eax, 16			; 00000010H

; 4385 :         if (_Mypair._Myval2._Large_string_engaged()) {

  00009	72 0c		 jb	 SHORT $LN4@basic_stri

; 4386 :             const pointer _Ptr = _Mypair._Myval2._Bx._Ptr;
; 4387 :             auto& _Al          = _Getal();
; 4388 :             _Destroy_in_place(_Mypair._Myval2._Bx._Ptr);
; 4389 :             _Al.deallocate(_Ptr, _Mypair._Myval2._Myres + 1);

  0000b	40		 inc	 eax
; File C:\Program Files (x86)\Microsoft Visual Studio\2019\Community\VC\Tools\MSVC\14.28.29333\include\xmemory

; 810  :         _Deallocate<_New_alignof<_Ty>>(_Ptr, sizeof(_Ty) * _Count);

  0000c	50		 push	 eax
  0000d	ff 36		 push	 DWORD PTR [esi]
  0000f	e8 00 00 00 00	 call	 ??$_Deallocate@$07$0A@@std@@YAXPAXI@Z ; std::_Deallocate<8,0>
  00014	83 c4 08	 add	 esp, 8
$LN4@basic_stri:
; File C:\Program Files (x86)\Microsoft Visual Studio\2019\Community\VC\Tools\MSVC\14.28.29333\include\xstring

; 4392 :         _Mypair._Myval2._Mysize = 0;

  00017	c7 46 10 00 00
	00 00		 mov	 DWORD PTR [esi+16], 0

; 4393 :         _Mypair._Myval2._Myres  = _BUF_SIZE - 1;

  0001e	c7 46 14 0f 00
	00 00		 mov	 DWORD PTR [esi+20], 15	; 0000000fH

; 4394 :         // the _Traits::assign is last so the codegen doesn't think the char write can alias this
; 4395 :         _Traits::assign(_Mypair._Myval2._Bx._Buf[0], _Elem());

  00025	c6 06 00	 mov	 BYTE PTR [esi], 0
  00028	5e		 pop	 esi

; 2801 :         _Tidy_deallocate();
; 2802 : #if _ITERATOR_DEBUG_LEVEL != 0
; 2803 :         auto&& _Alproxy          = _GET_PROXY_ALLOCATOR(_Alty, _Getal());
; 2804 :         const auto _To_delete    = _Mypair._Myval2._Myproxy;
; 2805 :         _Mypair._Myval2._Myproxy = nullptr;
; 2806 :         _Delete_plain_internal(_Alproxy, _To_delete);
; 2807 : #endif // _ITERATOR_DEBUG_LEVEL != 0
; 2808 :     }

  00029	c3		 ret	 0
??1?$basic_string@DU?$char_traits@D@std@@V?$allocator@D@2@@std@@QAE@XZ ENDP ; std::basic_string<char,std::char_traits<char>,std::allocator<char> >::~basic_string<char,std::char_traits<char>,std::allocator<char> >
_TEXT	ENDS
; Function compile flags: /Ogtp
; File C:\Program Files (x86)\Microsoft Visual Studio\2019\Community\VC\Tools\MSVC\14.28.29333\include\xstring
; File C:\Program Files (x86)\Microsoft Visual Studio\2019\Community\VC\Tools\MSVC\14.28.29333\include\utility
; File C:\Program Files (x86)\Microsoft Visual Studio\2019\Community\VC\Tools\MSVC\14.28.29333\include\xstring
; File C:\Program Files (x86)\Microsoft Visual Studio\2019\Community\VC\Tools\MSVC\14.28.29333\include\xmemory
; File C:\Program Files (x86)\Microsoft Visual Studio\2019\Community\VC\Tools\MSVC\14.28.29333\include\xstring
;	COMDAT ??0?$basic_string@DU?$char_traits@D@std@@V?$allocator@D@2@@std@@QAE@U_String_constructor_concat_tag@1@ABV01@QBDI2I@Z
_TEXT	SEGMENT
__Fancyptr$1 = -8					; size = 4
__New_size$1$ = -4					; size = 4
___formal$ = 8						; size = 1
__Source_of_al$ = 12					; size = 4
__Left_ptr$ = 16					; size = 4
__Left_size$ = 20					; size = 4
__Right_ptr$ = 24					; size = 4
__Right_size$ = 28					; size = 4
??0?$basic_string@DU?$char_traits@D@std@@V?$allocator@D@2@@std@@QAE@U_String_constructor_concat_tag@1@ABV01@QBDI2I@Z PROC ; std::basic_string<char,std::char_traits<char>,std::allocator<char> >::basic_string<char,std::char_traits<char>,std::allocator<char> >, COMDAT
; _this$ = ecx

; 2521 :             _One_then_variadic_args_t{}, _Alty_traits::select_on_container_copy_construction(_Source_of_al._Getal())) {

  00000	55		 push	 ebp
  00001	8b ec		 mov	 ebp, esp
  00003	83 ec 08	 sub	 esp, 8

; 2522 :         _STL_INTERNAL_CHECK(_Left_size <= max_size());
; 2523 :         _STL_INTERNAL_CHECK(_Right_size <= max_size());
; 2524 :         _STL_INTERNAL_CHECK(_Right_size <= max_size() - _Left_size);
; 2525 :         const auto _New_size    = static_cast<size_type>(_Left_size + _Right_size);

  00006	8b 45 14	 mov	 eax, DWORD PTR __Left_size$[ebp]
  00009	03 45 1c	 add	 eax, DWORD PTR __Right_size$[ebp]
  0000c	53		 push	 ebx
  0000d	56		 push	 esi
  0000e	57		 push	 edi
  0000f	8b f9		 mov	 edi, ecx
  00011	89 45 fc	 mov	 DWORD PTR __New_size$1$[ebp], eax

; 2526 :         size_type _New_capacity = _BUF_SIZE - 1;

  00014	be 0f 00 00 00	 mov	 esi, 15			; 0000000fH

; 2527 :         auto& _My_data          = _Mypair._Myval2;
; 2528 :         _Elem* _Ptr             = _My_data._Bx._Buf;

  00019	8b df		 mov	 ebx, edi

; 2198 :     _String_val() noexcept : _Bx(), _Mysize(0), _Myres(0) {}

  0001b	c7 47 10 00 00
	00 00		 mov	 DWORD PTR [edi+16], 0
  00022	c7 47 14 00 00
	00 00		 mov	 DWORD PTR [edi+20], 0

; 2529 :         auto&& _Alproxy         = _GET_PROXY_ALLOCATOR(_Alty, _Getal());
; 2530 :         _Container_proxy_ptr<_Alty> _Proxy(_Alproxy, _My_data); // throws
; 2531 :         if (_New_capacity < _New_size) {

  00029	3b c6		 cmp	 eax, esi
  0002b	76 3c		 jbe	 SHORT $LN2@basic_stri

; 4285 :         const size_type _Masked = _Requested | _ALLOC_MASK;

  0002d	8b f0		 mov	 esi, eax
  0002f	83 ce 0f	 or	 esi, 15			; 0000000fH
  00032	81 fe ff ff ff
	7f		 cmp	 esi, 2147483647		; 7fffffffH

; 4286 :         if (_Masked > _Max) { // the mask overflows, settle for max_size()

  00038	76 07		 jbe	 SHORT $LN11@basic_stri

; 4287 :             return _Max;

  0003a	be ff ff ff 7f	 mov	 esi, 2147483647		; 7fffffffH
  0003f	eb 0a		 jmp	 SHORT $LN10@basic_stri
$LN11@basic_stri:
; File C:\Program Files (x86)\Microsoft Visual Studio\2019\Community\VC\Tools\MSVC\14.28.29333\include\utility

; 44   :     return _Left < _Right ? _Right : _Left;

  00041	b8 16 00 00 00	 mov	 eax, 22			; 00000016H
  00046	3b f0		 cmp	 esi, eax
  00048	0f 42 f0	 cmovb	 esi, eax
$LN10@basic_stri:
; File C:\Program Files (x86)\Microsoft Visual Studio\2019\Community\VC\Tools\MSVC\14.28.29333\include\xstring

; 2533 :             const pointer _Fancyptr = _Getal().allocate(_New_capacity + 1); // throws

  0004b	8d 46 01	 lea	 eax, DWORD PTR [esi+1]
; File C:\Program Files (x86)\Microsoft Visual Studio\2019\Community\VC\Tools\MSVC\14.28.29333\include\xmemory

; 814  :         return static_cast<_Ty*>(_Allocate<_New_alignof<_Ty>>(_Get_size_of_n<sizeof(_Ty)>(_Count)));

  0004e	50		 push	 eax
  0004f	e8 00 00 00 00	 call	 ??$_Allocate@$07U_Default_allocate_traits@std@@$0A@@std@@YAPAXI@Z ; std::_Allocate<8,std::_Default_allocate_traits,0>
; File C:\Program Files (x86)\Microsoft Visual Studio\2019\Community\VC\Tools\MSVC\14.28.29333\include\xstring

; 2533 :             const pointer _Fancyptr = _Getal().allocate(_New_capacity + 1); // throws

  00054	8b d8		 mov	 ebx, eax

; 2534 :             _Ptr                    = _Unfancy(_Fancyptr);
; 2535 :             _Construct_in_place(_My_data._Bx._Ptr, _Fancyptr);

  00056	8d 45 f8	 lea	 eax, DWORD PTR __Fancyptr$1[ebp]
  00059	50		 push	 eax
  0005a	57		 push	 edi
  0005b	89 5d f8	 mov	 DWORD PTR __Fancyptr$1[ebp], ebx
  0005e	e8 00 00 00 00	 call	 ??$_Construct_in_place@PADABQAD@std@@YAXAAPADABQAD@Z ; std::_Construct_in_place<char *,char * const &>
  00063	8b 45 fc	 mov	 eax, DWORD PTR __New_size$1$[ebp]
  00066	83 c4 0c	 add	 esp, 12			; 0000000cH
$LN2@basic_stri:

; 2539 :         _My_data._Myres  = _New_capacity;

  00069	89 77 14	 mov	 DWORD PTR [edi+20], esi

; 62   :         _CSTD memcpy(_First1, _First2, _Count * sizeof(_Elem));

  0006c	8b 75 14	 mov	 esi, DWORD PTR __Left_size$[ebp]
  0006f	56		 push	 esi
  00070	ff 75 10	 push	 DWORD PTR __Left_ptr$[ebp]

; 2536 :         }
; 2537 : 
; 2538 :         _My_data._Mysize = _New_size;

  00073	89 47 10	 mov	 DWORD PTR [edi+16], eax

; 62   :         _CSTD memcpy(_First1, _First2, _Count * sizeof(_Elem));

  00076	53		 push	 ebx
  00077	e8 00 00 00 00	 call	 _memcpy
  0007c	ff 75 1c	 push	 DWORD PTR __Right_size$[ebp]

; 2540 :         _Traits::copy(_Ptr, _Left_ptr, _Left_size);
; 2541 :         _Traits::copy(_Ptr + static_cast<ptrdiff_t>(_Left_size), _Right_ptr, _Right_size);

  0007f	8d 04 33	 lea	 eax, DWORD PTR [ebx+esi]

; 62   :         _CSTD memcpy(_First1, _First2, _Count * sizeof(_Elem));

  00082	ff 75 18	 push	 DWORD PTR __Right_ptr$[ebp]
  00085	50		 push	 eax
  00086	e8 00 00 00 00	 call	 _memcpy

; 2542 :         _Traits::assign(_Ptr[_New_size], _Elem());

  0008b	8b 45 fc	 mov	 eax, DWORD PTR __New_size$1$[ebp]

; 62   :         _CSTD memcpy(_First1, _First2, _Count * sizeof(_Elem));

  0008e	83 c4 18	 add	 esp, 24			; 00000018H

; 2542 :         _Traits::assign(_Ptr[_New_size], _Elem());

  00091	c6 04 03 00	 mov	 BYTE PTR [ebx+eax], 0

; 2543 :         _Proxy._Release();
; 2544 :     }

  00095	8b c7		 mov	 eax, edi
  00097	5f		 pop	 edi
  00098	5e		 pop	 esi
  00099	5b		 pop	 ebx
  0009a	8b e5		 mov	 esp, ebp
  0009c	5d		 pop	 ebp
  0009d	c2 18 00	 ret	 24			; 00000018H
??0?$basic_string@DU?$char_traits@D@std@@V?$allocator@D@2@@std@@QAE@U_String_constructor_concat_tag@1@ABV01@QBDI2I@Z ENDP ; std::basic_string<char,std::char_traits<char>,std::allocator<char> >::basic_string<char,std::char_traits<char>,std::allocator<char> >
_TEXT	ENDS
; Function compile flags: /Ogtp
; File C:\Program Files (x86)\Microsoft Visual Studio\2019\Community\VC\Tools\MSVC\14.28.29333\include\xstring
; File C:\Program Files (x86)\Microsoft Visual Studio\2019\Community\VC\Tools\MSVC\14.28.29333\include\utility
; File C:\Program Files (x86)\Microsoft Visual Studio\2019\Community\VC\Tools\MSVC\14.28.29333\include\xstring
; File C:\Program Files (x86)\Microsoft Visual Studio\2019\Community\VC\Tools\MSVC\14.28.29333\include\xmemory
; File C:\Program Files (x86)\Microsoft Visual Studio\2019\Community\VC\Tools\MSVC\14.28.29333\include\xstring
;	COMDAT ??0?$basic_string@DU?$char_traits@D@std@@V?$allocator@D@2@@std@@QAE@ABV01@@Z
_TEXT	SEGMENT
$T1 = -8						; size = 4
__New_array$2 = -4					; size = 4
__Right_size$1$ = 8					; size = 4
__Right$ = 8						; size = 4
??0?$basic_string@DU?$char_traits@D@std@@V?$allocator@D@2@@std@@QAE@ABV01@@Z PROC ; std::basic_string<char,std::char_traits<char>,std::allocator<char> >::basic_string<char,std::char_traits<char>,std::allocator<char> >, COMDAT
; _this$ = ecx

; 2351 :         : _Mypair(_One_then_variadic_args_t{}, _Alty_traits::select_on_container_copy_construction(_Right._Getal())) {

  00000	55		 push	 ebp
  00001	8b ec		 mov	 ebp, esp
  00003	83 ec 08	 sub	 esp, 8
  00006	53		 push	 ebx

; 2734 :         const size_type _Right_size   = _Right_data._Mysize;

  00007	8b 5d 08	 mov	 ebx, DWORD PTR __Right$[ebp]

; 2351 :         : _Mypair(_One_then_variadic_args_t{}, _Alty_traits::select_on_container_copy_construction(_Right._Getal())) {

  0000a	57		 push	 edi
  0000b	8b f9		 mov	 edi, ecx

; 2198 :     _String_val() noexcept : _Bx(), _Mysize(0), _Myres(0) {}

  0000d	c7 47 10 00 00
	00 00		 mov	 DWORD PTR [edi+16], 0
  00014	c7 47 14 00 00
	00 00		 mov	 DWORD PTR [edi+20], 0

; 2227 :         return _BUF_SIZE <= _Myres;

  0001b	83 7b 14 10	 cmp	 DWORD PTR [ebx+20], 16	; 00000010H

; 2734 :         const size_type _Right_size   = _Right_data._Mysize;

  0001f	8b 43 10	 mov	 eax, DWORD PTR [ebx+16]
  00022	89 45 08	 mov	 DWORD PTR __Right_size$1$[ebp], eax

; 2219 :         if (_Large_string_engaged()) {

  00025	72 02		 jb	 SHORT $LN13@basic_stri

; 2220 :             _Result = _Unfancy(_Bx._Ptr);

  00027	8b 1b		 mov	 ebx, DWORD PTR [ebx]
$LN13@basic_stri:

; 2737 :         if (_Right_size < _BUF_SIZE) { // stay small, don't allocate

  00029	83 f8 10	 cmp	 eax, 16			; 00000010H
  0002c	73 1e		 jae	 SHORT $LN10@basic_stri

; 62   :         _CSTD memcpy(_First1, _First2, _Count * sizeof(_Elem));

  0002e	0f 10 03	 movups	 xmm0, XMMWORD PTR [ebx]

; 2352 :         auto&& _Alproxy = _GET_PROXY_ALLOCATOR(_Alty, _Getal());
; 2353 :         _Container_proxy_ptr<_Alty> _Proxy(_Alproxy, _Mypair._Myval2);
; 2354 :         _Construct_lv_contents(_Right);
; 2355 :         _Proxy._Release();
; 2356 :     }

  00031	8b 4d 08	 mov	 ecx, DWORD PTR __Right_size$1$[ebp]

; 2740 :             _My_data._Myres  = _BUF_SIZE - 1;

  00034	b8 0f 00 00 00	 mov	 eax, 15			; 0000000fH

; 62   :         _CSTD memcpy(_First1, _First2, _Count * sizeof(_Elem));

  00039	0f 11 07	 movups	 XMMWORD PTR [edi], xmm0

; 2352 :         auto&& _Alproxy = _GET_PROXY_ALLOCATOR(_Alty, _Getal());
; 2353 :         _Container_proxy_ptr<_Alty> _Proxy(_Alproxy, _Mypair._Myval2);
; 2354 :         _Construct_lv_contents(_Right);
; 2355 :         _Proxy._Release();
; 2356 :     }

  0003c	89 4f 10	 mov	 DWORD PTR [edi+16], ecx
  0003f	89 47 14	 mov	 DWORD PTR [edi+20], eax
  00042	8b c7		 mov	 eax, edi
  00044	5f		 pop	 edi
  00045	5b		 pop	 ebx
  00046	8b e5		 mov	 esp, ebp
  00048	5d		 pop	 ebp
  00049	c2 04 00	 ret	 4
$LN10@basic_stri:

; 2745 :         const size_type _New_capacity = (_STD min)(_Right_size | _ALLOC_MASK, max_size());

  0004c	83 c8 0f	 or	 eax, 15			; 0000000fH
; File C:\Program Files (x86)\Microsoft Visual Studio\2019\Community\VC\Tools\MSVC\14.28.29333\include\utility

; 68   :     return _Right < _Left ? _Right : _Left;

  0004f	b9 ff ff ff 7f	 mov	 ecx, 2147483647		; 7fffffffH
  00054	3b c1		 cmp	 eax, ecx
  00056	56		 push	 esi
  00057	0f 47 c1	 cmova	 eax, ecx
  0005a	89 45 f8	 mov	 DWORD PTR $T1[ebp], eax
; File C:\Program Files (x86)\Microsoft Visual Studio\2019\Community\VC\Tools\MSVC\14.28.29333\include\xstring

; 2746 :         const pointer _New_array      = _Al.allocate(_New_capacity + 1); // throws

  0005d	40		 inc	 eax
; File C:\Program Files (x86)\Microsoft Visual Studio\2019\Community\VC\Tools\MSVC\14.28.29333\include\xmemory

; 814  :         return static_cast<_Ty*>(_Allocate<_New_alignof<_Ty>>(_Get_size_of_n<sizeof(_Ty)>(_Count)));

  0005e	50		 push	 eax
  0005f	e8 00 00 00 00	 call	 ??$_Allocate@$07U_Default_allocate_traits@std@@$0A@@std@@YAPAXI@Z ; std::_Allocate<8,std::_Default_allocate_traits,0>
; File C:\Program Files (x86)\Microsoft Visual Studio\2019\Community\VC\Tools\MSVC\14.28.29333\include\xstring

; 2746 :         const pointer _New_array      = _Al.allocate(_New_capacity + 1); // throws

  00064	8b f0		 mov	 esi, eax

; 2747 :         _Construct_in_place(_My_data._Bx._Ptr, _New_array);

  00066	8d 45 fc	 lea	 eax, DWORD PTR __New_array$2[ebp]
  00069	50		 push	 eax
  0006a	57		 push	 edi
  0006b	89 75 fc	 mov	 DWORD PTR __New_array$2[ebp], esi
  0006e	e8 00 00 00 00	 call	 ??$_Construct_in_place@PADABQAD@std@@YAXAAPADABQAD@Z ; std::_Construct_in_place<char *,char * const &>

; 2748 :         _Traits::copy(_Unfancy(_New_array), _Right_ptr, _Right_size + 1);

  00073	8b 4d 08	 mov	 ecx, DWORD PTR __Right_size$1$[ebp]
  00076	41		 inc	 ecx

; 62   :         _CSTD memcpy(_First1, _First2, _Count * sizeof(_Elem));

  00077	51		 push	 ecx
  00078	53		 push	 ebx
  00079	56		 push	 esi
  0007a	e8 00 00 00 00	 call	 _memcpy
  0007f	8b 45 f8	 mov	 eax, DWORD PTR $T1[ebp]
  00082	83 c4 18	 add	 esp, 24			; 00000018H

; 2352 :         auto&& _Alproxy = _GET_PROXY_ALLOCATOR(_Alty, _Getal());
; 2353 :         _Container_proxy_ptr<_Alty> _Proxy(_Alproxy, _Mypair._Myval2);
; 2354 :         _Construct_lv_contents(_Right);
; 2355 :         _Proxy._Release();
; 2356 :     }

  00085	8b 4d 08	 mov	 ecx, DWORD PTR __Right_size$1$[ebp]
  00088	89 4f 10	 mov	 DWORD PTR [edi+16], ecx
  0008b	89 47 14	 mov	 DWORD PTR [edi+20], eax
  0008e	8b c7		 mov	 eax, edi

; 62   :         _CSTD memcpy(_First1, _First2, _Count * sizeof(_Elem));

  00090	5e		 pop	 esi

; 2352 :         auto&& _Alproxy = _GET_PROXY_ALLOCATOR(_Alty, _Getal());
; 2353 :         _Container_proxy_ptr<_Alty> _Proxy(_Alproxy, _Mypair._Myval2);
; 2354 :         _Construct_lv_contents(_Right);
; 2355 :         _Proxy._Release();
; 2356 :     }

  00091	5f		 pop	 edi
  00092	5b		 pop	 ebx
  00093	8b e5		 mov	 esp, ebp
  00095	5d		 pop	 ebp
  00096	c2 04 00	 ret	 4
??0?$basic_string@DU?$char_traits@D@std@@V?$allocator@D@2@@std@@QAE@ABV01@@Z ENDP ; std::basic_string<char,std::char_traits<char>,std::allocator<char> >::basic_string<char,std::char_traits<char>,std::allocator<char> >
_TEXT	ENDS
; Function compile flags: /Ogtp
; File C:\Program Files (x86)\Microsoft Visual Studio\2019\Community\VC\Tools\MSVC\14.28.29333\include\xstring
;	COMDAT ?_Xran@?$_String_val@U?$_Simple_types@D@std@@@std@@SAXXZ
_TEXT	SEGMENT
?_Xran@?$_String_val@U?$_Simple_types@D@std@@@std@@SAXXZ PROC ; std::_String_val<std::_Simple_types<char> >::_Xran, COMDAT

; 2243 :         _Xout_of_range("invalid string position");

  00000	68 00 00 00 00	 push	 OFFSET ??_C@_0BI@CFPLBAOH@invalid?5string?5position@
  00005	e8 00 00 00 00	 call	 ?_Xout_of_range@std@@YAXPBD@Z ; std::_Xout_of_range
$LN3@Xran:
  0000a	cc		 int	 3
?_Xran@?$_String_val@U?$_Simple_types@D@std@@@std@@SAXXZ ENDP ; std::_String_val<std::_Simple_types<char> >::_Xran
_TEXT	ENDS
; Function compile flags: /Ogtp
; File C:\Program Files (x86)\Microsoft Visual Studio\2019\Community\VC\Tools\MSVC\14.28.29333\include\xstring
;	COMDAT ?_Xlen_string@std@@YAXXZ
_TEXT	SEGMENT
?_Xlen_string@std@@YAXXZ PROC				; std::_Xlen_string, COMDAT

; 2275 :     _Xlength_error("string too long");

  00000	68 00 00 00 00	 push	 OFFSET ??_C@_0BA@JFNIOLAK@string?5too?5long@
  00005	e8 00 00 00 00	 call	 ?_Xlength_error@std@@YAXPBD@Z ; std::_Xlength_error
$LN3@Xlen_strin:
  0000a	cc		 int	 3
?_Xlen_string@std@@YAXXZ ENDP				; std::_Xlen_string
_TEXT	ENDS
; Function compile flags: /Ogtp
; File C:\Program Files (x86)\Microsoft Visual Studio\2019\Community\VC\Tools\MSVC\14.28.29333\include\exception
;	COMDAT ?_Throw_bad_array_new_length@std@@YAXXZ
_TEXT	SEGMENT
$T1 = -12						; size = 12
?_Throw_bad_array_new_length@std@@YAXXZ PROC		; std::_Throw_bad_array_new_length, COMDAT

; 320  : [[noreturn]] inline void _Throw_bad_array_new_length() {

  00000	55		 push	 ebp
  00001	8b ec		 mov	 ebp, esp
  00003	83 ec 0c	 sub	 esp, 12			; 0000000cH

; 321  :     _THROW(bad_array_new_length{});

  00006	8d 4d f4	 lea	 ecx, DWORD PTR $T1[ebp]
  00009	e8 00 00 00 00	 call	 ??0bad_array_new_length@std@@QAE@XZ ; std::bad_array_new_length::bad_array_new_length
  0000e	68 00 00 00 00	 push	 OFFSET __TI3?AVbad_array_new_length@std@@
  00013	8d 45 f4	 lea	 eax, DWORD PTR $T1[ebp]
  00016	50		 push	 eax
  00017	e8 00 00 00 00	 call	 __CxxThrowException@8
$LN3@Throw_bad_:
  0001c	cc		 int	 3
?_Throw_bad_array_new_length@std@@YAXXZ ENDP		; std::_Throw_bad_array_new_length
_TEXT	ENDS
; Function compile flags: /Ogtp
; File C:\Program Files (x86)\Microsoft Visual Studio\2019\Community\VC\Tools\MSVC\14.28.29333\include\vcruntime_exception.h
;	COMDAT ??_Gbad_array_new_length@std@@UAEPAXI@Z
_TEXT	SEGMENT
___flags$ = 8						; size = 4
??_Gbad_array_new_length@std@@UAEPAXI@Z PROC		; std::bad_array_new_length::`scalar deleting destructor', COMDAT
; _this$ = ecx
  00000	55		 push	 ebp
  00001	8b ec		 mov	 ebp, esp

; 89   :     {

  00003	56		 push	 esi
  00004	8b f1		 mov	 esi, ecx

; 90   :         __std_exception_destroy(&_Data);

  00006	8d 46 04	 lea	 eax, DWORD PTR [esi+4]
  00009	c7 06 00 00 00
	00		 mov	 DWORD PTR [esi], OFFSET ??_7exception@std@@6B@
  0000f	50		 push	 eax
  00010	e8 00 00 00 00	 call	 ___std_exception_destroy
  00015	83 c4 04	 add	 esp, 4
  00018	f6 45 08 01	 test	 BYTE PTR ___flags$[ebp], 1
  0001c	74 0b		 je	 SHORT $LN12@scalar
  0001e	6a 0c		 push	 12			; 0000000cH
  00020	56		 push	 esi
  00021	e8 00 00 00 00	 call	 ??3@YAXPAXI@Z		; operator delete
  00026	83 c4 08	 add	 esp, 8
$LN12@scalar:
  00029	8b c6		 mov	 eax, esi
  0002b	5e		 pop	 esi
  0002c	5d		 pop	 ebp
  0002d	c2 04 00	 ret	 4
??_Gbad_array_new_length@std@@UAEPAXI@Z ENDP		; std::bad_array_new_length::`scalar deleting destructor'
_TEXT	ENDS
; Function compile flags: /Ogtp
; File C:\Program Files (x86)\Microsoft Visual Studio\2019\Community\VC\Tools\MSVC\14.28.29333\include\vcruntime_exception.h
;	COMDAT ??0bad_array_new_length@std@@QAE@ABV01@@Z
_TEXT	SEGMENT
___that$ = 8						; size = 4
??0bad_array_new_length@std@@QAE@ABV01@@Z PROC		; std::bad_array_new_length::bad_array_new_length, COMDAT
; _this$ = ecx
  00000	55		 push	 ebp
  00001	8b ec		 mov	 ebp, esp

; 72   :     {

  00003	56		 push	 esi
  00004	8b f1		 mov	 esi, ecx
  00006	0f 57 c0	 xorps	 xmm0, xmm0

; 71   :         : _Data()

  00009	8d 46 04	 lea	 eax, DWORD PTR [esi+4]

; 73   :         __std_exception_copy(&_Other._Data, &_Data);

  0000c	50		 push	 eax
  0000d	c7 06 00 00 00
	00		 mov	 DWORD PTR [esi], OFFSET ??_7exception@std@@6B@
  00013	66 0f d6 00	 movq	 QWORD PTR [eax], xmm0
  00017	8b 45 08	 mov	 eax, DWORD PTR ___that$[ebp]
  0001a	83 c0 04	 add	 eax, 4
  0001d	50		 push	 eax
  0001e	e8 00 00 00 00	 call	 ___std_exception_copy
  00023	83 c4 08	 add	 esp, 8
  00026	c7 06 00 00 00
	00		 mov	 DWORD PTR [esi], OFFSET ??_7bad_array_new_length@std@@6B@
  0002c	8b c6		 mov	 eax, esi
  0002e	5e		 pop	 esi
  0002f	5d		 pop	 ebp
  00030	c2 04 00	 ret	 4
??0bad_array_new_length@std@@QAE@ABV01@@Z ENDP		; std::bad_array_new_length::bad_array_new_length
_TEXT	ENDS
; Function compile flags: /Ogtp
; File C:\Program Files (x86)\Microsoft Visual Studio\2019\Community\VC\Tools\MSVC\14.28.29333\include\vcruntime_exception.h
;	COMDAT ??1bad_array_new_length@std@@UAE@XZ
_TEXT	SEGMENT
??1bad_array_new_length@std@@UAE@XZ PROC		; std::bad_array_new_length::~bad_array_new_length, COMDAT
; _this$ = ecx

; 90   :         __std_exception_destroy(&_Data);

  00000	8d 41 04	 lea	 eax, DWORD PTR [ecx+4]
  00003	c7 01 00 00 00
	00		 mov	 DWORD PTR [ecx], OFFSET ??_7exception@std@@6B@
  00009	50		 push	 eax
  0000a	e8 00 00 00 00	 call	 ___std_exception_destroy
  0000f	59		 pop	 ecx
  00010	c3		 ret	 0
??1bad_array_new_length@std@@UAE@XZ ENDP		; std::bad_array_new_length::~bad_array_new_length
_TEXT	ENDS
; Function compile flags: /Ogtp
; File C:\Program Files (x86)\Microsoft Visual Studio\2019\Community\VC\Tools\MSVC\14.28.29333\include\vcruntime_exception.h
;	COMDAT ??0bad_array_new_length@std@@QAE@XZ
_TEXT	SEGMENT
??0bad_array_new_length@std@@QAE@XZ PROC		; std::bad_array_new_length::bad_array_new_length, COMDAT
; _this$ = ecx

; 141  :     {

  00000	0f 57 c0	 xorps	 xmm0, xmm0

; 142  :     }

  00003	8b c1		 mov	 eax, ecx

; 65   :         : _Data()

  00005	66 0f d6 41 04	 movq	 QWORD PTR [ecx+4], xmm0

; 66   :     {
; 67   :         _Data._What = _Message;

  0000a	c7 41 04 00 00
	00 00		 mov	 DWORD PTR [ecx+4], OFFSET ??_C@_0BF@KINCDENJ@bad?5array?5new?5length@

; 141  :     {

  00011	c7 01 00 00 00
	00		 mov	 DWORD PTR [ecx], OFFSET ??_7bad_array_new_length@std@@6B@

; 142  :     }

  00017	c3		 ret	 0
??0bad_array_new_length@std@@QAE@XZ ENDP		; std::bad_array_new_length::bad_array_new_length
_TEXT	ENDS
; Function compile flags: /Ogtp
; File C:\Program Files (x86)\Microsoft Visual Studio\2019\Community\VC\Tools\MSVC\14.28.29333\include\vcruntime_exception.h
;	COMDAT ??_Gbad_alloc@std@@UAEPAXI@Z
_TEXT	SEGMENT
___flags$ = 8						; size = 4
??_Gbad_alloc@std@@UAEPAXI@Z PROC			; std::bad_alloc::`scalar deleting destructor', COMDAT
; _this$ = ecx
  00000	55		 push	 ebp
  00001	8b ec		 mov	 ebp, esp

; 89   :     {

  00003	56		 push	 esi
  00004	8b f1		 mov	 esi, ecx

; 90   :         __std_exception_destroy(&_Data);

  00006	8d 46 04	 lea	 eax, DWORD PTR [esi+4]
  00009	c7 06 00 00 00
	00		 mov	 DWORD PTR [esi], OFFSET ??_7exception@std@@6B@
  0000f	50		 push	 eax
  00010	e8 00 00 00 00	 call	 ___std_exception_destroy
  00015	83 c4 04	 add	 esp, 4
  00018	f6 45 08 01	 test	 BYTE PTR ___flags$[ebp], 1
  0001c	74 0b		 je	 SHORT $LN9@scalar
  0001e	6a 0c		 push	 12			; 0000000cH
  00020	56		 push	 esi
  00021	e8 00 00 00 00	 call	 ??3@YAXPAXI@Z		; operator delete
  00026	83 c4 08	 add	 esp, 8
$LN9@scalar:
  00029	8b c6		 mov	 eax, esi
  0002b	5e		 pop	 esi
  0002c	5d		 pop	 ebp
  0002d	c2 04 00	 ret	 4
??_Gbad_alloc@std@@UAEPAXI@Z ENDP			; std::bad_alloc::`scalar deleting destructor'
_TEXT	ENDS
; Function compile flags: /Ogtp
; File C:\Program Files (x86)\Microsoft Visual Studio\2019\Community\VC\Tools\MSVC\14.28.29333\include\vcruntime_exception.h
;	COMDAT ??0bad_alloc@std@@QAE@ABV01@@Z
_TEXT	SEGMENT
___that$ = 8						; size = 4
??0bad_alloc@std@@QAE@ABV01@@Z PROC			; std::bad_alloc::bad_alloc, COMDAT
; _this$ = ecx
  00000	55		 push	 ebp
  00001	8b ec		 mov	 ebp, esp

; 72   :     {

  00003	56		 push	 esi
  00004	8b f1		 mov	 esi, ecx
  00006	0f 57 c0	 xorps	 xmm0, xmm0

; 71   :         : _Data()

  00009	8d 46 04	 lea	 eax, DWORD PTR [esi+4]

; 73   :         __std_exception_copy(&_Other._Data, &_Data);

  0000c	50		 push	 eax
  0000d	c7 06 00 00 00
	00		 mov	 DWORD PTR [esi], OFFSET ??_7exception@std@@6B@
  00013	66 0f d6 00	 movq	 QWORD PTR [eax], xmm0
  00017	8b 45 08	 mov	 eax, DWORD PTR ___that$[ebp]
  0001a	83 c0 04	 add	 eax, 4
  0001d	50		 push	 eax
  0001e	e8 00 00 00 00	 call	 ___std_exception_copy
  00023	83 c4 08	 add	 esp, 8
  00026	c7 06 00 00 00
	00		 mov	 DWORD PTR [esi], OFFSET ??_7bad_alloc@std@@6B@
  0002c	8b c6		 mov	 eax, esi
  0002e	5e		 pop	 esi
  0002f	5d		 pop	 ebp
  00030	c2 04 00	 ret	 4
??0bad_alloc@std@@QAE@ABV01@@Z ENDP			; std::bad_alloc::bad_alloc
_TEXT	ENDS
; Function compile flags: /Ogtp
; File C:\Program Files (x86)\Microsoft Visual Studio\2019\Community\VC\Tools\MSVC\14.28.29333\include\vcruntime_exception.h
;	COMDAT ??_Gexception@std@@UAEPAXI@Z
_TEXT	SEGMENT
___flags$ = 8						; size = 4
??_Gexception@std@@UAEPAXI@Z PROC			; std::exception::`scalar deleting destructor', COMDAT
; _this$ = ecx
  00000	55		 push	 ebp
  00001	8b ec		 mov	 ebp, esp

; 89   :     {

  00003	56		 push	 esi
  00004	8b f1		 mov	 esi, ecx

; 90   :         __std_exception_destroy(&_Data);

  00006	8d 46 04	 lea	 eax, DWORD PTR [esi+4]
  00009	c7 06 00 00 00
	00		 mov	 DWORD PTR [esi], OFFSET ??_7exception@std@@6B@
  0000f	50		 push	 eax
  00010	e8 00 00 00 00	 call	 ___std_exception_destroy
  00015	83 c4 04	 add	 esp, 4
  00018	f6 45 08 01	 test	 BYTE PTR ___flags$[ebp], 1
  0001c	74 0b		 je	 SHORT $LN6@scalar
  0001e	6a 0c		 push	 12			; 0000000cH
  00020	56		 push	 esi
  00021	e8 00 00 00 00	 call	 ??3@YAXPAXI@Z		; operator delete
  00026	83 c4 08	 add	 esp, 8
$LN6@scalar:
  00029	8b c6		 mov	 eax, esi
  0002b	5e		 pop	 esi
  0002c	5d		 pop	 ebp
  0002d	c2 04 00	 ret	 4
??_Gexception@std@@UAEPAXI@Z ENDP			; std::exception::`scalar deleting destructor'
_TEXT	ENDS
; Function compile flags: /Ogtp
; File C:\Program Files (x86)\Microsoft Visual Studio\2019\Community\VC\Tools\MSVC\14.28.29333\include\vcruntime_exception.h
;	COMDAT ?what@exception@std@@UBEPBDXZ
_TEXT	SEGMENT
?what@exception@std@@UBEPBDXZ PROC			; std::exception::what, COMDAT
; _this$ = ecx

; 95   :         return _Data._What ? _Data._What : "Unknown exception";

  00000	8b 49 04	 mov	 ecx, DWORD PTR [ecx+4]
  00003	b8 00 00 00 00	 mov	 eax, OFFSET ??_C@_0BC@EOODALEL@Unknown?5exception@
  00008	85 c9		 test	 ecx, ecx
  0000a	0f 45 c1	 cmovne	 eax, ecx

; 96   :     }

  0000d	c3		 ret	 0
?what@exception@std@@UBEPBDXZ ENDP			; std::exception::what
_TEXT	ENDS
; Function compile flags: /Ogtp
; File C:\Program Files (x86)\Microsoft Visual Studio\2019\Community\VC\Tools\MSVC\14.28.29333\include\vcruntime_exception.h
;	COMDAT ??1exception@std@@UAE@XZ
_TEXT	SEGMENT
??1exception@std@@UAE@XZ PROC				; std::exception::~exception, COMDAT
; _this$ = ecx

; 90   :         __std_exception_destroy(&_Data);

  00000	8d 41 04	 lea	 eax, DWORD PTR [ecx+4]
  00003	c7 01 00 00 00
	00		 mov	 DWORD PTR [ecx], OFFSET ??_7exception@std@@6B@
  00009	50		 push	 eax
  0000a	e8 00 00 00 00	 call	 ___std_exception_destroy
  0000f	59		 pop	 ecx

; 91   :     }

  00010	c3		 ret	 0
??1exception@std@@UAE@XZ ENDP				; std::exception::~exception
_TEXT	ENDS
; Function compile flags: /Ogtp
; File C:\Program Files (x86)\Microsoft Visual Studio\2019\Community\VC\Tools\MSVC\14.28.29333\include\vcruntime_exception.h
;	COMDAT ??0exception@std@@QAE@ABV01@@Z
_TEXT	SEGMENT
__Other$ = 8						; size = 4
??0exception@std@@QAE@ABV01@@Z PROC			; std::exception::exception, COMDAT
; _this$ = ecx

; 72   :     {

  00000	55		 push	 ebp
  00001	8b ec		 mov	 ebp, esp
  00003	56		 push	 esi
  00004	8b f1		 mov	 esi, ecx
  00006	0f 57 c0	 xorps	 xmm0, xmm0
  00009	8d 46 04	 lea	 eax, DWORD PTR [esi+4]

; 73   :         __std_exception_copy(&_Other._Data, &_Data);

  0000c	50		 push	 eax
  0000d	c7 06 00 00 00
	00		 mov	 DWORD PTR [esi], OFFSET ??_7exception@std@@6B@
  00013	66 0f d6 00	 movq	 QWORD PTR [eax], xmm0
  00017	8b 45 08	 mov	 eax, DWORD PTR __Other$[ebp]
  0001a	83 c0 04	 add	 eax, 4
  0001d	50		 push	 eax
  0001e	e8 00 00 00 00	 call	 ___std_exception_copy
  00023	83 c4 08	 add	 esp, 8

; 74   :     }

  00026	8b c6		 mov	 eax, esi
  00028	5e		 pop	 esi
  00029	5d		 pop	 ebp
  0002a	c2 04 00	 ret	 4
??0exception@std@@QAE@ABV01@@Z ENDP			; std::exception::exception
_TEXT	ENDS
; Function compile flags: /Ogtp
; File C:\Program Files (x86)\Windows Kits\10\Include\10.0.18362.0\ucrt\stdio.h
;	COMDAT _sprintf
_TEXT	SEGMENT
__Buffer$ = 8						; size = 4
__Format$ = 12						; size = 4
_sprintf PROC						; COMDAT

; 1781 :     {

  00000	55		 push	 ebp
  00001	8b ec		 mov	 ebp, esp

; 1390 :         int const _Result = __stdio_common_vsprintf(

  00003	8d 45 10	 lea	 eax, DWORD PTR __Format$[ebp+4]
  00006	50		 push	 eax
  00007	6a 00		 push	 0
  00009	ff 75 0c	 push	 DWORD PTR __Format$[ebp]
  0000c	6a ff		 push	 -1
  0000e	ff 75 08	 push	 DWORD PTR __Buffer$[ebp]
  00011	e8 00 00 00 00	 call	 ___local_stdio_printf_options
  00016	8b 08		 mov	 ecx, DWORD PTR [eax]
  00018	ff 70 04	 push	 DWORD PTR [eax+4]
  0001b	83 c9 01	 or	 ecx, 1
  0001e	51		 push	 ecx
  0001f	e8 00 00 00 00	 call	 ___stdio_common_vsprintf

; 1391 :             _CRT_INTERNAL_LOCAL_PRINTF_OPTIONS | _CRT_INTERNAL_PRINTF_LEGACY_VSPRINTF_NULL_TERMINATION,
; 1392 :             _Buffer, _BufferCount, _Format, _Locale, _ArgList);
; 1393 : 
; 1394 :         return _Result < 0 ? -1 : _Result;

  00024	83 c9 ff	 or	 ecx, -1
  00027	83 c4 1c	 add	 esp, 28			; 0000001cH
  0002a	85 c0		 test	 eax, eax
  0002c	0f 48 c1	 cmovs	 eax, ecx

; 1782 :         int _Result;
; 1783 :         va_list _ArgList;
; 1784 :         __crt_va_start(_ArgList, _Format);
; 1785 : 
; 1786 :         #pragma warning(push)
; 1787 :         #pragma warning(disable: 4996) // Deprecation
; 1788 :         _Result = _vsprintf_l(_Buffer, _Format, NULL, _ArgList);
; 1789 :         #pragma warning(pop)
; 1790 : 
; 1791 :         __crt_va_end(_ArgList);
; 1792 :         return _Result;
; 1793 :     }

  0002f	5d		 pop	 ebp
  00030	c3		 ret	 0
_sprintf ENDP
_TEXT	ENDS
; Function compile flags: /Ogtp
; File C:\Program Files (x86)\Windows Kits\10\Include\10.0.18362.0\ucrt\stdio.h
;	COMDAT __vsnprintf
_TEXT	SEGMENT
__Buffer$ = 8						; size = 4
__BufferCount$ = 12					; size = 4
__Format$ = 16						; size = 4
__ArgList$ = 20						; size = 4
__vsnprintf PROC					; COMDAT

; 1409 :     {

  00000	55		 push	 ebp
  00001	8b ec		 mov	 ebp, esp

; 1390 :         int const _Result = __stdio_common_vsprintf(

  00003	ff 75 14	 push	 DWORD PTR __ArgList$[ebp]
  00006	6a 00		 push	 0
  00008	ff 75 10	 push	 DWORD PTR __Format$[ebp]
  0000b	ff 75 0c	 push	 DWORD PTR __BufferCount$[ebp]
  0000e	ff 75 08	 push	 DWORD PTR __Buffer$[ebp]
  00011	e8 00 00 00 00	 call	 ___local_stdio_printf_options
  00016	8b 08		 mov	 ecx, DWORD PTR [eax]
  00018	ff 70 04	 push	 DWORD PTR [eax+4]
  0001b	83 c9 01	 or	 ecx, 1
  0001e	51		 push	 ecx
  0001f	e8 00 00 00 00	 call	 ___stdio_common_vsprintf

; 1391 :             _CRT_INTERNAL_LOCAL_PRINTF_OPTIONS | _CRT_INTERNAL_PRINTF_LEGACY_VSPRINTF_NULL_TERMINATION,
; 1392 :             _Buffer, _BufferCount, _Format, _Locale, _ArgList);
; 1393 : 
; 1394 :         return _Result < 0 ? -1 : _Result;

  00024	83 c9 ff	 or	 ecx, -1
  00027	83 c4 1c	 add	 esp, 28			; 0000001cH
  0002a	85 c0		 test	 eax, eax
  0002c	0f 48 c1	 cmovs	 eax, ecx

; 1410 :         #pragma warning(push)
; 1411 :         #pragma warning(disable: 4996) // Deprecation
; 1412 :         return _vsnprintf_l(_Buffer, _BufferCount, _Format, NULL, _ArgList);
; 1413 :         #pragma warning(pop)
; 1414 :     }

  0002f	5d		 pop	 ebp
  00030	c3		 ret	 0
__vsnprintf ENDP
_TEXT	ENDS
; Function compile flags: /Ogtp
; File C:\Program Files (x86)\Windows Kits\10\Include\10.0.18362.0\ucrt\stdio.h
;	COMDAT _fprintf
_TEXT	SEGMENT
__Stream$ = 8						; size = 4
__Format$ = 12						; size = 4
_fprintf PROC						; COMDAT

; 835  :     {

  00000	55		 push	 ebp
  00001	8b ec		 mov	 ebp, esp

; 643  :         return __stdio_common_vfprintf(_CRT_INTERNAL_LOCAL_PRINTF_OPTIONS, _Stream, _Format, _Locale, _ArgList);

  00003	8d 45 10	 lea	 eax, DWORD PTR __Format$[ebp+4]
  00006	50		 push	 eax
  00007	6a 00		 push	 0
  00009	ff 75 0c	 push	 DWORD PTR __Format$[ebp]
  0000c	ff 75 08	 push	 DWORD PTR __Stream$[ebp]
  0000f	e8 00 00 00 00	 call	 ___local_stdio_printf_options
  00014	ff 70 04	 push	 DWORD PTR [eax+4]
  00017	ff 30		 push	 DWORD PTR [eax]
  00019	e8 00 00 00 00	 call	 ___stdio_common_vfprintf
  0001e	83 c4 18	 add	 esp, 24			; 00000018H

; 836  :         int _Result;
; 837  :         va_list _ArgList;
; 838  :         __crt_va_start(_ArgList, _Format);
; 839  :         _Result = _vfprintf_l(_Stream, _Format, NULL, _ArgList);
; 840  :         __crt_va_end(_ArgList);
; 841  :         return _Result;
; 842  :     }

  00021	5d		 pop	 ebp
  00022	c3		 ret	 0
_fprintf ENDP
_TEXT	ENDS
; Function compile flags: /Ogtp
; File C:\Program Files (x86)\Windows Kits\10\Include\10.0.18362.0\ucrt\corecrt_stdio_config.h
;	COMDAT ___local_stdio_printf_options
_TEXT	SEGMENT
___local_stdio_printf_options PROC			; COMDAT

; 87   :         static unsigned __int64 _OptionsStorage;
; 88   :         return &_OptionsStorage;

  00000	b8 00 00 00 00	 mov	 eax, OFFSET ?_OptionsStorage@?1??__local_stdio_printf_options@@9@4_KA ; `__local_stdio_printf_options'::`2'::_OptionsStorage

; 89   :     }

  00005	c3		 ret	 0
___local_stdio_printf_options ENDP
_TEXT	ENDS
; Function compile flags: /Ogtp
; File D:\Metin2 Server Files\mainline\SRC_2014\Metin2Client\UserInterface\UserInterface.cpp
; File C:\Program Files (x86)\Windows Kits\10\Include\10.0.18362.0\ucrt\string.h
; File D:\Metin2 Server Files\mainline\SRC_2014\Metin2Client\UserInterface\UserInterface.cpp
; File C:\Program Files (x86)\Windows Kits\10\Include\10.0.18362.0\ucrt\string.h
; File D:\Metin2 Server Files\mainline\SRC_2014\Metin2Client\UserInterface\UserInterface.cpp
;	COMDAT _WinMain@16
_TEXT	SEGMENT
_hInstance$GSCopy$1$ = -548				; size = 4
_lpCmdLine$GSCopy$1$ = -544				; size = 4
tv331 = -540						; size = 4
_nArgc$ = -536						; size = 4
_szArgv$1$ = -532					; size = 4
_bQuit$1$ = -525					; size = 1
_szVersionPath$1 = -524					; size = 260
_szModuleName$2 = -264					; size = 260
__$ArrayPad$ = -4					; size = 4
_hInstance$ = 8						; size = 4
_hPrevInstance$ = 12					; size = 4
_lpCmdLine$ = 16					; size = 4
_nCmdShow$ = 20						; size = 4
_WinMain@16 PROC					; COMDAT

; 526  : {

  00000	55		 push	 ebp
  00001	8b ec		 mov	 ebp, esp
  00003	81 ec 24 02 00
	00		 sub	 esp, 548		; 00000224H
  00009	a1 00 00 00 00	 mov	 eax, DWORD PTR ___security_cookie
  0000e	33 c5		 xor	 eax, ebp
  00010	89 45 fc	 mov	 DWORD PTR __$ArrayPad$[ebp], eax
  00013	53		 push	 ebx
  00014	8b 5d 10	 mov	 ebx, DWORD PTR _lpCmdLine$[ebp]
  00017	56		 push	 esi
  00018	8b 75 08	 mov	 esi, DWORD PTR _hInstance$[ebp]
; File C:\Program Files (x86)\Windows Kits\10\Include\10.0.18362.0\ucrt\string.h

; 524  :         return const_cast<char*>(strstr(static_cast<char const*>(_String), _SubString));

  0001b	68 00 00 00 00	 push	 OFFSET ??_C@_0N@FPLLJIDE@?9?9hackshield@
  00020	53		 push	 ebx
; File D:\Metin2 Server Files\mainline\SRC_2014\Metin2Client\UserInterface\UserInterface.cpp

; 526  : {

  00021	89 b5 dc fd ff
	ff		 mov	 DWORD PTR _hInstance$GSCopy$1$[ebp], esi
  00027	89 9d e0 fd ff
	ff		 mov	 DWORD PTR _lpCmdLine$GSCopy$1$[ebp], ebx
; File C:\Program Files (x86)\Windows Kits\10\Include\10.0.18362.0\ucrt\string.h

; 524  :         return const_cast<char*>(strstr(static_cast<char const*>(_String), _SubString));

  0002d	e8 00 00 00 00	 call	 _strstr
  00032	83 c4 08	 add	 esp, 8
; File D:\Metin2 Server Files\mainline\SRC_2014\Metin2Client\UserInterface\UserInterface.cpp

; 527  : 	if (strstr(lpCmdLine, "--hackshield") != 0)

  00035	85 c0		 test	 eax, eax
  00037	0f 85 77 02 00
	00		 jne	 $LN38@WinMain

; 528  : 		return 0;
; 529  : 
; 530  : #ifdef _DEBUG
; 531  : 	_CrtSetDbgFlag( _CRTDBG_ALLOC_MEM_DF | _CRTDBG_CHECK_CRT_DF | _CRTDBG_LEAK_CHECK_DF );
; 532  : 	//_CrtSetBreakAlloc( 110247 ); 
; 533  : #endif
; 534  : 
; 535  : 	ApplicationStringTable_Initialize(hInstance);

  0003d	57		 push	 edi
  0003e	56		 push	 esi
  0003f	e8 00 00 00 00	 call	 ?ApplicationStringTable_Initialize@@YAXPAUHINSTANCE__@@@Z ; ApplicationStringTable_Initialize

; 536  : 
; 537  : 	LocaleService_LoadConfig("locale.cfg");

  00044	68 00 00 00 00	 push	 OFFSET ??_C@_0L@LCFODDFH@locale?4cfg@
  00049	e8 00 00 00 00	 call	 ?LocaleService_LoadConfig@@YAXPBD@Z ; LocaleService_LoadConfig

; 538  : 	SetDefaultCodePage(LocaleService_GetCodePage());	

  0004e	e8 00 00 00 00	 call	 ?LocaleService_GetCodePage@@YAIXZ ; LocaleService_GetCodePage
  00053	50		 push	 eax
  00054	e8 00 00 00 00	 call	 ?SetDefaultCodePage@@YA_NK@Z ; SetDefaultCodePage

; 539  : 
; 540  : #ifdef XTRAP_CLIENT_ENABLE
; 541  : 	if (!XTrap_Init())
; 542  : 		return 0;
; 543  : #endif
; 544  : 
; 545  : #ifdef USE_AHNLAB_HACKSHIELD
; 546  : 	if (!HackShield_Init())
; 547  : 		return 0;
; 548  : #endif
; 549  : 
; 550  : #ifdef USE_NPROTECT_GAMEGUARD
; 551  : 	if (!GameGuard_Init())
; 552  : 		return 0;
; 553  : #endif
; 554  : 
; 555  : #if defined(CHECK_LATEST_DATA_FILES)
; 556  : 	if (!CheckLatestFiles())
; 557  : 		return 0;
; 558  : #endif
; 559  : 
; 560  : 	bool bQuit = false;
; 561  : 	bool bAuthKeyChecked = false;	//OpenID      .
; 562  : 	int nArgc = 0;
; 563  : 	PCHAR* szArgv = CommandLineToArgv( lpCmdLine, &nArgc );

  00059	8d 85 e8 fd ff
	ff		 lea	 eax, DWORD PTR _nArgc$[ebp]
  0005f	c6 85 f3 fd ff
	ff 00		 mov	 BYTE PTR _bQuit$1$[ebp], 0
  00066	50		 push	 eax
  00067	53		 push	 ebx
  00068	c7 85 e8 fd ff
	ff 00 00 00 00	 mov	 DWORD PTR _nArgc$[ebp], 0
  00072	e8 00 00 00 00	 call	 ?CommandLineToArgv@@YAPAPADPADPAH@Z ; CommandLineToArgv

; 564  : 
; 565  : 	for( int i=0; i < nArgc; i++ ) {

  00077	33 ff		 xor	 edi, edi
  00079	83 c4 14	 add	 esp, 20			; 00000014H
  0007c	8b c8		 mov	 ecx, eax
  0007e	89 8d ec fd ff
	ff		 mov	 DWORD PTR _szArgv$1$[ebp], ecx
  00084	39 bd e8 fd ff
	ff		 cmp	 DWORD PTR _nArgc$[ebp], edi
  0008a	0f 8e 9b 01 00
	00		 jle	 $LN31@WinMain

; 528  : 		return 0;
; 529  : 
; 530  : #ifdef _DEBUG
; 531  : 	_CrtSetDbgFlag( _CRTDBG_ALLOC_MEM_DF | _CRTDBG_CHECK_CRT_DF | _CRTDBG_LEAK_CHECK_DF );
; 532  : 	//_CrtSetBreakAlloc( 110247 ); 
; 533  : #endif
; 534  : 
; 535  : 	ApplicationStringTable_Initialize(hInstance);

  00090	8d 59 08	 lea	 ebx, DWORD PTR [ecx+8]
  00093	0f 1f 40 00 66
	0f 1f 84 00 00
	00 00 00	 npad	 13
$LL4@WinMain:

; 566  : 		if(szArgv[i] == 0)

  000a0	8d 04 bd 00 00
	00 00		 lea	 eax, DWORD PTR [edi*4]
  000a7	8b 34 08	 mov	 esi, DWORD PTR [eax+ecx]
  000aa	89 85 e4 fd ff
	ff		 mov	 DWORD PTR tv331[ebp], eax
  000b0	85 f6		 test	 esi, esi
  000b2	0f 84 8c 01 00
	00		 je	 $LN40@WinMain

; 567  : 			continue;
; 568  : 		if (__IsLocaleVersion(szArgv[i])) // #0000829: [M2EU]       

  000b8	56		 push	 esi
  000b9	e8 00 00 00 00	 call	 ?__IsLocaleVersion@@YA_NPAD@Z ; __IsLocaleVersion
  000be	83 c4 04	 add	 esp, 4
  000c1	84 c0		 test	 al, al
  000c3	74 6d		 je	 SHORT $LN7@WinMain

; 569  : 		{
; 570  : 			char szModuleName[MAX_PATH];
; 571  : 			char szVersionPath[MAX_PATH];
; 572  : 			GetModuleFileName(NULL, szModuleName, sizeof(szModuleName));

  000c5	68 04 01 00 00	 push	 260			; 00000104H
  000ca	8d 85 f8 fe ff
	ff		 lea	 eax, DWORD PTR _szModuleName$2[ebp]
  000d0	50		 push	 eax
  000d1	6a 00		 push	 0
  000d3	ff 15 00 00 00
	00		 call	 DWORD PTR __imp__GetModuleFileNameA@12

; 573  : 			sprintf(szVersionPath, "%s.version", szModuleName);

  000d9	8d 85 f8 fe ff
	ff		 lea	 eax, DWORD PTR _szModuleName$2[ebp]
  000df	50		 push	 eax
  000e0	8d 85 f4 fd ff
	ff		 lea	 eax, DWORD PTR _szVersionPath$1[ebp]
  000e6	68 00 00 00 00	 push	 OFFSET ??_C@_0L@IBAMLFBB@?$CFs?4version@
  000eb	50		 push	 eax
  000ec	e8 00 00 00 00	 call	 _sprintf

; 574  : 			FILE* fp = fopen(szVersionPath, "wt");

  000f1	8d 85 f4 fd ff
	ff		 lea	 eax, DWORD PTR _szVersionPath$1[ebp]
  000f7	68 00 00 00 00	 push	 OFFSET ??_C@_02BKFDOEMK@wt@
  000fc	50		 push	 eax
  000fd	e8 00 00 00 00	 call	 _fopen
  00102	8b f0		 mov	 esi, eax
  00104	83 c4 14	 add	 esp, 20			; 00000014H

; 575  : 			if (fp)

  00107	85 f6		 test	 esi, esi
  00109	74 1a		 je	 SHORT $LN9@WinMain

; 576  : 			{
; 577  : 				extern int METIN2_GET_VERSION();
; 578  : 				fprintf(fp, "r%d\n", METIN2_GET_VERSION());

  0010b	e8 00 00 00 00	 call	 ?METIN2_GET_VERSION@@YAHXZ ; METIN2_GET_VERSION
  00110	50		 push	 eax
  00111	68 00 00 00 00	 push	 OFFSET ??_C@_04JIBCGPDH@r?$CFd?6@
  00116	56		 push	 esi
  00117	e8 00 00 00 00	 call	 _fprintf

; 579  : 				fclose(fp);

  0011c	56		 push	 esi
  0011d	e8 00 00 00 00	 call	 _fclose
  00122	83 c4 10	 add	 esp, 16			; 00000010H
$LN9@WinMain:

; 580  : 			}
; 581  : 			bQuit = true;

  00125	b0 01		 mov	 al, 1
  00127	88 85 f3 fd ff
	ff		 mov	 BYTE PTR _bQuit$1$[ebp], al
  0012d	e9 cf 00 00 00	 jmp	 $LN42@WinMain
$LN7@WinMain:

; 582  : 		} else if (__IsLocaleOption(szArgv[i]))

  00132	56		 push	 esi
  00133	e8 00 00 00 00	 call	 ?__IsLocaleOption@@YA_NPAD@Z ; __IsLocaleOption
  00138	83 c4 04	 add	 esp, 4
  0013b	84 c0		 test	 al, al
  0013d	74 41		 je	 SHORT $LN10@WinMain

; 583  : 		{
; 584  : 			FILE* fp=fopen("locale.txt", "wt");

  0013f	68 00 00 00 00	 push	 OFFSET ??_C@_02BKFDOEMK@wt@
  00144	68 00 00 00 00	 push	 OFFSET ??_C@_0L@IMHJDJJ@locale?4txt@
  00149	e8 00 00 00 00	 call	 _fopen
  0014e	83 c4 08	 add	 esp, 8
  00151	8b f0		 mov	 esi, eax

; 585  : 			fprintf(fp, "service[%s] code_page[%d]", 

  00153	e8 00 00 00 00	 call	 ?LocaleService_GetCodePage@@YAIXZ ; LocaleService_GetCodePage
  00158	50		 push	 eax
  00159	e8 00 00 00 00	 call	 ?LocaleService_GetName@@YAPBDXZ ; LocaleService_GetName
  0015e	50		 push	 eax
  0015f	68 00 00 00 00	 push	 OFFSET ??_C@_0BK@LJMCIPPN@service?$FL?$CFs?$FN?5code_page?$FL?$CFd?$FN@
  00164	56		 push	 esi
  00165	e8 00 00 00 00	 call	 _fprintf

; 586  : 				LocaleService_GetName(), LocaleService_GetCodePage());
; 587  : 			fclose(fp);

  0016a	56		 push	 esi
  0016b	e8 00 00 00 00	 call	 _fclose

; 588  : 			bQuit = true;

  00170	b0 01		 mov	 al, 1
  00172	83 c4 14	 add	 esp, 20			; 00000014H
  00175	88 85 f3 fd ff
	ff		 mov	 BYTE PTR _bQuit$1$[ebp], al
  0017b	e9 81 00 00 00	 jmp	 $LN42@WinMain
$LN10@WinMain:

; 589  : 		} else if (__IsTimeStampOption(szArgv[i]))

  00180	56		 push	 esi
  00181	e8 00 00 00 00	 call	 ?__IsTimeStampOption@@YA_NPAD@Z ; __IsTimeStampOption
  00186	83 c4 04	 add	 esp, 4
  00189	84 c0		 test	 al, al
  0018b	74 0f		 je	 SHORT $LN12@WinMain

; 590  : 		{
; 591  : 			__PrintTimeStamp();

  0018d	e8 00 00 00 00	 call	 ?__PrintTimeStamp@@YAXXZ ; __PrintTimeStamp

; 592  : 			bQuit = true;

  00192	b0 01		 mov	 al, 1
  00194	88 85 f3 fd ff
	ff		 mov	 BYTE PTR _bQuit$1$[ebp], al
  0019a	eb 65		 jmp	 SHORT $LN42@WinMain
$LN12@WinMain:

; 593  : 		} else if ((strcmp(szArgv[i], "--force-set-locale") == 0))

  0019c	8b b5 e4 fd ff
	ff		 mov	 esi, DWORD PTR tv331[ebp]
  001a2	b9 00 00 00 00	 mov	 ecx, OFFSET ??_C@_0BD@BMCCGKJE@?9?9force?9set?9locale@
  001a7	8b 85 ec fd ff
	ff		 mov	 eax, DWORD PTR _szArgv$1$[ebp]
  001ad	8b 04 06	 mov	 eax, DWORD PTR [esi+eax]
$LL33@WinMain:
  001b0	8a 10		 mov	 dl, BYTE PTR [eax]
  001b2	3a 11		 cmp	 dl, BYTE PTR [ecx]
  001b4	75 1a		 jne	 SHORT $LN34@WinMain
  001b6	84 d2		 test	 dl, dl
  001b8	74 12		 je	 SHORT $LN35@WinMain
  001ba	8a 50 01	 mov	 dl, BYTE PTR [eax+1]
  001bd	3a 51 01	 cmp	 dl, BYTE PTR [ecx+1]
  001c0	75 0e		 jne	 SHORT $LN34@WinMain
  001c2	83 c0 02	 add	 eax, 2
  001c5	83 c1 02	 add	 ecx, 2
  001c8	84 d2		 test	 dl, dl
  001ca	75 e4		 jne	 SHORT $LL33@WinMain
$LN35@WinMain:
  001cc	33 c0		 xor	 eax, eax
  001ce	eb 05		 jmp	 SHORT $LN36@WinMain
$LN34@WinMain:
  001d0	1b c0		 sbb	 eax, eax
  001d2	83 c8 01	 or	 eax, 1
$LN36@WinMain:
  001d5	85 c0		 test	 eax, eax
  001d7	75 22		 jne	 SHORT $LN41@WinMain

; 594  : 		{
; 595  : 			// locale       ( ,  )
; 596  : 			if (nArgc <= i + 2)

  001d9	83 c7 02	 add	 edi, 2
  001dc	39 bd e8 fd ff
	ff		 cmp	 DWORD PTR _nArgc$[ebp], edi
  001e2	7e 68		 jle	 SHORT $LN27@WinMain

; 599  : 				goto Clean;
; 600  : 			}
; 601  : 
; 602  : 			const char* localeName = szArgv[++i];
; 603  : 			const char* localePath = szArgv[++i];
; 604  : 
; 605  : 			LocaleService_ForceSetLocale(localeName, localePath);

  001e4	8b 85 ec fd ff
	ff		 mov	 eax, DWORD PTR _szArgv$1$[ebp]
  001ea	ff 33		 push	 DWORD PTR [ebx]
  001ec	ff 74 06 04	 push	 DWORD PTR [esi+eax+4]
  001f0	e8 00 00 00 00	 call	 ?LocaleService_ForceSetLocale@@YAXPBD0@Z ; LocaleService_ForceSetLocale
  001f5	83 c4 08	 add	 esp, 8
  001f8	83 c3 08	 add	 ebx, 8
$LN41@WinMain:

; 564  : 
; 565  : 	for( int i=0; i < nArgc; i++ ) {

  001fb	8a 85 f3 fd ff
	ff		 mov	 al, BYTE PTR _bQuit$1$[ebp]
$LN42@WinMain:
  00201	8b 8d ec fd ff
	ff		 mov	 ecx, DWORD PTR _szArgv$1$[ebp]
$LN2@WinMain:
  00207	47		 inc	 edi
  00208	83 c3 04	 add	 ebx, 4
  0020b	3b bd e8 fd ff
	ff		 cmp	 edi, DWORD PTR _nArgc$[ebp]
  00211	0f 8c 89 fe ff
	ff		 jl	 $LL4@WinMain

; 606  : 		}
; 607  : #ifdef USE_OPENID
; 608  : 		else if (__IsOpenIDAuthKeyOption(szArgv[i]))	//2012.07.16 OpenID : 
; 609  : 		{
; 610  : 			//        ()
; 611  : 			if (nArgc <= i + 1)
; 612  : 			{
; 613  : 				MessageBox(NULL, "Invalid arguments", ApplicationStringTable_GetStringz(IDS_APP_NAME, "APP_NAME"), MB_ICONSTOP);
; 614  : 				goto Clean;
; 615  : 			}
; 616  : 
; 617  : 			const char* authKey = szArgv[++i];
; 618  : 
; 619  : 			//ongoing (2012.07.16)
; 620  : 			//  
; 621  : 			LocaleService_SetOpenIDAuthKey(authKey);
; 622  : 
; 623  : 			bAuthKeyChecked = true;
; 624  : 		}
; 625  : 		else if (__IsOpenIDTestOption(szArgv[i]))
; 626  : 		{
; 627  : 			openid_test = 1;
; 628  : 
; 629  : 		}
; 630  : #endif /* USE_OPENID */
; 631  : 	}
; 632  : 
; 633  : #ifdef USE_OPENID
; 634  : 	//OpenID
; 635  : 	//OpenID      (   )  .
; 636  : 	
; 637  : 	if (false == bAuthKeyChecked && !openid_test)
; 638  : 	{
; 639  : 		MessageBox(NULL, "Invalid execution", ApplicationStringTable_GetStringz(IDS_APP_NAME, "APP_NAME"), MB_ICONSTOP);
; 640  : 		goto Clean;
; 641  : 	}
; 642  : #endif /* USE_OPENID */
; 643  : 
; 644  : 
; 645  : 	if(bQuit)

  00217	84 c0		 test	 al, al
  00219	0f 85 83 00 00
	00		 jne	 $Clean$45
  0021f	8b 9d e0 fd ff
	ff		 mov	 ebx, DWORD PTR _lpCmdLine$GSCopy$1$[ebp]
  00225	8b b5 dc fd ff
	ff		 mov	 esi, DWORD PTR _hInstance$GSCopy$1$[ebp]
$LN31@WinMain:

; 646  : 		goto Clean;
; 647  : 
; 648  : #if defined(NEEDED_COMMAND_ARGUMENT)
; 649  : 	//     ,  
; 650  : 	if (strstr(lpCmdLine, NEEDED_COMMAND_ARGUMENT) == 0) {
; 651  : 		MessageBox(NULL, ApplicationStringTable_GetStringz(IDS_ERR_MUST_LAUNCH_FROM_PATCHER, "ERR_MUST_LAUNCH_FROM_PATCHER"), ApplicationStringTable_GetStringz(IDS_APP_NAME, "APP_NAME"), MB_ICONSTOP);
; 652  : 			goto Clean;
; 653  : 	}
; 654  : #endif
; 655  : 
; 656  : #if defined(NEEDED_COMMAND_CLIPBOARD)
; 657  : 	{
; 658  : 		CHAR szSecKey[256];
; 659  : 		CPostIt cPostIt( "VOLUME1" );
; 660  : 
; 661  : 		if( cPostIt.Get( "SEC_KEY", szSecKey, sizeof(szSecKey) ) == FALSE ) {
; 662  : 			MessageBox(NULL, ApplicationStringTable_GetStringz(IDS_ERR_MUST_LAUNCH_FROM_PATCHER, "ERR_MUST_LAUNCH_FROM_PATCHER"), ApplicationStringTable_GetStringz(IDS_APP_NAME, "APP_NAME"), MB_ICONSTOP);
; 663  : 			goto Clean;
; 664  : 		}
; 665  : 		if( strstr(szSecKey, NEEDED_COMMAND_CLIPBOARD) == 0 ) {
; 666  : 			MessageBox(NULL, ApplicationStringTable_GetStringz(IDS_ERR_MUST_LAUNCH_FROM_PATCHER, "ERR_MUST_LAUNCH_FROM_PATCHER"), ApplicationStringTable_GetStringz(IDS_APP_NAME, "APP_NAME"), MB_ICONSTOP);
; 667  : 			goto Clean;
; 668  : 		}
; 669  : 		cPostIt.Empty();
; 670  : 	}
; 671  : #endif
; 672  : 
; 673  : 	WebBrowser_Startup(hInstance);

  0022b	56		 push	 esi
  0022c	e8 00 00 00 00	 call	 _WebBrowser_Startup
  00231	83 c4 04	 add	 esp, 4

; 674  : 
; 675  : 	if (!CheckPythonLibraryFilenames())

  00234	e8 00 00 00 00	 call	 ?CheckPythonLibraryFilenames@@YA_NXZ ; CheckPythonLibraryFilenames
  00239	84 c0		 test	 al, al
  0023b	75 28		 jne	 SHORT $LN19@WinMain

; 676  : 	{
; 677  : 		__ErrorPythonLibraryIsNotExist();

  0023d	e8 00 00 00 00	 call	 ?__ErrorPythonLibraryIsNotExist@@YAXXZ ; __ErrorPythonLibraryIsNotExist

; 678  : 		goto Clean;

  00242	eb 5e		 jmp	 SHORT $Clean$45
$LN40@WinMain:

; 566  : 		if(szArgv[i] == 0)

  00244	8a 85 f3 fd ff
	ff		 mov	 al, BYTE PTR _bQuit$1$[ebp]
  0024a	eb bb		 jmp	 SHORT $LN2@WinMain
$LN27@WinMain:

; 597  : 			{
; 598  : 				MessageBox(NULL, "Invalid arguments", ApplicationStringTable_GetStringz(IDS_APP_NAME, "APP_NAME"), MB_ICONSTOP);

  0024c	6a 10		 push	 16			; 00000010H
  0024e	68 00 00 00 00	 push	 OFFSET ??_C@_08GKBDCAOF@APP_NAME@
  00253	6a 01		 push	 1
  00255	e8 00 00 00 00	 call	 ?ApplicationStringTable_GetStringz@@YAPBDKPBD@Z ; ApplicationStringTable_GetStringz
  0025a	83 c4 08	 add	 esp, 8
  0025d	50		 push	 eax
  0025e	68 00 00 00 00	 push	 OFFSET ??_C@_0BC@PALKPJEA@Invalid?5arguments@

; 693  : 
; 694  : Clean:

  00263	eb 35		 jmp	 SHORT $LN43@WinMain
$LN19@WinMain:

; 679  : 	}
; 680  : 
; 681  : 	Main(hInstance, lpCmdLine);

  00265	53		 push	 ebx
  00266	56		 push	 esi
  00267	e8 00 00 00 00	 call	 ?Main@@YA_NPAUHINSTANCE__@@PAD@Z ; Main
  0026c	83 c4 08	 add	 esp, 8

; 682  : 
; 683  : #ifdef USE_NPROTECT_GAMEGUARD
; 684  : 	GameGuard_NoticeMessage();
; 685  : #endif
; 686  : 
; 687  : 	WebBrowser_Cleanup();

  0026f	e8 00 00 00 00	 call	 _WebBrowser_Cleanup

; 688  : 
; 689  : 	::CoUninitialize();

  00274	ff 15 00 00 00
	00		 call	 DWORD PTR __imp__CoUninitialize@0

; 690  : 
; 691  : 	if(gs_szErrorString[0])

  0027a	80 3d 00 00 00
	00 00		 cmp	 BYTE PTR ?gs_szErrorString@@3PADA, 0
  00281	74 1f		 je	 SHORT $Clean$45

; 692  : 		MessageBox(NULL, gs_szErrorString, ApplicationStringTable_GetStringz(IDS_APP_NAME, "APP_NAME"), MB_ICONSTOP);

  00283	6a 10		 push	 16			; 00000010H
  00285	68 00 00 00 00	 push	 OFFSET ??_C@_08GKBDCAOF@APP_NAME@
  0028a	6a 01		 push	 1
  0028c	e8 00 00 00 00	 call	 ?ApplicationStringTable_GetStringz@@YAPBDKPBD@Z ; ApplicationStringTable_GetStringz
  00291	83 c4 08	 add	 esp, 8
  00294	50		 push	 eax
  00295	68 00 00 00 00	 push	 OFFSET ?gs_szErrorString@@3PADA ; gs_szErrorString
$LN43@WinMain:

; 695  : #ifdef USE_AHNLAB_HACKSHIELD
; 696  : 	HackShield_Shutdown();
; 697  : #endif
; 698  : 	SAFE_FREE_GLOBAL(szArgv);

  0029a	6a 00		 push	 0
  0029c	ff 15 00 00 00
	00		 call	 DWORD PTR __imp__MessageBoxA@16
$Clean$45:
  002a2	8b 85 ec fd ff
	ff		 mov	 eax, DWORD PTR _szArgv$1$[ebp]
  002a8	5f		 pop	 edi
  002a9	85 c0		 test	 eax, eax
  002ab	74 07		 je	 SHORT $LN38@WinMain
  002ad	50		 push	 eax
  002ae	ff 15 00 00 00
	00		 call	 DWORD PTR __imp__GlobalFree@4
$LN38@WinMain:

; 699  : 
; 700  : 	return 0;
; 701  : }

  002b4	8b 4d fc	 mov	 ecx, DWORD PTR __$ArrayPad$[ebp]
  002b7	33 c0		 xor	 eax, eax
  002b9	5e		 pop	 esi
  002ba	33 cd		 xor	 ecx, ebp
  002bc	5b		 pop	 ebx
  002bd	e8 00 00 00 00	 call	 @__security_check_cookie@4
  002c2	8b e5		 mov	 esp, ebp
  002c4	5d		 pop	 ebp
  002c5	c2 10 00	 ret	 16			; 00000010H
_WinMain@16 ENDP
_TEXT	ENDS
; Function compile flags: /Ogtp
; File D:\Metin2 Server Files\mainline\SRC_2014\Metin2Client\UserInterface\UserInterface.cpp
;	COMDAT ?__empty_global_delete@@YAXPAXI@Z
_TEXT	SEGMENT
___formal$ = 8						; size = 4
___formal$ = 12						; size = 4
?__empty_global_delete@@YAXPAXI@Z PROC			; __empty_global_delete, COMDAT

  00000	c2 00 00	 ret	 0
?__empty_global_delete@@YAXPAXI@Z ENDP			; __empty_global_delete
_TEXT	ENDS
; Function compile flags: /Ogtp
; File D:\Metin2 Server Files\mainline\SRC_2014\Metin2Client\UserInterface\UserInterface.cpp
;	COMDAT ?__empty_global_delete@@YAXPAX@Z
_TEXT	SEGMENT
___formal$ = 8						; size = 4
?__empty_global_delete@@YAXPAX@Z PROC			; __empty_global_delete, COMDAT

  00000	c2 00 00	 ret	 0
?__empty_global_delete@@YAXPAX@Z ENDP			; __empty_global_delete
_TEXT	ENDS
; Function compile flags: /Ogtp
;	COMDAT ??_H@YGXPAXIIP6EPAX0@Z@Z
_TEXT	SEGMENT
___t$ = 8						; size = 4
___s$ = 12						; size = 4
___n$ = 16						; size = 4
___f$ = 20						; size = 4
??_H@YGXPAXIIP6EPAX0@Z@Z PROC				; `vector constructor iterator', COMDAT
  00000	55		 push	 ebp
  00001	8b ec		 mov	 ebp, esp
  00003	56		 push	 esi
  00004	8b 75 10	 mov	 esi, DWORD PTR ___n$[ebp]
  00007	85 f6		 test	 esi, esi
  00009	74 16		 je	 SHORT $LN6@vector
  0000b	53		 push	 ebx
  0000c	8b 5d 14	 mov	 ebx, DWORD PTR ___f$[ebp]
  0000f	57		 push	 edi
  00010	8b 7d 08	 mov	 edi, DWORD PTR ___t$[ebp]
$LL2@vector:
  00013	8b cf		 mov	 ecx, edi
  00015	ff d3		 call	 ebx
  00017	03 7d 0c	 add	 edi, DWORD PTR ___s$[ebp]
  0001a	83 ee 01	 sub	 esi, 1
  0001d	75 f4		 jne	 SHORT $LL2@vector
  0001f	5f		 pop	 edi
  00020	5b		 pop	 ebx
$LN6@vector:
  00021	5e		 pop	 esi
  00022	5d		 pop	 ebp
  00023	c2 10 00	 ret	 16			; 00000010H
??_H@YGXPAXIIP6EPAX0@Z@Z ENDP				; `vector constructor iterator'
_TEXT	ENDS
END
