; Listing generated by Microsoft (R) Optimizing Compiler Version 19.28.29335.0 

	TITLE	D:\Metin2 Server Files\mainline\SRC_2014\Metin2Client\UserInterface\WiseLogicXTrap.cpp
	.686P
	.XMM
	include listing.inc
	.model	flat

INCLUDELIB LIBCMT
INCLUDELIB OLDNAMES

PUBLIC	?XTrap_Init@@YA_NXZ				; XTrap_Init
PUBLIC	?XTrap_CheckInit@@YA_NXZ			; XTrap_CheckInit
PUBLIC	?XTrap_PollEvent@@YAXXZ				; XTrap_PollEvent
PUBLIC	?XTrap_ValidateCheckStream@@YAXPAX0@Z		; XTrap_ValidateCheckStream
PUBLIC	?XTrap_SetUserInfo@@YAXPBD000I@Z		; XTrap_SetUserInfo
; Function compile flags: /Ogtp
; File D:\Metin2 Server Files\mainline\SRC_2014\Metin2Client\UserInterface\WiseLogicXTrap.cpp
;	COMDAT ?XTrap_SetUserInfo@@YAXPBD000I@Z
_TEXT	SEGMENT
_szUserID$ = 8						; size = 4
_szServerName$ = 12					; size = 4
_szCharacterName$ = 16					; size = 4
_szCharacterClass$ = 20					; size = 4
_hSocket$ = 24						; size = 4
?XTrap_SetUserInfo@@YAXPBD000I@Z PROC			; XTrap_SetUserInfo, COMDAT

; 73   : 
; 74   : }

  00000	c2 00 00	 ret	 0
?XTrap_SetUserInfo@@YAXPBD000I@Z ENDP			; XTrap_SetUserInfo
_TEXT	ENDS
; Function compile flags: /Ogtp
; File D:\Metin2 Server Files\mainline\SRC_2014\Metin2Client\UserInterface\WiseLogicXTrap.cpp
;	COMDAT ?XTrap_ValidateCheckStream@@YAXPAX0@Z
_TEXT	SEGMENT
_PacketBufferIn$ = 8					; size = 4
_PacketBufferOut$ = 12					; size = 4
?XTrap_ValidateCheckStream@@YAXPAX0@Z PROC		; XTrap_ValidateCheckStream, COMDAT

; 78   : 
; 79   : }

  00000	c2 00 00	 ret	 0
?XTrap_ValidateCheckStream@@YAXPAX0@Z ENDP		; XTrap_ValidateCheckStream
_TEXT	ENDS
; Function compile flags: /Ogtp
; File D:\Metin2 Server Files\mainline\SRC_2014\Metin2Client\UserInterface\WiseLogicXTrap.cpp
;	COMDAT ?XTrap_PollEvent@@YAXXZ
_TEXT	SEGMENT
?XTrap_PollEvent@@YAXXZ PROC				; XTrap_PollEvent, COMDAT

; 69   : }

  00000	c2 00 00	 ret	 0
?XTrap_PollEvent@@YAXXZ ENDP				; XTrap_PollEvent
_TEXT	ENDS
; Function compile flags: /Ogtp
; File D:\Metin2 Server Files\mainline\SRC_2014\Metin2Client\UserInterface\WiseLogicXTrap.cpp
;	COMDAT ?XTrap_CheckInit@@YA_NXZ
_TEXT	SEGMENT
?XTrap_CheckInit@@YA_NXZ PROC				; XTrap_CheckInit, COMDAT

; 64   : 	return true;

  00000	b0 01		 mov	 al, 1

; 65   : }

  00002	c3		 ret	 0
?XTrap_CheckInit@@YA_NXZ ENDP				; XTrap_CheckInit
_TEXT	ENDS
; Function compile flags: /Ogtp
; File D:\Metin2 Server Files\mainline\SRC_2014\Metin2Client\UserInterface\WiseLogicXTrap.cpp
;	COMDAT ?XTrap_Init@@YA_NXZ
_TEXT	SEGMENT
?XTrap_Init@@YA_NXZ PROC				; XTrap_Init, COMDAT

; 59   : 	return true;

  00000	b0 01		 mov	 al, 1

; 60   : }

  00002	c3		 ret	 0
?XTrap_Init@@YA_NXZ ENDP				; XTrap_Init
_TEXT	ENDS
END
