; Listing generated by Microsoft (R) Optimizing Compiler Version 19.28.29335.0 

	TITLE	D:\Metin2 Server Files\mainline\SRC_2014\Metin2Client\GameLib\MapOutdoorRender.cpp
	.686P
	.XMM
	include listing.inc
	.model	flat

INCLUDELIB LIBCMT
INCLUDELIB OLDNAMES

PUBLIC	??_H@YGXPAXIIP6EPAX0@Z@Z			; `vector constructor iterator'
PUBLIC	??0exception@std@@QAE@ABV01@@Z			; std::exception::exception
PUBLIC	??1exception@std@@UAE@XZ			; std::exception::~exception
PUBLIC	?what@exception@std@@UBEPBDXZ			; std::exception::what
PUBLIC	??_Gexception@std@@UAEPAXI@Z			; std::exception::`scalar deleting destructor'
PUBLIC	??0bad_alloc@std@@QAE@ABV01@@Z			; std::bad_alloc::bad_alloc
PUBLIC	??_Gbad_alloc@std@@UAEPAXI@Z			; std::bad_alloc::`scalar deleting destructor'
PUBLIC	??0bad_array_new_length@std@@QAE@XZ		; std::bad_array_new_length::bad_array_new_length
PUBLIC	??1bad_array_new_length@std@@UAE@XZ		; std::bad_array_new_length::~bad_array_new_length
PUBLIC	??0bad_array_new_length@std@@QAE@ABV01@@Z	; std::bad_array_new_length::bad_array_new_length
PUBLIC	??_Gbad_array_new_length@std@@UAEPAXI@Z		; std::bad_array_new_length::`scalar deleting destructor'
PUBLIC	?_Throw_bad_array_new_length@std@@YAXXZ		; std::_Throw_bad_array_new_length
PUBLIC	??0D3DXMATRIX@@QAE@XZ				; D3DXMATRIX::D3DXMATRIX
PUBLIC	?_Xlength@?$vector@EV?$allocator@E@std@@@std@@CAXXZ ; std::vector<unsigned char,std::allocator<unsigned char> >::_Xlength
PUBLIC	??$_Deallocate@$07$0A@@std@@YAXPAXI@Z		; std::_Deallocate<8,0>
PUBLIC	??$_Allocate@$07U_Default_allocate_traits@std@@$0A@@std@@YAPAXI@Z ; std::_Allocate<8,std::_Default_allocate_traits,0>
PUBLIC	??$_Allocate_manually_vector_aligned@U_Default_allocate_traits@std@@@std@@YAPAXI@Z ; std::_Allocate_manually_vector_aligned<std::_Default_allocate_traits>
PUBLIC	?OnRender@CMapOutdoor@@MAEXXZ			; CMapOutdoor::OnRender
PUBLIC	?SetInverseViewAndDynamicShaodwMatrices@CMapOutdoor@@QAEXXZ ; CMapOutdoor::SetInverseViewAndDynamicShaodwMatrices
PUBLIC	?SetVisiblePart@CMapOutdoor@@QAEXH_N@Z		; CMapOutdoor::SetVisiblePart
PUBLIC	?SetSplatLimit@CMapOutdoor@@QAEXH@Z		; CMapOutdoor::SetSplatLimit
PUBLIC	?GetRenderedSplatNum@CMapOutdoor@@QAEAAV?$vector@HV?$allocator@H@std@@@std@@PAH0PAM@Z ; CMapOutdoor::GetRenderedSplatNum
PUBLIC	?GetRenderedGraphicThingInstanceNum@CMapOutdoor@@QAEAAV?$vector@USCRCWithNumber@CArea@@V?$allocator@USCRCWithNumber@CArea@@@std@@@std@@PAK0@Z ; CMapOutdoor::GetRenderedGraphicThingInstanceNum
PUBLIC	?ApplyLight@CMapOutdoor@@UAEXKABU_D3DLIGHT8@@@Z	; CMapOutdoor::ApplyLight
PUBLIC	?RenderMarkedArea@CMapOutdoor@@QAEXXZ		; CMapOutdoor::RenderMarkedArea
PUBLIC	?RecurseRenderAttr@CMapOutdoor@@QAEXPAVCTerrainQuadtreeNode@@_N@Z ; CMapOutdoor::RecurseRenderAttr
PUBLIC	?DrawPatchAttr@CMapOutdoor@@QAEXJ@Z		; CMapOutdoor::DrawPatchAttr
PUBLIC	?RenderCollision@CMapOutdoor@@QAEXXZ		; CMapOutdoor::RenderCollision
PUBLIC	?RenderSky@CMapOutdoor@@QAEXXZ			; CMapOutdoor::RenderSky
PUBLIC	?RenderCloud@CMapOutdoor@@QAEXXZ		; CMapOutdoor::RenderCloud
PUBLIC	?RenderBeforeLensFlare@CMapOutdoor@@QAEXXZ	; CMapOutdoor::RenderBeforeLensFlare
PUBLIC	?RenderAfterLensFlare@CMapOutdoor@@QAEXXZ	; CMapOutdoor::RenderAfterLensFlare
PUBLIC	?RenderScreenFiltering@CMapOutdoor@@QAEXXZ	; CMapOutdoor::RenderScreenFiltering
PUBLIC	?RenderTerrain@CMapOutdoor@@QAEXXZ		; CMapOutdoor::RenderTerrain
PUBLIC	?RenderArea@CMapOutdoor@@QAEX_N@Z		; CMapOutdoor::RenderArea
PUBLIC	?RenderBlendArea@CMapOutdoor@@QAEXXZ		; CMapOutdoor::RenderBlendArea
PUBLIC	?RenderDungeon@CMapOutdoor@@QAEXXZ		; CMapOutdoor::RenderDungeon
PUBLIC	?RenderEffect@CMapOutdoor@@QAEXXZ		; CMapOutdoor::RenderEffect
PUBLIC	?RenderPCBlocker@CMapOutdoor@@QAEXXZ		; CMapOutdoor::RenderPCBlocker
PUBLIC	?RenderTree@CMapOutdoor@@QAEXXZ			; CMapOutdoor::RenderTree
PUBLIC	?_Xlength@?$vector@U?$pair@MJ@std@@V?$allocator@U?$pair@MJ@std@@@2@@std@@CAXXZ ; std::vector<std::pair<float,long>,std::allocator<std::pair<float,long> > >::_Xlength
PUBLIC	?_Xlength@?$vector@UTPatchDrawStruct@CMapOutdoor@@V?$allocator@UTPatchDrawStruct@CMapOutdoor@@@std@@@std@@CAXXZ ; std::vector<CMapOutdoor::TPatchDrawStruct,std::allocator<CMapOutdoor::TPatchDrawStruct> >::_Xlength
PUBLIC	?SetPatchDrawVector@CMapOutdoor@@IAEXXZ		; CMapOutdoor::SetPatchDrawVector
PUBLIC	?NEW_DrawWireFrame@CMapOutdoor@@IAEXPAVCTerrainPatchProxy@@GW4_D3DPRIMITIVETYPE@@@Z ; CMapOutdoor::NEW_DrawWireFrame
PUBLIC	?DrawWireFrame@CMapOutdoor@@IAEXJGW4_D3DPRIMITIVETYPE@@@Z ; CMapOutdoor::DrawWireFrame
PUBLIC	?SelectIndexBuffer@CMapOutdoor@@IAEXEPAGPAW4_D3DPRIMITIVETYPE@@@Z ; CMapOutdoor::SelectIndexBuffer
PUBLIC	?InitializeVisibleParts@CMapOutdoor@@IAEXXZ	; CMapOutdoor::InitializeVisibleParts
PUBLIC	?IsVisiblePart@CMapOutdoor@@IAE_NH@Z		; CMapOutdoor::IsVisiblePart
PUBLIC	?__GetNoFogDistance@CMapOutdoor@@IAEMXZ		; CMapOutdoor::__GetNoFogDistance
PUBLIC	?__GetFogDistance@CMapOutdoor@@IAEMXZ		; CMapOutdoor::__GetFogDistance
PUBLIC	?__RenderTerrain_RecurseRenderQuadTree@CMapOutdoor@@IAEXPAVCTerrainQuadtreeNode@@_N@Z ; CMapOutdoor::__RenderTerrain_RecurseRenderQuadTree
PUBLIC	?__RenderTerrain_RecurseRenderQuadTree_CheckBoundingCircle@CMapOutdoor@@IAEHABUD3DXVECTOR3@@ABM@Z ; CMapOutdoor::__RenderTerrain_RecurseRenderQuadTree_CheckBoundingCircle
PUBLIC	?__RenderTerrain_AppendPatch@CMapOutdoor@@IAEXABUD3DXVECTOR3@@MJ@Z ; CMapOutdoor::__RenderTerrain_AppendPatch
PUBLIC	??$stable_sort@V?$_Vector_iterator@V?$_Vector_val@U?$_Simple_types@UTPatchDrawStruct@CMapOutdoor@@@std@@@std@@@std@@UFSortPatchDrawStructWithTerrainNum@CMapOutdoor@@@std@@YAXV?$_Vector_iterator@V?$_Vector_val@U?$_Simple_types@UTPatchDrawStruct@CMapOutdoor@@@std@@@std@@@0@0UFSortPatchDrawStructWithTerrainNum@CMapOutdoor@@@Z ; std::stable_sort<std::_Vector_iterator<std::_Vector_val<std::_Simple_types<CMapOutdoor::TPatchDrawStruct> > >,CMapOutdoor::FSortPatchDrawStructWithTerrainNum>
PUBLIC	??$_Emplace_reallocate@ABUTPatchDrawStruct@CMapOutdoor@@@?$vector@UTPatchDrawStruct@CMapOutdoor@@V?$allocator@UTPatchDrawStruct@CMapOutdoor@@@std@@@std@@QAEPAUTPatchDrawStruct@CMapOutdoor@@QAU23@ABU23@@Z ; std::vector<CMapOutdoor::TPatchDrawStruct,std::allocator<CMapOutdoor::TPatchDrawStruct> >::_Emplace_reallocate<CMapOutdoor::TPatchDrawStruct const &>
PUBLIC	??$_Emplace_reallocate@U?$pair@MJ@std@@@?$vector@U?$pair@MJ@std@@V?$allocator@U?$pair@MJ@std@@@2@@std@@QAEPAU?$pair@MJ@1@QAU21@$$QAU21@@Z ; std::vector<std::pair<float,long>,std::allocator<std::pair<float,long> > >::_Emplace_reallocate<std::pair<float,long> >
PUBLIC	??$_Emplace_reallocate@ABE@?$vector@EV?$allocator@E@std@@@std@@QAEPAEQAEABE@Z ; std::vector<unsigned char,std::allocator<unsigned char> >::_Emplace_reallocate<unsigned char const &>
PUBLIC	??$_Destroy_range@V?$allocator@UTPatchDrawStruct@CMapOutdoor@@@std@@@std@@YAXPAUTPatchDrawStruct@CMapOutdoor@@QAU12@AAV?$allocator@UTPatchDrawStruct@CMapOutdoor@@@0@@Z ; std::_Destroy_range<std::allocator<CMapOutdoor::TPatchDrawStruct> >
PUBLIC	??$_Destroy_range@V?$allocator@U?$pair@MJ@std@@@std@@@std@@YAXPAU?$pair@MJ@0@QAU10@AAV?$allocator@U?$pair@MJ@std@@@0@@Z ; std::_Destroy_range<std::allocator<std::pair<float,long> > >
PUBLIC	??$_Destroy_range@V?$allocator@USCRCWithNumber@CArea@@@std@@@std@@YAXPAUSCRCWithNumber@CArea@@QAU12@AAV?$allocator@USCRCWithNumber@CArea@@@0@@Z ; std::_Destroy_range<std::allocator<CArea::SCRCWithNumber> >
PUBLIC	??$_Destroy_range@V?$allocator@PAVCGraphicThingInstance@@@std@@@std@@YAXPAPAVCGraphicThingInstance@@QAPAV1@AAV?$allocator@PAVCGraphicThingInstance@@@0@@Z ; std::_Destroy_range<std::allocator<CGraphicThingInstance *> >
PUBLIC	??$_Destroy_range@V?$allocator@E@std@@@std@@YAXPAEQAEAAV?$allocator@E@0@@Z ; std::_Destroy_range<std::allocator<unsigned char> >
PUBLIC	??$_Sort_unchecked@PAUSCRCWithNumber@CArea@@UCRCNumComp@2@@std@@YAXPAUSCRCWithNumber@CArea@@0HUCRCNumComp@2@@Z ; std::_Sort_unchecked<CArea::SCRCWithNumber *,CArea::CRCNumComp>
PUBLIC	??$_Sort_unchecked@PAPAVCGraphicThingInstance@@UCMapOutdoor_LessThingInstancePtrRenderOrder@@@std@@YAXPAPAVCGraphicThingInstance@@0HUCMapOutdoor_LessThingInstancePtrRenderOrder@@@Z ; std::_Sort_unchecked<CGraphicThingInstance * *,CMapOutdoor_LessThingInstancePtrRenderOrder>
PUBLIC	??$_Insertion_sort_unchecked@PAUTPatchDrawStruct@CMapOutdoor@@UFSortPatchDrawStructWithTerrainNum@2@@std@@YAPAUTPatchDrawStruct@CMapOutdoor@@QAU12@0UFSortPatchDrawStructWithTerrainNum@2@@Z ; std::_Insertion_sort_unchecked<CMapOutdoor::TPatchDrawStruct *,CMapOutdoor::FSortPatchDrawStructWithTerrainNum>
PUBLIC	??1?$_Optimistic_temporary_buffer@UTPatchDrawStruct@CMapOutdoor@@@std@@QAE@XZ ; std::_Optimistic_temporary_buffer<CMapOutdoor::TPatchDrawStruct>::~_Optimistic_temporary_buffer<CMapOutdoor::TPatchDrawStruct>
PUBLIC	??$_Stable_sort_unchecked@PAUTPatchDrawStruct@CMapOutdoor@@UFSortPatchDrawStructWithTerrainNum@2@@std@@YAXQAUTPatchDrawStruct@CMapOutdoor@@0H0HUFSortPatchDrawStructWithTerrainNum@2@@Z ; std::_Stable_sort_unchecked<CMapOutdoor::TPatchDrawStruct *,CMapOutdoor::FSortPatchDrawStructWithTerrainNum>
PUBLIC	??$_Return_temporary_buffer@UTPatchDrawStruct@CMapOutdoor@@@std@@YAXQAUTPatchDrawStruct@CMapOutdoor@@@Z ; std::_Return_temporary_buffer<CMapOutdoor::TPatchDrawStruct>
PUBLIC	??$_Uninitialized_move@PAUTPatchDrawStruct@CMapOutdoor@@V?$allocator@UTPatchDrawStruct@CMapOutdoor@@@std@@@std@@YAPAUTPatchDrawStruct@CMapOutdoor@@QAU12@0PAU12@AAV?$allocator@UTPatchDrawStruct@CMapOutdoor@@@0@@Z ; std::_Uninitialized_move<CMapOutdoor::TPatchDrawStruct *,std::allocator<CMapOutdoor::TPatchDrawStruct> >
PUBLIC	??$_Uninitialized_move@PAU?$pair@MJ@std@@V?$allocator@U?$pair@MJ@std@@@2@@std@@YAPAU?$pair@MJ@0@QAU10@0PAU10@AAV?$allocator@U?$pair@MJ@std@@@0@@Z ; std::_Uninitialized_move<std::pair<float,long> *,std::allocator<std::pair<float,long> > >
PUBLIC	??$_Uninitialized_move@PAUSCRCWithNumber@CArea@@V?$allocator@USCRCWithNumber@CArea@@@std@@@std@@YAPAUSCRCWithNumber@CArea@@QAU12@0PAU12@AAV?$allocator@USCRCWithNumber@CArea@@@0@@Z ; std::_Uninitialized_move<CArea::SCRCWithNumber *,std::allocator<CArea::SCRCWithNumber> >
PUBLIC	??$_Uninitialized_move@PAEV?$allocator@E@std@@@std@@YAPAEQAE0PAEAAV?$allocator@E@0@@Z ; std::_Uninitialized_move<unsigned char *,std::allocator<unsigned char> >
PUBLIC	??$_Sort_unchecked@PAU?$pair@MJ@std@@U?$less@X@2@@std@@YAXPAU?$pair@MJ@0@0HU?$less@X@0@@Z ; std::_Sort_unchecked<std::pair<float,long> *,std::less<void> >
PUBLIC	??$_Partition_by_median_guess_unchecked@PAUSCRCWithNumber@CArea@@UCRCNumComp@2@@std@@YA?AU?$pair@PAUSCRCWithNumber@CArea@@PAU12@@0@PAUSCRCWithNumber@CArea@@0UCRCNumComp@3@@Z ; std::_Partition_by_median_guess_unchecked<CArea::SCRCWithNumber *,CArea::CRCNumComp>
PUBLIC	??$_Insertion_sort_unchecked@PAPAVCGraphicThingInstance@@UCMapOutdoor_LessThingInstancePtrRenderOrder@@@std@@YAPAPAVCGraphicThingInstance@@QAPAV1@0UCMapOutdoor_LessThingInstancePtrRenderOrder@@@Z ; std::_Insertion_sort_unchecked<CGraphicThingInstance * *,CMapOutdoor_LessThingInstancePtrRenderOrder>
PUBLIC	??$_Make_heap_unchecked@PAPAVCGraphicThingInstance@@UCMapOutdoor_LessThingInstancePtrRenderOrder@@@std@@YAXPAPAVCGraphicThingInstance@@0UCMapOutdoor_LessThingInstancePtrRenderOrder@@@Z ; std::_Make_heap_unchecked<CGraphicThingInstance * *,CMapOutdoor_LessThingInstancePtrRenderOrder>
PUBLIC	??$_Partition_by_median_guess_unchecked@PAPAVCGraphicThingInstance@@UCMapOutdoor_LessThingInstancePtrRenderOrder@@@std@@YA?AU?$pair@PAPAVCGraphicThingInstance@@PAPAV1@@0@PAPAVCGraphicThingInstance@@0UCMapOutdoor_LessThingInstancePtrRenderOrder@@@Z ; std::_Partition_by_median_guess_unchecked<CGraphicThingInstance * *,CMapOutdoor_LessThingInstancePtrRenderOrder>
PUBLIC	??$_Get_temporary_buffer@UTPatchDrawStruct@CMapOutdoor@@@std@@YA?AU?$pair@PAUTPatchDrawStruct@CMapOutdoor@@H@0@H@Z ; std::_Get_temporary_buffer<CMapOutdoor::TPatchDrawStruct>
PUBLIC	??$_Buffered_merge_sort_unchecked@PAUTPatchDrawStruct@CMapOutdoor@@UFSortPatchDrawStructWithTerrainNum@2@@std@@YAXQAUTPatchDrawStruct@CMapOutdoor@@0H0UFSortPatchDrawStructWithTerrainNum@2@@Z ; std::_Buffered_merge_sort_unchecked<CMapOutdoor::TPatchDrawStruct *,CMapOutdoor::FSortPatchDrawStructWithTerrainNum>
PUBLIC	??$_Buffered_inplace_merge_unchecked@PAUTPatchDrawStruct@CMapOutdoor@@UFSortPatchDrawStructWithTerrainNum@2@@std@@YAXPAUTPatchDrawStruct@CMapOutdoor@@00HHQAU12@HUFSortPatchDrawStructWithTerrainNum@2@@Z ; std::_Buffered_inplace_merge_unchecked<CMapOutdoor::TPatchDrawStruct *,CMapOutdoor::FSortPatchDrawStructWithTerrainNum>
PUBLIC	??$_Copy_memmove@PAUTPatchDrawStruct@CMapOutdoor@@PAU12@@std@@YAPAUTPatchDrawStruct@CMapOutdoor@@PAU12@00@Z ; std::_Copy_memmove<CMapOutdoor::TPatchDrawStruct *,CMapOutdoor::TPatchDrawStruct *>
PUBLIC	??$_Copy_memmove@PAUSCRCWithNumber@CArea@@PAU12@@std@@YAPAUSCRCWithNumber@CArea@@PAU12@00@Z ; std::_Copy_memmove<CArea::SCRCWithNumber *,CArea::SCRCWithNumber *>
PUBLIC	??$_Copy_memmove@PAEPAE@std@@YAPAEPAE00@Z	; std::_Copy_memmove<unsigned char *,unsigned char *>
PUBLIC	??$_Refancy@PAUSCRCWithNumber@CArea@@$0A@@std@@YAPAUSCRCWithNumber@CArea@@PAU12@@Z ; std::_Refancy<CArea::SCRCWithNumber *,0>
PUBLIC	??$_Refancy@PAE$0A@@std@@YAPAEPAE@Z		; std::_Refancy<unsigned char *,0>
PUBLIC	??$_Partition_by_median_guess_unchecked@PAU?$pair@MJ@std@@U?$less@X@2@@std@@YA?AU?$pair@PAU?$pair@MJ@std@@PAU12@@0@PAU?$pair@MJ@0@0U?$less@X@0@@Z ; std::_Partition_by_median_guess_unchecked<std::pair<float,long> *,std::less<void> >
PUBLIC	??$_Pop_heap_hole_by_index@PAUSCRCWithNumber@CArea@@U12@UCRCNumComp@2@@std@@YAXPAUSCRCWithNumber@CArea@@HH$$QAU12@UCRCNumComp@2@@Z ; std::_Pop_heap_hole_by_index<CArea::SCRCWithNumber *,CArea::SCRCWithNumber,CArea::CRCNumComp>
PUBLIC	??$_Pop_heap_hole_by_index@PAPAVCGraphicThingInstance@@PAV1@UCMapOutdoor_LessThingInstancePtrRenderOrder@@@std@@YAXPAPAVCGraphicThingInstance@@HH$$QAPAV1@UCMapOutdoor_LessThingInstancePtrRenderOrder@@@Z ; std::_Pop_heap_hole_by_index<CGraphicThingInstance * *,CGraphicThingInstance *,CMapOutdoor_LessThingInstancePtrRenderOrder>
PUBLIC	??$_Copy_backward_memmove@PAUTPatchDrawStruct@CMapOutdoor@@PAU12@@std@@YAPAUTPatchDrawStruct@CMapOutdoor@@PAU12@00@Z ; std::_Copy_backward_memmove<CMapOutdoor::TPatchDrawStruct *,CMapOutdoor::TPatchDrawStruct *>
PUBLIC	??$_Insertion_sort_isort_max_chunks@PAUTPatchDrawStruct@CMapOutdoor@@UFSortPatchDrawStructWithTerrainNum@2@@std@@YAXPAUTPatchDrawStruct@CMapOutdoor@@QAU12@HUFSortPatchDrawStructWithTerrainNum@2@@Z ; std::_Insertion_sort_isort_max_chunks<CMapOutdoor::TPatchDrawStruct *,CMapOutdoor::FSortPatchDrawStructWithTerrainNum>
PUBLIC	??$_Uninitialized_chunked_merge_unchecked@PAUTPatchDrawStruct@CMapOutdoor@@U12@UFSortPatchDrawStructWithTerrainNum@2@@std@@YAXPAUTPatchDrawStruct@CMapOutdoor@@QAU12@0HHUFSortPatchDrawStructWithTerrainNum@2@@Z ; std::_Uninitialized_chunked_merge_unchecked<CMapOutdoor::TPatchDrawStruct *,CMapOutdoor::TPatchDrawStruct,CMapOutdoor::FSortPatchDrawStructWithTerrainNum>
PUBLIC	??$_Chunked_merge_unchecked@PAUTPatchDrawStruct@CMapOutdoor@@PAU12@UFSortPatchDrawStructWithTerrainNum@2@@std@@YAXPAUTPatchDrawStruct@CMapOutdoor@@QAU12@0HHUFSortPatchDrawStructWithTerrainNum@2@@Z ; std::_Chunked_merge_unchecked<CMapOutdoor::TPatchDrawStruct *,CMapOutdoor::TPatchDrawStruct *,CMapOutdoor::FSortPatchDrawStructWithTerrainNum>
PUBLIC	??$_Rotate_one_right@PAUTPatchDrawStruct@CMapOutdoor@@@std@@YAXPAUTPatchDrawStruct@CMapOutdoor@@00@Z ; std::_Rotate_one_right<CMapOutdoor::TPatchDrawStruct *>
PUBLIC	??$_Rotate_one_left@PAUTPatchDrawStruct@CMapOutdoor@@@std@@YAXPAUTPatchDrawStruct@CMapOutdoor@@00@Z ; std::_Rotate_one_left<CMapOutdoor::TPatchDrawStruct *>
PUBLIC	??$_Buffered_inplace_merge_unchecked_impl@PAUTPatchDrawStruct@CMapOutdoor@@UFSortPatchDrawStructWithTerrainNum@2@@std@@YAXPAUTPatchDrawStruct@CMapOutdoor@@00HHQAU12@HUFSortPatchDrawStructWithTerrainNum@2@@Z ; std::_Buffered_inplace_merge_unchecked_impl<CMapOutdoor::TPatchDrawStruct *,CMapOutdoor::FSortPatchDrawStructWithTerrainNum>
PUBLIC	??$_Destroy_range@PAUTPatchDrawStruct@CMapOutdoor@@PAU12@@std@@YAXPAUTPatchDrawStruct@CMapOutdoor@@QAU12@@Z ; std::_Destroy_range<CMapOutdoor::TPatchDrawStruct *,CMapOutdoor::TPatchDrawStruct *>
PUBLIC	??$_Pop_heap_hole_by_index@PAU?$pair@MJ@std@@U12@U?$less@X@2@@std@@YAXPAU?$pair@MJ@0@HH$$QAU10@U?$less@X@0@@Z ; std::_Pop_heap_hole_by_index<std::pair<float,long> *,std::pair<float,long>,std::less<void> >
PUBLIC	??$_Copy_backward_memmove@PAUSCRCWithNumber@CArea@@PAU12@@std@@YAPAUSCRCWithNumber@CArea@@PAU12@00@Z ; std::_Copy_backward_memmove<CArea::SCRCWithNumber *,CArea::SCRCWithNumber *>
PUBLIC	??$_Med3_unchecked@PAUSCRCWithNumber@CArea@@UCRCNumComp@2@@std@@YAXPAUSCRCWithNumber@CArea@@00UCRCNumComp@2@@Z ; std::_Med3_unchecked<CArea::SCRCWithNumber *,CArea::CRCNumComp>
PUBLIC	??$_Copy_backward_memmove@PAPAVCGraphicThingInstance@@PAPAV1@@std@@YAPAPAVCGraphicThingInstance@@PAPAV1@00@Z ; std::_Copy_backward_memmove<CGraphicThingInstance * *,CGraphicThingInstance * *>
PUBLIC	??$_Med3_unchecked@PAPAVCGraphicThingInstance@@UCMapOutdoor_LessThingInstancePtrRenderOrder@@@std@@YAXPAPAVCGraphicThingInstance@@00UCMapOutdoor_LessThingInstancePtrRenderOrder@@@Z ; std::_Med3_unchecked<CGraphicThingInstance * *,CMapOutdoor_LessThingInstancePtrRenderOrder>
PUBLIC	??$_Uninitialized_merge_move@PAUTPatchDrawStruct@CMapOutdoor@@U12@UFSortPatchDrawStructWithTerrainNum@2@@std@@YAPAUTPatchDrawStruct@CMapOutdoor@@PAU12@QAU12@11UFSortPatchDrawStructWithTerrainNum@2@@Z ; std::_Uninitialized_merge_move<CMapOutdoor::TPatchDrawStruct *,CMapOutdoor::TPatchDrawStruct,CMapOutdoor::FSortPatchDrawStructWithTerrainNum>
PUBLIC	??$_Uninitialized_move_unchecked@PAUTPatchDrawStruct@CMapOutdoor@@PAU12@@std@@YAPAUTPatchDrawStruct@CMapOutdoor@@PAU12@QAU12@0@Z ; std::_Uninitialized_move_unchecked<CMapOutdoor::TPatchDrawStruct *,CMapOutdoor::TPatchDrawStruct *>
PUBLIC	??$_Merge_move@PAUTPatchDrawStruct@CMapOutdoor@@PAU12@UFSortPatchDrawStructWithTerrainNum@2@@std@@YAPAUTPatchDrawStruct@CMapOutdoor@@PAU12@QAU12@10UFSortPatchDrawStructWithTerrainNum@2@@Z ; std::_Merge_move<CMapOutdoor::TPatchDrawStruct *,CMapOutdoor::TPatchDrawStruct *,CMapOutdoor::FSortPatchDrawStructWithTerrainNum>
PUBLIC	??$_Inplace_merge_buffer_left@PAUTPatchDrawStruct@CMapOutdoor@@UFSortPatchDrawStructWithTerrainNum@2@@std@@YAXPAUTPatchDrawStruct@CMapOutdoor@@00QAU12@UFSortPatchDrawStructWithTerrainNum@2@@Z ; std::_Inplace_merge_buffer_left<CMapOutdoor::TPatchDrawStruct *,CMapOutdoor::FSortPatchDrawStructWithTerrainNum>
PUBLIC	??$_Inplace_merge_buffer_right@PAUTPatchDrawStruct@CMapOutdoor@@UFSortPatchDrawStructWithTerrainNum@2@@std@@YAXPAUTPatchDrawStruct@CMapOutdoor@@00QAU12@UFSortPatchDrawStructWithTerrainNum@2@@Z ; std::_Inplace_merge_buffer_right<CMapOutdoor::TPatchDrawStruct *,CMapOutdoor::FSortPatchDrawStructWithTerrainNum>
PUBLIC	??$_Buffered_inplace_merge_divide_and_conquer@PAUTPatchDrawStruct@CMapOutdoor@@UFSortPatchDrawStructWithTerrainNum@2@@std@@YAXPAUTPatchDrawStruct@CMapOutdoor@@00HHQAU12@HUFSortPatchDrawStructWithTerrainNum@2@@Z ; std::_Buffered_inplace_merge_divide_and_conquer<CMapOutdoor::TPatchDrawStruct *,CMapOutdoor::FSortPatchDrawStructWithTerrainNum>
PUBLIC	??$_Med3_unchecked@PAU?$pair@MJ@std@@U?$less@X@2@@std@@YAXPAU?$pair@MJ@0@00U?$less@X@0@@Z ; std::_Med3_unchecked<std::pair<float,long> *,std::less<void> >
PUBLIC	??$lower_bound@PAUTPatchDrawStruct@CMapOutdoor@@U12@UFSortPatchDrawStructWithTerrainNum@2@@std@@YAPAUTPatchDrawStruct@CMapOutdoor@@PAU12@QAU12@ABU12@UFSortPatchDrawStructWithTerrainNum@2@@Z ; std::lower_bound<CMapOutdoor::TPatchDrawStruct *,CMapOutdoor::TPatchDrawStruct,CMapOutdoor::FSortPatchDrawStructWithTerrainNum>
PUBLIC	??$_Buffered_inplace_merge_divide_and_conquer2@PAUTPatchDrawStruct@CMapOutdoor@@UFSortPatchDrawStructWithTerrainNum@2@@std@@YAXPAUTPatchDrawStruct@CMapOutdoor@@00HHQAU12@HUFSortPatchDrawStructWithTerrainNum@2@00HH@Z ; std::_Buffered_inplace_merge_divide_and_conquer2<CMapOutdoor::TPatchDrawStruct *,CMapOutdoor::FSortPatchDrawStructWithTerrainNum>
PUBLIC	??$upper_bound@PAUTPatchDrawStruct@CMapOutdoor@@U12@UFSortPatchDrawStructWithTerrainNum@2@@std@@YAPAUTPatchDrawStruct@CMapOutdoor@@PAU12@0ABU12@UFSortPatchDrawStructWithTerrainNum@2@@Z ; std::upper_bound<CMapOutdoor::TPatchDrawStruct *,CMapOutdoor::TPatchDrawStruct,CMapOutdoor::FSortPatchDrawStructWithTerrainNum>
PUBLIC	??$_Construct_in_place@UTPatchDrawStruct@CMapOutdoor@@U12@@std@@YAXAAUTPatchDrawStruct@CMapOutdoor@@$$QAU12@@Z ; std::_Construct_in_place<CMapOutdoor::TPatchDrawStruct,CMapOutdoor::TPatchDrawStruct>
PUBLIC	??$_Buffered_rotate_unchecked@PAUTPatchDrawStruct@CMapOutdoor@@@std@@YAPAUTPatchDrawStruct@CMapOutdoor@@QAU12@00HH0H@Z ; std::_Buffered_rotate_unchecked<CMapOutdoor::TPatchDrawStruct *>
PUBLIC	??$reverse@PAUTPatchDrawStruct@CMapOutdoor@@@std@@YAXQAUTPatchDrawStruct@CMapOutdoor@@0@Z ; std::reverse<CMapOutdoor::TPatchDrawStruct *>
PUBLIC	??_7exception@std@@6B@				; std::exception::`vftable'
PUBLIC	??_C@_0BC@EOODALEL@Unknown?5exception@		; `string'
PUBLIC	??_7bad_alloc@std@@6B@				; std::bad_alloc::`vftable'
PUBLIC	??_7bad_array_new_length@std@@6B@		; std::bad_array_new_length::`vftable'
PUBLIC	??_C@_0BF@KINCDENJ@bad?5array?5new?5length@	; `string'
PUBLIC	__TI3?AVbad_array_new_length@std@@
PUBLIC	__CTA3?AVbad_array_new_length@std@@
PUBLIC	??_R0?AVbad_array_new_length@std@@@8		; std::bad_array_new_length `RTTI Type Descriptor'
PUBLIC	__CT??_R0?AVbad_array_new_length@std@@@8??0bad_array_new_length@std@@QAE@ABV01@@Z12
PUBLIC	??_R0?AVbad_alloc@std@@@8			; std::bad_alloc `RTTI Type Descriptor'
PUBLIC	__CT??_R0?AVbad_alloc@std@@@8??0bad_alloc@std@@QAE@ABV01@@Z12
PUBLIC	??_R0?AVexception@std@@@8			; std::exception `RTTI Type Descriptor'
PUBLIC	__CT??_R0?AVexception@std@@@8??0exception@std@@QAE@ABV01@@Z12
PUBLIC	??_R4exception@std@@6B@				; std::exception::`RTTI Complete Object Locator'
PUBLIC	??_R3exception@std@@8				; std::exception::`RTTI Class Hierarchy Descriptor'
PUBLIC	??_R2exception@std@@8				; std::exception::`RTTI Base Class Array'
PUBLIC	??_R1A@?0A@EA@exception@std@@8			; std::exception::`RTTI Base Class Descriptor at (0,-1,0,64)'
PUBLIC	??_R4bad_alloc@std@@6B@				; std::bad_alloc::`RTTI Complete Object Locator'
PUBLIC	??_R3bad_alloc@std@@8				; std::bad_alloc::`RTTI Class Hierarchy Descriptor'
PUBLIC	??_R2bad_alloc@std@@8				; std::bad_alloc::`RTTI Base Class Array'
PUBLIC	??_R1A@?0A@EA@bad_alloc@std@@8			; std::bad_alloc::`RTTI Base Class Descriptor at (0,-1,0,64)'
PUBLIC	??_R4bad_array_new_length@std@@6B@		; std::bad_array_new_length::`RTTI Complete Object Locator'
PUBLIC	??_R3bad_array_new_length@std@@8		; std::bad_array_new_length::`RTTI Class Hierarchy Descriptor'
PUBLIC	??_R2bad_array_new_length@std@@8		; std::bad_array_new_length::`RTTI Base Class Array'
PUBLIC	??_R1A@?0A@EA@bad_array_new_length@std@@8	; std::bad_array_new_length::`RTTI Base Class Descriptor at (0,-1,0,64)'
PUBLIC	?ms_singleton@?$CSingleton@VCSpeedTreeForestDirectX8@@@@0PAVCSpeedTreeForestDirectX8@@A ; CSingleton<CSpeedTreeForestDirectX8>::ms_singleton
PUBLIC	?m_TerrainNumVector@FSortPatchDrawStructWithTerrainNum@CMapOutdoor@@2V?$vector@EV?$allocator@E@std@@@std@@A ; CMapOutdoor::FSortPatchDrawStructWithTerrainNum::m_TerrainNumVector
PUBLIC	?ms_singleton@?$CSingleton@VCCameraManager@@@@0PAVCCameraManager@@A ; CSingleton<CCameraManager>::ms_singleton
PUBLIC	?ms_singleton@?$CSingleton@VCStateManager@@@@0PAVCStateManager@@A ; CSingleton<CStateManager>::ms_singleton
PUBLIC	?m_dwRenderedCRCWithNumberVector@@3V?$vector@USCRCWithNumber@CArea@@V?$allocator@USCRCWithNumber@CArea@@@std@@@std@@A ; m_dwRenderedCRCWithNumberVector
PUBLIC	??_C@_0DP@MKJEJLFD@CMapOutdoor?3?3RenderBeforeLensFl@ ; `string'
PUBLIC	??_R0?AVCGraphicObjectInstance@@@8		; CGraphicObjectInstance `RTTI Type Descriptor'
PUBLIC	??_R0?AVCGraphicThingInstance@@@8		; CGraphicThingInstance `RTTI Type Descriptor'
PUBLIC	??_C@_0BA@FOIKENOD@vector?5too?5long@		; `string'
PUBLIC	__real@3dcccccd
PUBLIC	__real@3f000000
PUBLIC	__real@3f400000
PUBLIC	__real@3f800000
PUBLIC	__real@42000000
PUBLIC	__real@437f0000
PUBLIC	__real@449c4000
PUBLIC	__real@45075000
PUBLIC	__real@453b8000
PUBLIC	__real@45875000
PUBLIC	__xmm@41f00000000000000000000000000000
PUBLIC	__xmm@7fffffff7fffffff7fffffff7fffffff
PUBLIC	__xmm@80000000800000008000000080000000
EXTRN	??2@YAPAXI@Z:PROC				; operator new
EXTRN	??3@YAXPAX@Z:PROC				; operator delete
EXTRN	??3@YAXPAXI@Z:PROC				; operator delete
EXTRN	_atexit:PROC
EXTRN	__Init_thread_header:PROC
EXTRN	__Init_thread_footer:PROC
EXTRN	__invalid_parameter_noinfo_noreturn:PROC
EXTRN	__imp__timeGetTime@0:PROC
EXTRN	??2@YAPAXIABUnothrow_t@std@@@Z:PROC		; operator new
EXTRN	___std_exception_copy:PROC
EXTRN	___std_exception_destroy:PROC
EXTRN	??_Eexception@std@@UAEPAXI@Z:PROC		; std::exception::`vector deleting destructor'
EXTRN	??_Ebad_alloc@std@@UAEPAXI@Z:PROC		; std::bad_alloc::`vector deleting destructor'
EXTRN	??_Ebad_array_new_length@std@@UAEPAXI@Z:PROC	; std::bad_array_new_length::`vector deleting destructor'
EXTRN	?_Xlength_error@std@@YAXPBD@Z:PROC		; std::_Xlength_error
EXTRN	?fMAX@@YAMMM@Z:PROC				; fMAX
EXTRN	_D3DXMatrixMultiply@12:PROC
EXTRN	_D3DXMatrixScaling@16:PROC
EXTRN	_D3DXMatrixLookAtRH@16:PROC
EXTRN	?TraceError@@YAXPBDZZ:PROC			; TraceError
EXTRN	?SetBlendOperation@CScreen@@QAEXXZ:PROC		; CScreen::SetBlendOperation
EXTRN	?GetD3DTexture@CGraphicTexture@@QBEPAUIDirect3DTexture8@@XZ:PROC ; CGraphicTexture::GetD3DTexture
EXTRN	?GetD3DIndexBuffer@CGraphicIndexBuffer@@QBEPAUIDirect3DIndexBuffer8@@XZ:PROC ; CGraphicIndexBuffer::GetD3DIndexBuffer
EXTRN	?GetTexturePointer@CGraphicImageInstance@@QAEPAVCGraphicTexture@@XZ:PROC ; CGraphicImageInstance::GetTexturePointer
EXTRN	?RenderCloud@CSkyBox@@QAEXXZ:PROC		; CSkyBox::RenderCloud
EXTRN	?Compute@CLensFlare@@QAEXABUD3DXVECTOR3@@@Z:PROC ; CLensFlare::Compute
EXTRN	?DrawBeforeFlare@CLensFlare@@QAEXXZ:PROC	; CLensFlare::DrawBeforeFlare
EXTRN	?DrawFlare@CLensFlare@@QAEXXZ:PROC		; CLensFlare::DrawFlare
EXTRN	?AdjustBrightness@CLensFlare@@QAEXXZ:PROC	; CLensFlare::AdjustBrightness
EXTRN	?Render@CScreenFilter@@QAEXXZ:PROC		; CScreenFilter::Render
EXTRN	?GetPosition@CGraphicObjectInstance@@QBEABUD3DXVECTOR3@@XZ:PROC ; CGraphicObjectInstance::GetPosition
EXTRN	?Render@CGraphicObjectInstance@@QAE_NXZ:PROC	; CGraphicObjectInstance::Render
EXTRN	?BlendRender@CGraphicObjectInstance@@QAEXXZ:PROC ; CGraphicObjectInstance::BlendRender
EXTRN	?RenderShadow@CGraphicObjectInstance@@QAEXXZ:PROC ; CGraphicObjectInstance::RenderShadow
EXTRN	?RenderPCBlocker@CGraphicObjectInstance@@QAEXXZ:PROC ; CGraphicObjectInstance::RenderPCBlocker
EXTRN	?Show@CGraphicObjectInstance@@QAEXXZ:PROC	; CGraphicObjectInstance::Show
EXTRN	?Hide@CGraphicObjectInstance@@QAEXXZ:PROC	; CGraphicObjectInstance::Hide
EXTRN	?HaveBlendThing@CGraphicThingInstance@@QAE_NXZ:PROC ; CGraphicThingInstance::HaveBlendThing
EXTRN	?CollectRenderingObject@CArea@@QAEXAAV?$vector@PAVCGraphicThingInstance@@V?$allocator@PAVCGraphicThingInstance@@@std@@@std@@@Z:PROC ; CArea::CollectRenderingObject
EXTRN	?CollectBlendRenderingObject@CArea@@QAEXAAV?$vector@PAVCGraphicThingInstance@@V?$allocator@PAVCGraphicThingInstance@@@std@@@std@@@Z:PROC ; CArea::CollectBlendRenderingObject
EXTRN	?RenderEffect@CArea@@QAEXXZ:PROC		; CArea::RenderEffect
EXTRN	?RenderCollision@CArea@@QAEXXZ:PROC		; CArea::RenderCollision
EXTRN	?RenderDungeon@CArea@@QAEXXZ:PROC		; CArea::RenderDungeon
EXTRN	?SetCenterPosition@CTerrainPatchProxy@@QAEXABUD3DXVECTOR3@@@Z:PROC ; CTerrainPatchProxy::SetCenterPosition
EXTRN	?HardwareTransformPatch_GetVertexBufferPtr@CTerrainPatchProxy@@QAEPAVCGraphicVertexBuffer@@XZ:PROC ; CTerrainPatchProxy::HardwareTransformPatch_GetVertexBufferPtr
EXTRN	?GetTerrainPointer@CMapOutdoor@@QAEHEPAPAVCTerrain@@@Z:PROC ; CMapOutdoor::GetTerrainPointer
EXTRN	?GetAreaPointer@CMapOutdoor@@QAEHEPAPAVCArea@@@Z:PROC ; CMapOutdoor::GetAreaPointer
EXTRN	?BuildViewFrustum@CMapOutdoor@@IAEXAAUD3DXMATRIX@@@Z:PROC ; CMapOutdoor::BuildViewFrustum
EXTRN	?__RenderTerrain_RenderSoftwareTransformPatch@CMapOutdoor@@IAEXXZ:PROC ; CMapOutdoor::__RenderTerrain_RenderSoftwareTransformPatch
EXTRN	?__RenderTerrain_RenderHardwareTransformPatch@CMapOutdoor@@IAEXXZ:PROC ; CMapOutdoor::__RenderTerrain_RenderHardwareTransformPatch
EXTRN	?GetCurrentCamera@CCameraManager@@QAEPAVCCamera@@XZ:PROC ; CCameraManager::GetCurrentCamera
EXTRN	?SetLight@CStateManager@@QAEXKPBU_D3DLIGHT8@@@Z:PROC ; CStateManager::SetLight
EXTRN	?SaveRenderState@CStateManager@@QAEXW4_D3DRENDERSTATETYPE@@K@Z:PROC ; CStateManager::SaveRenderState
EXTRN	?RestoreRenderState@CStateManager@@QAEXW4_D3DRENDERSTATETYPE@@@Z:PROC ; CStateManager::RestoreRenderState
EXTRN	?SetRenderState@CStateManager@@QAEXW4_D3DRENDERSTATETYPE@@K@Z:PROC ; CStateManager::SetRenderState
EXTRN	?SetTexture@CStateManager@@QAEXKPAUIDirect3DBaseTexture8@@@Z:PROC ; CStateManager::SetTexture
EXTRN	?SaveTextureStageState@CStateManager@@QAEXKW4_D3DTEXTURESTAGESTATETYPE@@K@Z:PROC ; CStateManager::SaveTextureStageState
EXTRN	?RestoreTextureStageState@CStateManager@@QAEXKW4_D3DTEXTURESTAGESTATETYPE@@@Z:PROC ; CStateManager::RestoreTextureStageState
EXTRN	?SetTextureStageState@CStateManager@@QAEXKW4_D3DTEXTURESTAGESTATETYPE@@K@Z:PROC ; CStateManager::SetTextureStageState
EXTRN	?SetVertexShader@CStateManager@@QAEXK@Z:PROC	; CStateManager::SetVertexShader
EXTRN	?SaveTransform@CStateManager@@QAEXW4_D3DTRANSFORMSTATETYPE@@PBU_D3DMATRIX@@@Z:PROC ; CStateManager::SaveTransform
EXTRN	?RestoreTransform@CStateManager@@QAEXW4_D3DTRANSFORMSTATETYPE@@@Z:PROC ; CStateManager::RestoreTransform
EXTRN	?SetTransform@CStateManager@@QAEXW4_D3DTRANSFORMSTATETYPE@@PBU_D3DMATRIX@@@Z:PROC ; CStateManager::SetTransform
EXTRN	?SetStreamSource@CStateManager@@QAEXIPAUIDirect3DVertexBuffer8@@I@Z:PROC ; CStateManager::SetStreamSource
EXTRN	?SetIndices@CStateManager@@QAEXPAUIDirect3DIndexBuffer8@@I@Z:PROC ; CStateManager::SetIndices
EXTRN	?DrawIndexedPrimitive@CStateManager@@QAEJW4_D3DPRIMITIVETYPE@@IIII@Z:PROC ; CStateManager::DrawIndexedPrimitive
EXTRN	?GetRenderState@CStateManager@@QAEKW4_D3DRENDERSTATETYPE@@@Z:PROC ; CStateManager::GetRenderState
EXTRN	@__security_check_cookie@4:PROC
EXTRN	__CxxThrowException@8:PROC
EXTRN	___CxxFrameHandler3:PROC
EXTRN	___RTDynamicCast:PROC
EXTRN	__chkstk:PROC
EXTRN	__ftoui3:PROC
EXTRN	_memchr:PROC
EXTRN	_memmove:PROC
EXTRN	__Init_thread_epoch:DWORD
EXTRN	?nothrow@std@@3Unothrow_t@1@B:BYTE		; std::nothrow
EXTRN	??_7type_info@@6B@:QWORD			; type_info::`vftable'
EXTRN	?ms_matView@CGraphicBase@@1UD3DXMATRIX@@A:BYTE	; CGraphicBase::ms_matView
EXTRN	?ms_matProj@CGraphicBase@@1UD3DXMATRIX@@A:BYTE	; CGraphicBase::ms_matProj
EXTRN	?SOFTWARE_TRANSFORM_PATCH_ENABLE@CTerrainPatch@@2_NA:BYTE ; CTerrainPatch::SOFTWARE_TRANSFORM_PATCH_ENABLE
EXTRN	___security_cookie:DWORD
EXTRN	__fltused:DWORD
EXTRN	__tls_array:DWORD
EXTRN	__tls_index:DWORD
;	COMDAT ?ms_singleton@?$CSingleton@VCSpeedTreeForestDirectX8@@@@0PAVCSpeedTreeForestDirectX8@@A
_BSS	SEGMENT
?ms_singleton@?$CSingleton@VCSpeedTreeForestDirectX8@@@@0PAVCSpeedTreeForestDirectX8@@A DD 01H DUP (?) ; CSingleton<CSpeedTreeForestDirectX8>::ms_singleton
_BSS	ENDS
_BSS	SEGMENT
?m_TerrainNumVector@FSortPatchDrawStructWithTerrainNum@CMapOutdoor@@2V?$vector@EV?$allocator@E@std@@@std@@A DB 0cH DUP (?) ; CMapOutdoor::FSortPatchDrawStructWithTerrainNum::m_TerrainNumVector
_BSS	ENDS
;	COMDAT ?ms_singleton@?$CSingleton@VCCameraManager@@@@0PAVCCameraManager@@A
_BSS	SEGMENT
?ms_singleton@?$CSingleton@VCCameraManager@@@@0PAVCCameraManager@@A DD 01H DUP (?) ; CSingleton<CCameraManager>::ms_singleton
_BSS	ENDS
;	COMDAT ?ms_singleton@?$CSingleton@VCStateManager@@@@0PAVCStateManager@@A
_BSS	SEGMENT
?ms_singleton@?$CSingleton@VCStateManager@@@@0PAVCStateManager@@A DD 01H DUP (?) ; CSingleton<CStateManager>::ms_singleton
_BSS	ENDS
_BSS	SEGMENT
?m_dwRenderedCRCWithNumberVector@@3V?$vector@USCRCWithNumber@CArea@@V?$allocator@USCRCWithNumber@CArea@@@std@@@std@@A DB 0cH DUP (?) ; m_dwRenderedCRCWithNumberVector
_BSS	ENDS
;	COMDAT ?s_kVct_pkOpaqueThingInstSort@?CB@??RenderArea@CMapOutdoor@@QAEX_N@Z@4V?$vector@PAVCGraphicThingInstance@@V?$allocator@PAVCGraphicThingInstance@@@std@@@std@@A
_BSS	SEGMENT
?s_kVct_pkOpaqueThingInstSort@?CB@??RenderArea@CMapOutdoor@@QAEX_N@Z@4V?$vector@PAVCGraphicThingInstance@@V?$allocator@PAVCGraphicThingInstance@@@std@@@std@@A DB 0cH DUP (?) ; `CMapOutdoor::RenderArea'::`33'::s_kVct_pkOpaqueThingInstSort
_BSS	ENDS
;	COMDAT ?$TSS0@?CB@??RenderArea@CMapOutdoor@@QAEX_N@Z@4HA
_BSS	SEGMENT
?$TSS0@?CB@??RenderArea@CMapOutdoor@@QAEX_N@Z@4HA DD 01H DUP (?) ; `CMapOutdoor::RenderArea'::`33'::$TSS0
_BSS	ENDS
;	COMDAT ?s_kVct_pkBlendThingInstSort@?1??RenderBlendArea@CMapOutdoor@@QAEXXZ@4V?$vector@PAVCGraphicThingInstance@@V?$allocator@PAVCGraphicThingInstance@@@std@@@std@@A
_BSS	SEGMENT
?s_kVct_pkBlendThingInstSort@?1??RenderBlendArea@CMapOutdoor@@QAEXXZ@4V?$vector@PAVCGraphicThingInstance@@V?$allocator@PAVCGraphicThingInstance@@@std@@@std@@A DB 0cH DUP (?) ; `CMapOutdoor::RenderBlendArea'::`2'::s_kVct_pkBlendThingInstSort
_BSS	ENDS
;	COMDAT ?$TSS0@?1??RenderBlendArea@CMapOutdoor@@QAEXXZ@4HA
_BSS	SEGMENT
?$TSS0@?1??RenderBlendArea@CMapOutdoor@@QAEXXZ@4HA DD 01H DUP (?) ; `CMapOutdoor::RenderBlendArea'::`2'::$TSS0
_BSS	ENDS
;	COMDAT ?lStartTime@?1??RenderMarkedArea@CMapOutdoor@@QAEXXZ@4JA
_BSS	SEGMENT
?lStartTime@?1??RenderMarkedArea@CMapOutdoor@@QAEXXZ@4JA DD 01H DUP (?) ; `CMapOutdoor::RenderMarkedArea'::`2'::lStartTime
_BSS	ENDS
;	COMDAT ?$TSS0@?1??RenderMarkedArea@CMapOutdoor@@QAEXXZ@4HA
_BSS	SEGMENT
?$TSS0@?1??RenderMarkedArea@CMapOutdoor@@QAEXXZ@4HA DD 01H DUP (?) ; `CMapOutdoor::RenderMarkedArea'::`2'::$TSS0
_BSS	ENDS
CRT$XCU	SEGMENT
?m_dwRenderedCRCWithNumberVector$initializer$@@3P6AXXZA DD FLAT:??__Em_dwRenderedCRCWithNumberVector@@YAXXZ ; m_dwRenderedCRCWithNumberVector$initializer$
CRT$XCU	ENDS
;	COMDAT __xmm@80000000800000008000000080000000
CONST	SEGMENT
__xmm@80000000800000008000000080000000 DB 00H, 00H, 00H, 080H, 00H, 00H, 00H
	DB	080H, 00H, 00H, 00H, 080H, 00H, 00H, 00H, 080H
CONST	ENDS
;	COMDAT __xmm@7fffffff7fffffff7fffffff7fffffff
CONST	SEGMENT
__xmm@7fffffff7fffffff7fffffff7fffffff DB 0ffH, 0ffH, 0ffH, 07fH, 0ffH, 0ffH
	DB	0ffH, 07fH, 0ffH, 0ffH, 0ffH, 07fH, 0ffH, 0ffH, 0ffH, 07fH
CONST	ENDS
;	COMDAT __xmm@41f00000000000000000000000000000
CONST	SEGMENT
__xmm@41f00000000000000000000000000000 DB 00H, 00H, 00H, 00H, 00H, 00H, 00H
	DB	00H, 00H, 00H, 00H, 00H, 00H, 00H, 0f0H, 'A'
CONST	ENDS
;	COMDAT __real@45875000
CONST	SEGMENT
__real@45875000 DD 045875000r			; 4330
CONST	ENDS
;	COMDAT __real@453b8000
CONST	SEGMENT
__real@453b8000 DD 0453b8000r			; 3000
CONST	ENDS
;	COMDAT __real@45075000
CONST	SEGMENT
__real@45075000 DD 045075000r			; 2165
CONST	ENDS
;	COMDAT __real@449c4000
CONST	SEGMENT
__real@449c4000 DD 0449c4000r			; 1250
CONST	ENDS
;	COMDAT __real@437f0000
CONST	SEGMENT
__real@437f0000 DD 0437f0000r			; 255
CONST	ENDS
;	COMDAT __real@42000000
CONST	SEGMENT
__real@42000000 DD 042000000r			; 32
CONST	ENDS
;	COMDAT __real@3f800000
CONST	SEGMENT
__real@3f800000 DD 03f800000r			; 1
CONST	ENDS
;	COMDAT __real@3f400000
CONST	SEGMENT
__real@3f400000 DD 03f400000r			; 0.75
CONST	ENDS
;	COMDAT __real@3f000000
CONST	SEGMENT
__real@3f000000 DD 03f000000r			; 0.5
CONST	ENDS
;	COMDAT __real@3dcccccd
CONST	SEGMENT
__real@3dcccccd DD 03dcccccdr			; 0.1
CONST	ENDS
;	COMDAT ??_C@_0BA@FOIKENOD@vector?5too?5long@
CONST	SEGMENT
??_C@_0BA@FOIKENOD@vector?5too?5long@ DB 'vector too long', 00H ; `string'
CONST	ENDS
;	COMDAT ??_R0?AVCGraphicThingInstance@@@8
data$r	SEGMENT
??_R0?AVCGraphicThingInstance@@@8 DD FLAT:??_7type_info@@6B@ ; CGraphicThingInstance `RTTI Type Descriptor'
	DD	00H
	DB	'.?AVCGraphicThingInstance@@', 00H
data$r	ENDS
;	COMDAT ??_R0?AVCGraphicObjectInstance@@@8
data$r	SEGMENT
??_R0?AVCGraphicObjectInstance@@@8 DD FLAT:??_7type_info@@6B@ ; CGraphicObjectInstance `RTTI Type Descriptor'
	DD	00H
	DB	'.?AVCGraphicObjectInstance@@', 00H
data$r	ENDS
;	COMDAT ??_C@_0DP@MKJEJLFD@CMapOutdoor?3?3RenderBeforeLensFl@
CONST	SEGMENT
??_C@_0DP@MKJEJLFD@CMapOutdoor?3?3RenderBeforeLensFl@ DB 'CMapOutdoor::Re'
	DB	'nderBeforeLensFlare mc_pEnvironmentData is NULL', 00H ; `string'
CONST	ENDS
;	COMDAT ??_R1A@?0A@EA@bad_array_new_length@std@@8
rdata$r	SEGMENT
??_R1A@?0A@EA@bad_array_new_length@std@@8 DD FLAT:??_R0?AVbad_array_new_length@std@@@8 ; std::bad_array_new_length::`RTTI Base Class Descriptor at (0,-1,0,64)'
	DD	02H
	DD	00H
	DD	0ffffffffH
	DD	00H
	DD	040H
	DD	FLAT:??_R3bad_array_new_length@std@@8
rdata$r	ENDS
;	COMDAT ??_R2bad_array_new_length@std@@8
rdata$r	SEGMENT
??_R2bad_array_new_length@std@@8 DD FLAT:??_R1A@?0A@EA@bad_array_new_length@std@@8 ; std::bad_array_new_length::`RTTI Base Class Array'
	DD	FLAT:??_R1A@?0A@EA@bad_alloc@std@@8
	DD	FLAT:??_R1A@?0A@EA@exception@std@@8
rdata$r	ENDS
;	COMDAT ??_R3bad_array_new_length@std@@8
rdata$r	SEGMENT
??_R3bad_array_new_length@std@@8 DD 00H			; std::bad_array_new_length::`RTTI Class Hierarchy Descriptor'
	DD	00H
	DD	03H
	DD	FLAT:??_R2bad_array_new_length@std@@8
rdata$r	ENDS
;	COMDAT ??_R4bad_array_new_length@std@@6B@
rdata$r	SEGMENT
??_R4bad_array_new_length@std@@6B@ DD 00H		; std::bad_array_new_length::`RTTI Complete Object Locator'
	DD	00H
	DD	00H
	DD	FLAT:??_R0?AVbad_array_new_length@std@@@8
	DD	FLAT:??_R3bad_array_new_length@std@@8
rdata$r	ENDS
;	COMDAT ??_R1A@?0A@EA@bad_alloc@std@@8
rdata$r	SEGMENT
??_R1A@?0A@EA@bad_alloc@std@@8 DD FLAT:??_R0?AVbad_alloc@std@@@8 ; std::bad_alloc::`RTTI Base Class Descriptor at (0,-1,0,64)'
	DD	01H
	DD	00H
	DD	0ffffffffH
	DD	00H
	DD	040H
	DD	FLAT:??_R3bad_alloc@std@@8
rdata$r	ENDS
;	COMDAT ??_R2bad_alloc@std@@8
rdata$r	SEGMENT
??_R2bad_alloc@std@@8 DD FLAT:??_R1A@?0A@EA@bad_alloc@std@@8 ; std::bad_alloc::`RTTI Base Class Array'
	DD	FLAT:??_R1A@?0A@EA@exception@std@@8
rdata$r	ENDS
;	COMDAT ??_R3bad_alloc@std@@8
rdata$r	SEGMENT
??_R3bad_alloc@std@@8 DD 00H				; std::bad_alloc::`RTTI Class Hierarchy Descriptor'
	DD	00H
	DD	02H
	DD	FLAT:??_R2bad_alloc@std@@8
rdata$r	ENDS
;	COMDAT ??_R4bad_alloc@std@@6B@
rdata$r	SEGMENT
??_R4bad_alloc@std@@6B@ DD 00H				; std::bad_alloc::`RTTI Complete Object Locator'
	DD	00H
	DD	00H
	DD	FLAT:??_R0?AVbad_alloc@std@@@8
	DD	FLAT:??_R3bad_alloc@std@@8
rdata$r	ENDS
;	COMDAT ??_R1A@?0A@EA@exception@std@@8
rdata$r	SEGMENT
??_R1A@?0A@EA@exception@std@@8 DD FLAT:??_R0?AVexception@std@@@8 ; std::exception::`RTTI Base Class Descriptor at (0,-1,0,64)'
	DD	00H
	DD	00H
	DD	0ffffffffH
	DD	00H
	DD	040H
	DD	FLAT:??_R3exception@std@@8
rdata$r	ENDS
;	COMDAT ??_R2exception@std@@8
rdata$r	SEGMENT
??_R2exception@std@@8 DD FLAT:??_R1A@?0A@EA@exception@std@@8 ; std::exception::`RTTI Base Class Array'
rdata$r	ENDS
;	COMDAT ??_R3exception@std@@8
rdata$r	SEGMENT
??_R3exception@std@@8 DD 00H				; std::exception::`RTTI Class Hierarchy Descriptor'
	DD	00H
	DD	01H
	DD	FLAT:??_R2exception@std@@8
rdata$r	ENDS
;	COMDAT ??_R4exception@std@@6B@
rdata$r	SEGMENT
??_R4exception@std@@6B@ DD 00H				; std::exception::`RTTI Complete Object Locator'
	DD	00H
	DD	00H
	DD	FLAT:??_R0?AVexception@std@@@8
	DD	FLAT:??_R3exception@std@@8
rdata$r	ENDS
;	COMDAT __CT??_R0?AVexception@std@@@8??0exception@std@@QAE@ABV01@@Z12
xdata$x	SEGMENT
__CT??_R0?AVexception@std@@@8??0exception@std@@QAE@ABV01@@Z12 DD 00H
	DD	FLAT:??_R0?AVexception@std@@@8
	DD	00H
	DD	0ffffffffH
	ORG $+4
	DD	0cH
	DD	FLAT:??0exception@std@@QAE@ABV01@@Z
xdata$x	ENDS
;	COMDAT ??_R0?AVexception@std@@@8
data$r	SEGMENT
??_R0?AVexception@std@@@8 DD FLAT:??_7type_info@@6B@	; std::exception `RTTI Type Descriptor'
	DD	00H
	DB	'.?AVexception@std@@', 00H
data$r	ENDS
;	COMDAT __CT??_R0?AVbad_alloc@std@@@8??0bad_alloc@std@@QAE@ABV01@@Z12
xdata$x	SEGMENT
__CT??_R0?AVbad_alloc@std@@@8??0bad_alloc@std@@QAE@ABV01@@Z12 DD 010H
	DD	FLAT:??_R0?AVbad_alloc@std@@@8
	DD	00H
	DD	0ffffffffH
	ORG $+4
	DD	0cH
	DD	FLAT:??0bad_alloc@std@@QAE@ABV01@@Z
xdata$x	ENDS
;	COMDAT ??_R0?AVbad_alloc@std@@@8
data$r	SEGMENT
??_R0?AVbad_alloc@std@@@8 DD FLAT:??_7type_info@@6B@	; std::bad_alloc `RTTI Type Descriptor'
	DD	00H
	DB	'.?AVbad_alloc@std@@', 00H
data$r	ENDS
;	COMDAT __CT??_R0?AVbad_array_new_length@std@@@8??0bad_array_new_length@std@@QAE@ABV01@@Z12
xdata$x	SEGMENT
__CT??_R0?AVbad_array_new_length@std@@@8??0bad_array_new_length@std@@QAE@ABV01@@Z12 DD 00H
	DD	FLAT:??_R0?AVbad_array_new_length@std@@@8
	DD	00H
	DD	0ffffffffH
	ORG $+4
	DD	0cH
	DD	FLAT:??0bad_array_new_length@std@@QAE@ABV01@@Z
xdata$x	ENDS
;	COMDAT ??_R0?AVbad_array_new_length@std@@@8
data$r	SEGMENT
??_R0?AVbad_array_new_length@std@@@8 DD FLAT:??_7type_info@@6B@ ; std::bad_array_new_length `RTTI Type Descriptor'
	DD	00H
	DB	'.?AVbad_array_new_length@std@@', 00H
data$r	ENDS
;	COMDAT __CTA3?AVbad_array_new_length@std@@
xdata$x	SEGMENT
__CTA3?AVbad_array_new_length@std@@ DD 03H
	DD	FLAT:__CT??_R0?AVbad_array_new_length@std@@@8??0bad_array_new_length@std@@QAE@ABV01@@Z12
	DD	FLAT:__CT??_R0?AVbad_alloc@std@@@8??0bad_alloc@std@@QAE@ABV01@@Z12
	DD	FLAT:__CT??_R0?AVexception@std@@@8??0exception@std@@QAE@ABV01@@Z12
xdata$x	ENDS
;	COMDAT __TI3?AVbad_array_new_length@std@@
xdata$x	SEGMENT
__TI3?AVbad_array_new_length@std@@ DD 00H
	DD	FLAT:??1bad_array_new_length@std@@UAE@XZ
	DD	00H
	DD	FLAT:__CTA3?AVbad_array_new_length@std@@
xdata$x	ENDS
;	COMDAT ??_C@_0BF@KINCDENJ@bad?5array?5new?5length@
CONST	SEGMENT
??_C@_0BF@KINCDENJ@bad?5array?5new?5length@ DB 'bad array new length', 00H ; `string'
CONST	ENDS
;	COMDAT ??_7bad_array_new_length@std@@6B@
CONST	SEGMENT
??_7bad_array_new_length@std@@6B@ DD FLAT:??_R4bad_array_new_length@std@@6B@ ; std::bad_array_new_length::`vftable'
	DD	FLAT:??_Ebad_array_new_length@std@@UAEPAXI@Z
	DD	FLAT:?what@exception@std@@UBEPBDXZ
CONST	ENDS
;	COMDAT ??_7bad_alloc@std@@6B@
CONST	SEGMENT
??_7bad_alloc@std@@6B@ DD FLAT:??_R4bad_alloc@std@@6B@	; std::bad_alloc::`vftable'
	DD	FLAT:??_Ebad_alloc@std@@UAEPAXI@Z
	DD	FLAT:?what@exception@std@@UBEPBDXZ
CONST	ENDS
;	COMDAT ??_C@_0BC@EOODALEL@Unknown?5exception@
CONST	SEGMENT
??_C@_0BC@EOODALEL@Unknown?5exception@ DB 'Unknown exception', 00H ; `string'
CONST	ENDS
;	COMDAT ??_7exception@std@@6B@
CONST	SEGMENT
??_7exception@std@@6B@ DD FLAT:??_R4exception@std@@6B@	; std::exception::`vftable'
	DD	FLAT:??_Eexception@std@@UAEPAXI@Z
	DD	FLAT:?what@exception@std@@UBEPBDXZ
CONST	ENDS
;	COMDAT xdata$x
xdata$x	SEGMENT
__unwindtable$??$stable_sort@V?$_Vector_iterator@V?$_Vector_val@U?$_Simple_types@UTPatchDrawStruct@CMapOutdoor@@@std@@@std@@@std@@UFSortPatchDrawStructWithTerrainNum@CMapOutdoor@@@std@@YAXV?$_Vector_iterator@V?$_Vector_val@U?$_Simple_types@UTPatchDrawStruct@CMapOutdoor@@@std@@@std@@@0@0UFSortPatchDrawStructWithTerrainNum@CMapOutdoor@@@Z DD 0ffffffffH
	DD	FLAT:__unwindfunclet$??$stable_sort@V?$_Vector_iterator@V?$_Vector_val@U?$_Simple_types@UTPatchDrawStruct@CMapOutdoor@@@std@@@std@@@std@@UFSortPatchDrawStructWithTerrainNum@CMapOutdoor@@@std@@YAXV?$_Vector_iterator@V?$_Vector_val@U?$_Simple_types@UTPatchDrawStruct@CMapOutdoor@@@std@@@std@@@0@0UFSortPatchDrawStructWithTerrainNum@CMapOutdoor@@@Z$0
__ehfuncinfo$??$stable_sort@V?$_Vector_iterator@V?$_Vector_val@U?$_Simple_types@UTPatchDrawStruct@CMapOutdoor@@@std@@@std@@@std@@UFSortPatchDrawStructWithTerrainNum@CMapOutdoor@@@std@@YAXV?$_Vector_iterator@V?$_Vector_val@U?$_Simple_types@UTPatchDrawStruct@CMapOutdoor@@@std@@@std@@@0@0UFSortPatchDrawStructWithTerrainNum@CMapOutdoor@@@Z DD 019930522H
	DD	01H
	DD	FLAT:__unwindtable$??$stable_sort@V?$_Vector_iterator@V?$_Vector_val@U?$_Simple_types@UTPatchDrawStruct@CMapOutdoor@@@std@@@std@@@std@@UFSortPatchDrawStructWithTerrainNum@CMapOutdoor@@@std@@YAXV?$_Vector_iterator@V?$_Vector_val@U?$_Simple_types@UTPatchDrawStruct@CMapOutdoor@@@std@@@std@@@0@0UFSortPatchDrawStructWithTerrainNum@CMapOutdoor@@@Z
	DD	2 DUP(00H)
	DD	2 DUP(00H)
	DD	00H
	DD	01H
xdata$x	ENDS
CRT$XCU	SEGMENT
??m_TerrainNumVector$initializer$@FSortPatchDrawStructWithTerrainNum@CMapOutdoor@@2P6AXXZA@@3P6AXXZA DD FLAT:??__E?m_TerrainNumVector@FSortPatchDrawStructWithTerrainNum@CMapOutdoor@@2V?$vector@EV?$allocator@E@std@@@std@@A@@YAXXZ ; ??m_TerrainNumVector$initializer$@FSortPatchDrawStructWithTerrainNum@CMapOutdoor@@2P6AXXZA@@3P6AXXZA
CRT$XCU	ENDS
; Function compile flags: /Ogtp
; File C:\Program Files (x86)\Microsoft Visual Studio\2019\Community\VC\Tools\MSVC\14.28.29333\include\xutility
; File C:\Program Files (x86)\Microsoft Visual Studio\2019\Community\VC\Tools\MSVC\14.28.29333\include\utility
; File C:\Program Files (x86)\Microsoft Visual Studio\2019\Community\VC\Tools\MSVC\14.28.29333\include\xutility
; File C:\Program Files (x86)\Microsoft Visual Studio\2019\Community\VC\Tools\MSVC\14.28.29333\include\utility
; File C:\Program Files (x86)\Microsoft Visual Studio\2019\Community\VC\Tools\MSVC\14.28.29333\include\xutility
;	COMDAT ??$reverse@PAUTPatchDrawStruct@CMapOutdoor@@@std@@YAXQAUTPatchDrawStruct@CMapOutdoor@@0@Z
_TEXT	SEGMENT
__First$ = 8						; size = 4
__Last$ = 12						; size = 4
??$reverse@PAUTPatchDrawStruct@CMapOutdoor@@@std@@YAXQAUTPatchDrawStruct@CMapOutdoor@@0@Z PROC ; std::reverse<CMapOutdoor::TPatchDrawStruct *>, COMDAT

; 5596 : _CONSTEXPR20 void reverse(const _BidIt _First, const _BidIt _Last) { // reverse elements in [_First, _Last)

  00000	55		 push	 ebp
  00001	8b ec		 mov	 ebp, esp

; 5597 :     _Adl_verify_range(_First, _Last);
; 5598 :     auto _UFirst = _Get_unwrapped(_First);

  00003	8b 4d 08	 mov	 ecx, DWORD PTR __First$[ebp]

; 5599 :     auto _ULast  = _Get_unwrapped(_Last);

  00006	8b 45 0c	 mov	 eax, DWORD PTR __Last$[ebp]

; 5627 :     for (; _UFirst != _ULast && _UFirst != --_ULast; ++_UFirst) {

  00009	3b c8		 cmp	 ecx, eax
  0000b	74 1d		 je	 SHORT $LN3@reverse
  0000d	0f 1f 00	 npad	 3
$LL4@reverse:
  00010	83 e8 10	 sub	 eax, 16			; 00000010H
  00013	3b c8		 cmp	 ecx, eax
  00015	74 13		 je	 SHORT $LN3@reverse
; File C:\Program Files (x86)\Microsoft Visual Studio\2019\Community\VC\Tools\MSVC\14.28.29333\include\utility

; 105  :     _Left    = _STD move(_Right);

  00017	0f 10 00	 movups	 xmm0, XMMWORD PTR [eax]
  0001a	0f 10 09	 movups	 xmm1, XMMWORD PTR [ecx]
  0001d	0f 11 01	 movups	 XMMWORD PTR [ecx], xmm0
; File C:\Program Files (x86)\Microsoft Visual Studio\2019\Community\VC\Tools\MSVC\14.28.29333\include\xutility

; 5627 :     for (; _UFirst != _ULast && _UFirst != --_ULast; ++_UFirst) {

  00020	83 c1 10	 add	 ecx, 16			; 00000010H
; File C:\Program Files (x86)\Microsoft Visual Studio\2019\Community\VC\Tools\MSVC\14.28.29333\include\utility

; 106  :     _Right   = _STD move(_Tmp);

  00023	0f 11 08	 movups	 XMMWORD PTR [eax], xmm1
; File C:\Program Files (x86)\Microsoft Visual Studio\2019\Community\VC\Tools\MSVC\14.28.29333\include\xutility

; 5627 :     for (; _UFirst != _ULast && _UFirst != --_ULast; ++_UFirst) {

  00026	3b c8		 cmp	 ecx, eax
  00028	75 e6		 jne	 SHORT $LL4@reverse
$LN3@reverse:

; 5628 :         _STD iter_swap(_UFirst, _ULast);
; 5629 :     }
; 5630 : }

  0002a	5d		 pop	 ebp
  0002b	c3		 ret	 0
??$reverse@PAUTPatchDrawStruct@CMapOutdoor@@@std@@YAXQAUTPatchDrawStruct@CMapOutdoor@@0@Z ENDP ; std::reverse<CMapOutdoor::TPatchDrawStruct *>
_TEXT	ENDS
; Function compile flags: /Ogtp
; File C:\Program Files (x86)\Microsoft Visual Studio\2019\Community\VC\Tools\MSVC\14.28.29333\include\algorithm
; File C:\Program Files (x86)\Microsoft Visual Studio\2019\Community\VC\Tools\MSVC\14.28.29333\include\xutility
; File C:\Program Files (x86)\Microsoft Visual Studio\2019\Community\VC\Tools\MSVC\14.28.29333\include\xmemory
; File C:\Program Files (x86)\Microsoft Visual Studio\2019\Community\VC\Tools\MSVC\14.28.29333\include\xutility
; File C:\Program Files (x86)\Microsoft Visual Studio\2019\Community\VC\Tools\MSVC\14.28.29333\include\algorithm
; File C:\Program Files (x86)\Microsoft Visual Studio\2019\Community\VC\Tools\MSVC\14.28.29333\include\xutility
; File C:\Program Files (x86)\Microsoft Visual Studio\2019\Community\VC\Tools\MSVC\14.28.29333\include\xmemory
; File C:\Program Files (x86)\Microsoft Visual Studio\2019\Community\VC\Tools\MSVC\14.28.29333\include\xutility
; File C:\Program Files (x86)\Microsoft Visual Studio\2019\Community\VC\Tools\MSVC\14.28.29333\include\algorithm
; File C:\Program Files (x86)\Microsoft Visual Studio\2019\Community\VC\Tools\MSVC\14.28.29333\include\xutility
; File C:\Program Files (x86)\Microsoft Visual Studio\2019\Community\VC\Tools\MSVC\14.28.29333\include\algorithm
; File C:\Program Files (x86)\Microsoft Visual Studio\2019\Community\VC\Tools\MSVC\14.28.29333\include\xutility
; File C:\Program Files (x86)\Microsoft Visual Studio\2019\Community\VC\Tools\MSVC\14.28.29333\include\algorithm
;	COMDAT ??$_Buffered_rotate_unchecked@PAUTPatchDrawStruct@CMapOutdoor@@@std@@YAPAUTPatchDrawStruct@CMapOutdoor@@QAU12@00HH0H@Z
_TEXT	SEGMENT
__First$ = 8						; size = 4
__Mid$ = 12						; size = 4
__Last$ = 16						; size = 4
__Count1$ = 20						; size = 4
__Count2$ = 24						; size = 4
__Temp_ptr$ = 28					; size = 4
__Capacity$ = 32					; size = 4
??$_Buffered_rotate_unchecked@PAUTPatchDrawStruct@CMapOutdoor@@@std@@YAPAUTPatchDrawStruct@CMapOutdoor@@QAU12@00HH0H@Z PROC ; std::_Buffered_rotate_unchecked<CMapOutdoor::TPatchDrawStruct *>, COMDAT

; 5904 :     const ptrdiff_t _Capacity) { // rotate [_First, _Last) using temp buffer

  00000	55		 push	 ebp
  00001	8b ec		 mov	 ebp, esp

; 5905 :                                  // precondition: _Count1 == distance(_First, _Mid)
; 5906 :                                  // precondition: _Count2 == distance(_Mid, _Last)
; 5907 :     if (_Count1 == 0) {

  00003	8b 45 14	 mov	 eax, DWORD PTR __Count1$[ebp]
  00006	85 c0		 test	 eax, eax
  00008	75 05		 jne	 SHORT $LN2@Buffered_r

; 5908 :         return _Last;

  0000a	8b 45 10	 mov	 eax, DWORD PTR __Last$[ebp]

; 5932 : }

  0000d	5d		 pop	 ebp
  0000e	c3		 ret	 0
$LN2@Buffered_r:

; 5909 :     }
; 5910 : 
; 5911 :     if (_Count2 == 0) {

  0000f	8b 4d 18	 mov	 ecx, DWORD PTR __Count2$[ebp]
  00012	85 c9		 test	 ecx, ecx
  00014	75 05		 jne	 SHORT $LN3@Buffered_r

; 5912 :         return _First;

  00016	8b 45 08	 mov	 eax, DWORD PTR __First$[ebp]

; 5932 : }

  00019	5d		 pop	 ebp
  0001a	c3		 ret	 0
$LN3@Buffered_r:

; 5913 :     }
; 5914 : 
; 5915 :     if (_Count1 <= _Count2 && _Count1 <= _Capacity) { // buffer left range, then copy parts

  0001b	8b 55 20	 mov	 edx, DWORD PTR __Capacity$[ebp]
  0001e	53		 push	 ebx
  0001f	56		 push	 esi
  00020	57		 push	 edi
  00021	3b c1		 cmp	 eax, ecx
  00023	7f 36		 jg	 SHORT $LN4@Buffered_r
  00025	3b c2		 cmp	 eax, edx
  00027	7f 32		 jg	 SHORT $LN4@Buffered_r

; 5916 :         _Uninitialized_backout<_Iter_value_t<_BidIt>*> _Backout{

  00029	ff 75 1c	 push	 DWORD PTR __Temp_ptr$[ebp]
  0002c	8b 5d 0c	 mov	 ebx, DWORD PTR __Mid$[ebp]
  0002f	8b 75 08	 mov	 esi, DWORD PTR __First$[ebp]
  00032	53		 push	 ebx
  00033	56		 push	 esi
  00034	e8 00 00 00 00	 call	 ??$_Uninitialized_move_unchecked@PAUTPatchDrawStruct@CMapOutdoor@@PAU12@@std@@YAPAUTPatchDrawStruct@CMapOutdoor@@PAU12@QAU12@0@Z ; std::_Uninitialized_move_unchecked<CMapOutdoor::TPatchDrawStruct *,CMapOutdoor::TPatchDrawStruct *>
; File C:\Program Files (x86)\Microsoft Visual Studio\2019\Community\VC\Tools\MSVC\14.28.29333\include\xutility

; 4628 :             return _Copy_memmove(_First, _Last, _Dest);

  00039	56		 push	 esi
  0003a	ff 75 10	 push	 DWORD PTR __Last$[ebp]
; File C:\Program Files (x86)\Microsoft Visual Studio\2019\Community\VC\Tools\MSVC\14.28.29333\include\xmemory

; 1430 :     constexpr _Uninitialized_backout(_NoThrowFwdIt _First_, _NoThrowFwdIt _Last_) : _First(_First_), _Last(_Last_) {}

  0003d	8b f8		 mov	 edi, eax
; File C:\Program Files (x86)\Microsoft Visual Studio\2019\Community\VC\Tools\MSVC\14.28.29333\include\xutility

; 4628 :             return _Copy_memmove(_First, _Last, _Dest);

  0003f	53		 push	 ebx
  00040	e8 00 00 00 00	 call	 ??$_Copy_memmove@PAUTPatchDrawStruct@CMapOutdoor@@PAU12@@std@@YAPAUTPatchDrawStruct@CMapOutdoor@@PAU12@00@Z ; std::_Copy_memmove<CMapOutdoor::TPatchDrawStruct *,CMapOutdoor::TPatchDrawStruct *>
  00045	8b f0		 mov	 esi, eax
  00047	56		 push	 esi
  00048	57		 push	 edi
  00049	ff 75 1c	 push	 DWORD PTR __Temp_ptr$[ebp]
  0004c	e8 00 00 00 00	 call	 ??$_Copy_memmove@PAUTPatchDrawStruct@CMapOutdoor@@PAU12@@std@@YAPAUTPatchDrawStruct@CMapOutdoor@@PAU12@00@Z ; std::_Copy_memmove<CMapOutdoor::TPatchDrawStruct *,CMapOutdoor::TPatchDrawStruct *>
  00051	83 c4 24	 add	 esp, 36			; 00000024H
; File C:\Program Files (x86)\Microsoft Visual Studio\2019\Community\VC\Tools\MSVC\14.28.29333\include\algorithm

; 5920 :         return _New_mid; // _Backout destroys elements in temporary buffer

  00054	8b c6		 mov	 eax, esi
  00056	5f		 pop	 edi
  00057	5e		 pop	 esi
  00058	5b		 pop	 ebx

; 5932 : }

  00059	5d		 pop	 ebp
  0005a	c3		 ret	 0
$LN4@Buffered_r:

; 5921 :     }
; 5922 : 
; 5923 :     if (_Count2 <= _Capacity) { // buffer right range, then copy parts

  0005b	3b ca		 cmp	 ecx, edx
  0005d	7f 2f		 jg	 SHORT $LN5@Buffered_r

; 5924 :         _Uninitialized_backout<_Iter_value_t<_BidIt>*> _Backout{

  0005f	ff 75 1c	 push	 DWORD PTR __Temp_ptr$[ebp]
  00062	8b 7d 10	 mov	 edi, DWORD PTR __Last$[ebp]
  00065	8b 75 0c	 mov	 esi, DWORD PTR __Mid$[ebp]
  00068	57		 push	 edi
  00069	56		 push	 esi
  0006a	e8 00 00 00 00	 call	 ??$_Uninitialized_move_unchecked@PAUTPatchDrawStruct@CMapOutdoor@@PAU12@@std@@YAPAUTPatchDrawStruct@CMapOutdoor@@PAU12@QAU12@0@Z ; std::_Uninitialized_move_unchecked<CMapOutdoor::TPatchDrawStruct *,CMapOutdoor::TPatchDrawStruct *>
; File C:\Program Files (x86)\Microsoft Visual Studio\2019\Community\VC\Tools\MSVC\14.28.29333\include\xutility

; 4696 :             return _Copy_backward_memmove(_First, _Last, _Dest);

  0006f	57		 push	 edi
  00070	56		 push	 esi
  00071	8b 75 08	 mov	 esi, DWORD PTR __First$[ebp]
; File C:\Program Files (x86)\Microsoft Visual Studio\2019\Community\VC\Tools\MSVC\14.28.29333\include\xmemory

; 1430 :     constexpr _Uninitialized_backout(_NoThrowFwdIt _First_, _NoThrowFwdIt _Last_) : _First(_First_), _Last(_Last_) {}

  00074	8b d8		 mov	 ebx, eax
; File C:\Program Files (x86)\Microsoft Visual Studio\2019\Community\VC\Tools\MSVC\14.28.29333\include\xutility

; 4696 :             return _Copy_backward_memmove(_First, _Last, _Dest);

  00076	56		 push	 esi
  00077	e8 00 00 00 00	 call	 ??$_Copy_backward_memmove@PAUTPatchDrawStruct@CMapOutdoor@@PAU12@@std@@YAPAUTPatchDrawStruct@CMapOutdoor@@PAU12@00@Z ; std::_Copy_backward_memmove<CMapOutdoor::TPatchDrawStruct *,CMapOutdoor::TPatchDrawStruct *>

; 4628 :             return _Copy_memmove(_First, _Last, _Dest);

  0007c	56		 push	 esi
  0007d	53		 push	 ebx
  0007e	ff 75 1c	 push	 DWORD PTR __Temp_ptr$[ebp]
  00081	e8 00 00 00 00	 call	 ??$_Copy_memmove@PAUTPatchDrawStruct@CMapOutdoor@@PAU12@@std@@YAPAUTPatchDrawStruct@CMapOutdoor@@PAU12@00@Z ; std::_Copy_memmove<CMapOutdoor::TPatchDrawStruct *,CMapOutdoor::TPatchDrawStruct *>
  00086	83 c4 24	 add	 esp, 36			; 00000024H
  00089	5f		 pop	 edi
  0008a	5e		 pop	 esi
  0008b	5b		 pop	 ebx
; File C:\Program Files (x86)\Microsoft Visual Studio\2019\Community\VC\Tools\MSVC\14.28.29333\include\algorithm

; 5932 : }

  0008c	5d		 pop	 ebp
  0008d	c3		 ret	 0
$LN5@Buffered_r:
; File C:\Program Files (x86)\Microsoft Visual Studio\2019\Community\VC\Tools\MSVC\14.28.29333\include\xutility

; 5664 :     if (_UFirst == _UMid) {

  0008e	8b 7d 08	 mov	 edi, DWORD PTR __First$[ebp]
  00091	8b 5d 0c	 mov	 ebx, DWORD PTR __Mid$[ebp]
  00094	3b fb		 cmp	 edi, ebx
  00096	75 0a		 jne	 SHORT $LN31@Buffered_r

; 5665 :         return _Last;

  00098	8b 7d 10	 mov	 edi, DWORD PTR __Last$[ebp]
; File C:\Program Files (x86)\Microsoft Visual Studio\2019\Community\VC\Tools\MSVC\14.28.29333\include\algorithm

; 5931 :     return _STD rotate(_First, _Mid, _Last);

  0009b	8b c7		 mov	 eax, edi
  0009d	5f		 pop	 edi
  0009e	5e		 pop	 esi
  0009f	5b		 pop	 ebx

; 5932 : }

  000a0	5d		 pop	 ebp
  000a1	c3		 ret	 0
$LN31@Buffered_r:
; File C:\Program Files (x86)\Microsoft Visual Studio\2019\Community\VC\Tools\MSVC\14.28.29333\include\xutility

; 5668 :     if (_UMid == _ULast) {

  000a2	8b 75 10	 mov	 esi, DWORD PTR __Last$[ebp]
  000a5	3b de		 cmp	 ebx, esi
  000a7	74 1f		 je	 SHORT $LN30@Buffered_r

; 5669 :         return _First;
; 5670 :     }
; 5671 : 
; 5672 :     if constexpr (_Is_random_iter_v<_FwdIt>) {
; 5673 :         _STD reverse(_UFirst, _UMid);

  000a9	53		 push	 ebx
  000aa	57		 push	 edi
  000ab	e8 00 00 00 00	 call	 ??$reverse@PAUTPatchDrawStruct@CMapOutdoor@@@std@@YAXQAUTPatchDrawStruct@CMapOutdoor@@0@Z ; std::reverse<CMapOutdoor::TPatchDrawStruct *>

; 5674 :         _STD reverse(_UMid, _ULast);

  000b0	56		 push	 esi
  000b1	53		 push	 ebx
  000b2	e8 00 00 00 00	 call	 ??$reverse@PAUTPatchDrawStruct@CMapOutdoor@@@std@@YAXQAUTPatchDrawStruct@CMapOutdoor@@0@Z ; std::reverse<CMapOutdoor::TPatchDrawStruct *>

; 5675 :         _STD reverse(_UFirst, _ULast);

  000b7	56		 push	 esi
  000b8	57		 push	 edi
  000b9	e8 00 00 00 00	 call	 ??$reverse@PAUTPatchDrawStruct@CMapOutdoor@@@std@@YAXQAUTPatchDrawStruct@CMapOutdoor@@0@Z ; std::reverse<CMapOutdoor::TPatchDrawStruct *>

; 5676 :         _Seek_wrapped(_First, _UFirst + (_ULast - _UMid));

  000be	2b f3		 sub	 esi, ebx
  000c0	83 c4 18	 add	 esp, 24			; 00000018H
  000c3	83 e6 f0	 and	 esi, -16		; fffffff0H
  000c6	03 fe		 add	 edi, esi
$LN30@Buffered_r:
; File C:\Program Files (x86)\Microsoft Visual Studio\2019\Community\VC\Tools\MSVC\14.28.29333\include\algorithm

; 5931 :     return _STD rotate(_First, _Mid, _Last);

  000c8	8b c7		 mov	 eax, edi
  000ca	5f		 pop	 edi
  000cb	5e		 pop	 esi
  000cc	5b		 pop	 ebx

; 5932 : }

  000cd	5d		 pop	 ebp
  000ce	c3		 ret	 0
??$_Buffered_rotate_unchecked@PAUTPatchDrawStruct@CMapOutdoor@@@std@@YAPAUTPatchDrawStruct@CMapOutdoor@@QAU12@00HH0H@Z ENDP ; std::_Buffered_rotate_unchecked<CMapOutdoor::TPatchDrawStruct *>
_TEXT	ENDS
; Function compile flags: /Ogtp
; File C:\Program Files (x86)\Microsoft Visual Studio\2019\Community\VC\Tools\MSVC\14.28.29333\include\xmemory
;	COMDAT ??$_Construct_in_place@UTPatchDrawStruct@CMapOutdoor@@U12@@std@@YAXAAUTPatchDrawStruct@CMapOutdoor@@$$QAU12@@Z
_TEXT	SEGMENT
__Obj$ = 8						; size = 4
_<_Args_0>$ = 12					; size = 4
??$_Construct_in_place@UTPatchDrawStruct@CMapOutdoor@@U12@@std@@YAXAAUTPatchDrawStruct@CMapOutdoor@@$$QAU12@@Z PROC ; std::_Construct_in_place<CMapOutdoor::TPatchDrawStruct,CMapOutdoor::TPatchDrawStruct>, COMDAT

; 228  : void _Construct_in_place(_Ty& _Obj, _Types&&... _Args) noexcept(is_nothrow_constructible_v<_Ty, _Types...>) {

  00000	55		 push	 ebp
  00001	8b ec		 mov	 ebp, esp

; 229  :     ::new (const_cast<void*>(static_cast<const volatile void*>(_STD addressof(_Obj))))

  00003	8b 45 0c	 mov	 eax, DWORD PTR _<_Args_0>$[ebp]
  00006	0f 10 00	 movups	 xmm0, XMMWORD PTR [eax]
  00009	8b 45 08	 mov	 eax, DWORD PTR __Obj$[ebp]
  0000c	0f 11 00	 movups	 XMMWORD PTR [eax], xmm0

; 230  :         _Ty(_STD forward<_Types>(_Args)...);
; 231  : }

  0000f	5d		 pop	 ebp
  00010	c3		 ret	 0
??$_Construct_in_place@UTPatchDrawStruct@CMapOutdoor@@U12@@std@@YAXAAUTPatchDrawStruct@CMapOutdoor@@$$QAU12@@Z ENDP ; std::_Construct_in_place<CMapOutdoor::TPatchDrawStruct,CMapOutdoor::TPatchDrawStruct>
_TEXT	ENDS
; Function compile flags: /Ogtp
; File C:\Program Files (x86)\Microsoft Visual Studio\2019\Community\VC\Tools\MSVC\14.28.29333\include\algorithm
; File C:\Program Files (x86)\Microsoft Visual Studio\2019\Community\VC\Tools\MSVC\14.28.29333\include\xutility
; File C:\Program Files (x86)\Microsoft Visual Studio\2019\Community\VC\Tools\MSVC\14.28.29333\include\algorithm
; File C:\Program Files (x86)\Microsoft Visual Studio\2019\Community\VC\Tools\MSVC\14.28.29333\include\xutility
; File C:\Program Files (x86)\Microsoft Visual Studio\2019\Community\VC\Tools\MSVC\14.28.29333\include\algorithm
; File C:\Program Files (x86)\Microsoft Visual Studio\2019\Community\VC\Tools\MSVC\14.28.29333\include\xutility
; File C:\Program Files (x86)\Microsoft Visual Studio\2019\Community\VC\Tools\MSVC\14.28.29333\include\algorithm
; File D:\Metin2 Server Files\mainline\SRC_2014\Metin2Client\GameLib\MapOutdoor.h
; File C:\Program Files (x86)\Microsoft Visual Studio\2019\Community\VC\Tools\MSVC\14.28.29333\include\algorithm
; File C:\Program Files (x86)\Microsoft Visual Studio\2019\Community\VC\Tools\MSVC\14.28.29333\include\xutility
; File C:\Program Files (x86)\Windows Kits\10\Include\10.0.18362.0\ucrt\corecrt_memory.h
; File C:\Program Files (x86)\Microsoft Visual Studio\2019\Community\VC\Tools\MSVC\14.28.29333\include\xutility
; File C:\Program Files (x86)\Windows Kits\10\Include\10.0.18362.0\ucrt\corecrt_memory.h
; File C:\Program Files (x86)\Microsoft Visual Studio\2019\Community\VC\Tools\MSVC\14.28.29333\include\xutility
; File C:\Program Files (x86)\Microsoft Visual Studio\2019\Community\VC\Tools\MSVC\14.28.29333\include\vector
; File C:\Program Files (x86)\Microsoft Visual Studio\2019\Community\VC\Tools\MSVC\14.28.29333\include\xutility
; File C:\Program Files (x86)\Microsoft Visual Studio\2019\Community\VC\Tools\MSVC\14.28.29333\include\vector
; File D:\Metin2 Server Files\mainline\SRC_2014\Metin2Client\GameLib\MapOutdoor.h
; File C:\Program Files (x86)\Microsoft Visual Studio\2019\Community\VC\Tools\MSVC\14.28.29333\include\xutility
; File C:\Program Files (x86)\Windows Kits\10\Include\10.0.18362.0\ucrt\corecrt_memory.h
; File C:\Program Files (x86)\Microsoft Visual Studio\2019\Community\VC\Tools\MSVC\14.28.29333\include\xutility
; File C:\Program Files (x86)\Windows Kits\10\Include\10.0.18362.0\ucrt\corecrt_memory.h
; File C:\Program Files (x86)\Microsoft Visual Studio\2019\Community\VC\Tools\MSVC\14.28.29333\include\xutility
; File C:\Program Files (x86)\Microsoft Visual Studio\2019\Community\VC\Tools\MSVC\14.28.29333\include\vector
; File D:\Metin2 Server Files\mainline\SRC_2014\Metin2Client\GameLib\MapOutdoor.h
; File C:\Program Files (x86)\Microsoft Visual Studio\2019\Community\VC\Tools\MSVC\14.28.29333\include\xutility
; File C:\Program Files (x86)\Microsoft Visual Studio\2019\Community\VC\Tools\MSVC\14.28.29333\include\vector
; File C:\Program Files (x86)\Microsoft Visual Studio\2019\Community\VC\Tools\MSVC\14.28.29333\include\xutility
; File D:\Metin2 Server Files\mainline\SRC_2014\Metin2Client\GameLib\MapOutdoor.h
; File C:\Program Files (x86)\Microsoft Visual Studio\2019\Community\VC\Tools\MSVC\14.28.29333\include\vector
; File D:\Metin2 Server Files\mainline\SRC_2014\Metin2Client\GameLib\MapOutdoor.h
; File C:\Program Files (x86)\Microsoft Visual Studio\2019\Community\VC\Tools\MSVC\14.28.29333\include\vector
; File D:\Metin2 Server Files\mainline\SRC_2014\Metin2Client\GameLib\MapOutdoor.h
; File C:\Program Files (x86)\Microsoft Visual Studio\2019\Community\VC\Tools\MSVC\14.28.29333\include\vector
; File D:\Metin2 Server Files\mainline\SRC_2014\Metin2Client\GameLib\MapOutdoor.h
; File C:\Program Files (x86)\Microsoft Visual Studio\2019\Community\VC\Tools\MSVC\14.28.29333\include\xutility
; File C:\Program Files (x86)\Windows Kits\10\Include\10.0.18362.0\ucrt\corecrt_memory.h
; File C:\Program Files (x86)\Microsoft Visual Studio\2019\Community\VC\Tools\MSVC\14.28.29333\include\xutility
; File C:\Program Files (x86)\Windows Kits\10\Include\10.0.18362.0\ucrt\corecrt_memory.h
; File C:\Program Files (x86)\Microsoft Visual Studio\2019\Community\VC\Tools\MSVC\14.28.29333\include\xutility
; File C:\Program Files (x86)\Microsoft Visual Studio\2019\Community\VC\Tools\MSVC\14.28.29333\include\vector
; File D:\Metin2 Server Files\mainline\SRC_2014\Metin2Client\GameLib\MapOutdoor.h
; File C:\Program Files (x86)\Microsoft Visual Studio\2019\Community\VC\Tools\MSVC\14.28.29333\include\vector
; File D:\Metin2 Server Files\mainline\SRC_2014\Metin2Client\GameLib\MapOutdoor.h
; File C:\Program Files (x86)\Microsoft Visual Studio\2019\Community\VC\Tools\MSVC\14.28.29333\include\vector
; File D:\Metin2 Server Files\mainline\SRC_2014\Metin2Client\GameLib\MapOutdoor.h
; File C:\Program Files (x86)\Microsoft Visual Studio\2019\Community\VC\Tools\MSVC\14.28.29333\include\vector
; File D:\Metin2 Server Files\mainline\SRC_2014\Metin2Client\GameLib\MapOutdoor.h
; File C:\Program Files (x86)\Microsoft Visual Studio\2019\Community\VC\Tools\MSVC\14.28.29333\include\vector
; File D:\Metin2 Server Files\mainline\SRC_2014\Metin2Client\GameLib\MapOutdoor.h
; File C:\Program Files (x86)\Microsoft Visual Studio\2019\Community\VC\Tools\MSVC\14.28.29333\include\vector
; File D:\Metin2 Server Files\mainline\SRC_2014\Metin2Client\GameLib\MapOutdoor.h
; File C:\Program Files (x86)\Microsoft Visual Studio\2019\Community\VC\Tools\MSVC\14.28.29333\include\vector
; File D:\Metin2 Server Files\mainline\SRC_2014\Metin2Client\GameLib\MapOutdoor.h
; File C:\Program Files (x86)\Microsoft Visual Studio\2019\Community\VC\Tools\MSVC\14.28.29333\include\algorithm
;	COMDAT ??$upper_bound@PAUTPatchDrawStruct@CMapOutdoor@@U12@UFSortPatchDrawStructWithTerrainNum@2@@std@@YAPAUTPatchDrawStruct@CMapOutdoor@@PAU12@0ABU12@UFSortPatchDrawStructWithTerrainNum@2@@Z
_TEXT	SEGMENT
__Val$1$ = -20						; size = 4
__Count2$1$ = -16					; size = 4
__UMid$1$ = -12						; size = 4
tv1029 = -8						; size = 4
_rhsTerrainNumOrder$1$ = -8				; size = 4
tv1030 = -1						; size = 1
tv1023 = -1						; size = 1
__First$ = 8						; size = 4
__Last$ = 12						; size = 4
__Val$ = 16						; size = 4
__Pred$ = 20						; size = 1
??$upper_bound@PAUTPatchDrawStruct@CMapOutdoor@@U12@UFSortPatchDrawStructWithTerrainNum@2@@std@@YAPAUTPatchDrawStruct@CMapOutdoor@@PAU12@0ABU12@UFSortPatchDrawStructWithTerrainNum@2@@Z PROC ; std::upper_bound<CMapOutdoor::TPatchDrawStruct *,CMapOutdoor::TPatchDrawStruct,CMapOutdoor::FSortPatchDrawStructWithTerrainNum>, COMDAT

; 6725 : _NODISCARD _CONSTEXPR20 _FwdIt upper_bound(_FwdIt _First, _FwdIt _Last, const _Ty& _Val, _Pr _Pred) {

  00000	55		 push	 ebp
  00001	8b ec		 mov	 ebp, esp
  00003	83 ec 14	 sub	 esp, 20			; 00000014H
  00006	53		 push	 ebx
; File C:\Program Files (x86)\Microsoft Visual Studio\2019\Community\VC\Tools\MSVC\14.28.29333\include\xutility

; 1794 :         return _Last - _First; // assume the iterator will do debug checking

  00007	8b 5d 0c	 mov	 ebx, DWORD PTR __Last$[ebp]
; File C:\Program Files (x86)\Microsoft Visual Studio\2019\Community\VC\Tools\MSVC\14.28.29333\include\algorithm

; 6725 : _NODISCARD _CONSTEXPR20 _FwdIt upper_bound(_FwdIt _First, _FwdIt _Last, const _Ty& _Val, _Pr _Pred) {

  0000a	56		 push	 esi
; File C:\Program Files (x86)\Microsoft Visual Studio\2019\Community\VC\Tools\MSVC\14.28.29333\include\xutility

; 1794 :         return _Last - _First; // assume the iterator will do debug checking

  0000b	8b 75 08	 mov	 esi, DWORD PTR __First$[ebp]
  0000e	2b de		 sub	 ebx, esi
  00010	c1 fb 04	 sar	 ebx, 4
  00013	89 5d 0c	 mov	 DWORD PTR __Last$[ebp], ebx
; File C:\Program Files (x86)\Microsoft Visual Studio\2019\Community\VC\Tools\MSVC\14.28.29333\include\algorithm

; 6731 :     while (0 < _Count) { // divide and conquer, find half that contains answer

  00016	85 db		 test	 ebx, ebx
  00018	0f 8e 84 01 00
	00		 jle	 $LN173@upper_boun
  0001e	8b 4d 10	 mov	 ecx, DWORD PTR __Val$[ebp]
  00021	8b 15 00 00 00
	00		 mov	 edx, DWORD PTR ?m_TerrainNumVector@FSortPatchDrawStructWithTerrainNum@CMapOutdoor@@2V?$vector@EV?$allocator@E@std@@@std@@A
  00027	83 c1 04	 add	 ecx, 4
  0002a	57		 push	 edi
  0002b	8b 3d 04 00 00
	00		 mov	 edi, DWORD PTR ?m_TerrainNumVector@FSortPatchDrawStructWithTerrainNum@CMapOutdoor@@2V?$vector@EV?$allocator@E@std@@@std@@A+4
  00031	89 4d ec	 mov	 DWORD PTR __Val$1$[ebp], ecx
$LL2@upper_boun:

; 6732 :         _Iter_diff_t<_FwdIt> _Count2 = _Count / 2;

  00034	8b c3		 mov	 eax, ebx
; File C:\Program Files (x86)\Microsoft Visual Studio\2019\Community\VC\Tools\MSVC\14.28.29333\include\xutility

; 5480 :     _Seek_wrapped(_First, _Find_unchecked(_Get_unwrapped(_First), _Get_unwrapped(_Last), _Val));

  00036	89 7d f8	 mov	 DWORD PTR tv1029[ebp], edi
; File C:\Program Files (x86)\Microsoft Visual Studio\2019\Community\VC\Tools\MSVC\14.28.29333\include\algorithm

; 6732 :         _Iter_diff_t<_FwdIt> _Count2 = _Count / 2;

  00039	d1 e8		 shr	 eax, 1
; File D:\Metin2 Server Files\mainline\SRC_2014\Metin2Client\GameLib\MapOutdoor.h

; 360  : 				DWORD lhsTerrainNumOrder = 0, rhsTerrainNumOrder = 0;

  0003b	33 db		 xor	 ebx, ebx
; File C:\Program Files (x86)\Microsoft Visual Studio\2019\Community\VC\Tools\MSVC\14.28.29333\include\algorithm

; 6732 :         _Iter_diff_t<_FwdIt> _Count2 = _Count / 2;

  0003d	89 45 f0	 mov	 DWORD PTR __Count2$1$[ebp], eax
; File C:\Program Files (x86)\Microsoft Visual Studio\2019\Community\VC\Tools\MSVC\14.28.29333\include\xutility

; 1714 :         _Where += _Off;

  00040	c1 e0 04	 shl	 eax, 4
  00043	03 c6		 add	 eax, esi
  00045	89 45 f4	 mov	 DWORD PTR __UMid$1$[ebp], eax

; 5461 :     _First =

  00048	8b c7		 mov	 eax, edi
  0004a	2b c2		 sub	 eax, edx
; File C:\Program Files (x86)\Windows Kits\10\Include\10.0.18362.0\ucrt\corecrt_memory.h

; 107  :         return const_cast<void*>(memchr(_Pvc, _C, _N));

  0004c	50		 push	 eax
; File C:\Program Files (x86)\Microsoft Visual Studio\2019\Community\VC\Tools\MSVC\14.28.29333\include\xutility

; 5461 :     _First =

  0004d	0f b6 01	 movzx	 eax, BYTE PTR [ecx]
; File C:\Program Files (x86)\Windows Kits\10\Include\10.0.18362.0\ucrt\corecrt_memory.h

; 107  :         return const_cast<void*>(memchr(_Pvc, _C, _N));

  00050	50		 push	 eax
  00051	52		 push	 edx
  00052	e8 00 00 00 00	 call	 _memchr
; File C:\Program Files (x86)\Microsoft Visual Studio\2019\Community\VC\Tools\MSVC\14.28.29333\include\xutility

; 5463 :     return _First ? _First : _Last;

  00057	85 c0		 test	 eax, eax
  00059	8b cf		 mov	 ecx, edi
  0005b	0f 45 c8	 cmovne	 ecx, eax
; File C:\Program Files (x86)\Microsoft Visual Studio\2019\Community\VC\Tools\MSVC\14.28.29333\include\vector

; 195  :         _Ptr = _Refancy<_Tptr>(const_cast<value_type*>(_It));

  0005e	51		 push	 ecx
  0005f	e8 00 00 00 00	 call	 ??$_Refancy@PAE$0A@@std@@YAPAEPAE@Z ; std::_Refancy<unsigned char *,0>
; File C:\Program Files (x86)\Microsoft Visual Studio\2019\Community\VC\Tools\MSVC\14.28.29333\include\xutility

; 5461 :     _First =

  00064	8b 0d 00 00 00
	00		 mov	 ecx, DWORD PTR ?m_TerrainNumVector@FSortPatchDrawStructWithTerrainNum@CMapOutdoor@@2V?$vector@EV?$allocator@E@std@@@std@@A
; File C:\Program Files (x86)\Microsoft Visual Studio\2019\Community\VC\Tools\MSVC\14.28.29333\include\vector

; 195  :         _Ptr = _Refancy<_Tptr>(const_cast<value_type*>(_It));

  0006a	8b f0		 mov	 esi, eax
; File D:\Metin2 Server Files\mainline\SRC_2014\Metin2Client\GameLib\MapOutdoor.h

; 365  : 				TTerrainNumVector::iterator rhsIterator = std::find(m_TerrainNumVector.begin(), m_TerrainNumVector.end(), rhs.byTerrainNum);

  0006c	8b 45 f4	 mov	 eax, DWORD PTR __UMid$1$[ebp]
; File C:\Program Files (x86)\Microsoft Visual Studio\2019\Community\VC\Tools\MSVC\14.28.29333\include\xutility

; 5461 :     _First =

  0006f	8a 50 04	 mov	 dl, BYTE PTR [eax+4]
  00072	8b c7		 mov	 eax, edi
  00074	2b c1		 sub	 eax, ecx
  00076	88 55 ff	 mov	 BYTE PTR tv1030[ebp], dl
; File C:\Program Files (x86)\Windows Kits\10\Include\10.0.18362.0\ucrt\corecrt_memory.h

; 107  :         return const_cast<void*>(memchr(_Pvc, _C, _N));

  00079	50		 push	 eax
; File C:\Program Files (x86)\Microsoft Visual Studio\2019\Community\VC\Tools\MSVC\14.28.29333\include\xutility

; 5461 :     _First =

  0007a	0f b6 c2	 movzx	 eax, dl
; File C:\Program Files (x86)\Windows Kits\10\Include\10.0.18362.0\ucrt\corecrt_memory.h

; 107  :         return const_cast<void*>(memchr(_Pvc, _C, _N));

  0007d	50		 push	 eax
  0007e	51		 push	 ecx
  0007f	e8 00 00 00 00	 call	 _memchr
; File C:\Program Files (x86)\Microsoft Visual Studio\2019\Community\VC\Tools\MSVC\14.28.29333\include\xutility

; 5463 :     return _First ? _First : _Last;

  00084	85 c0		 test	 eax, eax
  00086	8b cf		 mov	 ecx, edi
  00088	0f 45 c8	 cmovne	 ecx, eax
; File C:\Program Files (x86)\Microsoft Visual Studio\2019\Community\VC\Tools\MSVC\14.28.29333\include\vector

; 195  :         _Ptr = _Refancy<_Tptr>(const_cast<value_type*>(_It));

  0008b	51		 push	 ecx
  0008c	e8 00 00 00 00	 call	 ??$_Refancy@PAE$0A@@std@@YAPAEPAE@Z ; std::_Refancy<unsigned char *,0>
; File D:\Metin2 Server Files\mainline\SRC_2014\Metin2Client\GameLib\MapOutdoor.h

; 367  : 				if (lhsIterator != m_TerrainNumVector.end())

  00091	8b 0d 00 00 00
	00		 mov	 ecx, DWORD PTR ?m_TerrainNumVector@FSortPatchDrawStructWithTerrainNum@CMapOutdoor@@2V?$vector@EV?$allocator@E@std@@@std@@A
; File C:\Program Files (x86)\Microsoft Visual Studio\2019\Community\VC\Tools\MSVC\14.28.29333\include\xutility

; 5481 :     return _First;

  00097	8b d7		 mov	 edx, edi
; File C:\Program Files (x86)\Microsoft Visual Studio\2019\Community\VC\Tools\MSVC\14.28.29333\include\vector

; 195  :         _Ptr = _Refancy<_Tptr>(const_cast<value_type*>(_It));

  00099	83 c4 20	 add	 esp, 32			; 00000020H
; File C:\Program Files (x86)\Microsoft Visual Studio\2019\Community\VC\Tools\MSVC\14.28.29333\include\xutility

; 5481 :     return _First;

  0009c	3b f2		 cmp	 esi, edx
; File D:\Metin2 Server Files\mainline\SRC_2014\Metin2Client\GameLib\MapOutdoor.h

; 367  : 				if (lhsIterator != m_TerrainNumVector.end())

  0009e	74 04		 je	 SHORT $LN14@upper_boun

; 368  : 				{
; 369  : 					blhsOrderFound = true;

  000a0	8b de		 mov	 ebx, esi
  000a2	2b d9		 sub	 ebx, ecx
$LN14@upper_boun:
; File C:\Program Files (x86)\Microsoft Visual Studio\2019\Community\VC\Tools\MSVC\14.28.29333\include\vector

; 149  :         return _Ptr == _Right._Ptr;

  000a4	3b c2		 cmp	 eax, edx
; File D:\Metin2 Server Files\mainline\SRC_2014\Metin2Client\GameLib\MapOutdoor.h

; 372  : 				if (rhsIterator != m_TerrainNumVector.end())

  000a6	74 04		 je	 SHORT $LN171@upper_boun
; File C:\Program Files (x86)\Microsoft Visual Studio\2019\Community\VC\Tools\MSVC\14.28.29333\include\vector

; 140  :         return _Ptr - _Right._Ptr;

  000a8	2b c1		 sub	 eax, ecx
; File D:\Metin2 Server Files\mainline\SRC_2014\Metin2Client\GameLib\MapOutdoor.h

; 377  : 				if (!brhsOrderFound)

  000aa	eb 42		 jmp	 SHORT $LN176@upper_boun
$LN171@upper_boun:
; File C:\Program Files (x86)\Microsoft Visual Studio\2019\Community\VC\Tools\MSVC\14.28.29333\include\vector

; 704  :         if (_Mylast != _My_data._Myend) {

  000ac	3b 15 08 00 00
	00		 cmp	 edx, DWORD PTR ?m_TerrainNumVector@FSortPatchDrawStructWithTerrainNum@CMapOutdoor@@2V?$vector@EV?$allocator@E@std@@@std@@A+8
  000b2	74 14		 je	 SHORT $LN110@upper_boun

; 687  :         _Alty_traits::construct(_Getal(), _Unfancy(_Mylast), _STD forward<_Valty>(_Val)...);

  000b4	8a 45 ff	 mov	 al, BYTE PTR tv1030[ebp]
  000b7	88 02		 mov	 BYTE PTR [edx], al

; 690  :         ++_Mylast;

  000b9	8b 3d 04 00 00
	00		 mov	 edi, DWORD PTR ?m_TerrainNumVector@FSortPatchDrawStructWithTerrainNum@CMapOutdoor@@2V?$vector@EV?$allocator@E@std@@@std@@A+4
  000bf	47		 inc	 edi
  000c0	89 3d 04 00 00
	00		 mov	 DWORD PTR ?m_TerrainNumVector@FSortPatchDrawStructWithTerrainNum@CMapOutdoor@@2V?$vector@EV?$allocator@E@std@@@std@@A+4, edi

; 705  :             return _Emplace_back_with_unused_capacity(_STD forward<_Valty>(_Val)...);

  000c6	eb 1b		 jmp	 SHORT $LN109@upper_boun
$LN110@upper_boun:

; 708  :         _Ty& _Result = *_Emplace_reallocate(_Mylast, _STD forward<_Valty>(_Val)...);

  000c8	8b 45 f4	 mov	 eax, DWORD PTR __UMid$1$[ebp]
  000cb	b9 00 00 00 00	 mov	 ecx, OFFSET ?m_TerrainNumVector@FSortPatchDrawStructWithTerrainNum@CMapOutdoor@@2V?$vector@EV?$allocator@E@std@@@std@@A ; CMapOutdoor::FSortPatchDrawStructWithTerrainNum::m_TerrainNumVector
  000d0	83 c0 04	 add	 eax, 4
  000d3	50		 push	 eax
  000d4	52		 push	 edx
  000d5	e8 00 00 00 00	 call	 ??$_Emplace_reallocate@ABE@?$vector@EV?$allocator@E@std@@@std@@QAEPAEQAEABE@Z ; std::vector<unsigned char,std::allocator<unsigned char> >::_Emplace_reallocate<unsigned char const &>
  000da	8b 3d 04 00 00
	00		 mov	 edi, DWORD PTR ?m_TerrainNumVector@FSortPatchDrawStructWithTerrainNum@CMapOutdoor@@2V?$vector@EV?$allocator@E@std@@@std@@A+4
  000e0	8b 55 f8	 mov	 edx, DWORD PTR tv1029[ebp]
$LN109@upper_boun:
; File D:\Metin2 Server Files\mainline\SRC_2014\Metin2Client\GameLib\MapOutdoor.h

; 380  : 					rhsTerrainNumOrder = m_TerrainNumVector.size() -1;

  000e3	8b 0d 00 00 00
	00		 mov	 ecx, DWORD PTR ?m_TerrainNumVector@FSortPatchDrawStructWithTerrainNum@CMapOutdoor@@2V?$vector@EV?$allocator@E@std@@@std@@A
  000e9	8b c7		 mov	 eax, edi
  000eb	2b c1		 sub	 eax, ecx
  000ed	48		 dec	 eax
$LN176@upper_boun:

; 381  : 				}
; 382  : 				if (!blhsOrderFound)

  000ee	89 45 f8	 mov	 DWORD PTR _rhsTerrainNumOrder$1$[ebp], eax
  000f1	3b f2		 cmp	 esi, edx
  000f3	75 77		 jne	 SHORT $LN174@upper_boun
; File C:\Program Files (x86)\Microsoft Visual Studio\2019\Community\VC\Tools\MSVC\14.28.29333\include\xutility

; 5461 :     _First =

  000f5	8b 75 ec	 mov	 esi, DWORD PTR __Val$1$[ebp]
  000f8	8b c7		 mov	 eax, edi
  000fa	2b c1		 sub	 eax, ecx
; File C:\Program Files (x86)\Windows Kits\10\Include\10.0.18362.0\ucrt\corecrt_memory.h

; 107  :         return const_cast<void*>(memchr(_Pvc, _C, _N));

  000fc	50		 push	 eax
; File C:\Program Files (x86)\Microsoft Visual Studio\2019\Community\VC\Tools\MSVC\14.28.29333\include\xutility

; 5461 :     _First =

  000fd	0f b6 06	 movzx	 eax, BYTE PTR [esi]
; File C:\Program Files (x86)\Windows Kits\10\Include\10.0.18362.0\ucrt\corecrt_memory.h

; 107  :         return const_cast<void*>(memchr(_Pvc, _C, _N));

  00100	50		 push	 eax
  00101	51		 push	 ecx
  00102	e8 00 00 00 00	 call	 _memchr
; File C:\Program Files (x86)\Microsoft Visual Studio\2019\Community\VC\Tools\MSVC\14.28.29333\include\xutility

; 5463 :     return _First ? _First : _Last;

  00107	85 c0		 test	 eax, eax
  00109	8b cf		 mov	 ecx, edi
  0010b	0f 45 c8	 cmovne	 ecx, eax
; File C:\Program Files (x86)\Microsoft Visual Studio\2019\Community\VC\Tools\MSVC\14.28.29333\include\vector

; 195  :         _Ptr = _Refancy<_Tptr>(const_cast<value_type*>(_It));

  0010e	51		 push	 ecx
  0010f	e8 00 00 00 00	 call	 ??$_Refancy@PAE$0A@@std@@YAPAEPAE@Z ; std::_Refancy<unsigned char *,0>
; File D:\Metin2 Server Files\mainline\SRC_2014\Metin2Client\GameLib\MapOutdoor.h

; 384  : 					lhsIterator = std::find(m_TerrainNumVector.begin(), m_TerrainNumVector.end(), lhs.byTerrainNum);

  00114	8b d8		 mov	 ebx, eax
; File C:\Program Files (x86)\Microsoft Visual Studio\2019\Community\VC\Tools\MSVC\14.28.29333\include\vector

; 195  :         _Ptr = _Refancy<_Tptr>(const_cast<value_type*>(_It));

  00116	83 c4 10	 add	 esp, 16			; 00000010H
; File D:\Metin2 Server Files\mainline\SRC_2014\Metin2Client\GameLib\MapOutdoor.h

; 384  : 					lhsIterator = std::find(m_TerrainNumVector.begin(), m_TerrainNumVector.end(), lhs.byTerrainNum);

  00119	3b df		 cmp	 ebx, edi

; 385  : 					if (lhsIterator != m_TerrainNumVector.end())

  0011b	74 0a		 je	 SHORT $LN172@upper_boun
; File C:\Program Files (x86)\Microsoft Visual Studio\2019\Community\VC\Tools\MSVC\14.28.29333\include\vector

; 140  :         return _Ptr - _Right._Ptr;

  0011d	8b 15 00 00 00
	00		 mov	 edx, DWORD PTR ?m_TerrainNumVector@FSortPatchDrawStructWithTerrainNum@CMapOutdoor@@2V?$vector@EV?$allocator@E@std@@@std@@A
  00123	2b da		 sub	 ebx, edx
; File D:\Metin2 Server Files\mainline\SRC_2014\Metin2Client\GameLib\MapOutdoor.h

; 390  : 					if (!blhsOrderFound)

  00125	eb 4b		 jmp	 SHORT $LN19@upper_boun
$LN172@upper_boun:
; File C:\Program Files (x86)\Microsoft Visual Studio\2019\Community\VC\Tools\MSVC\14.28.29333\include\vector

; 704  :         if (_Mylast != _My_data._Myend) {

  00127	3b 3d 08 00 00
	00		 cmp	 edi, DWORD PTR ?m_TerrainNumVector@FSortPatchDrawStructWithTerrainNum@CMapOutdoor@@2V?$vector@EV?$allocator@E@std@@@std@@A+8
  0012d	74 1e		 je	 SHORT $LN162@upper_boun

; 687  :         _Alty_traits::construct(_Getal(), _Unfancy(_Mylast), _STD forward<_Valty>(_Val)...);

  0012f	8a 06		 mov	 al, BYTE PTR [esi]
  00131	88 07		 mov	 BYTE PTR [edi], al

; 690  :         ++_Mylast;

  00133	8b 3d 04 00 00
	00		 mov	 edi, DWORD PTR ?m_TerrainNumVector@FSortPatchDrawStructWithTerrainNum@CMapOutdoor@@2V?$vector@EV?$allocator@E@std@@@std@@A+4
; File D:\Metin2 Server Files\mainline\SRC_2014\Metin2Client\GameLib\MapOutdoor.h

; 393  : 						lhsTerrainNumOrder = m_TerrainNumVector.size() -1;

  00139	8b 15 00 00 00
	00		 mov	 edx, DWORD PTR ?m_TerrainNumVector@FSortPatchDrawStructWithTerrainNum@CMapOutdoor@@2V?$vector@EV?$allocator@E@std@@@std@@A
; File C:\Program Files (x86)\Microsoft Visual Studio\2019\Community\VC\Tools\MSVC\14.28.29333\include\vector

; 690  :         ++_Mylast;

  0013f	47		 inc	 edi
; File D:\Metin2 Server Files\mainline\SRC_2014\Metin2Client\GameLib\MapOutdoor.h

; 393  : 						lhsTerrainNumOrder = m_TerrainNumVector.size() -1;

  00140	8b df		 mov	 ebx, edi
; File C:\Program Files (x86)\Microsoft Visual Studio\2019\Community\VC\Tools\MSVC\14.28.29333\include\vector

; 690  :         ++_Mylast;

  00142	89 3d 04 00 00
	00		 mov	 DWORD PTR ?m_TerrainNumVector@FSortPatchDrawStructWithTerrainNum@CMapOutdoor@@2V?$vector@EV?$allocator@E@std@@@std@@A+4, edi
; File D:\Metin2 Server Files\mainline\SRC_2014\Metin2Client\GameLib\MapOutdoor.h

; 393  : 						lhsTerrainNumOrder = m_TerrainNumVector.size() -1;

  00148	2b da		 sub	 ebx, edx
  0014a	4b		 dec	 ebx
  0014b	eb 25		 jmp	 SHORT $LN19@upper_boun
$LN162@upper_boun:
; File C:\Program Files (x86)\Microsoft Visual Studio\2019\Community\VC\Tools\MSVC\14.28.29333\include\vector

; 708  :         _Ty& _Result = *_Emplace_reallocate(_Mylast, _STD forward<_Valty>(_Val)...);

  0014d	56		 push	 esi
  0014e	57		 push	 edi
  0014f	b9 00 00 00 00	 mov	 ecx, OFFSET ?m_TerrainNumVector@FSortPatchDrawStructWithTerrainNum@CMapOutdoor@@2V?$vector@EV?$allocator@E@std@@@std@@A ; CMapOutdoor::FSortPatchDrawStructWithTerrainNum::m_TerrainNumVector
  00154	e8 00 00 00 00	 call	 ??$_Emplace_reallocate@ABE@?$vector@EV?$allocator@E@std@@@std@@QAEPAEQAEABE@Z ; std::vector<unsigned char,std::allocator<unsigned char> >::_Emplace_reallocate<unsigned char const &>
  00159	8b 3d 04 00 00
	00		 mov	 edi, DWORD PTR ?m_TerrainNumVector@FSortPatchDrawStructWithTerrainNum@CMapOutdoor@@2V?$vector@EV?$allocator@E@std@@@std@@A+4
; File D:\Metin2 Server Files\mainline\SRC_2014\Metin2Client\GameLib\MapOutdoor.h

; 393  : 						lhsTerrainNumOrder = m_TerrainNumVector.size() -1;

  0015f	8b df		 mov	 ebx, edi
  00161	8b 15 00 00 00
	00		 mov	 edx, DWORD PTR ?m_TerrainNumVector@FSortPatchDrawStructWithTerrainNum@CMapOutdoor@@2V?$vector@EV?$allocator@E@std@@@std@@A
  00167	2b da		 sub	 ebx, edx
  00169	4b		 dec	 ebx
  0016a	eb 06		 jmp	 SHORT $LN19@upper_boun
$LN174@upper_boun:

; 381  : 				}
; 382  : 				if (!blhsOrderFound)

  0016c	8b 15 00 00 00
	00		 mov	 edx, DWORD PTR ?m_TerrainNumVector@FSortPatchDrawStructWithTerrainNum@CMapOutdoor@@2V?$vector@EV?$allocator@E@std@@@std@@A
$LN19@upper_boun:

; 394  : 					}
; 395  : 				}
; 396  : 
; 397  : 				return lhsTerrainNumOrder < rhsTerrainNumOrder;

  00172	3b 5d f8	 cmp	 ebx, DWORD PTR _rhsTerrainNumOrder$1$[ebp]
; File C:\Program Files (x86)\Microsoft Visual Studio\2019\Community\VC\Tools\MSVC\14.28.29333\include\algorithm

; 6734 :         if (_Pred(_Val, *_UMid)) {

  00175	73 08		 jae	 SHORT $LN4@upper_boun

; 6735 :             _Count = _Count2;

  00177	8b 5d f0	 mov	 ebx, DWORD PTR __Count2$1$[ebp]

; 6736 :         } else { // try top half

  0017a	8b 75 08	 mov	 esi, DWORD PTR __First$[ebp]
  0017d	eb 14		 jmp	 SHORT $LN177@upper_boun
$LN4@upper_boun:

; 6737 :             _UFirst = _Next_iter(_UMid);

  0017f	8b 75 f4	 mov	 esi, DWORD PTR __UMid$1$[ebp]

; 6738 :             _Count -= _Count2 + 1;

  00182	83 c9 ff	 or	 ecx, -1
  00185	2b 4d f0	 sub	 ecx, DWORD PTR __Count2$1$[ebp]
  00188	83 c6 10	 add	 esi, 16			; 00000010H
  0018b	8b 5d 0c	 mov	 ebx, DWORD PTR __Last$[ebp]
  0018e	89 75 08	 mov	 DWORD PTR __First$[ebp], esi
  00191	03 d9		 add	 ebx, ecx
$LN177@upper_boun:

; 6731 :     while (0 < _Count) { // divide and conquer, find half that contains answer

  00193	8b 4d ec	 mov	 ecx, DWORD PTR __Val$1$[ebp]
  00196	89 5d 0c	 mov	 DWORD PTR __Last$[ebp], ebx
  00199	85 db		 test	 ebx, ebx
  0019b	0f 8f 93 fe ff
	ff		 jg	 $LL2@upper_boun

; 6739 :         }
; 6740 :     }
; 6741 : 
; 6742 :     _Seek_wrapped(_First, _UFirst);
; 6743 :     return _First;

  001a1	5f		 pop	 edi
$LN173@upper_boun:

; 6744 : }

  001a2	8b c6		 mov	 eax, esi
  001a4	5e		 pop	 esi
  001a5	5b		 pop	 ebx
  001a6	8b e5		 mov	 esp, ebp
  001a8	5d		 pop	 ebp
  001a9	c3		 ret	 0
??$upper_bound@PAUTPatchDrawStruct@CMapOutdoor@@U12@UFSortPatchDrawStructWithTerrainNum@2@@std@@YAPAUTPatchDrawStruct@CMapOutdoor@@PAU12@0ABU12@UFSortPatchDrawStructWithTerrainNum@2@@Z ENDP ; std::upper_bound<CMapOutdoor::TPatchDrawStruct *,CMapOutdoor::TPatchDrawStruct,CMapOutdoor::FSortPatchDrawStructWithTerrainNum>
_TEXT	ENDS
; Function compile flags: /Ogtp
; File C:\Program Files (x86)\Microsoft Visual Studio\2019\Community\VC\Tools\MSVC\14.28.29333\include\algorithm
;	COMDAT ??$_Buffered_inplace_merge_divide_and_conquer2@PAUTPatchDrawStruct@CMapOutdoor@@UFSortPatchDrawStructWithTerrainNum@2@@std@@YAXPAUTPatchDrawStruct@CMapOutdoor@@00HHQAU12@HUFSortPatchDrawStructWithTerrainNum@2@00HH@Z
_TEXT	SEGMENT
__First$ = 8						; size = 4
__Mid$ = 12						; size = 4
__Last$ = 16						; size = 4
__Count1$ = 20						; size = 4
__Count2$ = 24						; size = 4
__Temp_ptr$ = 28					; size = 4
__Capacity$ = 32					; size = 4
__Pred$ = 36						; size = 1
__Firstn$ = 40						; size = 4
__Lastn$ = 44						; size = 4
__Count1n$ = 48						; size = 4
__Count2n$ = 52						; size = 4
??$_Buffered_inplace_merge_divide_and_conquer2@PAUTPatchDrawStruct@CMapOutdoor@@UFSortPatchDrawStructWithTerrainNum@2@@std@@YAXPAUTPatchDrawStruct@CMapOutdoor@@00HHQAU12@HUFSortPatchDrawStructWithTerrainNum@2@00HH@Z PROC ; std::_Buffered_inplace_merge_divide_and_conquer2<CMapOutdoor::TPatchDrawStruct *,CMapOutdoor::FSortPatchDrawStructWithTerrainNum>, COMDAT

; 7245 :     _BidIt _Firstn, _BidIt _Lastn, _Iter_diff_t<_BidIt> _Count1n, _Iter_diff_t<_BidIt> _Count2n) {

  00000	55		 push	 ebp
  00001	8b ec		 mov	 ebp, esp

; 7246 :     // common block of _Buffered_inplace_merge_divide_and_conquer, below
; 7247 :     using _Diff  = _Iter_diff_t<_BidIt>;
; 7248 :     _BidIt _Midn = _Buffered_rotate_unchecked(_Firstn, _Mid, _Lastn, static_cast<_Diff>(_Count1 - _Count1n), _Count2n,

  00003	8b 45 14	 mov	 eax, DWORD PTR __Count1$[ebp]
  00006	2b 45 30	 sub	 eax, DWORD PTR __Count1n$[ebp]
  00009	53		 push	 ebx
  0000a	ff 75 20	 push	 DWORD PTR __Capacity$[ebp]
  0000d	89 45 14	 mov	 DWORD PTR __Count1$[ebp], eax
  00010	ff 75 1c	 push	 DWORD PTR __Temp_ptr$[ebp]
  00013	ff 75 34	 push	 DWORD PTR __Count2n$[ebp]
  00016	50		 push	 eax
  00017	ff 75 2c	 push	 DWORD PTR __Lastn$[ebp]
  0001a	ff 75 0c	 push	 DWORD PTR __Mid$[ebp]
  0001d	ff 75 28	 push	 DWORD PTR __Firstn$[ebp]
  00020	e8 00 00 00 00	 call	 ??$_Buffered_rotate_unchecked@PAUTPatchDrawStruct@CMapOutdoor@@@std@@YAPAUTPatchDrawStruct@CMapOutdoor@@QAU12@00HH0H@Z ; std::_Buffered_rotate_unchecked<CMapOutdoor::TPatchDrawStruct *>

; 7249 :         _Temp_ptr, _Capacity); // rearrange middle
; 7250 :     _Buffered_inplace_merge_unchecked(

  00025	ff 75 24	 push	 DWORD PTR __Pred$[ebp]
  00028	8b d8		 mov	 ebx, eax
  0002a	ff 75 20	 push	 DWORD PTR __Capacity$[ebp]
  0002d	ff 75 1c	 push	 DWORD PTR __Temp_ptr$[ebp]
  00030	ff 75 34	 push	 DWORD PTR __Count2n$[ebp]
  00033	ff 75 30	 push	 DWORD PTR __Count1n$[ebp]
  00036	53		 push	 ebx
  00037	ff 75 28	 push	 DWORD PTR __Firstn$[ebp]
  0003a	ff 75 08	 push	 DWORD PTR __First$[ebp]
  0003d	e8 00 00 00 00	 call	 ??$_Buffered_inplace_merge_unchecked@PAUTPatchDrawStruct@CMapOutdoor@@UFSortPatchDrawStructWithTerrainNum@2@@std@@YAXPAUTPatchDrawStruct@CMapOutdoor@@00HHQAU12@HUFSortPatchDrawStructWithTerrainNum@2@@Z ; std::_Buffered_inplace_merge_unchecked<CMapOutdoor::TPatchDrawStruct *,CMapOutdoor::FSortPatchDrawStructWithTerrainNum>

; 7251 :         _First, _Firstn, _Midn, _Count1n, _Count2n, _Temp_ptr, _Capacity, _Pred); // merge each new part
; 7252 :     _Buffered_inplace_merge_unchecked(_Midn, _Lastn, _Last, static_cast<_Diff>(_Count1 - _Count1n),

  00042	ff 75 24	 push	 DWORD PTR __Pred$[ebp]
  00045	8b 45 18	 mov	 eax, DWORD PTR __Count2$[ebp]
  00048	ff 75 20	 push	 DWORD PTR __Capacity$[ebp]
  0004b	2b 45 34	 sub	 eax, DWORD PTR __Count2n$[ebp]
  0004e	ff 75 1c	 push	 DWORD PTR __Temp_ptr$[ebp]
  00051	50		 push	 eax
  00052	ff 75 14	 push	 DWORD PTR __Count1$[ebp]
  00055	ff 75 10	 push	 DWORD PTR __Last$[ebp]
  00058	ff 75 2c	 push	 DWORD PTR __Lastn$[ebp]
  0005b	53		 push	 ebx
  0005c	e8 00 00 00 00	 call	 ??$_Buffered_inplace_merge_unchecked@PAUTPatchDrawStruct@CMapOutdoor@@UFSortPatchDrawStructWithTerrainNum@2@@std@@YAXPAUTPatchDrawStruct@CMapOutdoor@@00HHQAU12@HUFSortPatchDrawStructWithTerrainNum@2@@Z ; std::_Buffered_inplace_merge_unchecked<CMapOutdoor::TPatchDrawStruct *,CMapOutdoor::FSortPatchDrawStructWithTerrainNum>
  00061	83 c4 5c	 add	 esp, 92			; 0000005cH
  00064	5b		 pop	 ebx

; 7253 :         static_cast<_Diff>(_Count2 - _Count2n), _Temp_ptr, _Capacity, _Pred);
; 7254 : }

  00065	5d		 pop	 ebp
  00066	c3		 ret	 0
??$_Buffered_inplace_merge_divide_and_conquer2@PAUTPatchDrawStruct@CMapOutdoor@@UFSortPatchDrawStructWithTerrainNum@2@@std@@YAXPAUTPatchDrawStruct@CMapOutdoor@@00HHQAU12@HUFSortPatchDrawStructWithTerrainNum@2@00HH@Z ENDP ; std::_Buffered_inplace_merge_divide_and_conquer2<CMapOutdoor::TPatchDrawStruct *,CMapOutdoor::FSortPatchDrawStructWithTerrainNum>
_TEXT	ENDS
; Function compile flags: /Ogtp
; File C:\Program Files (x86)\Microsoft Visual Studio\2019\Community\VC\Tools\MSVC\14.28.29333\include\xutility
; File D:\Metin2 Server Files\mainline\SRC_2014\Metin2Client\GameLib\MapOutdoor.h
; File C:\Program Files (x86)\Microsoft Visual Studio\2019\Community\VC\Tools\MSVC\14.28.29333\include\xutility
; File D:\Metin2 Server Files\mainline\SRC_2014\Metin2Client\GameLib\MapOutdoor.h
; File C:\Program Files (x86)\Microsoft Visual Studio\2019\Community\VC\Tools\MSVC\14.28.29333\include\xutility
; File C:\Program Files (x86)\Windows Kits\10\Include\10.0.18362.0\ucrt\corecrt_memory.h
; File C:\Program Files (x86)\Microsoft Visual Studio\2019\Community\VC\Tools\MSVC\14.28.29333\include\xutility
; File C:\Program Files (x86)\Windows Kits\10\Include\10.0.18362.0\ucrt\corecrt_memory.h
; File C:\Program Files (x86)\Microsoft Visual Studio\2019\Community\VC\Tools\MSVC\14.28.29333\include\xutility
; File C:\Program Files (x86)\Microsoft Visual Studio\2019\Community\VC\Tools\MSVC\14.28.29333\include\vector
; File C:\Program Files (x86)\Microsoft Visual Studio\2019\Community\VC\Tools\MSVC\14.28.29333\include\xutility
; File C:\Program Files (x86)\Microsoft Visual Studio\2019\Community\VC\Tools\MSVC\14.28.29333\include\vector
; File C:\Program Files (x86)\Microsoft Visual Studio\2019\Community\VC\Tools\MSVC\14.28.29333\include\xutility
; File C:\Program Files (x86)\Windows Kits\10\Include\10.0.18362.0\ucrt\corecrt_memory.h
; File C:\Program Files (x86)\Microsoft Visual Studio\2019\Community\VC\Tools\MSVC\14.28.29333\include\xutility
; File C:\Program Files (x86)\Windows Kits\10\Include\10.0.18362.0\ucrt\corecrt_memory.h
; File C:\Program Files (x86)\Microsoft Visual Studio\2019\Community\VC\Tools\MSVC\14.28.29333\include\xutility
; File C:\Program Files (x86)\Microsoft Visual Studio\2019\Community\VC\Tools\MSVC\14.28.29333\include\vector
; File D:\Metin2 Server Files\mainline\SRC_2014\Metin2Client\GameLib\MapOutdoor.h
; File C:\Program Files (x86)\Microsoft Visual Studio\2019\Community\VC\Tools\MSVC\14.28.29333\include\xutility
; File C:\Program Files (x86)\Microsoft Visual Studio\2019\Community\VC\Tools\MSVC\14.28.29333\include\vector
; File C:\Program Files (x86)\Microsoft Visual Studio\2019\Community\VC\Tools\MSVC\14.28.29333\include\xutility
; File D:\Metin2 Server Files\mainline\SRC_2014\Metin2Client\GameLib\MapOutdoor.h
; File C:\Program Files (x86)\Microsoft Visual Studio\2019\Community\VC\Tools\MSVC\14.28.29333\include\vector
; File D:\Metin2 Server Files\mainline\SRC_2014\Metin2Client\GameLib\MapOutdoor.h
; File C:\Program Files (x86)\Microsoft Visual Studio\2019\Community\VC\Tools\MSVC\14.28.29333\include\vector
; File D:\Metin2 Server Files\mainline\SRC_2014\Metin2Client\GameLib\MapOutdoor.h
; File C:\Program Files (x86)\Microsoft Visual Studio\2019\Community\VC\Tools\MSVC\14.28.29333\include\vector
; File D:\Metin2 Server Files\mainline\SRC_2014\Metin2Client\GameLib\MapOutdoor.h
; File C:\Program Files (x86)\Microsoft Visual Studio\2019\Community\VC\Tools\MSVC\14.28.29333\include\xutility
; File C:\Program Files (x86)\Windows Kits\10\Include\10.0.18362.0\ucrt\corecrt_memory.h
; File C:\Program Files (x86)\Microsoft Visual Studio\2019\Community\VC\Tools\MSVC\14.28.29333\include\xutility
; File C:\Program Files (x86)\Windows Kits\10\Include\10.0.18362.0\ucrt\corecrt_memory.h
; File C:\Program Files (x86)\Microsoft Visual Studio\2019\Community\VC\Tools\MSVC\14.28.29333\include\xutility
; File C:\Program Files (x86)\Microsoft Visual Studio\2019\Community\VC\Tools\MSVC\14.28.29333\include\vector
; File D:\Metin2 Server Files\mainline\SRC_2014\Metin2Client\GameLib\MapOutdoor.h
; File C:\Program Files (x86)\Microsoft Visual Studio\2019\Community\VC\Tools\MSVC\14.28.29333\include\vector
; File D:\Metin2 Server Files\mainline\SRC_2014\Metin2Client\GameLib\MapOutdoor.h
; File C:\Program Files (x86)\Microsoft Visual Studio\2019\Community\VC\Tools\MSVC\14.28.29333\include\vector
; File D:\Metin2 Server Files\mainline\SRC_2014\Metin2Client\GameLib\MapOutdoor.h
; File C:\Program Files (x86)\Microsoft Visual Studio\2019\Community\VC\Tools\MSVC\14.28.29333\include\vector
; File D:\Metin2 Server Files\mainline\SRC_2014\Metin2Client\GameLib\MapOutdoor.h
; File C:\Program Files (x86)\Microsoft Visual Studio\2019\Community\VC\Tools\MSVC\14.28.29333\include\vector
; File D:\Metin2 Server Files\mainline\SRC_2014\Metin2Client\GameLib\MapOutdoor.h
; File C:\Program Files (x86)\Microsoft Visual Studio\2019\Community\VC\Tools\MSVC\14.28.29333\include\vector
; File D:\Metin2 Server Files\mainline\SRC_2014\Metin2Client\GameLib\MapOutdoor.h
; File C:\Program Files (x86)\Microsoft Visual Studio\2019\Community\VC\Tools\MSVC\14.28.29333\include\vector
; File D:\Metin2 Server Files\mainline\SRC_2014\Metin2Client\GameLib\MapOutdoor.h
; File C:\Program Files (x86)\Microsoft Visual Studio\2019\Community\VC\Tools\MSVC\14.28.29333\include\xutility
;	COMDAT ??$lower_bound@PAUTPatchDrawStruct@CMapOutdoor@@U12@UFSortPatchDrawStructWithTerrainNum@2@@std@@YAPAUTPatchDrawStruct@CMapOutdoor@@PAU12@QAU12@ABU12@UFSortPatchDrawStructWithTerrainNum@2@@Z
_TEXT	SEGMENT
__Count2$1$ = -20					; size = 4
__UMid$1$ = -16						; size = 4
__Val$1$ = -12						; size = 4
tv1027 = -8						; size = 4
_rhsTerrainNumOrder$1$ = -8				; size = 4
tv1029 = -1						; size = 1
tv1022 = -1						; size = 1
__First$ = 8						; size = 4
__Last$ = 12						; size = 4
__Val$ = 16						; size = 4
__Pred$ = 20						; size = 1
??$lower_bound@PAUTPatchDrawStruct@CMapOutdoor@@U12@UFSortPatchDrawStructWithTerrainNum@2@@std@@YAPAUTPatchDrawStruct@CMapOutdoor@@PAU12@QAU12@ABU12@UFSortPatchDrawStructWithTerrainNum@2@@Z PROC ; std::lower_bound<CMapOutdoor::TPatchDrawStruct *,CMapOutdoor::TPatchDrawStruct,CMapOutdoor::FSortPatchDrawStructWithTerrainNum>, COMDAT

; 5849 : _NODISCARD _CONSTEXPR20 _FwdIt lower_bound(_FwdIt _First, const _FwdIt _Last, const _Ty& _Val, _Pr _Pred) {

  00000	55		 push	 ebp
  00001	8b ec		 mov	 ebp, esp

; 1794 :         return _Last - _First; // assume the iterator will do debug checking

  00003	8b 55 0c	 mov	 edx, DWORD PTR __Last$[ebp]

; 5849 : _NODISCARD _CONSTEXPR20 _FwdIt lower_bound(_FwdIt _First, const _FwdIt _Last, const _Ty& _Val, _Pr _Pred) {

  00006	83 ec 14	 sub	 esp, 20			; 00000014H
  00009	53		 push	 ebx

; 1794 :         return _Last - _First; // assume the iterator will do debug checking

  0000a	8b 5d 08	 mov	 ebx, DWORD PTR __First$[ebp]
  0000d	2b d3		 sub	 edx, ebx
  0000f	c1 fa 04	 sar	 edx, 4
  00012	89 55 0c	 mov	 DWORD PTR __Last$[ebp], edx

; 5850 :     // find first element not before _Val
; 5851 :     _Adl_verify_range(_First, _Last);
; 5852 :     auto _UFirst                = _Get_unwrapped(_First);
; 5853 :     _Iter_diff_t<_FwdIt> _Count = _STD distance(_UFirst, _Get_unwrapped(_Last));
; 5854 : 
; 5855 :     while (0 < _Count) { // divide and conquer, find half that contains answer

  00015	85 d2		 test	 edx, edx
  00017	0f 8e 84 01 00
	00		 jle	 $LN173@lower_boun
  0001d	8b 45 10	 mov	 eax, DWORD PTR __Val$[ebp]
  00020	8b 0d 00 00 00
	00		 mov	 ecx, DWORD PTR ?m_TerrainNumVector@FSortPatchDrawStructWithTerrainNum@CMapOutdoor@@2V?$vector@EV?$allocator@E@std@@@std@@A
  00026	83 c0 04	 add	 eax, 4
  00029	56		 push	 esi
  0002a	57		 push	 edi
  0002b	8b 3d 04 00 00
	00		 mov	 edi, DWORD PTR ?m_TerrainNumVector@FSortPatchDrawStructWithTerrainNum@CMapOutdoor@@2V?$vector@EV?$allocator@E@std@@@std@@A+4
  00031	89 45 f4	 mov	 DWORD PTR __Val$1$[ebp], eax
$LL2@lower_boun:

; 5856 :         const _Iter_diff_t<_FwdIt> _Count2 = _Count / 2;

  00034	8b c2		 mov	 eax, edx

; 5480 :     _Seek_wrapped(_First, _Find_unchecked(_Get_unwrapped(_First), _Get_unwrapped(_Last), _Val));

  00036	89 7d f8	 mov	 DWORD PTR tv1027[ebp], edi

; 5856 :         const _Iter_diff_t<_FwdIt> _Count2 = _Count / 2;

  00039	d1 e8		 shr	 eax, 1
  0003b	89 45 ec	 mov	 DWORD PTR __Count2$1$[ebp], eax

; 1714 :         _Where += _Off;

  0003e	c1 e0 04	 shl	 eax, 4
  00041	03 c3		 add	 eax, ebx
; File D:\Metin2 Server Files\mainline\SRC_2014\Metin2Client\GameLib\MapOutdoor.h

; 360  : 				DWORD lhsTerrainNumOrder = 0, rhsTerrainNumOrder = 0;

  00043	33 db		 xor	 ebx, ebx
; File C:\Program Files (x86)\Microsoft Visual Studio\2019\Community\VC\Tools\MSVC\14.28.29333\include\xutility

; 1714 :         _Where += _Off;

  00045	89 45 f0	 mov	 DWORD PTR __UMid$1$[ebp], eax
; File D:\Metin2 Server Files\mainline\SRC_2014\Metin2Client\GameLib\MapOutdoor.h

; 364  : 				TTerrainNumVector::iterator lhsIterator = std::find(m_TerrainNumVector.begin(), m_TerrainNumVector.end(), lhs.byTerrainNum);

  00048	8d 50 04	 lea	 edx, DWORD PTR [eax+4]
; File C:\Program Files (x86)\Microsoft Visual Studio\2019\Community\VC\Tools\MSVC\14.28.29333\include\xutility

; 5461 :     _First =

  0004b	8b c7		 mov	 eax, edi
  0004d	2b c1		 sub	 eax, ecx
; File C:\Program Files (x86)\Windows Kits\10\Include\10.0.18362.0\ucrt\corecrt_memory.h

; 107  :         return const_cast<void*>(memchr(_Pvc, _C, _N));

  0004f	50		 push	 eax
; File C:\Program Files (x86)\Microsoft Visual Studio\2019\Community\VC\Tools\MSVC\14.28.29333\include\xutility

; 5461 :     _First =

  00050	0f b6 02	 movzx	 eax, BYTE PTR [edx]
; File C:\Program Files (x86)\Windows Kits\10\Include\10.0.18362.0\ucrt\corecrt_memory.h

; 107  :         return const_cast<void*>(memchr(_Pvc, _C, _N));

  00053	50		 push	 eax
  00054	51		 push	 ecx
  00055	e8 00 00 00 00	 call	 _memchr
; File C:\Program Files (x86)\Microsoft Visual Studio\2019\Community\VC\Tools\MSVC\14.28.29333\include\xutility

; 5463 :     return _First ? _First : _Last;

  0005a	85 c0		 test	 eax, eax
  0005c	8b cf		 mov	 ecx, edi
  0005e	0f 45 c8	 cmovne	 ecx, eax
; File C:\Program Files (x86)\Microsoft Visual Studio\2019\Community\VC\Tools\MSVC\14.28.29333\include\vector

; 195  :         _Ptr = _Refancy<_Tptr>(const_cast<value_type*>(_It));

  00061	51		 push	 ecx
  00062	e8 00 00 00 00	 call	 ??$_Refancy@PAE$0A@@std@@YAPAEPAE@Z ; std::_Refancy<unsigned char *,0>
; File C:\Program Files (x86)\Microsoft Visual Studio\2019\Community\VC\Tools\MSVC\14.28.29333\include\xutility

; 5461 :     _First =

  00067	8b 0d 00 00 00
	00		 mov	 ecx, DWORD PTR ?m_TerrainNumVector@FSortPatchDrawStructWithTerrainNum@CMapOutdoor@@2V?$vector@EV?$allocator@E@std@@@std@@A
; File C:\Program Files (x86)\Microsoft Visual Studio\2019\Community\VC\Tools\MSVC\14.28.29333\include\vector

; 195  :         _Ptr = _Refancy<_Tptr>(const_cast<value_type*>(_It));

  0006d	8b f0		 mov	 esi, eax
; File C:\Program Files (x86)\Microsoft Visual Studio\2019\Community\VC\Tools\MSVC\14.28.29333\include\xutility

; 5461 :     _First =

  0006f	8b 45 f4	 mov	 eax, DWORD PTR __Val$1$[ebp]
  00072	8a 10		 mov	 dl, BYTE PTR [eax]
  00074	8b c7		 mov	 eax, edi
  00076	2b c1		 sub	 eax, ecx
  00078	88 55 ff	 mov	 BYTE PTR tv1029[ebp], dl
; File C:\Program Files (x86)\Windows Kits\10\Include\10.0.18362.0\ucrt\corecrt_memory.h

; 107  :         return const_cast<void*>(memchr(_Pvc, _C, _N));

  0007b	50		 push	 eax
; File C:\Program Files (x86)\Microsoft Visual Studio\2019\Community\VC\Tools\MSVC\14.28.29333\include\xutility

; 5461 :     _First =

  0007c	0f b6 c2	 movzx	 eax, dl
; File C:\Program Files (x86)\Windows Kits\10\Include\10.0.18362.0\ucrt\corecrt_memory.h

; 107  :         return const_cast<void*>(memchr(_Pvc, _C, _N));

  0007f	50		 push	 eax
  00080	51		 push	 ecx
  00081	e8 00 00 00 00	 call	 _memchr
; File C:\Program Files (x86)\Microsoft Visual Studio\2019\Community\VC\Tools\MSVC\14.28.29333\include\xutility

; 5463 :     return _First ? _First : _Last;

  00086	85 c0		 test	 eax, eax
  00088	8b cf		 mov	 ecx, edi
  0008a	0f 45 c8	 cmovne	 ecx, eax
; File C:\Program Files (x86)\Microsoft Visual Studio\2019\Community\VC\Tools\MSVC\14.28.29333\include\vector

; 195  :         _Ptr = _Refancy<_Tptr>(const_cast<value_type*>(_It));

  0008d	51		 push	 ecx
  0008e	e8 00 00 00 00	 call	 ??$_Refancy@PAE$0A@@std@@YAPAEPAE@Z ; std::_Refancy<unsigned char *,0>
; File D:\Metin2 Server Files\mainline\SRC_2014\Metin2Client\GameLib\MapOutdoor.h

; 367  : 				if (lhsIterator != m_TerrainNumVector.end())

  00093	8b 0d 00 00 00
	00		 mov	 ecx, DWORD PTR ?m_TerrainNumVector@FSortPatchDrawStructWithTerrainNum@CMapOutdoor@@2V?$vector@EV?$allocator@E@std@@@std@@A
; File C:\Program Files (x86)\Microsoft Visual Studio\2019\Community\VC\Tools\MSVC\14.28.29333\include\xutility

; 5481 :     return _First;

  00099	8b d7		 mov	 edx, edi
; File C:\Program Files (x86)\Microsoft Visual Studio\2019\Community\VC\Tools\MSVC\14.28.29333\include\vector

; 195  :         _Ptr = _Refancy<_Tptr>(const_cast<value_type*>(_It));

  0009b	83 c4 20	 add	 esp, 32			; 00000020H
; File C:\Program Files (x86)\Microsoft Visual Studio\2019\Community\VC\Tools\MSVC\14.28.29333\include\xutility

; 5481 :     return _First;

  0009e	3b f2		 cmp	 esi, edx
; File D:\Metin2 Server Files\mainline\SRC_2014\Metin2Client\GameLib\MapOutdoor.h

; 367  : 				if (lhsIterator != m_TerrainNumVector.end())

  000a0	74 04		 je	 SHORT $LN14@lower_boun

; 368  : 				{
; 369  : 					blhsOrderFound = true;

  000a2	8b de		 mov	 ebx, esi
  000a4	2b d9		 sub	 ebx, ecx
$LN14@lower_boun:
; File C:\Program Files (x86)\Microsoft Visual Studio\2019\Community\VC\Tools\MSVC\14.28.29333\include\vector

; 149  :         return _Ptr == _Right._Ptr;

  000a6	3b c2		 cmp	 eax, edx
; File D:\Metin2 Server Files\mainline\SRC_2014\Metin2Client\GameLib\MapOutdoor.h

; 372  : 				if (rhsIterator != m_TerrainNumVector.end())

  000a8	74 04		 je	 SHORT $LN171@lower_boun
; File C:\Program Files (x86)\Microsoft Visual Studio\2019\Community\VC\Tools\MSVC\14.28.29333\include\vector

; 140  :         return _Ptr - _Right._Ptr;

  000aa	2b c1		 sub	 eax, ecx
; File D:\Metin2 Server Files\mainline\SRC_2014\Metin2Client\GameLib\MapOutdoor.h

; 377  : 				if (!brhsOrderFound)

  000ac	eb 3e		 jmp	 SHORT $LN176@lower_boun
$LN171@lower_boun:
; File C:\Program Files (x86)\Microsoft Visual Studio\2019\Community\VC\Tools\MSVC\14.28.29333\include\vector

; 704  :         if (_Mylast != _My_data._Myend) {

  000ae	3b 15 08 00 00
	00		 cmp	 edx, DWORD PTR ?m_TerrainNumVector@FSortPatchDrawStructWithTerrainNum@CMapOutdoor@@2V?$vector@EV?$allocator@E@std@@@std@@A+8
  000b4	74 14		 je	 SHORT $LN110@lower_boun

; 687  :         _Alty_traits::construct(_Getal(), _Unfancy(_Mylast), _STD forward<_Valty>(_Val)...);

  000b6	8a 45 ff	 mov	 al, BYTE PTR tv1029[ebp]
  000b9	88 02		 mov	 BYTE PTR [edx], al

; 690  :         ++_Mylast;

  000bb	8b 3d 04 00 00
	00		 mov	 edi, DWORD PTR ?m_TerrainNumVector@FSortPatchDrawStructWithTerrainNum@CMapOutdoor@@2V?$vector@EV?$allocator@E@std@@@std@@A+4
  000c1	47		 inc	 edi
  000c2	89 3d 04 00 00
	00		 mov	 DWORD PTR ?m_TerrainNumVector@FSortPatchDrawStructWithTerrainNum@CMapOutdoor@@2V?$vector@EV?$allocator@E@std@@@std@@A+4, edi

; 705  :             return _Emplace_back_with_unused_capacity(_STD forward<_Valty>(_Val)...);

  000c8	eb 17		 jmp	 SHORT $LN109@lower_boun
$LN110@lower_boun:

; 708  :         _Ty& _Result = *_Emplace_reallocate(_Mylast, _STD forward<_Valty>(_Val)...);

  000ca	ff 75 f4	 push	 DWORD PTR __Val$1$[ebp]
  000cd	b9 00 00 00 00	 mov	 ecx, OFFSET ?m_TerrainNumVector@FSortPatchDrawStructWithTerrainNum@CMapOutdoor@@2V?$vector@EV?$allocator@E@std@@@std@@A ; CMapOutdoor::FSortPatchDrawStructWithTerrainNum::m_TerrainNumVector
  000d2	52		 push	 edx
  000d3	e8 00 00 00 00	 call	 ??$_Emplace_reallocate@ABE@?$vector@EV?$allocator@E@std@@@std@@QAEPAEQAEABE@Z ; std::vector<unsigned char,std::allocator<unsigned char> >::_Emplace_reallocate<unsigned char const &>
  000d8	8b 3d 04 00 00
	00		 mov	 edi, DWORD PTR ?m_TerrainNumVector@FSortPatchDrawStructWithTerrainNum@CMapOutdoor@@2V?$vector@EV?$allocator@E@std@@@std@@A+4
  000de	8b 55 f8	 mov	 edx, DWORD PTR tv1027[ebp]
$LN109@lower_boun:
; File D:\Metin2 Server Files\mainline\SRC_2014\Metin2Client\GameLib\MapOutdoor.h

; 380  : 					rhsTerrainNumOrder = m_TerrainNumVector.size() -1;

  000e1	8b 0d 00 00 00
	00		 mov	 ecx, DWORD PTR ?m_TerrainNumVector@FSortPatchDrawStructWithTerrainNum@CMapOutdoor@@2V?$vector@EV?$allocator@E@std@@@std@@A
  000e7	8b c7		 mov	 eax, edi
  000e9	2b c1		 sub	 eax, ecx
  000eb	48		 dec	 eax
$LN176@lower_boun:

; 381  : 				}
; 382  : 				if (!blhsOrderFound)

  000ec	89 45 f8	 mov	 DWORD PTR _rhsTerrainNumOrder$1$[ebp], eax
  000ef	3b f2		 cmp	 esi, edx
  000f1	75 7a		 jne	 SHORT $LN174@lower_boun
; File C:\Program Files (x86)\Microsoft Visual Studio\2019\Community\VC\Tools\MSVC\14.28.29333\include\xutility

; 5461 :     _First =

  000f3	8b 75 f0	 mov	 esi, DWORD PTR __UMid$1$[ebp]
  000f6	8b c7		 mov	 eax, edi
  000f8	83 c6 04	 add	 esi, 4
  000fb	2b c1		 sub	 eax, ecx
; File C:\Program Files (x86)\Windows Kits\10\Include\10.0.18362.0\ucrt\corecrt_memory.h

; 107  :         return const_cast<void*>(memchr(_Pvc, _C, _N));

  000fd	50		 push	 eax
; File C:\Program Files (x86)\Microsoft Visual Studio\2019\Community\VC\Tools\MSVC\14.28.29333\include\xutility

; 5461 :     _First =

  000fe	0f b6 06	 movzx	 eax, BYTE PTR [esi]
; File C:\Program Files (x86)\Windows Kits\10\Include\10.0.18362.0\ucrt\corecrt_memory.h

; 107  :         return const_cast<void*>(memchr(_Pvc, _C, _N));

  00101	50		 push	 eax
  00102	51		 push	 ecx
  00103	e8 00 00 00 00	 call	 _memchr
; File C:\Program Files (x86)\Microsoft Visual Studio\2019\Community\VC\Tools\MSVC\14.28.29333\include\xutility

; 5463 :     return _First ? _First : _Last;

  00108	85 c0		 test	 eax, eax
  0010a	8b cf		 mov	 ecx, edi
  0010c	0f 45 c8	 cmovne	 ecx, eax
; File C:\Program Files (x86)\Microsoft Visual Studio\2019\Community\VC\Tools\MSVC\14.28.29333\include\vector

; 195  :         _Ptr = _Refancy<_Tptr>(const_cast<value_type*>(_It));

  0010f	51		 push	 ecx
  00110	e8 00 00 00 00	 call	 ??$_Refancy@PAE$0A@@std@@YAPAEPAE@Z ; std::_Refancy<unsigned char *,0>
; File D:\Metin2 Server Files\mainline\SRC_2014\Metin2Client\GameLib\MapOutdoor.h

; 384  : 					lhsIterator = std::find(m_TerrainNumVector.begin(), m_TerrainNumVector.end(), lhs.byTerrainNum);

  00115	8b d8		 mov	 ebx, eax
; File C:\Program Files (x86)\Microsoft Visual Studio\2019\Community\VC\Tools\MSVC\14.28.29333\include\vector

; 195  :         _Ptr = _Refancy<_Tptr>(const_cast<value_type*>(_It));

  00117	83 c4 10	 add	 esp, 16			; 00000010H
; File D:\Metin2 Server Files\mainline\SRC_2014\Metin2Client\GameLib\MapOutdoor.h

; 384  : 					lhsIterator = std::find(m_TerrainNumVector.begin(), m_TerrainNumVector.end(), lhs.byTerrainNum);

  0011a	3b df		 cmp	 ebx, edi

; 385  : 					if (lhsIterator != m_TerrainNumVector.end())

  0011c	74 0a		 je	 SHORT $LN172@lower_boun
; File C:\Program Files (x86)\Microsoft Visual Studio\2019\Community\VC\Tools\MSVC\14.28.29333\include\vector

; 140  :         return _Ptr - _Right._Ptr;

  0011e	8b 0d 00 00 00
	00		 mov	 ecx, DWORD PTR ?m_TerrainNumVector@FSortPatchDrawStructWithTerrainNum@CMapOutdoor@@2V?$vector@EV?$allocator@E@std@@@std@@A
  00124	2b d9		 sub	 ebx, ecx
; File D:\Metin2 Server Files\mainline\SRC_2014\Metin2Client\GameLib\MapOutdoor.h

; 390  : 					if (!blhsOrderFound)

  00126	eb 4b		 jmp	 SHORT $LN19@lower_boun
$LN172@lower_boun:
; File C:\Program Files (x86)\Microsoft Visual Studio\2019\Community\VC\Tools\MSVC\14.28.29333\include\vector

; 704  :         if (_Mylast != _My_data._Myend) {

  00128	3b 3d 08 00 00
	00		 cmp	 edi, DWORD PTR ?m_TerrainNumVector@FSortPatchDrawStructWithTerrainNum@CMapOutdoor@@2V?$vector@EV?$allocator@E@std@@@std@@A+8
  0012e	74 1e		 je	 SHORT $LN162@lower_boun

; 687  :         _Alty_traits::construct(_Getal(), _Unfancy(_Mylast), _STD forward<_Valty>(_Val)...);

  00130	8a 06		 mov	 al, BYTE PTR [esi]
  00132	88 07		 mov	 BYTE PTR [edi], al

; 690  :         ++_Mylast;

  00134	8b 3d 04 00 00
	00		 mov	 edi, DWORD PTR ?m_TerrainNumVector@FSortPatchDrawStructWithTerrainNum@CMapOutdoor@@2V?$vector@EV?$allocator@E@std@@@std@@A+4
; File D:\Metin2 Server Files\mainline\SRC_2014\Metin2Client\GameLib\MapOutdoor.h

; 393  : 						lhsTerrainNumOrder = m_TerrainNumVector.size() -1;

  0013a	8b 0d 00 00 00
	00		 mov	 ecx, DWORD PTR ?m_TerrainNumVector@FSortPatchDrawStructWithTerrainNum@CMapOutdoor@@2V?$vector@EV?$allocator@E@std@@@std@@A
; File C:\Program Files (x86)\Microsoft Visual Studio\2019\Community\VC\Tools\MSVC\14.28.29333\include\vector

; 690  :         ++_Mylast;

  00140	47		 inc	 edi
; File D:\Metin2 Server Files\mainline\SRC_2014\Metin2Client\GameLib\MapOutdoor.h

; 393  : 						lhsTerrainNumOrder = m_TerrainNumVector.size() -1;

  00141	8b df		 mov	 ebx, edi
; File C:\Program Files (x86)\Microsoft Visual Studio\2019\Community\VC\Tools\MSVC\14.28.29333\include\vector

; 690  :         ++_Mylast;

  00143	89 3d 04 00 00
	00		 mov	 DWORD PTR ?m_TerrainNumVector@FSortPatchDrawStructWithTerrainNum@CMapOutdoor@@2V?$vector@EV?$allocator@E@std@@@std@@A+4, edi
; File D:\Metin2 Server Files\mainline\SRC_2014\Metin2Client\GameLib\MapOutdoor.h

; 393  : 						lhsTerrainNumOrder = m_TerrainNumVector.size() -1;

  00149	2b d9		 sub	 ebx, ecx
  0014b	4b		 dec	 ebx
  0014c	eb 25		 jmp	 SHORT $LN19@lower_boun
$LN162@lower_boun:
; File C:\Program Files (x86)\Microsoft Visual Studio\2019\Community\VC\Tools\MSVC\14.28.29333\include\vector

; 708  :         _Ty& _Result = *_Emplace_reallocate(_Mylast, _STD forward<_Valty>(_Val)...);

  0014e	56		 push	 esi
  0014f	57		 push	 edi
  00150	b9 00 00 00 00	 mov	 ecx, OFFSET ?m_TerrainNumVector@FSortPatchDrawStructWithTerrainNum@CMapOutdoor@@2V?$vector@EV?$allocator@E@std@@@std@@A ; CMapOutdoor::FSortPatchDrawStructWithTerrainNum::m_TerrainNumVector
  00155	e8 00 00 00 00	 call	 ??$_Emplace_reallocate@ABE@?$vector@EV?$allocator@E@std@@@std@@QAEPAEQAEABE@Z ; std::vector<unsigned char,std::allocator<unsigned char> >::_Emplace_reallocate<unsigned char const &>
  0015a	8b 3d 04 00 00
	00		 mov	 edi, DWORD PTR ?m_TerrainNumVector@FSortPatchDrawStructWithTerrainNum@CMapOutdoor@@2V?$vector@EV?$allocator@E@std@@@std@@A+4
; File D:\Metin2 Server Files\mainline\SRC_2014\Metin2Client\GameLib\MapOutdoor.h

; 393  : 						lhsTerrainNumOrder = m_TerrainNumVector.size() -1;

  00160	8b df		 mov	 ebx, edi
  00162	8b 0d 00 00 00
	00		 mov	 ecx, DWORD PTR ?m_TerrainNumVector@FSortPatchDrawStructWithTerrainNum@CMapOutdoor@@2V?$vector@EV?$allocator@E@std@@@std@@A
  00168	2b d9		 sub	 ebx, ecx
  0016a	4b		 dec	 ebx
  0016b	eb 06		 jmp	 SHORT $LN19@lower_boun
$LN174@lower_boun:

; 381  : 				}
; 382  : 				if (!blhsOrderFound)

  0016d	8b 0d 00 00 00
	00		 mov	 ecx, DWORD PTR ?m_TerrainNumVector@FSortPatchDrawStructWithTerrainNum@CMapOutdoor@@2V?$vector@EV?$allocator@E@std@@@std@@A
$LN19@lower_boun:

; 394  : 					}
; 395  : 				}
; 396  : 
; 397  : 				return lhsTerrainNumOrder < rhsTerrainNumOrder;

  00173	3b 5d f8	 cmp	 ebx, DWORD PTR _rhsTerrainNumOrder$1$[ebp]
; File C:\Program Files (x86)\Microsoft Visual Studio\2019\Community\VC\Tools\MSVC\14.28.29333\include\xutility

; 5858 :         if (_Pred(*_UMid, _Val)) { // try top half

  00176	73 16		 jae	 SHORT $LN4@lower_boun

; 5859 :             _UFirst = _Next_iter(_UMid);

  00178	8b 5d f0	 mov	 ebx, DWORD PTR __UMid$1$[ebp]

; 5860 :             _Count -= _Count2 + 1;

  0017b	83 c8 ff	 or	 eax, -1
  0017e	2b 45 ec	 sub	 eax, DWORD PTR __Count2$1$[ebp]
  00181	83 c3 10	 add	 ebx, 16			; 00000010H
  00184	8b 55 0c	 mov	 edx, DWORD PTR __Last$[ebp]
  00187	89 5d 08	 mov	 DWORD PTR __First$[ebp], ebx
  0018a	03 d0		 add	 edx, eax

; 5861 :         } else {

  0018c	eb 06		 jmp	 SHORT $LN177@lower_boun
$LN4@lower_boun:

; 5862 :             _Count = _Count2;

  0018e	8b 55 ec	 mov	 edx, DWORD PTR __Count2$1$[ebp]
  00191	8b 5d 08	 mov	 ebx, DWORD PTR __First$[ebp]
$LN177@lower_boun:

; 5850 :     // find first element not before _Val
; 5851 :     _Adl_verify_range(_First, _Last);
; 5852 :     auto _UFirst                = _Get_unwrapped(_First);
; 5853 :     _Iter_diff_t<_FwdIt> _Count = _STD distance(_UFirst, _Get_unwrapped(_Last));
; 5854 : 
; 5855 :     while (0 < _Count) { // divide and conquer, find half that contains answer

  00194	89 55 0c	 mov	 DWORD PTR __Last$[ebp], edx
  00197	85 d2		 test	 edx, edx
  00199	0f 8f 95 fe ff
	ff		 jg	 $LL2@lower_boun

; 5863 :         }
; 5864 :     }
; 5865 : 
; 5866 :     _Seek_wrapped(_First, _UFirst);
; 5867 :     return _First;

  0019f	5f		 pop	 edi
  001a0	5e		 pop	 esi
$LN173@lower_boun:

; 5868 : }

  001a1	8b c3		 mov	 eax, ebx
  001a3	5b		 pop	 ebx
  001a4	8b e5		 mov	 esp, ebp
  001a6	5d		 pop	 ebp
  001a7	c3		 ret	 0
??$lower_bound@PAUTPatchDrawStruct@CMapOutdoor@@U12@UFSortPatchDrawStructWithTerrainNum@2@@std@@YAPAUTPatchDrawStruct@CMapOutdoor@@PAU12@QAU12@ABU12@UFSortPatchDrawStructWithTerrainNum@2@@Z ENDP ; std::lower_bound<CMapOutdoor::TPatchDrawStruct *,CMapOutdoor::TPatchDrawStruct,CMapOutdoor::FSortPatchDrawStructWithTerrainNum>
_TEXT	ENDS
; Function compile flags: /Ogtp
; File C:\Program Files (x86)\Microsoft Visual Studio\2019\Community\VC\Tools\MSVC\14.28.29333\include\algorithm
; File C:\Program Files (x86)\Microsoft Visual Studio\2019\Community\VC\Tools\MSVC\14.28.29333\include\utility
; File C:\Program Files (x86)\Microsoft Visual Studio\2019\Community\VC\Tools\MSVC\14.28.29333\include\algorithm
; File C:\Program Files (x86)\Microsoft Visual Studio\2019\Community\VC\Tools\MSVC\14.28.29333\include\utility
; File C:\Program Files (x86)\Microsoft Visual Studio\2019\Community\VC\Tools\MSVC\14.28.29333\include\algorithm
; File C:\Program Files (x86)\Microsoft Visual Studio\2019\Community\VC\Tools\MSVC\14.28.29333\include\utility
; File C:\Program Files (x86)\Microsoft Visual Studio\2019\Community\VC\Tools\MSVC\14.28.29333\include\algorithm
;	COMDAT ??$_Med3_unchecked@PAU?$pair@MJ@std@@U?$less@X@2@@std@@YAXPAU?$pair@MJ@0@00U?$less@X@0@@Z
_TEXT	SEGMENT
__First$ = 8						; size = 4
__Mid$ = 12						; size = 4
__Last$ = 16						; size = 4
__Pred$ = 20						; size = 1
??$_Med3_unchecked@PAU?$pair@MJ@std@@U?$less@X@2@@std@@YAXPAU?$pair@MJ@0@00U?$less@X@0@@Z PROC ; std::_Med3_unchecked<std::pair<float,long> *,std::less<void> >, COMDAT

; 7434 : _CONSTEXPR20 void _Med3_unchecked(_RanIt _First, _RanIt _Mid, _RanIt _Last, _Pr _Pred) {

  00000	55		 push	 ebp
  00001	8b ec		 mov	 ebp, esp
; File C:\Program Files (x86)\Microsoft Visual Studio\2019\Community\VC\Tools\MSVC\14.28.29333\include\utility

; 352  :     return _Left.first < _Right.first || (!(_Right.first < _Left.first) && _Left.second < _Right.second);

  00003	8b 55 0c	 mov	 edx, DWORD PTR __Mid$[ebp]
; File C:\Program Files (x86)\Microsoft Visual Studio\2019\Community\VC\Tools\MSVC\14.28.29333\include\algorithm

; 7434 : _CONSTEXPR20 void _Med3_unchecked(_RanIt _First, _RanIt _Mid, _RanIt _Last, _Pr _Pred) {

  00006	56		 push	 esi
; File C:\Program Files (x86)\Microsoft Visual Studio\2019\Community\VC\Tools\MSVC\14.28.29333\include\utility

; 352  :     return _Left.first < _Right.first || (!(_Right.first < _Left.first) && _Left.second < _Right.second);

  00007	8b 75 08	 mov	 esi, DWORD PTR __First$[ebp]
; File C:\Program Files (x86)\Microsoft Visual Studio\2019\Community\VC\Tools\MSVC\14.28.29333\include\algorithm

; 7434 : _CONSTEXPR20 void _Med3_unchecked(_RanIt _First, _RanIt _Mid, _RanIt _Last, _Pr _Pred) {

  0000a	57		 push	 edi
; File C:\Program Files (x86)\Microsoft Visual Studio\2019\Community\VC\Tools\MSVC\14.28.29333\include\utility

; 352  :     return _Left.first < _Right.first || (!(_Right.first < _Left.first) && _Left.second < _Right.second);

  0000b	f3 0f 10 02	 movss	 xmm0, DWORD PTR [edx]
  0000f	f3 0f 10 0e	 movss	 xmm1, DWORD PTR [esi]
  00013	0f 2f c8	 comiss	 xmm1, xmm0
  00016	77 0d		 ja	 SHORT $LN81@Med3_unche
  00018	0f 2f c1	 comiss	 xmm0, xmm1
  0001b	77 24		 ja	 SHORT $LN27@Med3_unche
  0001d	8b 42 04	 mov	 eax, DWORD PTR [edx+4]
  00020	3b 46 04	 cmp	 eax, DWORD PTR [esi+4]
  00023	7d 1c		 jge	 SHORT $LN27@Med3_unche
$LN81@Med3_unche:

; 320  :         if (this != _STD addressof(_Right)) {

  00025	3b d6		 cmp	 edx, esi
  00027	74 18		 je	 SHORT $LN27@Med3_unche

; 105  :     _Left    = _STD move(_Right);

  00029	f3 0f 11 0a	 movss	 DWORD PTR [edx], xmm1
  0002d	8b 46 04	 mov	 eax, DWORD PTR [esi+4]

; 106  :     _Right   = _STD move(_Tmp);

  00030	f3 0f 11 06	 movss	 DWORD PTR [esi], xmm0

; 104  :     _Ty _Tmp = _STD move(_Left);

  00034	8b 4a 04	 mov	 ecx, DWORD PTR [edx+4]

; 105  :     _Left    = _STD move(_Right);

  00037	89 42 04	 mov	 DWORD PTR [edx+4], eax

; 106  :     _Right   = _STD move(_Tmp);

  0003a	89 4e 04	 mov	 DWORD PTR [esi+4], ecx
  0003d	f3 0f 10 02	 movss	 xmm0, DWORD PTR [edx]
$LN27@Med3_unche:

; 352  :     return _Left.first < _Right.first || (!(_Right.first < _Left.first) && _Left.second < _Right.second);

  00041	8b 7d 10	 mov	 edi, DWORD PTR __Last$[ebp]
  00044	f3 0f 10 0f	 movss	 xmm1, DWORD PTR [edi]
  00048	0f 2f c1	 comiss	 xmm0, xmm1
  0004b	77 0d		 ja	 SHORT $LN83@Med3_unche
  0004d	0f 2f c8	 comiss	 xmm1, xmm0
  00050	77 52		 ja	 SHORT $LN71@Med3_unche
  00052	8b 47 04	 mov	 eax, DWORD PTR [edi+4]
  00055	3b 42 04	 cmp	 eax, DWORD PTR [edx+4]
  00058	7d 4a		 jge	 SHORT $LN71@Med3_unche
$LN83@Med3_unche:

; 320  :         if (this != _STD addressof(_Right)) {

  0005a	3b fa		 cmp	 edi, edx
  0005c	74 18		 je	 SHORT $LN84@Med3_unche

; 105  :     _Left    = _STD move(_Right);

  0005e	f3 0f 11 07	 movss	 DWORD PTR [edi], xmm0
  00062	8b 42 04	 mov	 eax, DWORD PTR [edx+4]

; 106  :     _Right   = _STD move(_Tmp);

  00065	f3 0f 11 0a	 movss	 DWORD PTR [edx], xmm1

; 104  :     _Ty _Tmp = _STD move(_Left);

  00069	8b 4f 04	 mov	 ecx, DWORD PTR [edi+4]

; 105  :     _Left    = _STD move(_Right);

  0006c	89 47 04	 mov	 DWORD PTR [edi+4], eax

; 106  :     _Right   = _STD move(_Tmp);

  0006f	89 4a 04	 mov	 DWORD PTR [edx+4], ecx
  00072	f3 0f 10 02	 movss	 xmm0, DWORD PTR [edx]
$LN84@Med3_unche:

; 352  :     return _Left.first < _Right.first || (!(_Right.first < _Left.first) && _Left.second < _Right.second);

  00076	f3 0f 10 0e	 movss	 xmm1, DWORD PTR [esi]
  0007a	0f 2f c8	 comiss	 xmm1, xmm0
  0007d	77 0d		 ja	 SHORT $LN85@Med3_unche
  0007f	0f 2f c1	 comiss	 xmm0, xmm1
  00082	77 20		 ja	 SHORT $LN71@Med3_unche
  00084	8b 42 04	 mov	 eax, DWORD PTR [edx+4]
  00087	3b 46 04	 cmp	 eax, DWORD PTR [esi+4]
  0008a	7d 18		 jge	 SHORT $LN71@Med3_unche
$LN85@Med3_unche:

; 320  :         if (this != _STD addressof(_Right)) {

  0008c	3b d6		 cmp	 edx, esi
  0008e	74 14		 je	 SHORT $LN71@Med3_unche

; 105  :     _Left    = _STD move(_Right);

  00090	f3 0f 11 0a	 movss	 DWORD PTR [edx], xmm1
  00094	8b 46 04	 mov	 eax, DWORD PTR [esi+4]

; 106  :     _Right   = _STD move(_Tmp);

  00097	f3 0f 11 06	 movss	 DWORD PTR [esi], xmm0

; 104  :     _Ty _Tmp = _STD move(_Left);

  0009b	8b 4a 04	 mov	 ecx, DWORD PTR [edx+4]

; 105  :     _Left    = _STD move(_Right);

  0009e	89 42 04	 mov	 DWORD PTR [edx+4], eax

; 106  :     _Right   = _STD move(_Tmp);

  000a1	89 4e 04	 mov	 DWORD PTR [esi+4], ecx
$LN71@Med3_unche:
  000a4	5f		 pop	 edi
; File C:\Program Files (x86)\Microsoft Visual Studio\2019\Community\VC\Tools\MSVC\14.28.29333\include\algorithm

; 7447 : }

  000a5	5e		 pop	 esi
  000a6	5d		 pop	 ebp
  000a7	c3		 ret	 0
??$_Med3_unchecked@PAU?$pair@MJ@std@@U?$less@X@2@@std@@YAXPAU?$pair@MJ@0@00U?$less@X@0@@Z ENDP ; std::_Med3_unchecked<std::pair<float,long> *,std::less<void> >
_TEXT	ENDS
; Function compile flags: /Ogtp
; File C:\Program Files (x86)\Microsoft Visual Studio\2019\Community\VC\Tools\MSVC\14.28.29333\include\algorithm
; File C:\Program Files (x86)\Microsoft Visual Studio\2019\Community\VC\Tools\MSVC\14.28.29333\include\xutility
; File C:\Program Files (x86)\Microsoft Visual Studio\2019\Community\VC\Tools\MSVC\14.28.29333\include\algorithm
; File C:\Program Files (x86)\Microsoft Visual Studio\2019\Community\VC\Tools\MSVC\14.28.29333\include\xutility
; File C:\Program Files (x86)\Microsoft Visual Studio\2019\Community\VC\Tools\MSVC\14.28.29333\include\algorithm
; File C:\Program Files (x86)\Microsoft Visual Studio\2019\Community\VC\Tools\MSVC\14.28.29333\include\xutility
; File C:\Program Files (x86)\Microsoft Visual Studio\2019\Community\VC\Tools\MSVC\14.28.29333\include\algorithm
; File C:\Program Files (x86)\Microsoft Visual Studio\2019\Community\VC\Tools\MSVC\14.28.29333\include\xutility
; File C:\Program Files (x86)\Microsoft Visual Studio\2019\Community\VC\Tools\MSVC\14.28.29333\include\algorithm
; File C:\Program Files (x86)\Microsoft Visual Studio\2019\Community\VC\Tools\MSVC\14.28.29333\include\xutility
; File C:\Program Files (x86)\Microsoft Visual Studio\2019\Community\VC\Tools\MSVC\14.28.29333\include\algorithm
;	COMDAT ??$_Buffered_inplace_merge_divide_and_conquer@PAUTPatchDrawStruct@CMapOutdoor@@UFSortPatchDrawStructWithTerrainNum@2@@std@@YAXPAUTPatchDrawStruct@CMapOutdoor@@00HHQAU12@HUFSortPatchDrawStructWithTerrainNum@2@@Z
_TEXT	SEGMENT
__First$ = 8						; size = 4
__Mid$ = 12						; size = 4
__Last$ = 16						; size = 4
__Count1$ = 20						; size = 4
__Count2$ = 24						; size = 4
__Temp_ptr$ = 28					; size = 4
__Capacity$ = 32					; size = 4
__Pred$ = 36						; size = 1
??$_Buffered_inplace_merge_divide_and_conquer@PAUTPatchDrawStruct@CMapOutdoor@@UFSortPatchDrawStructWithTerrainNum@2@@std@@YAXPAUTPatchDrawStruct@CMapOutdoor@@00HHQAU12@HUFSortPatchDrawStructWithTerrainNum@2@@Z PROC ; std::_Buffered_inplace_merge_divide_and_conquer<CMapOutdoor::TPatchDrawStruct *,CMapOutdoor::FSortPatchDrawStructWithTerrainNum>, COMDAT

; 7258 :     _Iter_diff_t<_BidIt> _Count2, _Iter_value_t<_BidIt>* const _Temp_ptr, const ptrdiff_t _Capacity, _Pr _Pred) {

  00000	55		 push	 ebp
  00001	8b ec		 mov	 ebp, esp

; 7259 :     // merge sorted [_First, _Mid) with sorted [_Mid, _Last)
; 7260 :     // usual invariants apply
; 7261 :     using _Diff = _Iter_diff_t<_BidIt>;
; 7262 :     if (_Count1 <= _Count2) {

  00003	8b 45 14	 mov	 eax, DWORD PTR __Count1$[ebp]
  00006	8b 4d 18	 mov	 ecx, DWORD PTR __Count2$[ebp]
  00009	53		 push	 ebx
  0000a	56		 push	 esi
  0000b	57		 push	 edi
  0000c	ff 75 24	 push	 DWORD PTR __Pred$[ebp]
  0000f	3b c1		 cmp	 eax, ecx
  00011	7f 49		 jg	 SHORT $LN2@Buffered_i

; 7265 :         const _BidIt _Lastn  = _STD lower_bound(_Mid, _Last, *_Firstn, _Pred);

  00013	8b 7d 0c	 mov	 edi, DWORD PTR __Mid$[ebp]
  00016	8b d8		 mov	 ebx, eax
  00018	d1 fb		 sar	 ebx, 1
; File C:\Program Files (x86)\Microsoft Visual Studio\2019\Community\VC\Tools\MSVC\14.28.29333\include\xutility

; 1714 :         _Where += _Off;

  0001a	8b f3		 mov	 esi, ebx
  0001c	c1 e6 04	 shl	 esi, 4
  0001f	03 75 08	 add	 esi, DWORD PTR __First$[ebp]
; File C:\Program Files (x86)\Microsoft Visual Studio\2019\Community\VC\Tools\MSVC\14.28.29333\include\algorithm

; 7265 :         const _BidIt _Lastn  = _STD lower_bound(_Mid, _Last, *_Firstn, _Pred);

  00022	56		 push	 esi
  00023	ff 75 10	 push	 DWORD PTR __Last$[ebp]
  00026	57		 push	 edi
  00027	e8 00 00 00 00	 call	 ??$lower_bound@PAUTPatchDrawStruct@CMapOutdoor@@U12@UFSortPatchDrawStructWithTerrainNum@2@@std@@YAPAUTPatchDrawStruct@CMapOutdoor@@PAU12@QAU12@ABU12@UFSortPatchDrawStructWithTerrainNum@2@@Z ; std::lower_bound<CMapOutdoor::TPatchDrawStruct *,CMapOutdoor::TPatchDrawStruct,CMapOutdoor::FSortPatchDrawStructWithTerrainNum>
; File C:\Program Files (x86)\Microsoft Visual Studio\2019\Community\VC\Tools\MSVC\14.28.29333\include\xutility

; 1794 :         return _Last - _First; // assume the iterator will do debug checking

  0002c	8b c8		 mov	 ecx, eax
  0002e	2b cf		 sub	 ecx, edi
  00030	c1 f9 04	 sar	 ecx, 4
; File C:\Program Files (x86)\Microsoft Visual Studio\2019\Community\VC\Tools\MSVC\14.28.29333\include\algorithm

; 7266 :         _Buffered_inplace_merge_divide_and_conquer2(_First, _Mid, _Last, _Count1, _Count2, _Temp_ptr, _Capacity, _Pred,

  00033	51		 push	 ecx
  00034	53		 push	 ebx
  00035	50		 push	 eax
  00036	8b 45 18	 mov	 eax, DWORD PTR __Count2$[ebp]
  00039	56		 push	 esi
  0003a	ff 75 24	 push	 DWORD PTR __Pred$[ebp]
  0003d	ff 75 20	 push	 DWORD PTR __Capacity$[ebp]
  00040	ff 75 1c	 push	 DWORD PTR __Temp_ptr$[ebp]
  00043	50		 push	 eax
  00044	8b 45 14	 mov	 eax, DWORD PTR __Count1$[ebp]
  00047	50		 push	 eax
  00048	ff 75 10	 push	 DWORD PTR __Last$[ebp]
  0004b	57		 push	 edi
  0004c	ff 75 08	 push	 DWORD PTR __First$[ebp]

; 7273 :             _Firstn, _Lastn, _STD distance(_First, _Firstn), _Count2n);
; 7274 :     }
; 7275 : }

  0004f	e8 00 00 00 00	 call	 ??$_Buffered_inplace_merge_divide_and_conquer2@PAUTPatchDrawStruct@CMapOutdoor@@UFSortPatchDrawStructWithTerrainNum@2@@std@@YAXPAUTPatchDrawStruct@CMapOutdoor@@00HHQAU12@HUFSortPatchDrawStructWithTerrainNum@2@00HH@Z ; std::_Buffered_inplace_merge_divide_and_conquer2<CMapOutdoor::TPatchDrawStruct *,CMapOutdoor::FSortPatchDrawStructWithTerrainNum>
  00054	83 c4 40	 add	 esp, 64			; 00000040H
  00057	5f		 pop	 edi
  00058	5e		 pop	 esi
  00059	5b		 pop	 ebx
  0005a	5d		 pop	 ebp
  0005b	c3		 ret	 0
$LN2@Buffered_i:
; File C:\Program Files (x86)\Microsoft Visual Studio\2019\Community\VC\Tools\MSVC\14.28.29333\include\xutility

; 1714 :         _Where += _Off;

  0005c	8b 45 0c	 mov	 eax, DWORD PTR __Mid$[ebp]
; File C:\Program Files (x86)\Microsoft Visual Studio\2019\Community\VC\Tools\MSVC\14.28.29333\include\algorithm

; 7269 :         const _Diff _Count2n = _Count2 >> 1; // shift for codegen

  0005f	8b f1		 mov	 esi, ecx

; 7271 :         const _BidIt _Firstn = _STD upper_bound(_First, _Mid, *_Lastn, _Pred);

  00061	8b 5d 08	 mov	 ebx, DWORD PTR __First$[ebp]
  00064	d1 fe		 sar	 esi, 1
; File C:\Program Files (x86)\Microsoft Visual Studio\2019\Community\VC\Tools\MSVC\14.28.29333\include\xutility

; 1714 :         _Where += _Off;

  00066	8b fe		 mov	 edi, esi
  00068	c1 e7 04	 shl	 edi, 4
  0006b	03 f8		 add	 edi, eax
; File C:\Program Files (x86)\Microsoft Visual Studio\2019\Community\VC\Tools\MSVC\14.28.29333\include\algorithm

; 7271 :         const _BidIt _Firstn = _STD upper_bound(_First, _Mid, *_Lastn, _Pred);

  0006d	57		 push	 edi
  0006e	50		 push	 eax
  0006f	53		 push	 ebx
  00070	e8 00 00 00 00	 call	 ??$upper_bound@PAUTPatchDrawStruct@CMapOutdoor@@U12@UFSortPatchDrawStructWithTerrainNum@2@@std@@YAPAUTPatchDrawStruct@CMapOutdoor@@PAU12@0ABU12@UFSortPatchDrawStructWithTerrainNum@2@@Z ; std::upper_bound<CMapOutdoor::TPatchDrawStruct *,CMapOutdoor::TPatchDrawStruct,CMapOutdoor::FSortPatchDrawStructWithTerrainNum>

; 7272 :         _Buffered_inplace_merge_divide_and_conquer2(_First, _Mid, _Last, _Count1, _Count2, _Temp_ptr, _Capacity, _Pred,

  00075	56		 push	 esi
; File C:\Program Files (x86)\Microsoft Visual Studio\2019\Community\VC\Tools\MSVC\14.28.29333\include\xutility

; 1794 :         return _Last - _First; // assume the iterator will do debug checking

  00076	8b c8		 mov	 ecx, eax
  00078	2b cb		 sub	 ecx, ebx
  0007a	c1 f9 04	 sar	 ecx, 4
; File C:\Program Files (x86)\Microsoft Visual Studio\2019\Community\VC\Tools\MSVC\14.28.29333\include\algorithm

; 7272 :         _Buffered_inplace_merge_divide_and_conquer2(_First, _Mid, _Last, _Count1, _Count2, _Temp_ptr, _Capacity, _Pred,

  0007d	51		 push	 ecx
  0007e	57		 push	 edi
  0007f	50		 push	 eax
  00080	ff 75 24	 push	 DWORD PTR __Pred$[ebp]
  00083	8b 45 18	 mov	 eax, DWORD PTR __Count2$[ebp]
  00086	ff 75 20	 push	 DWORD PTR __Capacity$[ebp]
  00089	ff 75 1c	 push	 DWORD PTR __Temp_ptr$[ebp]
  0008c	50		 push	 eax
  0008d	8b 45 14	 mov	 eax, DWORD PTR __Count1$[ebp]
  00090	50		 push	 eax
  00091	ff 75 10	 push	 DWORD PTR __Last$[ebp]
  00094	ff 75 0c	 push	 DWORD PTR __Mid$[ebp]
  00097	53		 push	 ebx

; 7273 :             _Firstn, _Lastn, _STD distance(_First, _Firstn), _Count2n);
; 7274 :     }
; 7275 : }

  00098	e8 00 00 00 00	 call	 ??$_Buffered_inplace_merge_divide_and_conquer2@PAUTPatchDrawStruct@CMapOutdoor@@UFSortPatchDrawStructWithTerrainNum@2@@std@@YAXPAUTPatchDrawStruct@CMapOutdoor@@00HHQAU12@HUFSortPatchDrawStructWithTerrainNum@2@00HH@Z ; std::_Buffered_inplace_merge_divide_and_conquer2<CMapOutdoor::TPatchDrawStruct *,CMapOutdoor::FSortPatchDrawStructWithTerrainNum>
  0009d	83 c4 40	 add	 esp, 64			; 00000040H
  000a0	5f		 pop	 edi
  000a1	5e		 pop	 esi
  000a2	5b		 pop	 ebx
  000a3	5d		 pop	 ebp
  000a4	c3		 ret	 0
??$_Buffered_inplace_merge_divide_and_conquer@PAUTPatchDrawStruct@CMapOutdoor@@UFSortPatchDrawStructWithTerrainNum@2@@std@@YAXPAUTPatchDrawStruct@CMapOutdoor@@00HHQAU12@HUFSortPatchDrawStructWithTerrainNum@2@@Z ENDP ; std::_Buffered_inplace_merge_divide_and_conquer<CMapOutdoor::TPatchDrawStruct *,CMapOutdoor::FSortPatchDrawStructWithTerrainNum>
_TEXT	ENDS
; Function compile flags: /Ogtp
; File C:\Program Files (x86)\Microsoft Visual Studio\2019\Community\VC\Tools\MSVC\14.28.29333\include\algorithm
; File C:\Program Files (x86)\Microsoft Visual Studio\2019\Community\VC\Tools\MSVC\14.28.29333\include\xutility
; File C:\Program Files (x86)\Windows Kits\10\Include\10.0.18362.0\ucrt\corecrt_memory.h
; File C:\Program Files (x86)\Microsoft Visual Studio\2019\Community\VC\Tools\MSVC\14.28.29333\include\xutility
; File D:\Metin2 Server Files\mainline\SRC_2014\Metin2Client\GameLib\MapOutdoor.h
; File C:\Program Files (x86)\Windows Kits\10\Include\10.0.18362.0\ucrt\corecrt_memory.h
; File C:\Program Files (x86)\Microsoft Visual Studio\2019\Community\VC\Tools\MSVC\14.28.29333\include\xutility
; File C:\Program Files (x86)\Windows Kits\10\Include\10.0.18362.0\ucrt\corecrt_memory.h
; File C:\Program Files (x86)\Microsoft Visual Studio\2019\Community\VC\Tools\MSVC\14.28.29333\include\xutility
; File C:\Program Files (x86)\Microsoft Visual Studio\2019\Community\VC\Tools\MSVC\14.28.29333\include\vector
; File C:\Program Files (x86)\Microsoft Visual Studio\2019\Community\VC\Tools\MSVC\14.28.29333\include\xutility
; File C:\Program Files (x86)\Microsoft Visual Studio\2019\Community\VC\Tools\MSVC\14.28.29333\include\vector
; File C:\Program Files (x86)\Microsoft Visual Studio\2019\Community\VC\Tools\MSVC\14.28.29333\include\xutility
; File C:\Program Files (x86)\Windows Kits\10\Include\10.0.18362.0\ucrt\corecrt_memory.h
; File C:\Program Files (x86)\Microsoft Visual Studio\2019\Community\VC\Tools\MSVC\14.28.29333\include\xutility
; File C:\Program Files (x86)\Windows Kits\10\Include\10.0.18362.0\ucrt\corecrt_memory.h
; File C:\Program Files (x86)\Microsoft Visual Studio\2019\Community\VC\Tools\MSVC\14.28.29333\include\xutility
; File C:\Program Files (x86)\Microsoft Visual Studio\2019\Community\VC\Tools\MSVC\14.28.29333\include\vector
; File D:\Metin2 Server Files\mainline\SRC_2014\Metin2Client\GameLib\MapOutdoor.h
; File C:\Program Files (x86)\Microsoft Visual Studio\2019\Community\VC\Tools\MSVC\14.28.29333\include\xutility
; File C:\Program Files (x86)\Microsoft Visual Studio\2019\Community\VC\Tools\MSVC\14.28.29333\include\vector
; File C:\Program Files (x86)\Microsoft Visual Studio\2019\Community\VC\Tools\MSVC\14.28.29333\include\xutility
; File D:\Metin2 Server Files\mainline\SRC_2014\Metin2Client\GameLib\MapOutdoor.h
; File C:\Program Files (x86)\Microsoft Visual Studio\2019\Community\VC\Tools\MSVC\14.28.29333\include\vector
; File D:\Metin2 Server Files\mainline\SRC_2014\Metin2Client\GameLib\MapOutdoor.h
; File C:\Program Files (x86)\Microsoft Visual Studio\2019\Community\VC\Tools\MSVC\14.28.29333\include\vector
; File D:\Metin2 Server Files\mainline\SRC_2014\Metin2Client\GameLib\MapOutdoor.h
; File C:\Program Files (x86)\Microsoft Visual Studio\2019\Community\VC\Tools\MSVC\14.28.29333\include\vector
; File D:\Metin2 Server Files\mainline\SRC_2014\Metin2Client\GameLib\MapOutdoor.h
; File C:\Program Files (x86)\Microsoft Visual Studio\2019\Community\VC\Tools\MSVC\14.28.29333\include\xutility
; File C:\Program Files (x86)\Windows Kits\10\Include\10.0.18362.0\ucrt\corecrt_memory.h
; File C:\Program Files (x86)\Microsoft Visual Studio\2019\Community\VC\Tools\MSVC\14.28.29333\include\xutility
; File C:\Program Files (x86)\Windows Kits\10\Include\10.0.18362.0\ucrt\corecrt_memory.h
; File C:\Program Files (x86)\Microsoft Visual Studio\2019\Community\VC\Tools\MSVC\14.28.29333\include\xutility
; File C:\Program Files (x86)\Microsoft Visual Studio\2019\Community\VC\Tools\MSVC\14.28.29333\include\vector
; File D:\Metin2 Server Files\mainline\SRC_2014\Metin2Client\GameLib\MapOutdoor.h
; File C:\Program Files (x86)\Microsoft Visual Studio\2019\Community\VC\Tools\MSVC\14.28.29333\include\vector
; File D:\Metin2 Server Files\mainline\SRC_2014\Metin2Client\GameLib\MapOutdoor.h
; File C:\Program Files (x86)\Microsoft Visual Studio\2019\Community\VC\Tools\MSVC\14.28.29333\include\vector
; File D:\Metin2 Server Files\mainline\SRC_2014\Metin2Client\GameLib\MapOutdoor.h
; File C:\Program Files (x86)\Microsoft Visual Studio\2019\Community\VC\Tools\MSVC\14.28.29333\include\vector
; File D:\Metin2 Server Files\mainline\SRC_2014\Metin2Client\GameLib\MapOutdoor.h
; File C:\Program Files (x86)\Microsoft Visual Studio\2019\Community\VC\Tools\MSVC\14.28.29333\include\algorithm
; File C:\Program Files (x86)\Microsoft Visual Studio\2019\Community\VC\Tools\MSVC\14.28.29333\include\xutility
; File C:\Program Files (x86)\Microsoft Visual Studio\2019\Community\VC\Tools\MSVC\14.28.29333\include\algorithm
; File C:\Program Files (x86)\Microsoft Visual Studio\2019\Community\VC\Tools\MSVC\14.28.29333\include\xutility
; File C:\Program Files (x86)\Microsoft Visual Studio\2019\Community\VC\Tools\MSVC\14.28.29333\include\algorithm
; File C:\Program Files (x86)\Microsoft Visual Studio\2019\Community\VC\Tools\MSVC\14.28.29333\include\xutility
; File C:\Program Files (x86)\Microsoft Visual Studio\2019\Community\VC\Tools\MSVC\14.28.29333\include\algorithm
; File C:\Program Files (x86)\Microsoft Visual Studio\2019\Community\VC\Tools\MSVC\14.28.29333\include\xutility
; File C:\Program Files (x86)\Microsoft Visual Studio\2019\Community\VC\Tools\MSVC\14.28.29333\include\algorithm
; File C:\Program Files (x86)\Microsoft Visual Studio\2019\Community\VC\Tools\MSVC\14.28.29333\include\xutility
; File C:\Program Files (x86)\Microsoft Visual Studio\2019\Community\VC\Tools\MSVC\14.28.29333\include\algorithm
;	COMDAT ??$_Inplace_merge_buffer_right@PAUTPatchDrawStruct@CMapOutdoor@@UFSortPatchDrawStructWithTerrainNum@2@@std@@YAXPAUTPatchDrawStruct@CMapOutdoor@@00QAU12@UFSortPatchDrawStructWithTerrainNum@2@@Z
_TEXT	SEGMENT
tv1090 = -20						; size = 4
tv1086 = -16						; size = 4
__Right_last$1$ = -12					; size = 4
tv1101 = -8						; size = 4
_rhsTerrainNumOrder$1$ = -8				; size = 4
tv1089 = -1						; size = 1
tv1085 = -1						; size = 1
__First$ = 8						; size = 4
__Mid$ = 12						; size = 4
__Last$ = 16						; size = 4
__Temp_ptr$ = 20					; size = 4
__Pred$ = 24						; size = 1
??$_Inplace_merge_buffer_right@PAUTPatchDrawStruct@CMapOutdoor@@UFSortPatchDrawStructWithTerrainNum@2@@std@@YAXPAUTPatchDrawStruct@CMapOutdoor@@00QAU12@UFSortPatchDrawStructWithTerrainNum@2@@Z PROC ; std::_Inplace_merge_buffer_right<CMapOutdoor::TPatchDrawStruct *,CMapOutdoor::FSortPatchDrawStructWithTerrainNum>, COMDAT

; 7206 :     _BidIt _First, _BidIt _Mid, _BidIt _Last, _Iter_value_t<_BidIt>* const _Temp_ptr, _Pr _Pred) {

  00000	55		 push	 ebp
  00001	8b ec		 mov	 ebp, esp
  00003	83 ec 14	 sub	 esp, 20			; 00000014H
  00006	53		 push	 ebx

; 7207 :     // move the range [_Mid, _Last) to _Temp_ptr, and merge it with [_First, _Mid) to _Last
; 7208 :     // usual invariants apply
; 7209 :     using _Ptr_ty = _Iter_value_t<_BidIt>*;
; 7210 :     _Uninitialized_backout<_Ptr_ty> _Backout{_Temp_ptr, _Uninitialized_move_unchecked(_Mid, _Last, _Temp_ptr)};

  00007	8b 5d 0c	 mov	 ebx, DWORD PTR __Mid$[ebp]
  0000a	56		 push	 esi
  0000b	8b 75 10	 mov	 esi, DWORD PTR __Last$[ebp]
  0000e	57		 push	 edi
  0000f	ff 75 14	 push	 DWORD PTR __Temp_ptr$[ebp]
  00012	56		 push	 esi
  00013	53		 push	 ebx
  00014	e8 00 00 00 00	 call	 ??$_Uninitialized_move_unchecked@PAUTPatchDrawStruct@CMapOutdoor@@PAU12@@std@@YAPAUTPatchDrawStruct@CMapOutdoor@@PAU12@QAU12@0@Z ; std::_Uninitialized_move_unchecked<CMapOutdoor::TPatchDrawStruct *,CMapOutdoor::TPatchDrawStruct *>

; 7211 :     *--_Last                   = _STD move(*--_Mid); // move the highest element into position

  00019	0f 10 43 f0	 movups	 xmm0, XMMWORD PTR [ebx-16]
  0001d	83 ee 10	 sub	 esi, 16			; 00000010H
  00020	83 c4 0c	 add	 esp, 12			; 0000000cH

; 7212 :     const _Ptr_ty _Right_first = _Temp_ptr;
; 7213 :     _Ptr_ty _Right_last        = _Backout._Last - 1;
; 7214 :     --_Mid;

  00023	83 eb 20	 sub	 ebx, 32			; 00000020H
  00026	89 75 10	 mov	 DWORD PTR __Last$[ebp], esi
  00029	8d 48 f0	 lea	 ecx, DWORD PTR [eax-16]
  0002c	89 5d 0c	 mov	 DWORD PTR __Mid$[ebp], ebx
  0002f	89 4d f4	 mov	 DWORD PTR __Right_last$1$[ebp], ecx
  00032	0f 11 06	 movups	 XMMWORD PTR [esi], xmm0
  00035	66 66 66 0f 1f
	84 00 00 00 00
	00		 npad	 11
$LL2@Inplace_me:
; File C:\Program Files (x86)\Microsoft Visual Studio\2019\Community\VC\Tools\MSVC\14.28.29333\include\xutility

; 5480 :     _Seek_wrapped(_First, _Find_unchecked(_Get_unwrapped(_First), _Get_unwrapped(_Last), _Val));

  00040	8b 1d 04 00 00
	00		 mov	 ebx, DWORD PTR ?m_TerrainNumVector@FSortPatchDrawStructWithTerrainNum@CMapOutdoor@@2V?$vector@EV?$allocator@E@std@@@std@@A+4

; 5461 :     _First =

  00046	8d 51 04	 lea	 edx, DWORD PTR [ecx+4]
  00049	8b 0d 00 00 00
	00		 mov	 ecx, DWORD PTR ?m_TerrainNumVector@FSortPatchDrawStructWithTerrainNum@CMapOutdoor@@2V?$vector@EV?$allocator@E@std@@@std@@A
  0004f	8b c3		 mov	 eax, ebx
  00051	2b c1		 sub	 eax, ecx

; 5480 :     _Seek_wrapped(_First, _Find_unchecked(_Get_unwrapped(_First), _Get_unwrapped(_Last), _Val));

  00053	89 5d f8	 mov	 DWORD PTR tv1101[ebp], ebx
; File C:\Program Files (x86)\Windows Kits\10\Include\10.0.18362.0\ucrt\corecrt_memory.h

; 107  :         return const_cast<void*>(memchr(_Pvc, _C, _N));

  00056	50		 push	 eax
; File C:\Program Files (x86)\Microsoft Visual Studio\2019\Community\VC\Tools\MSVC\14.28.29333\include\xutility

; 5461 :     _First =

  00057	0f b6 02	 movzx	 eax, BYTE PTR [edx]
; File D:\Metin2 Server Files\mainline\SRC_2014\Metin2Client\GameLib\MapOutdoor.h

; 360  : 				DWORD lhsTerrainNumOrder = 0, rhsTerrainNumOrder = 0;

  0005a	33 ff		 xor	 edi, edi
; File C:\Program Files (x86)\Windows Kits\10\Include\10.0.18362.0\ucrt\corecrt_memory.h

; 107  :         return const_cast<void*>(memchr(_Pvc, _C, _N));

  0005c	50		 push	 eax
  0005d	51		 push	 ecx
; File C:\Program Files (x86)\Microsoft Visual Studio\2019\Community\VC\Tools\MSVC\14.28.29333\include\xutility

; 5461 :     _First =

  0005e	89 55 ec	 mov	 DWORD PTR tv1090[ebp], edx
; File C:\Program Files (x86)\Windows Kits\10\Include\10.0.18362.0\ucrt\corecrt_memory.h

; 107  :         return const_cast<void*>(memchr(_Pvc, _C, _N));

  00061	e8 00 00 00 00	 call	 _memchr
; File C:\Program Files (x86)\Microsoft Visual Studio\2019\Community\VC\Tools\MSVC\14.28.29333\include\xutility

; 5463 :     return _First ? _First : _Last;

  00066	85 c0		 test	 eax, eax
  00068	8b cb		 mov	 ecx, ebx
  0006a	0f 45 c8	 cmovne	 ecx, eax
; File C:\Program Files (x86)\Microsoft Visual Studio\2019\Community\VC\Tools\MSVC\14.28.29333\include\vector

; 195  :         _Ptr = _Refancy<_Tptr>(const_cast<value_type*>(_It));

  0006d	51		 push	 ecx
  0006e	e8 00 00 00 00	 call	 ??$_Refancy@PAE$0A@@std@@YAPAEPAE@Z ; std::_Refancy<unsigned char *,0>
; File C:\Program Files (x86)\Microsoft Visual Studio\2019\Community\VC\Tools\MSVC\14.28.29333\include\xutility

; 5461 :     _First =

  00073	8b 0d 00 00 00
	00		 mov	 ecx, DWORD PTR ?m_TerrainNumVector@FSortPatchDrawStructWithTerrainNum@CMapOutdoor@@2V?$vector@EV?$allocator@E@std@@@std@@A
; File C:\Program Files (x86)\Microsoft Visual Studio\2019\Community\VC\Tools\MSVC\14.28.29333\include\vector

; 195  :         _Ptr = _Refancy<_Tptr>(const_cast<value_type*>(_It));

  00079	8b f0		 mov	 esi, eax
; File C:\Program Files (x86)\Microsoft Visual Studio\2019\Community\VC\Tools\MSVC\14.28.29333\include\xutility

; 5461 :     _First =

  0007b	8b 45 0c	 mov	 eax, DWORD PTR __Mid$[ebp]
  0007e	83 c0 04	 add	 eax, 4
  00081	89 45 f0	 mov	 DWORD PTR tv1086[ebp], eax
  00084	8a 10		 mov	 dl, BYTE PTR [eax]
  00086	8b c3		 mov	 eax, ebx
  00088	2b c1		 sub	 eax, ecx
  0008a	88 55 ff	 mov	 BYTE PTR tv1085[ebp], dl
; File C:\Program Files (x86)\Windows Kits\10\Include\10.0.18362.0\ucrt\corecrt_memory.h

; 107  :         return const_cast<void*>(memchr(_Pvc, _C, _N));

  0008d	50		 push	 eax
; File C:\Program Files (x86)\Microsoft Visual Studio\2019\Community\VC\Tools\MSVC\14.28.29333\include\xutility

; 5461 :     _First =

  0008e	0f b6 c2	 movzx	 eax, dl
; File C:\Program Files (x86)\Windows Kits\10\Include\10.0.18362.0\ucrt\corecrt_memory.h

; 107  :         return const_cast<void*>(memchr(_Pvc, _C, _N));

  00091	50		 push	 eax
  00092	51		 push	 ecx
  00093	e8 00 00 00 00	 call	 _memchr
; File C:\Program Files (x86)\Microsoft Visual Studio\2019\Community\VC\Tools\MSVC\14.28.29333\include\xutility

; 5463 :     return _First ? _First : _Last;

  00098	85 c0		 test	 eax, eax
  0009a	8b cb		 mov	 ecx, ebx
  0009c	0f 45 c8	 cmovne	 ecx, eax
; File C:\Program Files (x86)\Microsoft Visual Studio\2019\Community\VC\Tools\MSVC\14.28.29333\include\vector

; 195  :         _Ptr = _Refancy<_Tptr>(const_cast<value_type*>(_It));

  0009f	51		 push	 ecx
  000a0	e8 00 00 00 00	 call	 ??$_Refancy@PAE$0A@@std@@YAPAEPAE@Z ; std::_Refancy<unsigned char *,0>
; File D:\Metin2 Server Files\mainline\SRC_2014\Metin2Client\GameLib\MapOutdoor.h

; 367  : 				if (lhsIterator != m_TerrainNumVector.end())

  000a5	8b 0d 00 00 00
	00		 mov	 ecx, DWORD PTR ?m_TerrainNumVector@FSortPatchDrawStructWithTerrainNum@CMapOutdoor@@2V?$vector@EV?$allocator@E@std@@@std@@A
; File C:\Program Files (x86)\Microsoft Visual Studio\2019\Community\VC\Tools\MSVC\14.28.29333\include\xutility

; 5481 :     return _First;

  000ab	8b d3		 mov	 edx, ebx
; File C:\Program Files (x86)\Microsoft Visual Studio\2019\Community\VC\Tools\MSVC\14.28.29333\include\vector

; 195  :         _Ptr = _Refancy<_Tptr>(const_cast<value_type*>(_It));

  000ad	83 c4 20	 add	 esp, 32			; 00000020H
; File C:\Program Files (x86)\Microsoft Visual Studio\2019\Community\VC\Tools\MSVC\14.28.29333\include\xutility

; 5481 :     return _First;

  000b0	3b f2		 cmp	 esi, edx
; File D:\Metin2 Server Files\mainline\SRC_2014\Metin2Client\GameLib\MapOutdoor.h

; 367  : 				if (lhsIterator != m_TerrainNumVector.end())

  000b2	74 04		 je	 SHORT $LN15@Inplace_me

; 368  : 				{
; 369  : 					blhsOrderFound = true;

  000b4	8b fe		 mov	 edi, esi
  000b6	2b f9		 sub	 edi, ecx
$LN15@Inplace_me:
; File C:\Program Files (x86)\Microsoft Visual Studio\2019\Community\VC\Tools\MSVC\14.28.29333\include\vector

; 149  :         return _Ptr == _Right._Ptr;

  000b8	3b c2		 cmp	 eax, edx
; File D:\Metin2 Server Files\mainline\SRC_2014\Metin2Client\GameLib\MapOutdoor.h

; 372  : 				if (rhsIterator != m_TerrainNumVector.end())

  000ba	74 04		 je	 SHORT $LN183@Inplace_me
; File C:\Program Files (x86)\Microsoft Visual Studio\2019\Community\VC\Tools\MSVC\14.28.29333\include\vector

; 140  :         return _Ptr - _Right._Ptr;

  000bc	2b c1		 sub	 eax, ecx
; File D:\Metin2 Server Files\mainline\SRC_2014\Metin2Client\GameLib\MapOutdoor.h

; 377  : 				if (!brhsOrderFound)

  000be	eb 3e		 jmp	 SHORT $LN186@Inplace_me
$LN183@Inplace_me:
; File C:\Program Files (x86)\Microsoft Visual Studio\2019\Community\VC\Tools\MSVC\14.28.29333\include\vector

; 704  :         if (_Mylast != _My_data._Myend) {

  000c0	3b 15 08 00 00
	00		 cmp	 edx, DWORD PTR ?m_TerrainNumVector@FSortPatchDrawStructWithTerrainNum@CMapOutdoor@@2V?$vector@EV?$allocator@E@std@@@std@@A+8
  000c6	74 14		 je	 SHORT $LN111@Inplace_me

; 687  :         _Alty_traits::construct(_Getal(), _Unfancy(_Mylast), _STD forward<_Valty>(_Val)...);

  000c8	8a 45 ff	 mov	 al, BYTE PTR tv1085[ebp]
  000cb	88 02		 mov	 BYTE PTR [edx], al

; 688  :         _Orphan_range(_Mylast, _Mylast);
; 689  :         _Ty& _Result = *_Mylast;
; 690  :         ++_Mylast;

  000cd	8b 1d 04 00 00
	00		 mov	 ebx, DWORD PTR ?m_TerrainNumVector@FSortPatchDrawStructWithTerrainNum@CMapOutdoor@@2V?$vector@EV?$allocator@E@std@@@std@@A+4
  000d3	43		 inc	 ebx
  000d4	89 1d 04 00 00
	00		 mov	 DWORD PTR ?m_TerrainNumVector@FSortPatchDrawStructWithTerrainNum@CMapOutdoor@@2V?$vector@EV?$allocator@E@std@@@std@@A+4, ebx

; 705  :             return _Emplace_back_with_unused_capacity(_STD forward<_Valty>(_Val)...);

  000da	eb 17		 jmp	 SHORT $LN110@Inplace_me
$LN111@Inplace_me:

; 706  :         }
; 707  : 
; 708  :         _Ty& _Result = *_Emplace_reallocate(_Mylast, _STD forward<_Valty>(_Val)...);

  000dc	ff 75 f0	 push	 DWORD PTR tv1086[ebp]
  000df	b9 00 00 00 00	 mov	 ecx, OFFSET ?m_TerrainNumVector@FSortPatchDrawStructWithTerrainNum@CMapOutdoor@@2V?$vector@EV?$allocator@E@std@@@std@@A ; CMapOutdoor::FSortPatchDrawStructWithTerrainNum::m_TerrainNumVector
  000e4	52		 push	 edx
  000e5	e8 00 00 00 00	 call	 ??$_Emplace_reallocate@ABE@?$vector@EV?$allocator@E@std@@@std@@QAEPAEQAEABE@Z ; std::vector<unsigned char,std::allocator<unsigned char> >::_Emplace_reallocate<unsigned char const &>
  000ea	8b 1d 04 00 00
	00		 mov	 ebx, DWORD PTR ?m_TerrainNumVector@FSortPatchDrawStructWithTerrainNum@CMapOutdoor@@2V?$vector@EV?$allocator@E@std@@@std@@A+4
  000f0	8b 55 f8	 mov	 edx, DWORD PTR tv1101[ebp]
$LN110@Inplace_me:
; File D:\Metin2 Server Files\mainline\SRC_2014\Metin2Client\GameLib\MapOutdoor.h

; 380  : 					rhsTerrainNumOrder = m_TerrainNumVector.size() -1;

  000f3	8b 0d 00 00 00
	00		 mov	 ecx, DWORD PTR ?m_TerrainNumVector@FSortPatchDrawStructWithTerrainNum@CMapOutdoor@@2V?$vector@EV?$allocator@E@std@@@std@@A
  000f9	8b c3		 mov	 eax, ebx
  000fb	2b c1		 sub	 eax, ecx
  000fd	48		 dec	 eax
$LN186@Inplace_me:

; 381  : 				}
; 382  : 				if (!blhsOrderFound)

  000fe	89 45 f8	 mov	 DWORD PTR _rhsTerrainNumOrder$1$[ebp], eax
  00101	3b f2		 cmp	 esi, edx
  00103	75 64		 jne	 SHORT $LN20@Inplace_me
; File C:\Program Files (x86)\Microsoft Visual Studio\2019\Community\VC\Tools\MSVC\14.28.29333\include\xutility

; 5461 :     _First =

  00105	8b 75 ec	 mov	 esi, DWORD PTR tv1090[ebp]
  00108	8b c3		 mov	 eax, ebx
  0010a	2b c1		 sub	 eax, ecx
; File C:\Program Files (x86)\Windows Kits\10\Include\10.0.18362.0\ucrt\corecrt_memory.h

; 107  :         return const_cast<void*>(memchr(_Pvc, _C, _N));

  0010c	50		 push	 eax
; File C:\Program Files (x86)\Microsoft Visual Studio\2019\Community\VC\Tools\MSVC\14.28.29333\include\xutility

; 5461 :     _First =

  0010d	0f b6 06	 movzx	 eax, BYTE PTR [esi]
; File C:\Program Files (x86)\Windows Kits\10\Include\10.0.18362.0\ucrt\corecrt_memory.h

; 107  :         return const_cast<void*>(memchr(_Pvc, _C, _N));

  00110	50		 push	 eax
  00111	51		 push	 ecx
  00112	e8 00 00 00 00	 call	 _memchr
; File C:\Program Files (x86)\Microsoft Visual Studio\2019\Community\VC\Tools\MSVC\14.28.29333\include\xutility

; 5463 :     return _First ? _First : _Last;

  00117	85 c0		 test	 eax, eax
  00119	8b cb		 mov	 ecx, ebx
  0011b	0f 45 c8	 cmovne	 ecx, eax
; File C:\Program Files (x86)\Microsoft Visual Studio\2019\Community\VC\Tools\MSVC\14.28.29333\include\vector

; 195  :         _Ptr = _Refancy<_Tptr>(const_cast<value_type*>(_It));

  0011e	51		 push	 ecx
  0011f	e8 00 00 00 00	 call	 ??$_Refancy@PAE$0A@@std@@YAPAEPAE@Z ; std::_Refancy<unsigned char *,0>
; File D:\Metin2 Server Files\mainline\SRC_2014\Metin2Client\GameLib\MapOutdoor.h

; 384  : 					lhsIterator = std::find(m_TerrainNumVector.begin(), m_TerrainNumVector.end(), lhs.byTerrainNum);

  00124	8b f8		 mov	 edi, eax
; File C:\Program Files (x86)\Microsoft Visual Studio\2019\Community\VC\Tools\MSVC\14.28.29333\include\vector

; 195  :         _Ptr = _Refancy<_Tptr>(const_cast<value_type*>(_It));

  00126	83 c4 10	 add	 esp, 16			; 00000010H
; File D:\Metin2 Server Files\mainline\SRC_2014\Metin2Client\GameLib\MapOutdoor.h

; 384  : 					lhsIterator = std::find(m_TerrainNumVector.begin(), m_TerrainNumVector.end(), lhs.byTerrainNum);

  00129	3b fb		 cmp	 edi, ebx

; 385  : 					if (lhsIterator != m_TerrainNumVector.end())

  0012b	74 08		 je	 SHORT $LN184@Inplace_me
; File C:\Program Files (x86)\Microsoft Visual Studio\2019\Community\VC\Tools\MSVC\14.28.29333\include\vector

; 140  :         return _Ptr - _Right._Ptr;

  0012d	2b 3d 00 00 00
	00		 sub	 edi, DWORD PTR ?m_TerrainNumVector@FSortPatchDrawStructWithTerrainNum@CMapOutdoor@@2V?$vector@EV?$allocator@E@std@@@std@@A
; File D:\Metin2 Server Files\mainline\SRC_2014\Metin2Client\GameLib\MapOutdoor.h

; 390  : 					if (!blhsOrderFound)

  00133	eb 34		 jmp	 SHORT $LN20@Inplace_me
$LN184@Inplace_me:
; File C:\Program Files (x86)\Microsoft Visual Studio\2019\Community\VC\Tools\MSVC\14.28.29333\include\vector

; 704  :         if (_Mylast != _My_data._Myend) {

  00135	3b 1d 08 00 00
	00		 cmp	 ebx, DWORD PTR ?m_TerrainNumVector@FSortPatchDrawStructWithTerrainNum@CMapOutdoor@@2V?$vector@EV?$allocator@E@std@@@std@@A+8
  0013b	74 13		 je	 SHORT $LN163@Inplace_me

; 687  :         _Alty_traits::construct(_Getal(), _Unfancy(_Mylast), _STD forward<_Valty>(_Val)...);

  0013d	8a 06		 mov	 al, BYTE PTR [esi]
  0013f	88 03		 mov	 BYTE PTR [ebx], al

; 688  :         _Orphan_range(_Mylast, _Mylast);
; 689  :         _Ty& _Result = *_Mylast;
; 690  :         ++_Mylast;

  00141	8b 3d 04 00 00
	00		 mov	 edi, DWORD PTR ?m_TerrainNumVector@FSortPatchDrawStructWithTerrainNum@CMapOutdoor@@2V?$vector@EV?$allocator@E@std@@@std@@A+4
  00147	47		 inc	 edi
  00148	89 3d 04 00 00
	00		 mov	 DWORD PTR ?m_TerrainNumVector@FSortPatchDrawStructWithTerrainNum@CMapOutdoor@@2V?$vector@EV?$allocator@E@std@@@std@@A+4, edi

; 705  :             return _Emplace_back_with_unused_capacity(_STD forward<_Valty>(_Val)...);

  0014e	eb 12		 jmp	 SHORT $LN162@Inplace_me
$LN163@Inplace_me:

; 706  :         }
; 707  : 
; 708  :         _Ty& _Result = *_Emplace_reallocate(_Mylast, _STD forward<_Valty>(_Val)...);

  00150	56		 push	 esi
  00151	53		 push	 ebx
  00152	b9 00 00 00 00	 mov	 ecx, OFFSET ?m_TerrainNumVector@FSortPatchDrawStructWithTerrainNum@CMapOutdoor@@2V?$vector@EV?$allocator@E@std@@@std@@A ; CMapOutdoor::FSortPatchDrawStructWithTerrainNum::m_TerrainNumVector
  00157	e8 00 00 00 00	 call	 ??$_Emplace_reallocate@ABE@?$vector@EV?$allocator@E@std@@@std@@QAEPAEQAEABE@Z ; std::vector<unsigned char,std::allocator<unsigned char> >::_Emplace_reallocate<unsigned char const &>
  0015c	8b 3d 04 00 00
	00		 mov	 edi, DWORD PTR ?m_TerrainNumVector@FSortPatchDrawStructWithTerrainNum@CMapOutdoor@@2V?$vector@EV?$allocator@E@std@@@std@@A+4
$LN162@Inplace_me:
; File D:\Metin2 Server Files\mainline\SRC_2014\Metin2Client\GameLib\MapOutdoor.h

; 393  : 						lhsTerrainNumOrder = m_TerrainNumVector.size() -1;

  00162	2b 3d 00 00 00
	00		 sub	 edi, DWORD PTR ?m_TerrainNumVector@FSortPatchDrawStructWithTerrainNum@CMapOutdoor@@2V?$vector@EV?$allocator@E@std@@@std@@A
  00168	4f		 dec	 edi
$LN20@Inplace_me:

; 394  : 					}
; 395  : 				}
; 396  : 
; 397  : 				return lhsTerrainNumOrder < rhsTerrainNumOrder;

  00169	8b 45 10	 mov	 eax, DWORD PTR __Last$[ebp]
  0016c	83 c0 f0	 add	 eax, -16		; fffffff0H
  0016f	89 45 10	 mov	 DWORD PTR __Last$[ebp], eax
  00172	3b 7d f8	 cmp	 edi, DWORD PTR _rhsTerrainNumOrder$1$[ebp]
; File C:\Program Files (x86)\Microsoft Visual Studio\2019\Community\VC\Tools\MSVC\14.28.29333\include\algorithm

; 7216 :         if (_Pred(*_Right_last, *_Mid)) { // merge from the left partition

  00175	73 1c		 jae	 SHORT $LN5@Inplace_me

; 7217 :             *--_Last = _STD move(*_Mid);

  00177	8b 4d 0c	 mov	 ecx, DWORD PTR __Mid$[ebp]
  0017a	0f 10 01	 movups	 xmm0, XMMWORD PTR [ecx]
  0017d	0f 11 00	 movups	 XMMWORD PTR [eax], xmm0

; 7218 :             if (_First == _Mid) {

  00180	39 4d 08	 cmp	 DWORD PTR __First$[ebp], ecx
  00183	74 4f		 je	 SHORT $LN179@Inplace_me

; 7220 :                 _Move_backward_unchecked(_Right_first, _Right_last, _Last); // move any head (and lowest element)
; 7221 :                 return;
; 7222 :             }
; 7223 : 
; 7224 :             --_Mid;

  00185	83 e9 10	 sub	 ecx, 16			; 00000010H
  00188	89 4d 0c	 mov	 DWORD PTR __Mid$[ebp], ecx

; 7225 :         } else { // merge from the right partition

  0018b	8b 4d f4	 mov	 ecx, DWORD PTR __Right_last$1$[ebp]
  0018e	e9 ad fe ff ff	 jmp	 $LL2@Inplace_me
$LN5@Inplace_me:

; 7226 :             *--_Last = _STD move(*_Right_last);

  00193	8b 4d f4	 mov	 ecx, DWORD PTR __Right_last$1$[ebp]

; 7227 :             --_Right_last;
; 7228 :             if (_Right_first == _Right_last) { // we can't compare with *_Right_first, but we know it is lowest

  00196	8b 5d 14	 mov	 ebx, DWORD PTR __Temp_ptr$[ebp]
  00199	0f 10 01	 movups	 xmm0, XMMWORD PTR [ecx]
  0019c	83 e9 10	 sub	 ecx, 16			; 00000010H
  0019f	89 4d f4	 mov	 DWORD PTR __Right_last$1$[ebp], ecx
  001a2	0f 11 00	 movups	 XMMWORD PTR [eax], xmm0
  001a5	3b d9		 cmp	 ebx, ecx
  001a7	0f 85 93 fe ff
	ff		 jne	 $LL2@Inplace_me

; 7229 :                 *--_Last = _STD move(*_Mid); // restore half-open range [_First, _Mid)

  001ad	8b 4d 0c	 mov	 ecx, DWORD PTR __Mid$[ebp]
  001b0	83 e8 10	 sub	 eax, 16			; 00000010H
; File C:\Program Files (x86)\Microsoft Visual Studio\2019\Community\VC\Tools\MSVC\14.28.29333\include\xutility

; 4696 :             return _Copy_backward_memmove(_First, _Last, _Dest);

  001b3	8b 75 08	 mov	 esi, DWORD PTR __First$[ebp]
  001b6	50		 push	 eax
  001b7	51		 push	 ecx
; File C:\Program Files (x86)\Microsoft Visual Studio\2019\Community\VC\Tools\MSVC\14.28.29333\include\algorithm

; 7229 :                 *--_Last = _STD move(*_Mid); // restore half-open range [_First, _Mid)

  001b8	0f 10 01	 movups	 xmm0, XMMWORD PTR [ecx]
; File C:\Program Files (x86)\Microsoft Visual Studio\2019\Community\VC\Tools\MSVC\14.28.29333\include\xutility

; 4696 :             return _Copy_backward_memmove(_First, _Last, _Dest);

  001bb	56		 push	 esi
; File C:\Program Files (x86)\Microsoft Visual Studio\2019\Community\VC\Tools\MSVC\14.28.29333\include\algorithm

; 7229 :                 *--_Last = _STD move(*_Mid); // restore half-open range [_First, _Mid)

  001bc	0f 11 00	 movups	 XMMWORD PTR [eax], xmm0
; File C:\Program Files (x86)\Microsoft Visual Studio\2019\Community\VC\Tools\MSVC\14.28.29333\include\xutility

; 4696 :             return _Copy_backward_memmove(_First, _Last, _Dest);

  001bf	e8 00 00 00 00	 call	 ??$_Copy_backward_memmove@PAUTPatchDrawStruct@CMapOutdoor@@PAU12@@std@@YAPAUTPatchDrawStruct@CMapOutdoor@@PAU12@00@Z ; std::_Copy_backward_memmove<CMapOutdoor::TPatchDrawStruct *,CMapOutdoor::TPatchDrawStruct *>
; File C:\Program Files (x86)\Microsoft Visual Studio\2019\Community\VC\Tools\MSVC\14.28.29333\include\algorithm

; 7231 :                 *_First = _STD move(*_Right_first);

  001c4	0f 10 03	 movups	 xmm0, XMMWORD PTR [ebx]

; 7236 : }

  001c7	83 c4 0c	 add	 esp, 12			; 0000000cH
  001ca	0f 11 06	 movups	 XMMWORD PTR [esi], xmm0
  001cd	5f		 pop	 edi
  001ce	5e		 pop	 esi
  001cf	5b		 pop	 ebx
  001d0	8b e5		 mov	 esp, ebp
  001d2	5d		 pop	 ebp
  001d3	c3		 ret	 0
$LN179@Inplace_me:

; 7219 :                 *--_Last = _STD move(*_Right_last); // to make [_Right_first, _Right_last) a half-open range

  001d4	8b 4d f4	 mov	 ecx, DWORD PTR __Right_last$1$[ebp]
  001d7	83 e8 10	 sub	 eax, 16			; 00000010H
; File C:\Program Files (x86)\Microsoft Visual Studio\2019\Community\VC\Tools\MSVC\14.28.29333\include\xutility

; 4696 :             return _Copy_backward_memmove(_First, _Last, _Dest);

  001da	50		 push	 eax
  001db	51		 push	 ecx
  001dc	ff 75 14	 push	 DWORD PTR __Temp_ptr$[ebp]
; File C:\Program Files (x86)\Microsoft Visual Studio\2019\Community\VC\Tools\MSVC\14.28.29333\include\algorithm

; 7219 :                 *--_Last = _STD move(*_Right_last); // to make [_Right_first, _Right_last) a half-open range

  001df	0f 10 01	 movups	 xmm0, XMMWORD PTR [ecx]
  001e2	0f 11 00	 movups	 XMMWORD PTR [eax], xmm0
; File C:\Program Files (x86)\Microsoft Visual Studio\2019\Community\VC\Tools\MSVC\14.28.29333\include\xutility

; 4696 :             return _Copy_backward_memmove(_First, _Last, _Dest);

  001e5	e8 00 00 00 00	 call	 ??$_Copy_backward_memmove@PAUTPatchDrawStruct@CMapOutdoor@@PAU12@@std@@YAPAUTPatchDrawStruct@CMapOutdoor@@PAU12@00@Z ; std::_Copy_backward_memmove<CMapOutdoor::TPatchDrawStruct *,CMapOutdoor::TPatchDrawStruct *>
; File C:\Program Files (x86)\Microsoft Visual Studio\2019\Community\VC\Tools\MSVC\14.28.29333\include\algorithm

; 7236 : }

  001ea	83 c4 0c	 add	 esp, 12			; 0000000cH
  001ed	5f		 pop	 edi
  001ee	5e		 pop	 esi
  001ef	5b		 pop	 ebx
  001f0	8b e5		 mov	 esp, ebp
  001f2	5d		 pop	 ebp
  001f3	c3		 ret	 0
??$_Inplace_merge_buffer_right@PAUTPatchDrawStruct@CMapOutdoor@@UFSortPatchDrawStructWithTerrainNum@2@@std@@YAXPAUTPatchDrawStruct@CMapOutdoor@@00QAU12@UFSortPatchDrawStructWithTerrainNum@2@@Z ENDP ; std::_Inplace_merge_buffer_right<CMapOutdoor::TPatchDrawStruct *,CMapOutdoor::FSortPatchDrawStructWithTerrainNum>
_TEXT	ENDS
; Function compile flags: /Ogtp
; File C:\Program Files (x86)\Microsoft Visual Studio\2019\Community\VC\Tools\MSVC\14.28.29333\include\algorithm
; File C:\Program Files (x86)\Microsoft Visual Studio\2019\Community\VC\Tools\MSVC\14.28.29333\include\xmemory
; File C:\Program Files (x86)\Microsoft Visual Studio\2019\Community\VC\Tools\MSVC\14.28.29333\include\algorithm
; File C:\Program Files (x86)\Microsoft Visual Studio\2019\Community\VC\Tools\MSVC\14.28.29333\include\xutility
; File C:\Program Files (x86)\Windows Kits\10\Include\10.0.18362.0\ucrt\corecrt_memory.h
; File C:\Program Files (x86)\Microsoft Visual Studio\2019\Community\VC\Tools\MSVC\14.28.29333\include\xutility
; File D:\Metin2 Server Files\mainline\SRC_2014\Metin2Client\GameLib\MapOutdoor.h
; File C:\Program Files (x86)\Windows Kits\10\Include\10.0.18362.0\ucrt\corecrt_memory.h
; File C:\Program Files (x86)\Microsoft Visual Studio\2019\Community\VC\Tools\MSVC\14.28.29333\include\xutility
; File C:\Program Files (x86)\Windows Kits\10\Include\10.0.18362.0\ucrt\corecrt_memory.h
; File C:\Program Files (x86)\Microsoft Visual Studio\2019\Community\VC\Tools\MSVC\14.28.29333\include\xutility
; File C:\Program Files (x86)\Microsoft Visual Studio\2019\Community\VC\Tools\MSVC\14.28.29333\include\vector
; File C:\Program Files (x86)\Microsoft Visual Studio\2019\Community\VC\Tools\MSVC\14.28.29333\include\xutility
; File C:\Program Files (x86)\Microsoft Visual Studio\2019\Community\VC\Tools\MSVC\14.28.29333\include\vector
; File C:\Program Files (x86)\Microsoft Visual Studio\2019\Community\VC\Tools\MSVC\14.28.29333\include\xutility
; File C:\Program Files (x86)\Windows Kits\10\Include\10.0.18362.0\ucrt\corecrt_memory.h
; File C:\Program Files (x86)\Microsoft Visual Studio\2019\Community\VC\Tools\MSVC\14.28.29333\include\xutility
; File C:\Program Files (x86)\Windows Kits\10\Include\10.0.18362.0\ucrt\corecrt_memory.h
; File C:\Program Files (x86)\Microsoft Visual Studio\2019\Community\VC\Tools\MSVC\14.28.29333\include\xutility
; File C:\Program Files (x86)\Microsoft Visual Studio\2019\Community\VC\Tools\MSVC\14.28.29333\include\vector
; File D:\Metin2 Server Files\mainline\SRC_2014\Metin2Client\GameLib\MapOutdoor.h
; File C:\Program Files (x86)\Microsoft Visual Studio\2019\Community\VC\Tools\MSVC\14.28.29333\include\xutility
; File C:\Program Files (x86)\Microsoft Visual Studio\2019\Community\VC\Tools\MSVC\14.28.29333\include\vector
; File C:\Program Files (x86)\Microsoft Visual Studio\2019\Community\VC\Tools\MSVC\14.28.29333\include\xutility
; File D:\Metin2 Server Files\mainline\SRC_2014\Metin2Client\GameLib\MapOutdoor.h
; File C:\Program Files (x86)\Microsoft Visual Studio\2019\Community\VC\Tools\MSVC\14.28.29333\include\vector
; File D:\Metin2 Server Files\mainline\SRC_2014\Metin2Client\GameLib\MapOutdoor.h
; File C:\Program Files (x86)\Microsoft Visual Studio\2019\Community\VC\Tools\MSVC\14.28.29333\include\vector
; File D:\Metin2 Server Files\mainline\SRC_2014\Metin2Client\GameLib\MapOutdoor.h
; File C:\Program Files (x86)\Microsoft Visual Studio\2019\Community\VC\Tools\MSVC\14.28.29333\include\vector
; File D:\Metin2 Server Files\mainline\SRC_2014\Metin2Client\GameLib\MapOutdoor.h
; File C:\Program Files (x86)\Microsoft Visual Studio\2019\Community\VC\Tools\MSVC\14.28.29333\include\xutility
; File C:\Program Files (x86)\Windows Kits\10\Include\10.0.18362.0\ucrt\corecrt_memory.h
; File C:\Program Files (x86)\Microsoft Visual Studio\2019\Community\VC\Tools\MSVC\14.28.29333\include\xutility
; File C:\Program Files (x86)\Windows Kits\10\Include\10.0.18362.0\ucrt\corecrt_memory.h
; File C:\Program Files (x86)\Microsoft Visual Studio\2019\Community\VC\Tools\MSVC\14.28.29333\include\xutility
; File C:\Program Files (x86)\Microsoft Visual Studio\2019\Community\VC\Tools\MSVC\14.28.29333\include\vector
; File D:\Metin2 Server Files\mainline\SRC_2014\Metin2Client\GameLib\MapOutdoor.h
; File C:\Program Files (x86)\Microsoft Visual Studio\2019\Community\VC\Tools\MSVC\14.28.29333\include\vector
; File D:\Metin2 Server Files\mainline\SRC_2014\Metin2Client\GameLib\MapOutdoor.h
; File C:\Program Files (x86)\Microsoft Visual Studio\2019\Community\VC\Tools\MSVC\14.28.29333\include\vector
; File D:\Metin2 Server Files\mainline\SRC_2014\Metin2Client\GameLib\MapOutdoor.h
; File C:\Program Files (x86)\Microsoft Visual Studio\2019\Community\VC\Tools\MSVC\14.28.29333\include\vector
; File D:\Metin2 Server Files\mainline\SRC_2014\Metin2Client\GameLib\MapOutdoor.h
; File C:\Program Files (x86)\Microsoft Visual Studio\2019\Community\VC\Tools\MSVC\14.28.29333\include\algorithm
; File C:\Program Files (x86)\Microsoft Visual Studio\2019\Community\VC\Tools\MSVC\14.28.29333\include\xutility
; File C:\Program Files (x86)\Microsoft Visual Studio\2019\Community\VC\Tools\MSVC\14.28.29333\include\algorithm
; File C:\Program Files (x86)\Microsoft Visual Studio\2019\Community\VC\Tools\MSVC\14.28.29333\include\xutility
; File C:\Program Files (x86)\Microsoft Visual Studio\2019\Community\VC\Tools\MSVC\14.28.29333\include\algorithm
;	COMDAT ??$_Inplace_merge_buffer_left@PAUTPatchDrawStruct@CMapOutdoor@@UFSortPatchDrawStructWithTerrainNum@2@@std@@YAXPAUTPatchDrawStruct@CMapOutdoor@@00QAU12@UFSortPatchDrawStructWithTerrainNum@2@@Z
_TEXT	SEGMENT
tv1095 = -20						; size = 4
tv1091 = -16						; size = 4
__Backout$$sroa$737$1$ = -12				; size = 4
tv1106 = -8						; size = 4
_rhsTerrainNumOrder$1$ = -8				; size = 4
tv1094 = -1						; size = 1
tv1090 = -1						; size = 1
__First$ = 8						; size = 4
__Mid$ = 12						; size = 4
__Last$ = 16						; size = 4
__Temp_ptr$ = 20					; size = 4
__Pred$ = 24						; size = 1
??$_Inplace_merge_buffer_left@PAUTPatchDrawStruct@CMapOutdoor@@UFSortPatchDrawStructWithTerrainNum@2@@std@@YAXPAUTPatchDrawStruct@CMapOutdoor@@00QAU12@UFSortPatchDrawStructWithTerrainNum@2@@Z PROC ; std::_Inplace_merge_buffer_left<CMapOutdoor::TPatchDrawStruct *,CMapOutdoor::FSortPatchDrawStructWithTerrainNum>, COMDAT

; 7172 :     _BidIt _First, _BidIt _Mid, _BidIt _Last, _Iter_value_t<_BidIt>* const _Temp_ptr, _Pr _Pred) {

  00000	55		 push	 ebp
  00001	8b ec		 mov	 ebp, esp
  00003	83 ec 14	 sub	 esp, 20			; 00000014H
  00006	53		 push	 ebx
  00007	56		 push	 esi

; 7173 :     // move the range [_First, _Mid) to _Temp_ptr, and merge it with [_Mid, _Last) to _First
; 7174 :     // usual invariants apply
; 7175 :     using _Ptr_ty = _Iter_value_t<_BidIt>*;
; 7176 :     _Uninitialized_backout<_Ptr_ty> _Backout{_Temp_ptr, _Uninitialized_move_unchecked(_First, _Mid, _Temp_ptr)};

  00008	8b 75 0c	 mov	 esi, DWORD PTR __Mid$[ebp]
  0000b	57		 push	 edi
  0000c	ff 75 14	 push	 DWORD PTR __Temp_ptr$[ebp]
  0000f	8b 7d 08	 mov	 edi, DWORD PTR __First$[ebp]
  00012	56		 push	 esi
  00013	57		 push	 edi
  00014	e8 00 00 00 00	 call	 ??$_Uninitialized_move_unchecked@PAUTPatchDrawStruct@CMapOutdoor@@PAU12@@std@@YAPAUTPatchDrawStruct@CMapOutdoor@@PAU12@QAU12@0@Z ; std::_Uninitialized_move_unchecked<CMapOutdoor::TPatchDrawStruct *,CMapOutdoor::TPatchDrawStruct *>

; 7179 :     *_First                  = _STD move(*_Mid); // the lowest element is now in position

  00019	0f 10 06	 movups	 xmm0, XMMWORD PTR [esi]
  0001c	83 c4 0c	 add	 esp, 12			; 0000000cH
; File C:\Program Files (x86)\Microsoft Visual Studio\2019\Community\VC\Tools\MSVC\14.28.29333\include\xmemory

; 1430 :     constexpr _Uninitialized_backout(_NoThrowFwdIt _First_, _NoThrowFwdIt _Last_) : _First(_First_), _Last(_Last_) {}

  0001f	89 45 f4	 mov	 DWORD PTR __Backout$$sroa$737$1$[ebp], eax
; File C:\Program Files (x86)\Microsoft Visual Studio\2019\Community\VC\Tools\MSVC\14.28.29333\include\algorithm

; 7179 :     *_First                  = _STD move(*_Mid); // the lowest element is now in position

  00022	0f 11 07	 movups	 XMMWORD PTR [edi], xmm0

; 7180 :     ++_First;

  00025	83 c7 10	 add	 edi, 16			; 00000010H

; 7181 :     ++_Mid;

  00028	83 c6 10	 add	 esi, 16			; 00000010H
  0002b	89 7d 08	 mov	 DWORD PTR __First$[ebp], edi
  0002e	89 75 0c	 mov	 DWORD PTR __Mid$[ebp], esi
$LL2@Inplace_me:
; File C:\Program Files (x86)\Microsoft Visual Studio\2019\Community\VC\Tools\MSVC\14.28.29333\include\xutility

; 5480 :     _Seek_wrapped(_First, _Find_unchecked(_Get_unwrapped(_First), _Get_unwrapped(_Last), _Val));

  00031	8b 1d 04 00 00
	00		 mov	 ebx, DWORD PTR ?m_TerrainNumVector@FSortPatchDrawStructWithTerrainNum@CMapOutdoor@@2V?$vector@EV?$allocator@E@std@@@std@@A+4

; 5461 :     _First =

  00037	8d 56 04	 lea	 edx, DWORD PTR [esi+4]
  0003a	8b 0d 00 00 00
	00		 mov	 ecx, DWORD PTR ?m_TerrainNumVector@FSortPatchDrawStructWithTerrainNum@CMapOutdoor@@2V?$vector@EV?$allocator@E@std@@@std@@A
  00040	8b c3		 mov	 eax, ebx
  00042	2b c1		 sub	 eax, ecx

; 5480 :     _Seek_wrapped(_First, _Find_unchecked(_Get_unwrapped(_First), _Get_unwrapped(_Last), _Val));

  00044	89 5d f8	 mov	 DWORD PTR tv1106[ebp], ebx
; File C:\Program Files (x86)\Windows Kits\10\Include\10.0.18362.0\ucrt\corecrt_memory.h

; 107  :         return const_cast<void*>(memchr(_Pvc, _C, _N));

  00047	50		 push	 eax
; File C:\Program Files (x86)\Microsoft Visual Studio\2019\Community\VC\Tools\MSVC\14.28.29333\include\xutility

; 5461 :     _First =

  00048	0f b6 02	 movzx	 eax, BYTE PTR [edx]
; File D:\Metin2 Server Files\mainline\SRC_2014\Metin2Client\GameLib\MapOutdoor.h

; 360  : 				DWORD lhsTerrainNumOrder = 0, rhsTerrainNumOrder = 0;

  0004b	33 ff		 xor	 edi, edi
; File C:\Program Files (x86)\Windows Kits\10\Include\10.0.18362.0\ucrt\corecrt_memory.h

; 107  :         return const_cast<void*>(memchr(_Pvc, _C, _N));

  0004d	50		 push	 eax
  0004e	51		 push	 ecx
; File C:\Program Files (x86)\Microsoft Visual Studio\2019\Community\VC\Tools\MSVC\14.28.29333\include\xutility

; 5461 :     _First =

  0004f	89 55 ec	 mov	 DWORD PTR tv1095[ebp], edx
; File C:\Program Files (x86)\Windows Kits\10\Include\10.0.18362.0\ucrt\corecrt_memory.h

; 107  :         return const_cast<void*>(memchr(_Pvc, _C, _N));

  00052	e8 00 00 00 00	 call	 _memchr
; File C:\Program Files (x86)\Microsoft Visual Studio\2019\Community\VC\Tools\MSVC\14.28.29333\include\xutility

; 5463 :     return _First ? _First : _Last;

  00057	85 c0		 test	 eax, eax
  00059	8b cb		 mov	 ecx, ebx
  0005b	0f 45 c8	 cmovne	 ecx, eax
; File C:\Program Files (x86)\Microsoft Visual Studio\2019\Community\VC\Tools\MSVC\14.28.29333\include\vector

; 195  :         _Ptr = _Refancy<_Tptr>(const_cast<value_type*>(_It));

  0005e	51		 push	 ecx
  0005f	e8 00 00 00 00	 call	 ??$_Refancy@PAE$0A@@std@@YAPAEPAE@Z ; std::_Refancy<unsigned char *,0>
; File C:\Program Files (x86)\Microsoft Visual Studio\2019\Community\VC\Tools\MSVC\14.28.29333\include\xutility

; 5461 :     _First =

  00064	8b 0d 00 00 00
	00		 mov	 ecx, DWORD PTR ?m_TerrainNumVector@FSortPatchDrawStructWithTerrainNum@CMapOutdoor@@2V?$vector@EV?$allocator@E@std@@@std@@A
; File C:\Program Files (x86)\Microsoft Visual Studio\2019\Community\VC\Tools\MSVC\14.28.29333\include\vector

; 195  :         _Ptr = _Refancy<_Tptr>(const_cast<value_type*>(_It));

  0006a	8b f0		 mov	 esi, eax
; File C:\Program Files (x86)\Microsoft Visual Studio\2019\Community\VC\Tools\MSVC\14.28.29333\include\xutility

; 5461 :     _First =

  0006c	8b 45 14	 mov	 eax, DWORD PTR __Temp_ptr$[ebp]
  0006f	83 c0 04	 add	 eax, 4
  00072	89 45 f0	 mov	 DWORD PTR tv1091[ebp], eax
  00075	8a 10		 mov	 dl, BYTE PTR [eax]
  00077	8b c3		 mov	 eax, ebx
  00079	2b c1		 sub	 eax, ecx
  0007b	88 55 ff	 mov	 BYTE PTR tv1090[ebp], dl
; File C:\Program Files (x86)\Windows Kits\10\Include\10.0.18362.0\ucrt\corecrt_memory.h

; 107  :         return const_cast<void*>(memchr(_Pvc, _C, _N));

  0007e	50		 push	 eax
; File C:\Program Files (x86)\Microsoft Visual Studio\2019\Community\VC\Tools\MSVC\14.28.29333\include\xutility

; 5461 :     _First =

  0007f	0f b6 c2	 movzx	 eax, dl
; File C:\Program Files (x86)\Windows Kits\10\Include\10.0.18362.0\ucrt\corecrt_memory.h

; 107  :         return const_cast<void*>(memchr(_Pvc, _C, _N));

  00082	50		 push	 eax
  00083	51		 push	 ecx
  00084	e8 00 00 00 00	 call	 _memchr
; File C:\Program Files (x86)\Microsoft Visual Studio\2019\Community\VC\Tools\MSVC\14.28.29333\include\xutility

; 5463 :     return _First ? _First : _Last;

  00089	85 c0		 test	 eax, eax
  0008b	8b cb		 mov	 ecx, ebx
  0008d	0f 45 c8	 cmovne	 ecx, eax
; File C:\Program Files (x86)\Microsoft Visual Studio\2019\Community\VC\Tools\MSVC\14.28.29333\include\vector

; 195  :         _Ptr = _Refancy<_Tptr>(const_cast<value_type*>(_It));

  00090	51		 push	 ecx
  00091	e8 00 00 00 00	 call	 ??$_Refancy@PAE$0A@@std@@YAPAEPAE@Z ; std::_Refancy<unsigned char *,0>
; File D:\Metin2 Server Files\mainline\SRC_2014\Metin2Client\GameLib\MapOutdoor.h

; 367  : 				if (lhsIterator != m_TerrainNumVector.end())

  00096	8b 0d 00 00 00
	00		 mov	 ecx, DWORD PTR ?m_TerrainNumVector@FSortPatchDrawStructWithTerrainNum@CMapOutdoor@@2V?$vector@EV?$allocator@E@std@@@std@@A
; File C:\Program Files (x86)\Microsoft Visual Studio\2019\Community\VC\Tools\MSVC\14.28.29333\include\xutility

; 5481 :     return _First;

  0009c	8b d3		 mov	 edx, ebx
; File C:\Program Files (x86)\Microsoft Visual Studio\2019\Community\VC\Tools\MSVC\14.28.29333\include\vector

; 195  :         _Ptr = _Refancy<_Tptr>(const_cast<value_type*>(_It));

  0009e	83 c4 20	 add	 esp, 32			; 00000020H
; File C:\Program Files (x86)\Microsoft Visual Studio\2019\Community\VC\Tools\MSVC\14.28.29333\include\xutility

; 5481 :     return _First;

  000a1	3b f2		 cmp	 esi, edx
; File D:\Metin2 Server Files\mainline\SRC_2014\Metin2Client\GameLib\MapOutdoor.h

; 367  : 				if (lhsIterator != m_TerrainNumVector.end())

  000a3	74 04		 je	 SHORT $LN15@Inplace_me

; 368  : 				{
; 369  : 					blhsOrderFound = true;

  000a5	8b fe		 mov	 edi, esi
  000a7	2b f9		 sub	 edi, ecx
$LN15@Inplace_me:
; File C:\Program Files (x86)\Microsoft Visual Studio\2019\Community\VC\Tools\MSVC\14.28.29333\include\vector

; 149  :         return _Ptr == _Right._Ptr;

  000a9	3b c2		 cmp	 eax, edx
; File D:\Metin2 Server Files\mainline\SRC_2014\Metin2Client\GameLib\MapOutdoor.h

; 372  : 				if (rhsIterator != m_TerrainNumVector.end())

  000ab	74 04		 je	 SHORT $LN185@Inplace_me
; File C:\Program Files (x86)\Microsoft Visual Studio\2019\Community\VC\Tools\MSVC\14.28.29333\include\vector

; 140  :         return _Ptr - _Right._Ptr;

  000ad	2b c1		 sub	 eax, ecx
; File D:\Metin2 Server Files\mainline\SRC_2014\Metin2Client\GameLib\MapOutdoor.h

; 377  : 				if (!brhsOrderFound)

  000af	eb 3e		 jmp	 SHORT $LN188@Inplace_me
$LN185@Inplace_me:
; File C:\Program Files (x86)\Microsoft Visual Studio\2019\Community\VC\Tools\MSVC\14.28.29333\include\vector

; 704  :         if (_Mylast != _My_data._Myend) {

  000b1	3b 15 08 00 00
	00		 cmp	 edx, DWORD PTR ?m_TerrainNumVector@FSortPatchDrawStructWithTerrainNum@CMapOutdoor@@2V?$vector@EV?$allocator@E@std@@@std@@A+8
  000b7	74 14		 je	 SHORT $LN111@Inplace_me

; 687  :         _Alty_traits::construct(_Getal(), _Unfancy(_Mylast), _STD forward<_Valty>(_Val)...);

  000b9	8a 45 ff	 mov	 al, BYTE PTR tv1090[ebp]
  000bc	88 02		 mov	 BYTE PTR [edx], al

; 688  :         _Orphan_range(_Mylast, _Mylast);
; 689  :         _Ty& _Result = *_Mylast;
; 690  :         ++_Mylast;

  000be	8b 1d 04 00 00
	00		 mov	 ebx, DWORD PTR ?m_TerrainNumVector@FSortPatchDrawStructWithTerrainNum@CMapOutdoor@@2V?$vector@EV?$allocator@E@std@@@std@@A+4
  000c4	43		 inc	 ebx
  000c5	89 1d 04 00 00
	00		 mov	 DWORD PTR ?m_TerrainNumVector@FSortPatchDrawStructWithTerrainNum@CMapOutdoor@@2V?$vector@EV?$allocator@E@std@@@std@@A+4, ebx

; 705  :             return _Emplace_back_with_unused_capacity(_STD forward<_Valty>(_Val)...);

  000cb	eb 17		 jmp	 SHORT $LN110@Inplace_me
$LN111@Inplace_me:

; 706  :         }
; 707  : 
; 708  :         _Ty& _Result = *_Emplace_reallocate(_Mylast, _STD forward<_Valty>(_Val)...);

  000cd	ff 75 f0	 push	 DWORD PTR tv1091[ebp]
  000d0	b9 00 00 00 00	 mov	 ecx, OFFSET ?m_TerrainNumVector@FSortPatchDrawStructWithTerrainNum@CMapOutdoor@@2V?$vector@EV?$allocator@E@std@@@std@@A ; CMapOutdoor::FSortPatchDrawStructWithTerrainNum::m_TerrainNumVector
  000d5	52		 push	 edx
  000d6	e8 00 00 00 00	 call	 ??$_Emplace_reallocate@ABE@?$vector@EV?$allocator@E@std@@@std@@QAEPAEQAEABE@Z ; std::vector<unsigned char,std::allocator<unsigned char> >::_Emplace_reallocate<unsigned char const &>
  000db	8b 1d 04 00 00
	00		 mov	 ebx, DWORD PTR ?m_TerrainNumVector@FSortPatchDrawStructWithTerrainNum@CMapOutdoor@@2V?$vector@EV?$allocator@E@std@@@std@@A+4
  000e1	8b 55 f8	 mov	 edx, DWORD PTR tv1106[ebp]
$LN110@Inplace_me:
; File D:\Metin2 Server Files\mainline\SRC_2014\Metin2Client\GameLib\MapOutdoor.h

; 380  : 					rhsTerrainNumOrder = m_TerrainNumVector.size() -1;

  000e4	8b 0d 00 00 00
	00		 mov	 ecx, DWORD PTR ?m_TerrainNumVector@FSortPatchDrawStructWithTerrainNum@CMapOutdoor@@2V?$vector@EV?$allocator@E@std@@@std@@A
  000ea	8b c3		 mov	 eax, ebx
  000ec	2b c1		 sub	 eax, ecx
  000ee	48		 dec	 eax
$LN188@Inplace_me:

; 381  : 				}
; 382  : 				if (!blhsOrderFound)

  000ef	89 45 f8	 mov	 DWORD PTR _rhsTerrainNumOrder$1$[ebp], eax
  000f2	3b f2		 cmp	 esi, edx
  000f4	75 64		 jne	 SHORT $LN20@Inplace_me
; File C:\Program Files (x86)\Microsoft Visual Studio\2019\Community\VC\Tools\MSVC\14.28.29333\include\xutility

; 5461 :     _First =

  000f6	8b 75 ec	 mov	 esi, DWORD PTR tv1095[ebp]
  000f9	8b c3		 mov	 eax, ebx
  000fb	2b c1		 sub	 eax, ecx
; File C:\Program Files (x86)\Windows Kits\10\Include\10.0.18362.0\ucrt\corecrt_memory.h

; 107  :         return const_cast<void*>(memchr(_Pvc, _C, _N));

  000fd	50		 push	 eax
; File C:\Program Files (x86)\Microsoft Visual Studio\2019\Community\VC\Tools\MSVC\14.28.29333\include\xutility

; 5461 :     _First =

  000fe	0f b6 06	 movzx	 eax, BYTE PTR [esi]
; File C:\Program Files (x86)\Windows Kits\10\Include\10.0.18362.0\ucrt\corecrt_memory.h

; 107  :         return const_cast<void*>(memchr(_Pvc, _C, _N));

  00101	50		 push	 eax
  00102	51		 push	 ecx
  00103	e8 00 00 00 00	 call	 _memchr
; File C:\Program Files (x86)\Microsoft Visual Studio\2019\Community\VC\Tools\MSVC\14.28.29333\include\xutility

; 5463 :     return _First ? _First : _Last;

  00108	85 c0		 test	 eax, eax
  0010a	8b cb		 mov	 ecx, ebx
  0010c	0f 45 c8	 cmovne	 ecx, eax
; File C:\Program Files (x86)\Microsoft Visual Studio\2019\Community\VC\Tools\MSVC\14.28.29333\include\vector

; 195  :         _Ptr = _Refancy<_Tptr>(const_cast<value_type*>(_It));

  0010f	51		 push	 ecx
  00110	e8 00 00 00 00	 call	 ??$_Refancy@PAE$0A@@std@@YAPAEPAE@Z ; std::_Refancy<unsigned char *,0>
; File D:\Metin2 Server Files\mainline\SRC_2014\Metin2Client\GameLib\MapOutdoor.h

; 384  : 					lhsIterator = std::find(m_TerrainNumVector.begin(), m_TerrainNumVector.end(), lhs.byTerrainNum);

  00115	8b f8		 mov	 edi, eax
; File C:\Program Files (x86)\Microsoft Visual Studio\2019\Community\VC\Tools\MSVC\14.28.29333\include\vector

; 195  :         _Ptr = _Refancy<_Tptr>(const_cast<value_type*>(_It));

  00117	83 c4 10	 add	 esp, 16			; 00000010H
; File D:\Metin2 Server Files\mainline\SRC_2014\Metin2Client\GameLib\MapOutdoor.h

; 384  : 					lhsIterator = std::find(m_TerrainNumVector.begin(), m_TerrainNumVector.end(), lhs.byTerrainNum);

  0011a	3b fb		 cmp	 edi, ebx

; 385  : 					if (lhsIterator != m_TerrainNumVector.end())

  0011c	74 08		 je	 SHORT $LN186@Inplace_me
; File C:\Program Files (x86)\Microsoft Visual Studio\2019\Community\VC\Tools\MSVC\14.28.29333\include\vector

; 140  :         return _Ptr - _Right._Ptr;

  0011e	2b 3d 00 00 00
	00		 sub	 edi, DWORD PTR ?m_TerrainNumVector@FSortPatchDrawStructWithTerrainNum@CMapOutdoor@@2V?$vector@EV?$allocator@E@std@@@std@@A
; File D:\Metin2 Server Files\mainline\SRC_2014\Metin2Client\GameLib\MapOutdoor.h

; 390  : 					if (!blhsOrderFound)

  00124	eb 34		 jmp	 SHORT $LN20@Inplace_me
$LN186@Inplace_me:
; File C:\Program Files (x86)\Microsoft Visual Studio\2019\Community\VC\Tools\MSVC\14.28.29333\include\vector

; 704  :         if (_Mylast != _My_data._Myend) {

  00126	3b 1d 08 00 00
	00		 cmp	 ebx, DWORD PTR ?m_TerrainNumVector@FSortPatchDrawStructWithTerrainNum@CMapOutdoor@@2V?$vector@EV?$allocator@E@std@@@std@@A+8
  0012c	74 13		 je	 SHORT $LN163@Inplace_me

; 687  :         _Alty_traits::construct(_Getal(), _Unfancy(_Mylast), _STD forward<_Valty>(_Val)...);

  0012e	8a 06		 mov	 al, BYTE PTR [esi]
  00130	88 03		 mov	 BYTE PTR [ebx], al

; 688  :         _Orphan_range(_Mylast, _Mylast);
; 689  :         _Ty& _Result = *_Mylast;
; 690  :         ++_Mylast;

  00132	8b 3d 04 00 00
	00		 mov	 edi, DWORD PTR ?m_TerrainNumVector@FSortPatchDrawStructWithTerrainNum@CMapOutdoor@@2V?$vector@EV?$allocator@E@std@@@std@@A+4
  00138	47		 inc	 edi
  00139	89 3d 04 00 00
	00		 mov	 DWORD PTR ?m_TerrainNumVector@FSortPatchDrawStructWithTerrainNum@CMapOutdoor@@2V?$vector@EV?$allocator@E@std@@@std@@A+4, edi

; 705  :             return _Emplace_back_with_unused_capacity(_STD forward<_Valty>(_Val)...);

  0013f	eb 12		 jmp	 SHORT $LN162@Inplace_me
$LN163@Inplace_me:

; 706  :         }
; 707  : 
; 708  :         _Ty& _Result = *_Emplace_reallocate(_Mylast, _STD forward<_Valty>(_Val)...);

  00141	56		 push	 esi
  00142	53		 push	 ebx
  00143	b9 00 00 00 00	 mov	 ecx, OFFSET ?m_TerrainNumVector@FSortPatchDrawStructWithTerrainNum@CMapOutdoor@@2V?$vector@EV?$allocator@E@std@@@std@@A ; CMapOutdoor::FSortPatchDrawStructWithTerrainNum::m_TerrainNumVector
  00148	e8 00 00 00 00	 call	 ??$_Emplace_reallocate@ABE@?$vector@EV?$allocator@E@std@@@std@@QAEPAEQAEABE@Z ; std::vector<unsigned char,std::allocator<unsigned char> >::_Emplace_reallocate<unsigned char const &>
  0014d	8b 3d 04 00 00
	00		 mov	 edi, DWORD PTR ?m_TerrainNumVector@FSortPatchDrawStructWithTerrainNum@CMapOutdoor@@2V?$vector@EV?$allocator@E@std@@@std@@A+4
$LN162@Inplace_me:
; File D:\Metin2 Server Files\mainline\SRC_2014\Metin2Client\GameLib\MapOutdoor.h

; 393  : 						lhsTerrainNumOrder = m_TerrainNumVector.size() -1;

  00153	2b 3d 00 00 00
	00		 sub	 edi, DWORD PTR ?m_TerrainNumVector@FSortPatchDrawStructWithTerrainNum@CMapOutdoor@@2V?$vector@EV?$allocator@E@std@@@std@@A
  00159	4f		 dec	 edi
$LN20@Inplace_me:

; 394  : 					}
; 395  : 				}
; 396  : 
; 397  : 				return lhsTerrainNumOrder < rhsTerrainNumOrder;

  0015a	8b 45 08	 mov	 eax, DWORD PTR __First$[ebp]
  0015d	8d 50 10	 lea	 edx, DWORD PTR [eax+16]
  00160	3b 7d f8	 cmp	 edi, DWORD PTR _rhsTerrainNumOrder$1$[ebp]
; File C:\Program Files (x86)\Microsoft Visual Studio\2019\Community\VC\Tools\MSVC\14.28.29333\include\algorithm

; 7183 :         if (_Pred(*_Mid, *_Left_first)) { // take element from the right partition

  00163	73 2a		 jae	 SHORT $LN5@Inplace_me

; 7184 :             *_First = _STD move(*_Mid);

  00165	8b 75 0c	 mov	 esi, DWORD PTR __Mid$[ebp]
  00168	0f 10 06	 movups	 xmm0, XMMWORD PTR [esi]

; 7185 :             ++_First;
; 7186 :             ++_Mid;

  0016b	83 c6 10	 add	 esi, 16			; 00000010H
  0016e	89 75 0c	 mov	 DWORD PTR __Mid$[ebp], esi
  00171	0f 11 00	 movups	 XMMWORD PTR [eax], xmm0

; 7187 :             if (_Mid == _Last) {

  00174	3b 75 10	 cmp	 esi, DWORD PTR __Last$[ebp]
  00177	75 32		 jne	 SHORT $LN8@Inplace_me
; File C:\Program Files (x86)\Microsoft Visual Studio\2019\Community\VC\Tools\MSVC\14.28.29333\include\xutility

; 4628 :             return _Copy_memmove(_First, _Last, _Dest);

  00179	52		 push	 edx
  0017a	ff 75 f4	 push	 DWORD PTR __Backout$$sroa$737$1$[ebp]
  0017d	ff 75 14	 push	 DWORD PTR __Temp_ptr$[ebp]
  00180	e8 00 00 00 00	 call	 ??$_Copy_memmove@PAUTPatchDrawStruct@CMapOutdoor@@PAU12@@std@@YAPAUTPatchDrawStruct@CMapOutdoor@@PAU12@00@Z ; std::_Copy_memmove<CMapOutdoor::TPatchDrawStruct *,CMapOutdoor::TPatchDrawStruct *>
; File C:\Program Files (x86)\Microsoft Visual Studio\2019\Community\VC\Tools\MSVC\14.28.29333\include\algorithm

; 7202 : }

  00185	83 c4 0c	 add	 esp, 12			; 0000000cH
  00188	5f		 pop	 edi
  00189	5e		 pop	 esi
  0018a	5b		 pop	 ebx
  0018b	8b e5		 mov	 esp, ebp
  0018d	5d		 pop	 ebp
  0018e	c3		 ret	 0
$LN5@Inplace_me:

; 7188 :                 _Move_unchecked(_Left_first, _Backout._Last, _First); // move any tail (and the highest element)
; 7189 :                 return;
; 7190 :             }
; 7191 :         } else { // take element from the left partition
; 7192 :             *_First = _STD move(*_Left_first);

  0018f	8b 4d 14	 mov	 ecx, DWORD PTR __Temp_ptr$[ebp]

; 7193 :             ++_First;
; 7194 :             ++_Left_first;
; 7195 :             if (_Left_first == _Left_last) {

  00192	8b 5d f4	 mov	 ebx, DWORD PTR __Backout$$sroa$737$1$[ebp]
  00195	83 c3 f0	 add	 ebx, -16		; fffffff0H
  00198	0f 10 01	 movups	 xmm0, XMMWORD PTR [ecx]
  0019b	83 c1 10	 add	 ecx, 16			; 00000010H
  0019e	89 4d 14	 mov	 DWORD PTR __Temp_ptr$[ebp], ecx
  001a1	0f 11 00	 movups	 XMMWORD PTR [eax], xmm0
  001a4	3b cb		 cmp	 ecx, ebx
  001a6	74 0b		 je	 SHORT $LN182@Inplace_me
  001a8	8b 75 0c	 mov	 esi, DWORD PTR __Mid$[ebp]
$LN8@Inplace_me:

; 7198 :                 return;
; 7199 :             }
; 7200 :         }
; 7201 :     }

  001ab	89 55 08	 mov	 DWORD PTR __First$[ebp], edx
  001ae	e9 7e fe ff ff	 jmp	 $LL2@Inplace_me
$LN182@Inplace_me:
; File C:\Program Files (x86)\Microsoft Visual Studio\2019\Community\VC\Tools\MSVC\14.28.29333\include\xutility

; 4628 :             return _Copy_memmove(_First, _Last, _Dest);

  001b3	52		 push	 edx
  001b4	ff 75 10	 push	 DWORD PTR __Last$[ebp]
  001b7	ff 75 0c	 push	 DWORD PTR __Mid$[ebp]
  001ba	e8 00 00 00 00	 call	 ??$_Copy_memmove@PAUTPatchDrawStruct@CMapOutdoor@@PAU12@@std@@YAPAUTPatchDrawStruct@CMapOutdoor@@PAU12@00@Z ; std::_Copy_memmove<CMapOutdoor::TPatchDrawStruct *,CMapOutdoor::TPatchDrawStruct *>
; File C:\Program Files (x86)\Microsoft Visual Studio\2019\Community\VC\Tools\MSVC\14.28.29333\include\algorithm

; 7197 :                 *_Move_unchecked(_Mid, _Last, _First) = _STD move(*_Left_last);

  001bf	0f 10 03	 movups	 xmm0, XMMWORD PTR [ebx]

; 7202 : }

  001c2	83 c4 0c	 add	 esp, 12			; 0000000cH
  001c5	0f 11 00	 movups	 XMMWORD PTR [eax], xmm0
  001c8	5f		 pop	 edi
  001c9	5e		 pop	 esi
  001ca	5b		 pop	 ebx
  001cb	8b e5		 mov	 esp, ebp
  001cd	5d		 pop	 ebp
  001ce	c3		 ret	 0
??$_Inplace_merge_buffer_left@PAUTPatchDrawStruct@CMapOutdoor@@UFSortPatchDrawStructWithTerrainNum@2@@std@@YAXPAUTPatchDrawStruct@CMapOutdoor@@00QAU12@UFSortPatchDrawStructWithTerrainNum@2@@Z ENDP ; std::_Inplace_merge_buffer_left<CMapOutdoor::TPatchDrawStruct *,CMapOutdoor::FSortPatchDrawStructWithTerrainNum>
_TEXT	ENDS
; Function compile flags: /Ogtp
; File C:\Program Files (x86)\Microsoft Visual Studio\2019\Community\VC\Tools\MSVC\14.28.29333\include\algorithm
; File C:\Program Files (x86)\Microsoft Visual Studio\2019\Community\VC\Tools\MSVC\14.28.29333\include\xutility
; File C:\Program Files (x86)\Windows Kits\10\Include\10.0.18362.0\ucrt\corecrt_memory.h
; File C:\Program Files (x86)\Microsoft Visual Studio\2019\Community\VC\Tools\MSVC\14.28.29333\include\xutility
; File D:\Metin2 Server Files\mainline\SRC_2014\Metin2Client\GameLib\MapOutdoor.h
; File C:\Program Files (x86)\Windows Kits\10\Include\10.0.18362.0\ucrt\corecrt_memory.h
; File C:\Program Files (x86)\Microsoft Visual Studio\2019\Community\VC\Tools\MSVC\14.28.29333\include\xutility
; File C:\Program Files (x86)\Windows Kits\10\Include\10.0.18362.0\ucrt\corecrt_memory.h
; File C:\Program Files (x86)\Microsoft Visual Studio\2019\Community\VC\Tools\MSVC\14.28.29333\include\xutility
; File C:\Program Files (x86)\Microsoft Visual Studio\2019\Community\VC\Tools\MSVC\14.28.29333\include\vector
; File C:\Program Files (x86)\Microsoft Visual Studio\2019\Community\VC\Tools\MSVC\14.28.29333\include\xutility
; File C:\Program Files (x86)\Microsoft Visual Studio\2019\Community\VC\Tools\MSVC\14.28.29333\include\vector
; File C:\Program Files (x86)\Microsoft Visual Studio\2019\Community\VC\Tools\MSVC\14.28.29333\include\xutility
; File C:\Program Files (x86)\Windows Kits\10\Include\10.0.18362.0\ucrt\corecrt_memory.h
; File C:\Program Files (x86)\Microsoft Visual Studio\2019\Community\VC\Tools\MSVC\14.28.29333\include\xutility
; File C:\Program Files (x86)\Windows Kits\10\Include\10.0.18362.0\ucrt\corecrt_memory.h
; File C:\Program Files (x86)\Microsoft Visual Studio\2019\Community\VC\Tools\MSVC\14.28.29333\include\xutility
; File C:\Program Files (x86)\Microsoft Visual Studio\2019\Community\VC\Tools\MSVC\14.28.29333\include\vector
; File D:\Metin2 Server Files\mainline\SRC_2014\Metin2Client\GameLib\MapOutdoor.h
; File C:\Program Files (x86)\Microsoft Visual Studio\2019\Community\VC\Tools\MSVC\14.28.29333\include\xutility
; File C:\Program Files (x86)\Microsoft Visual Studio\2019\Community\VC\Tools\MSVC\14.28.29333\include\vector
; File C:\Program Files (x86)\Microsoft Visual Studio\2019\Community\VC\Tools\MSVC\14.28.29333\include\xutility
; File D:\Metin2 Server Files\mainline\SRC_2014\Metin2Client\GameLib\MapOutdoor.h
; File C:\Program Files (x86)\Microsoft Visual Studio\2019\Community\VC\Tools\MSVC\14.28.29333\include\vector
; File D:\Metin2 Server Files\mainline\SRC_2014\Metin2Client\GameLib\MapOutdoor.h
; File C:\Program Files (x86)\Microsoft Visual Studio\2019\Community\VC\Tools\MSVC\14.28.29333\include\vector
; File D:\Metin2 Server Files\mainline\SRC_2014\Metin2Client\GameLib\MapOutdoor.h
; File C:\Program Files (x86)\Microsoft Visual Studio\2019\Community\VC\Tools\MSVC\14.28.29333\include\vector
; File D:\Metin2 Server Files\mainline\SRC_2014\Metin2Client\GameLib\MapOutdoor.h
; File C:\Program Files (x86)\Microsoft Visual Studio\2019\Community\VC\Tools\MSVC\14.28.29333\include\xutility
; File C:\Program Files (x86)\Windows Kits\10\Include\10.0.18362.0\ucrt\corecrt_memory.h
; File C:\Program Files (x86)\Microsoft Visual Studio\2019\Community\VC\Tools\MSVC\14.28.29333\include\xutility
; File C:\Program Files (x86)\Windows Kits\10\Include\10.0.18362.0\ucrt\corecrt_memory.h
; File C:\Program Files (x86)\Microsoft Visual Studio\2019\Community\VC\Tools\MSVC\14.28.29333\include\xutility
; File C:\Program Files (x86)\Microsoft Visual Studio\2019\Community\VC\Tools\MSVC\14.28.29333\include\vector
; File D:\Metin2 Server Files\mainline\SRC_2014\Metin2Client\GameLib\MapOutdoor.h
; File C:\Program Files (x86)\Microsoft Visual Studio\2019\Community\VC\Tools\MSVC\14.28.29333\include\vector
; File D:\Metin2 Server Files\mainline\SRC_2014\Metin2Client\GameLib\MapOutdoor.h
; File C:\Program Files (x86)\Microsoft Visual Studio\2019\Community\VC\Tools\MSVC\14.28.29333\include\vector
; File D:\Metin2 Server Files\mainline\SRC_2014\Metin2Client\GameLib\MapOutdoor.h
; File C:\Program Files (x86)\Microsoft Visual Studio\2019\Community\VC\Tools\MSVC\14.28.29333\include\vector
; File D:\Metin2 Server Files\mainline\SRC_2014\Metin2Client\GameLib\MapOutdoor.h
; File C:\Program Files (x86)\Microsoft Visual Studio\2019\Community\VC\Tools\MSVC\14.28.29333\include\algorithm
; File C:\Program Files (x86)\Microsoft Visual Studio\2019\Community\VC\Tools\MSVC\14.28.29333\include\xutility
; File C:\Program Files (x86)\Microsoft Visual Studio\2019\Community\VC\Tools\MSVC\14.28.29333\include\algorithm
; File C:\Program Files (x86)\Microsoft Visual Studio\2019\Community\VC\Tools\MSVC\14.28.29333\include\xutility
; File C:\Program Files (x86)\Microsoft Visual Studio\2019\Community\VC\Tools\MSVC\14.28.29333\include\algorithm
;	COMDAT ??$_Merge_move@PAUTPatchDrawStruct@CMapOutdoor@@PAU12@UFSortPatchDrawStructWithTerrainNum@2@@std@@YAPAUTPatchDrawStruct@CMapOutdoor@@PAU12@QAU12@10UFSortPatchDrawStructWithTerrainNum@2@@Z
_TEXT	SEGMENT
tv1059 = -20						; size = 4
tv1054 = -16						; size = 4
__Next$1$ = -12						; size = 4
tv1069 = -8						; size = 4
_rhsTerrainNumOrder$1$ = -8				; size = 4
tv1057 = -1						; size = 1
tv1053 = -1						; size = 1
__First$ = 8						; size = 4
__Mid$ = 12						; size = 4
__Last$ = 16						; size = 4
__Dest$ = 20						; size = 4
__Pred$ = 24						; size = 1
??$_Merge_move@PAUTPatchDrawStruct@CMapOutdoor@@PAU12@UFSortPatchDrawStructWithTerrainNum@2@@std@@YAPAUTPatchDrawStruct@CMapOutdoor@@PAU12@QAU12@10UFSortPatchDrawStructWithTerrainNum@2@@Z PROC ; std::_Merge_move<CMapOutdoor::TPatchDrawStruct *,CMapOutdoor::TPatchDrawStruct *,CMapOutdoor::FSortPatchDrawStructWithTerrainNum>, COMDAT

; 7842 : _OutIt _Merge_move(_InIt _First, const _InIt _Mid, const _InIt _Last, _OutIt _Dest, _Pr _Pred) {

  00000	55		 push	 ebp
  00001	8b ec		 mov	 ebp, esp
  00003	83 ec 14	 sub	 esp, 20			; 00000014H

; 7843 :     // move merging adjacent ranges [_First, _Mid) and [_Mid, _Last) to _Dest
; 7844 :     // pre: _First != _Mid && _Mid != _Last
; 7845 :     _InIt _Next = _Mid;

  00006	8b 45 0c	 mov	 eax, DWORD PTR __Mid$[ebp]
  00009	53		 push	 ebx
  0000a	56		 push	 esi
  0000b	89 45 f4	 mov	 DWORD PTR __Next$1$[ebp], eax
  0000e	57		 push	 edi
  0000f	90		 npad	 1
$LL2@Merge_move:
; File C:\Program Files (x86)\Microsoft Visual Studio\2019\Community\VC\Tools\MSVC\14.28.29333\include\xutility

; 5480 :     _Seek_wrapped(_First, _Find_unchecked(_Get_unwrapped(_First), _Get_unwrapped(_Last), _Val));

  00010	8b 1d 04 00 00
	00		 mov	 ebx, DWORD PTR ?m_TerrainNumVector@FSortPatchDrawStructWithTerrainNum@CMapOutdoor@@2V?$vector@EV?$allocator@E@std@@@std@@A+4

; 5461 :     _First =

  00016	8d 50 04	 lea	 edx, DWORD PTR [eax+4]
  00019	8b 0d 00 00 00
	00		 mov	 ecx, DWORD PTR ?m_TerrainNumVector@FSortPatchDrawStructWithTerrainNum@CMapOutdoor@@2V?$vector@EV?$allocator@E@std@@@std@@A
  0001f	8b c3		 mov	 eax, ebx
  00021	2b c1		 sub	 eax, ecx

; 5480 :     _Seek_wrapped(_First, _Find_unchecked(_Get_unwrapped(_First), _Get_unwrapped(_Last), _Val));

  00023	89 5d f8	 mov	 DWORD PTR tv1069[ebp], ebx
; File C:\Program Files (x86)\Windows Kits\10\Include\10.0.18362.0\ucrt\corecrt_memory.h

; 107  :         return const_cast<void*>(memchr(_Pvc, _C, _N));

  00026	50		 push	 eax
; File C:\Program Files (x86)\Microsoft Visual Studio\2019\Community\VC\Tools\MSVC\14.28.29333\include\xutility

; 5461 :     _First =

  00027	0f b6 02	 movzx	 eax, BYTE PTR [edx]
; File D:\Metin2 Server Files\mainline\SRC_2014\Metin2Client\GameLib\MapOutdoor.h

; 360  : 				DWORD lhsTerrainNumOrder = 0, rhsTerrainNumOrder = 0;

  0002a	33 ff		 xor	 edi, edi
; File C:\Program Files (x86)\Windows Kits\10\Include\10.0.18362.0\ucrt\corecrt_memory.h

; 107  :         return const_cast<void*>(memchr(_Pvc, _C, _N));

  0002c	50		 push	 eax
  0002d	51		 push	 ecx
; File C:\Program Files (x86)\Microsoft Visual Studio\2019\Community\VC\Tools\MSVC\14.28.29333\include\xutility

; 5461 :     _First =

  0002e	89 55 ec	 mov	 DWORD PTR tv1059[ebp], edx
; File C:\Program Files (x86)\Windows Kits\10\Include\10.0.18362.0\ucrt\corecrt_memory.h

; 107  :         return const_cast<void*>(memchr(_Pvc, _C, _N));

  00031	e8 00 00 00 00	 call	 _memchr
; File C:\Program Files (x86)\Microsoft Visual Studio\2019\Community\VC\Tools\MSVC\14.28.29333\include\xutility

; 5463 :     return _First ? _First : _Last;

  00036	85 c0		 test	 eax, eax
  00038	8b cb		 mov	 ecx, ebx
  0003a	0f 45 c8	 cmovne	 ecx, eax
; File C:\Program Files (x86)\Microsoft Visual Studio\2019\Community\VC\Tools\MSVC\14.28.29333\include\vector

; 195  :         _Ptr = _Refancy<_Tptr>(const_cast<value_type*>(_It));

  0003d	51		 push	 ecx
  0003e	e8 00 00 00 00	 call	 ??$_Refancy@PAE$0A@@std@@YAPAEPAE@Z ; std::_Refancy<unsigned char *,0>
; File C:\Program Files (x86)\Microsoft Visual Studio\2019\Community\VC\Tools\MSVC\14.28.29333\include\xutility

; 5461 :     _First =

  00043	8b 0d 00 00 00
	00		 mov	 ecx, DWORD PTR ?m_TerrainNumVector@FSortPatchDrawStructWithTerrainNum@CMapOutdoor@@2V?$vector@EV?$allocator@E@std@@@std@@A
; File C:\Program Files (x86)\Microsoft Visual Studio\2019\Community\VC\Tools\MSVC\14.28.29333\include\vector

; 195  :         _Ptr = _Refancy<_Tptr>(const_cast<value_type*>(_It));

  00049	8b f0		 mov	 esi, eax
; File C:\Program Files (x86)\Microsoft Visual Studio\2019\Community\VC\Tools\MSVC\14.28.29333\include\xutility

; 5461 :     _First =

  0004b	8b 45 08	 mov	 eax, DWORD PTR __First$[ebp]
  0004e	83 c0 04	 add	 eax, 4
  00051	89 45 f0	 mov	 DWORD PTR tv1054[ebp], eax
  00054	8a 10		 mov	 dl, BYTE PTR [eax]
  00056	8b c3		 mov	 eax, ebx
  00058	2b c1		 sub	 eax, ecx
  0005a	88 55 ff	 mov	 BYTE PTR tv1053[ebp], dl
; File C:\Program Files (x86)\Windows Kits\10\Include\10.0.18362.0\ucrt\corecrt_memory.h

; 107  :         return const_cast<void*>(memchr(_Pvc, _C, _N));

  0005d	50		 push	 eax
; File C:\Program Files (x86)\Microsoft Visual Studio\2019\Community\VC\Tools\MSVC\14.28.29333\include\xutility

; 5461 :     _First =

  0005e	0f b6 c2	 movzx	 eax, dl
; File C:\Program Files (x86)\Windows Kits\10\Include\10.0.18362.0\ucrt\corecrt_memory.h

; 107  :         return const_cast<void*>(memchr(_Pvc, _C, _N));

  00061	50		 push	 eax
  00062	51		 push	 ecx
  00063	e8 00 00 00 00	 call	 _memchr
; File C:\Program Files (x86)\Microsoft Visual Studio\2019\Community\VC\Tools\MSVC\14.28.29333\include\xutility

; 5463 :     return _First ? _First : _Last;

  00068	85 c0		 test	 eax, eax
  0006a	8b cb		 mov	 ecx, ebx
  0006c	0f 45 c8	 cmovne	 ecx, eax
; File C:\Program Files (x86)\Microsoft Visual Studio\2019\Community\VC\Tools\MSVC\14.28.29333\include\vector

; 195  :         _Ptr = _Refancy<_Tptr>(const_cast<value_type*>(_It));

  0006f	51		 push	 ecx
  00070	e8 00 00 00 00	 call	 ??$_Refancy@PAE$0A@@std@@YAPAEPAE@Z ; std::_Refancy<unsigned char *,0>
; File D:\Metin2 Server Files\mainline\SRC_2014\Metin2Client\GameLib\MapOutdoor.h

; 367  : 				if (lhsIterator != m_TerrainNumVector.end())

  00075	8b 0d 00 00 00
	00		 mov	 ecx, DWORD PTR ?m_TerrainNumVector@FSortPatchDrawStructWithTerrainNum@CMapOutdoor@@2V?$vector@EV?$allocator@E@std@@@std@@A
; File C:\Program Files (x86)\Microsoft Visual Studio\2019\Community\VC\Tools\MSVC\14.28.29333\include\xutility

; 5481 :     return _First;

  0007b	8b d3		 mov	 edx, ebx
; File C:\Program Files (x86)\Microsoft Visual Studio\2019\Community\VC\Tools\MSVC\14.28.29333\include\vector

; 195  :         _Ptr = _Refancy<_Tptr>(const_cast<value_type*>(_It));

  0007d	83 c4 20	 add	 esp, 32			; 00000020H
; File C:\Program Files (x86)\Microsoft Visual Studio\2019\Community\VC\Tools\MSVC\14.28.29333\include\xutility

; 5481 :     return _First;

  00080	3b f2		 cmp	 esi, edx
; File D:\Metin2 Server Files\mainline\SRC_2014\Metin2Client\GameLib\MapOutdoor.h

; 367  : 				if (lhsIterator != m_TerrainNumVector.end())

  00082	74 04		 je	 SHORT $LN11@Merge_move

; 368  : 				{
; 369  : 					blhsOrderFound = true;

  00084	8b fe		 mov	 edi, esi
  00086	2b f9		 sub	 edi, ecx
$LN11@Merge_move:
; File C:\Program Files (x86)\Microsoft Visual Studio\2019\Community\VC\Tools\MSVC\14.28.29333\include\vector

; 149  :         return _Ptr == _Right._Ptr;

  00088	3b c2		 cmp	 eax, edx
; File D:\Metin2 Server Files\mainline\SRC_2014\Metin2Client\GameLib\MapOutdoor.h

; 372  : 				if (rhsIterator != m_TerrainNumVector.end())

  0008a	74 04		 je	 SHORT $LN181@Merge_move
; File C:\Program Files (x86)\Microsoft Visual Studio\2019\Community\VC\Tools\MSVC\14.28.29333\include\vector

; 140  :         return _Ptr - _Right._Ptr;

  0008c	2b c1		 sub	 eax, ecx
; File D:\Metin2 Server Files\mainline\SRC_2014\Metin2Client\GameLib\MapOutdoor.h

; 377  : 				if (!brhsOrderFound)

  0008e	eb 3e		 jmp	 SHORT $LN184@Merge_move
$LN181@Merge_move:
; File C:\Program Files (x86)\Microsoft Visual Studio\2019\Community\VC\Tools\MSVC\14.28.29333\include\vector

; 704  :         if (_Mylast != _My_data._Myend) {

  00090	3b 15 08 00 00
	00		 cmp	 edx, DWORD PTR ?m_TerrainNumVector@FSortPatchDrawStructWithTerrainNum@CMapOutdoor@@2V?$vector@EV?$allocator@E@std@@@std@@A+8
  00096	74 14		 je	 SHORT $LN107@Merge_move

; 687  :         _Alty_traits::construct(_Getal(), _Unfancy(_Mylast), _STD forward<_Valty>(_Val)...);

  00098	8a 45 ff	 mov	 al, BYTE PTR tv1053[ebp]
  0009b	88 02		 mov	 BYTE PTR [edx], al

; 688  :         _Orphan_range(_Mylast, _Mylast);
; 689  :         _Ty& _Result = *_Mylast;
; 690  :         ++_Mylast;

  0009d	8b 1d 04 00 00
	00		 mov	 ebx, DWORD PTR ?m_TerrainNumVector@FSortPatchDrawStructWithTerrainNum@CMapOutdoor@@2V?$vector@EV?$allocator@E@std@@@std@@A+4
  000a3	43		 inc	 ebx
  000a4	89 1d 04 00 00
	00		 mov	 DWORD PTR ?m_TerrainNumVector@FSortPatchDrawStructWithTerrainNum@CMapOutdoor@@2V?$vector@EV?$allocator@E@std@@@std@@A+4, ebx

; 705  :             return _Emplace_back_with_unused_capacity(_STD forward<_Valty>(_Val)...);

  000aa	eb 17		 jmp	 SHORT $LN106@Merge_move
$LN107@Merge_move:

; 706  :         }
; 707  : 
; 708  :         _Ty& _Result = *_Emplace_reallocate(_Mylast, _STD forward<_Valty>(_Val)...);

  000ac	ff 75 f0	 push	 DWORD PTR tv1054[ebp]
  000af	b9 00 00 00 00	 mov	 ecx, OFFSET ?m_TerrainNumVector@FSortPatchDrawStructWithTerrainNum@CMapOutdoor@@2V?$vector@EV?$allocator@E@std@@@std@@A ; CMapOutdoor::FSortPatchDrawStructWithTerrainNum::m_TerrainNumVector
  000b4	52		 push	 edx
  000b5	e8 00 00 00 00	 call	 ??$_Emplace_reallocate@ABE@?$vector@EV?$allocator@E@std@@@std@@QAEPAEQAEABE@Z ; std::vector<unsigned char,std::allocator<unsigned char> >::_Emplace_reallocate<unsigned char const &>
  000ba	8b 1d 04 00 00
	00		 mov	 ebx, DWORD PTR ?m_TerrainNumVector@FSortPatchDrawStructWithTerrainNum@CMapOutdoor@@2V?$vector@EV?$allocator@E@std@@@std@@A+4
  000c0	8b 55 f8	 mov	 edx, DWORD PTR tv1069[ebp]
$LN106@Merge_move:
; File D:\Metin2 Server Files\mainline\SRC_2014\Metin2Client\GameLib\MapOutdoor.h

; 380  : 					rhsTerrainNumOrder = m_TerrainNumVector.size() -1;

  000c3	8b 0d 00 00 00
	00		 mov	 ecx, DWORD PTR ?m_TerrainNumVector@FSortPatchDrawStructWithTerrainNum@CMapOutdoor@@2V?$vector@EV?$allocator@E@std@@@std@@A
  000c9	8b c3		 mov	 eax, ebx
  000cb	2b c1		 sub	 eax, ecx
  000cd	48		 dec	 eax
$LN184@Merge_move:

; 381  : 				}
; 382  : 				if (!blhsOrderFound)

  000ce	89 45 f8	 mov	 DWORD PTR _rhsTerrainNumOrder$1$[ebp], eax
  000d1	3b f2		 cmp	 esi, edx
  000d3	75 64		 jne	 SHORT $LN16@Merge_move
; File C:\Program Files (x86)\Microsoft Visual Studio\2019\Community\VC\Tools\MSVC\14.28.29333\include\xutility

; 5461 :     _First =

  000d5	8b 75 ec	 mov	 esi, DWORD PTR tv1059[ebp]
  000d8	8b c3		 mov	 eax, ebx
  000da	2b c1		 sub	 eax, ecx
; File C:\Program Files (x86)\Windows Kits\10\Include\10.0.18362.0\ucrt\corecrt_memory.h

; 107  :         return const_cast<void*>(memchr(_Pvc, _C, _N));

  000dc	50		 push	 eax
; File C:\Program Files (x86)\Microsoft Visual Studio\2019\Community\VC\Tools\MSVC\14.28.29333\include\xutility

; 5461 :     _First =

  000dd	0f b6 06	 movzx	 eax, BYTE PTR [esi]
; File C:\Program Files (x86)\Windows Kits\10\Include\10.0.18362.0\ucrt\corecrt_memory.h

; 107  :         return const_cast<void*>(memchr(_Pvc, _C, _N));

  000e0	50		 push	 eax
  000e1	51		 push	 ecx
  000e2	e8 00 00 00 00	 call	 _memchr
; File C:\Program Files (x86)\Microsoft Visual Studio\2019\Community\VC\Tools\MSVC\14.28.29333\include\xutility

; 5463 :     return _First ? _First : _Last;

  000e7	85 c0		 test	 eax, eax
  000e9	8b cb		 mov	 ecx, ebx
  000eb	0f 45 c8	 cmovne	 ecx, eax
; File C:\Program Files (x86)\Microsoft Visual Studio\2019\Community\VC\Tools\MSVC\14.28.29333\include\vector

; 195  :         _Ptr = _Refancy<_Tptr>(const_cast<value_type*>(_It));

  000ee	51		 push	 ecx
  000ef	e8 00 00 00 00	 call	 ??$_Refancy@PAE$0A@@std@@YAPAEPAE@Z ; std::_Refancy<unsigned char *,0>
; File D:\Metin2 Server Files\mainline\SRC_2014\Metin2Client\GameLib\MapOutdoor.h

; 384  : 					lhsIterator = std::find(m_TerrainNumVector.begin(), m_TerrainNumVector.end(), lhs.byTerrainNum);

  000f4	8b f8		 mov	 edi, eax
; File C:\Program Files (x86)\Microsoft Visual Studio\2019\Community\VC\Tools\MSVC\14.28.29333\include\vector

; 195  :         _Ptr = _Refancy<_Tptr>(const_cast<value_type*>(_It));

  000f6	83 c4 10	 add	 esp, 16			; 00000010H
; File D:\Metin2 Server Files\mainline\SRC_2014\Metin2Client\GameLib\MapOutdoor.h

; 384  : 					lhsIterator = std::find(m_TerrainNumVector.begin(), m_TerrainNumVector.end(), lhs.byTerrainNum);

  000f9	3b fb		 cmp	 edi, ebx

; 385  : 					if (lhsIterator != m_TerrainNumVector.end())

  000fb	74 08		 je	 SHORT $LN182@Merge_move
; File C:\Program Files (x86)\Microsoft Visual Studio\2019\Community\VC\Tools\MSVC\14.28.29333\include\vector

; 140  :         return _Ptr - _Right._Ptr;

  000fd	2b 3d 00 00 00
	00		 sub	 edi, DWORD PTR ?m_TerrainNumVector@FSortPatchDrawStructWithTerrainNum@CMapOutdoor@@2V?$vector@EV?$allocator@E@std@@@std@@A
; File D:\Metin2 Server Files\mainline\SRC_2014\Metin2Client\GameLib\MapOutdoor.h

; 390  : 					if (!blhsOrderFound)

  00103	eb 34		 jmp	 SHORT $LN16@Merge_move
$LN182@Merge_move:
; File C:\Program Files (x86)\Microsoft Visual Studio\2019\Community\VC\Tools\MSVC\14.28.29333\include\vector

; 704  :         if (_Mylast != _My_data._Myend) {

  00105	3b 1d 08 00 00
	00		 cmp	 ebx, DWORD PTR ?m_TerrainNumVector@FSortPatchDrawStructWithTerrainNum@CMapOutdoor@@2V?$vector@EV?$allocator@E@std@@@std@@A+8
  0010b	74 13		 je	 SHORT $LN159@Merge_move

; 687  :         _Alty_traits::construct(_Getal(), _Unfancy(_Mylast), _STD forward<_Valty>(_Val)...);

  0010d	8a 06		 mov	 al, BYTE PTR [esi]
  0010f	88 03		 mov	 BYTE PTR [ebx], al

; 688  :         _Orphan_range(_Mylast, _Mylast);
; 689  :         _Ty& _Result = *_Mylast;
; 690  :         ++_Mylast;

  00111	8b 3d 04 00 00
	00		 mov	 edi, DWORD PTR ?m_TerrainNumVector@FSortPatchDrawStructWithTerrainNum@CMapOutdoor@@2V?$vector@EV?$allocator@E@std@@@std@@A+4
  00117	47		 inc	 edi
  00118	89 3d 04 00 00
	00		 mov	 DWORD PTR ?m_TerrainNumVector@FSortPatchDrawStructWithTerrainNum@CMapOutdoor@@2V?$vector@EV?$allocator@E@std@@@std@@A+4, edi

; 705  :             return _Emplace_back_with_unused_capacity(_STD forward<_Valty>(_Val)...);

  0011e	eb 12		 jmp	 SHORT $LN158@Merge_move
$LN159@Merge_move:

; 706  :         }
; 707  : 
; 708  :         _Ty& _Result = *_Emplace_reallocate(_Mylast, _STD forward<_Valty>(_Val)...);

  00120	56		 push	 esi
  00121	53		 push	 ebx
  00122	b9 00 00 00 00	 mov	 ecx, OFFSET ?m_TerrainNumVector@FSortPatchDrawStructWithTerrainNum@CMapOutdoor@@2V?$vector@EV?$allocator@E@std@@@std@@A ; CMapOutdoor::FSortPatchDrawStructWithTerrainNum::m_TerrainNumVector
  00127	e8 00 00 00 00	 call	 ??$_Emplace_reallocate@ABE@?$vector@EV?$allocator@E@std@@@std@@QAEPAEQAEABE@Z ; std::vector<unsigned char,std::allocator<unsigned char> >::_Emplace_reallocate<unsigned char const &>
  0012c	8b 3d 04 00 00
	00		 mov	 edi, DWORD PTR ?m_TerrainNumVector@FSortPatchDrawStructWithTerrainNum@CMapOutdoor@@2V?$vector@EV?$allocator@E@std@@@std@@A+4
$LN158@Merge_move:
; File D:\Metin2 Server Files\mainline\SRC_2014\Metin2Client\GameLib\MapOutdoor.h

; 393  : 						lhsTerrainNumOrder = m_TerrainNumVector.size() -1;

  00132	2b 3d 00 00 00
	00		 sub	 edi, DWORD PTR ?m_TerrainNumVector@FSortPatchDrawStructWithTerrainNum@CMapOutdoor@@2V?$vector@EV?$allocator@E@std@@@std@@A
  00138	4f		 dec	 edi
$LN16@Merge_move:

; 394  : 					}
; 395  : 				}
; 396  : 
; 397  : 				return lhsTerrainNumOrder < rhsTerrainNumOrder;

  00139	8b 4d 14	 mov	 ecx, DWORD PTR __Dest$[ebp]
  0013c	8d 51 10	 lea	 edx, DWORD PTR [ecx+16]
  0013f	3b 7d f8	 cmp	 edi, DWORD PTR _rhsTerrainNumOrder$1$[ebp]
; File C:\Program Files (x86)\Microsoft Visual Studio\2019\Community\VC\Tools\MSVC\14.28.29333\include\algorithm

; 7847 :         if (_DEBUG_LT_PRED(_Pred, *_Next, *_First)) {

  00142	73 2a		 jae	 SHORT $LN5@Merge_move

; 7848 :             *_Dest = _STD move(*_Next);

  00144	8b 45 f4	 mov	 eax, DWORD PTR __Next$1$[ebp]
  00147	0f 10 00	 movups	 xmm0, XMMWORD PTR [eax]

; 7849 :             ++_Dest;
; 7850 :             ++_Next;

  0014a	83 c0 10	 add	 eax, 16			; 00000010H
  0014d	89 45 f4	 mov	 DWORD PTR __Next$1$[ebp], eax
  00150	0f 11 01	 movups	 XMMWORD PTR [ecx], xmm0

; 7851 : 
; 7852 :             if (_Next == _Last) {

  00153	3b 45 10	 cmp	 eax, DWORD PTR __Last$[ebp]
  00156	75 2d		 jne	 SHORT $LN8@Merge_move
; File C:\Program Files (x86)\Microsoft Visual Studio\2019\Community\VC\Tools\MSVC\14.28.29333\include\xutility

; 4628 :             return _Copy_memmove(_First, _Last, _Dest);

  00158	52		 push	 edx
  00159	ff 75 0c	 push	 DWORD PTR __Mid$[ebp]
  0015c	ff 75 08	 push	 DWORD PTR __First$[ebp]
; File C:\Program Files (x86)\Microsoft Visual Studio\2019\Community\VC\Tools\MSVC\14.28.29333\include\algorithm

; 7865 : }

  0015f	e8 00 00 00 00	 call	 ??$_Copy_memmove@PAUTPatchDrawStruct@CMapOutdoor@@PAU12@@std@@YAPAUTPatchDrawStruct@CMapOutdoor@@PAU12@00@Z ; std::_Copy_memmove<CMapOutdoor::TPatchDrawStruct *,CMapOutdoor::TPatchDrawStruct *>
  00164	83 c4 0c	 add	 esp, 12			; 0000000cH
  00167	5f		 pop	 edi
  00168	5e		 pop	 esi
  00169	5b		 pop	 ebx
  0016a	8b e5		 mov	 esp, ebp
  0016c	5d		 pop	 ebp
  0016d	c3		 ret	 0
$LN5@Merge_move:

; 7853 :                 return _Move_unchecked(_First, _Mid, _Dest);
; 7854 :             }
; 7855 :         } else {
; 7856 :             *_Dest = _STD move(*_First);

  0016e	8b 45 08	 mov	 eax, DWORD PTR __First$[ebp]
  00171	0f 10 00	 movups	 xmm0, XMMWORD PTR [eax]

; 7857 :             ++_Dest;
; 7858 :             ++_First;

  00174	83 c0 10	 add	 eax, 16			; 00000010H
  00177	89 45 08	 mov	 DWORD PTR __First$[ebp], eax
  0017a	0f 11 01	 movups	 XMMWORD PTR [ecx], xmm0

; 7859 : 
; 7860 :             if (_First == _Mid) {

  0017d	3b 45 0c	 cmp	 eax, DWORD PTR __Mid$[ebp]
  00180	74 0b		 je	 SHORT $LN178@Merge_move
  00182	8b 45 f4	 mov	 eax, DWORD PTR __Next$1$[ebp]
$LN8@Merge_move:

; 7861 :                 return _Move_unchecked(_Next, _Last, _Dest);
; 7862 :             }
; 7863 :         }
; 7864 :     }

  00185	89 55 14	 mov	 DWORD PTR __Dest$[ebp], edx
  00188	e9 83 fe ff ff	 jmp	 $LL2@Merge_move
$LN178@Merge_move:
; File C:\Program Files (x86)\Microsoft Visual Studio\2019\Community\VC\Tools\MSVC\14.28.29333\include\xutility

; 4628 :             return _Copy_memmove(_First, _Last, _Dest);

  0018d	52		 push	 edx
  0018e	ff 75 10	 push	 DWORD PTR __Last$[ebp]
  00191	ff 75 f4	 push	 DWORD PTR __Next$1$[ebp]
; File C:\Program Files (x86)\Microsoft Visual Studio\2019\Community\VC\Tools\MSVC\14.28.29333\include\algorithm

; 7865 : }

  00194	e8 00 00 00 00	 call	 ??$_Copy_memmove@PAUTPatchDrawStruct@CMapOutdoor@@PAU12@@std@@YAPAUTPatchDrawStruct@CMapOutdoor@@PAU12@00@Z ; std::_Copy_memmove<CMapOutdoor::TPatchDrawStruct *,CMapOutdoor::TPatchDrawStruct *>
  00199	83 c4 0c	 add	 esp, 12			; 0000000cH
  0019c	5f		 pop	 edi
  0019d	5e		 pop	 esi
  0019e	5b		 pop	 ebx
  0019f	8b e5		 mov	 esp, ebp
  001a1	5d		 pop	 ebp
  001a2	c3		 ret	 0
??$_Merge_move@PAUTPatchDrawStruct@CMapOutdoor@@PAU12@UFSortPatchDrawStructWithTerrainNum@2@@std@@YAPAUTPatchDrawStruct@CMapOutdoor@@PAU12@QAU12@10UFSortPatchDrawStructWithTerrainNum@2@@Z ENDP ; std::_Merge_move<CMapOutdoor::TPatchDrawStruct *,CMapOutdoor::TPatchDrawStruct *,CMapOutdoor::FSortPatchDrawStructWithTerrainNum>
_TEXT	ENDS
; Function compile flags: /Ogtp
; File C:\Program Files (x86)\Microsoft Visual Studio\2019\Community\VC\Tools\MSVC\14.28.29333\include\xmemory
;	COMDAT ??$_Uninitialized_move_unchecked@PAUTPatchDrawStruct@CMapOutdoor@@PAU12@@std@@YAPAUTPatchDrawStruct@CMapOutdoor@@PAU12@QAU12@0@Z
_TEXT	SEGMENT
__First$ = 8						; size = 4
__Last$ = 12						; size = 4
__Dest$ = 16						; size = 4
??$_Uninitialized_move_unchecked@PAUTPatchDrawStruct@CMapOutdoor@@PAU12@@std@@YAPAUTPatchDrawStruct@CMapOutdoor@@PAU12@QAU12@0@Z PROC ; std::_Uninitialized_move_unchecked<CMapOutdoor::TPatchDrawStruct *,CMapOutdoor::TPatchDrawStruct *>, COMDAT

; 1489 : _NoThrowFwdIt _Uninitialized_move_unchecked(_InIt _First, const _InIt _Last, _NoThrowFwdIt _Dest) {

  00000	55		 push	 ebp
  00001	8b ec		 mov	 ebp, esp

; 1493 :     } else {
; 1494 :         _Uninitialized_backout<_NoThrowFwdIt> _Backout{_Dest};
; 1495 :         for (; _First != _Last; ++_First) {
; 1496 :             _Backout._Emplace_back(_STD move(*_First));
; 1497 :         }
; 1498 : 
; 1499 :         return _Backout._Release();
; 1500 :     }
; 1501 : }

  00003	5d		 pop	 ebp

; 1490 :     // move [_First, _Last) to raw [_Dest, ...)
; 1491 :     if constexpr (_Ptr_move_cat<_InIt, _NoThrowFwdIt>::_Really_trivial) {
; 1492 :         return _Copy_memmove(_First, _Last, _Dest);

  00004	e9 00 00 00 00	 jmp	 ??$_Copy_memmove@PAUTPatchDrawStruct@CMapOutdoor@@PAU12@@std@@YAPAUTPatchDrawStruct@CMapOutdoor@@PAU12@00@Z ; std::_Copy_memmove<CMapOutdoor::TPatchDrawStruct *,CMapOutdoor::TPatchDrawStruct *>
??$_Uninitialized_move_unchecked@PAUTPatchDrawStruct@CMapOutdoor@@PAU12@@std@@YAPAUTPatchDrawStruct@CMapOutdoor@@PAU12@QAU12@0@Z ENDP ; std::_Uninitialized_move_unchecked<CMapOutdoor::TPatchDrawStruct *,CMapOutdoor::TPatchDrawStruct *>
_TEXT	ENDS
; Function compile flags: /Ogtp
; File C:\Program Files (x86)\Microsoft Visual Studio\2019\Community\VC\Tools\MSVC\14.28.29333\include\algorithm
; File C:\Program Files (x86)\Microsoft Visual Studio\2019\Community\VC\Tools\MSVC\14.28.29333\include\xutility
; File C:\Program Files (x86)\Windows Kits\10\Include\10.0.18362.0\ucrt\corecrt_memory.h
; File C:\Program Files (x86)\Microsoft Visual Studio\2019\Community\VC\Tools\MSVC\14.28.29333\include\xutility
; File D:\Metin2 Server Files\mainline\SRC_2014\Metin2Client\GameLib\MapOutdoor.h
; File C:\Program Files (x86)\Windows Kits\10\Include\10.0.18362.0\ucrt\corecrt_memory.h
; File C:\Program Files (x86)\Microsoft Visual Studio\2019\Community\VC\Tools\MSVC\14.28.29333\include\xutility
; File C:\Program Files (x86)\Windows Kits\10\Include\10.0.18362.0\ucrt\corecrt_memory.h
; File C:\Program Files (x86)\Microsoft Visual Studio\2019\Community\VC\Tools\MSVC\14.28.29333\include\xutility
; File C:\Program Files (x86)\Microsoft Visual Studio\2019\Community\VC\Tools\MSVC\14.28.29333\include\vector
; File C:\Program Files (x86)\Microsoft Visual Studio\2019\Community\VC\Tools\MSVC\14.28.29333\include\xutility
; File C:\Program Files (x86)\Microsoft Visual Studio\2019\Community\VC\Tools\MSVC\14.28.29333\include\vector
; File C:\Program Files (x86)\Microsoft Visual Studio\2019\Community\VC\Tools\MSVC\14.28.29333\include\xutility
; File C:\Program Files (x86)\Windows Kits\10\Include\10.0.18362.0\ucrt\corecrt_memory.h
; File C:\Program Files (x86)\Microsoft Visual Studio\2019\Community\VC\Tools\MSVC\14.28.29333\include\xutility
; File C:\Program Files (x86)\Windows Kits\10\Include\10.0.18362.0\ucrt\corecrt_memory.h
; File C:\Program Files (x86)\Microsoft Visual Studio\2019\Community\VC\Tools\MSVC\14.28.29333\include\xutility
; File C:\Program Files (x86)\Microsoft Visual Studio\2019\Community\VC\Tools\MSVC\14.28.29333\include\vector
; File D:\Metin2 Server Files\mainline\SRC_2014\Metin2Client\GameLib\MapOutdoor.h
; File C:\Program Files (x86)\Microsoft Visual Studio\2019\Community\VC\Tools\MSVC\14.28.29333\include\xutility
; File C:\Program Files (x86)\Microsoft Visual Studio\2019\Community\VC\Tools\MSVC\14.28.29333\include\vector
; File C:\Program Files (x86)\Microsoft Visual Studio\2019\Community\VC\Tools\MSVC\14.28.29333\include\xutility
; File D:\Metin2 Server Files\mainline\SRC_2014\Metin2Client\GameLib\MapOutdoor.h
; File C:\Program Files (x86)\Microsoft Visual Studio\2019\Community\VC\Tools\MSVC\14.28.29333\include\vector
; File D:\Metin2 Server Files\mainline\SRC_2014\Metin2Client\GameLib\MapOutdoor.h
; File C:\Program Files (x86)\Microsoft Visual Studio\2019\Community\VC\Tools\MSVC\14.28.29333\include\vector
; File D:\Metin2 Server Files\mainline\SRC_2014\Metin2Client\GameLib\MapOutdoor.h
; File C:\Program Files (x86)\Microsoft Visual Studio\2019\Community\VC\Tools\MSVC\14.28.29333\include\vector
; File D:\Metin2 Server Files\mainline\SRC_2014\Metin2Client\GameLib\MapOutdoor.h
; File C:\Program Files (x86)\Microsoft Visual Studio\2019\Community\VC\Tools\MSVC\14.28.29333\include\xutility
; File C:\Program Files (x86)\Windows Kits\10\Include\10.0.18362.0\ucrt\corecrt_memory.h
; File C:\Program Files (x86)\Microsoft Visual Studio\2019\Community\VC\Tools\MSVC\14.28.29333\include\xutility
; File C:\Program Files (x86)\Windows Kits\10\Include\10.0.18362.0\ucrt\corecrt_memory.h
; File C:\Program Files (x86)\Microsoft Visual Studio\2019\Community\VC\Tools\MSVC\14.28.29333\include\xutility
; File C:\Program Files (x86)\Microsoft Visual Studio\2019\Community\VC\Tools\MSVC\14.28.29333\include\vector
; File D:\Metin2 Server Files\mainline\SRC_2014\Metin2Client\GameLib\MapOutdoor.h
; File C:\Program Files (x86)\Microsoft Visual Studio\2019\Community\VC\Tools\MSVC\14.28.29333\include\vector
; File D:\Metin2 Server Files\mainline\SRC_2014\Metin2Client\GameLib\MapOutdoor.h
; File C:\Program Files (x86)\Microsoft Visual Studio\2019\Community\VC\Tools\MSVC\14.28.29333\include\vector
; File D:\Metin2 Server Files\mainline\SRC_2014\Metin2Client\GameLib\MapOutdoor.h
; File C:\Program Files (x86)\Microsoft Visual Studio\2019\Community\VC\Tools\MSVC\14.28.29333\include\vector
; File D:\Metin2 Server Files\mainline\SRC_2014\Metin2Client\GameLib\MapOutdoor.h
; File C:\Program Files (x86)\Microsoft Visual Studio\2019\Community\VC\Tools\MSVC\14.28.29333\include\algorithm
; File C:\Program Files (x86)\Microsoft Visual Studio\2019\Community\VC\Tools\MSVC\14.28.29333\include\xmemory
; File C:\Program Files (x86)\Microsoft Visual Studio\2019\Community\VC\Tools\MSVC\14.28.29333\include\algorithm
; File C:\Program Files (x86)\Microsoft Visual Studio\2019\Community\VC\Tools\MSVC\14.28.29333\include\xmemory
; File C:\Program Files (x86)\Microsoft Visual Studio\2019\Community\VC\Tools\MSVC\14.28.29333\include\algorithm
; File C:\Program Files (x86)\Microsoft Visual Studio\2019\Community\VC\Tools\MSVC\14.28.29333\include\xmemory
; File C:\Program Files (x86)\Microsoft Visual Studio\2019\Community\VC\Tools\MSVC\14.28.29333\include\algorithm
; File C:\Program Files (x86)\Microsoft Visual Studio\2019\Community\VC\Tools\MSVC\14.28.29333\include\xmemory
; File C:\Program Files (x86)\Microsoft Visual Studio\2019\Community\VC\Tools\MSVC\14.28.29333\include\algorithm
; File C:\Program Files (x86)\Microsoft Visual Studio\2019\Community\VC\Tools\MSVC\14.28.29333\include\xmemory
; File C:\Program Files (x86)\Microsoft Visual Studio\2019\Community\VC\Tools\MSVC\14.28.29333\include\algorithm
;	COMDAT ??$_Uninitialized_merge_move@PAUTPatchDrawStruct@CMapOutdoor@@U12@UFSortPatchDrawStructWithTerrainNum@2@@std@@YAPAUTPatchDrawStruct@CMapOutdoor@@PAU12@QAU12@11UFSortPatchDrawStructWithTerrainNum@2@@Z
_TEXT	SEGMENT
tv1087 = -20						; size = 4
tv1083 = -16						; size = 4
__Next$1$ = -12						; size = 4
tv1102 = -8						; size = 4
_rhsTerrainNumOrder$1$ = -8				; size = 4
tv1086 = -1						; size = 1
tv1082 = -1						; size = 1
__First$ = 8						; size = 4
__Mid$ = 12						; size = 4
__Last$ = 16						; size = 4
tv1093 = 20						; size = 4
__Dest$ = 20						; size = 4
__Pred$ = 24						; size = 1
??$_Uninitialized_merge_move@PAUTPatchDrawStruct@CMapOutdoor@@U12@UFSortPatchDrawStructWithTerrainNum@2@@std@@YAPAUTPatchDrawStruct@CMapOutdoor@@PAU12@QAU12@11UFSortPatchDrawStructWithTerrainNum@2@@Z PROC ; std::_Uninitialized_merge_move<CMapOutdoor::TPatchDrawStruct *,CMapOutdoor::TPatchDrawStruct,CMapOutdoor::FSortPatchDrawStructWithTerrainNum>, COMDAT

; 7815 : _Ty* _Uninitialized_merge_move(_FwdIt _First, const _FwdIt _Mid, const _FwdIt _Last, _Ty* const _Dest, _Pr _Pred) {

  00000	55		 push	 ebp
  00001	8b ec		 mov	 ebp, esp
  00003	83 ec 14	 sub	 esp, 20			; 00000014H
  00006	53		 push	 ebx
  00007	56		 push	 esi

; 7816 :     // move merging ranges to uninitialized storage
; 7817 :     // pre: _First != _Mid && _Mid != _Last
; 7818 :     _Uninitialized_backout<_Ty*> _Backout{_Dest};
; 7819 :     _FwdIt _Next = _Mid;

  00008	8b 75 0c	 mov	 esi, DWORD PTR __Mid$[ebp]
  0000b	57		 push	 edi
  0000c	89 75 f4	 mov	 DWORD PTR __Next$1$[ebp], esi
  0000f	90		 npad	 1
$LL2@Uninitiali:
; File C:\Program Files (x86)\Microsoft Visual Studio\2019\Community\VC\Tools\MSVC\14.28.29333\include\xutility

; 5480 :     _Seek_wrapped(_First, _Find_unchecked(_Get_unwrapped(_First), _Get_unwrapped(_Last), _Val));

  00010	8b 1d 04 00 00
	00		 mov	 ebx, DWORD PTR ?m_TerrainNumVector@FSortPatchDrawStructWithTerrainNum@CMapOutdoor@@2V?$vector@EV?$allocator@E@std@@@std@@A+4

; 5461 :     _First =

  00016	8d 56 04	 lea	 edx, DWORD PTR [esi+4]
  00019	8b 0d 00 00 00
	00		 mov	 ecx, DWORD PTR ?m_TerrainNumVector@FSortPatchDrawStructWithTerrainNum@CMapOutdoor@@2V?$vector@EV?$allocator@E@std@@@std@@A
  0001f	8b c3		 mov	 eax, ebx
  00021	2b c1		 sub	 eax, ecx

; 5480 :     _Seek_wrapped(_First, _Find_unchecked(_Get_unwrapped(_First), _Get_unwrapped(_Last), _Val));

  00023	89 5d f8	 mov	 DWORD PTR tv1102[ebp], ebx
; File C:\Program Files (x86)\Windows Kits\10\Include\10.0.18362.0\ucrt\corecrt_memory.h

; 107  :         return const_cast<void*>(memchr(_Pvc, _C, _N));

  00026	50		 push	 eax
; File C:\Program Files (x86)\Microsoft Visual Studio\2019\Community\VC\Tools\MSVC\14.28.29333\include\xutility

; 5461 :     _First =

  00027	0f b6 02	 movzx	 eax, BYTE PTR [edx]
; File D:\Metin2 Server Files\mainline\SRC_2014\Metin2Client\GameLib\MapOutdoor.h

; 360  : 				DWORD lhsTerrainNumOrder = 0, rhsTerrainNumOrder = 0;

  0002a	33 ff		 xor	 edi, edi
; File C:\Program Files (x86)\Windows Kits\10\Include\10.0.18362.0\ucrt\corecrt_memory.h

; 107  :         return const_cast<void*>(memchr(_Pvc, _C, _N));

  0002c	50		 push	 eax
  0002d	51		 push	 ecx
; File C:\Program Files (x86)\Microsoft Visual Studio\2019\Community\VC\Tools\MSVC\14.28.29333\include\xutility

; 5461 :     _First =

  0002e	89 55 ec	 mov	 DWORD PTR tv1087[ebp], edx
; File C:\Program Files (x86)\Windows Kits\10\Include\10.0.18362.0\ucrt\corecrt_memory.h

; 107  :         return const_cast<void*>(memchr(_Pvc, _C, _N));

  00031	e8 00 00 00 00	 call	 _memchr
; File C:\Program Files (x86)\Microsoft Visual Studio\2019\Community\VC\Tools\MSVC\14.28.29333\include\xutility

; 5463 :     return _First ? _First : _Last;

  00036	85 c0		 test	 eax, eax
  00038	8b cb		 mov	 ecx, ebx
  0003a	0f 45 c8	 cmovne	 ecx, eax
; File C:\Program Files (x86)\Microsoft Visual Studio\2019\Community\VC\Tools\MSVC\14.28.29333\include\vector

; 195  :         _Ptr = _Refancy<_Tptr>(const_cast<value_type*>(_It));

  0003d	51		 push	 ecx
  0003e	e8 00 00 00 00	 call	 ??$_Refancy@PAE$0A@@std@@YAPAEPAE@Z ; std::_Refancy<unsigned char *,0>
; File C:\Program Files (x86)\Microsoft Visual Studio\2019\Community\VC\Tools\MSVC\14.28.29333\include\xutility

; 5461 :     _First =

  00043	8b 0d 00 00 00
	00		 mov	 ecx, DWORD PTR ?m_TerrainNumVector@FSortPatchDrawStructWithTerrainNum@CMapOutdoor@@2V?$vector@EV?$allocator@E@std@@@std@@A
; File C:\Program Files (x86)\Microsoft Visual Studio\2019\Community\VC\Tools\MSVC\14.28.29333\include\vector

; 195  :         _Ptr = _Refancy<_Tptr>(const_cast<value_type*>(_It));

  00049	8b f0		 mov	 esi, eax
; File C:\Program Files (x86)\Microsoft Visual Studio\2019\Community\VC\Tools\MSVC\14.28.29333\include\xutility

; 5461 :     _First =

  0004b	8b 45 08	 mov	 eax, DWORD PTR __First$[ebp]
  0004e	83 c0 04	 add	 eax, 4
  00051	89 45 f0	 mov	 DWORD PTR tv1083[ebp], eax
  00054	8a 10		 mov	 dl, BYTE PTR [eax]
  00056	8b c3		 mov	 eax, ebx
  00058	2b c1		 sub	 eax, ecx
  0005a	88 55 ff	 mov	 BYTE PTR tv1082[ebp], dl
; File C:\Program Files (x86)\Windows Kits\10\Include\10.0.18362.0\ucrt\corecrt_memory.h

; 107  :         return const_cast<void*>(memchr(_Pvc, _C, _N));

  0005d	50		 push	 eax
; File C:\Program Files (x86)\Microsoft Visual Studio\2019\Community\VC\Tools\MSVC\14.28.29333\include\xutility

; 5461 :     _First =

  0005e	0f b6 c2	 movzx	 eax, dl
; File C:\Program Files (x86)\Windows Kits\10\Include\10.0.18362.0\ucrt\corecrt_memory.h

; 107  :         return const_cast<void*>(memchr(_Pvc, _C, _N));

  00061	50		 push	 eax
  00062	51		 push	 ecx
  00063	e8 00 00 00 00	 call	 _memchr
; File C:\Program Files (x86)\Microsoft Visual Studio\2019\Community\VC\Tools\MSVC\14.28.29333\include\xutility

; 5463 :     return _First ? _First : _Last;

  00068	85 c0		 test	 eax, eax
  0006a	8b cb		 mov	 ecx, ebx
  0006c	0f 45 c8	 cmovne	 ecx, eax
; File C:\Program Files (x86)\Microsoft Visual Studio\2019\Community\VC\Tools\MSVC\14.28.29333\include\vector

; 195  :         _Ptr = _Refancy<_Tptr>(const_cast<value_type*>(_It));

  0006f	51		 push	 ecx
  00070	e8 00 00 00 00	 call	 ??$_Refancy@PAE$0A@@std@@YAPAEPAE@Z ; std::_Refancy<unsigned char *,0>
; File D:\Metin2 Server Files\mainline\SRC_2014\Metin2Client\GameLib\MapOutdoor.h

; 367  : 				if (lhsIterator != m_TerrainNumVector.end())

  00075	8b 0d 00 00 00
	00		 mov	 ecx, DWORD PTR ?m_TerrainNumVector@FSortPatchDrawStructWithTerrainNum@CMapOutdoor@@2V?$vector@EV?$allocator@E@std@@@std@@A
; File C:\Program Files (x86)\Microsoft Visual Studio\2019\Community\VC\Tools\MSVC\14.28.29333\include\xutility

; 5481 :     return _First;

  0007b	8b d3		 mov	 edx, ebx
; File C:\Program Files (x86)\Microsoft Visual Studio\2019\Community\VC\Tools\MSVC\14.28.29333\include\vector

; 195  :         _Ptr = _Refancy<_Tptr>(const_cast<value_type*>(_It));

  0007d	83 c4 20	 add	 esp, 32			; 00000020H
; File C:\Program Files (x86)\Microsoft Visual Studio\2019\Community\VC\Tools\MSVC\14.28.29333\include\xutility

; 5481 :     return _First;

  00080	3b f2		 cmp	 esi, edx
; File D:\Metin2 Server Files\mainline\SRC_2014\Metin2Client\GameLib\MapOutdoor.h

; 367  : 				if (lhsIterator != m_TerrainNumVector.end())

  00082	74 04		 je	 SHORT $LN14@Uninitiali

; 368  : 				{
; 369  : 					blhsOrderFound = true;

  00084	8b fe		 mov	 edi, esi
  00086	2b f9		 sub	 edi, ecx
$LN14@Uninitiali:
; File C:\Program Files (x86)\Microsoft Visual Studio\2019\Community\VC\Tools\MSVC\14.28.29333\include\vector

; 149  :         return _Ptr == _Right._Ptr;

  00088	3b c2		 cmp	 eax, edx
; File D:\Metin2 Server Files\mainline\SRC_2014\Metin2Client\GameLib\MapOutdoor.h

; 372  : 				if (rhsIterator != m_TerrainNumVector.end())

  0008a	74 04		 je	 SHORT $LN182@Uninitiali
; File C:\Program Files (x86)\Microsoft Visual Studio\2019\Community\VC\Tools\MSVC\14.28.29333\include\vector

; 140  :         return _Ptr - _Right._Ptr;

  0008c	2b c1		 sub	 eax, ecx
; File D:\Metin2 Server Files\mainline\SRC_2014\Metin2Client\GameLib\MapOutdoor.h

; 377  : 				if (!brhsOrderFound)

  0008e	eb 3e		 jmp	 SHORT $LN185@Uninitiali
$LN182@Uninitiali:
; File C:\Program Files (x86)\Microsoft Visual Studio\2019\Community\VC\Tools\MSVC\14.28.29333\include\vector

; 704  :         if (_Mylast != _My_data._Myend) {

  00090	3b 15 08 00 00
	00		 cmp	 edx, DWORD PTR ?m_TerrainNumVector@FSortPatchDrawStructWithTerrainNum@CMapOutdoor@@2V?$vector@EV?$allocator@E@std@@@std@@A+8
  00096	74 14		 je	 SHORT $LN110@Uninitiali

; 687  :         _Alty_traits::construct(_Getal(), _Unfancy(_Mylast), _STD forward<_Valty>(_Val)...);

  00098	8a 45 ff	 mov	 al, BYTE PTR tv1082[ebp]
  0009b	88 02		 mov	 BYTE PTR [edx], al

; 688  :         _Orphan_range(_Mylast, _Mylast);
; 689  :         _Ty& _Result = *_Mylast;
; 690  :         ++_Mylast;

  0009d	8b 1d 04 00 00
	00		 mov	 ebx, DWORD PTR ?m_TerrainNumVector@FSortPatchDrawStructWithTerrainNum@CMapOutdoor@@2V?$vector@EV?$allocator@E@std@@@std@@A+4
  000a3	43		 inc	 ebx
  000a4	89 1d 04 00 00
	00		 mov	 DWORD PTR ?m_TerrainNumVector@FSortPatchDrawStructWithTerrainNum@CMapOutdoor@@2V?$vector@EV?$allocator@E@std@@@std@@A+4, ebx

; 705  :             return _Emplace_back_with_unused_capacity(_STD forward<_Valty>(_Val)...);

  000aa	eb 17		 jmp	 SHORT $LN109@Uninitiali
$LN110@Uninitiali:

; 706  :         }
; 707  : 
; 708  :         _Ty& _Result = *_Emplace_reallocate(_Mylast, _STD forward<_Valty>(_Val)...);

  000ac	ff 75 f0	 push	 DWORD PTR tv1083[ebp]
  000af	b9 00 00 00 00	 mov	 ecx, OFFSET ?m_TerrainNumVector@FSortPatchDrawStructWithTerrainNum@CMapOutdoor@@2V?$vector@EV?$allocator@E@std@@@std@@A ; CMapOutdoor::FSortPatchDrawStructWithTerrainNum::m_TerrainNumVector
  000b4	52		 push	 edx
  000b5	e8 00 00 00 00	 call	 ??$_Emplace_reallocate@ABE@?$vector@EV?$allocator@E@std@@@std@@QAEPAEQAEABE@Z ; std::vector<unsigned char,std::allocator<unsigned char> >::_Emplace_reallocate<unsigned char const &>
  000ba	8b 1d 04 00 00
	00		 mov	 ebx, DWORD PTR ?m_TerrainNumVector@FSortPatchDrawStructWithTerrainNum@CMapOutdoor@@2V?$vector@EV?$allocator@E@std@@@std@@A+4
  000c0	8b 55 f8	 mov	 edx, DWORD PTR tv1102[ebp]
$LN109@Uninitiali:
; File D:\Metin2 Server Files\mainline\SRC_2014\Metin2Client\GameLib\MapOutdoor.h

; 380  : 					rhsTerrainNumOrder = m_TerrainNumVector.size() -1;

  000c3	8b 0d 00 00 00
	00		 mov	 ecx, DWORD PTR ?m_TerrainNumVector@FSortPatchDrawStructWithTerrainNum@CMapOutdoor@@2V?$vector@EV?$allocator@E@std@@@std@@A
  000c9	8b c3		 mov	 eax, ebx
  000cb	2b c1		 sub	 eax, ecx
  000cd	48		 dec	 eax
$LN185@Uninitiali:

; 381  : 				}
; 382  : 				if (!blhsOrderFound)

  000ce	89 45 f8	 mov	 DWORD PTR _rhsTerrainNumOrder$1$[ebp], eax
  000d1	3b f2		 cmp	 esi, edx
  000d3	75 64		 jne	 SHORT $LN19@Uninitiali
; File C:\Program Files (x86)\Microsoft Visual Studio\2019\Community\VC\Tools\MSVC\14.28.29333\include\xutility

; 5461 :     _First =

  000d5	8b 75 ec	 mov	 esi, DWORD PTR tv1087[ebp]
  000d8	8b c3		 mov	 eax, ebx
  000da	2b c1		 sub	 eax, ecx
; File C:\Program Files (x86)\Windows Kits\10\Include\10.0.18362.0\ucrt\corecrt_memory.h

; 107  :         return const_cast<void*>(memchr(_Pvc, _C, _N));

  000dc	50		 push	 eax
; File C:\Program Files (x86)\Microsoft Visual Studio\2019\Community\VC\Tools\MSVC\14.28.29333\include\xutility

; 5461 :     _First =

  000dd	0f b6 06	 movzx	 eax, BYTE PTR [esi]
; File C:\Program Files (x86)\Windows Kits\10\Include\10.0.18362.0\ucrt\corecrt_memory.h

; 107  :         return const_cast<void*>(memchr(_Pvc, _C, _N));

  000e0	50		 push	 eax
  000e1	51		 push	 ecx
  000e2	e8 00 00 00 00	 call	 _memchr
; File C:\Program Files (x86)\Microsoft Visual Studio\2019\Community\VC\Tools\MSVC\14.28.29333\include\xutility

; 5463 :     return _First ? _First : _Last;

  000e7	85 c0		 test	 eax, eax
  000e9	8b cb		 mov	 ecx, ebx
  000eb	0f 45 c8	 cmovne	 ecx, eax
; File C:\Program Files (x86)\Microsoft Visual Studio\2019\Community\VC\Tools\MSVC\14.28.29333\include\vector

; 195  :         _Ptr = _Refancy<_Tptr>(const_cast<value_type*>(_It));

  000ee	51		 push	 ecx
  000ef	e8 00 00 00 00	 call	 ??$_Refancy@PAE$0A@@std@@YAPAEPAE@Z ; std::_Refancy<unsigned char *,0>
; File D:\Metin2 Server Files\mainline\SRC_2014\Metin2Client\GameLib\MapOutdoor.h

; 384  : 					lhsIterator = std::find(m_TerrainNumVector.begin(), m_TerrainNumVector.end(), lhs.byTerrainNum);

  000f4	8b f8		 mov	 edi, eax
; File C:\Program Files (x86)\Microsoft Visual Studio\2019\Community\VC\Tools\MSVC\14.28.29333\include\vector

; 195  :         _Ptr = _Refancy<_Tptr>(const_cast<value_type*>(_It));

  000f6	83 c4 10	 add	 esp, 16			; 00000010H
; File D:\Metin2 Server Files\mainline\SRC_2014\Metin2Client\GameLib\MapOutdoor.h

; 384  : 					lhsIterator = std::find(m_TerrainNumVector.begin(), m_TerrainNumVector.end(), lhs.byTerrainNum);

  000f9	3b fb		 cmp	 edi, ebx

; 385  : 					if (lhsIterator != m_TerrainNumVector.end())

  000fb	74 08		 je	 SHORT $LN183@Uninitiali
; File C:\Program Files (x86)\Microsoft Visual Studio\2019\Community\VC\Tools\MSVC\14.28.29333\include\vector

; 140  :         return _Ptr - _Right._Ptr;

  000fd	2b 3d 00 00 00
	00		 sub	 edi, DWORD PTR ?m_TerrainNumVector@FSortPatchDrawStructWithTerrainNum@CMapOutdoor@@2V?$vector@EV?$allocator@E@std@@@std@@A
; File D:\Metin2 Server Files\mainline\SRC_2014\Metin2Client\GameLib\MapOutdoor.h

; 390  : 					if (!blhsOrderFound)

  00103	eb 34		 jmp	 SHORT $LN19@Uninitiali
$LN183@Uninitiali:
; File C:\Program Files (x86)\Microsoft Visual Studio\2019\Community\VC\Tools\MSVC\14.28.29333\include\vector

; 704  :         if (_Mylast != _My_data._Myend) {

  00105	3b 1d 08 00 00
	00		 cmp	 ebx, DWORD PTR ?m_TerrainNumVector@FSortPatchDrawStructWithTerrainNum@CMapOutdoor@@2V?$vector@EV?$allocator@E@std@@@std@@A+8
  0010b	74 13		 je	 SHORT $LN162@Uninitiali

; 687  :         _Alty_traits::construct(_Getal(), _Unfancy(_Mylast), _STD forward<_Valty>(_Val)...);

  0010d	8a 06		 mov	 al, BYTE PTR [esi]
  0010f	88 03		 mov	 BYTE PTR [ebx], al

; 688  :         _Orphan_range(_Mylast, _Mylast);
; 689  :         _Ty& _Result = *_Mylast;
; 690  :         ++_Mylast;

  00111	8b 3d 04 00 00
	00		 mov	 edi, DWORD PTR ?m_TerrainNumVector@FSortPatchDrawStructWithTerrainNum@CMapOutdoor@@2V?$vector@EV?$allocator@E@std@@@std@@A+4
  00117	47		 inc	 edi
  00118	89 3d 04 00 00
	00		 mov	 DWORD PTR ?m_TerrainNumVector@FSortPatchDrawStructWithTerrainNum@CMapOutdoor@@2V?$vector@EV?$allocator@E@std@@@std@@A+4, edi

; 705  :             return _Emplace_back_with_unused_capacity(_STD forward<_Valty>(_Val)...);

  0011e	eb 12		 jmp	 SHORT $LN161@Uninitiali
$LN162@Uninitiali:

; 706  :         }
; 707  : 
; 708  :         _Ty& _Result = *_Emplace_reallocate(_Mylast, _STD forward<_Valty>(_Val)...);

  00120	56		 push	 esi
  00121	53		 push	 ebx
  00122	b9 00 00 00 00	 mov	 ecx, OFFSET ?m_TerrainNumVector@FSortPatchDrawStructWithTerrainNum@CMapOutdoor@@2V?$vector@EV?$allocator@E@std@@@std@@A ; CMapOutdoor::FSortPatchDrawStructWithTerrainNum::m_TerrainNumVector
  00127	e8 00 00 00 00	 call	 ??$_Emplace_reallocate@ABE@?$vector@EV?$allocator@E@std@@@std@@QAEPAEQAEABE@Z ; std::vector<unsigned char,std::allocator<unsigned char> >::_Emplace_reallocate<unsigned char const &>
  0012c	8b 3d 04 00 00
	00		 mov	 edi, DWORD PTR ?m_TerrainNumVector@FSortPatchDrawStructWithTerrainNum@CMapOutdoor@@2V?$vector@EV?$allocator@E@std@@@std@@A+4
$LN161@Uninitiali:
; File D:\Metin2 Server Files\mainline\SRC_2014\Metin2Client\GameLib\MapOutdoor.h

; 393  : 						lhsTerrainNumOrder = m_TerrainNumVector.size() -1;

  00132	2b 3d 00 00 00
	00		 sub	 edi, DWORD PTR ?m_TerrainNumVector@FSortPatchDrawStructWithTerrainNum@CMapOutdoor@@2V?$vector@EV?$allocator@E@std@@@std@@A
  00138	4f		 dec	 edi
$LN19@Uninitiali:

; 394  : 					}
; 395  : 				}
; 396  : 
; 397  : 				return lhsTerrainNumOrder < rhsTerrainNumOrder;

  00139	8b 45 14	 mov	 eax, DWORD PTR __Dest$[ebp]
  0013c	8d 48 10	 lea	 ecx, DWORD PTR [eax+16]
  0013f	89 4d 14	 mov	 DWORD PTR tv1093[ebp], ecx
  00142	3b 7d f8	 cmp	 edi, DWORD PTR _rhsTerrainNumOrder$1$[ebp]
; File C:\Program Files (x86)\Microsoft Visual Studio\2019\Community\VC\Tools\MSVC\14.28.29333\include\algorithm

; 7821 :         if (_DEBUG_LT_PRED(_Pred, *_Next, *_First)) {

  00145	73 1d		 jae	 SHORT $LN5@Uninitiali
; File C:\Program Files (x86)\Microsoft Visual Studio\2019\Community\VC\Tools\MSVC\14.28.29333\include\xmemory

; 1442 :         _Construct_in_place(*_Last, _STD forward<_Types>(_Vals)...);

  00147	8b 75 f4	 mov	 esi, DWORD PTR __Next$1$[ebp]
  0014a	56		 push	 esi
  0014b	50		 push	 eax
  0014c	e8 00 00 00 00	 call	 ??$_Construct_in_place@UTPatchDrawStruct@CMapOutdoor@@U12@@std@@YAXAAUTPatchDrawStruct@CMapOutdoor@@$$QAU12@@Z ; std::_Construct_in_place<CMapOutdoor::TPatchDrawStruct,CMapOutdoor::TPatchDrawStruct>
; File C:\Program Files (x86)\Microsoft Visual Studio\2019\Community\VC\Tools\MSVC\14.28.29333\include\algorithm

; 7823 :             ++_Next;

  00151	83 c6 10	 add	 esi, 16			; 00000010H
; File C:\Program Files (x86)\Microsoft Visual Studio\2019\Community\VC\Tools\MSVC\14.28.29333\include\xmemory

; 1442 :         _Construct_in_place(*_Last, _STD forward<_Types>(_Vals)...);

  00154	83 c4 08	 add	 esp, 8
; File C:\Program Files (x86)\Microsoft Visual Studio\2019\Community\VC\Tools\MSVC\14.28.29333\include\algorithm

; 7823 :             ++_Next;

  00157	89 75 f4	 mov	 DWORD PTR __Next$1$[ebp], esi

; 7824 : 
; 7825 :             if (_Next == _Last) {

  0015a	3b 75 10	 cmp	 esi, DWORD PTR __Last$[ebp]
  0015d	75 20		 jne	 SHORT $LN8@Uninitiali
  0015f	8b 45 08	 mov	 eax, DWORD PTR __First$[ebp]
  00162	eb 2f		 jmp	 SHORT $LN10@Uninitiali
$LN5@Uninitiali:
; File C:\Program Files (x86)\Microsoft Visual Studio\2019\Community\VC\Tools\MSVC\14.28.29333\include\xmemory

; 1442 :         _Construct_in_place(*_Last, _STD forward<_Types>(_Vals)...);

  00164	8b 5d 08	 mov	 ebx, DWORD PTR __First$[ebp]
  00167	53		 push	 ebx
  00168	50		 push	 eax
  00169	e8 00 00 00 00	 call	 ??$_Construct_in_place@UTPatchDrawStruct@CMapOutdoor@@U12@@std@@YAXAAUTPatchDrawStruct@CMapOutdoor@@$$QAU12@@Z ; std::_Construct_in_place<CMapOutdoor::TPatchDrawStruct,CMapOutdoor::TPatchDrawStruct>
; File C:\Program Files (x86)\Microsoft Visual Studio\2019\Community\VC\Tools\MSVC\14.28.29333\include\algorithm

; 7831 :             ++_First;

  0016e	83 c3 10	 add	 ebx, 16			; 00000010H
; File C:\Program Files (x86)\Microsoft Visual Studio\2019\Community\VC\Tools\MSVC\14.28.29333\include\xmemory

; 1442 :         _Construct_in_place(*_Last, _STD forward<_Types>(_Vals)...);

  00171	83 c4 08	 add	 esp, 8
; File C:\Program Files (x86)\Microsoft Visual Studio\2019\Community\VC\Tools\MSVC\14.28.29333\include\algorithm

; 7831 :             ++_First;

  00174	89 5d 08	 mov	 DWORD PTR __First$[ebp], ebx

; 7832 : 
; 7833 :             if (_First == _Mid) {

  00177	3b 5d 0c	 cmp	 ebx, DWORD PTR __Mid$[ebp]
  0017a	74 0e		 je	 SHORT $LN179@Uninitiali
  0017c	8b 75 f4	 mov	 esi, DWORD PTR __Next$1$[ebp]
$LN8@Uninitiali:

; 7836 :             }
; 7837 :         }
; 7838 :     }

  0017f	8b 4d 14	 mov	 ecx, DWORD PTR tv1093[ebp]
  00182	89 4d 14	 mov	 DWORD PTR __Dest$[ebp], ecx
  00185	e9 86 fe ff ff	 jmp	 $LL2@Uninitiali
$LN179@Uninitiali:
; File C:\Program Files (x86)\Microsoft Visual Studio\2019\Community\VC\Tools\MSVC\14.28.29333\include\xmemory

; 1448 :         return _Last;

  0018a	8b 4d 10	 mov	 ecx, DWORD PTR __Last$[ebp]
  0018d	8b 45 f4	 mov	 eax, DWORD PTR __Next$1$[ebp]
  00190	89 4d 0c	 mov	 DWORD PTR __Mid$[ebp], ecx
$LN10@Uninitiali:
; File C:\Program Files (x86)\Microsoft Visual Studio\2019\Community\VC\Tools\MSVC\14.28.29333\include\algorithm

; 7835 :                 return _Backout._Release();

  00193	8b 4d 14	 mov	 ecx, DWORD PTR tv1093[ebp]
  00196	51		 push	 ecx
  00197	ff 75 0c	 push	 DWORD PTR __Mid$[ebp]
  0019a	50		 push	 eax
  0019b	e8 00 00 00 00	 call	 ??$_Uninitialized_move_unchecked@PAUTPatchDrawStruct@CMapOutdoor@@PAU12@@std@@YAPAUTPatchDrawStruct@CMapOutdoor@@PAU12@QAU12@0@Z ; std::_Uninitialized_move_unchecked<CMapOutdoor::TPatchDrawStruct *,CMapOutdoor::TPatchDrawStruct *>
  001a0	83 c4 0c	 add	 esp, 12			; 0000000cH
  001a3	5f		 pop	 edi
  001a4	5e		 pop	 esi
  001a5	5b		 pop	 ebx

; 7839 : }

  001a6	8b e5		 mov	 esp, ebp
  001a8	5d		 pop	 ebp
  001a9	c3		 ret	 0
??$_Uninitialized_merge_move@PAUTPatchDrawStruct@CMapOutdoor@@U12@UFSortPatchDrawStructWithTerrainNum@2@@std@@YAPAUTPatchDrawStruct@CMapOutdoor@@PAU12@QAU12@11UFSortPatchDrawStructWithTerrainNum@2@@Z ENDP ; std::_Uninitialized_merge_move<CMapOutdoor::TPatchDrawStruct *,CMapOutdoor::TPatchDrawStruct,CMapOutdoor::FSortPatchDrawStructWithTerrainNum>
_TEXT	ENDS
; Function compile flags: /Ogtp
; File C:\Program Files (x86)\Microsoft Visual Studio\2019\Community\VC\Tools\MSVC\14.28.29333\include\algorithm
; File D:\Metin2 Server Files\mainline\SRC_2014\Metin2Client\GameLib\MapOutdoorRender.cpp
; File C:\Program Files (x86)\Microsoft Visual Studio\2019\Community\VC\Tools\MSVC\14.28.29333\include\algorithm
; File D:\Metin2 Server Files\mainline\SRC_2014\Metin2Client\GameLib\MapOutdoorRender.cpp
; File D:\Metin2 Server Files\mainline\SRC_2014\M2Data\include\d3dx8math.inl
; File C:\Program Files (x86)\Microsoft Visual Studio\2019\Community\VC\Tools\MSVC\14.28.29333\include\algorithm
; File D:\Metin2 Server Files\mainline\SRC_2014\M2Data\include\d3dx8math.inl
; File D:\Metin2 Server Files\mainline\SRC_2014\Metin2Client\GameLib\MapOutdoorRender.cpp
; File D:\Metin2 Server Files\mainline\SRC_2014\M2Data\include\d3dx8math.inl
; File D:\Metin2 Server Files\mainline\SRC_2014\Metin2Client\GameLib\MapOutdoorRender.cpp
; File C:\Program Files (x86)\Microsoft Visual Studio\2019\Community\VC\Tools\MSVC\14.28.29333\include\algorithm
; File C:\Program Files (x86)\Microsoft Visual Studio\2019\Community\VC\Tools\MSVC\14.28.29333\include\utility
; File C:\Program Files (x86)\Microsoft Visual Studio\2019\Community\VC\Tools\MSVC\14.28.29333\include\algorithm
; File D:\Metin2 Server Files\mainline\SRC_2014\Metin2Client\GameLib\MapOutdoorRender.cpp
; File C:\Program Files (x86)\Microsoft Visual Studio\2019\Community\VC\Tools\MSVC\14.28.29333\include\algorithm
; File D:\Metin2 Server Files\mainline\SRC_2014\Metin2Client\GameLib\MapOutdoorRender.cpp
; File D:\Metin2 Server Files\mainline\SRC_2014\M2Data\include\d3dx8math.inl
; File D:\Metin2 Server Files\mainline\SRC_2014\Metin2Client\GameLib\MapOutdoorRender.cpp
; File D:\Metin2 Server Files\mainline\SRC_2014\M2Data\include\d3dx8math.inl
; File D:\Metin2 Server Files\mainline\SRC_2014\Metin2Client\GameLib\MapOutdoorRender.cpp
; File C:\Program Files (x86)\Microsoft Visual Studio\2019\Community\VC\Tools\MSVC\14.28.29333\include\algorithm
; File C:\Program Files (x86)\Microsoft Visual Studio\2019\Community\VC\Tools\MSVC\14.28.29333\include\utility
; File C:\Program Files (x86)\Microsoft Visual Studio\2019\Community\VC\Tools\MSVC\14.28.29333\include\algorithm
; File C:\Program Files (x86)\Microsoft Visual Studio\2019\Community\VC\Tools\MSVC\14.28.29333\include\utility
; File D:\Metin2 Server Files\mainline\SRC_2014\Metin2Client\GameLib\MapOutdoorRender.cpp
; File C:\Program Files (x86)\Microsoft Visual Studio\2019\Community\VC\Tools\MSVC\14.28.29333\include\algorithm
; File D:\Metin2 Server Files\mainline\SRC_2014\Metin2Client\GameLib\MapOutdoorRender.cpp
; File D:\Metin2 Server Files\mainline\SRC_2014\M2Data\include\d3dx8math.inl
; File D:\Metin2 Server Files\mainline\SRC_2014\Metin2Client\GameLib\MapOutdoorRender.cpp
; File D:\Metin2 Server Files\mainline\SRC_2014\M2Data\include\d3dx8math.inl
; File D:\Metin2 Server Files\mainline\SRC_2014\Metin2Client\GameLib\MapOutdoorRender.cpp
; File C:\Program Files (x86)\Microsoft Visual Studio\2019\Community\VC\Tools\MSVC\14.28.29333\include\algorithm
; File C:\Program Files (x86)\Microsoft Visual Studio\2019\Community\VC\Tools\MSVC\14.28.29333\include\utility
; File C:\Program Files (x86)\Microsoft Visual Studio\2019\Community\VC\Tools\MSVC\14.28.29333\include\algorithm
;	COMDAT ??$_Med3_unchecked@PAPAVCGraphicThingInstance@@UCMapOutdoor_LessThingInstancePtrRenderOrder@@@std@@YAXPAPAVCGraphicThingInstance@@00UCMapOutdoor_LessThingInstancePtrRenderOrder@@@Z
_TEXT	SEGMENT
__First$ = 8						; size = 4
__Mid$ = 12						; size = 4
__Last$ = 16						; size = 4
__Pred$ = 20						; size = 1
??$_Med3_unchecked@PAPAVCGraphicThingInstance@@UCMapOutdoor_LessThingInstancePtrRenderOrder@@@std@@YAXPAPAVCGraphicThingInstance@@00UCMapOutdoor_LessThingInstancePtrRenderOrder@@@Z PROC ; std::_Med3_unchecked<CGraphicThingInstance * *,CMapOutdoor_LessThingInstancePtrRenderOrder>, COMDAT

; 7434 : _CONSTEXPR20 void _Med3_unchecked(_RanIt _First, _RanIt _Mid, _RanIt _Last, _Pr _Pred) {

  00000	55		 push	 ebp
  00001	8b ec		 mov	 ebp, esp
; File D:\Metin2 Server Files\mainline\SRC_2014\Metin2Client\GameLib\MapOutdoorRender.cpp

; 357  : 		CCamera * pCurrentCamera = CCameraManager::Instance().GetCurrentCamera();

  00003	8b 0d 00 00 00
	00		 mov	 ecx, DWORD PTR ?ms_singleton@?$CSingleton@VCCameraManager@@@@0PAVCCameraManager@@A ; CSingleton<CCameraManager>::ms_singleton
; File C:\Program Files (x86)\Microsoft Visual Studio\2019\Community\VC\Tools\MSVC\14.28.29333\include\algorithm

; 7434 : _CONSTEXPR20 void _Med3_unchecked(_RanIt _First, _RanIt _Mid, _RanIt _Last, _Pr _Pred) {

  00009	53		 push	 ebx
  0000a	56		 push	 esi

; 7436 :     if (_DEBUG_LT_PRED(_Pred, *_Mid, *_First)) {

  0000b	8b 75 0c	 mov	 esi, DWORD PTR __Mid$[ebp]
  0000e	57		 push	 edi
  0000f	8b 7d 08	 mov	 edi, DWORD PTR __First$[ebp]
  00012	8b 36		 mov	 esi, DWORD PTR [esi]
  00014	8b 3f		 mov	 edi, DWORD PTR [edi]
; File D:\Metin2 Server Files\mainline\SRC_2014\Metin2Client\GameLib\MapOutdoorRender.cpp

; 357  : 		CCamera * pCurrentCamera = CCameraManager::Instance().GetCurrentCamera();

  00016	e8 00 00 00 00	 call	 ?GetCurrentCamera@CCameraManager@@QAEPAVCCamera@@XZ ; CCameraManager::GetCurrentCamera

; 358  : 		const D3DXVECTOR3 & c_rv3CameraPos = pCurrentCamera->GetEye();
; 359  : 		const D3DXVECTOR3 & c_v3LeftPos  = pkLeft->GetPosition();

  0001b	8b ce		 mov	 ecx, esi
  0001d	8b d8		 mov	 ebx, eax
  0001f	e8 00 00 00 00	 call	 ?GetPosition@CGraphicObjectInstance@@QBEABUD3DXVECTOR3@@XZ ; CGraphicObjectInstance::GetPosition

; 360  : 		const D3DXVECTOR3 & c_v3RightPos = pkRight->GetPosition();

  00024	8b cf		 mov	 ecx, edi
  00026	8b f0		 mov	 esi, eax
  00028	e8 00 00 00 00	 call	 ?GetPosition@CGraphicObjectInstance@@QBEABUD3DXVECTOR3@@XZ ; CGraphicObjectInstance::GetPosition
; File D:\Metin2 Server Files\mainline\SRC_2014\M2Data\include\d3dx8math.inl

; 263  :     return D3DXVECTOR3(x - v.x, y - v.y, z - v.z);

  0002d	f3 0f 10 6b 30	 movss	 xmm5, DWORD PTR [ebx+48]
  00032	f3 0f 10 63 34	 movss	 xmm4, DWORD PTR [ebx+52]
  00037	0f 28 cd	 movaps	 xmm1, xmm5
  0003a	f3 0f 5c 0e	 subss	 xmm1, DWORD PTR [esi]
  0003e	f3 0f 5c 28	 subss	 xmm5, DWORD PTR [eax]
  00042	f3 0f 10 53 38	 movss	 xmm2, DWORD PTR [ebx+56]
  00047	0f 28 dc	 movaps	 xmm3, xmm4
  0004a	f3 0f 5c 5e 04	 subss	 xmm3, DWORD PTR [esi+4]
  0004f	f3 0f 5c 60 04	 subss	 xmm4, DWORD PTR [eax+4]
; File C:\Program Files (x86)\Microsoft Visual Studio\2019\Community\VC\Tools\MSVC\14.28.29333\include\algorithm

; 7436 :     if (_DEBUG_LT_PRED(_Pred, *_Mid, *_First)) {

  00054	8b 55 0c	 mov	 edx, DWORD PTR __Mid$[ebp]
; File D:\Metin2 Server Files\mainline\SRC_2014\M2Data\include\d3dx8math.inl

; 263  :     return D3DXVECTOR3(x - v.x, y - v.y, z - v.z);

  00057	0f 28 c2	 movaps	 xmm0, xmm2
  0005a	f3 0f 5c 46 08	 subss	 xmm0, DWORD PTR [esi+8]
  0005f	f3 0f 5c 50 08	 subss	 xmm2, DWORD PTR [eax+8]

; 1253 :     return pV->x * pV->x + pV->y * pV->y + pV->z * pV->z;

  00064	f3 0f 59 db	 mulss	 xmm3, xmm3
; File D:\Metin2 Server Files\mainline\SRC_2014\Metin2Client\GameLib\MapOutdoorRender.cpp

; 362  : 		return D3DXVec3LengthSq(&D3DXVECTOR3(c_rv3CameraPos - c_v3LeftPos)) < D3DXVec3LengthSq(&D3DXVECTOR3(c_rv3CameraPos - c_v3RightPos) );	

  00068	f3 0f 59 e4	 mulss	 xmm4, xmm4
; File D:\Metin2 Server Files\mainline\SRC_2014\M2Data\include\d3dx8math.inl

; 182  :     z = fz;

  0006c	f3 0f 59 c9	 mulss	 xmm1, xmm1

; 1253 :     return pV->x * pV->x + pV->y * pV->y + pV->z * pV->z;

  00070	f3 0f 59 ed	 mulss	 xmm5, xmm5
  00074	f3 0f 58 d9	 addss	 xmm3, xmm1
  00078	f3 0f 59 c0	 mulss	 xmm0, xmm0
  0007c	f3 0f 58 e5	 addss	 xmm4, xmm5
  00080	f3 0f 59 d2	 mulss	 xmm2, xmm2
  00084	f3 0f 58 d8	 addss	 xmm3, xmm0
  00088	f3 0f 58 e2	 addss	 xmm4, xmm2
; File D:\Metin2 Server Files\mainline\SRC_2014\Metin2Client\GameLib\MapOutdoorRender.cpp

; 362  : 		return D3DXVec3LengthSq(&D3DXVECTOR3(c_rv3CameraPos - c_v3LeftPos)) < D3DXVec3LengthSq(&D3DXVECTOR3(c_rv3CameraPos - c_v3RightPos) );	

  0008c	0f 2f e3	 comiss	 xmm4, xmm3
; File C:\Program Files (x86)\Microsoft Visual Studio\2019\Community\VC\Tools\MSVC\14.28.29333\include\algorithm

; 7436 :     if (_DEBUG_LT_PRED(_Pred, *_Mid, *_First)) {

  0008f	76 0b		 jbe	 SHORT $LN61@Med3_unche
; File C:\Program Files (x86)\Microsoft Visual Studio\2019\Community\VC\Tools\MSVC\14.28.29333\include\utility

; 105  :     _Left    = _STD move(_Right);

  00091	8b 5d 08	 mov	 ebx, DWORD PTR __First$[ebp]
  00094	8b 0a		 mov	 ecx, DWORD PTR [edx]
  00096	8b 03		 mov	 eax, DWORD PTR [ebx]
  00098	89 02		 mov	 DWORD PTR [edx], eax

; 106  :     _Right   = _STD move(_Tmp);

  0009a	89 0b		 mov	 DWORD PTR [ebx], ecx
$LN61@Med3_unche:
; File C:\Program Files (x86)\Microsoft Visual Studio\2019\Community\VC\Tools\MSVC\14.28.29333\include\algorithm

; 7440 :     if (_DEBUG_LT_PRED(_Pred, *_Last, *_Mid)) { // swap middle and last, then test first again

  0009c	8b 75 10	 mov	 esi, DWORD PTR __Last$[ebp]
; File D:\Metin2 Server Files\mainline\SRC_2014\Metin2Client\GameLib\MapOutdoorRender.cpp

; 357  : 		CCamera * pCurrentCamera = CCameraManager::Instance().GetCurrentCamera();

  0009f	8b 0d 00 00 00
	00		 mov	 ecx, DWORD PTR ?ms_singleton@?$CSingleton@VCCameraManager@@@@0PAVCCameraManager@@A ; CSingleton<CCameraManager>::ms_singleton
; File C:\Program Files (x86)\Microsoft Visual Studio\2019\Community\VC\Tools\MSVC\14.28.29333\include\algorithm

; 7440 :     if (_DEBUG_LT_PRED(_Pred, *_Last, *_Mid)) { // swap middle and last, then test first again

  000a5	8b 3a		 mov	 edi, DWORD PTR [edx]
  000a7	8b 36		 mov	 esi, DWORD PTR [esi]
; File D:\Metin2 Server Files\mainline\SRC_2014\Metin2Client\GameLib\MapOutdoorRender.cpp

; 357  : 		CCamera * pCurrentCamera = CCameraManager::Instance().GetCurrentCamera();

  000a9	e8 00 00 00 00	 call	 ?GetCurrentCamera@CCameraManager@@QAEPAVCCamera@@XZ ; CCameraManager::GetCurrentCamera

; 358  : 		const D3DXVECTOR3 & c_rv3CameraPos = pCurrentCamera->GetEye();
; 359  : 		const D3DXVECTOR3 & c_v3LeftPos  = pkLeft->GetPosition();

  000ae	8b ce		 mov	 ecx, esi
  000b0	8b d8		 mov	 ebx, eax
  000b2	e8 00 00 00 00	 call	 ?GetPosition@CGraphicObjectInstance@@QBEABUD3DXVECTOR3@@XZ ; CGraphicObjectInstance::GetPosition

; 360  : 		const D3DXVECTOR3 & c_v3RightPos = pkRight->GetPosition();

  000b7	8b cf		 mov	 ecx, edi
  000b9	8b f0		 mov	 esi, eax
  000bb	e8 00 00 00 00	 call	 ?GetPosition@CGraphicObjectInstance@@QBEABUD3DXVECTOR3@@XZ ; CGraphicObjectInstance::GetPosition
; File D:\Metin2 Server Files\mainline\SRC_2014\M2Data\include\d3dx8math.inl

; 263  :     return D3DXVECTOR3(x - v.x, y - v.y, z - v.z);

  000c0	f3 0f 10 6b 30	 movss	 xmm5, DWORD PTR [ebx+48]
  000c5	f3 0f 10 63 34	 movss	 xmm4, DWORD PTR [ebx+52]
  000ca	0f 28 cd	 movaps	 xmm1, xmm5
  000cd	f3 0f 5c 0e	 subss	 xmm1, DWORD PTR [esi]
  000d1	f3 0f 5c 28	 subss	 xmm5, DWORD PTR [eax]
  000d5	f3 0f 10 53 38	 movss	 xmm2, DWORD PTR [ebx+56]
  000da	0f 28 dc	 movaps	 xmm3, xmm4
  000dd	f3 0f 5c 5e 04	 subss	 xmm3, DWORD PTR [esi+4]
  000e2	f3 0f 5c 60 04	 subss	 xmm4, DWORD PTR [eax+4]
  000e7	0f 28 c2	 movaps	 xmm0, xmm2

; 1253 :     return pV->x * pV->x + pV->y * pV->y + pV->z * pV->z;

  000ea	f3 0f 59 c9	 mulss	 xmm1, xmm1

; 263  :     return D3DXVECTOR3(x - v.x, y - v.y, z - v.z);

  000ee	f3 0f 5c 46 08	 subss	 xmm0, DWORD PTR [esi+8]
  000f3	f3 0f 5c 50 08	 subss	 xmm2, DWORD PTR [eax+8]

; 182  :     z = fz;

  000f8	f3 0f 59 db	 mulss	 xmm3, xmm3

; 1253 :     return pV->x * pV->x + pV->y * pV->y + pV->z * pV->z;

  000fc	f3 0f 59 e4	 mulss	 xmm4, xmm4
; File D:\Metin2 Server Files\mainline\SRC_2014\Metin2Client\GameLib\MapOutdoorRender.cpp

; 362  : 		return D3DXVec3LengthSq(&D3DXVECTOR3(c_rv3CameraPos - c_v3LeftPos)) < D3DXVec3LengthSq(&D3DXVECTOR3(c_rv3CameraPos - c_v3RightPos) );	

  00100	f3 0f 59 ed	 mulss	 xmm5, xmm5
; File D:\Metin2 Server Files\mainline\SRC_2014\M2Data\include\d3dx8math.inl

; 1253 :     return pV->x * pV->x + pV->y * pV->y + pV->z * pV->z;

  00104	f3 0f 58 d9	 addss	 xmm3, xmm1
  00108	f3 0f 59 c0	 mulss	 xmm0, xmm0
  0010c	f3 0f 58 e5	 addss	 xmm4, xmm5
  00110	f3 0f 59 d2	 mulss	 xmm2, xmm2
  00114	f3 0f 58 d8	 addss	 xmm3, xmm0
  00118	f3 0f 58 e2	 addss	 xmm4, xmm2
; File D:\Metin2 Server Files\mainline\SRC_2014\Metin2Client\GameLib\MapOutdoorRender.cpp

; 362  : 		return D3DXVec3LengthSq(&D3DXVECTOR3(c_rv3CameraPos - c_v3LeftPos)) < D3DXVec3LengthSq(&D3DXVECTOR3(c_rv3CameraPos - c_v3RightPos) );	

  0011c	0f 2f e3	 comiss	 xmm4, xmm3
; File C:\Program Files (x86)\Microsoft Visual Studio\2019\Community\VC\Tools\MSVC\14.28.29333\include\algorithm

; 7440 :     if (_DEBUG_LT_PRED(_Pred, *_Last, *_Mid)) { // swap middle and last, then test first again

  0011f	0f 86 9f 00 00
	00		 jbe	 $LN59@Med3_unche
; File C:\Program Files (x86)\Microsoft Visual Studio\2019\Community\VC\Tools\MSVC\14.28.29333\include\utility

