; Listing generated by Microsoft (R) Optimizing Compiler Version 19.28.29335.0 

	TITLE	D:\Metin2 Server Files\mainline\SRC_2014\Metin2Client\GameLib\MapOutdoorRender.cpp
	.686P
	.XMM
	include listing.inc
	.model	flat

INCLUDELIB LIBCMT
INCLUDELIB OLDNAMES

PUBLIC	??_H@YGXPAXIIP6EPAX0@Z@Z			; `vector constructor iterator'
PUBLIC	??0exception@std@@QAE@ABV01@@Z			; std::exception::exception
PUBLIC	??1exception@std@@UAE@XZ			; std::exception::~exception
PUBLIC	?what@exception@std@@UBEPBDXZ			; std::exception::what
PUBLIC	??_Gexception@std@@UAEPAXI@Z			; std::exception::`scalar deleting destructor'
PUBLIC	??0bad_alloc@std@@QAE@ABV01@@Z			; std::bad_alloc::bad_alloc
PUBLIC	??_Gbad_alloc@std@@UAEPAXI@Z			; std::bad_alloc::`scalar deleting destructor'
PUBLIC	??0bad_array_new_length@std@@QAE@XZ		; std::bad_array_new_length::bad_array_new_length
PUBLIC	??1bad_array_new_length@std@@UAE@XZ		; std::bad_array_new_length::~bad_array_new_length
PUBLIC	??0bad_array_new_length@std@@QAE@ABV01@@Z	; std::bad_array_new_length::bad_array_new_length
PUBLIC	??_Gbad_array_new_length@std@@UAEPAXI@Z		; std::bad_array_new_length::`scalar deleting destructor'
PUBLIC	?_Throw_bad_array_new_length@std@@YAXXZ		; std::_Throw_bad_array_new_length
PUBLIC	??0D3DXMATRIX@@QAE@XZ				; D3DXMATRIX::D3DXMATRIX
PUBLIC	?_Xlength@?$vector@EV?$allocator@E@std@@@std@@CAXXZ ; std::vector<unsigned char,std::allocator<unsigned char> >::_Xlength
PUBLIC	??$_Deallocate@$07$0A@@std@@YAXPAXI@Z		; std::_Deallocate<8,0>
PUBLIC	??$_Allocate@$07U_Default_allocate_traits@std@@$0A@@std@@YAPAXI@Z ; std::_Allocate<8,std::_Default_allocate_traits,0>
PUBLIC	??$_Allocate_manually_vector_aligned@U_Default_allocate_traits@std@@@std@@YAPAXI@Z ; std::_Allocate_manually_vector_aligned<std::_Default_allocate_traits>
PUBLIC	?OnRender@CMapOutdoor@@MAEXXZ			; CMapOutdoor::OnRender
PUBLIC	?SetInverseViewAndDynamicShaodwMatrices@CMapOutdoor@@QAEXXZ ; CMapOutdoor::SetInverseViewAndDynamicShaodwMatrices
PUBLIC	?SetVisiblePart@CMapOutdoor@@QAEXH_N@Z		; CMapOutdoor::SetVisiblePart
PUBLIC	?SetSplatLimit@CMapOutdoor@@QAEXH@Z		; CMapOutdoor::SetSplatLimit
PUBLIC	?GetRenderedSplatNum@CMapOutdoor@@QAEAAV?$vector@HV?$allocator@H@std@@@std@@PAH0PAM@Z ; CMapOutdoor::GetRenderedSplatNum
PUBLIC	?GetRenderedGraphicThingInstanceNum@CMapOutdoor@@QAEAAV?$vector@USCRCWithNumber@CArea@@V?$allocator@USCRCWithNumber@CArea@@@std@@@std@@PAK0@Z ; CMapOutdoor::GetRenderedGraphicThingInstanceNum
PUBLIC	?ApplyLight@CMapOutdoor@@UAEXKABU_D3DLIGHT8@@@Z	; CMapOutdoor::ApplyLight
PUBLIC	?RenderMarkedArea@CMapOutdoor@@QAEXXZ		; CMapOutdoor::RenderMarkedArea
PUBLIC	?RecurseRenderAttr@CMapOutdoor@@QAEXPAVCTerrainQuadtreeNode@@_N@Z ; CMapOutdoor::RecurseRenderAttr
PUBLIC	?DrawPatchAttr@CMapOutdoor@@QAEXJ@Z		; CMapOutdoor::DrawPatchAttr
PUBLIC	?RenderCollision@CMapOutdoor@@QAEXXZ		; CMapOutdoor::RenderCollision
PUBLIC	?RenderSky@CMapOutdoor@@QAEXXZ			; CMapOutdoor::RenderSky
PUBLIC	?RenderCloud@CMapOutdoor@@QAEXXZ		; CMapOutdoor::RenderCloud
PUBLIC	?RenderBeforeLensFlare@CMapOutdoor@@QAEXXZ	; CMapOutdoor::RenderBeforeLensFlare
PUBLIC	?RenderAfterLensFlare@CMapOutdoor@@QAEXXZ	; CMapOutdoor::RenderAfterLensFlare
PUBLIC	?RenderScreenFiltering@CMapOutdoor@@QAEXXZ	; CMapOutdoor::RenderScreenFiltering
PUBLIC	?RenderTerrain@CMapOutdoor@@QAEXXZ		; CMapOutdoor::RenderTerrain
PUBLIC	?RenderArea@CMapOutdoor@@QAEX_N@Z		; CMapOutdoor::RenderArea
PUBLIC	?RenderBlendArea@CMapOutdoor@@QAEXXZ		; CMapOutdoor::RenderBlendArea
PUBLIC	?RenderDungeon@CMapOutdoor@@QAEXXZ		; CMapOutdoor::RenderDungeon
PUBLIC	?RenderEffect@CMapOutdoor@@QAEXXZ		; CMapOutdoor::RenderEffect
PUBLIC	?RenderPCBlocker@CMapOutdoor@@QAEXXZ		; CMapOutdoor::RenderPCBlocker
PUBLIC	?RenderTree@CMapOutdoor@@QAEXXZ			; CMapOutdoor::RenderTree
PUBLIC	?_Xlength@?$vector@U?$pair@MJ@std@@V?$allocator@U?$pair@MJ@std@@@2@@std@@CAXXZ ; std::vector<std::pair<float,long>,std::allocator<std::pair<float,long> > >::_Xlength
PUBLIC	?_Xlength@?$vector@UTPatchDrawStruct@CMapOutdoor@@V?$allocator@UTPatchDrawStruct@CMapOutdoor@@@std@@@std@@CAXXZ ; std::vector<CMapOutdoor::TPatchDrawStruct,std::allocator<CMapOutdoor::TPatchDrawStruct> >::_Xlength
PUBLIC	?SetPatchDrawVector@CMapOutdoor@@IAEXXZ		; CMapOutdoor::SetPatchDrawVector
PUBLIC	?NEW_DrawWireFrame@CMapOutdoor@@IAEXPAVCTerrainPatchProxy@@GW4_D3DPRIMITIVETYPE@@@Z ; CMapOutdoor::NEW_DrawWireFrame
PUBLIC	?DrawWireFrame@CMapOutdoor@@IAEXJGW4_D3DPRIMITIVETYPE@@@Z ; CMapOutdoor::DrawWireFrame
PUBLIC	?SelectIndexBuffer@CMapOutdoor@@IAEXEPAGPAW4_D3DPRIMITIVETYPE@@@Z ; CMapOutdoor::SelectIndexBuffer
PUBLIC	?InitializeVisibleParts@CMapOutdoor@@IAEXXZ	; CMapOutdoor::InitializeVisibleParts
PUBLIC	?IsVisiblePart@CMapOutdoor@@IAE_NH@Z		; CMapOutdoor::IsVisiblePart
PUBLIC	?__GetNoFogDistance@CMapOutdoor@@IAEMXZ		; CMapOutdoor::__GetNoFogDistance
PUBLIC	?__GetFogDistance@CMapOutdoor@@IAEMXZ		; CMapOutdoor::__GetFogDistance
PUBLIC	?__RenderTerrain_RecurseRenderQuadTree@CMapOutdoor@@IAEXPAVCTerrainQuadtreeNode@@_N@Z ; CMapOutdoor::__RenderTerrain_RecurseRenderQuadTree
PUBLIC	?__RenderTerrain_RecurseRenderQuadTree_CheckBoundingCircle@CMapOutdoor@@IAEHABUD3DXVECTOR3@@ABM@Z ; CMapOutdoor::__RenderTerrain_RecurseRenderQuadTree_CheckBoundingCircle
PUBLIC	?__RenderTerrain_AppendPatch@CMapOutdoor@@IAEXABUD3DXVECTOR3@@MJ@Z ; CMapOutdoor::__RenderTerrain_AppendPatch
PUBLIC	??$stable_sort@V?$_Vector_iterator@V?$_Vector_val@U?$_Simple_types@UTPatchDrawStruct@CMapOutdoor@@@std@@@std@@@std@@UFSortPatchDrawStructWithTerrainNum@CMapOutdoor@@@std@@YAXV?$_Vector_iterator@V?$_Vector_val@U?$_Simple_types@UTPatchDrawStruct@CMapOutdoor@@@std@@@std@@@0@0UFSortPatchDrawStructWithTerrainNum@CMapOutdoor@@@Z ; std::stable_sort<std::_Vector_iterator<std::_Vector_val<std::_Simple_types<CMapOutdoor::TPatchDrawStruct> > >,CMapOutdoor::FSortPatchDrawStructWithTerrainNum>
PUBLIC	??$_Emplace_reallocate@ABUTPatchDrawStruct@CMapOutdoor@@@?$vector@UTPatchDrawStruct@CMapOutdoor@@V?$allocator@UTPatchDrawStruct@CMapOutdoor@@@std@@@std@@QAEPAUTPatchDrawStruct@CMapOutdoor@@QAU23@ABU23@@Z ; std::vector<CMapOutdoor::TPatchDrawStruct,std::allocator<CMapOutdoor::TPatchDrawStruct> >::_Emplace_reallocate<CMapOutdoor::TPatchDrawStruct const &>
PUBLIC	??$_Emplace_reallocate@U?$pair@MJ@std@@@?$vector@U?$pair@MJ@std@@V?$allocator@U?$pair@MJ@std@@@2@@std@@QAEPAU?$pair@MJ@1@QAU21@$$QAU21@@Z ; std::vector<std::pair<float,long>,std::allocator<std::pair<float,long> > >::_Emplace_reallocate<std::pair<float,long> >
PUBLIC	??$_Emplace_reallocate@ABE@?$vector@EV?$allocator@E@std@@@std@@QAEPAEQAEABE@Z ; std::vector<unsigned char,std::allocator<unsigned char> >::_Emplace_reallocate<unsigned char const &>
PUBLIC	??$_Destroy_range@V?$allocator@UTPatchDrawStruct@CMapOutdoor@@@std@@@std@@YAXPAUTPatchDrawStruct@CMapOutdoor@@QAU12@AAV?$allocator@UTPatchDrawStruct@CMapOutdoor@@@0@@Z ; std::_Destroy_range<std::allocator<CMapOutdoor::TPatchDrawStruct> >
PUBLIC	??$_Destroy_range@V?$allocator@U?$pair@MJ@std@@@std@@@std@@YAXPAU?$pair@MJ@0@QAU10@AAV?$allocator@U?$pair@MJ@std@@@0@@Z ; std::_Destroy_range<std::allocator<std::pair<float,long> > >
PUBLIC	??$_Destroy_range@V?$allocator@USCRCWithNumber@CArea@@@std@@@std@@YAXPAUSCRCWithNumber@CArea@@QAU12@AAV?$allocator@USCRCWithNumber@CArea@@@0@@Z ; std::_Destroy_range<std::allocator<CArea::SCRCWithNumber> >
PUBLIC	??$_Destroy_range@V?$allocator@PAVCGraphicThingInstance@@@std@@@std@@YAXPAPAVCGraphicThingInstance@@QAPAV1@AAV?$allocator@PAVCGraphicThingInstance@@@0@@Z ; std::_Destroy_range<std::allocator<CGraphicThingInstance *> >
PUBLIC	??$_Destroy_range@V?$allocator@E@std@@@std@@YAXPAEQAEAAV?$allocator@E@0@@Z ; std::_Destroy_range<std::allocator<unsigned char> >
PUBLIC	??$_Sort_unchecked@PAUSCRCWithNumber@CArea@@UCRCNumComp@2@@std@@YAXPAUSCRCWithNumber@CArea@@0HUCRCNumComp@2@@Z ; std::_Sort_unchecked<CArea::SCRCWithNumber *,CArea::CRCNumComp>
PUBLIC	??$_Sort_unchecked@PAPAVCGraphicThingInstance@@UCMapOutdoor_LessThingInstancePtrRenderOrder@@@std@@YAXPAPAVCGraphicThingInstance@@0HUCMapOutdoor_LessThingInstancePtrRenderOrder@@@Z ; std::_Sort_unchecked<CGraphicThingInstance * *,CMapOutdoor_LessThingInstancePtrRenderOrder>
PUBLIC	??$_Insertion_sort_unchecked@PAUTPatchDrawStruct@CMapOutdoor@@UFSortPatchDrawStructWithTerrainNum@2@@std@@YAPAUTPatchDrawStruct@CMapOutdoor@@QAU12@0UFSortPatchDrawStructWithTerrainNum@2@@Z ; std::_Insertion_sort_unchecked<CMapOutdoor::TPatchDrawStruct *,CMapOutdoor::FSortPatchDrawStructWithTerrainNum>
PUBLIC	??1?$_Optimistic_temporary_buffer@UTPatchDrawStruct@CMapOutdoor@@@std@@QAE@XZ ; std::_Optimistic_temporary_buffer<CMapOutdoor::TPatchDrawStruct>::~_Optimistic_temporary_buffer<CMapOutdoor::TPatchDrawStruct>
PUBLIC	??$_Stable_sort_unchecked@PAUTPatchDrawStruct@CMapOutdoor@@UFSortPatchDrawStructWithTerrainNum@2@@std@@YAXQAUTPatchDrawStruct@CMapOutdoor@@0H0HUFSortPatchDrawStructWithTerrainNum@2@@Z ; std::_Stable_sort_unchecked<CMapOutdoor::TPatchDrawStruct *,CMapOutdoor::FSortPatchDrawStructWithTerrainNum>
PUBLIC	??$_Return_temporary_buffer@UTPatchDrawStruct@CMapOutdoor@@@std@@YAXQAUTPatchDrawStruct@CMapOutdoor@@@Z ; std::_Return_temporary_buffer<CMapOutdoor::TPatchDrawStruct>
PUBLIC	??$_Uninitialized_move@PAUTPatchDrawStruct@CMapOutdoor@@V?$allocator@UTPatchDrawStruct@CMapOutdoor@@@std@@@std@@YAPAUTPatchDrawStruct@CMapOutdoor@@QAU12@0PAU12@AAV?$allocator@UTPatchDrawStruct@CMapOutdoor@@@0@@Z ; std::_Uninitialized_move<CMapOutdoor::TPatchDrawStruct *,std::allocator<CMapOutdoor::TPatchDrawStruct> >
PUBLIC	??$_Uninitialized_move@PAU?$pair@MJ@std@@V?$allocator@U?$pair@MJ@std@@@2@@std@@YAPAU?$pair@MJ@0@QAU10@0PAU10@AAV?$allocator@U?$pair@MJ@std@@@0@@Z ; std::_Uninitialized_move<std::pair<float,long> *,std::allocator<std::pair<float,long> > >
PUBLIC	??$_Uninitialized_move@PAUSCRCWithNumber@CArea@@V?$allocator@USCRCWithNumber@CArea@@@std@@@std@@YAPAUSCRCWithNumber@CArea@@QAU12@0PAU12@AAV?$allocator@USCRCWithNumber@CArea@@@0@@Z ; std::_Uninitialized_move<CArea::SCRCWithNumber *,std::allocator<CArea::SCRCWithNumber> >
PUBLIC	??$_Uninitialized_move@PAEV?$allocator@E@std@@@std@@YAPAEQAE0PAEAAV?$allocator@E@0@@Z ; std::_Uninitialized_move<unsigned char *,std::allocator<unsigned char> >
PUBLIC	??$_Sort_unchecked@PAU?$pair@MJ@std@@U?$less@X@2@@std@@YAXPAU?$pair@MJ@0@0HU?$less@X@0@@Z ; std::_Sort_unchecked<std::pair<float,long> *,std::less<void> >
PUBLIC	??$_Partition_by_median_guess_unchecked@PAUSCRCWithNumber@CArea@@UCRCNumComp@2@@std@@YA?AU?$pair@PAUSCRCWithNumber@CArea@@PAU12@@0@PAUSCRCWithNumber@CArea@@0UCRCNumComp@3@@Z ; std::_Partition_by_median_guess_unchecked<CArea::SCRCWithNumber *,CArea::CRCNumComp>
PUBLIC	??$_Insertion_sort_unchecked@PAPAVCGraphicThingInstance@@UCMapOutdoor_LessThingInstancePtrRenderOrder@@@std@@YAPAPAVCGraphicThingInstance@@QAPAV1@0UCMapOutdoor_LessThingInstancePtrRenderOrder@@@Z ; std::_Insertion_sort_unchecked<CGraphicThingInstance * *,CMapOutdoor_LessThingInstancePtrRenderOrder>
PUBLIC	??$_Make_heap_unchecked@PAPAVCGraphicThingInstance@@UCMapOutdoor_LessThingInstancePtrRenderOrder@@@std@@YAXPAPAVCGraphicThingInstance@@0UCMapOutdoor_LessThingInstancePtrRenderOrder@@@Z ; std::_Make_heap_unchecked<CGraphicThingInstance * *,CMapOutdoor_LessThingInstancePtrRenderOrder>
PUBLIC	??$_Partition_by_median_guess_unchecked@PAPAVCGraphicThingInstance@@UCMapOutdoor_LessThingInstancePtrRenderOrder@@@std@@YA?AU?$pair@PAPAVCGraphicThingInstance@@PAPAV1@@0@PAPAVCGraphicThingInstance@@0UCMapOutdoor_LessThingInstancePtrRenderOrder@@@Z ; std::_Partition_by_median_guess_unchecked<CGraphicThingInstance * *,CMapOutdoor_LessThingInstancePtrRenderOrder>
PUBLIC	??$_Get_temporary_buffer@UTPatchDrawStruct@CMapOutdoor@@@std@@YA?AU?$pair@PAUTPatchDrawStruct@CMapOutdoor@@H@0@H@Z ; std::_Get_temporary_buffer<CMapOutdoor::TPatchDrawStruct>
PUBLIC	??$_Buffered_merge_sort_unchecked@PAUTPatchDrawStruct@CMapOutdoor@@UFSortPatchDrawStructWithTerrainNum@2@@std@@YAXQAUTPatchDrawStruct@CMapOutdoor@@0H0UFSortPatchDrawStructWithTerrainNum@2@@Z ; std::_Buffered_merge_sort_unchecked<CMapOutdoor::TPatchDrawStruct *,CMapOutdoor::FSortPatchDrawStructWithTerrainNum>
PUBLIC	??$_Buffered_inplace_merge_unchecked@PAUTPatchDrawStruct@CMapOutdoor@@UFSortPatchDrawStructWithTerrainNum@2@@std@@YAXPAUTPatchDrawStruct@CMapOutdoor@@00HHQAU12@HUFSortPatchDrawStructWithTerrainNum@2@@Z ; std::_Buffered_inplace_merge_unchecked<CMapOutdoor::TPatchDrawStruct *,CMapOutdoor::FSortPatchDrawStructWithTerrainNum>
PUBLIC	??$_Copy_memmove@PAUTPatchDrawStruct@CMapOutdoor@@PAU12@@std@@YAPAUTPatchDrawStruct@CMapOutdoor@@PAU12@00@Z ; std::_Copy_memmove<CMapOutdoor::TPatchDrawStruct *,CMapOutdoor::TPatchDrawStruct *>
PUBLIC	??$_Copy_memmove@PAUSCRCWithNumber@CArea@@PAU12@@std@@YAPAUSCRCWithNumber@CArea@@PAU12@00@Z ; std::_Copy_memmove<CArea::SCRCWithNumber *,CArea::SCRCWithNumber *>
PUBLIC	??$_Copy_memmove@PAEPAE@std@@YAPAEPAE00@Z	; std::_Copy_memmove<unsigned char *,unsigned char *>
PUBLIC	??$_Refancy@PAUSCRCWithNumber@CArea@@$0A@@std@@YAPAUSCRCWithNumber@CArea@@PAU12@@Z ; std::_Refancy<CArea::SCRCWithNumber *,0>
PUBLIC	??$_Refancy@PAE$0A@@std@@YAPAEPAE@Z		; std::_Refancy<unsigned char *,0>
PUBLIC	??$_Partition_by_median_guess_unchecked@PAU?$pair@MJ@std@@U?$less@X@2@@std@@YA?AU?$pair@PAU?$pair@MJ@std@@PAU12@@0@PAU?$pair@MJ@0@0U?$less@X@0@@Z ; std::_Partition_by_median_guess_unchecked<std::pair<float,long> *,std::less<void> >
PUBLIC	??$_Pop_heap_hole_by_index@PAUSCRCWithNumber@CArea@@U12@UCRCNumComp@2@@std@@YAXPAUSCRCWithNumber@CArea@@HH$$QAU12@UCRCNumComp@2@@Z ; std::_Pop_heap_hole_by_index<CArea::SCRCWithNumber *,CArea::SCRCWithNumber,CArea::CRCNumComp>
PUBLIC	??$_Pop_heap_hole_by_index@PAPAVCGraphicThingInstance@@PAV1@UCMapOutdoor_LessThingInstancePtrRenderOrder@@@std@@YAXPAPAVCGraphicThingInstance@@HH$$QAPAV1@UCMapOutdoor_LessThingInstancePtrRenderOrder@@@Z ; std::_Pop_heap_hole_by_index<CGraphicThingInstance * *,CGraphicThingInstance *,CMapOutdoor_LessThingInstancePtrRenderOrder>
PUBLIC	??$_Copy_backward_memmove@PAUTPatchDrawStruct@CMapOutdoor@@PAU12@@std@@YAPAUTPatchDrawStruct@CMapOutdoor@@PAU12@00@Z ; std::_Copy_backward_memmove<CMapOutdoor::TPatchDrawStruct *,CMapOutdoor::TPatchDrawStruct *>
PUBLIC	??$_Insertion_sort_isort_max_chunks@PAUTPatchDrawStruct@CMapOutdoor@@UFSortPatchDrawStructWithTerrainNum@2@@std@@YAXPAUTPatchDrawStruct@CMapOutdoor@@QAU12@HUFSortPatchDrawStructWithTerrainNum@2@@Z ; std::_Insertion_sort_isort_max_chunks<CMapOutdoor::TPatchDrawStruct *,CMapOutdoor::FSortPatchDrawStructWithTerrainNum>
PUBLIC	??$_Uninitialized_chunked_merge_unchecked@PAUTPatchDrawStruct@CMapOutdoor@@U12@UFSortPatchDrawStructWithTerrainNum@2@@std@@YAXPAUTPatchDrawStruct@CMapOutdoor@@QAU12@0HHUFSortPatchDrawStructWithTerrainNum@2@@Z ; std::_Uninitialized_chunked_merge_unchecked<CMapOutdoor::TPatchDrawStruct *,CMapOutdoor::TPatchDrawStruct,CMapOutdoor::FSortPatchDrawStructWithTerrainNum>
PUBLIC	??$_Chunked_merge_unchecked@PAUTPatchDrawStruct@CMapOutdoor@@PAU12@UFSortPatchDrawStructWithTerrainNum@2@@std@@YAXPAUTPatchDrawStruct@CMapOutdoor@@QAU12@0HHUFSortPatchDrawStructWithTerrainNum@2@@Z ; std::_Chunked_merge_unchecked<CMapOutdoor::TPatchDrawStruct *,CMapOutdoor::TPatchDrawStruct *,CMapOutdoor::FSortPatchDrawStructWithTerrainNum>
PUBLIC	??$_Rotate_one_right@PAUTPatchDrawStruct@CMapOutdoor@@@std@@YAXPAUTPatchDrawStruct@CMapOutdoor@@00@Z ; std::_Rotate_one_right<CMapOutdoor::TPatchDrawStruct *>
PUBLIC	??$_Rotate_one_left@PAUTPatchDrawStruct@CMapOutdoor@@@std@@YAXPAUTPatchDrawStruct@CMapOutdoor@@00@Z ; std::_Rotate_one_left<CMapOutdoor::TPatchDrawStruct *>
PUBLIC	??$_Buffered_inplace_merge_unchecked_impl@PAUTPatchDrawStruct@CMapOutdoor@@UFSortPatchDrawStructWithTerrainNum@2@@std@@YAXPAUTPatchDrawStruct@CMapOutdoor@@00HHQAU12@HUFSortPatchDrawStructWithTerrainNum@2@@Z ; std::_Buffered_inplace_merge_unchecked_impl<CMapOutdoor::TPatchDrawStruct *,CMapOutdoor::FSortPatchDrawStructWithTerrainNum>
PUBLIC	??$_Destroy_range@PAUTPatchDrawStruct@CMapOutdoor@@PAU12@@std@@YAXPAUTPatchDrawStruct@CMapOutdoor@@QAU12@@Z ; std::_Destroy_range<CMapOutdoor::TPatchDrawStruct *,CMapOutdoor::TPatchDrawStruct *>
PUBLIC	??$_Pop_heap_hole_by_index@PAU?$pair@MJ@std@@U12@U?$less@X@2@@std@@YAXPAU?$pair@MJ@0@HH$$QAU10@U?$less@X@0@@Z ; std::_Pop_heap_hole_by_index<std::pair<float,long> *,std::pair<float,long>,std::less<void> >
PUBLIC	??$_Copy_backward_memmove@PAUSCRCWithNumber@CArea@@PAU12@@std@@YAPAUSCRCWithNumber@CArea@@PAU12@00@Z ; std::_Copy_backward_memmove<CArea::SCRCWithNumber *,CArea::SCRCWithNumber *>
PUBLIC	??$_Med3_unchecked@PAUSCRCWithNumber@CArea@@UCRCNumComp@2@@std@@YAXPAUSCRCWithNumber@CArea@@00UCRCNumComp@2@@Z ; std::_Med3_unchecked<CArea::SCRCWithNumber *,CArea::CRCNumComp>
PUBLIC	??$_Copy_backward_memmove@PAPAVCGraphicThingInstance@@PAPAV1@@std@@YAPAPAVCGraphicThingInstance@@PAPAV1@00@Z ; std::_Copy_backward_memmove<CGraphicThingInstance * *,CGraphicThingInstance * *>
PUBLIC	??$_Med3_unchecked@PAPAVCGraphicThingInstance@@UCMapOutdoor_LessThingInstancePtrRenderOrder@@@std@@YAXPAPAVCGraphicThingInstance@@00UCMapOutdoor_LessThingInstancePtrRenderOrder@@@Z ; std::_Med3_unchecked<CGraphicThingInstance * *,CMapOutdoor_LessThingInstancePtrRenderOrder>
PUBLIC	??$_Uninitialized_merge_move@PAUTPatchDrawStruct@CMapOutdoor@@U12@UFSortPatchDrawStructWithTerrainNum@2@@std@@YAPAUTPatchDrawStruct@CMapOutdoor@@PAU12@QAU12@11UFSortPatchDrawStructWithTerrainNum@2@@Z ; std::_Uninitialized_merge_move<CMapOutdoor::TPatchDrawStruct *,CMapOutdoor::TPatchDrawStruct,CMapOutdoor::FSortPatchDrawStructWithTerrainNum>
PUBLIC	??$_Uninitialized_move_unchecked@PAUTPatchDrawStruct@CMapOutdoor@@PAU12@@std@@YAPAUTPatchDrawStruct@CMapOutdoor@@PAU12@QAU12@0@Z ; std::_Uninitialized_move_unchecked<CMapOutdoor::TPatchDrawStruct *,CMapOutdoor::TPatchDrawStruct *>
PUBLIC	??$_Merge_move@PAUTPatchDrawStruct@CMapOutdoor@@PAU12@UFSortPatchDrawStructWithTerrainNum@2@@std@@YAPAUTPatchDrawStruct@CMapOutdoor@@PAU12@QAU12@10UFSortPatchDrawStructWithTerrainNum@2@@Z ; std::_Merge_move<CMapOutdoor::TPatchDrawStruct *,CMapOutdoor::TPatchDrawStruct *,CMapOutdoor::FSortPatchDrawStructWithTerrainNum>
PUBLIC	??$_Inplace_merge_buffer_left@PAUTPatchDrawStruct@CMapOutdoor@@UFSortPatchDrawStructWithTerrainNum@2@@std@@YAXPAUTPatchDrawStruct@CMapOutdoor@@00QAU12@UFSortPatchDrawStructWithTerrainNum@2@@Z ; std::_Inplace_merge_buffer_left<CMapOutdoor::TPatchDrawStruct *,CMapOutdoor::FSortPatchDrawStructWithTerrainNum>
PUBLIC	??$_Inplace_merge_buffer_right@PAUTPatchDrawStruct@CMapOutdoor@@UFSortPatchDrawStructWithTerrainNum@2@@std@@YAXPAUTPatchDrawStruct@CMapOutdoor@@00QAU12@UFSortPatchDrawStructWithTerrainNum@2@@Z ; std::_Inplace_merge_buffer_right<CMapOutdoor::TPatchDrawStruct *,CMapOutdoor::FSortPatchDrawStructWithTerrainNum>
PUBLIC	??$_Buffered_inplace_merge_divide_and_conquer@PAUTPatchDrawStruct@CMapOutdoor@@UFSortPatchDrawStructWithTerrainNum@2@@std@@YAXPAUTPatchDrawStruct@CMapOutdoor@@00HHQAU12@HUFSortPatchDrawStructWithTerrainNum@2@@Z ; std::_Buffered_inplace_merge_divide_and_conquer<CMapOutdoor::TPatchDrawStruct *,CMapOutdoor::FSortPatchDrawStructWithTerrainNum>
PUBLIC	??$_Med3_unchecked@PAU?$pair@MJ@std@@U?$less@X@2@@std@@YAXPAU?$pair@MJ@0@00U?$less@X@0@@Z ; std::_Med3_unchecked<std::pair<float,long> *,std::less<void> >
PUBLIC	??$lower_bound@PAUTPatchDrawStruct@CMapOutdoor@@U12@UFSortPatchDrawStructWithTerrainNum@2@@std@@YAPAUTPatchDrawStruct@CMapOutdoor@@PAU12@QAU12@ABU12@UFSortPatchDrawStructWithTerrainNum@2@@Z ; std::lower_bound<CMapOutdoor::TPatchDrawStruct *,CMapOutdoor::TPatchDrawStruct,CMapOutdoor::FSortPatchDrawStructWithTerrainNum>
PUBLIC	??$_Buffered_inplace_merge_divide_and_conquer2@PAUTPatchDrawStruct@CMapOutdoor@@UFSortPatchDrawStructWithTerrainNum@2@@std@@YAXPAUTPatchDrawStruct@CMapOutdoor@@00HHQAU12@HUFSortPatchDrawStructWithTerrainNum@2@00HH@Z ; std::_Buffered_inplace_merge_divide_and_conquer2<CMapOutdoor::TPatchDrawStruct *,CMapOutdoor::FSortPatchDrawStructWithTerrainNum>
PUBLIC	??$upper_bound@PAUTPatchDrawStruct@CMapOutdoor@@U12@UFSortPatchDrawStructWithTerrainNum@2@@std@@YAPAUTPatchDrawStruct@CMapOutdoor@@PAU12@0ABU12@UFSortPatchDrawStructWithTerrainNum@2@@Z ; std::upper_bound<CMapOutdoor::TPatchDrawStruct *,CMapOutdoor::TPatchDrawStruct,CMapOutdoor::FSortPatchDrawStructWithTerrainNum>
PUBLIC	??$_Construct_in_place@UTPatchDrawStruct@CMapOutdoor@@U12@@std@@YAXAAUTPatchDrawStruct@CMapOutdoor@@$$QAU12@@Z ; std::_Construct_in_place<CMapOutdoor::TPatchDrawStruct,CMapOutdoor::TPatchDrawStruct>
PUBLIC	??$_Buffered_rotate_unchecked@PAUTPatchDrawStruct@CMapOutdoor@@@std@@YAPAUTPatchDrawStruct@CMapOutdoor@@QAU12@00HH0H@Z ; std::_Buffered_rotate_unchecked<CMapOutdoor::TPatchDrawStruct *>
PUBLIC	??$reverse@PAUTPatchDrawStruct@CMapOutdoor@@@std@@YAXQAUTPatchDrawStruct@CMapOutdoor@@0@Z ; std::reverse<CMapOutdoor::TPatchDrawStruct *>
PUBLIC	??_7exception@std@@6B@				; std::exception::`vftable'
PUBLIC	??_C@_0BC@EOODALEL@Unknown?5exception@		; `string'
PUBLIC	??_7bad_alloc@std@@6B@				; std::bad_alloc::`vftable'
PUBLIC	??_7bad_array_new_length@std@@6B@		; std::bad_array_new_length::`vftable'
PUBLIC	??_C@_0BF@KINCDENJ@bad?5array?5new?5length@	; `string'
PUBLIC	__TI3?AVbad_array_new_length@std@@
PUBLIC	__CTA3?AVbad_array_new_length@std@@
PUBLIC	??_R0?AVbad_array_new_length@std@@@8		; std::bad_array_new_length `RTTI Type Descriptor'
PUBLIC	__CT??_R0?AVbad_array_new_length@std@@@8??0bad_array_new_length@std@@QAE@ABV01@@Z12
PUBLIC	??_R0?AVbad_alloc@std@@@8			; std::bad_alloc `RTTI Type Descriptor'
PUBLIC	__CT??_R0?AVbad_alloc@std@@@8??0bad_alloc@std@@QAE@ABV01@@Z12
PUBLIC	??_R0?AVexception@std@@@8			; std::exception `RTTI Type Descriptor'
PUBLIC	__CT??_R0?AVexception@std@@@8??0exception@std@@QAE@ABV01@@Z12
PUBLIC	??_R4exception@std@@6B@				; std::exception::`RTTI Complete Object Locator'
PUBLIC	??_R3exception@std@@8				; std::exception::`RTTI Class Hierarchy Descriptor'
PUBLIC	??_R2exception@std@@8				; std::exception::`RTTI Base Class Array'
PUBLIC	??_R1A@?0A@EA@exception@std@@8			; std::exception::`RTTI Base Class Descriptor at (0,-1,0,64)'
PUBLIC	??_R4bad_alloc@std@@6B@				; std::bad_alloc::`RTTI Complete Object Locator'
PUBLIC	??_R3bad_alloc@std@@8				; std::bad_alloc::`RTTI Class Hierarchy Descriptor'
PUBLIC	??_R2bad_alloc@std@@8				; std::bad_alloc::`RTTI Base Class Array'
PUBLIC	??_R1A@?0A@EA@bad_alloc@std@@8			; std::bad_alloc::`RTTI Base Class Descriptor at (0,-1,0,64)'
PUBLIC	??_R4bad_array_new_length@std@@6B@		; std::bad_array_new_length::`RTTI Complete Object Locator'
PUBLIC	??_R3bad_array_new_length@std@@8		; std::bad_array_new_length::`RTTI Class Hierarchy Descriptor'
PUBLIC	??_R2bad_array_new_length@std@@8		; std::bad_array_new_length::`RTTI Base Class Array'
PUBLIC	??_R1A@?0A@EA@bad_array_new_length@std@@8	; std::bad_array_new_length::`RTTI Base Class Descriptor at (0,-1,0,64)'
PUBLIC	?ms_singleton@?$CSingleton@VCSpeedTreeForestDirectX8@@@@0PAVCSpeedTreeForestDirectX8@@A ; CSingleton<CSpeedTreeForestDirectX8>::ms_singleton
PUBLIC	?m_TerrainNumVector@FSortPatchDrawStructWithTerrainNum@CMapOutdoor@@2V?$vector@EV?$allocator@E@std@@@std@@A ; CMapOutdoor::FSortPatchDrawStructWithTerrainNum::m_TerrainNumVector
PUBLIC	?ms_singleton@?$CSingleton@VCCameraManager@@@@0PAVCCameraManager@@A ; CSingleton<CCameraManager>::ms_singleton
PUBLIC	?ms_singleton@?$CSingleton@VCStateManager@@@@0PAVCStateManager@@A ; CSingleton<CStateManager>::ms_singleton
PUBLIC	?m_dwRenderedCRCWithNumberVector@@3V?$vector@USCRCWithNumber@CArea@@V?$allocator@USCRCWithNumber@CArea@@@std@@@std@@A ; m_dwRenderedCRCWithNumberVector
PUBLIC	??_C@_0DP@MKJEJLFD@CMapOutdoor?3?3RenderBeforeLensFl@ ; `string'
PUBLIC	??_R0?AVCGraphicObjectInstance@@@8		; CGraphicObjectInstance `RTTI Type Descriptor'
PUBLIC	??_R0?AVCGraphicThingInstance@@@8		; CGraphicThingInstance `RTTI Type Descriptor'
PUBLIC	??_C@_0BA@FOIKENOD@vector?5too?5long@		; `string'
PUBLIC	__real@3dcccccd
PUBLIC	__real@3f000000
PUBLIC	__real@3f400000
PUBLIC	__real@3f800000
PUBLIC	__real@42000000
PUBLIC	__real@437f0000
PUBLIC	__real@449c4000
PUBLIC	__real@45075000
PUBLIC	__real@453b8000
PUBLIC	__real@45875000
PUBLIC	__xmm@41f00000000000000000000000000000
PUBLIC	__xmm@7fffffff7fffffff7fffffff7fffffff
PUBLIC	__xmm@80000000800000008000000080000000
EXTRN	??2@YAPAXI@Z:PROC				; operator new
EXTRN	??3@YAXPAX@Z:PROC				; operator delete
EXTRN	??3@YAXPAXI@Z:PROC				; operator delete
EXTRN	_atexit:PROC
EXTRN	__Init_thread_header:PROC
EXTRN	__Init_thread_footer:PROC
EXTRN	__invalid_parameter_noinfo_noreturn:PROC
EXTRN	__imp__timeGetTime@0:PROC
EXTRN	??2@YAPAXIABUnothrow_t@std@@@Z:PROC		; operator new
EXTRN	___std_exception_copy:PROC
EXTRN	___std_exception_destroy:PROC
EXTRN	??_Eexception@std@@UAEPAXI@Z:PROC		; std::exception::`vector deleting destructor'
EXTRN	??_Ebad_alloc@std@@UAEPAXI@Z:PROC		; std::bad_alloc::`vector deleting destructor'
EXTRN	??_Ebad_array_new_length@std@@UAEPAXI@Z:PROC	; std::bad_array_new_length::`vector deleting destructor'
EXTRN	?_Xlength_error@std@@YAXPBD@Z:PROC		; std::_Xlength_error
EXTRN	?fMAX@@YAMMM@Z:PROC				; fMAX
EXTRN	_D3DXMatrixMultiply@12:PROC
EXTRN	_D3DXMatrixScaling@16:PROC
EXTRN	_D3DXMatrixLookAtRH@16:PROC
EXTRN	?TraceError@@YAXPBDZZ:PROC			; TraceError
EXTRN	?SetBlendOperation@CScreen@@QAEXXZ:PROC		; CScreen::SetBlendOperation
EXTRN	?GetD3DTexture@CGraphicTexture@@QBEPAUIDirect3DTexture8@@XZ:PROC ; CGraphicTexture::GetD3DTexture
EXTRN	?GetD3DIndexBuffer@CGraphicIndexBuffer@@QBEPAUIDirect3DIndexBuffer8@@XZ:PROC ; CGraphicIndexBuffer::GetD3DIndexBuffer
EXTRN	?GetTexturePointer@CGraphicImageInstance@@QAEPAVCGraphicTexture@@XZ:PROC ; CGraphicImageInstance::GetTexturePointer
EXTRN	?RenderCloud@CSkyBox@@QAEXXZ:PROC		; CSkyBox::RenderCloud
EXTRN	?Compute@CLensFlare@@QAEXABUD3DXVECTOR3@@@Z:PROC ; CLensFlare::Compute
EXTRN	?DrawBeforeFlare@CLensFlare@@QAEXXZ:PROC	; CLensFlare::DrawBeforeFlare
EXTRN	?DrawFlare@CLensFlare@@QAEXXZ:PROC		; CLensFlare::DrawFlare
EXTRN	?AdjustBrightness@CLensFlare@@QAEXXZ:PROC	; CLensFlare::AdjustBrightness
EXTRN	?Render@CScreenFilter@@QAEXXZ:PROC		; CScreenFilter::Render
EXTRN	?GetPosition@CGraphicObjectInstance@@QBEABUD3DXVECTOR3@@XZ:PROC ; CGraphicObjectInstance::GetPosition
EXTRN	?Render@CGraphicObjectInstance@@QAE_NXZ:PROC	; CGraphicObjectInstance::Render
EXTRN	?BlendRender@CGraphicObjectInstance@@QAEXXZ:PROC ; CGraphicObjectInstance::BlendRender
EXTRN	?RenderShadow@CGraphicObjectInstance@@QAEXXZ:PROC ; CGraphicObjectInstance::RenderShadow
EXTRN	?RenderPCBlocker@CGraphicObjectInstance@@QAEXXZ:PROC ; CGraphicObjectInstance::RenderPCBlocker
EXTRN	?Show@CGraphicObjectInstance@@QAEXXZ:PROC	; CGraphicObjectInstance::Show
EXTRN	?Hide@CGraphicObjectInstance@@QAEXXZ:PROC	; CGraphicObjectInstance::Hide
EXTRN	?HaveBlendThing@CGraphicThingInstance@@QAE_NXZ:PROC ; CGraphicThingInstance::HaveBlendThing
EXTRN	?CollectRenderingObject@CArea@@QAEXAAV?$vector@PAVCGraphicThingInstance@@V?$allocator@PAVCGraphicThingInstance@@@std@@@std@@@Z:PROC ; CArea::CollectRenderingObject
EXTRN	?CollectBlendRenderingObject@CArea@@QAEXAAV?$vector@PAVCGraphicThingInstance@@V?$allocator@PAVCGraphicThingInstance@@@std@@@std@@@Z:PROC ; CArea::CollectBlendRenderingObject
EXTRN	?RenderEffect@CArea@@QAEXXZ:PROC		; CArea::RenderEffect
EXTRN	?RenderCollision@CArea@@QAEXXZ:PROC		; CArea::RenderCollision
EXTRN	?RenderDungeon@CArea@@QAEXXZ:PROC		; CArea::RenderDungeon
EXTRN	?SetCenterPosition@CTerrainPatchProxy@@QAEXABUD3DXVECTOR3@@@Z:PROC ; CTerrainPatchProxy::SetCenterPosition
EXTRN	?HardwareTransformPatch_GetVertexBufferPtr@CTerrainPatchProxy@@QAEPAVCGraphicVertexBuffer@@XZ:PROC ; CTerrainPatchProxy::HardwareTransformPatch_GetVertexBufferPtr
EXTRN	?GetTerrainPointer@CMapOutdoor@@QAEHEPAPAVCTerrain@@@Z:PROC ; CMapOutdoor::GetTerrainPointer
EXTRN	?GetAreaPointer@CMapOutdoor@@QAEHEPAPAVCArea@@@Z:PROC ; CMapOutdoor::GetAreaPointer
EXTRN	?BuildViewFrustum@CMapOutdoor@@IAEXAAUD3DXMATRIX@@@Z:PROC ; CMapOutdoor::BuildViewFrustum
EXTRN	?__RenderTerrain_RenderSoftwareTransformPatch@CMapOutdoor@@IAEXXZ:PROC ; CMapOutdoor::__RenderTerrain_RenderSoftwareTransformPatch
EXTRN	?__RenderTerrain_RenderHardwareTransformPatch@CMapOutdoor@@IAEXXZ:PROC ; CMapOutdoor::__RenderTerrain_RenderHardwareTransformPatch
EXTRN	?GetCurrentCamera@CCameraManager@@QAEPAVCCamera@@XZ:PROC ; CCameraManager::GetCurrentCamera
EXTRN	?SetLight@CStateManager@@QAEXKPBU_D3DLIGHT8@@@Z:PROC ; CStateManager::SetLight
EXTRN	?SaveRenderState@CStateManager@@QAEXW4_D3DRENDERSTATETYPE@@K@Z:PROC ; CStateManager::SaveRenderState
EXTRN	?RestoreRenderState@CStateManager@@QAEXW4_D3DRENDERSTATETYPE@@@Z:PROC ; CStateManager::RestoreRenderState
EXTRN	?SetRenderState@CStateManager@@QAEXW4_D3DRENDERSTATETYPE@@K@Z:PROC ; CStateManager::SetRenderState
EXTRN	?SetTexture@CStateManager@@QAEXKPAUIDirect3DBaseTexture8@@@Z:PROC ; CStateManager::SetTexture
EXTRN	?SaveTextureStageState@CStateManager@@QAEXKW4_D3DTEXTURESTAGESTATETYPE@@K@Z:PROC ; CStateManager::SaveTextureStageState
EXTRN	?RestoreTextureStageState@CStateManager@@QAEXKW4_D3DTEXTURESTAGESTATETYPE@@@Z:PROC ; CStateManager::RestoreTextureStageState
EXTRN	?SetTextureStageState@CStateManager@@QAEXKW4_D3DTEXTURESTAGESTATETYPE@@K@Z:PROC ; CStateManager::SetTextureStageState
EXTRN	?SetVertexShader@CStateManager@@QAEXK@Z:PROC	; CStateManager::SetVertexShader
EXTRN	?SaveTransform@CStateManager@@QAEXW4_D3DTRANSFORMSTATETYPE@@PBU_D3DMATRIX@@@Z:PROC ; CStateManager::SaveTransform
EXTRN	?RestoreTransform@CStateManager@@QAEXW4_D3DTRANSFORMSTATETYPE@@@Z:PROC ; CStateManager::RestoreTransform
EXTRN	?SetTransform@CStateManager@@QAEXW4_D3DTRANSFORMSTATETYPE@@PBU_D3DMATRIX@@@Z:PROC ; CStateManager::SetTransform
EXTRN	?SetStreamSource@CStateManager@@QAEXIPAUIDirect3DVertexBuffer8@@I@Z:PROC ; CStateManager::SetStreamSource
EXTRN	?SetIndices@CStateManager@@QAEXPAUIDirect3DIndexBuffer8@@I@Z:PROC ; CStateManager::SetIndices
EXTRN	?DrawIndexedPrimitive@CStateManager@@QAEJW4_D3DPRIMITIVETYPE@@IIII@Z:PROC ; CStateManager::DrawIndexedPrimitive
EXTRN	?GetRenderState@CStateManager@@QAEKW4_D3DRENDERSTATETYPE@@@Z:PROC ; CStateManager::GetRenderState
EXTRN	@__security_check_cookie@4:PROC
EXTRN	__CxxThrowException@8:PROC
EXTRN	___CxxFrameHandler3:PROC
EXTRN	___RTDynamicCast:PROC
EXTRN	__chkstk:PROC
EXTRN	__ftoui3:PROC
EXTRN	_memchr:PROC
EXTRN	_memmove:PROC
EXTRN	__Init_thread_epoch:DWORD
EXTRN	?nothrow@std@@3Unothrow_t@1@B:BYTE		; std::nothrow
EXTRN	??_7type_info@@6B@:QWORD			; type_info::`vftable'
EXTRN	?ms_matView@CGraphicBase@@1UD3DXMATRIX@@A:BYTE	; CGraphicBase::ms_matView
EXTRN	?ms_matProj@CGraphicBase@@1UD3DXMATRIX@@A:BYTE	; CGraphicBase::ms_matProj
EXTRN	?SOFTWARE_TRANSFORM_PATCH_ENABLE@CTerrainPatch@@2_NA:BYTE ; CTerrainPatch::SOFTWARE_TRANSFORM_PATCH_ENABLE
EXTRN	___security_cookie:DWORD
EXTRN	__fltused:DWORD
EXTRN	__tls_array:DWORD
EXTRN	__tls_index:DWORD
;	COMDAT ?ms_singleton@?$CSingleton@VCSpeedTreeForestDirectX8@@@@0PAVCSpeedTreeForestDirectX8@@A
_BSS	SEGMENT
?ms_singleton@?$CSingleton@VCSpeedTreeForestDirectX8@@@@0PAVCSpeedTreeForestDirectX8@@A DD 01H DUP (?) ; CSingleton<CSpeedTreeForestDirectX8>::ms_singleton
_BSS	ENDS
_BSS	SEGMENT
?m_TerrainNumVector@FSortPatchDrawStructWithTerrainNum@CMapOutdoor@@2V?$vector@EV?$allocator@E@std@@@std@@A DB 0cH DUP (?) ; CMapOutdoor::FSortPatchDrawStructWithTerrainNum::m_TerrainNumVector
_BSS	ENDS
;	COMDAT ?ms_singleton@?$CSingleton@VCCameraManager@@@@0PAVCCameraManager@@A
_BSS	SEGMENT
?ms_singleton@?$CSingleton@VCCameraManager@@@@0PAVCCameraManager@@A DD 01H DUP (?) ; CSingleton<CCameraManager>::ms_singleton
_BSS	ENDS
;	COMDAT ?ms_singleton@?$CSingleton@VCStateManager@@@@0PAVCStateManager@@A
_BSS	SEGMENT
?ms_singleton@?$CSingleton@VCStateManager@@@@0PAVCStateManager@@A DD 01H DUP (?) ; CSingleton<CStateManager>::ms_singleton
_BSS	ENDS
_BSS	SEGMENT
?m_dwRenderedCRCWithNumberVector@@3V?$vector@USCRCWithNumber@CArea@@V?$allocator@USCRCWithNumber@CArea@@@std@@@std@@A DB 0cH DUP (?) ; m_dwRenderedCRCWithNumberVector
_BSS	ENDS
;	COMDAT ?s_kVct_pkOpaqueThingInstSort@?CB@??RenderArea@CMapOutdoor@@QAEX_N@Z@4V?$vector@PAVCGraphicThingInstance@@V?$allocator@PAVCGraphicThingInstance@@@std@@@std@@A
_BSS	SEGMENT
?s_kVct_pkOpaqueThingInstSort@?CB@??RenderArea@CMapOutdoor@@QAEX_N@Z@4V?$vector@PAVCGraphicThingInstance@@V?$allocator@PAVCGraphicThingInstance@@@std@@@std@@A DB 0cH DUP (?) ; `CMapOutdoor::RenderArea'::`33'::s_kVct_pkOpaqueThingInstSort
_BSS	ENDS
;	COMDAT ?$TSS0@?CB@??RenderArea@CMapOutdoor@@QAEX_N@Z@4HA
_BSS	SEGMENT
?$TSS0@?CB@??RenderArea@CMapOutdoor@@QAEX_N@Z@4HA DD 01H DUP (?) ; `CMapOutdoor::RenderArea'::`33'::$TSS0
_BSS	ENDS
;	COMDAT ?s_kVct_pkBlendThingInstSort@?1??RenderBlendArea@CMapOutdoor@@QAEXXZ@4V?$vector@PAVCGraphicThingInstance@@V?$allocator@PAVCGraphicThingInstance@@@std@@@std@@A
_BSS	SEGMENT
?s_kVct_pkBlendThingInstSort@?1??RenderBlendArea@CMapOutdoor@@QAEXXZ@4V?$vector@PAVCGraphicThingInstance@@V?$allocator@PAVCGraphicThingInstance@@@std@@@std@@A DB 0cH DUP (?) ; `CMapOutdoor::RenderBlendArea'::`2'::s_kVct_pkBlendThingInstSort
_BSS	ENDS
;	COMDAT ?$TSS0@?1??RenderBlendArea@CMapOutdoor@@QAEXXZ@4HA
_BSS	SEGMENT
?$TSS0@?1??RenderBlendArea@CMapOutdoor@@QAEXXZ@4HA DD 01H DUP (?) ; `CMapOutdoor::RenderBlendArea'::`2'::$TSS0
_BSS	ENDS
;	COMDAT ?lStartTime@?1??RenderMarkedArea@CMapOutdoor@@QAEXXZ@4JA
_BSS	SEGMENT
?lStartTime@?1??RenderMarkedArea@CMapOutdoor@@QAEXXZ@4JA DD 01H DUP (?) ; `CMapOutdoor::RenderMarkedArea'::`2'::lStartTime
_BSS	ENDS
;	COMDAT ?$TSS0@?1??RenderMarkedArea@CMapOutdoor@@QAEXXZ@4HA
_BSS	SEGMENT
?$TSS0@?1??RenderMarkedArea@CMapOutdoor@@QAEXXZ@4HA DD 01H DUP (?) ; `CMapOutdoor::RenderMarkedArea'::`2'::$TSS0
_BSS	ENDS
CRT$XCU	SEGMENT
?m_dwRenderedCRCWithNumberVector$initializer$@@3P6AXXZA DD FLAT:??__Em_dwRenderedCRCWithNumberVector@@YAXXZ ; m_dwRenderedCRCWithNumberVector$initializer$
CRT$XCU	ENDS
;	COMDAT __xmm@80000000800000008000000080000000
CONST	SEGMENT
__xmm@80000000800000008000000080000000 DB 00H, 00H, 00H, 080H, 00H, 00H, 00H
	DB	080H, 00H, 00H, 00H, 080H, 00H, 00H, 00H, 080H
CONST	ENDS
;	COMDAT __xmm@7fffffff7fffffff7fffffff7fffffff
CONST	SEGMENT
__xmm@7fffffff7fffffff7fffffff7fffffff DB 0ffH, 0ffH, 0ffH, 07fH, 0ffH, 0ffH
	DB	0ffH, 07fH, 0ffH, 0ffH, 0ffH, 07fH, 0ffH, 0ffH, 0ffH, 07fH
CONST	ENDS
;	COMDAT __xmm@41f00000000000000000000000000000
CONST	SEGMENT
__xmm@41f00000000000000000000000000000 DB 00H, 00H, 00H, 00H, 00H, 00H, 00H
	DB	00H, 00H, 00H, 00H, 00H, 00H, 00H, 0f0H, 'A'
CONST	ENDS
;	COMDAT __real@45875000
CONST	SEGMENT
__real@45875000 DD 045875000r			; 4330
CONST	ENDS
;	COMDAT __real@453b8000
CONST	SEGMENT
__real@453b8000 DD 0453b8000r			; 3000
CONST	ENDS
;	COMDAT __real@45075000
CONST	SEGMENT
__real@45075000 DD 045075000r			; 2165
CONST	ENDS
;	COMDAT __real@449c4000
CONST	SEGMENT
__real@449c4000 DD 0449c4000r			; 1250
CONST	ENDS
;	COMDAT __real@437f0000
CONST	SEGMENT
__real@437f0000 DD 0437f0000r			; 255
CONST	ENDS
;	COMDAT __real@42000000
CONST	SEGMENT
__real@42000000 DD 042000000r			; 32
CONST	ENDS
;	COMDAT __real@3f800000
CONST	SEGMENT
__real@3f800000 DD 03f800000r			; 1
CONST	ENDS
;	COMDAT __real@3f400000
CONST	SEGMENT
__real@3f400000 DD 03f400000r			; 0.75
CONST	ENDS
;	COMDAT __real@3f000000
CONST	SEGMENT
__real@3f000000 DD 03f000000r			; 0.5
CONST	ENDS
;	COMDAT __real@3dcccccd
CONST	SEGMENT
__real@3dcccccd DD 03dcccccdr			; 0.1
CONST	ENDS
;	COMDAT ??_C@_0BA@FOIKENOD@vector?5too?5long@
CONST	SEGMENT
??_C@_0BA@FOIKENOD@vector?5too?5long@ DB 'vector too long', 00H ; `string'
CONST	ENDS
;	COMDAT ??_R0?AVCGraphicThingInstance@@@8
data$r	SEGMENT
??_R0?AVCGraphicThingInstance@@@8 DD FLAT:??_7type_info@@6B@ ; CGraphicThingInstance `RTTI Type Descriptor'
	DD	00H
	DB	'.?AVCGraphicThingInstance@@', 00H
data$r	ENDS
;	COMDAT ??_R0?AVCGraphicObjectInstance@@@8
data$r	SEGMENT
??_R0?AVCGraphicObjectInstance@@@8 DD FLAT:??_7type_info@@6B@ ; CGraphicObjectInstance `RTTI Type Descriptor'
	DD	00H
	DB	'.?AVCGraphicObjectInstance@@', 00H
data$r	ENDS
;	COMDAT ??_C@_0DP@MKJEJLFD@CMapOutdoor?3?3RenderBeforeLensFl@
CONST	SEGMENT
??_C@_0DP@MKJEJLFD@CMapOutdoor?3?3RenderBeforeLensFl@ DB 'CMapOutdoor::Re'
	DB	'nderBeforeLensFlare mc_pEnvironmentData is NULL', 00H ; `string'
CONST	ENDS
;	COMDAT ??_R1A@?0A@EA@bad_array_new_length@std@@8
rdata$r	SEGMENT
??_R1A@?0A@EA@bad_array_new_length@std@@8 DD FLAT:??_R0?AVbad_array_new_length@std@@@8 ; std::bad_array_new_length::`RTTI Base Class Descriptor at (0,-1,0,64)'
	DD	02H
	DD	00H
	DD	0ffffffffH
	DD	00H
	DD	040H
	DD	FLAT:??_R3bad_array_new_length@std@@8
rdata$r	ENDS
;	COMDAT ??_R2bad_array_new_length@std@@8
rdata$r	SEGMENT
??_R2bad_array_new_length@std@@8 DD FLAT:??_R1A@?0A@EA@bad_array_new_length@std@@8 ; std::bad_array_new_length::`RTTI Base Class Array'
	DD	FLAT:??_R1A@?0A@EA@bad_alloc@std@@8
	DD	FLAT:??_R1A@?0A@EA@exception@std@@8
rdata$r	ENDS
;	COMDAT ??_R3bad_array_new_length@std@@8
rdata$r	SEGMENT
??_R3bad_array_new_length@std@@8 DD 00H			; std::bad_array_new_length::`RTTI Class Hierarchy Descriptor'
	DD	00H
	DD	03H
	DD	FLAT:??_R2bad_array_new_length@std@@8
rdata$r	ENDS
;	COMDAT ??_R4bad_array_new_length@std@@6B@
rdata$r	SEGMENT
??_R4bad_array_new_length@std@@6B@ DD 00H		; std::bad_array_new_length::`RTTI Complete Object Locator'
	DD	00H
	DD	00H
	DD	FLAT:??_R0?AVbad_array_new_length@std@@@8
	DD	FLAT:??_R3bad_array_new_length@std@@8
rdata$r	ENDS
;	COMDAT ??_R1A@?0A@EA@bad_alloc@std@@8
rdata$r	SEGMENT
??_R1A@?0A@EA@bad_alloc@std@@8 DD FLAT:??_R0?AVbad_alloc@std@@@8 ; std::bad_alloc::`RTTI Base Class Descriptor at (0,-1,0,64)'
	DD	01H
	DD	00H
	DD	0ffffffffH
	DD	00H
	DD	040H
	DD	FLAT:??_R3bad_alloc@std@@8
rdata$r	ENDS
;	COMDAT ??_R2bad_alloc@std@@8
rdata$r	SEGMENT
??_R2bad_alloc@std@@8 DD FLAT:??_R1A@?0A@EA@bad_alloc@std@@8 ; std::bad_alloc::`RTTI Base Class Array'
	DD	FLAT:??_R1A@?0A@EA@exception@std@@8
rdata$r	ENDS
;	COMDAT ??_R3bad_alloc@std@@8
rdata$r	SEGMENT
??_R3bad_alloc@std@@8 DD 00H				; std::bad_alloc::`RTTI Class Hierarchy Descriptor'
	DD	00H
	DD	02H
	DD	FLAT:??_R2bad_alloc@std@@8
rdata$r	ENDS
;	COMDAT ??_R4bad_alloc@std@@6B@
rdata$r	SEGMENT
??_R4bad_alloc@std@@6B@ DD 00H				; std::bad_alloc::`RTTI Complete Object Locator'
	DD	00H
	DD	00H
	DD	FLAT:??_R0?AVbad_alloc@std@@@8
	DD	FLAT:??_R3bad_alloc@std@@8
rdata$r	ENDS
;	COMDAT ??_R1A@?0A@EA@exception@std@@8
rdata$r	SEGMENT
??_R1A@?0A@EA@exception@std@@8 DD FLAT:??_R0?AVexception@std@@@8 ; std::exception::`RTTI Base Class Descriptor at (0,-1,0,64)'
	DD	00H
	DD	00H
	DD	0ffffffffH
	DD	00H
	DD	040H
	DD	FLAT:??_R3exception@std@@8
rdata$r	ENDS
;	COMDAT ??_R2exception@std@@8
rdata$r	SEGMENT
??_R2exception@std@@8 DD FLAT:??_R1A@?0A@EA@exception@std@@8 ; std::exception::`RTTI Base Class Array'
rdata$r	ENDS
;	COMDAT ??_R3exception@std@@8
rdata$r	SEGMENT
??_R3exception@std@@8 DD 00H				; std::exception::`RTTI Class Hierarchy Descriptor'
	DD	00H
	DD	01H
	DD	FLAT:??_R2exception@std@@8
rdata$r	ENDS
;	COMDAT ??_R4exception@std@@6B@
rdata$r	SEGMENT
??_R4exception@std@@6B@ DD 00H				; std::exception::`RTTI Complete Object Locator'
	DD	00H
	DD	00H
	DD	FLAT:??_R0?AVexception@std@@@8
	DD	FLAT:??_R3exception@std@@8
rdata$r	ENDS
;	COMDAT __CT??_R0?AVexception@std@@@8??0exception@std@@QAE@ABV01@@Z12
xdata$x	SEGMENT
__CT??_R0?AVexception@std@@@8??0exception@std@@QAE@ABV01@@Z12 DD 00H
	DD	FLAT:??_R0?AVexception@std@@@8
	DD	00H
	DD	0ffffffffH
	ORG $+4
	DD	0cH
	DD	FLAT:??0exception@std@@QAE@ABV01@@Z
xdata$x	ENDS
;	COMDAT ??_R0?AVexception@std@@@8
data$r	SEGMENT
??_R0?AVexception@std@@@8 DD FLAT:??_7type_info@@6B@	; std::exception `RTTI Type Descriptor'
	DD	00H
	DB	'.?AVexception@std@@', 00H
data$r	ENDS
;	COMDAT __CT??_R0?AVbad_alloc@std@@@8??0bad_alloc@std@@QAE@ABV01@@Z12
xdata$x	SEGMENT
__CT??_R0?AVbad_alloc@std@@@8??0bad_alloc@std@@QAE@ABV01@@Z12 DD 010H
	DD	FLAT:??_R0?AVbad_alloc@std@@@8
	DD	00H
	DD	0ffffffffH
	ORG $+4
	DD	0cH
	DD	FLAT:??0bad_alloc@std@@QAE@ABV01@@Z
xdata$x	ENDS
;	COMDAT ??_R0?AVbad_alloc@std@@@8
data$r	SEGMENT
??_R0?AVbad_alloc@std@@@8 DD FLAT:??_7type_info@@6B@	; std::bad_alloc `RTTI Type Descriptor'
	DD	00H
	DB	'.?AVbad_alloc@std@@', 00H
data$r	ENDS
;	COMDAT __CT??_R0?AVbad_array_new_length@std@@@8??0bad_array_new_length@std@@QAE@ABV01@@Z12
xdata$x	SEGMENT
__CT??_R0?AVbad_array_new_length@std@@@8??0bad_array_new_length@std@@QAE@ABV01@@Z12 DD 00H
	DD	FLAT:??_R0?AVbad_array_new_length@std@@@8
	DD	00H
	DD	0ffffffffH
	ORG $+4
	DD	0cH
	DD	FLAT:??0bad_array_new_length@std@@QAE@ABV01@@Z
xdata$x	ENDS
;	COMDAT ??_R0?AVbad_array_new_length@std@@@8
data$r	SEGMENT
??_R0?AVbad_array_new_length@std@@@8 DD FLAT:??_7type_info@@6B@ ; std::bad_array_new_length `RTTI Type Descriptor'
	DD	00H
	DB	'.?AVbad_array_new_length@std@@', 00H
data$r	ENDS
;	COMDAT __CTA3?AVbad_array_new_length@std@@
xdata$x	SEGMENT
__CTA3?AVbad_array_new_length@std@@ DD 03H
	DD	FLAT:__CT??_R0?AVbad_array_new_length@std@@@8??0bad_array_new_length@std@@QAE@ABV01@@Z12
	DD	FLAT:__CT??_R0?AVbad_alloc@std@@@8??0bad_alloc@std@@QAE@ABV01@@Z12
	DD	FLAT:__CT??_R0?AVexception@std@@@8??0exception@std@@QAE@ABV01@@Z12
xdata$x	ENDS
;	COMDAT __TI3?AVbad_array_new_length@std@@
xdata$x	SEGMENT
__TI3?AVbad_array_new_length@std@@ DD 00H
	DD	FLAT:??1bad_array_new_length@std@@UAE@XZ
	DD	00H
	DD	FLAT:__CTA3?AVbad_array_new_length@std@@
xdata$x	ENDS
;	COMDAT ??_C@_0BF@KINCDENJ@bad?5array?5new?5length@
CONST	SEGMENT
??_C@_0BF@KINCDENJ@bad?5array?5new?5length@ DB 'bad array new length', 00H ; `string'
CONST	ENDS
;	COMDAT ??_7bad_array_new_length@std@@6B@
CONST	SEGMENT
??_7bad_array_new_length@std@@6B@ DD FLAT:??_R4bad_array_new_length@std@@6B@ ; std::bad_array_new_length::`vftable'
	DD	FLAT:??_Ebad_array_new_length@std@@UAEPAXI@Z
	DD	FLAT:?what@exception@std@@UBEPBDXZ
CONST	ENDS
;	COMDAT ??_7bad_alloc@std@@6B@
CONST	SEGMENT
??_7bad_alloc@std@@6B@ DD FLAT:??_R4bad_alloc@std@@6B@	; std::bad_alloc::`vftable'
	DD	FLAT:??_Ebad_alloc@std@@UAEPAXI@Z
	DD	FLAT:?what@exception@std@@UBEPBDXZ
CONST	ENDS
;	COMDAT ??_C@_0BC@EOODALEL@Unknown?5exception@
CONST	SEGMENT
??_C@_0BC@EOODALEL@Unknown?5exception@ DB 'Unknown exception', 00H ; `string'
CONST	ENDS
;	COMDAT ??_7exception@std@@6B@
CONST	SEGMENT
??_7exception@std@@6B@ DD FLAT:??_R4exception@std@@6B@	; std::exception::`vftable'
	DD	FLAT:??_Eexception@std@@UAEPAXI@Z
	DD	FLAT:?what@exception@std@@UBEPBDXZ
CONST	ENDS
;	COMDAT xdata$x
xdata$x	SEGMENT
__unwindtable$??$stable_sort@V?$_Vector_iterator@V?$_Vector_val@U?$_Simple_types@UTPatchDrawStruct@CMapOutdoor@@@std@@@std@@@std@@UFSortPatchDrawStructWithTerrainNum@CMapOutdoor@@@std@@YAXV?$_Vector_iterator@V?$_Vector_val@U?$_Simple_types@UTPatchDrawStruct@CMapOutdoor@@@std@@@std@@@0@0UFSortPatchDrawStructWithTerrainNum@CMapOutdoor@@@Z DD 0ffffffffH
	DD	FLAT:__unwindfunclet$??$stable_sort@V?$_Vector_iterator@V?$_Vector_val@U?$_Simple_types@UTPatchDrawStruct@CMapOutdoor@@@std@@@std@@@std@@UFSortPatchDrawStructWithTerrainNum@CMapOutdoor@@@std@@YAXV?$_Vector_iterator@V?$_Vector_val@U?$_Simple_types@UTPatchDrawStruct@CMapOutdoor@@@std@@@std@@@0@0UFSortPatchDrawStructWithTerrainNum@CMapOutdoor@@@Z$0
__ehfuncinfo$??$stable_sort@V?$_Vector_iterator@V?$_Vector_val@U?$_Simple_types@UTPatchDrawStruct@CMapOutdoor@@@std@@@std@@@std@@UFSortPatchDrawStructWithTerrainNum@CMapOutdoor@@@std@@YAXV?$_Vector_iterator@V?$_Vector_val@U?$_Simple_types@UTPatchDrawStruct@CMapOutdoor@@@std@@@std@@@0@0UFSortPatchDrawStructWithTerrainNum@CMapOutdoor@@@Z DD 019930522H
	DD	01H
	DD	FLAT:__unwindtable$??$stable_sort@V?$_Vector_iterator@V?$_Vector_val@U?$_Simple_types@UTPatchDrawStruct@CMapOutdoor@@@std@@@std@@@std@@UFSortPatchDrawStructWithTerrainNum@CMapOutdoor@@@std@@YAXV?$_Vector_iterator@V?$_Vector_val@U?$_Simple_types@UTPatchDrawStruct@CMapOutdoor@@@std@@@std@@@0@0UFSortPatchDrawStructWithTerrainNum@CMapOutdoor@@@Z
	DD	2 DUP(00H)
	DD	2 DUP(00H)
	DD	00H
	DD	01H
xdata$x	ENDS
CRT$XCU	SEGMENT
??m_TerrainNumVector$initializer$@FSortPatchDrawStructWithTerrainNum@CMapOutdoor@@2P6AXXZA@@3P6AXXZA DD FLAT:??__E?m_TerrainNumVector@FSortPatchDrawStructWithTerrainNum@CMapOutdoor@@2V?$vector@EV?$allocator@E@std@@@std@@A@@YAXXZ ; ??m_TerrainNumVector$initializer$@FSortPatchDrawStructWithTerrainNum@CMapOutdoor@@2P6AXXZA@@3P6AXXZA
CRT$XCU	ENDS
; Function compile flags: /Ogtp
; File C:\Program Files (x86)\Microsoft Visual Studio\2019\Community\VC\Tools\MSVC\14.28.29333\include\xutility
; File C:\Program Files (x86)\Microsoft Visual Studio\2019\Community\VC\Tools\MSVC\14.28.29333\include\utility
; File C:\Program Files (x86)\Microsoft Visual Studio\2019\Community\VC\Tools\MSVC\14.28.29333\include\xutility
; File C:\Program Files (x86)\Microsoft Visual Studio\2019\Community\VC\Tools\MSVC\14.28.29333\include\utility
; File C:\Program Files (x86)\Microsoft Visual Studio\2019\Community\VC\Tools\MSVC\14.28.29333\include\xutility
;	COMDAT ??$reverse@PAUTPatchDrawStruct@CMapOutdoor@@@std@@YAXQAUTPatchDrawStruct@CMapOutdoor@@0@Z
_TEXT	SEGMENT
__First$ = 8						; size = 4
__Last$ = 12						; size = 4
??$reverse@PAUTPatchDrawStruct@CMapOutdoor@@@std@@YAXQAUTPatchDrawStruct@CMapOutdoor@@0@Z PROC ; std::reverse<CMapOutdoor::TPatchDrawStruct *>, COMDAT

; 5596 : _CONSTEXPR20 void reverse(const _BidIt _First, const _BidIt _Last) { // reverse elements in [_First, _Last)

  00000	55		 push	 ebp
  00001	8b ec		 mov	 ebp, esp

; 5597 :     _Adl_verify_range(_First, _Last);
; 5598 :     auto _UFirst = _Get_unwrapped(_First);

  00003	8b 4d 08	 mov	 ecx, DWORD PTR __First$[ebp]

; 5599 :     auto _ULast  = _Get_unwrapped(_Last);

  00006	8b 45 0c	 mov	 eax, DWORD PTR __Last$[ebp]

; 5627 :     for (; _UFirst != _ULast && _UFirst != --_ULast; ++_UFirst) {

  00009	3b c8		 cmp	 ecx, eax
  0000b	74 1d		 je	 SHORT $LN3@reverse
  0000d	0f 1f 00	 npad	 3
$LL4@reverse:
  00010	83 e8 10	 sub	 eax, 16			; 00000010H
  00013	3b c8		 cmp	 ecx, eax
  00015	74 13		 je	 SHORT $LN3@reverse
; File C:\Program Files (x86)\Microsoft Visual Studio\2019\Community\VC\Tools\MSVC\14.28.29333\include\utility

; 105  :     _Left    = _STD move(_Right);

  00017	0f 10 00	 movups	 xmm0, XMMWORD PTR [eax]
  0001a	0f 10 09	 movups	 xmm1, XMMWORD PTR [ecx]
  0001d	0f 11 01	 movups	 XMMWORD PTR [ecx], xmm0
; File C:\Program Files (x86)\Microsoft Visual Studio\2019\Community\VC\Tools\MSVC\14.28.29333\include\xutility

; 5627 :     for (; _UFirst != _ULast && _UFirst != --_ULast; ++_UFirst) {

  00020	83 c1 10	 add	 ecx, 16			; 00000010H
; File C:\Program Files (x86)\Microsoft Visual Studio\2019\Community\VC\Tools\MSVC\14.28.29333\include\utility

; 106  :     _Right   = _STD move(_Tmp);

  00023	0f 11 08	 movups	 XMMWORD PTR [eax], xmm1
; File C:\Program Files (x86)\Microsoft Visual Studio\2019\Community\VC\Tools\MSVC\14.28.29333\include\xutility

; 5627 :     for (; _UFirst != _ULast && _UFirst != --_ULast; ++_UFirst) {

  00026	3b c8		 cmp	 ecx, eax
  00028	75 e6		 jne	 SHORT $LL4@reverse
$LN3@reverse:

; 5628 :         _STD iter_swap(_UFirst, _ULast);
; 5629 :     }
; 5630 : }

  0002a	5d		 pop	 ebp
  0002b	c3		 ret	 0
??$reverse@PAUTPatchDrawStruct@CMapOutdoor@@@std@@YAXQAUTPatchDrawStruct@CMapOutdoor@@0@Z ENDP ; std::reverse<CMapOutdoor::TPatchDrawStruct *>
_TEXT	ENDS
; Function compile flags: /Ogtp
; File C:\Program Files (x86)\Microsoft Visual Studio\2019\Community\VC\Tools\MSVC\14.28.29333\include\algorithm
; File C:\Program Files (x86)\Microsoft Visual Studio\2019\Community\VC\Tools\MSVC\14.28.29333\include\xutility
; File C:\Program Files (x86)\Microsoft Visual Studio\2019\Community\VC\Tools\MSVC\14.28.29333\include\xmemory
; File C:\Program Files (x86)\Microsoft Visual Studio\2019\Community\VC\Tools\MSVC\14.28.29333\include\xutility
; File C:\Program Files (x86)\Microsoft Visual Studio\2019\Community\VC\Tools\MSVC\14.28.29333\include\algorithm
; File C:\Program Files (x86)\Microsoft Visual Studio\2019\Community\VC\Tools\MSVC\14.28.29333\include\xutility
; File C:\Program Files (x86)\Microsoft Visual Studio\2019\Community\VC\Tools\MSVC\14.28.29333\include\xmemory
; File C:\Program Files (x86)\Microsoft Visual Studio\2019\Community\VC\Tools\MSVC\14.28.29333\include\xutility
; File C:\Program Files (x86)\Microsoft Visual Studio\2019\Community\VC\Tools\MSVC\14.28.29333\include\algorithm
; File C:\Program Files (x86)\Microsoft Visual Studio\2019\Community\VC\Tools\MSVC\14.28.29333\include\xutility
; File C:\Program Files (x86)\Microsoft Visual Studio\2019\Community\VC\Tools\MSVC\14.28.29333\include\algorithm
; File C:\Program Files (x86)\Microsoft Visual Studio\2019\Community\VC\Tools\MSVC\14.28.29333\include\xutility
; File C:\Program Files (x86)\Microsoft Visual Studio\2019\Community\VC\Tools\MSVC\14.28.29333\include\algorithm
;	COMDAT ??$_Buffered_rotate_unchecked@PAUTPatchDrawStruct@CMapOutdoor@@@std@@YAPAUTPatchDrawStruct@CMapOutdoor@@QAU12@00HH0H@Z
_TEXT	SEGMENT
__First$ = 8						; size = 4
__Mid$ = 12						; size = 4
__Last$ = 16						; size = 4
__Count1$ = 20						; size = 4
__Count2$ = 24						; size = 4
__Temp_ptr$ = 28					; size = 4
__Capacity$ = 32					; size = 4
??$_Buffered_rotate_unchecked@PAUTPatchDrawStruct@CMapOutdoor@@@std@@YAPAUTPatchDrawStruct@CMapOutdoor@@QAU12@00HH0H@Z PROC ; std::_Buffered_rotate_unchecked<CMapOutdoor::TPatchDrawStruct *>, COMDAT

; 5904 :     const ptrdiff_t _Capacity) { // rotate [_First, _Last) using temp buffer

  00000	55		 push	 ebp
  00001	8b ec		 mov	 ebp, esp

; 5905 :                                  // precondition: _Count1 == distance(_First, _Mid)
; 5906 :                                  // precondition: _Count2 == distance(_Mid, _Last)
; 5907 :     if (_Count1 == 0) {

  00003	8b 45 14	 mov	 eax, DWORD PTR __Count1$[ebp]
  00006	85 c0		 test	 eax, eax
  00008	75 05		 jne	 SHORT $LN2@Buffered_r

; 5908 :         return _Last;

  0000a	8b 45 10	 mov	 eax, DWORD PTR __Last$[ebp]

; 5932 : }

  0000d	5d		 pop	 ebp
  0000e	c3		 ret	 0
$LN2@Buffered_r:

; 5909 :     }
; 5910 : 
; 5911 :     if (_Count2 == 0) {

  0000f	8b 4d 18	 mov	 ecx, DWORD PTR __Count2$[ebp]
  00012	85 c9		 test	 ecx, ecx
  00014	75 05		 jne	 SHORT $LN3@Buffered_r

; 5912 :         return _First;

  00016	8b 45 08	 mov	 eax, DWORD PTR __First$[ebp]

; 5932 : }

  00019	5d		 pop	 ebp
  0001a	c3		 ret	 0
$LN3@Buffered_r:

; 5913 :     }
; 5914 : 
; 5915 :     if (_Count1 <= _Count2 && _Count1 <= _Capacity) { // buffer left range, then copy parts

  0001b	8b 55 20	 mov	 edx, DWORD PTR __Capacity$[ebp]
  0001e	53		 push	 ebx
  0001f	56		 push	 esi
  00020	57		 push	 edi
  00021	3b c1		 cmp	 eax, ecx
  00023	7f 36		 jg	 SHORT $LN4@Buffered_r
  00025	3b c2		 cmp	 eax, edx
  00027	7f 32		 jg	 SHORT $LN4@Buffered_r

; 5916 :         _Uninitialized_backout<_Iter_value_t<_BidIt>*> _Backout{

  00029	ff 75 1c	 push	 DWORD PTR __Temp_ptr$[ebp]
  0002c	8b 5d 0c	 mov	 ebx, DWORD PTR __Mid$[ebp]
  0002f	8b 75 08	 mov	 esi, DWORD PTR __First$[ebp]
  00032	53		 push	 ebx
  00033	56		 push	 esi
  00034	e8 00 00 00 00	 call	 ??$_Uninitialized_move_unchecked@PAUTPatchDrawStruct@CMapOutdoor@@PAU12@@std@@YAPAUTPatchDrawStruct@CMapOutdoor@@PAU12@QAU12@0@Z ; std::_Uninitialized_move_unchecked<CMapOutdoor::TPatchDrawStruct *,CMapOutdoor::TPatchDrawStruct *>
; File C:\Program Files (x86)\Microsoft Visual Studio\2019\Community\VC\Tools\MSVC\14.28.29333\include\xutility

; 4628 :             return _Copy_memmove(_First, _Last, _Dest);

  00039	56		 push	 esi
  0003a	ff 75 10	 push	 DWORD PTR __Last$[ebp]
; File C:\Program Files (x86)\Microsoft Visual Studio\2019\Community\VC\Tools\MSVC\14.28.29333\include\xmemory

; 1430 :     constexpr _Uninitialized_backout(_NoThrowFwdIt _First_, _NoThrowFwdIt _Last_) : _First(_First_), _Last(_Last_) {}

  0003d	8b f8		 mov	 edi, eax
; File C:\Program Files (x86)\Microsoft Visual Studio\2019\Community\VC\Tools\MSVC\14.28.29333\include\xutility

; 4628 :             return _Copy_memmove(_First, _Last, _Dest);

  0003f	53		 push	 ebx
  00040	e8 00 00 00 00	 call	 ??$_Copy_memmove@PAUTPatchDrawStruct@CMapOutdoor@@PAU12@@std@@YAPAUTPatchDrawStruct@CMapOutdoor@@PAU12@00@Z ; std::_Copy_memmove<CMapOutdoor::TPatchDrawStruct *,CMapOutdoor::TPatchDrawStruct *>
  00045	8b f0		 mov	 esi, eax
  00047	56		 push	 esi
  00048	57		 push	 edi
  00049	ff 75 1c	 push	 DWORD PTR __Temp_ptr$[ebp]
  0004c	e8 00 00 00 00	 call	 ??$_Copy_memmove@PAUTPatchDrawStruct@CMapOutdoor@@PAU12@@std@@YAPAUTPatchDrawStruct@CMapOutdoor@@PAU12@00@Z ; std::_Copy_memmove<CMapOutdoor::TPatchDrawStruct *,CMapOutdoor::TPatchDrawStruct *>
  00051	83 c4 24	 add	 esp, 36			; 00000024H
; File C:\Program Files (x86)\Microsoft Visual Studio\2019\Community\VC\Tools\MSVC\14.28.29333\include\algorithm

; 5920 :         return _New_mid; // _Backout destroys elements in temporary buffer

  00054	8b c6		 mov	 eax, esi
  00056	5f		 pop	 edi
  00057	5e		 pop	 esi
  00058	5b		 pop	 ebx

; 5932 : }

  00059	5d		 pop	 ebp
  0005a	c3		 ret	 0
$LN4@Buffered_r:

; 5921 :     }
; 5922 : 
; 5923 :     if (_Count2 <= _Capacity) { // buffer right range, then copy parts

  0005b	3b ca		 cmp	 ecx, edx
  0005d	7f 2f		 jg	 SHORT $LN5@Buffered_r

; 5924 :         _Uninitialized_backout<_Iter_value_t<_BidIt>*> _Backout{

  0005f	ff 75 1c	 push	 DWORD PTR __Temp_ptr$[ebp]
  00062	8b 7d 10	 mov	 edi, DWORD PTR __Last$[ebp]
  00065	8b 75 0c	 mov	 esi, DWORD PTR __Mid$[ebp]
  00068	57		 push	 edi
  00069	56		 push	 esi
  0006a	e8 00 00 00 00	 call	 ??$_Uninitialized_move_unchecked@PAUTPatchDrawStruct@CMapOutdoor@@PAU12@@std@@YAPAUTPatchDrawStruct@CMapOutdoor@@PAU12@QAU12@0@Z ; std::_Uninitialized_move_unchecked<CMapOutdoor::TPatchDrawStruct *,CMapOutdoor::TPatchDrawStruct *>
; File C:\Program Files (x86)\Microsoft Visual Studio\2019\Community\VC\Tools\MSVC\14.28.29333\include\xutility

; 4696 :             return _Copy_backward_memmove(_First, _Last, _Dest);

  0006f	57		 push	 edi
  00070	56		 push	 esi
  00071	8b 75 08	 mov	 esi, DWORD PTR __First$[ebp]
; File C:\Program Files (x86)\Microsoft Visual Studio\2019\Community\VC\Tools\MSVC\14.28.29333\include\xmemory

; 1430 :     constexpr _Uninitialized_backout(_NoThrowFwdIt _First_, _NoThrowFwdIt _Last_) : _First(_First_), _Last(_Last_) {}

  00074	8b d8		 mov	 ebx, eax
; File C:\Program Files (x86)\Microsoft Visual Studio\2019\Community\VC\Tools\MSVC\14.28.29333\include\xutility

; 4696 :             return _Copy_backward_memmove(_First, _Last, _Dest);

  00076	56		 push	 esi
  00077	e8 00 00 00 00	 call	 ??$_Copy_backward_memmove@PAUTPatchDrawStruct@CMapOutdoor@@PAU12@@std@@YAPAUTPatchDrawStruct@CMapOutdoor@@PAU12@00@Z ; std::_Copy_backward_memmove<CMapOutdoor::TPatchDrawStruct *,CMapOutdoor::TPatchDrawStruct *>

; 4628 :             return _Copy_memmove(_First, _Last, _Dest);

  0007c	56		 push	 esi
  0007d	53		 push	 ebx
  0007e	ff 75 1c	 push	 DWORD PTR __Temp_ptr$[ebp]
  00081	e8 00 00 00 00	 call	 ??$_Copy_memmove@PAUTPatchDrawStruct@CMapOutdoor@@PAU12@@std@@YAPAUTPatchDrawStruct@CMapOutdoor@@PAU12@00@Z ; std::_Copy_memmove<CMapOutdoor::TPatchDrawStruct *,CMapOutdoor::TPatchDrawStruct *>
  00086	83 c4 24	 add	 esp, 36			; 00000024H
  00089	5f		 pop	 edi
  0008a	5e		 pop	 esi
  0008b	5b		 pop	 ebx
; File C:\Program Files (x86)\Microsoft Visual Studio\2019\Community\VC\Tools\MSVC\14.28.29333\include\algorithm

; 5932 : }

  0008c	5d		 pop	 ebp
  0008d	c3		 ret	 0
$LN5@Buffered_r:
; File C:\Program Files (x86)\Microsoft Visual Studio\2019\Community\VC\Tools\MSVC\14.28.29333\include\xutility

; 5664 :     if (_UFirst == _UMid) {

  0008e	8b 7d 08	 mov	 edi, DWORD PTR __First$[ebp]
  00091	8b 5d 0c	 mov	 ebx, DWORD PTR __Mid$[ebp]
  00094	3b fb		 cmp	 edi, ebx
  00096	75 0a		 jne	 SHORT $LN31@Buffered_r

; 5665 :         return _Last;

  00098	8b 7d 10	 mov	 edi, DWORD PTR __Last$[ebp]
; File C:\Program Files (x86)\Microsoft Visual Studio\2019\Community\VC\Tools\MSVC\14.28.29333\include\algorithm

; 5931 :     return _STD rotate(_First, _Mid, _Last);

  0009b	8b c7		 mov	 eax, edi
  0009d	5f		 pop	 edi
  0009e	5e		 pop	 esi
  0009f	5b		 pop	 ebx

; 5932 : }

  000a0	5d		 pop	 ebp
  000a1	c3		 ret	 0
$LN31@Buffered_r:
; File C:\Program Files (x86)\Microsoft Visual Studio\2019\Community\VC\Tools\MSVC\14.28.29333\include\xutility

; 5668 :     if (_UMid == _ULast) {

  000a2	8b 75 10	 mov	 esi, DWORD PTR __Last$[ebp]
  000a5	3b de		 cmp	 ebx, esi
  000a7	74 1f		 je	 SHORT $LN30@Buffered_r

; 5669 :         return _First;
; 5670 :     }
; 5671 : 
; 5672 :     if constexpr (_Is_random_iter_v<_FwdIt>) {
; 5673 :         _STD reverse(_UFirst, _UMid);

  000a9	53		 push	 ebx
  000aa	57		 push	 edi
  000ab	e8 00 00 00 00	 call	 ??$reverse@PAUTPatchDrawStruct@CMapOutdoor@@@std@@YAXQAUTPatchDrawStruct@CMapOutdoor@@0@Z ; std::reverse<CMapOutdoor::TPatchDrawStruct *>

; 5674 :         _STD reverse(_UMid, _ULast);

  000b0	56		 push	 esi
  000b1	53		 push	 ebx
  000b2	e8 00 00 00 00	 call	 ??$reverse@PAUTPatchDrawStruct@CMapOutdoor@@@std@@YAXQAUTPatchDrawStruct@CMapOutdoor@@0@Z ; std::reverse<CMapOutdoor::TPatchDrawStruct *>

; 5675 :         _STD reverse(_UFirst, _ULast);

  000b7	56		 push	 esi
  000b8	57		 push	 edi
  000b9	e8 00 00 00 00	 call	 ??$reverse@PAUTPatchDrawStruct@CMapOutdoor@@@std@@YAXQAUTPatchDrawStruct@CMapOutdoor@@0@Z ; std::reverse<CMapOutdoor::TPatchDrawStruct *>

; 5676 :         _Seek_wrapped(_First, _UFirst + (_ULast - _UMid));

  000be	2b f3		 sub	 esi, ebx
  000c0	83 c4 18	 add	 esp, 24			; 00000018H
  000c3	83 e6 f0	 and	 esi, -16		; fffffff0H
  000c6	03 fe		 add	 edi, esi
$LN30@Buffered_r:
; File C:\Program Files (x86)\Microsoft Visual Studio\2019\Community\VC\Tools\MSVC\14.28.29333\include\algorithm

; 5931 :     return _STD rotate(_First, _Mid, _Last);

  000c8	8b c7		 mov	 eax, edi
  000ca	5f		 pop	 edi
  000cb	5e		 pop	 esi
  000cc	5b		 pop	 ebx

; 5932 : }

  000cd	5d		 pop	 ebp
  000ce	c3		 ret	 0
??$_Buffered_rotate_unchecked@PAUTPatchDrawStruct@CMapOutdoor@@@std@@YAPAUTPatchDrawStruct@CMapOutdoor@@QAU12@00HH0H@Z ENDP ; std::_Buffered_rotate_unchecked<CMapOutdoor::TPatchDrawStruct *>
_TEXT	ENDS
; Function compile flags: /Ogtp
; File C:\Program Files (x86)\Microsoft Visual Studio\2019\Community\VC\Tools\MSVC\14.28.29333\include\xmemory
;	COMDAT ??$_Construct_in_place@UTPatchDrawStruct@CMapOutdoor@@U12@@std@@YAXAAUTPatchDrawStruct@CMapOutdoor@@$$QAU12@@Z
_TEXT	SEGMENT
__Obj$ = 8						; size = 4
_<_Args_0>$ = 12					; size = 4
??$_Construct_in_place@UTPatchDrawStruct@CMapOutdoor@@U12@@std@@YAXAAUTPatchDrawStruct@CMapOutdoor@@$$QAU12@@Z PROC ; std::_Construct_in_place<CMapOutdoor::TPatchDrawStruct,CMapOutdoor::TPatchDrawStruct>, COMDAT

; 228  : void _Construct_in_place(_Ty& _Obj, _Types&&... _Args) noexcept(is_nothrow_constructible_v<_Ty, _Types...>) {

  00000	55		 push	 ebp
  00001	8b ec		 mov	 ebp, esp

; 229  :     ::new (const_cast<void*>(static_cast<const volatile void*>(_STD addressof(_Obj))))

  00003	8b 45 0c	 mov	 eax, DWORD PTR _<_Args_0>$[ebp]
  00006	0f 10 00	 movups	 xmm0, XMMWORD PTR [eax]
  00009	8b 45 08	 mov	 eax, DWORD PTR __Obj$[ebp]
  0000c	0f 11 00	 movups	 XMMWORD PTR [eax], xmm0

; 230  :         _Ty(_STD forward<_Types>(_Args)...);
; 231  : }

  0000f	5d		 pop	 ebp
  00010	c3		 ret	 0
??$_Construct_in_place@UTPatchDrawStruct@CMapOutdoor@@U12@@std@@YAXAAUTPatchDrawStruct@CMapOutdoor@@$$QAU12@@Z ENDP ; std::_Construct_in_place<CMapOutdoor::TPatchDrawStruct,CMapOutdoor::TPatchDrawStruct>
_TEXT	ENDS
; Function compile flags: /Ogtp
; File C:\Program Files (x86)\Microsoft Visual Studio\2019\Community\VC\Tools\MSVC\14.28.29333\include\algorithm
; File C:\Program Files (x86)\Microsoft Visual Studio\2019\Community\VC\Tools\MSVC\14.28.29333\include\xutility
; File C:\Program Files (x86)\Microsoft Visual Studio\2019\Community\VC\Tools\MSVC\14.28.29333\include\algorithm
; File C:\Program Files (x86)\Microsoft Visual Studio\2019\Community\VC\Tools\MSVC\14.28.29333\include\xutility
; File C:\Program Files (x86)\Microsoft Visual Studio\2019\Community\VC\Tools\MSVC\14.28.29333\include\algorithm
; File C:\Program Files (x86)\Microsoft Visual Studio\2019\Community\VC\Tools\MSVC\14.28.29333\include\xutility
; File C:\Program Files (x86)\Microsoft Visual Studio\2019\Community\VC\Tools\MSVC\14.28.29333\include\algorithm
; File D:\Metin2 Server Files\mainline\SRC_2014\Metin2Client\GameLib\MapOutdoor.h
; File C:\Program Files (x86)\Microsoft Visual Studio\2019\Community\VC\Tools\MSVC\14.28.29333\include\algorithm
; File C:\Program Files (x86)\Microsoft Visual Studio\2019\Community\VC\Tools\MSVC\14.28.29333\include\xutility
; File C:\Program Files (x86)\Windows Kits\10\Include\10.0.18362.0\ucrt\corecrt_memory.h
; File C:\Program Files (x86)\Microsoft Visual Studio\2019\Community\VC\Tools\MSVC\14.28.29333\include\xutility
; File C:\Program Files (x86)\Windows Kits\10\Include\10.0.18362.0\ucrt\corecrt_memory.h
; File C:\Program Files (x86)\Microsoft Visual Studio\2019\Community\VC\Tools\MSVC\14.28.29333\include\xutility
; File C:\Program Files (x86)\Microsoft Visual Studio\2019\Community\VC\Tools\MSVC\14.28.29333\include\vector
; File C:\Program Files (x86)\Microsoft Visual Studio\2019\Community\VC\Tools\MSVC\14.28.29333\include\xutility
; File C:\Program Files (x86)\Microsoft Visual Studio\2019\Community\VC\Tools\MSVC\14.28.29333\include\vector
; File D:\Metin2 Server Files\mainline\SRC_2014\Metin2Client\GameLib\MapOutdoor.h
; File C:\Program Files (x86)\Microsoft Visual Studio\2019\Community\VC\Tools\MSVC\14.28.29333\include\xutility
; File C:\Program Files (x86)\Windows Kits\10\Include\10.0.18362.0\ucrt\corecrt_memory.h
; File C:\Program Files (x86)\Microsoft Visual Studio\2019\Community\VC\Tools\MSVC\14.28.29333\include\xutility
; File C:\Program Files (x86)\Windows Kits\10\Include\10.0.18362.0\ucrt\corecrt_memory.h
; File C:\Program Files (x86)\Microsoft Visual Studio\2019\Community\VC\Tools\MSVC\14.28.29333\include\xutility
; File C:\Program Files (x86)\Microsoft Visual Studio\2019\Community\VC\Tools\MSVC\14.28.29333\include\vector
; File D:\Metin2 Server Files\mainline\SRC_2014\Metin2Client\GameLib\MapOutdoor.h
; File C:\Program Files (x86)\Microsoft Visual Studio\2019\Community\VC\Tools\MSVC\14.28.29333\include\xutility
; File C:\Program Files (x86)\Microsoft Visual Studio\2019\Community\VC\Tools\MSVC\14.28.29333\include\vector
; File C:\Program Files (x86)\Microsoft Visual Studio\2019\Community\VC\Tools\MSVC\14.28.29333\include\xutility
; File D:\Metin2 Server Files\mainline\SRC_2014\Metin2Client\GameLib\MapOutdoor.h
; File C:\Program Files (x86)\Microsoft Visual Studio\2019\Community\VC\Tools\MSVC\14.28.29333\include\vector
; File D:\Metin2 Server Files\mainline\SRC_2014\Metin2Client\GameLib\MapOutdoor.h
; File C:\Program Files (x86)\Microsoft Visual Studio\2019\Community\VC\Tools\MSVC\14.28.29333\include\vector
; File D:\Metin2 Server Files\mainline\SRC_2014\Metin2Client\GameLib\MapOutdoor.h
; File C:\Program Files (x86)\Microsoft Visual Studio\2019\Community\VC\Tools\MSVC\14.28.29333\include\vector
; File D:\Metin2 Server Files\mainline\SRC_2014\Metin2Client\GameLib\MapOutdoor.h
; File C:\Program Files (x86)\Microsoft Visual Studio\2019\Community\VC\Tools\MSVC\14.28.29333\include\xutility
; File C:\Program Files (x86)\Windows Kits\10\Include\10.0.18362.0\ucrt\corecrt_memory.h
; File C:\Program Files (x86)\Microsoft Visual Studio\2019\Community\VC\Tools\MSVC\14.28.29333\include\xutility
; File C:\Program Files (x86)\Windows Kits\10\Include\10.0.18362.0\ucrt\corecrt_memory.h
; File C:\Program Files (x86)\Microsoft Visual Studio\2019\Community\VC\Tools\MSVC\14.28.29333\include\xutility
; File C:\Program Files (x86)\Microsoft Visual Studio\2019\Community\VC\Tools\MSVC\14.28.29333\include\vector
; File D:\Metin2 Server Files\mainline\SRC_2014\Metin2Client\GameLib\MapOutdoor.h
; File C:\Program Files (x86)\Microsoft Visual Studio\2019\Community\VC\Tools\MSVC\14.28.29333\include\vector
; File D:\Metin2 Server Files\mainline\SRC_2014\Metin2Client\GameLib\MapOutdoor.h
; File C:\Program Files (x86)\Microsoft Visual Studio\2019\Community\VC\Tools\MSVC\14.28.29333\include\vector
; File D:\Metin2 Server Files\mainline\SRC_2014\Metin2Client\GameLib\MapOutdoor.h
; File C:\Program Files (x86)\Microsoft Visual Studio\2019\Community\VC\Tools\MSVC\14.28.29333\include\vector
; File D:\Metin2 Server Files\mainline\SRC_2014\Metin2Client\GameLib\MapOutdoor.h
; File C:\Program Files (x86)\Microsoft Visual Studio\2019\Community\VC\Tools\MSVC\14.28.29333\include\vector
; File D:\Metin2 Server Files\mainline\SRC_2014\Metin2Client\GameLib\MapOutdoor.h
; File C:\Program Files (x86)\Microsoft Visual Studio\2019\Community\VC\Tools\MSVC\14.28.29333\include\vector
; File D:\Metin2 Server Files\mainline\SRC_2014\Metin2Client\GameLib\MapOutdoor.h
; File C:\Program Files (x86)\Microsoft Visual Studio\2019\Community\VC\Tools\MSVC\14.28.29333\include\vector
; File D:\Metin2 Server Files\mainline\SRC_2014\Metin2Client\GameLib\MapOutdoor.h
; File C:\Program Files (x86)\Microsoft Visual Studio\2019\Community\VC\Tools\MSVC\14.28.29333\include\algorithm
;	COMDAT ??$upper_bound@PAUTPatchDrawStruct@CMapOutdoor@@U12@UFSortPatchDrawStructWithTerrainNum@2@@std@@YAPAUTPatchDrawStruct@CMapOutdoor@@PAU12@0ABU12@UFSortPatchDrawStructWithTerrainNum@2@@Z
_TEXT	SEGMENT
__Val$1$ = -20						; size = 4
__Count2$1$ = -16					; size = 4
__UMid$1$ = -12						; size = 4
tv1029 = -8						; size = 4
_rhsTerrainNumOrder$1$ = -8				; size = 4
tv1030 = -1						; size = 1
tv1023 = -1						; size = 1
__First$ = 8						; size = 4
__Last$ = 12						; size = 4
__Val$ = 16						; size = 4
__Pred$ = 20						; size = 1
??$upper_bound@PAUTPatchDrawStruct@CMapOutdoor@@U12@UFSortPatchDrawStructWithTerrainNum@2@@std@@YAPAUTPatchDrawStruct@CMapOutdoor@@PAU12@0ABU12@UFSortPatchDrawStructWithTerrainNum@2@@Z PROC ; std::upper_bound<CMapOutdoor::TPatchDrawStruct *,CMapOutdoor::TPatchDrawStruct,CMapOutdoor::FSortPatchDrawStructWithTerrainNum>, COMDAT

; 6725 : _NODISCARD _CONSTEXPR20 _FwdIt upper_bound(_FwdIt _First, _FwdIt _Last, const _Ty& _Val, _Pr _Pred) {

  00000	55		 push	 ebp
  00001	8b ec		 mov	 ebp, esp
  00003	83 ec 14	 sub	 esp, 20			; 00000014H
  00006	53		 push	 ebx
; File C:\Program Files (x86)\Microsoft Visual Studio\2019\Community\VC\Tools\MSVC\14.28.29333\include\xutility

; 1794 :         return _Last - _First; // assume the iterator will do debug checking

  00007	8b 5d 0c	 mov	 ebx, DWORD PTR __Last$[ebp]
; File C:\Program Files (x86)\Microsoft Visual Studio\2019\Community\VC\Tools\MSVC\14.28.29333\include\algorithm

; 6725 : _NODISCARD _CONSTEXPR20 _FwdIt upper_bound(_FwdIt _First, _FwdIt _Last, const _Ty& _Val, _Pr _Pred) {

  0000a	56		 push	 esi
; File C:\Program Files (x86)\Microsoft Visual Studio\2019\Community\VC\Tools\MSVC\14.28.29333\include\xutility

; 1794 :         return _Last - _First; // assume the iterator will do debug checking

  0000b	8b 75 08	 mov	 esi, DWORD PTR __First$[ebp]
  0000e	2b de		 sub	 ebx, esi
  00010	c1 fb 04	 sar	 ebx, 4
  00013	89 5d 0c	 mov	 DWORD PTR __Last$[ebp], ebx
; File C:\Program Files (x86)\Microsoft Visual Studio\2019\Community\VC\Tools\MSVC\14.28.29333\include\algorithm

; 6731 :     while (0 < _Count) { // divide and conquer, find half that contains answer

  00016	85 db		 test	 ebx, ebx
  00018	0f 8e 84 01 00
	00		 jle	 $LN173@upper_boun
  0001e	8b 4d 10	 mov	 ecx, DWORD PTR __Val$[ebp]
  00021	8b 15 00 00 00
	00		 mov	 edx, DWORD PTR ?m_TerrainNumVector@FSortPatchDrawStructWithTerrainNum@CMapOutdoor@@2V?$vector@EV?$allocator@E@std@@@std@@A
  00027	83 c1 04	 add	 ecx, 4
  0002a	57		 push	 edi
  0002b	8b 3d 04 00 00
	00		 mov	 edi, DWORD PTR ?m_TerrainNumVector@FSortPatchDrawStructWithTerrainNum@CMapOutdoor@@2V?$vector@EV?$allocator@E@std@@@std@@A+4
  00031	89 4d ec	 mov	 DWORD PTR __Val$1$[ebp], ecx
$LL2@upper_boun:

; 6732 :         _Iter_diff_t<_FwdIt> _Count2 = _Count / 2;

  00034	8b c3		 mov	 eax, ebx
; File C:\Program Files (x86)\Microsoft Visual Studio\2019\Community\VC\Tools\MSVC\14.28.29333\include\xutility

; 5480 :     _Seek_wrapped(_First, _Find_unchecked(_Get_unwrapped(_First), _Get_unwrapped(_Last), _Val));

  00036	89 7d f8	 mov	 DWORD PTR tv1029[ebp], edi
; File C:\Program Files (x86)\Microsoft Visual Studio\2019\Community\VC\Tools\MSVC\14.28.29333\include\algorithm

; 6732 :         _Iter_diff_t<_FwdIt> _Count2 = _Count / 2;

  00039	d1 e8		 shr	 eax, 1
; File D:\Metin2 Server Files\mainline\SRC_2014\Metin2Client\GameLib\MapOutdoor.h

; 360  : 				DWORD lhsTerrainNumOrder = 0, rhsTerrainNumOrder = 0;

  0003b	33 db		 xor	 ebx, ebx
; File C:\Program Files (x86)\Microsoft Visual Studio\2019\Community\VC\Tools\MSVC\14.28.29333\include\algorithm

; 6732 :         _Iter_diff_t<_FwdIt> _Count2 = _Count / 2;

  0003d	89 45 f0	 mov	 DWORD PTR __Count2$1$[ebp], eax
; File C:\Program Files (x86)\Microsoft Visual Studio\2019\Community\VC\Tools\MSVC\14.28.29333\include\xutility

; 1714 :         _Where += _Off;

  00040	c1 e0 04	 shl	 eax, 4
  00043	03 c6		 add	 eax, esi
  00045	89 45 f4	 mov	 DWORD PTR __UMid$1$[ebp], eax

; 5461 :     _First =

  00048	8b c7		 mov	 eax, edi
  0004a	2b c2		 sub	 eax, edx
; File C:\Program Files (x86)\Windows Kits\10\Include\10.0.18362.0\ucrt\corecrt_memory.h

; 107  :         return const_cast<void*>(memchr(_Pvc, _C, _N));

  0004c	50		 push	 eax
; File C:\Program Files (x86)\Microsoft Visual Studio\2019\Community\VC\Tools\MSVC\14.28.29333\include\xutility

; 5461 :     _First =

  0004d	0f b6 01	 movzx	 eax, BYTE PTR [ecx]
; File C:\Program Files (x86)\Windows Kits\10\Include\10.0.18362.0\ucrt\corecrt_memory.h

; 107  :         return const_cast<void*>(memchr(_Pvc, _C, _N));

  00050	50		 push	 eax
  00051	52		 push	 edx
  00052	e8 00 00 00 00	 call	 _memchr
; File C:\Program Files (x86)\Microsoft Visual Studio\2019\Community\VC\Tools\MSVC\14.28.29333\include\xutility

; 5463 :     return _First ? _First : _Last;

  00057	85 c0		 test	 eax, eax
  00059	8b cf		 mov	 ecx, edi
  0005b	0f 45 c8	 cmovne	 ecx, eax
; File C:\Program Files (x86)\Microsoft Visual Studio\2019\Community\VC\Tools\MSVC\14.28.29333\include\vector

; 195  :         _Ptr = _Refancy<_Tptr>(const_cast<value_type*>(_It));

  0005e	51		 push	 ecx
  0005f	e8 00 00 00 00	 call	 ??$_Refancy@PAE$0A@@std@@YAPAEPAE@Z ; std::_Refancy<unsigned char *,0>
; File C:\Program Files (x86)\Microsoft Visual Studio\2019\Community\VC\Tools\MSVC\14.28.29333\include\xutility

; 5461 :     _First =

  00064	8b 0d 00 00 00
	00		 mov	 ecx, DWORD PTR ?m_TerrainNumVector@FSortPatchDrawStructWithTerrainNum@CMapOutdoor@@2V?$vector@EV?$allocator@E@std@@@std@@A
; File C:\Program Files (x86)\Microsoft Visual Studio\2019\Community\VC\Tools\MSVC\14.28.29333\include\vector

; 195  :         _Ptr = _Refancy<_Tptr>(const_cast<value_type*>(_It));

  0006a	8b f0		 mov	 esi, eax
; File D:\Metin2 Server Files\mainline\SRC_2014\Metin2Client\GameLib\MapOutdoor.h

; 365  : 				TTerrainNumVector::iterator rhsIterator = std::find(m_TerrainNumVector.begin(), m_TerrainNumVector.end(), rhs.byTerrainNum);

  0006c	8b 45 f4	 mov	 eax, DWORD PTR __UMid$1$[ebp]
; File C:\Program Files (x86)\Microsoft Visual Studio\2019\Community\VC\Tools\MSVC\14.28.29333\include\xutility

; 5461 :     _First =

  0006f	8a 50 04	 mov	 dl, BYTE PTR [eax+4]
  00072	8b c7		 mov	 eax, edi
  00074	2b c1		 sub	 eax, ecx
  00076	88 55 ff	 mov	 BYTE PTR tv1030[ebp], dl
; File C:\Program Files (x86)\Windows Kits\10\Include\10.0.18362.0\ucrt\corecrt_memory.h

; 107  :         return const_cast<void*>(memchr(_Pvc, _C, _N));

  00079	50		 push	 eax
; File C:\Program Files (x86)\Microsoft Visual Studio\2019\Community\VC\Tools\MSVC\14.28.29333\include\xutility

; 5461 :     _First =

  0007a	0f b6 c2	 movzx	 eax, dl
; File C:\Program Files (x86)\Windows Kits\10\Include\10.0.18362.0\ucrt\corecrt_memory.h

; 107  :         return const_cast<void*>(memchr(_Pvc, _C, _N));

  0007d	50		 push	 eax
  0007e	51		 push	 ecx
  0007f	e8 00 00 00 00	 call	 _memchr
; File C:\Program Files (x86)\Microsoft Visual Studio\2019\Community\VC\Tools\MSVC\14.28.29333\include\xutility

; 5463 :     return _First ? _First : _Last;

  00084	85 c0		 test	 eax, eax
  00086	8b cf		 mov	 ecx, edi
  00088	0f 45 c8	 cmovne	 ecx, eax
; File C:\Program Files (x86)\Microsoft Visual Studio\2019\Community\VC\Tools\MSVC\14.28.29333\include\vector

; 195  :         _Ptr = _Refancy<_Tptr>(const_cast<value_type*>(_It));

  0008b	51		 push	 ecx
  0008c	e8 00 00 00 00	 call	 ??$_Refancy@PAE$0A@@std@@YAPAEPAE@Z ; std::_Refancy<unsigned char *,0>
; File D:\Metin2 Server Files\mainline\SRC_2014\Metin2Client\GameLib\MapOutdoor.h

; 367  : 				if (lhsIterator != m_TerrainNumVector.end())

  00091	8b 0d 00 00 00
	00		 mov	 ecx, DWORD PTR ?m_TerrainNumVector@FSortPatchDrawStructWithTerrainNum@CMapOutdoor@@2V?$vector@EV?$allocator@E@std@@@std@@A
; File C:\Program Files (x86)\Microsoft Visual Studio\2019\Community\VC\Tools\MSVC\14.28.29333\include\xutility

; 5481 :     return _First;

  00097	8b d7		 mov	 edx, edi
; File C:\Program Files (x86)\Microsoft Visual Studio\2019\Community\VC\Tools\MSVC\14.28.29333\include\vector

; 195  :         _Ptr = _Refancy<_Tptr>(const_cast<value_type*>(_It));

  00099	83 c4 20	 add	 esp, 32			; 00000020H
; File C:\Program Files (x86)\Microsoft Visual Studio\2019\Community\VC\Tools\MSVC\14.28.29333\include\xutility

; 5481 :     return _First;

  0009c	3b f2		 cmp	 esi, edx
; File D:\Metin2 Server Files\mainline\SRC_2014\Metin2Client\GameLib\MapOutdoor.h

; 367  : 				if (lhsIterator != m_TerrainNumVector.end())

  0009e	74 04		 je	 SHORT $LN14@upper_boun

; 368  : 				{
; 369  : 					blhsOrderFound = true;

  000a0	8b de		 mov	 ebx, esi
  000a2	2b d9		 sub	 ebx, ecx
$LN14@upper_boun:
; File C:\Program Files (x86)\Microsoft Visual Studio\2019\Community\VC\Tools\MSVC\14.28.29333\include\vector

; 149  :         return _Ptr == _Right._Ptr;

  000a4	3b c2		 cmp	 eax, edx
; File D:\Metin2 Server Files\mainline\SRC_2014\Metin2Client\GameLib\MapOutdoor.h

; 372  : 				if (rhsIterator != m_TerrainNumVector.end())

  000a6	74 04		 je	 SHORT $LN171@upper_boun
; File C:\Program Files (x86)\Microsoft Visual Studio\2019\Community\VC\Tools\MSVC\14.28.29333\include\vector

; 140  :         return _Ptr - _Right._Ptr;

  000a8	2b c1		 sub	 eax, ecx
; File D:\Metin2 Server Files\mainline\SRC_2014\Metin2Client\GameLib\MapOutdoor.h

; 377  : 				if (!brhsOrderFound)

  000aa	eb 42		 jmp	 SHORT $LN176@upper_boun
$LN171@upper_boun:
; File C:\Program Files (x86)\Microsoft Visual Studio\2019\Community\VC\Tools\MSVC\14.28.29333\include\vector

; 704  :         if (_Mylast != _My_data._Myend) {

  000ac	3b 15 08 00 00
	00		 cmp	 edx, DWORD PTR ?m_TerrainNumVector@FSortPatchDrawStructWithTerrainNum@CMapOutdoor@@2V?$vector@EV?$allocator@E@std@@@std@@A+8
  000b2	74 14		 je	 SHORT $LN110@upper_boun

; 687  :         _Alty_traits::construct(_Getal(), _Unfancy(_Mylast), _STD forward<_Valty>(_Val)...);

  000b4	8a 45 ff	 mov	 al, BYTE PTR tv1030[ebp]
  000b7	88 02		 mov	 BYTE PTR [edx], al

; 690  :         ++_Mylast;

  000b9	8b 3d 04 00 00
	00		 mov	 edi, DWORD PTR ?m_TerrainNumVector@FSortPatchDrawStructWithTerrainNum@CMapOutdoor@@2V?$vector@EV?$allocator@E@std@@@std@@A+4
  000bf	47		 inc	 edi
  000c0	89 3d 04 00 00
	00		 mov	 DWORD PTR ?m_TerrainNumVector@FSortPatchDrawStructWithTerrainNum@CMapOutdoor@@2V?$vector@EV?$allocator@E@std@@@std@@A+4, edi

; 705  :             return _Emplace_back_with_unused_capacity(_STD forward<_Valty>(_Val)...);

  000c6	eb 1b		 jmp	 SHORT $LN109@upper_boun
$LN110@upper_boun:

; 708  :         _Ty& _Result = *_Emplace_reallocate(_Mylast, _STD forward<_Valty>(_Val)...);

  000c8	8b 45 f4	 mov	 eax, DWORD PTR __UMid$1$[ebp]
  000cb	b9 00 00 00 00	 mov	 ecx, OFFSET ?m_TerrainNumVector@FSortPatchDrawStructWithTerrainNum@CMapOutdoor@@2V?$vector@EV?$allocator@E@std@@@std@@A ; CMapOutdoor::FSortPatchDrawStructWithTerrainNum::m_TerrainNumVector
  000d0	83 c0 04	 add	 eax, 4
  000d3	50		 push	 eax
  000d4	52		 push	 edx
  000d5	e8 00 00 00 00	 call	 ??$_Emplace_reallocate@ABE@?$vector@EV?$allocator@E@std@@@std@@QAEPAEQAEABE@Z ; std::vector<unsigned char,std::allocator<unsigned char> >::_Emplace_reallocate<unsigned char const &>
  000da	8b 3d 04 00 00
	00		 mov	 edi, DWORD PTR ?m_TerrainNumVector@FSortPatchDrawStructWithTerrainNum@CMapOutdoor@@2V?$vector@EV?$allocator@E@std@@@std@@A+4
  000e0	8b 55 f8	 mov	 edx, DWORD PTR tv1029[ebp]
$LN109@upper_boun:
; File D:\Metin2 Server Files\mainline\SRC_2014\Metin2Client\GameLib\MapOutdoor.h

; 380  : 					rhsTerrainNumOrder = m_TerrainNumVector.size() -1;

  000e3	8b 0d 00 00 00
	00		 mov	 ecx, DWORD PTR ?m_TerrainNumVector@FSortPatchDrawStructWithTerrainNum@CMapOutdoor@@2V?$vector@EV?$allocator@E@std@@@std@@A
  000e9	8b c7		 mov	 eax, edi
  000eb	2b c1		 sub	 eax, ecx
  000ed	48		 dec	 eax
$LN176@upper_boun:

; 381  : 				}
; 382  : 				if (!blhsOrderFound)

  000ee	89 45 f8	 mov	 DWORD PTR _rhsTerrainNumOrder$1$[ebp], eax
  000f1	3b f2		 cmp	 esi, edx
  000f3	75 77		 jne	 SHORT $LN174@upper_boun
; File C:\Program Files (x86)\Microsoft Visual Studio\2019\Community\VC\Tools\MSVC\14.28.29333\include\xutility

; 5461 :     _First =

  000f5	8b 75 ec	 mov	 esi, DWORD PTR __Val$1$[ebp]
  000f8	8b c7		 mov	 eax, edi
  000fa	2b c1		 sub	 eax, ecx
; File C:\Program Files (x86)\Windows Kits\10\Include\10.0.18362.0\ucrt\corecrt_memory.h

; 107  :         return const_cast<void*>(memchr(_Pvc, _C, _N));

  000fc	50		 push	 eax
; File C:\Program Files (x86)\Microsoft Visual Studio\2019\Community\VC\Tools\MSVC\14.28.29333\include\xutility

; 5461 :     _First =

  000fd	0f b6 06	 movzx	 eax, BYTE PTR [esi]
; File C:\Program Files (x86)\Windows Kits\10\Include\10.0.18362.0\ucrt\corecrt_memory.h

; 107  :         return const_cast<void*>(memchr(_Pvc, _C, _N));

  00100	50		 push	 eax
  00101	51		 push	 ecx
  00102	e8 00 00 00 00	 call	 _memchr
; File C:\Program Files (x86)\Microsoft Visual Studio\2019\Community\VC\Tools\MSVC\14.28.29333\include\xutility

; 5463 :     return _First ? _First : _Last;

  00107	85 c0		 test	 eax, eax
  00109	8b cf		 mov	 ecx, edi
  0010b	0f 45 c8	 cmovne	 ecx, eax
; File C:\Program Files (x86)\Microsoft Visual Studio\2019\Community\VC\Tools\MSVC\14.28.29333\include\vector

; 195  :         _Ptr = _Refancy<_Tptr>(const_cast<value_type*>(_It));

  0010e	51		 push	 ecx
  0010f	e8 00 00 00 00	 call	 ??$_Refancy@PAE$0A@@std@@YAPAEPAE@Z ; std::_Refancy<unsigned char *,0>
; File D:\Metin2 Server Files\mainline\SRC_2014\Metin2Client\GameLib\MapOutdoor.h

; 384  : 					lhsIterator = std::find(m_TerrainNumVector.begin(), m_TerrainNumVector.end(), lhs.byTerrainNum);

  00114	8b d8		 mov	 ebx, eax
; File C:\Program Files (x86)\Microsoft Visual Studio\2019\Community\VC\Tools\MSVC\14.28.29333\include\vector

; 195  :         _Ptr = _Refancy<_Tptr>(const_cast<value_type*>(_It));

  00116	83 c4 10	 add	 esp, 16			; 00000010H
; File D:\Metin2 Server Files\mainline\SRC_2014\Metin2Client\GameLib\MapOutdoor.h

; 384  : 					lhsIterator = std::find(m_TerrainNumVector.begin(), m_TerrainNumVector.end(), lhs.byTerrainNum);

  00119	3b df		 cmp	 ebx, edi

; 385  : 					if (lhsIterator != m_TerrainNumVector.end())

  0011b	74 0a		 je	 SHORT $LN172@upper_boun
; File C:\Program Files (x86)\Microsoft Visual Studio\2019\Community\VC\Tools\MSVC\14.28.29333\include\vector

; 140  :         return _Ptr - _Right._Ptr;

  0011d	8b 15 00 00 00
	00		 mov	 edx, DWORD PTR ?m_TerrainNumVector@FSortPatchDrawStructWithTerrainNum@CMapOutdoor@@2V?$vector@EV?$allocator@E@std@@@std@@A
  00123	2b da		 sub	 ebx, edx
; File D:\Metin2 Server Files\mainline\SRC_2014\Metin2Client\GameLib\MapOutdoor.h

; 390  : 					if (!blhsOrderFound)

  00125	eb 4b		 jmp	 SHORT $LN19@upper_boun
$LN172@upper_boun:
; File C:\Program Files (x86)\Microsoft Visual Studio\2019\Community\VC\Tools\MSVC\14.28.29333\include\vector

; 704  :         if (_Mylast != _My_data._Myend) {

  00127	3b 3d 08 00 00
	00		 cmp	 edi, DWORD PTR ?m_TerrainNumVector@FSortPatchDrawStructWithTerrainNum@CMapOutdoor@@2V?$vector@EV?$allocator@E@std@@@std@@A+8
  0012d	74 1e		 je	 SHORT $LN162@upper_boun

; 687  :         _Alty_traits::construct(_Getal(), _Unfancy(_Mylast), _STD forward<_Valty>(_Val)...);

  0012f	8a 06		 mov	 al, BYTE PTR [esi]
  00131	88 07		 mov	 BYTE PTR [edi], al

; 690  :         ++_Mylast;

  00133	8b 3d 04 00 00
	00		 mov	 edi, DWORD PTR ?m_TerrainNumVector@FSortPatchDrawStructWithTerrainNum@CMapOutdoor@@2V?$vector@EV?$allocator@E@std@@@std@@A+4
; File D:\Metin2 Server Files\mainline\SRC_2014\Metin2Client\GameLib\MapOutdoor.h

; 393  : 						lhsTerrainNumOrder = m_TerrainNumVector.size() -1;

  00139	8b 15 00 00 00
	00		 mov	 edx, DWORD PTR ?m_TerrainNumVector@FSortPatchDrawStructWithTerrainNum@CMapOutdoor@@2V?$vector@EV?$allocator@E@std@@@std@@A
; File C:\Program Files (x86)\Microsoft Visual Studio\2019\Community\VC\Tools\MSVC\14.28.29333\include\vector

; 690  :         ++_Mylast;

  0013f	47		 inc	 edi
; File D:\Metin2 Server Files\mainline\SRC_2014\Metin2Client\GameLib\MapOutdoor.h

; 393  : 						lhsTerrainNumOrder = m_TerrainNumVector.size() -1;

  00140	8b df		 mov	 ebx, edi
; File C:\Program Files (x86)\Microsoft Visual Studio\2019\Community\VC\Tools\MSVC\14.28.29333\include\vector

; 690  :         ++_Mylast;

  00142	89 3d 04 00 00
	00		 mov	 DWORD PTR ?m_TerrainNumVector@FSortPatchDrawStructWithTerrainNum@CMapOutdoor@@2V?$vector@EV?$allocator@E@std@@@std@@A+4, edi
; File D:\Metin2 Server Files\mainline\SRC_2014\Metin2Client\GameLib\MapOutdoor.h

; 393  : 						lhsTerrainNumOrder = m_TerrainNumVector.size() -1;

  00148	2b da		 sub	 ebx, edx
  0014a	4b		 dec	 ebx
  0014b	eb 25		 jmp	 SHORT $LN19@upper_boun
$LN162@upper_boun:
; File C:\Program Files (x86)\Microsoft Visual Studio\2019\Community\VC\Tools\MSVC\14.28.29333\include\vector

; 708  :         _Ty& _Result = *_Emplace_reallocate(_Mylast, _STD forward<_Valty>(_Val)...);

  0014d	56		 push	 esi
  0014e	57		 push	 edi
  0014f	b9 00 00 00 00	 mov	 ecx, OFFSET ?m_TerrainNumVector@FSortPatchDrawStructWithTerrainNum@CMapOutdoor@@2V?$vector@EV?$allocator@E@std@@@std@@A ; CMapOutdoor::FSortPatchDrawStructWithTerrainNum::m_TerrainNumVector
  00154	e8 00 00 00 00	 call	 ??$_Emplace_reallocate@ABE@?$vector@EV?$allocator@E@std@@@std@@QAEPAEQAEABE@Z ; std::vector<unsigned char,std::allocator<unsigned char> >::_Emplace_reallocate<unsigned char const &>
  00159	8b 3d 04 00 00
	00		 mov	 edi, DWORD PTR ?m_TerrainNumVector@FSortPatchDrawStructWithTerrainNum@CMapOutdoor@@2V?$vector@EV?$allocator@E@std@@@std@@A+4
; File D:\Metin2 Server Files\mainline\SRC_2014\Metin2Client\GameLib\MapOutdoor.h

; 393  : 						lhsTerrainNumOrder = m_TerrainNumVector.size() -1;

  0015f	8b df		 mov	 ebx, edi
  00161	8b 15 00 00 00
	00		 mov	 edx, DWORD PTR ?m_TerrainNumVector@FSortPatchDrawStructWithTerrainNum@CMapOutdoor@@2V?$vector@EV?$allocator@E@std@@@std@@A
  00167	2b da		 sub	 ebx, edx
  00169	4b		 dec	 ebx
  0016a	eb 06		 jmp	 SHORT $LN19@upper_boun
$LN174@upper_boun:

; 381  : 				}
; 382  : 				if (!blhsOrderFound)

  0016c	8b 15 00 00 00
	00		 mov	 edx, DWORD PTR ?m_TerrainNumVector@FSortPatchDrawStructWithTerrainNum@CMapOutdoor@@2V?$vector@EV?$allocator@E@std@@@std@@A
$LN19@upper_boun:

; 394  : 					}
; 395  : 				}
; 396  : 
; 397  : 				return lhsTerrainNumOrder < rhsTerrainNumOrder;

  00172	3b 5d f8	 cmp	 ebx, DWORD PTR _rhsTerrainNumOrder$1$[ebp]
; File C:\Program Files (x86)\Microsoft Visual Studio\2019\Community\VC\Tools\MSVC\14.28.29333\include\algorithm

; 6734 :         if (_Pred(_Val, *_UMid)) {

  00175	73 08		 jae	 SHORT $LN4@upper_boun

; 6735 :             _Count = _Count2;

  00177	8b 5d f0	 mov	 ebx, DWORD PTR __Count2$1$[ebp]

; 6736 :         } else { // try top half

  0017a	8b 75 08	 mov	 esi, DWORD PTR __First$[ebp]
  0017d	eb 14		 jmp	 SHORT $LN177@upper_boun
$LN4@upper_boun:

; 6737 :             _UFirst = _Next_iter(_UMid);

  0017f	8b 75 f4	 mov	 esi, DWORD PTR __UMid$1$[ebp]

; 6738 :             _Count -= _Count2 + 1;

  00182	83 c9 ff	 or	 ecx, -1
  00185	2b 4d f0	 sub	 ecx, DWORD PTR __Count2$1$[ebp]
  00188	83 c6 10	 add	 esi, 16			; 00000010H
  0018b	8b 5d 0c	 mov	 ebx, DWORD PTR __Last$[ebp]
  0018e	89 75 08	 mov	 DWORD PTR __First$[ebp], esi
  00191	03 d9		 add	 ebx, ecx
$LN177@upper_boun:

; 6731 :     while (0 < _Count) { // divide and conquer, find half that contains answer

  00193	8b 4d ec	 mov	 ecx, DWORD PTR __Val$1$[ebp]
  00196	89 5d 0c	 mov	 DWORD PTR __Last$[ebp], ebx
  00199	85 db		 test	 ebx, ebx
  0019b	0f 8f 93 fe ff
	ff		 jg	 $LL2@upper_boun

; 6739 :         }
; 6740 :     }
; 6741 : 
; 6742 :     _Seek_wrapped(_First, _UFirst);
; 6743 :     return _First;

  001a1	5f		 pop	 edi
$LN173@upper_boun:

; 6744 : }

  001a2	8b c6		 mov	 eax, esi
  001a4	5e		 pop	 esi
  001a5	5b		 pop	 ebx
  001a6	8b e5		 mov	 esp, ebp
  001a8	5d		 pop	 ebp
  001a9	c3		 ret	 0
??$upper_bound@PAUTPatchDrawStruct@CMapOutdoor@@U12@UFSortPatchDrawStructWithTerrainNum@2@@std@@YAPAUTPatchDrawStruct@CMapOutdoor@@PAU12@0ABU12@UFSortPatchDrawStructWithTerrainNum@2@@Z ENDP ; std::upper_bound<CMapOutdoor::TPatchDrawStruct *,CMapOutdoor::TPatchDrawStruct,CMapOutdoor::FSortPatchDrawStructWithTerrainNum>
_TEXT	ENDS
; Function compile flags: /Ogtp
; File C:\Program Files (x86)\Microsoft Visual Studio\2019\Community\VC\Tools\MSVC\14.28.29333\include\algorithm
;	COMDAT ??$_Buffered_inplace_merge_divide_and_conquer2@PAUTPatchDrawStruct@CMapOutdoor@@UFSortPatchDrawStructWithTerrainNum@2@@std@@YAXPAUTPatchDrawStruct@CMapOutdoor@@00HHQAU12@HUFSortPatchDrawStructWithTerrainNum@2@00HH@Z
_TEXT	SEGMENT
__First$ = 8						; size = 4
__Mid$ = 12						; size = 4
__Last$ = 16						; size = 4
__Count1$ = 20						; size = 4
__Count2$ = 24						; size = 4
__Temp_ptr$ = 28					; size = 4
__Capacity$ = 32					; size = 4
__Pred$ = 36						; size = 1
__Firstn$ = 40						; size = 4
__Lastn$ = 44						; size = 4
__Count1n$ = 48						; size = 4
__Count2n$ = 52						; size = 4
??$_Buffered_inplace_merge_divide_and_conquer2@PAUTPatchDrawStruct@CMapOutdoor@@UFSortPatchDrawStructWithTerrainNum@2@@std@@YAXPAUTPatchDrawStruct@CMapOutdoor@@00HHQAU12@HUFSortPatchDrawStructWithTerrainNum@2@00HH@Z PROC ; std::_Buffered_inplace_merge_divide_and_conquer2<CMapOutdoor::TPatchDrawStruct *,CMapOutdoor::FSortPatchDrawStructWithTerrainNum>, COMDAT

; 7245 :     _BidIt _Firstn, _BidIt _Lastn, _Iter_diff_t<_BidIt> _Count1n, _Iter_diff_t<_BidIt> _Count2n) {

  00000	55		 push	 ebp
  00001	8b ec		 mov	 ebp, esp

; 7246 :     // common block of _Buffered_inplace_merge_divide_and_conquer, below
; 7247 :     using _Diff  = _Iter_diff_t<_BidIt>;
; 7248 :     _BidIt _Midn = _Buffered_rotate_unchecked(_Firstn, _Mid, _Lastn, static_cast<_Diff>(_Count1 - _Count1n), _Count2n,

  00003	8b 45 14	 mov	 eax, DWORD PTR __Count1$[ebp]
  00006	2b 45 30	 sub	 eax, DWORD PTR __Count1n$[ebp]
  00009	53		 push	 ebx
  0000a	ff 75 20	 push	 DWORD PTR __Capacity$[ebp]
  0000d	89 45 14	 mov	 DWORD PTR __Count1$[ebp], eax
  00010	ff 75 1c	 push	 DWORD PTR __Temp_ptr$[ebp]
  00013	ff 75 34	 push	 DWORD PTR __Count2n$[ebp]
  00016	50		 push	 eax
  00017	ff 75 2c	 push	 DWORD PTR __Lastn$[ebp]
  0001a	ff 75 0c	 push	 DWORD PTR __Mid$[ebp]
  0001d	ff 75 28	 push	 DWORD PTR __Firstn$[ebp]
  00020	e8 00 00 00 00	 call	 ??$_Buffered_rotate_unchecked@PAUTPatchDrawStruct@CMapOutdoor@@@std@@YAPAUTPatchDrawStruct@CMapOutdoor@@QAU12@00HH0H@Z ; std::_Buffered_rotate_unchecked<CMapOutdoor::TPatchDrawStruct *>

; 7249 :         _Temp_ptr, _Capacity); // rearrange middle
; 7250 :     _Buffered_inplace_merge_unchecked(

  00025	ff 75 24	 push	 DWORD PTR __Pred$[ebp]
  00028	8b d8		 mov	 ebx, eax
  0002a	ff 75 20	 push	 DWORD PTR __Capacity$[ebp]
  0002d	ff 75 1c	 push	 DWORD PTR __Temp_ptr$[ebp]
  00030	ff 75 34	 push	 DWORD PTR __Count2n$[ebp]
  00033	ff 75 30	 push	 DWORD PTR __Count1n$[ebp]
  00036	53		 push	 ebx
  00037	ff 75 28	 push	 DWORD PTR __Firstn$[ebp]
  0003a	ff 75 08	 push	 DWORD PTR __First$[ebp]
  0003d	e8 00 00 00 00	 call	 ??$_Buffered_inplace_merge_unchecked@PAUTPatchDrawStruct@CMapOutdoor@@UFSortPatchDrawStructWithTerrainNum@2@@std@@YAXPAUTPatchDrawStruct@CMapOutdoor@@00HHQAU12@HUFSortPatchDrawStructWithTerrainNum@2@@Z ; std::_Buffered_inplace_merge_unchecked<CMapOutdoor::TPatchDrawStruct *,CMapOutdoor::FSortPatchDrawStructWithTerrainNum>

; 7251 :         _First, _Firstn, _Midn, _Count1n, _Count2n, _Temp_ptr, _Capacity, _Pred); // merge each new part
; 7252 :     _Buffered_inplace_merge_unchecked(_Midn, _Lastn, _Last, static_cast<_Diff>(_Count1 - _Count1n),

  00042	ff 75 24	 push	 DWORD PTR __Pred$[ebp]
  00045	8b 45 18	 mov	 eax, DWORD PTR __Count2$[ebp]
  00048	ff 75 20	 push	 DWORD PTR __Capacity$[ebp]
  0004b	2b 45 34	 sub	 eax, DWORD PTR __Count2n$[ebp]
  0004e	ff 75 1c	 push	 DWORD PTR __Temp_ptr$[ebp]
  00051	50		 push	 eax
  00052	ff 75 14	 push	 DWORD PTR __Count1$[ebp]
  00055	ff 75 10	 push	 DWORD PTR __Last$[ebp]
  00058	ff 75 2c	 push	 DWORD PTR __Lastn$[ebp]
  0005b	53		 push	 ebx
  0005c	e8 00 00 00 00	 call	 ??$_Buffered_inplace_merge_unchecked@PAUTPatchDrawStruct@CMapOutdoor@@UFSortPatchDrawStructWithTerrainNum@2@@std@@YAXPAUTPatchDrawStruct@CMapOutdoor@@00HHQAU12@HUFSortPatchDrawStructWithTerrainNum@2@@Z ; std::_Buffered_inplace_merge_unchecked<CMapOutdoor::TPatchDrawStruct *,CMapOutdoor::FSortPatchDrawStructWithTerrainNum>
  00061	83 c4 5c	 add	 esp, 92			; 0000005cH
  00064	5b		 pop	 ebx

; 7253 :         static_cast<_Diff>(_Count2 - _Count2n), _Temp_ptr, _Capacity, _Pred);
; 7254 : }

  00065	5d		 pop	 ebp
  00066	c3		 ret	 0
??$_Buffered_inplace_merge_divide_and_conquer2@PAUTPatchDrawStruct@CMapOutdoor@@UFSortPatchDrawStructWithTerrainNum@2@@std@@YAXPAUTPatchDrawStruct@CMapOutdoor@@00HHQAU12@HUFSortPatchDrawStructWithTerrainNum@2@00HH@Z ENDP ; std::_Buffered_inplace_merge_divide_and_conquer2<CMapOutdoor::TPatchDrawStruct *,CMapOutdoor::FSortPatchDrawStructWithTerrainNum>
_TEXT	ENDS
; Function compile flags: /Ogtp
; File C:\Program Files (x86)\Microsoft Visual Studio\2019\Community\VC\Tools\MSVC\14.28.29333\include\xutility
; File D:\Metin2 Server Files\mainline\SRC_2014\Metin2Client\GameLib\MapOutdoor.h
; File C:\Program Files (x86)\Microsoft Visual Studio\2019\Community\VC\Tools\MSVC\14.28.29333\include\xutility
; File D:\Metin2 Server Files\mainline\SRC_2014\Metin2Client\GameLib\MapOutdoor.h
; File C:\Program Files (x86)\Microsoft Visual Studio\2019\Community\VC\Tools\MSVC\14.28.29333\include\xutility
; File C:\Program Files (x86)\Windows Kits\10\Include\10.0.18362.0\ucrt\corecrt_memory.h
; File C:\Program Files (x86)\Microsoft Visual Studio\2019\Community\VC\Tools\MSVC\14.28.29333\include\xutility
; File C:\Program Files (x86)\Windows Kits\10\Include\10.0.18362.0\ucrt\corecrt_memory.h
; File C:\Program Files (x86)\Microsoft Visual Studio\2019\Community\VC\Tools\MSVC\14.28.29333\include\xutility
; File C:\Program Files (x86)\Microsoft Visual Studio\2019\Community\VC\Tools\MSVC\14.28.29333\include\vector
; File C:\Program Files (x86)\Microsoft Visual Studio\2019\Community\VC\Tools\MSVC\14.28.29333\include\xutility
; File C:\Program Files (x86)\Microsoft Visual Studio\2019\Community\VC\Tools\MSVC\14.28.29333\include\vector
; File C:\Program Files (x86)\Microsoft Visual Studio\2019\Community\VC\Tools\MSVC\14.28.29333\include\xutility
; File C:\Program Files (x86)\Windows Kits\10\Include\10.0.18362.0\ucrt\corecrt_memory.h
; File C:\Program Files (x86)\Microsoft Visual Studio\2019\Community\VC\Tools\MSVC\14.28.29333\include\xutility
; File C:\Program Files (x86)\Windows Kits\10\Include\10.0.18362.0\ucrt\corecrt_memory.h
; File C:\Program Files (x86)\Microsoft Visual Studio\2019\Community\VC\Tools\MSVC\14.28.29333\include\xutility
; File C:\Program Files (x86)\Microsoft Visual Studio\2019\Community\VC\Tools\MSVC\14.28.29333\include\vector
; File D:\Metin2 Server Files\mainline\SRC_2014\Metin2Client\GameLib\MapOutdoor.h
; File C:\Program Files (x86)\Microsoft Visual Studio\2019\Community\VC\Tools\MSVC\14.28.29333\include\xutility
; File C:\Program Files (x86)\Microsoft Visual Studio\2019\Community\VC\Tools\MSVC\14.28.29333\include\vector
; File C:\Program Files (x86)\Microsoft Visual Studio\2019\Community\VC\Tools\MSVC\14.28.29333\include\xutility
; File D:\Metin2 Server Files\mainline\SRC_2014\Metin2Client\GameLib\MapOutdoor.h
; File C:\Program Files (x86)\Microsoft Visual Studio\2019\Community\VC\Tools\MSVC\14.28.29333\include\vector
; File D:\Metin2 Server Files\mainline\SRC_2014\Metin2Client\GameLib\MapOutdoor.h
; File C:\Program Files (x86)\Microsoft Visual Studio\2019\Community\VC\Tools\MSVC\14.28.29333\include\vector
; File D:\Metin2 Server Files\mainline\SRC_2014\Metin2Client\GameLib\MapOutdoor.h
; File C:\Program Files (x86)\Microsoft Visual Studio\2019\Community\VC\Tools\MSVC\14.28.29333\include\vector
; File D:\Metin2 Server Files\mainline\SRC_2014\Metin2Client\GameLib\MapOutdoor.h
; File C:\Program Files (x86)\Microsoft Visual Studio\2019\Community\VC\Tools\MSVC\14.28.29333\include\xutility
; File C:\Program Files (x86)\Windows Kits\10\Include\10.0.18362.0\ucrt\corecrt_memory.h
; File C:\Program Files (x86)\Microsoft Visual Studio\2019\Community\VC\Tools\MSVC\14.28.29333\include\xutility
; File C:\Program Files (x86)\Windows Kits\10\Include\10.0.18362.0\ucrt\corecrt_memory.h
; File C:\Program Files (x86)\Microsoft Visual Studio\2019\Community\VC\Tools\MSVC\14.28.29333\include\xutility
; File C:\Program Files (x86)\Microsoft Visual Studio\2019\Community\VC\Tools\MSVC\14.28.29333\include\vector
; File D:\Metin2 Server Files\mainline\SRC_2014\Metin2Client\GameLib\MapOutdoor.h
; File C:\Program Files (x86)\Microsoft Visual Studio\2019\Community\VC\Tools\MSVC\14.28.29333\include\vector
; File D:\Metin2 Server Files\mainline\SRC_2014\Metin2Client\GameLib\MapOutdoor.h
; File C:\Program Files (x86)\Microsoft Visual Studio\2019\Community\VC\Tools\MSVC\14.28.29333\include\vector
; File D:\Metin2 Server Files\mainline\SRC_2014\Metin2Client\GameLib\MapOutdoor.h
; File C:\Program Files (x86)\Microsoft Visual Studio\2019\Community\VC\Tools\MSVC\14.28.29333\include\vector
; File D:\Metin2 Server Files\mainline\SRC_2014\Metin2Client\GameLib\MapOutdoor.h
; File C:\Program Files (x86)\Microsoft Visual Studio\2019\Community\VC\Tools\MSVC\14.28.29333\include\vector
; File D:\Metin2 Server Files\mainline\SRC_2014\Metin2Client\GameLib\MapOutdoor.h
; File C:\Program Files (x86)\Microsoft Visual Studio\2019\Community\VC\Tools\MSVC\14.28.29333\include\vector
; File D:\Metin2 Server Files\mainline\SRC_2014\Metin2Client\GameLib\MapOutdoor.h
; File C:\Program Files (x86)\Microsoft Visual Studio\2019\Community\VC\Tools\MSVC\14.28.29333\include\vector
; File D:\Metin2 Server Files\mainline\SRC_2014\Metin2Client\GameLib\MapOutdoor.h
; File C:\Program Files (x86)\Microsoft Visual Studio\2019\Community\VC\Tools\MSVC\14.28.29333\include\xutility
;	COMDAT ??$lower_bound@PAUTPatchDrawStruct@CMapOutdoor@@U12@UFSortPatchDrawStructWithTerrainNum@2@@std@@YAPAUTPatchDrawStruct@CMapOutdoor@@PAU12@QAU12@ABU12@UFSortPatchDrawStructWithTerrainNum@2@@Z
_TEXT	SEGMENT
__Count2$1$ = -20					; size = 4
__UMid$1$ = -16						; size = 4
__Val$1$ = -12						; size = 4
tv1027 = -8						; size = 4
_rhsTerrainNumOrder$1$ = -8				; size = 4
tv1029 = -1						; size = 1
tv1022 = -1						; size = 1
__First$ = 8						; size = 4
__Last$ = 12						; size = 4
__Val$ = 16						; size = 4
__Pred$ = 20						; size = 1
??$lower_bound@PAUTPatchDrawStruct@CMapOutdoor@@U12@UFSortPatchDrawStructWithTerrainNum@2@@std@@YAPAUTPatchDrawStruct@CMapOutdoor@@PAU12@QAU12@ABU12@UFSortPatchDrawStructWithTerrainNum@2@@Z PROC ; std::lower_bound<CMapOutdoor::TPatchDrawStruct *,CMapOutdoor::TPatchDrawStruct,CMapOutdoor::FSortPatchDrawStructWithTerrainNum>, COMDAT

; 5849 : _NODISCARD _CONSTEXPR20 _FwdIt lower_bound(_FwdIt _First, const _FwdIt _Last, const _Ty& _Val, _Pr _Pred) {

  00000	55		 push	 ebp
  00001	8b ec		 mov	 ebp, esp

; 1794 :         return _Last - _First; // assume the iterator will do debug checking

  00003	8b 55 0c	 mov	 edx, DWORD PTR __Last$[ebp]

; 5849 : _NODISCARD _CONSTEXPR20 _FwdIt lower_bound(_FwdIt _First, const _FwdIt _Last, const _Ty& _Val, _Pr _Pred) {

  00006	83 ec 14	 sub	 esp, 20			; 00000014H
  00009	53		 push	 ebx

; 1794 :         return _Last - _First; // assume the iterator will do debug checking

  0000a	8b 5d 08	 mov	 ebx, DWORD PTR __First$[ebp]
  0000d	2b d3		 sub	 edx, ebx
  0000f	c1 fa 04	 sar	 edx, 4
  00012	89 55 0c	 mov	 DWORD PTR __Last$[ebp], edx

; 5850 :     // find first element not before _Val
; 5851 :     _Adl_verify_range(_First, _Last);
; 5852 :     auto _UFirst                = _Get_unwrapped(_First);
; 5853 :     _Iter_diff_t<_FwdIt> _Count = _STD distance(_UFirst, _Get_unwrapped(_Last));
; 5854 : 
; 5855 :     while (0 < _Count) { // divide and conquer, find half that contains answer

  00015	85 d2		 test	 edx, edx
  00017	0f 8e 84 01 00
	00		 jle	 $LN173@lower_boun
  0001d	8b 45 10	 mov	 eax, DWORD PTR __Val$[ebp]
  00020	8b 0d 00 00 00
	00		 mov	 ecx, DWORD PTR ?m_TerrainNumVector@FSortPatchDrawStructWithTerrainNum@CMapOutdoor@@2V?$vector@EV?$allocator@E@std@@@std@@A
  00026	83 c0 04	 add	 eax, 4
  00029	56		 push	 esi
  0002a	57		 push	 edi
  0002b	8b 3d 04 00 00
	00		 mov	 edi, DWORD PTR ?m_TerrainNumVector@FSortPatchDrawStructWithTerrainNum@CMapOutdoor@@2V?$vector@EV?$allocator@E@std@@@std@@A+4
  00031	89 45 f4	 mov	 DWORD PTR __Val$1$[ebp], eax
$LL2@lower_boun:

; 5856 :         const _Iter_diff_t<_FwdIt> _Count2 = _Count / 2;

  00034	8b c2		 mov	 eax, edx

; 5480 :     _Seek_wrapped(_First, _Find_unchecked(_Get_unwrapped(_First), _Get_unwrapped(_Last), _Val));

  00036	89 7d f8	 mov	 DWORD PTR tv1027[ebp], edi

; 5856 :         const _Iter_diff_t<_FwdIt> _Count2 = _Count / 2;

  00039	d1 e8		 shr	 eax, 1
  0003b	89 45 ec	 mov	 DWORD PTR __Count2$1$[ebp], eax

; 1714 :         _Where += _Off;

  0003e	c1 e0 04	 shl	 eax, 4
  00041	03 c3		 add	 eax, ebx
; File D:\Metin2 Server Files\mainline\SRC_2014\Metin2Client\GameLib\MapOutdoor.h

; 360  : 				DWORD lhsTerrainNumOrder = 0, rhsTerrainNumOrder = 0;

  00043	33 db		 xor	 ebx, ebx
; File C:\Program Files (x86)\Microsoft Visual Studio\2019\Community\VC\Tools\MSVC\14.28.29333\include\xutility

; 1714 :         _Where += _Off;

  00045	89 45 f0	 mov	 DWORD PTR __UMid$1$[ebp], eax
; File D:\Metin2 Server Files\mainline\SRC_2014\Metin2Client\GameLib\MapOutdoor.h

; 364  : 				TTerrainNumVector::iterator lhsIterator = std::find(m_TerrainNumVector.begin(), m_TerrainNumVector.end(), lhs.byTerrainNum);

  00048	8d 50 04	 lea	 edx, DWORD PTR [eax+4]
; File C:\Program Files (x86)\Microsoft Visual Studio\2019\Community\VC\Tools\MSVC\14.28.29333\include\xutility

; 5461 :     _First =

  0004b	8b c7		 mov	 eax, edi
  0004d	2b c1		 sub	 eax, ecx
; File C:\Program Files (x86)\Windows Kits\10\Include\10.0.18362.0\ucrt\corecrt_memory.h

; 107  :         return const_cast<void*>(memchr(_Pvc, _C, _N));

  0004f	50		 push	 eax
; File C:\Program Files (x86)\Microsoft Visual Studio\2019\Community\VC\Tools\MSVC\14.28.29333\include\xutility

; 5461 :     _First =

  00050	0f b6 02	 movzx	 eax, BYTE PTR [edx]
; File C:\Program Files (x86)\Windows Kits\10\Include\10.0.18362.0\ucrt\corecrt_memory.h

; 107  :         return const_cast<void*>(memchr(_Pvc, _C, _N));

  00053	50		 push	 eax
  00054	51		 push	 ecx
  00055	e8 00 00 00 00	 call	 _memchr
; File C:\Program Files (x86)\Microsoft Visual Studio\2019\Community\VC\Tools\MSVC\14.28.29333\include\xutility

; 5463 :     return _First ? _First : _Last;

  0005a	85 c0		 test	 eax, eax
  0005c	8b cf		 mov	 ecx, edi
  0005e	0f 45 c8	 cmovne	 ecx, eax
; File C:\Program Files (x86)\Microsoft Visual Studio\2019\Community\VC\Tools\MSVC\14.28.29333\include\vector

; 195  :         _Ptr = _Refancy<_Tptr>(const_cast<value_type*>(_It));

  00061	51		 push	 ecx
  00062	e8 00 00 00 00	 call	 ??$_Refancy@PAE$0A@@std@@YAPAEPAE@Z ; std::_Refancy<unsigned char *,0>
; File C:\Program Files (x86)\Microsoft Visual Studio\2019\Community\VC\Tools\MSVC\14.28.29333\include\xutility

; 5461 :     _First =

  00067	8b 0d 00 00 00
	00		 mov	 ecx, DWORD PTR ?m_TerrainNumVector@FSortPatchDrawStructWithTerrainNum@CMapOutdoor@@2V?$vector@EV?$allocator@E@std@@@std@@A
; File C:\Program Files (x86)\Microsoft Visual Studio\2019\Community\VC\Tools\MSVC\14.28.29333\include\vector

; 195  :         _Ptr = _Refancy<_Tptr>(const_cast<value_type*>(_It));

  0006d	8b f0		 mov	 esi, eax
; File C:\Program Files (x86)\Microsoft Visual Studio\2019\Community\VC\Tools\MSVC\14.28.29333\include\xutility

; 5461 :     _First =

  0006f	8b 45 f4	 mov	 eax, DWORD PTR __Val$1$[ebp]
  00072	8a 10		 mov	 dl, BYTE PTR [eax]
  00074	8b c7		 mov	 eax, edi
  00076	2b c1		 sub	 eax, ecx
  00078	88 55 ff	 mov	 BYTE PTR tv1029[ebp], dl
; File C:\Program Files (x86)\Windows Kits\10\Include\10.0.18362.0\ucrt\corecrt_memory.h

; 107  :         return const_cast<void*>(memchr(_Pvc, _C, _N));

  0007b	50		 push	 eax
; File C:\Program Files (x86)\Microsoft Visual Studio\2019\Community\VC\Tools\MSVC\14.28.29333\include\xutility

; 5461 :     _First =

  0007c	0f b6 c2	 movzx	 eax, dl
; File C:\Program Files (x86)\Windows Kits\10\Include\10.0.18362.0\ucrt\corecrt_memory.h

; 107  :         return const_cast<void*>(memchr(_Pvc, _C, _N));

  0007f	50		 push	 eax
  00080	51		 push	 ecx
  00081	e8 00 00 00 00	 call	 _memchr
; File C:\Program Files (x86)\Microsoft Visual Studio\2019\Community\VC\Tools\MSVC\14.28.29333\include\xutility

; 5463 :     return _First ? _First : _Last;

  00086	85 c0		 test	 eax, eax
  00088	8b cf		 mov	 ecx, edi
  0008a	0f 45 c8	 cmovne	 ecx, eax
; File C:\Program Files (x86)\Microsoft Visual Studio\2019\Community\VC\Tools\MSVC\14.28.29333\include\vector

; 195  :         _Ptr = _Refancy<_Tptr>(const_cast<value_type*>(_It));

  0008d	51		 push	 ecx
  0008e	e8 00 00 00 00	 call	 ??$_Refancy@PAE$0A@@std@@YAPAEPAE@Z ; std::_Refancy<unsigned char *,0>
; File D:\Metin2 Server Files\mainline\SRC_2014\Metin2Client\GameLib\MapOutdoor.h

; 367  : 				if (lhsIterator != m_TerrainNumVector.end())

  00093	8b 0d 00 00 00
	00		 mov	 ecx, DWORD PTR ?m_TerrainNumVector@FSortPatchDrawStructWithTerrainNum@CMapOutdoor@@2V?$vector@EV?$allocator@E@std@@@std@@A
; File C:\Program Files (x86)\Microsoft Visual Studio\2019\Community\VC\Tools\MSVC\14.28.29333\include\xutility

; 5481 :     return _First;

  00099	8b d7		 mov	 edx, edi
; File C:\Program Files (x86)\Microsoft Visual Studio\2019\Community\VC\Tools\MSVC\14.28.29333\include\vector

; 195  :         _Ptr = _Refancy<_Tptr>(const_cast<value_type*>(_It));

  0009b	83 c4 20	 add	 esp, 32			; 00000020H
; File C:\Program Files (x86)\Microsoft Visual Studio\2019\Community\VC\Tools\MSVC\14.28.29333\include\xutility

; 5481 :     return _First;

  0009e	3b f2		 cmp	 esi, edx
; File D:\Metin2 Server Files\mainline\SRC_2014\Metin2Client\GameLib\MapOutdoor.h

; 367  : 				if (lhsIterator != m_TerrainNumVector.end())

  000a0	74 04		 je	 SHORT $LN14@lower_boun

; 368  : 				{
; 369  : 					blhsOrderFound = true;

  000a2	8b de		 mov	 ebx, esi
  000a4	2b d9		 sub	 ebx, ecx
$LN14@lower_boun:
; File C:\Program Files (x86)\Microsoft Visual Studio\2019\Community\VC\Tools\MSVC\14.28.29333\include\vector

; 149  :         return _Ptr == _Right._Ptr;

  000a6	3b c2		 cmp	 eax, edx
; File D:\Metin2 Server Files\mainline\SRC_2014\Metin2Client\GameLib\MapOutdoor.h

; 372  : 				if (rhsIterator != m_TerrainNumVector.end())

  000a8	74 04		 je	 SHORT $LN171@lower_boun
; File C:\Program Files (x86)\Microsoft Visual Studio\2019\Community\VC\Tools\MSVC\14.28.29333\include\vector

; 140  :         return _Ptr - _Right._Ptr;

  000aa	2b c1		 sub	 eax, ecx
; File D:\Metin2 Server Files\mainline\SRC_2014\Metin2Client\GameLib\MapOutdoor.h

; 377  : 				if (!brhsOrderFound)

  000ac	eb 3e		 jmp	 SHORT $LN176@lower_boun
$LN171@lower_boun:
; File C:\Program Files (x86)\Microsoft Visual Studio\2019\Community\VC\Tools\MSVC\14.28.29333\include\vector

; 704  :         if (_Mylast != _My_data._Myend) {

  000ae	3b 15 08 00 00
	00		 cmp	 edx, DWORD PTR ?m_TerrainNumVector@FSortPatchDrawStructWithTerrainNum@CMapOutdoor@@2V?$vector@EV?$allocator@E@std@@@std@@A+8
  000b4	74 14		 je	 SHORT $LN110@lower_boun

; 687  :         _Alty_traits::construct(_Getal(), _Unfancy(_Mylast), _STD forward<_Valty>(_Val)...);

  000b6	8a 45 ff	 mov	 al, BYTE PTR tv1029[ebp]
  000b9	88 02		 mov	 BYTE PTR [edx], al

; 690  :         ++_Mylast;

  000bb	8b 3d 04 00 00
	00		 mov	 edi, DWORD PTR ?m_TerrainNumVector@FSortPatchDrawStructWithTerrainNum@CMapOutdoor@@2V?$vector@EV?$allocator@E@std@@@std@@A+4
  000c1	47		 inc	 edi
  000c2	89 3d 04 00 00
	00		 mov	 DWORD PTR ?m_TerrainNumVector@FSortPatchDrawStructWithTerrainNum@CMapOutdoor@@2V?$vector@EV?$allocator@E@std@@@std@@A+4, edi

; 705  :             return _Emplace_back_with_unused_capacity(_STD forward<_Valty>(_Val)...);

  000c8	eb 17		 jmp	 SHORT $LN109@lower_boun
$LN110@lower_boun:

; 708  :         _Ty& _Result = *_Emplace_reallocate(_Mylast, _STD forward<_Valty>(_Val)...);

  000ca	ff 75 f4	 push	 DWORD PTR __Val$1$[ebp]
  000cd	b9 00 00 00 00	 mov	 ecx, OFFSET ?m_TerrainNumVector@FSortPatchDrawStructWithTerrainNum@CMapOutdoor@@2V?$vector@EV?$allocator@E@std@@@std@@A ; CMapOutdoor::FSortPatchDrawStructWithTerrainNum::m_TerrainNumVector
  000d2	52		 push	 edx
  000d3	e8 00 00 00 00	 call	 ??$_Emplace_reallocate@ABE@?$vector@EV?$allocator@E@std@@@std@@QAEPAEQAEABE@Z ; std::vector<unsigned char,std::allocator<unsigned char> >::_Emplace_reallocate<unsigned char const &>
  000d8	8b 3d 04 00 00
	00		 mov	 edi, DWORD PTR ?m_TerrainNumVector@FSortPatchDrawStructWithTerrainNum@CMapOutdoor@@2V?$vector@EV?$allocator@E@std@@@std@@A+4
  000de	8b 55 f8	 mov	 edx, DWORD PTR tv1027[ebp]
$LN109@lower_boun:
; File D:\Metin2 Server Files\mainline\SRC_2014\Metin2Client\GameLib\MapOutdoor.h

; 380  : 					rhsTerrainNumOrder = m_TerrainNumVector.size() -1;

  000e1	8b 0d 00 00 00
	00		 mov	 ecx, DWORD PTR ?m_TerrainNumVector@FSortPatchDrawStructWithTerrainNum@CMapOutdoor@@2V?$vector@EV?$allocator@E@std@@@std@@A
  000e7	8b c7		 mov	 eax, edi
  000e9	2b c1		 sub	 eax, ecx
  000eb	48		 dec	 eax
$LN176@lower_boun:

; 381  : 				}
; 382  : 				if (!blhsOrderFound)

  000ec	89 45 f8	 mov	 DWORD PTR _rhsTerrainNumOrder$1$[ebp], eax
  000ef	3b f2		 cmp	 esi, edx
  000f1	75 7a		 jne	 SHORT $LN174@lower_boun
; File C:\Program Files (x86)\Microsoft Visual Studio\2019\Community\VC\Tools\MSVC\14.28.29333\include\xutility

; 5461 :     _First =

  000f3	8b 75 f0	 mov	 esi, DWORD PTR __UMid$1$[ebp]
  000f6	8b c7		 mov	 eax, edi
  000f8	83 c6 04	 add	 esi, 4
  000fb	2b c1		 sub	 eax, ecx
; File C:\Program Files (x86)\Windows Kits\10\Include\10.0.18362.0\ucrt\corecrt_memory.h

; 107  :         return const_cast<void*>(memchr(_Pvc, _C, _N));

  000fd	50		 push	 eax
; File C:\Program Files (x86)\Microsoft Visual Studio\2019\Community\VC\Tools\MSVC\14.28.29333\include\xutility

; 5461 :     _First =

  000fe	0f b6 06	 movzx	 eax, BYTE PTR [esi]
; File C:\Program Files (x86)\Windows Kits\10\Include\10.0.18362.0\ucrt\corecrt_memory.h

; 107  :         return const_cast<void*>(memchr(_Pvc, _C, _N));

  00101	50		 push	 eax
  00102	51		 push	 ecx
  00103	e8 00 00 00 00	 call	 _memchr
; File C:\Program Files (x86)\Microsoft Visual Studio\2019\Community\VC\Tools\MSVC\14.28.29333\include\xutility

; 5463 :     return _First ? _First : _Last;

  00108	85 c0		 test	 eax, eax
  0010a	8b cf		 mov	 ecx, edi
  0010c	0f 45 c8	 cmovne	 ecx, eax
; File C:\Program Files (x86)\Microsoft Visual Studio\2019\Community\VC\Tools\MSVC\14.28.29333\include\vector

; 195  :         _Ptr = _Refancy<_Tptr>(const_cast<value_type*>(_It));

  0010f	51		 push	 ecx
  00110	e8 00 00 00 00	 call	 ??$_Refancy@PAE$0A@@std@@YAPAEPAE@Z ; std::_Refancy<unsigned char *,0>
; File D:\Metin2 Server Files\mainline\SRC_2014\Metin2Client\GameLib\MapOutdoor.h

; 384  : 					lhsIterator = std::find(m_TerrainNumVector.begin(), m_TerrainNumVector.end(), lhs.byTerrainNum);

  00115	8b d8		 mov	 ebx, eax
; File C:\Program Files (x86)\Microsoft Visual Studio\2019\Community\VC\Tools\MSVC\14.28.29333\include\vector

; 195  :         _Ptr = _Refancy<_Tptr>(const_cast<value_type*>(_It));

  00117	83 c4 10	 add	 esp, 16			; 00000010H
; File D:\Metin2 Server Files\mainline\SRC_2014\Metin2Client\GameLib\MapOutdoor.h

; 384  : 					lhsIterator = std::find(m_TerrainNumVector.begin(), m_TerrainNumVector.end(), lhs.byTerrainNum);

  0011a	3b df		 cmp	 ebx, edi

; 385  : 					if (lhsIterator != m_TerrainNumVector.end())

  0011c	74 0a		 je	 SHORT $LN172@lower_boun
; File C:\Program Files (x86)\Microsoft Visual Studio\2019\Community\VC\Tools\MSVC\14.28.29333\include\vector

; 140  :         return _Ptr - _Right._Ptr;

  0011e	8b 0d 00 00 00
	00		 mov	 ecx, DWORD PTR ?m_TerrainNumVector@FSortPatchDrawStructWithTerrainNum@CMapOutdoor@@2V?$vector@EV?$allocator@E@std@@@std@@A
  00124	2b d9		 sub	 ebx, ecx
; File D:\Metin2 Server Files\mainline\SRC_2014\Metin2Client\GameLib\MapOutdoor.h

; 390  : 					if (!blhsOrderFound)

  00126	eb 4b		 jmp	 SHORT $LN19@lower_boun
$LN172@lower_boun:
; File C:\Program Files (x86)\Microsoft Visual Studio\2019\Community\VC\Tools\MSVC\14.28.29333\include\vector

; 704  :         if (_Mylast != _My_data._Myend) {

  00128	3b 3d 08 00 00
	00		 cmp	 edi, DWORD PTR ?m_TerrainNumVector@FSortPatchDrawStructWithTerrainNum@CMapOutdoor@@2V?$vector@EV?$allocator@E@std@@@std@@A+8
  0012e	74 1e		 je	 SHORT $LN162@lower_boun

; 687  :         _Alty_traits::construct(_Getal(), _Unfancy(_Mylast), _STD forward<_Valty>(_Val)...);

  00130	8a 06		 mov	 al, BYTE PTR [esi]
  00132	88 07		 mov	 BYTE PTR [edi], al

; 690  :         ++_Mylast;

  00134	8b 3d 04 00 00
	00		 mov	 edi, DWORD PTR ?m_TerrainNumVector@FSortPatchDrawStructWithTerrainNum@CMapOutdoor@@2V?$vector@EV?$allocator@E@std@@@std@@A+4
; File D:\Metin2 Server Files\mainline\SRC_2014\Metin2Client\GameLib\MapOutdoor.h

; 393  : 						lhsTerrainNumOrder = m_TerrainNumVector.size() -1;

  0013a	8b 0d 00 00 00
	00		 mov	 ecx, DWORD PTR ?m_TerrainNumVector@FSortPatchDrawStructWithTerrainNum@CMapOutdoor@@2V?$vector@EV?$allocator@E@std@@@std@@A
; File C:\Program Files (x86)\Microsoft Visual Studio\2019\Community\VC\Tools\MSVC\14.28.29333\include\vector

; 690  :         ++_Mylast;

  00140	47		 inc	 edi
; File D:\Metin2 Server Files\mainline\SRC_2014\Metin2Client\GameLib\MapOutdoor.h

; 393  : 						lhsTerrainNumOrder = m_TerrainNumVector.size() -1;

  00141	8b df		 mov	 ebx, edi
; File C:\Program Files (x86)\Microsoft Visual Studio\2019\Community\VC\Tools\MSVC\14.28.29333\include\vector

; 690  :         ++_Mylast;

  00143	89 3d 04 00 00
	00		 mov	 DWORD PTR ?m_TerrainNumVector@FSortPatchDrawStructWithTerrainNum@CMapOutdoor@@2V?$vector@EV?$allocator@E@std@@@std@@A+4, edi
; File D:\Metin2 Server Files\mainline\SRC_2014\Metin2Client\GameLib\MapOutdoor.h

; 393  : 						lhsTerrainNumOrder = m_TerrainNumVector.size() -1;

  00149	2b d9		 sub	 ebx, ecx
  0014b	4b		 dec	 ebx
  0014c	eb 25		 jmp	 SHORT $LN19@lower_boun
$LN162@lower_boun:
; File C:\Program Files (x86)\Microsoft Visual Studio\2019\Community\VC\Tools\MSVC\14.28.29333\include\vector

; 708  :         _Ty& _Result = *_Emplace_reallocate(_Mylast, _STD forward<_Valty>(_Val)...);

  0014e	56		 push	 esi
  0014f	57		 push	 edi
  00150	b9 00 00 00 00	 mov	 ecx, OFFSET ?m_TerrainNumVector@FSortPatchDrawStructWithTerrainNum@CMapOutdoor@@2V?$vector@EV?$allocator@E@std@@@std@@A ; CMapOutdoor::FSortPatchDrawStructWithTerrainNum::m_TerrainNumVector
  00155	e8 00 00 00 00	 call	 ??$_Emplace_reallocate@ABE@?$vector@EV?$allocator@E@std@@@std@@QAEPAEQAEABE@Z ; std::vector<unsigned char,std::allocator<unsigned char> >::_Emplace_reallocate<unsigned char const &>
  0015a	8b 3d 04 00 00
	00		 mov	 edi, DWORD PTR ?m_TerrainNumVector@FSortPatchDrawStructWithTerrainNum@CMapOutdoor@@2V?$vector@EV?$allocator@E@std@@@std@@A+4
; File D:\Metin2 Server Files\mainline\SRC_2014\Metin2Client\GameLib\MapOutdoor.h

; 393  : 						lhsTerrainNumOrder = m_TerrainNumVector.size() -1;

  00160	8b df		 mov	 ebx, edi
  00162	8b 0d 00 00 00
	00		 mov	 ecx, DWORD PTR ?m_TerrainNumVector@FSortPatchDrawStructWithTerrainNum@CMapOutdoor@@2V?$vector@EV?$allocator@E@std@@@std@@A
  00168	2b d9		 sub	 ebx, ecx
  0016a	4b		 dec	 ebx
  0016b	eb 06		 jmp	 SHORT $LN19@lower_boun
$LN174@lower_boun:

; 381  : 				}
; 382  : 				if (!blhsOrderFound)

  0016d	8b 0d 00 00 00
	00		 mov	 ecx, DWORD PTR ?m_TerrainNumVector@FSortPatchDrawStructWithTerrainNum@CMapOutdoor@@2V?$vector@EV?$allocator@E@std@@@std@@A
$LN19@lower_boun:

; 394  : 					}
; 395  : 				}
; 396  : 
; 397  : 				return lhsTerrainNumOrder < rhsTerrainNumOrder;

  00173	3b 5d f8	 cmp	 ebx, DWORD PTR _rhsTerrainNumOrder$1$[ebp]
; File C:\Program Files (x86)\Microsoft Visual Studio\2019\Community\VC\Tools\MSVC\14.28.29333\include\xutility

; 5858 :         if (_Pred(*_UMid, _Val)) { // try top half

  00176	73 16		 jae	 SHORT $LN4@lower_boun

; 5859 :             _UFirst = _Next_iter(_UMid);

  00178	8b 5d f0	 mov	 ebx, DWORD PTR __UMid$1$[ebp]

; 5860 :             _Count -= _Count2 + 1;

  0017b	83 c8 ff	 or	 eax, -1
  0017e	2b 45 ec	 sub	 eax, DWORD PTR __Count2$1$[ebp]
  00181	83 c3 10	 add	 ebx, 16			; 00000010H
  00184	8b 55 0c	 mov	 edx, DWORD PTR __Last$[ebp]
  00187	89 5d 08	 mov	 DWORD PTR __First$[ebp], ebx
  0018a	03 d0		 add	 edx, eax

; 5861 :         } else {

  0018c	eb 06		 jmp	 SHORT $LN177@lower_boun
$LN4@lower_boun:

; 5862 :             _Count = _Count2;

  0018e	8b 55 ec	 mov	 edx, DWORD PTR __Count2$1$[ebp]
  00191	8b 5d 08	 mov	 ebx, DWORD PTR __First$[ebp]
$LN177@lower_boun:

; 5850 :     // find first element not before _Val
; 5851 :     _Adl_verify_range(_First, _Last);
; 5852 :     auto _UFirst                = _Get_unwrapped(_First);
; 5853 :     _Iter_diff_t<_FwdIt> _Count = _STD distance(_UFirst, _Get_unwrapped(_Last));
; 5854 : 
; 5855 :     while (0 < _Count) { // divide and conquer, find half that contains answer

  00194	89 55 0c	 mov	 DWORD PTR __Last$[ebp], edx
  00197	85 d2		 test	 edx, edx
  00199	0f 8f 95 fe ff
	ff		 jg	 $LL2@lower_boun

; 5863 :         }
; 5864 :     }
; 5865 : 
; 5866 :     _Seek_wrapped(_First, _UFirst);
; 5867 :     return _First;

  0019f	5f		 pop	 edi
  001a0	5e		 pop	 esi
$LN173@lower_boun:

; 5868 : }

  001a1	8b c3		 mov	 eax, ebx
  001a3	5b		 pop	 ebx
  001a4	8b e5		 mov	 esp, ebp
  001a6	5d		 pop	 ebp
  001a7	c3		 ret	 0
??$lower_bound@PAUTPatchDrawStruct@CMapOutdoor@@U12@UFSortPatchDrawStructWithTerrainNum@2@@std@@YAPAUTPatchDrawStruct@CMapOutdoor@@PAU12@QAU12@ABU12@UFSortPatchDrawStructWithTerrainNum@2@@Z ENDP ; std::lower_bound<CMapOutdoor::TPatchDrawStruct *,CMapOutdoor::TPatchDrawStruct,CMapOutdoor::FSortPatchDrawStructWithTerrainNum>
_TEXT	ENDS
; Function compile flags: /Ogtp
; File C:\Program Files (x86)\Microsoft Visual Studio\2019\Community\VC\Tools\MSVC\14.28.29333\include\algorithm
; File C:\Program Files (x86)\Microsoft Visual Studio\2019\Community\VC\Tools\MSVC\14.28.29333\include\utility
; File C:\Program Files (x86)\Microsoft Visual Studio\2019\Community\VC\Tools\MSVC\14.28.29333\include\algorithm
; File C:\Program Files (x86)\Microsoft Visual Studio\2019\Community\VC\Tools\MSVC\14.28.29333\include\utility
; File C:\Program Files (x86)\Microsoft Visual Studio\2019\Community\VC\Tools\MSVC\14.28.29333\include\algorithm
; File C:\Program Files (x86)\Microsoft Visual Studio\2019\Community\VC\Tools\MSVC\14.28.29333\include\utility
; File C:\Program Files (x86)\Microsoft Visual Studio\2019\Community\VC\Tools\MSVC\14.28.29333\include\algorithm
;	COMDAT ??$_Med3_unchecked@PAU?$pair@MJ@std@@U?$less@X@2@@std@@YAXPAU?$pair@MJ@0@00U?$less@X@0@@Z
_TEXT	SEGMENT
__First$ = 8						; size = 4
__Mid$ = 12						; size = 4
__Last$ = 16						; size = 4
__Pred$ = 20						; size = 1
??$_Med3_unchecked@PAU?$pair@MJ@std@@U?$less@X@2@@std@@YAXPAU?$pair@MJ@0@00U?$less@X@0@@Z PROC ; std::_Med3_unchecked<std::pair<float,long> *,std::less<void> >, COMDAT

; 7434 : _CONSTEXPR20 void _Med3_unchecked(_RanIt _First, _RanIt _Mid, _RanIt _Last, _Pr _Pred) {

  00000	55		 push	 ebp
  00001	8b ec		 mov	 ebp, esp
; File C:\Program Files (x86)\Microsoft Visual Studio\2019\Community\VC\Tools\MSVC\14.28.29333\include\utility

; 352  :     return _Left.first < _Right.first || (!(_Right.first < _Left.first) && _Left.second < _Right.second);

  00003	8b 55 0c	 mov	 edx, DWORD PTR __Mid$[ebp]
; File C:\Program Files (x86)\Microsoft Visual Studio\2019\Community\VC\Tools\MSVC\14.28.29333\include\algorithm

; 7434 : _CONSTEXPR20 void _Med3_unchecked(_RanIt _First, _RanIt _Mid, _RanIt _Last, _Pr _Pred) {

  00006	56		 push	 esi
; File C:\Program Files (x86)\Microsoft Visual Studio\2019\Community\VC\Tools\MSVC\14.28.29333\include\utility

; 352  :     return _Left.first < _Right.first || (!(_Right.first < _Left.first) && _Left.second < _Right.second);

  00007	8b 75 08	 mov	 esi, DWORD PTR __First$[ebp]
; File C:\Program Files (x86)\Microsoft Visual Studio\2019\Community\VC\Tools\MSVC\14.28.29333\include\algorithm

; 7434 : _CONSTEXPR20 void _Med3_unchecked(_RanIt _First, _RanIt _Mid, _RanIt _Last, _Pr _Pred) {

  0000a	57		 push	 edi
; File C:\Program Files (x86)\Microsoft Visual Studio\2019\Community\VC\Tools\MSVC\14.28.29333\include\utility

; 352  :     return _Left.first < _Right.first || (!(_Right.first < _Left.first) && _Left.second < _Right.second);

  0000b	f3 0f 10 02	 movss	 xmm0, DWORD PTR [edx]
  0000f	f3 0f 10 0e	 movss	 xmm1, DWORD PTR [esi]
  00013	0f 2f c8	 comiss	 xmm1, xmm0
  00016	77 0d		 ja	 SHORT $LN81@Med3_unche
  00018	0f 2f c1	 comiss	 xmm0, xmm1
  0001b	77 24		 ja	 SHORT $LN27@Med3_unche
  0001d	8b 42 04	 mov	 eax, DWORD PTR [edx+4]
  00020	3b 46 04	 cmp	 eax, DWORD PTR [esi+4]
  00023	7d 1c		 jge	 SHORT $LN27@Med3_unche
$LN81@Med3_unche:

; 320  :         if (this != _STD addressof(_Right)) {

  00025	3b d6		 cmp	 edx, esi
  00027	74 18		 je	 SHORT $LN27@Med3_unche

; 105  :     _Left    = _STD move(_Right);

  00029	f3 0f 11 0a	 movss	 DWORD PTR [edx], xmm1
  0002d	8b 46 04	 mov	 eax, DWORD PTR [esi+4]

; 106  :     _Right   = _STD move(_Tmp);

  00030	f3 0f 11 06	 movss	 DWORD PTR [esi], xmm0

; 104  :     _Ty _Tmp = _STD move(_Left);

  00034	8b 4a 04	 mov	 ecx, DWORD PTR [edx+4]

; 105  :     _Left    = _STD move(_Right);

  00037	89 42 04	 mov	 DWORD PTR [edx+4], eax

; 106  :     _Right   = _STD move(_Tmp);

  0003a	89 4e 04	 mov	 DWORD PTR [esi+4], ecx
  0003d	f3 0f 10 02	 movss	 xmm0, DWORD PTR [edx]
$LN27@Med3_unche:

; 352  :     return _Left.first < _Right.first || (!(_Right.first < _Left.first) && _Left.second < _Right.second);

  00041	8b 7d 10	 mov	 edi, DWORD PTR __Last$[ebp]
  00044	f3 0f 10 0f	 movss	 xmm1, DWORD PTR [edi]
  00048	0f 2f c1	 comiss	 xmm0, xmm1
  0004b	77 0d		 ja	 SHORT $LN83@Med3_unche
  0004d	0f 2f c8	 comiss	 xmm1, xmm0
  00050	77 52		 ja	 SHORT $LN71@Med3_unche
  00052	8b 47 04	 mov	 eax, DWORD PTR [edi+4]
  00055	3b 42 04	 cmp	 eax, DWORD PTR [edx+4]
  00058	7d 4a		 jge	 SHORT $LN71@Med3_unche
$LN83@Med3_unche:

; 320  :         if (this != _STD addressof(_Right)) {

  0005a	3b fa		 cmp	 edi, edx
  0005c	74 18		 je	 SHORT $LN84@Med3_unche

; 105  :     _Left    = _STD move(_Right);

  0005e	f3 0f 11 07	 movss	 DWORD PTR [edi], xmm0
  00062	8b 42 04	 mov	 eax, DWORD PTR [edx+4]

; 106  :     _Right   = _STD move(_Tmp);

  00065	f3 0f 11 0a	 movss	 DWORD PTR [edx], xmm1

; 104  :     _Ty _Tmp = _STD move(_Left);

  00069	8b 4f 04	 mov	 ecx, DWORD PTR [edi+4]

; 105  :     _Left    = _STD move(_Right);

  0006c	89 47 04	 mov	 DWORD PTR [edi+4], eax

; 106  :     _Right   = _STD move(_Tmp);

  0006f	89 4a 04	 mov	 DWORD PTR [edx+4], ecx
  00072	f3 0f 10 02	 movss	 xmm0, DWORD PTR [edx]
$LN84@Med3_unche:

; 352  :     return _Left.first < _Right.first || (!(_Right.first < _Left.first) && _Left.second < _Right.second);

  00076	f3 0f 10 0e	 movss	 xmm1, DWORD PTR [esi]
  0007a	0f 2f c8	 comiss	 xmm1, xmm0
  0007d	77 0d		 ja	 SHORT $LN85@Med3_unche
  0007f	0f 2f c1	 comiss	 xmm0, xmm1
  00082	77 20		 ja	 SHORT $LN71@Med3_unche
  00084	8b 42 04	 mov	 eax, DWORD PTR [edx+4]
  00087	3b 46 04	 cmp	 eax, DWORD PTR [esi+4]
  0008a	7d 18		 jge	 SHORT $LN71@Med3_unche
$LN85@Med3_unche:

; 320  :         if (this != _STD addressof(_Right)) {

  0008c	3b d6		 cmp	 edx, esi
  0008e	74 14		 je	 SHORT $LN71@Med3_unche

; 105  :     _Left    = _STD move(_Right);

  00090	f3 0f 11 0a	 movss	 DWORD PTR [edx], xmm1
  00094	8b 46 04	 mov	 eax, DWORD PTR [esi+4]

; 106  :     _Right   = _STD move(_Tmp);

  00097	f3 0f 11 06	 movss	 DWORD PTR [esi], xmm0

; 104  :     _Ty _Tmp = _STD move(_Left);

  0009b	8b 4a 04	 mov	 ecx, DWORD PTR [edx+4]

; 105  :     _Left    = _STD move(_Right);

  0009e	89 42 04	 mov	 DWORD PTR [edx+4], eax

; 106  :     _Right   = _STD move(_Tmp);

  000a1	89 4e 04	 mov	 DWORD PTR [esi+4], ecx
$LN71@Med3_unche:
  000a4	5f		 pop	 edi
; File C:\Program Files (x86)\Microsoft Visual Studio\2019\Community\VC\Tools\MSVC\14.28.29333\include\algorithm

; 7447 : }

  000a5	5e		 pop	 esi
  000a6	5d		 pop	 ebp
  000a7	c3		 ret	 0
??$_Med3_unchecked@PAU?$pair@MJ@std@@U?$less@X@2@@std@@YAXPAU?$pair@MJ@0@00U?$less@X@0@@Z ENDP ; std::_Med3_unchecked<std::pair<float,long> *,std::less<void> >
_TEXT	ENDS
; Function compile flags: /Ogtp
; File C:\Program Files (x86)\Microsoft Visual Studio\2019\Community\VC\Tools\MSVC\14.28.29333\include\algorithm
; File C:\Program Files (x86)\Microsoft Visual Studio\2019\Community\VC\Tools\MSVC\14.28.29333\include\xutility
; File C:\Program Files (x86)\Microsoft Visual Studio\2019\Community\VC\Tools\MSVC\14.28.29333\include\algorithm
; File C:\Program Files (x86)\Microsoft Visual Studio\2019\Community\VC\Tools\MSVC\14.28.29333\include\xutility
; File C:\Program Files (x86)\Microsoft Visual Studio\2019\Community\VC\Tools\MSVC\14.28.29333\include\algorithm
; File C:\Program Files (x86)\Microsoft Visual Studio\2019\Community\VC\Tools\MSVC\14.28.29333\include\xutility
; File C:\Program Files (x86)\Microsoft Visual Studio\2019\Community\VC\Tools\MSVC\14.28.29333\include\algorithm
; File C:\Program Files (x86)\Microsoft Visual Studio\2019\Community\VC\Tools\MSVC\14.28.29333\include\xutility
; File C:\Program Files (x86)\Microsoft Visual Studio\2019\Community\VC\Tools\MSVC\14.28.29333\include\algorithm
; File C:\Program Files (x86)\Microsoft Visual Studio\2019\Community\VC\Tools\MSVC\14.28.29333\include\xutility
; File C:\Program Files (x86)\Microsoft Visual Studio\2019\Community\VC\Tools\MSVC\14.28.29333\include\algorithm
;	COMDAT ??$_Buffered_inplace_merge_divide_and_conquer@PAUTPatchDrawStruct@CMapOutdoor@@UFSortPatchDrawStructWithTerrainNum@2@@std@@YAXPAUTPatchDrawStruct@CMapOutdoor@@00HHQAU12@HUFSortPatchDrawStructWithTerrainNum@2@@Z
_TEXT	SEGMENT
__First$ = 8						; size = 4
__Mid$ = 12						; size = 4
__Last$ = 16						; size = 4
__Count1$ = 20						; size = 4
__Count2$ = 24						; size = 4
__Temp_ptr$ = 28					; size = 4
__Capacity$ = 32					; size = 4
__Pred$ = 36						; size = 1
??$_Buffered_inplace_merge_divide_and_conquer@PAUTPatchDrawStruct@CMapOutdoor@@UFSortPatchDrawStructWithTerrainNum@2@@std@@YAXPAUTPatchDrawStruct@CMapOutdoor@@00HHQAU12@HUFSortPatchDrawStructWithTerrainNum@2@@Z PROC ; std::_Buffered_inplace_merge_divide_and_conquer<CMapOutdoor::TPatchDrawStruct *,CMapOutdoor::FSortPatchDrawStructWithTerrainNum>, COMDAT

; 7258 :     _Iter_diff_t<_BidIt> _Count2, _Iter_value_t<_BidIt>* const _Temp_ptr, const ptrdiff_t _Capacity, _Pr _Pred) {

  00000	55		 push	 ebp
  00001	8b ec		 mov	 ebp, esp

; 7259 :     // merge sorted [_First, _Mid) with sorted [_Mid, _Last)
; 7260 :     // usual invariants apply
; 7261 :     using _Diff = _Iter_diff_t<_BidIt>;
; 7262 :     if (_Count1 <= _Count2) {

  00003	8b 45 14	 mov	 eax, DWORD PTR __Count1$[ebp]
  00006	8b 4d 18	 mov	 ecx, DWORD PTR __Count2$[ebp]
  00009	53		 push	 ebx
  0000a	56		 push	 esi
  0000b	57		 push	 edi
  0000c	ff 75 24	 push	 DWORD PTR __Pred$[ebp]
  0000f	3b c1		 cmp	 eax, ecx
  00011	7f 49		 jg	 SHORT $LN2@Buffered_i

; 7265 :         const _BidIt _Lastn  = _STD lower_bound(_Mid, _Last, *_Firstn, _Pred);

  00013	8b 7d 0c	 mov	 edi, DWORD PTR __Mid$[ebp]
  00016	8b d8		 mov	 ebx, eax
  00018	d1 fb		 sar	 ebx, 1
; File C:\Program Files (x86)\Microsoft Visual Studio\2019\Community\VC\Tools\MSVC\14.28.29333\include\xutility

; 1714 :         _Where += _Off;

  0001a	8b f3		 mov	 esi, ebx
  0001c	c1 e6 04	 shl	 esi, 4
  0001f	03 75 08	 add	 esi, DWORD PTR __First$[ebp]
; File C:\Program Files (x86)\Microsoft Visual Studio\2019\Community\VC\Tools\MSVC\14.28.29333\include\algorithm

; 7265 :         const _BidIt _Lastn  = _STD lower_bound(_Mid, _Last, *_Firstn, _Pred);

  00022	56		 push	 esi
  00023	ff 75 10	 push	 DWORD PTR __Last$[ebp]
  00026	57		 push	 edi
  00027	e8 00 00 00 00	 call	 ??$lower_bound@PAUTPatchDrawStruct@CMapOutdoor@@U12@UFSortPatchDrawStructWithTerrainNum@2@@std@@YAPAUTPatchDrawStruct@CMapOutdoor@@PAU12@QAU12@ABU12@UFSortPatchDrawStructWithTerrainNum@2@@Z ; std::lower_bound<CMapOutdoor::TPatchDrawStruct *,CMapOutdoor::TPatchDrawStruct,CMapOutdoor::FSortPatchDrawStructWithTerrainNum>
; File C:\Program Files (x86)\Microsoft Visual Studio\2019\Community\VC\Tools\MSVC\14.28.29333\include\xutility

; 1794 :         return _Last - _First; // assume the iterator will do debug checking

  0002c	8b c8		 mov	 ecx, eax
  0002e	2b cf		 sub	 ecx, edi
  00030	c1 f9 04	 sar	 ecx, 4
; File C:\Program Files (x86)\Microsoft Visual Studio\2019\Community\VC\Tools\MSVC\14.28.29333\include\algorithm

; 7266 :         _Buffered_inplace_merge_divide_and_conquer2(_First, _Mid, _Last, _Count1, _Count2, _Temp_ptr, _Capacity, _Pred,

  00033	51		 push	 ecx
  00034	53		 push	 ebx
  00035	50		 push	 eax
  00036	8b 45 18	 mov	 eax, DWORD PTR __Count2$[ebp]
  00039	56		 push	 esi
  0003a	ff 75 24	 push	 DWORD PTR __Pred$[ebp]
  0003d	ff 75 20	 push	 DWORD PTR __Capacity$[ebp]
  00040	ff 75 1c	 push	 DWORD PTR __Temp_ptr$[ebp]
  00043	50		 push	 eax
  00044	8b 45 14	 mov	 eax, DWORD PTR __Count1$[ebp]
  00047	50		 push	 eax
  00048	ff 75 10	 push	 DWORD PTR __Last$[ebp]
  0004b	57		 push	 edi
  0004c	ff 75 08	 push	 DWORD PTR __First$[ebp]

; 7273 :             _Firstn, _Lastn, _STD distance(_First, _Firstn), _Count2n);
; 7274 :     }
; 7275 : }

  0004f	e8 00 00 00 00	 call	 ??$_Buffered_inplace_merge_divide_and_conquer2@PAUTPatchDrawStruct@CMapOutdoor@@UFSortPatchDrawStructWithTerrainNum@2@@std@@YAXPAUTPatchDrawStruct@CMapOutdoor@@00HHQAU12@HUFSortPatchDrawStructWithTerrainNum@2@00HH@Z ; std::_Buffered_inplace_merge_divide_and_conquer2<CMapOutdoor::TPatchDrawStruct *,CMapOutdoor::FSortPatchDrawStructWithTerrainNum>
  00054	83 c4 40	 add	 esp, 64			; 00000040H
  00057	5f		 pop	 edi
  00058	5e		 pop	 esi
  00059	5b		 pop	 ebx
  0005a	5d		 pop	 ebp
  0005b	c3		 ret	 0
$LN2@Buffered_i:
; File C:\Program Files (x86)\Microsoft Visual Studio\2019\Community\VC\Tools\MSVC\14.28.29333\include\xutility

; 1714 :         _Where += _Off;

  0005c	8b 45 0c	 mov	 eax, DWORD PTR __Mid$[ebp]
; File C:\Program Files (x86)\Microsoft Visual Studio\2019\Community\VC\Tools\MSVC\14.28.29333\include\algorithm

; 7269 :         const _Diff _Count2n = _Count2 >> 1; // shift for codegen

  0005f	8b f1		 mov	 esi, ecx

; 7271 :         const _BidIt _Firstn = _STD upper_bound(_First, _Mid, *_Lastn, _Pred);

  00061	8b 5d 08	 mov	 ebx, DWORD PTR __First$[ebp]
  00064	d1 fe		 sar	 esi, 1
; File C:\Program Files (x86)\Microsoft Visual Studio\2019\Community\VC\Tools\MSVC\14.28.29333\include\xutility

; 1714 :         _Where += _Off;

  00066	8b fe		 mov	 edi, esi
  00068	c1 e7 04	 shl	 edi, 4
  0006b	03 f8		 add	 edi, eax
; File C:\Program Files (x86)\Microsoft Visual Studio\2019\Community\VC\Tools\MSVC\14.28.29333\include\algorithm

; 7271 :         const _BidIt _Firstn = _STD upper_bound(_First, _Mid, *_Lastn, _Pred);

  0006d	57		 push	 edi
  0006e	50		 push	 eax
  0006f	53		 push	 ebx
  00070	e8 00 00 00 00	 call	 ??$upper_bound@PAUTPatchDrawStruct@CMapOutdoor@@U12@UFSortPatchDrawStructWithTerrainNum@2@@std@@YAPAUTPatchDrawStruct@CMapOutdoor@@PAU12@0ABU12@UFSortPatchDrawStructWithTerrainNum@2@@Z ; std::upper_bound<CMapOutdoor::TPatchDrawStruct *,CMapOutdoor::TPatchDrawStruct,CMapOutdoor::FSortPatchDrawStructWithTerrainNum>

; 7272 :         _Buffered_inplace_merge_divide_and_conquer2(_First, _Mid, _Last, _Count1, _Count2, _Temp_ptr, _Capacity, _Pred,

  00075	56		 push	 esi
; File C:\Program Files (x86)\Microsoft Visual Studio\2019\Community\VC\Tools\MSVC\14.28.29333\include\xutility

; 1794 :         return _Last - _First; // assume the iterator will do debug checking

  00076	8b c8		 mov	 ecx, eax
  00078	2b cb		 sub	 ecx, ebx
  0007a	c1 f9 04	 sar	 ecx, 4
; File C:\Program Files (x86)\Microsoft Visual Studio\2019\Community\VC\Tools\MSVC\14.28.29333\include\algorithm

; 7272 :         _Buffered_inplace_merge_divide_and_conquer2(_First, _Mid, _Last, _Count1, _Count2, _Temp_ptr, _Capacity, _Pred,

  0007d	51		 push	 ecx
  0007e	57		 push	 edi
  0007f	50		 push	 eax
  00080	ff 75 24	 push	 DWORD PTR __Pred$[ebp]
  00083	8b 45 18	 mov	 eax, DWORD PTR __Count2$[ebp]
  00086	ff 75 20	 push	 DWORD PTR __Capacity$[ebp]
  00089	ff 75 1c	 push	 DWORD PTR __Temp_ptr$[ebp]
  0008c	50		 push	 eax
  0008d	8b 45 14	 mov	 eax, DWORD PTR __Count1$[ebp]
  00090	50		 push	 eax
  00091	ff 75 10	 push	 DWORD PTR __Last$[ebp]
  00094	ff 75 0c	 push	 DWORD PTR __Mid$[ebp]
  00097	53		 push	 ebx

; 7273 :             _Firstn, _Lastn, _STD distance(_First, _Firstn), _Count2n);
; 7274 :     }
; 7275 : }

  00098	e8 00 00 00 00	 call	 ??$_Buffered_inplace_merge_divide_and_conquer2@PAUTPatchDrawStruct@CMapOutdoor@@UFSortPatchDrawStructWithTerrainNum@2@@std@@YAXPAUTPatchDrawStruct@CMapOutdoor@@00HHQAU12@HUFSortPatchDrawStructWithTerrainNum@2@00HH@Z ; std::_Buffered_inplace_merge_divide_and_conquer2<CMapOutdoor::TPatchDrawStruct *,CMapOutdoor::FSortPatchDrawStructWithTerrainNum>
  0009d	83 c4 40	 add	 esp, 64			; 00000040H
  000a0	5f		 pop	 edi
  000a1	5e		 pop	 esi
  000a2	5b		 pop	 ebx
  000a3	5d		 pop	 ebp
  000a4	c3		 ret	 0
??$_Buffered_inplace_merge_divide_and_conquer@PAUTPatchDrawStruct@CMapOutdoor@@UFSortPatchDrawStructWithTerrainNum@2@@std@@YAXPAUTPatchDrawStruct@CMapOutdoor@@00HHQAU12@HUFSortPatchDrawStructWithTerrainNum@2@@Z ENDP ; std::_Buffered_inplace_merge_divide_and_conquer<CMapOutdoor::TPatchDrawStruct *,CMapOutdoor::FSortPatchDrawStructWithTerrainNum>
_TEXT	ENDS
; Function compile flags: /Ogtp
; File C:\Program Files (x86)\Microsoft Visual Studio\2019\Community\VC\Tools\MSVC\14.28.29333\include\algorithm
; File C:\Program Files (x86)\Microsoft Visual Studio\2019\Community\VC\Tools\MSVC\14.28.29333\include\xutility
; File C:\Program Files (x86)\Windows Kits\10\Include\10.0.18362.0\ucrt\corecrt_memory.h
; File C:\Program Files (x86)\Microsoft Visual Studio\2019\Community\VC\Tools\MSVC\14.28.29333\include\xutility
; File D:\Metin2 Server Files\mainline\SRC_2014\Metin2Client\GameLib\MapOutdoor.h
; File C:\Program Files (x86)\Windows Kits\10\Include\10.0.18362.0\ucrt\corecrt_memory.h
; File C:\Program Files (x86)\Microsoft Visual Studio\2019\Community\VC\Tools\MSVC\14.28.29333\include\xutility
; File C:\Program Files (x86)\Windows Kits\10\Include\10.0.18362.0\ucrt\corecrt_memory.h
; File C:\Program Files (x86)\Microsoft Visual Studio\2019\Community\VC\Tools\MSVC\14.28.29333\include\xutility
; File C:\Program Files (x86)\Microsoft Visual Studio\2019\Community\VC\Tools\MSVC\14.28.29333\include\vector
; File C:\Program Files (x86)\Microsoft Visual Studio\2019\Community\VC\Tools\MSVC\14.28.29333\include\xutility
; File C:\Program Files (x86)\Microsoft Visual Studio\2019\Community\VC\Tools\MSVC\14.28.29333\include\vector
; File C:\Program Files (x86)\Microsoft Visual Studio\2019\Community\VC\Tools\MSVC\14.28.29333\include\xutility
; File C:\Program Files (x86)\Windows Kits\10\Include\10.0.18362.0\ucrt\corecrt_memory.h
; File C:\Program Files (x86)\Microsoft Visual Studio\2019\Community\VC\Tools\MSVC\14.28.29333\include\xutility
; File C:\Program Files (x86)\Windows Kits\10\Include\10.0.18362.0\ucrt\corecrt_memory.h
; File C:\Program Files (x86)\Microsoft Visual Studio\2019\Community\VC\Tools\MSVC\14.28.29333\include\xutility
; File C:\Program Files (x86)\Microsoft Visual Studio\2019\Community\VC\Tools\MSVC\14.28.29333\include\vector
; File D:\Metin2 Server Files\mainline\SRC_2014\Metin2Client\GameLib\MapOutdoor.h
; File C:\Program Files (x86)\Microsoft Visual Studio\2019\Community\VC\Tools\MSVC\14.28.29333\include\xutility
; File C:\Program Files (x86)\Microsoft Visual Studio\2019\Community\VC\Tools\MSVC\14.28.29333\include\vector
; File C:\Program Files (x86)\Microsoft Visual Studio\2019\Community\VC\Tools\MSVC\14.28.29333\include\xutility
; File D:\Metin2 Server Files\mainline\SRC_2014\Metin2Client\GameLib\MapOutdoor.h
; File C:\Program Files (x86)\Microsoft Visual Studio\2019\Community\VC\Tools\MSVC\14.28.29333\include\vector
; File D:\Metin2 Server Files\mainline\SRC_2014\Metin2Client\GameLib\MapOutdoor.h
; File C:\Program Files (x86)\Microsoft Visual Studio\2019\Community\VC\Tools\MSVC\14.28.29333\include\vector
; File D:\Metin2 Server Files\mainline\SRC_2014\Metin2Client\GameLib\MapOutdoor.h
; File C:\Program Files (x86)\Microsoft Visual Studio\2019\Community\VC\Tools\MSVC\14.28.29333\include\vector
; File D:\Metin2 Server Files\mainline\SRC_2014\Metin2Client\GameLib\MapOutdoor.h
; File C:\Program Files (x86)\Microsoft Visual Studio\2019\Community\VC\Tools\MSVC\14.28.29333\include\xutility
; File C:\Program Files (x86)\Windows Kits\10\Include\10.0.18362.0\ucrt\corecrt_memory.h
; File C:\Program Files (x86)\Microsoft Visual Studio\2019\Community\VC\Tools\MSVC\14.28.29333\include\xutility
; File C:\Program Files (x86)\Windows Kits\10\Include\10.0.18362.0\ucrt\corecrt_memory.h
; File C:\Program Files (x86)\Microsoft Visual Studio\2019\Community\VC\Tools\MSVC\14.28.29333\include\xutility
; File C:\Program Files (x86)\Microsoft Visual Studio\2019\Community\VC\Tools\MSVC\14.28.29333\include\vector
; File D:\Metin2 Server Files\mainline\SRC_2014\Metin2Client\GameLib\MapOutdoor.h
; File C:\Program Files (x86)\Microsoft Visual Studio\2019\Community\VC\Tools\MSVC\14.28.29333\include\vector
; File D:\Metin2 Server Files\mainline\SRC_2014\Metin2Client\GameLib\MapOutdoor.h
; File C:\Program Files (x86)\Microsoft Visual Studio\2019\Community\VC\Tools\MSVC\14.28.29333\include\vector
; File D:\Metin2 Server Files\mainline\SRC_2014\Metin2Client\GameLib\MapOutdoor.h
; File C:\Program Files (x86)\Microsoft Visual Studio\2019\Community\VC\Tools\MSVC\14.28.29333\include\vector
; File D:\Metin2 Server Files\mainline\SRC_2014\Metin2Client\GameLib\MapOutdoor.h
; File C:\Program Files (x86)\Microsoft Visual Studio\2019\Community\VC\Tools\MSVC\14.28.29333\include\algorithm
; File C:\Program Files (x86)\Microsoft Visual Studio\2019\Community\VC\Tools\MSVC\14.28.29333\include\xutility
; File C:\Program Files (x86)\Microsoft Visual Studio\2019\Community\VC\Tools\MSVC\14.28.29333\include\algorithm
; File C:\Program Files (x86)\Microsoft Visual Studio\2019\Community\VC\Tools\MSVC\14.28.29333\include\xutility
; File C:\Program Files (x86)\Microsoft Visual Studio\2019\Community\VC\Tools\MSVC\14.28.29333\include\algorithm
; File C:\Program Files (x86)\Microsoft Visual Studio\2019\Community\VC\Tools\MSVC\14.28.29333\include\xutility
; File C:\Program Files (x86)\Microsoft Visual Studio\2019\Community\VC\Tools\MSVC\14.28.29333\include\algorithm
; File C:\Program Files (x86)\Microsoft Visual Studio\2019\Community\VC\Tools\MSVC\14.28.29333\include\xutility
; File C:\Program Files (x86)\Microsoft Visual Studio\2019\Community\VC\Tools\MSVC\14.28.29333\include\algorithm
; File C:\Program Files (x86)\Microsoft Visual Studio\2019\Community\VC\Tools\MSVC\14.28.29333\include\xutility
; File C:\Program Files (x86)\Microsoft Visual Studio\2019\Community\VC\Tools\MSVC\14.28.29333\include\algorithm
;	COMDAT ??$_Inplace_merge_buffer_right@PAUTPatchDrawStruct@CMapOutdoor@@UFSortPatchDrawStructWithTerrainNum@2@@std@@YAXPAUTPatchDrawStruct@CMapOutdoor@@00QAU12@UFSortPatchDrawStructWithTerrainNum@2@@Z
_TEXT	SEGMENT
tv1090 = -20						; size = 4
tv1086 = -16						; size = 4
__Right_last$1$ = -12					; size = 4
tv1101 = -8						; size = 4
_rhsTerrainNumOrder$1$ = -8				; size = 4
tv1089 = -1						; size = 1
tv1085 = -1						; size = 1
__First$ = 8						; size = 4
__Mid$ = 12						; size = 4
__Last$ = 16						; size = 4
__Temp_ptr$ = 20					; size = 4
__Pred$ = 24						; size = 1
??$_Inplace_merge_buffer_right@PAUTPatchDrawStruct@CMapOutdoor@@UFSortPatchDrawStructWithTerrainNum@2@@std@@YAXPAUTPatchDrawStruct@CMapOutdoor@@00QAU12@UFSortPatchDrawStructWithTerrainNum@2@@Z PROC ; std::_Inplace_merge_buffer_right<CMapOutdoor::TPatchDrawStruct *,CMapOutdoor::FSortPatchDrawStructWithTerrainNum>, COMDAT

; 7206 :     _BidIt _First, _BidIt _Mid, _BidIt _Last, _Iter_value_t<_BidIt>* const _Temp_ptr, _Pr _Pred) {

  00000	55		 push	 ebp
  00001	8b ec		 mov	 ebp, esp
  00003	83 ec 14	 sub	 esp, 20			; 00000014H
  00006	53		 push	 ebx

; 7207 :     // move the range [_Mid, _Last) to _Temp_ptr, and merge it with [_First, _Mid) to _Last
; 7208 :     // usual invariants apply
; 7209 :     using _Ptr_ty = _Iter_value_t<_BidIt>*;
; 7210 :     _Uninitialized_backout<_Ptr_ty> _Backout{_Temp_ptr, _Uninitialized_move_unchecked(_Mid, _Last, _Temp_ptr)};

  00007	8b 5d 0c	 mov	 ebx, DWORD PTR __Mid$[ebp]
  0000a	56		 push	 esi
  0000b	8b 75 10	 mov	 esi, DWORD PTR __Last$[ebp]
  0000e	57		 push	 edi
  0000f	ff 75 14	 push	 DWORD PTR __Temp_ptr$[ebp]
  00012	56		 push	 esi
  00013	53		 push	 ebx
  00014	e8 00 00 00 00	 call	 ??$_Uninitialized_move_unchecked@PAUTPatchDrawStruct@CMapOutdoor@@PAU12@@std@@YAPAUTPatchDrawStruct@CMapOutdoor@@PAU12@QAU12@0@Z ; std::_Uninitialized_move_unchecked<CMapOutdoor::TPatchDrawStruct *,CMapOutdoor::TPatchDrawStruct *>

; 7211 :     *--_Last                   = _STD move(*--_Mid); // move the highest element into position

  00019	0f 10 43 f0	 movups	 xmm0, XMMWORD PTR [ebx-16]
  0001d	83 ee 10	 sub	 esi, 16			; 00000010H
  00020	83 c4 0c	 add	 esp, 12			; 0000000cH

; 7212 :     const _Ptr_ty _Right_first = _Temp_ptr;
; 7213 :     _Ptr_ty _Right_last        = _Backout._Last - 1;
; 7214 :     --_Mid;

  00023	83 eb 20	 sub	 ebx, 32			; 00000020H
  00026	89 75 10	 mov	 DWORD PTR __Last$[ebp], esi
  00029	8d 48 f0	 lea	 ecx, DWORD PTR [eax-16]
  0002c	89 5d 0c	 mov	 DWORD PTR __Mid$[ebp], ebx
  0002f	89 4d f4	 mov	 DWORD PTR __Right_last$1$[ebp], ecx
  00032	0f 11 06	 movups	 XMMWORD PTR [esi], xmm0
  00035	66 66 66 0f 1f
	84 00 00 00 00
	00		 npad	 11
$LL2@Inplace_me:
; File C:\Program Files (x86)\Microsoft Visual Studio\2019\Community\VC\Tools\MSVC\14.28.29333\include\xutility

; 5480 :     _Seek_wrapped(_First, _Find_unchecked(_Get_unwrapped(_First), _Get_unwrapped(_Last), _Val));

  00040	8b 1d 04 00 00
	00		 mov	 ebx, DWORD PTR ?m_TerrainNumVector@FSortPatchDrawStructWithTerrainNum@CMapOutdoor@@2V?$vector@EV?$allocator@E@std@@@std@@A+4

; 5461 :     _First =

  00046	8d 51 04	 lea	 edx, DWORD PTR [ecx+4]
  00049	8b 0d 00 00 00
	00		 mov	 ecx, DWORD PTR ?m_TerrainNumVector@FSortPatchDrawStructWithTerrainNum@CMapOutdoor@@2V?$vector@EV?$allocator@E@std@@@std@@A
  0004f	8b c3		 mov	 eax, ebx
  00051	2b c1		 sub	 eax, ecx

; 5480 :     _Seek_wrapped(_First, _Find_unchecked(_Get_unwrapped(_First), _Get_unwrapped(_Last), _Val));

  00053	89 5d f8	 mov	 DWORD PTR tv1101[ebp], ebx
; File C:\Program Files (x86)\Windows Kits\10\Include\10.0.18362.0\ucrt\corecrt_memory.h

; 107  :         return const_cast<void*>(memchr(_Pvc, _C, _N));

  00056	50		 push	 eax
; File C:\Program Files (x86)\Microsoft Visual Studio\2019\Community\VC\Tools\MSVC\14.28.29333\include\xutility

; 5461 :     _First =

  00057	0f b6 02	 movzx	 eax, BYTE PTR [edx]
; File D:\Metin2 Server Files\mainline\SRC_2014\Metin2Client\GameLib\MapOutdoor.h

; 360  : 				DWORD lhsTerrainNumOrder = 0, rhsTerrainNumOrder = 0;

  0005a	33 ff		 xor	 edi, edi
; File C:\Program Files (x86)\Windows Kits\10\Include\10.0.18362.0\ucrt\corecrt_memory.h

; 107  :         return const_cast<void*>(memchr(_Pvc, _C, _N));

  0005c	50		 push	 eax
  0005d	51		 push	 ecx
; File C:\Program Files (x86)\Microsoft Visual Studio\2019\Community\VC\Tools\MSVC\14.28.29333\include\xutility

; 5461 :     _First =

  0005e	89 55 ec	 mov	 DWORD PTR tv1090[ebp], edx
; File C:\Program Files (x86)\Windows Kits\10\Include\10.0.18362.0\ucrt\corecrt_memory.h

; 107  :         return const_cast<void*>(memchr(_Pvc, _C, _N));

  00061	e8 00 00 00 00	 call	 _memchr
; File C:\Program Files (x86)\Microsoft Visual Studio\2019\Community\VC\Tools\MSVC\14.28.29333\include\xutility

; 5463 :     return _First ? _First : _Last;

  00066	85 c0		 test	 eax, eax
  00068	8b cb		 mov	 ecx, ebx
  0006a	0f 45 c8	 cmovne	 ecx, eax
; File C:\Program Files (x86)\Microsoft Visual Studio\2019\Community\VC\Tools\MSVC\14.28.29333\include\vector

; 195  :         _Ptr = _Refancy<_Tptr>(const_cast<value_type*>(_It));

  0006d	51		 push	 ecx
  0006e	e8 00 00 00 00	 call	 ??$_Refancy@PAE$0A@@std@@YAPAEPAE@Z ; std::_Refancy<unsigned char *,0>
; File C:\Program Files (x86)\Microsoft Visual Studio\2019\Community\VC\Tools\MSVC\14.28.29333\include\xutility

; 5461 :     _First =

  00073	8b 0d 00 00 00
	00		 mov	 ecx, DWORD PTR ?m_TerrainNumVector@FSortPatchDrawStructWithTerrainNum@CMapOutdoor@@2V?$vector@EV?$allocator@E@std@@@std@@A
; File C:\Program Files (x86)\Microsoft Visual Studio\2019\Community\VC\Tools\MSVC\14.28.29333\include\vector

; 195  :         _Ptr = _Refancy<_Tptr>(const_cast<value_type*>(_It));

  00079	8b f0		 mov	 esi, eax
; File C:\Program Files (x86)\Microsoft Visual Studio\2019\Community\VC\Tools\MSVC\14.28.29333\include\xutility

; 5461 :     _First =

  0007b	8b 45 0c	 mov	 eax, DWORD PTR __Mid$[ebp]
  0007e	83 c0 04	 add	 eax, 4
  00081	89 45 f0	 mov	 DWORD PTR tv1086[ebp], eax
  00084	8a 10		 mov	 dl, BYTE PTR [eax]
  00086	8b c3		 mov	 eax, ebx
  00088	2b c1		 sub	 eax, ecx
  0008a	88 55 ff	 mov	 BYTE PTR tv1085[ebp], dl
; File C:\Program Files (x86)\Windows Kits\10\Include\10.0.18362.0\ucrt\corecrt_memory.h

; 107  :         return const_cast<void*>(memchr(_Pvc, _C, _N));

  0008d	50		 push	 eax
; File C:\Program Files (x86)\Microsoft Visual Studio\2019\Community\VC\Tools\MSVC\14.28.29333\include\xutility

; 5461 :     _First =

  0008e	0f b6 c2	 movzx	 eax, dl
; File C:\Program Files (x86)\Windows Kits\10\Include\10.0.18362.0\ucrt\corecrt_memory.h

; 107  :         return const_cast<void*>(memchr(_Pvc, _C, _N));

  00091	50		 push	 eax
  00092	51		 push	 ecx
  00093	e8 00 00 00 00	 call	 _memchr
; File C:\Program Files (x86)\Microsoft Visual Studio\2019\Community\VC\Tools\MSVC\14.28.29333\include\xutility

; 5463 :     return _First ? _First : _Last;

  00098	85 c0		 test	 eax, eax
  0009a	8b cb		 mov	 ecx, ebx
  0009c	0f 45 c8	 cmovne	 ecx, eax
; File C:\Program Files (x86)\Microsoft Visual Studio\2019\Community\VC\Tools\MSVC\14.28.29333\include\vector

; 195  :         _Ptr = _Refancy<_Tptr>(const_cast<value_type*>(_It));

  0009f	51		 push	 ecx
  000a0	e8 00 00 00 00	 call	 ??$_Refancy@PAE$0A@@std@@YAPAEPAE@Z ; std::_Refancy<unsigned char *,0>
; File D:\Metin2 Server Files\mainline\SRC_2014\Metin2Client\GameLib\MapOutdoor.h

; 367  : 				if (lhsIterator != m_TerrainNumVector.end())

  000a5	8b 0d 00 00 00
	00		 mov	 ecx, DWORD PTR ?m_TerrainNumVector@FSortPatchDrawStructWithTerrainNum@CMapOutdoor@@2V?$vector@EV?$allocator@E@std@@@std@@A
; File C:\Program Files (x86)\Microsoft Visual Studio\2019\Community\VC\Tools\MSVC\14.28.29333\include\xutility

; 5481 :     return _First;

  000ab	8b d3		 mov	 edx, ebx
; File C:\Program Files (x86)\Microsoft Visual Studio\2019\Community\VC\Tools\MSVC\14.28.29333\include\vector

; 195  :         _Ptr = _Refancy<_Tptr>(const_cast<value_type*>(_It));

  000ad	83 c4 20	 add	 esp, 32			; 00000020H
; File C:\Program Files (x86)\Microsoft Visual Studio\2019\Community\VC\Tools\MSVC\14.28.29333\include\xutility

; 5481 :     return _First;

  000b0	3b f2		 cmp	 esi, edx
; File D:\Metin2 Server Files\mainline\SRC_2014\Metin2Client\GameLib\MapOutdoor.h

; 367  : 				if (lhsIterator != m_TerrainNumVector.end())

  000b2	74 04		 je	 SHORT $LN15@Inplace_me

; 368  : 				{
; 369  : 					blhsOrderFound = true;

  000b4	8b fe		 mov	 edi, esi
  000b6	2b f9		 sub	 edi, ecx
$LN15@Inplace_me:
; File C:\Program Files (x86)\Microsoft Visual Studio\2019\Community\VC\Tools\MSVC\14.28.29333\include\vector

; 149  :         return _Ptr == _Right._Ptr;

  000b8	3b c2		 cmp	 eax, edx
; File D:\Metin2 Server Files\mainline\SRC_2014\Metin2Client\GameLib\MapOutdoor.h

; 372  : 				if (rhsIterator != m_TerrainNumVector.end())

  000ba	74 04		 je	 SHORT $LN183@Inplace_me
; File C:\Program Files (x86)\Microsoft Visual Studio\2019\Community\VC\Tools\MSVC\14.28.29333\include\vector

; 140  :         return _Ptr - _Right._Ptr;

  000bc	2b c1		 sub	 eax, ecx
; File D:\Metin2 Server Files\mainline\SRC_2014\Metin2Client\GameLib\MapOutdoor.h

; 377  : 				if (!brhsOrderFound)

  000be	eb 3e		 jmp	 SHORT $LN186@Inplace_me
$LN183@Inplace_me:
; File C:\Program Files (x86)\Microsoft Visual Studio\2019\Community\VC\Tools\MSVC\14.28.29333\include\vector

; 704  :         if (_Mylast != _My_data._Myend) {

  000c0	3b 15 08 00 00
	00		 cmp	 edx, DWORD PTR ?m_TerrainNumVector@FSortPatchDrawStructWithTerrainNum@CMapOutdoor@@2V?$vector@EV?$allocator@E@std@@@std@@A+8
  000c6	74 14		 je	 SHORT $LN111@Inplace_me

; 687  :         _Alty_traits::construct(_Getal(), _Unfancy(_Mylast), _STD forward<_Valty>(_Val)...);

  000c8	8a 45 ff	 mov	 al, BYTE PTR tv1085[ebp]
  000cb	88 02		 mov	 BYTE PTR [edx], al

; 688  :         _Orphan_range(_Mylast, _Mylast);
; 689  :         _Ty& _Result = *_Mylast;
; 690  :         ++_Mylast;

  000cd	8b 1d 04 00 00
	00		 mov	 ebx, DWORD PTR ?m_TerrainNumVector@FSortPatchDrawStructWithTerrainNum@CMapOutdoor@@2V?$vector@EV?$allocator@E@std@@@std@@A+4
  000d3	43		 inc	 ebx
  000d4	89 1d 04 00 00
	00		 mov	 DWORD PTR ?m_TerrainNumVector@FSortPatchDrawStructWithTerrainNum@CMapOutdoor@@2V?$vector@EV?$allocator@E@std@@@std@@A+4, ebx

; 705  :             return _Emplace_back_with_unused_capacity(_STD forward<_Valty>(_Val)...);

  000da	eb 17		 jmp	 SHORT $LN110@Inplace_me
$LN111@Inplace_me:

; 706  :         }
; 707  : 
; 708  :         _Ty& _Result = *_Emplace_reallocate(_Mylast, _STD forward<_Valty>(_Val)...);

  000dc	ff 75 f0	 push	 DWORD PTR tv1086[ebp]
  000df	b9 00 00 00 00	 mov	 ecx, OFFSET ?m_TerrainNumVector@FSortPatchDrawStructWithTerrainNum@CMapOutdoor@@2V?$vector@EV?$allocator@E@std@@@std@@A ; CMapOutdoor::FSortPatchDrawStructWithTerrainNum::m_TerrainNumVector
  000e4	52		 push	 edx
  000e5	e8 00 00 00 00	 call	 ??$_Emplace_reallocate@ABE@?$vector@EV?$allocator@E@std@@@std@@QAEPAEQAEABE@Z ; std::vector<unsigned char,std::allocator<unsigned char> >::_Emplace_reallocate<unsigned char const &>
  000ea	8b 1d 04 00 00
	00		 mov	 ebx, DWORD PTR ?m_TerrainNumVector@FSortPatchDrawStructWithTerrainNum@CMapOutdoor@@2V?$vector@EV?$allocator@E@std@@@std@@A+4
  000f0	8b 55 f8	 mov	 edx, DWORD PTR tv1101[ebp]
$LN110@Inplace_me:
; File D:\Metin2 Server Files\mainline\SRC_2014\Metin2Client\GameLib\MapOutdoor.h

; 380  : 					rhsTerrainNumOrder = m_TerrainNumVector.size() -1;

  000f3	8b 0d 00 00 00
	00		 mov	 ecx, DWORD PTR ?m_TerrainNumVector@FSortPatchDrawStructWithTerrainNum@CMapOutdoor@@2V?$vector@EV?$allocator@E@std@@@std@@A
  000f9	8b c3		 mov	 eax, ebx
  000fb	2b c1		 sub	 eax, ecx
  000fd	48		 dec	 eax
$LN186@Inplace_me:

; 381  : 				}
; 382  : 				if (!blhsOrderFound)

  000fe	89 45 f8	 mov	 DWORD PTR _rhsTerrainNumOrder$1$[ebp], eax
  00101	3b f2		 cmp	 esi, edx
  00103	75 64		 jne	 SHORT $LN20@Inplace_me
; File C:\Program Files (x86)\Microsoft Visual Studio\2019\Community\VC\Tools\MSVC\14.28.29333\include\xutility

; 5461 :     _First =

  00105	8b 75 ec	 mov	 esi, DWORD PTR tv1090[ebp]
  00108	8b c3		 mov	 eax, ebx
  0010a	2b c1		 sub	 eax, ecx
; File C:\Program Files (x86)\Windows Kits\10\Include\10.0.18362.0\ucrt\corecrt_memory.h

; 107  :         return const_cast<void*>(memchr(_Pvc, _C, _N));

  0010c	50		 push	 eax
; File C:\Program Files (x86)\Microsoft Visual Studio\2019\Community\VC\Tools\MSVC\14.28.29333\include\xutility

; 5461 :     _First =

  0010d	0f b6 06	 movzx	 eax, BYTE PTR [esi]
; File C:\Program Files (x86)\Windows Kits\10\Include\10.0.18362.0\ucrt\corecrt_memory.h

; 107  :         return const_cast<void*>(memchr(_Pvc, _C, _N));

  00110	50		 push	 eax
  00111	51		 push	 ecx
  00112	e8 00 00 00 00	 call	 _memchr
; File C:\Program Files (x86)\Microsoft Visual Studio\2019\Community\VC\Tools\MSVC\14.28.29333\include\xutility

; 5463 :     return _First ? _First : _Last;

  00117	85 c0		 test	 eax, eax
  00119	8b cb		 mov	 ecx, ebx
  0011b	0f 45 c8	 cmovne	 ecx, eax
; File C:\Program Files (x86)\Microsoft Visual Studio\2019\Community\VC\Tools\MSVC\14.28.29333\include\vector

; 195  :         _Ptr = _Refancy<_Tptr>(const_cast<value_type*>(_It));

  0011e	51		 push	 ecx
  0011f	e8 00 00 00 00	 call	 ??$_Refancy@PAE$0A@@std@@YAPAEPAE@Z ; std::_Refancy<unsigned char *,0>
; File D:\Metin2 Server Files\mainline\SRC_2014\Metin2Client\GameLib\MapOutdoor.h

; 384  : 					lhsIterator = std::find(m_TerrainNumVector.begin(), m_TerrainNumVector.end(), lhs.byTerrainNum);

  00124	8b f8		 mov	 edi, eax
; File C:\Program Files (x86)\Microsoft Visual Studio\2019\Community\VC\Tools\MSVC\14.28.29333\include\vector

; 195  :         _Ptr = _Refancy<_Tptr>(const_cast<value_type*>(_It));

  00126	83 c4 10	 add	 esp, 16			; 00000010H
; File D:\Metin2 Server Files\mainline\SRC_2014\Metin2Client\GameLib\MapOutdoor.h

; 384  : 					lhsIterator = std::find(m_TerrainNumVector.begin(), m_TerrainNumVector.end(), lhs.byTerrainNum);

  00129	3b fb		 cmp	 edi, ebx

; 385  : 					if (lhsIterator != m_TerrainNumVector.end())

  0012b	74 08		 je	 SHORT $LN184@Inplace_me
; File C:\Program Files (x86)\Microsoft Visual Studio\2019\Community\VC\Tools\MSVC\14.28.29333\include\vector

; 140  :         return _Ptr - _Right._Ptr;

  0012d	2b 3d 00 00 00
	00		 sub	 edi, DWORD PTR ?m_TerrainNumVector@FSortPatchDrawStructWithTerrainNum@CMapOutdoor@@2V?$vector@EV?$allocator@E@std@@@std@@A
; File D:\Metin2 Server Files\mainline\SRC_2014\Metin2Client\GameLib\MapOutdoor.h

; 390  : 					if (!blhsOrderFound)

  00133	eb 34		 jmp	 SHORT $LN20@Inplace_me
$LN184@Inplace_me:
; File C:\Program Files (x86)\Microsoft Visual Studio\2019\Community\VC\Tools\MSVC\14.28.29333\include\vector

; 704  :         if (_Mylast != _My_data._Myend) {

  00135	3b 1d 08 00 00
	00		 cmp	 ebx, DWORD PTR ?m_TerrainNumVector@FSortPatchDrawStructWithTerrainNum@CMapOutdoor@@2V?$vector@EV?$allocator@E@std@@@std@@A+8
  0013b	74 13		 je	 SHORT $LN163@Inplace_me

; 687  :         _Alty_traits::construct(_Getal(), _Unfancy(_Mylast), _STD forward<_Valty>(_Val)...);

  0013d	8a 06		 mov	 al, BYTE PTR [esi]
  0013f	88 03		 mov	 BYTE PTR [ebx], al

; 688  :         _Orphan_range(_Mylast, _Mylast);
; 689  :         _Ty& _Result = *_Mylast;
; 690  :         ++_Mylast;

  00141	8b 3d 04 00 00
	00		 mov	 edi, DWORD PTR ?m_TerrainNumVector@FSortPatchDrawStructWithTerrainNum@CMapOutdoor@@2V?$vector@EV?$allocator@E@std@@@std@@A+4
  00147	47		 inc	 edi
  00148	89 3d 04 00 00
	00		 mov	 DWORD PTR ?m_TerrainNumVector@FSortPatchDrawStructWithTerrainNum@CMapOutdoor@@2V?$vector@EV?$allocator@E@std@@@std@@A+4, edi

; 705  :             return _Emplace_back_with_unused_capacity(_STD forward<_Valty>(_Val)...);

  0014e	eb 12		 jmp	 SHORT $LN162@Inplace_me
$LN163@Inplace_me:

; 706  :         }
; 707  : 
; 708  :         _Ty& _Result = *_Emplace_reallocate(_Mylast, _STD forward<_Valty>(_Val)...);

  00150	56		 push	 esi
  00151	53		 push	 ebx
  00152	b9 00 00 00 00	 mov	 ecx, OFFSET ?m_TerrainNumVector@FSortPatchDrawStructWithTerrainNum@CMapOutdoor@@2V?$vector@EV?$allocator@E@std@@@std@@A ; CMapOutdoor::FSortPatchDrawStructWithTerrainNum::m_TerrainNumVector
  00157	e8 00 00 00 00	 call	 ??$_Emplace_reallocate@ABE@?$vector@EV?$allocator@E@std@@@std@@QAEPAEQAEABE@Z ; std::vector<unsigned char,std::allocator<unsigned char> >::_Emplace_reallocate<unsigned char const &>
  0015c	8b 3d 04 00 00
	00		 mov	 edi, DWORD PTR ?m_TerrainNumVector@FSortPatchDrawStructWithTerrainNum@CMapOutdoor@@2V?$vector@EV?$allocator@E@std@@@std@@A+4
$LN162@Inplace_me:
; File D:\Metin2 Server Files\mainline\SRC_2014\Metin2Client\GameLib\MapOutdoor.h

; 393  : 						lhsTerrainNumOrder = m_TerrainNumVector.size() -1;

  00162	2b 3d 00 00 00
	00		 sub	 edi, DWORD PTR ?m_TerrainNumVector@FSortPatchDrawStructWithTerrainNum@CMapOutdoor@@2V?$vector@EV?$allocator@E@std@@@std@@A
  00168	4f		 dec	 edi
$LN20@Inplace_me:

; 394  : 					}
; 395  : 				}
; 396  : 
; 397  : 				return lhsTerrainNumOrder < rhsTerrainNumOrder;

  00169	8b 45 10	 mov	 eax, DWORD PTR __Last$[ebp]
  0016c	83 c0 f0	 add	 eax, -16		; fffffff0H
  0016f	89 45 10	 mov	 DWORD PTR __Last$[ebp], eax
  00172	3b 7d f8	 cmp	 edi, DWORD PTR _rhsTerrainNumOrder$1$[ebp]
; File C:\Program Files (x86)\Microsoft Visual Studio\2019\Community\VC\Tools\MSVC\14.28.29333\include\algorithm

; 7216 :         if (_Pred(*_Right_last, *_Mid)) { // merge from the left partition

  00175	73 1c		 jae	 SHORT $LN5@Inplace_me

; 7217 :             *--_Last = _STD move(*_Mid);

  00177	8b 4d 0c	 mov	 ecx, DWORD PTR __Mid$[ebp]
  0017a	0f 10 01	 movups	 xmm0, XMMWORD PTR [ecx]
  0017d	0f 11 00	 movups	 XMMWORD PTR [eax], xmm0

; 7218 :             if (_First == _Mid) {

  00180	39 4d 08	 cmp	 DWORD PTR __First$[ebp], ecx
  00183	74 4f		 je	 SHORT $LN179@Inplace_me

; 7220 :                 _Move_backward_unchecked(_Right_first, _Right_last, _Last); // move any head (and lowest element)
; 7221 :                 return;
; 7222 :             }
; 7223 : 
; 7224 :             --_Mid;

  00185	83 e9 10	 sub	 ecx, 16			; 00000010H
  00188	89 4d 0c	 mov	 DWORD PTR __Mid$[ebp], ecx

; 7225 :         } else { // merge from the right partition

  0018b	8b 4d f4	 mov	 ecx, DWORD PTR __Right_last$1$[ebp]
  0018e	e9 ad fe ff ff	 jmp	 $LL2@Inplace_me
$LN5@Inplace_me:

; 7226 :             *--_Last = _STD move(*_Right_last);

  00193	8b 4d f4	 mov	 ecx, DWORD PTR __Right_last$1$[ebp]

; 7227 :             --_Right_last;
; 7228 :             if (_Right_first == _Right_last) { // we can't compare with *_Right_first, but we know it is lowest

  00196	8b 5d 14	 mov	 ebx, DWORD PTR __Temp_ptr$[ebp]
  00199	0f 10 01	 movups	 xmm0, XMMWORD PTR [ecx]
  0019c	83 e9 10	 sub	 ecx, 16			; 00000010H
  0019f	89 4d f4	 mov	 DWORD PTR __Right_last$1$[ebp], ecx
  001a2	0f 11 00	 movups	 XMMWORD PTR [eax], xmm0
  001a5	3b d9		 cmp	 ebx, ecx
  001a7	0f 85 93 fe ff
	ff		 jne	 $LL2@Inplace_me

; 7229 :                 *--_Last = _STD move(*_Mid); // restore half-open range [_First, _Mid)

  001ad	8b 4d 0c	 mov	 ecx, DWORD PTR __Mid$[ebp]
  001b0	83 e8 10	 sub	 eax, 16			; 00000010H
; File C:\Program Files (x86)\Microsoft Visual Studio\2019\Community\VC\Tools\MSVC\14.28.29333\include\xutility

; 4696 :             return _Copy_backward_memmove(_First, _Last, _Dest);

  001b3	8b 75 08	 mov	 esi, DWORD PTR __First$[ebp]
  001b6	50		 push	 eax
  001b7	51		 push	 ecx
; File C:\Program Files (x86)\Microsoft Visual Studio\2019\Community\VC\Tools\MSVC\14.28.29333\include\algorithm

; 7229 :                 *--_Last = _STD move(*_Mid); // restore half-open range [_First, _Mid)

  001b8	0f 10 01	 movups	 xmm0, XMMWORD PTR [ecx]
; File C:\Program Files (x86)\Microsoft Visual Studio\2019\Community\VC\Tools\MSVC\14.28.29333\include\xutility

; 4696 :             return _Copy_backward_memmove(_First, _Last, _Dest);

  001bb	56		 push	 esi
; File C:\Program Files (x86)\Microsoft Visual Studio\2019\Community\VC\Tools\MSVC\14.28.29333\include\algorithm

; 7229 :                 *--_Last = _STD move(*_Mid); // restore half-open range [_First, _Mid)

  001bc	0f 11 00	 movups	 XMMWORD PTR [eax], xmm0
; File C:\Program Files (x86)\Microsoft Visual Studio\2019\Community\VC\Tools\MSVC\14.28.29333\include\xutility

; 4696 :             return _Copy_backward_memmove(_First, _Last, _Dest);

  001bf	e8 00 00 00 00	 call	 ??$_Copy_backward_memmove@PAUTPatchDrawStruct@CMapOutdoor@@PAU12@@std@@YAPAUTPatchDrawStruct@CMapOutdoor@@PAU12@00@Z ; std::_Copy_backward_memmove<CMapOutdoor::TPatchDrawStruct *,CMapOutdoor::TPatchDrawStruct *>
; File C:\Program Files (x86)\Microsoft Visual Studio\2019\Community\VC\Tools\MSVC\14.28.29333\include\algorithm

; 7231 :                 *_First = _STD move(*_Right_first);

  001c4	0f 10 03	 movups	 xmm0, XMMWORD PTR [ebx]

; 7236 : }

  001c7	83 c4 0c	 add	 esp, 12			; 0000000cH
  001ca	0f 11 06	 movups	 XMMWORD PTR [esi], xmm0
  001cd	5f		 pop	 edi
  001ce	5e		 pop	 esi
  001cf	5b		 pop	 ebx
  001d0	8b e5		 mov	 esp, ebp
  001d2	5d		 pop	 ebp
  001d3	c3		 ret	 0
$LN179@Inplace_me:

; 7219 :                 *--_Last = _STD move(*_Right_last); // to make [_Right_first, _Right_last) a half-open range

  001d4	8b 4d f4	 mov	 ecx, DWORD PTR __Right_last$1$[ebp]
  001d7	83 e8 10	 sub	 eax, 16			; 00000010H
; File C:\Program Files (x86)\Microsoft Visual Studio\2019\Community\VC\Tools\MSVC\14.28.29333\include\xutility

; 4696 :             return _Copy_backward_memmove(_First, _Last, _Dest);

  001da	50		 push	 eax
  001db	51		 push	 ecx
  001dc	ff 75 14	 push	 DWORD PTR __Temp_ptr$[ebp]
; File C:\Program Files (x86)\Microsoft Visual Studio\2019\Community\VC\Tools\MSVC\14.28.29333\include\algorithm

; 7219 :                 *--_Last = _STD move(*_Right_last); // to make [_Right_first, _Right_last) a half-open range

  001df	0f 10 01	 movups	 xmm0, XMMWORD PTR [ecx]
  001e2	0f 11 00	 movups	 XMMWORD PTR [eax], xmm0
; File C:\Program Files (x86)\Microsoft Visual Studio\2019\Community\VC\Tools\MSVC\14.28.29333\include\xutility

; 4696 :             return _Copy_backward_memmove(_First, _Last, _Dest);

  001e5	e8 00 00 00 00	 call	 ??$_Copy_backward_memmove@PAUTPatchDrawStruct@CMapOutdoor@@PAU12@@std@@YAPAUTPatchDrawStruct@CMapOutdoor@@PAU12@00@Z ; std::_Copy_backward_memmove<CMapOutdoor::TPatchDrawStruct *,CMapOutdoor::TPatchDrawStruct *>
; File C:\Program Files (x86)\Microsoft Visual Studio\2019\Community\VC\Tools\MSVC\14.28.29333\include\algorithm

; 7236 : }

  001ea	83 c4 0c	 add	 esp, 12			; 0000000cH
  001ed	5f		 pop	 edi
  001ee	5e		 pop	 esi
  001ef	5b		 pop	 ebx
  001f0	8b e5		 mov	 esp, ebp
  001f2	5d		 pop	 ebp
  001f3	c3		 ret	 0
??$_Inplace_merge_buffer_right@PAUTPatchDrawStruct@CMapOutdoor@@UFSortPatchDrawStructWithTerrainNum@2@@std@@YAXPAUTPatchDrawStruct@CMapOutdoor@@00QAU12@UFSortPatchDrawStructWithTerrainNum@2@@Z ENDP ; std::_Inplace_merge_buffer_right<CMapOutdoor::TPatchDrawStruct *,CMapOutdoor::FSortPatchDrawStructWithTerrainNum>
_TEXT	ENDS
; Function compile flags: /Ogtp
; File C:\Program Files (x86)\Microsoft Visual Studio\2019\Community\VC\Tools\MSVC\14.28.29333\include\algorithm
; File C:\Program Files (x86)\Microsoft Visual Studio\2019\Community\VC\Tools\MSVC\14.28.29333\include\xmemory
; File C:\Program Files (x86)\Microsoft Visual Studio\2019\Community\VC\Tools\MSVC\14.28.29333\include\algorithm
; File C:\Program Files (x86)\Microsoft Visual Studio\2019\Community\VC\Tools\MSVC\14.28.29333\include\xutility
; File C:\Program Files (x86)\Windows Kits\10\Include\10.0.18362.0\ucrt\corecrt_memory.h
; File C:\Program Files (x86)\Microsoft Visual Studio\2019\Community\VC\Tools\MSVC\14.28.29333\include\xutility
; File D:\Metin2 Server Files\mainline\SRC_2014\Metin2Client\GameLib\MapOutdoor.h
; File C:\Program Files (x86)\Windows Kits\10\Include\10.0.18362.0\ucrt\corecrt_memory.h
; File C:\Program Files (x86)\Microsoft Visual Studio\2019\Community\VC\Tools\MSVC\14.28.29333\include\xutility
; File C:\Program Files (x86)\Windows Kits\10\Include\10.0.18362.0\ucrt\corecrt_memory.h
; File C:\Program Files (x86)\Microsoft Visual Studio\2019\Community\VC\Tools\MSVC\14.28.29333\include\xutility
; File C:\Program Files (x86)\Microsoft Visual Studio\2019\Community\VC\Tools\MSVC\14.28.29333\include\vector
; File C:\Program Files (x86)\Microsoft Visual Studio\2019\Community\VC\Tools\MSVC\14.28.29333\include\xutility
; File C:\Program Files (x86)\Microsoft Visual Studio\2019\Community\VC\Tools\MSVC\14.28.29333\include\vector
; File C:\Program Files (x86)\Microsoft Visual Studio\2019\Community\VC\Tools\MSVC\14.28.29333\include\xutility
; File C:\Program Files (x86)\Windows Kits\10\Include\10.0.18362.0\ucrt\corecrt_memory.h
; File C:\Program Files (x86)\Microsoft Visual Studio\2019\Community\VC\Tools\MSVC\14.28.29333\include\xutility
; File C:\Program Files (x86)\Windows Kits\10\Include\10.0.18362.0\ucrt\corecrt_memory.h
; File C:\Program Files (x86)\Microsoft Visual Studio\2019\Community\VC\Tools\MSVC\14.28.29333\include\xutility
; File C:\Program Files (x86)\Microsoft Visual Studio\2019\Community\VC\Tools\MSVC\14.28.29333\include\vector
; File D:\Metin2 Server Files\mainline\SRC_2014\Metin2Client\GameLib\MapOutdoor.h
; File C:\Program Files (x86)\Microsoft Visual Studio\2019\Community\VC\Tools\MSVC\14.28.29333\include\xutility
; File C:\Program Files (x86)\Microsoft Visual Studio\2019\Community\VC\Tools\MSVC\14.28.29333\include\vector
; File C:\Program Files (x86)\Microsoft Visual Studio\2019\Community\VC\Tools\MSVC\14.28.29333\include\xutility
; File D:\Metin2 Server Files\mainline\SRC_2014\Metin2Client\GameLib\MapOutdoor.h
; File C:\Program Files (x86)\Microsoft Visual Studio\2019\Community\VC\Tools\MSVC\14.28.29333\include\vector
; File D:\Metin2 Server Files\mainline\SRC_2014\Metin2Client\GameLib\MapOutdoor.h
; File C:\Program Files (x86)\Microsoft Visual Studio\2019\Community\VC\Tools\MSVC\14.28.29333\include\vector
; File D:\Metin2 Server Files\mainline\SRC_2014\Metin2Client\GameLib\MapOutdoor.h
; File C:\Program Files (x86)\Microsoft Visual Studio\2019\Community\VC\Tools\MSVC\14.28.29333\include\vector
; File D:\Metin2 Server Files\mainline\SRC_2014\Metin2Client\GameLib\MapOutdoor.h
; File C:\Program Files (x86)\Microsoft Visual Studio\2019\Community\VC\Tools\MSVC\14.28.29333\include\xutility
; File C:\Program Files (x86)\Windows Kits\10\Include\10.0.18362.0\ucrt\corecrt_memory.h
; File C:\Program Files (x86)\Microsoft Visual Studio\2019\Community\VC\Tools\MSVC\14.28.29333\include\xutility
; File C:\Program Files (x86)\Windows Kits\10\Include\10.0.18362.0\ucrt\corecrt_memory.h
; File C:\Program Files (x86)\Microsoft Visual Studio\2019\Community\VC\Tools\MSVC\14.28.29333\include\xutility
; File C:\Program Files (x86)\Microsoft Visual Studio\2019\Community\VC\Tools\MSVC\14.28.29333\include\vector
; File D:\Metin2 Server Files\mainline\SRC_2014\Metin2Client\GameLib\MapOutdoor.h
; File C:\Program Files (x86)\Microsoft Visual Studio\2019\Community\VC\Tools\MSVC\14.28.29333\include\vector
; File D:\Metin2 Server Files\mainline\SRC_2014\Metin2Client\GameLib\MapOutdoor.h
; File C:\Program Files (x86)\Microsoft Visual Studio\2019\Community\VC\Tools\MSVC\14.28.29333\include\vector
; File D:\Metin2 Server Files\mainline\SRC_2014\Metin2Client\GameLib\MapOutdoor.h
; File C:\Program Files (x86)\Microsoft Visual Studio\2019\Community\VC\Tools\MSVC\14.28.29333\include\vector
; File D:\Metin2 Server Files\mainline\SRC_2014\Metin2Client\GameLib\MapOutdoor.h
; File C:\Program Files (x86)\Microsoft Visual Studio\2019\Community\VC\Tools\MSVC\14.28.29333\include\algorithm
; File C:\Program Files (x86)\Microsoft Visual Studio\2019\Community\VC\Tools\MSVC\14.28.29333\include\xutility
; File C:\Program Files (x86)\Microsoft Visual Studio\2019\Community\VC\Tools\MSVC\14.28.29333\include\algorithm
; File C:\Program Files (x86)\Microsoft Visual Studio\2019\Community\VC\Tools\MSVC\14.28.29333\include\xutility
; File C:\Program Files (x86)\Microsoft Visual Studio\2019\Community\VC\Tools\MSVC\14.28.29333\include\algorithm
;	COMDAT ??$_Inplace_merge_buffer_left@PAUTPatchDrawStruct@CMapOutdoor@@UFSortPatchDrawStructWithTerrainNum@2@@std@@YAXPAUTPatchDrawStruct@CMapOutdoor@@00QAU12@UFSortPatchDrawStructWithTerrainNum@2@@Z
_TEXT	SEGMENT
tv1095 = -20						; size = 4
tv1091 = -16						; size = 4
__Backout$$sroa$737$1$ = -12				; size = 4
tv1106 = -8						; size = 4
_rhsTerrainNumOrder$1$ = -8				; size = 4
tv1094 = -1						; size = 1
tv1090 = -1						; size = 1
__First$ = 8						; size = 4
__Mid$ = 12						; size = 4
__Last$ = 16						; size = 4
__Temp_ptr$ = 20					; size = 4
__Pred$ = 24						; size = 1
??$_Inplace_merge_buffer_left@PAUTPatchDrawStruct@CMapOutdoor@@UFSortPatchDrawStructWithTerrainNum@2@@std@@YAXPAUTPatchDrawStruct@CMapOutdoor@@00QAU12@UFSortPatchDrawStructWithTerrainNum@2@@Z PROC ; std::_Inplace_merge_buffer_left<CMapOutdoor::TPatchDrawStruct *,CMapOutdoor::FSortPatchDrawStructWithTerrainNum>, COMDAT

; 7172 :     _BidIt _First, _BidIt _Mid, _BidIt _Last, _Iter_value_t<_BidIt>* const _Temp_ptr, _Pr _Pred) {

  00000	55		 push	 ebp
  00001	8b ec		 mov	 ebp, esp
  00003	83 ec 14	 sub	 esp, 20			; 00000014H
  00006	53		 push	 ebx
  00007	56		 push	 esi

; 7173 :     // move the range [_First, _Mid) to _Temp_ptr, and merge it with [_Mid, _Last) to _First
; 7174 :     // usual invariants apply
; 7175 :     using _Ptr_ty = _Iter_value_t<_BidIt>*;
; 7176 :     _Uninitialized_backout<_Ptr_ty> _Backout{_Temp_ptr, _Uninitialized_move_unchecked(_First, _Mid, _Temp_ptr)};

  00008	8b 75 0c	 mov	 esi, DWORD PTR __Mid$[ebp]
  0000b	57		 push	 edi
  0000c	ff 75 14	 push	 DWORD PTR __Temp_ptr$[ebp]
  0000f	8b 7d 08	 mov	 edi, DWORD PTR __First$[ebp]
  00012	56		 push	 esi
  00013	57		 push	 edi
  00014	e8 00 00 00 00	 call	 ??$_Uninitialized_move_unchecked@PAUTPatchDrawStruct@CMapOutdoor@@PAU12@@std@@YAPAUTPatchDrawStruct@CMapOutdoor@@PAU12@QAU12@0@Z ; std::_Uninitialized_move_unchecked<CMapOutdoor::TPatchDrawStruct *,CMapOutdoor::TPatchDrawStruct *>

; 7179 :     *_First                  = _STD move(*_Mid); // the lowest element is now in position

  00019	0f 10 06	 movups	 xmm0, XMMWORD PTR [esi]
  0001c	83 c4 0c	 add	 esp, 12			; 0000000cH
; File C:\Program Files (x86)\Microsoft Visual Studio\2019\Community\VC\Tools\MSVC\14.28.29333\include\xmemory

; 1430 :     constexpr _Uninitialized_backout(_NoThrowFwdIt _First_, _NoThrowFwdIt _Last_) : _First(_First_), _Last(_Last_) {}

  0001f	89 45 f4	 mov	 DWORD PTR __Backout$$sroa$737$1$[ebp], eax
; File C:\Program Files (x86)\Microsoft Visual Studio\2019\Community\VC\Tools\MSVC\14.28.29333\include\algorithm

; 7179 :     *_First                  = _STD move(*_Mid); // the lowest element is now in position

  00022	0f 11 07	 movups	 XMMWORD PTR [edi], xmm0

; 7180 :     ++_First;

  00025	83 c7 10	 add	 edi, 16			; 00000010H

; 7181 :     ++_Mid;

  00028	83 c6 10	 add	 esi, 16			; 00000010H
  0002b	89 7d 08	 mov	 DWORD PTR __First$[ebp], edi
  0002e	89 75 0c	 mov	 DWORD PTR __Mid$[ebp], esi
$LL2@Inplace_me:
; File C:\Program Files (x86)\Microsoft Visual Studio\2019\Community\VC\Tools\MSVC\14.28.29333\include\xutility

; 5480 :     _Seek_wrapped(_First, _Find_unchecked(_Get_unwrapped(_First), _Get_unwrapped(_Last), _Val));

  00031	8b 1d 04 00 00
	00		 mov	 ebx, DWORD PTR ?m_TerrainNumVector@FSortPatchDrawStructWithTerrainNum@CMapOutdoor@@2V?$vector@EV?$allocator@E@std@@@std@@A+4

; 5461 :     _First =

  00037	8d 56 04	 lea	 edx, DWORD PTR [esi+4]
  0003a	8b 0d 00 00 00
	00		 mov	 ecx, DWORD PTR ?m_TerrainNumVector@FSortPatchDrawStructWithTerrainNum@CMapOutdoor@@2V?$vector@EV?$allocator@E@std@@@std@@A
  00040	8b c3		 mov	 eax, ebx
  00042	2b c1		 sub	 eax, ecx

; 5480 :     _Seek_wrapped(_First, _Find_unchecked(_Get_unwrapped(_First), _Get_unwrapped(_Last), _Val));

  00044	89 5d f8	 mov	 DWORD PTR tv1106[ebp], ebx
; File C:\Program Files (x86)\Windows Kits\10\Include\10.0.18362.0\ucrt\corecrt_memory.h

; 107  :         return const_cast<void*>(memchr(_Pvc, _C, _N));

  00047	50		 push	 eax
; File C:\Program Files (x86)\Microsoft Visual Studio\2019\Community\VC\Tools\MSVC\14.28.29333\include\xutility

; 5461 :     _First =

  00048	0f b6 02	 movzx	 eax, BYTE PTR [edx]
; File D:\Metin2 Server Files\mainline\SRC_2014\Metin2Client\GameLib\MapOutdoor.h

; 360  : 				DWORD lhsTerrainNumOrder = 0, rhsTerrainNumOrder = 0;

  0004b	33 ff		 xor	 edi, edi
; File C:\Program Files (x86)\Windows Kits\10\Include\10.0.18362.0\ucrt\corecrt_memory.h

; 107  :         return const_cast<void*>(memchr(_Pvc, _C, _N));

  0004d	50		 push	 eax
  0004e	51		 push	 ecx
; File C:\Program Files (x86)\Microsoft Visual Studio\2019\Community\VC\Tools\MSVC\14.28.29333\include\xutility

; 5461 :     _First =

  0004f	89 55 ec	 mov	 DWORD PTR tv1095[ebp], edx
; File C:\Program Files (x86)\Windows Kits\10\Include\10.0.18362.0\ucrt\corecrt_memory.h

; 107  :         return const_cast<void*>(memchr(_Pvc, _C, _N));

  00052	e8 00 00 00 00	 call	 _memchr
; File C:\Program Files (x86)\Microsoft Visual Studio\2019\Community\VC\Tools\MSVC\14.28.29333\include\xutility

; 5463 :     return _First ? _First : _Last;

  00057	85 c0		 test	 eax, eax
  00059	8b cb		 mov	 ecx, ebx
  0005b	0f 45 c8	 cmovne	 ecx, eax
; File C:\Program Files (x86)\Microsoft Visual Studio\2019\Community\VC\Tools\MSVC\14.28.29333\include\vector

; 195  :         _Ptr = _Refancy<_Tptr>(const_cast<value_type*>(_It));

  0005e	51		 push	 ecx
  0005f	e8 00 00 00 00	 call	 ??$_Refancy@PAE$0A@@std@@YAPAEPAE@Z ; std::_Refancy<unsigned char *,0>
; File C:\Program Files (x86)\Microsoft Visual Studio\2019\Community\VC\Tools\MSVC\14.28.29333\include\xutility

; 5461 :     _First =

  00064	8b 0d 00 00 00
	00		 mov	 ecx, DWORD PTR ?m_TerrainNumVector@FSortPatchDrawStructWithTerrainNum@CMapOutdoor@@2V?$vector@EV?$allocator@E@std@@@std@@A
; File C:\Program Files (x86)\Microsoft Visual Studio\2019\Community\VC\Tools\MSVC\14.28.29333\include\vector

; 195  :         _Ptr = _Refancy<_Tptr>(const_cast<value_type*>(_It));

  0006a	8b f0		 mov	 esi, eax
; File C:\Program Files (x86)\Microsoft Visual Studio\2019\Community\VC\Tools\MSVC\14.28.29333\include\xutility

; 5461 :     _First =

  0006c	8b 45 14	 mov	 eax, DWORD PTR __Temp_ptr$[ebp]
  0006f	83 c0 04	 add	 eax, 4
  00072	89 45 f0	 mov	 DWORD PTR tv1091[ebp], eax
  00075	8a 10		 mov	 dl, BYTE PTR [eax]
  00077	8b c3		 mov	 eax, ebx
  00079	2b c1		 sub	 eax, ecx
  0007b	88 55 ff	 mov	 BYTE PTR tv1090[ebp], dl
; File C:\Program Files (x86)\Windows Kits\10\Include\10.0.18362.0\ucrt\corecrt_memory.h

; 107  :         return const_cast<void*>(memchr(_Pvc, _C, _N));

  0007e	50		 push	 eax
; File C:\Program Files (x86)\Microsoft Visual Studio\2019\Community\VC\Tools\MSVC\14.28.29333\include\xutility

; 5461 :     _First =

  0007f	0f b6 c2	 movzx	 eax, dl
; File C:\Program Files (x86)\Windows Kits\10\Include\10.0.18362.0\ucrt\corecrt_memory.h

; 107  :         return const_cast<void*>(memchr(_Pvc, _C, _N));

  00082	50		 push	 eax
  00083	51		 push	 ecx
  00084	e8 00 00 00 00	 call	 _memchr
; File C:\Program Files (x86)\Microsoft Visual Studio\2019\Community\VC\Tools\MSVC\14.28.29333\include\xutility

; 5463 :     return _First ? _First : _Last;

  00089	85 c0		 test	 eax, eax
  0008b	8b cb		 mov	 ecx, ebx
  0008d	0f 45 c8	 cmovne	 ecx, eax
; File C:\Program Files (x86)\Microsoft Visual Studio\2019\Community\VC\Tools\MSVC\14.28.29333\include\vector

; 195  :         _Ptr = _Refancy<_Tptr>(const_cast<value_type*>(_It));

  00090	51		 push	 ecx
  00091	e8 00 00 00 00	 call	 ??$_Refancy@PAE$0A@@std@@YAPAEPAE@Z ; std::_Refancy<unsigned char *,0>
; File D:\Metin2 Server Files\mainline\SRC_2014\Metin2Client\GameLib\MapOutdoor.h

; 367  : 				if (lhsIterator != m_TerrainNumVector.end())

  00096	8b 0d 00 00 00
	00		 mov	 ecx, DWORD PTR ?m_TerrainNumVector@FSortPatchDrawStructWithTerrainNum@CMapOutdoor@@2V?$vector@EV?$allocator@E@std@@@std@@A
; File C:\Program Files (x86)\Microsoft Visual Studio\2019\Community\VC\Tools\MSVC\14.28.29333\include\xutility

; 5481 :     return _First;

  0009c	8b d3		 mov	 edx, ebx
; File C:\Program Files (x86)\Microsoft Visual Studio\2019\Community\VC\Tools\MSVC\14.28.29333\include\vector

; 195  :         _Ptr = _Refancy<_Tptr>(const_cast<value_type*>(_It));

  0009e	83 c4 20	 add	 esp, 32			; 00000020H
; File C:\Program Files (x86)\Microsoft Visual Studio\2019\Community\VC\Tools\MSVC\14.28.29333\include\xutility

; 5481 :     return _First;

  000a1	3b f2		 cmp	 esi, edx
; File D:\Metin2 Server Files\mainline\SRC_2014\Metin2Client\GameLib\MapOutdoor.h

; 367  : 				if (lhsIterator != m_TerrainNumVector.end())

  000a3	74 04		 je	 SHORT $LN15@Inplace_me

; 368  : 				{
; 369  : 					blhsOrderFound = true;

  000a5	8b fe		 mov	 edi, esi
  000a7	2b f9		 sub	 edi, ecx
$LN15@Inplace_me:
; File C:\Program Files (x86)\Microsoft Visual Studio\2019\Community\VC\Tools\MSVC\14.28.29333\include\vector

; 149  :         return _Ptr == _Right._Ptr;

  000a9	3b c2		 cmp	 eax, edx
; File D:\Metin2 Server Files\mainline\SRC_2014\Metin2Client\GameLib\MapOutdoor.h

; 372  : 				if (rhsIterator != m_TerrainNumVector.end())

  000ab	74 04		 je	 SHORT $LN185@Inplace_me
; File C:\Program Files (x86)\Microsoft Visual Studio\2019\Community\VC\Tools\MSVC\14.28.29333\include\vector

; 140  :         return _Ptr - _Right._Ptr;

  000ad	2b c1		 sub	 eax, ecx
; File D:\Metin2 Server Files\mainline\SRC_2014\Metin2Client\GameLib\MapOutdoor.h

; 377  : 				if (!brhsOrderFound)

  000af	eb 3e		 jmp	 SHORT $LN188@Inplace_me
$LN185@Inplace_me:
; File C:\Program Files (x86)\Microsoft Visual Studio\2019\Community\VC\Tools\MSVC\14.28.29333\include\vector

; 704  :         if (_Mylast != _My_data._Myend) {

  000b1	3b 15 08 00 00
	00		 cmp	 edx, DWORD PTR ?m_TerrainNumVector@FSortPatchDrawStructWithTerrainNum@CMapOutdoor@@2V?$vector@EV?$allocator@E@std@@@std@@A+8
  000b7	74 14		 je	 SHORT $LN111@Inplace_me

; 687  :         _Alty_traits::construct(_Getal(), _Unfancy(_Mylast), _STD forward<_Valty>(_Val)...);

  000b9	8a 45 ff	 mov	 al, BYTE PTR tv1090[ebp]
  000bc	88 02		 mov	 BYTE PTR [edx], al

; 688  :         _Orphan_range(_Mylast, _Mylast);
; 689  :         _Ty& _Result = *_Mylast;
; 690  :         ++_Mylast;

  000be	8b 1d 04 00 00
	00		 mov	 ebx, DWORD PTR ?m_TerrainNumVector@FSortPatchDrawStructWithTerrainNum@CMapOutdoor@@2V?$vector@EV?$allocator@E@std@@@std@@A+4
  000c4	43		 inc	 ebx
  000c5	89 1d 04 00 00
	00		 mov	 DWORD PTR ?m_TerrainNumVector@FSortPatchDrawStructWithTerrainNum@CMapOutdoor@@2V?$vector@EV?$allocator@E@std@@@std@@A+4, ebx

; 705  :             return _Emplace_back_with_unused_capacity(_STD forward<_Valty>(_Val)...);

  000cb	eb 17		 jmp	 SHORT $LN110@Inplace_me
$LN111@Inplace_me:

; 706  :         }
; 707  : 
; 708  :         _Ty& _Result = *_Emplace_reallocate(_Mylast, _STD forward<_Valty>(_Val)...);

  000cd	ff 75 f0	 push	 DWORD PTR tv1091[ebp]
  000d0	b9 00 00 00 00	 mov	 ecx, OFFSET ?m_TerrainNumVector@FSortPatchDrawStructWithTerrainNum@CMapOutdoor@@2V?$vector@EV?$allocator@E@std@@@std@@A ; CMapOutdoor::FSortPatchDrawStructWithTerrainNum::m_TerrainNumVector
  000d5	52		 push	 edx
  000d6	e8 00 00 00 00	 call	 ??$_Emplace_reallocate@ABE@?$vector@EV?$allocator@E@std@@@std@@QAEPAEQAEABE@Z ; std::vector<unsigned char,std::allocator<unsigned char> >::_Emplace_reallocate<unsigned char const &>
  000db	8b 1d 04 00 00
	00		 mov	 ebx, DWORD PTR ?m_TerrainNumVector@FSortPatchDrawStructWithTerrainNum@CMapOutdoor@@2V?$vector@EV?$allocator@E@std@@@std@@A+4
  000e1	8b 55 f8	 mov	 edx, DWORD PTR tv1106[ebp]
$LN110@Inplace_me:
; File D:\Metin2 Server Files\mainline\SRC_2014\Metin2Client\GameLib\MapOutdoor.h

; 380  : 					rhsTerrainNumOrder = m_TerrainNumVector.size() -1;

  000e4	8b 0d 00 00 00
	00		 mov	 ecx, DWORD PTR ?m_TerrainNumVector@FSortPatchDrawStructWithTerrainNum@CMapOutdoor@@2V?$vector@EV?$allocator@E@std@@@std@@A
  000ea	8b c3		 mov	 eax, ebx
  000ec	2b c1		 sub	 eax, ecx
  000ee	48		 dec	 eax
$LN188@Inplace_me:

; 381  : 				}
; 382  : 				if (!blhsOrderFound)

  000ef	89 45 f8	 mov	 DWORD PTR _rhsTerrainNumOrder$1$[ebp], eax
  000f2	3b f2		 cmp	 esi, edx
  000f4	75 64		 jne	 SHORT $LN20@Inplace_me
; File C:\Program Files (x86)\Microsoft Visual Studio\2019\Community\VC\Tools\MSVC\14.28.29333\include\xutility

; 5461 :     _First =

  000f6	8b 75 ec	 mov	 esi, DWORD PTR tv1095[ebp]
  000f9	8b c3		 mov	 eax, ebx
  000fb	2b c1		 sub	 eax, ecx
; File C:\Program Files (x86)\Windows Kits\10\Include\10.0.18362.0\ucrt\corecrt_memory.h

; 107  :         return const_cast<void*>(memchr(_Pvc, _C, _N));

  000fd	50		 push	 eax
; File C:\Program Files (x86)\Microsoft Visual Studio\2019\Community\VC\Tools\MSVC\14.28.29333\include\xutility

; 5461 :     _First =

  000fe	0f b6 06	 movzx	 eax, BYTE PTR [esi]
; File C:\Program Files (x86)\Windows Kits\10\Include\10.0.18362.0\ucrt\corecrt_memory.h

; 107  :         return const_cast<void*>(memchr(_Pvc, _C, _N));

  00101	50		 push	 eax
  00102	51		 push	 ecx
  00103	e8 00 00 00 00	 call	 _memchr
; File C:\Program Files (x86)\Microsoft Visual Studio\2019\Community\VC\Tools\MSVC\14.28.29333\include\xutility

; 5463 :     return _First ? _First : _Last;

  00108	85 c0		 test	 eax, eax
  0010a	8b cb		 mov	 ecx, ebx
  0010c	0f 45 c8	 cmovne	 ecx, eax
; File C:\Program Files (x86)\Microsoft Visual Studio\2019\Community\VC\Tools\MSVC\14.28.29333\include\vector

; 195  :         _Ptr = _Refancy<_Tptr>(const_cast<value_type*>(_It));

  0010f	51		 push	 ecx
  00110	e8 00 00 00 00	 call	 ??$_Refancy@PAE$0A@@std@@YAPAEPAE@Z ; std::_Refancy<unsigned char *,0>
; File D:\Metin2 Server Files\mainline\SRC_2014\Metin2Client\GameLib\MapOutdoor.h

; 384  : 					lhsIterator = std::find(m_TerrainNumVector.begin(), m_TerrainNumVector.end(), lhs.byTerrainNum);

  00115	8b f8		 mov	 edi, eax
; File C:\Program Files (x86)\Microsoft Visual Studio\2019\Community\VC\Tools\MSVC\14.28.29333\include\vector

; 195  :         _Ptr = _Refancy<_Tptr>(const_cast<value_type*>(_It));

  00117	83 c4 10	 add	 esp, 16			; 00000010H
; File D:\Metin2 Server Files\mainline\SRC_2014\Metin2Client\GameLib\MapOutdoor.h

; 384  : 					lhsIterator = std::find(m_TerrainNumVector.begin(), m_TerrainNumVector.end(), lhs.byTerrainNum);

  0011a	3b fb		 cmp	 edi, ebx

; 385  : 					if (lhsIterator != m_TerrainNumVector.end())

  0011c	74 08		 je	 SHORT $LN186@Inplace_me
; File C:\Program Files (x86)\Microsoft Visual Studio\2019\Community\VC\Tools\MSVC\14.28.29333\include\vector

; 140  :         return _Ptr - _Right._Ptr;

  0011e	2b 3d 00 00 00
	00		 sub	 edi, DWORD PTR ?m_TerrainNumVector@FSortPatchDrawStructWithTerrainNum@CMapOutdoor@@2V?$vector@EV?$allocator@E@std@@@std@@A
; File D:\Metin2 Server Files\mainline\SRC_2014\Metin2Client\GameLib\MapOutdoor.h

; 390  : 					if (!blhsOrderFound)

  00124	eb 34		 jmp	 SHORT $LN20@Inplace_me
$LN186@Inplace_me:
; File C:\Program Files (x86)\Microsoft Visual Studio\2019\Community\VC\Tools\MSVC\14.28.29333\include\vector

; 704  :         if (_Mylast != _My_data._Myend) {

  00126	3b 1d 08 00 00
	00		 cmp	 ebx, DWORD PTR ?m_TerrainNumVector@FSortPatchDrawStructWithTerrainNum@CMapOutdoor@@2V?$vector@EV?$allocator@E@std@@@std@@A+8
  0012c	74 13		 je	 SHORT $LN163@Inplace_me

; 687  :         _Alty_traits::construct(_Getal(), _Unfancy(_Mylast), _STD forward<_Valty>(_Val)...);

  0012e	8a 06		 mov	 al, BYTE PTR [esi]
  00130	88 03		 mov	 BYTE PTR [ebx], al

; 688  :         _Orphan_range(_Mylast, _Mylast);
; 689  :         _Ty& _Result = *_Mylast;
; 690  :         ++_Mylast;

  00132	8b 3d 04 00 00
	00		 mov	 edi, DWORD PTR ?m_TerrainNumVector@FSortPatchDrawStructWithTerrainNum@CMapOutdoor@@2V?$vector@EV?$allocator@E@std@@@std@@A+4
  00138	47		 inc	 edi
  00139	89 3d 04 00 00
	00		 mov	 DWORD PTR ?m_TerrainNumVector@FSortPatchDrawStructWithTerrainNum@CMapOutdoor@@2V?$vector@EV?$allocator@E@std@@@std@@A+4, edi

; 705  :             return _Emplace_back_with_unused_capacity(_STD forward<_Valty>(_Val)...);

  0013f	eb 12		 jmp	 SHORT $LN162@Inplace_me
$LN163@Inplace_me:

; 706  :         }
; 707  : 
; 708  :         _Ty& _Result = *_Emplace_reallocate(_Mylast, _STD forward<_Valty>(_Val)...);

  00141	56		 push	 esi
  00142	53		 push	 ebx
  00143	b9 00 00 00 00	 mov	 ecx, OFFSET ?m_TerrainNumVector@FSortPatchDrawStructWithTerrainNum@CMapOutdoor@@2V?$vector@EV?$allocator@E@std@@@std@@A ; CMapOutdoor::FSortPatchDrawStructWithTerrainNum::m_TerrainNumVector
  00148	e8 00 00 00 00	 call	 ??$_Emplace_reallocate@ABE@?$vector@EV?$allocator@E@std@@@std@@QAEPAEQAEABE@Z ; std::vector<unsigned char,std::allocator<unsigned char> >::_Emplace_reallocate<unsigned char const &>
  0014d	8b 3d 04 00 00
	00		 mov	 edi, DWORD PTR ?m_TerrainNumVector@FSortPatchDrawStructWithTerrainNum@CMapOutdoor@@2V?$vector@EV?$allocator@E@std@@@std@@A+4
$LN162@Inplace_me:
; File D:\Metin2 Server Files\mainline\SRC_2014\Metin2Client\GameLib\MapOutdoor.h

; 393  : 						lhsTerrainNumOrder = m_TerrainNumVector.size() -1;

  00153	2b 3d 00 00 00
	00		 sub	 edi, DWORD PTR ?m_TerrainNumVector@FSortPatchDrawStructWithTerrainNum@CMapOutdoor@@2V?$vector@EV?$allocator@E@std@@@std@@A
  00159	4f		 dec	 edi
$LN20@Inplace_me:

; 394  : 					}
; 395  : 				}
; 396  : 
; 397  : 				return lhsTerrainNumOrder < rhsTerrainNumOrder;

  0015a	8b 45 08	 mov	 eax, DWORD PTR __First$[ebp]
  0015d	8d 50 10	 lea	 edx, DWORD PTR [eax+16]
  00160	3b 7d f8	 cmp	 edi, DWORD PTR _rhsTerrainNumOrder$1$[ebp]
; File C:\Program Files (x86)\Microsoft Visual Studio\2019\Community\VC\Tools\MSVC\14.28.29333\include\algorithm

; 7183 :         if (_Pred(*_Mid, *_Left_first)) { // take element from the right partition

  00163	73 2a		 jae	 SHORT $LN5@Inplace_me

; 7184 :             *_First = _STD move(*_Mid);

  00165	8b 75 0c	 mov	 esi, DWORD PTR __Mid$[ebp]
  00168	0f 10 06	 movups	 xmm0, XMMWORD PTR [esi]

; 7185 :             ++_First;
; 7186 :             ++_Mid;

  0016b	83 c6 10	 add	 esi, 16			; 00000010H
  0016e	89 75 0c	 mov	 DWORD PTR __Mid$[ebp], esi
  00171	0f 11 00	 movups	 XMMWORD PTR [eax], xmm0

; 7187 :             if (_Mid == _Last) {

  00174	3b 75 10	 cmp	 esi, DWORD PTR __Last$[ebp]
  00177	75 32		 jne	 SHORT $LN8@Inplace_me
; File C:\Program Files (x86)\Microsoft Visual Studio\2019\Community\VC\Tools\MSVC\14.28.29333\include\xutility

; 4628 :             return _Copy_memmove(_First, _Last, _Dest);

  00179	52		 push	 edx
  0017a	ff 75 f4	 push	 DWORD PTR __Backout$$sroa$737$1$[ebp]
  0017d	ff 75 14	 push	 DWORD PTR __Temp_ptr$[ebp]
  00180	e8 00 00 00 00	 call	 ??$_Copy_memmove@PAUTPatchDrawStruct@CMapOutdoor@@PAU12@@std@@YAPAUTPatchDrawStruct@CMapOutdoor@@PAU12@00@Z ; std::_Copy_memmove<CMapOutdoor::TPatchDrawStruct *,CMapOutdoor::TPatchDrawStruct *>
; File C:\Program Files (x86)\Microsoft Visual Studio\2019\Community\VC\Tools\MSVC\14.28.29333\include\algorithm

; 7202 : }

  00185	83 c4 0c	 add	 esp, 12			; 0000000cH
  00188	5f		 pop	 edi
  00189	5e		 pop	 esi
  0018a	5b		 pop	 ebx
  0018b	8b e5		 mov	 esp, ebp
  0018d	5d		 pop	 ebp
  0018e	c3		 ret	 0
$LN5@Inplace_me:

; 7188 :                 _Move_unchecked(_Left_first, _Backout._Last, _First); // move any tail (and the highest element)
; 7189 :                 return;
; 7190 :             }
; 7191 :         } else { // take element from the left partition
; 7192 :             *_First = _STD move(*_Left_first);

  0018f	8b 4d 14	 mov	 ecx, DWORD PTR __Temp_ptr$[ebp]

; 7193 :             ++_First;
; 7194 :             ++_Left_first;
; 7195 :             if (_Left_first == _Left_last) {

  00192	8b 5d f4	 mov	 ebx, DWORD PTR __Backout$$sroa$737$1$[ebp]
  00195	83 c3 f0	 add	 ebx, -16		; fffffff0H
  00198	0f 10 01	 movups	 xmm0, XMMWORD PTR [ecx]
  0019b	83 c1 10	 add	 ecx, 16			; 00000010H
  0019e	89 4d 14	 mov	 DWORD PTR __Temp_ptr$[ebp], ecx
  001a1	0f 11 00	 movups	 XMMWORD PTR [eax], xmm0
  001a4	3b cb		 cmp	 ecx, ebx
  001a6	74 0b		 je	 SHORT $LN182@Inplace_me
  001a8	8b 75 0c	 mov	 esi, DWORD PTR __Mid$[ebp]
$LN8@Inplace_me:

; 7198 :                 return;
; 7199 :             }
; 7200 :         }
; 7201 :     }

  001ab	89 55 08	 mov	 DWORD PTR __First$[ebp], edx
  001ae	e9 7e fe ff ff	 jmp	 $LL2@Inplace_me
$LN182@Inplace_me:
; File C:\Program Files (x86)\Microsoft Visual Studio\2019\Community\VC\Tools\MSVC\14.28.29333\include\xutility

; 4628 :             return _Copy_memmove(_First, _Last, _Dest);

  001b3	52		 push	 edx
  001b4	ff 75 10	 push	 DWORD PTR __Last$[ebp]
  001b7	ff 75 0c	 push	 DWORD PTR __Mid$[ebp]
  001ba	e8 00 00 00 00	 call	 ??$_Copy_memmove@PAUTPatchDrawStruct@CMapOutdoor@@PAU12@@std@@YAPAUTPatchDrawStruct@CMapOutdoor@@PAU12@00@Z ; std::_Copy_memmove<CMapOutdoor::TPatchDrawStruct *,CMapOutdoor::TPatchDrawStruct *>
; File C:\Program Files (x86)\Microsoft Visual Studio\2019\Community\VC\Tools\MSVC\14.28.29333\include\algorithm

; 7197 :                 *_Move_unchecked(_Mid, _Last, _First) = _STD move(*_Left_last);

  001bf	0f 10 03	 movups	 xmm0, XMMWORD PTR [ebx]

; 7202 : }

  001c2	83 c4 0c	 add	 esp, 12			; 0000000cH
  001c5	0f 11 00	 movups	 XMMWORD PTR [eax], xmm0
  001c8	5f		 pop	 edi
  001c9	5e		 pop	 esi
  001ca	5b		 pop	 ebx
  001cb	8b e5		 mov	 esp, ebp
  001cd	5d		 pop	 ebp
  001ce	c3		 ret	 0
??$_Inplace_merge_buffer_left@PAUTPatchDrawStruct@CMapOutdoor@@UFSortPatchDrawStructWithTerrainNum@2@@std@@YAXPAUTPatchDrawStruct@CMapOutdoor@@00QAU12@UFSortPatchDrawStructWithTerrainNum@2@@Z ENDP ; std::_Inplace_merge_buffer_left<CMapOutdoor::TPatchDrawStruct *,CMapOutdoor::FSortPatchDrawStructWithTerrainNum>
_TEXT	ENDS
; Function compile flags: /Ogtp
; File C:\Program Files (x86)\Microsoft Visual Studio\2019\Community\VC\Tools\MSVC\14.28.29333\include\algorithm
; File C:\Program Files (x86)\Microsoft Visual Studio\2019\Community\VC\Tools\MSVC\14.28.29333\include\xutility
; File C:\Program Files (x86)\Windows Kits\10\Include\10.0.18362.0\ucrt\corecrt_memory.h
; File C:\Program Files (x86)\Microsoft Visual Studio\2019\Community\VC\Tools\MSVC\14.28.29333\include\xutility
; File D:\Metin2 Server Files\mainline\SRC_2014\Metin2Client\GameLib\MapOutdoor.h
; File C:\Program Files (x86)\Windows Kits\10\Include\10.0.18362.0\ucrt\corecrt_memory.h
; File C:\Program Files (x86)\Microsoft Visual Studio\2019\Community\VC\Tools\MSVC\14.28.29333\include\xutility
; File C:\Program Files (x86)\Windows Kits\10\Include\10.0.18362.0\ucrt\corecrt_memory.h
; File C:\Program Files (x86)\Microsoft Visual Studio\2019\Community\VC\Tools\MSVC\14.28.29333\include\xutility
; File C:\Program Files (x86)\Microsoft Visual Studio\2019\Community\VC\Tools\MSVC\14.28.29333\include\vector
; File C:\Program Files (x86)\Microsoft Visual Studio\2019\Community\VC\Tools\MSVC\14.28.29333\include\xutility
; File C:\Program Files (x86)\Microsoft Visual Studio\2019\Community\VC\Tools\MSVC\14.28.29333\include\vector
; File C:\Program Files (x86)\Microsoft Visual Studio\2019\Community\VC\Tools\MSVC\14.28.29333\include\xutility
; File C:\Program Files (x86)\Windows Kits\10\Include\10.0.18362.0\ucrt\corecrt_memory.h
; File C:\Program Files (x86)\Microsoft Visual Studio\2019\Community\VC\Tools\MSVC\14.28.29333\include\xutility
; File C:\Program Files (x86)\Windows Kits\10\Include\10.0.18362.0\ucrt\corecrt_memory.h
; File C:\Program Files (x86)\Microsoft Visual Studio\2019\Community\VC\Tools\MSVC\14.28.29333\include\xutility
; File C:\Program Files (x86)\Microsoft Visual Studio\2019\Community\VC\Tools\MSVC\14.28.29333\include\vector
; File D:\Metin2 Server Files\mainline\SRC_2014\Metin2Client\GameLib\MapOutdoor.h
; File C:\Program Files (x86)\Microsoft Visual Studio\2019\Community\VC\Tools\MSVC\14.28.29333\include\xutility
; File C:\Program Files (x86)\Microsoft Visual Studio\2019\Community\VC\Tools\MSVC\14.28.29333\include\vector
; File C:\Program Files (x86)\Microsoft Visual Studio\2019\Community\VC\Tools\MSVC\14.28.29333\include\xutility
; File D:\Metin2 Server Files\mainline\SRC_2014\Metin2Client\GameLib\MapOutdoor.h
; File C:\Program Files (x86)\Microsoft Visual Studio\2019\Community\VC\Tools\MSVC\14.28.29333\include\vector
; File D:\Metin2 Server Files\mainline\SRC_2014\Metin2Client\GameLib\MapOutdoor.h
; File C:\Program Files (x86)\Microsoft Visual Studio\2019\Community\VC\Tools\MSVC\14.28.29333\include\vector
; File D:\Metin2 Server Files\mainline\SRC_2014\Metin2Client\GameLib\MapOutdoor.h
; File C:\Program Files (x86)\Microsoft Visual Studio\2019\Community\VC\Tools\MSVC\14.28.29333\include\vector
; File D:\Metin2 Server Files\mainline\SRC_2014\Metin2Client\GameLib\MapOutdoor.h
; File C:\Program Files (x86)\Microsoft Visual Studio\2019\Community\VC\Tools\MSVC\14.28.29333\include\xutility
; File C:\Program Files (x86)\Windows Kits\10\Include\10.0.18362.0\ucrt\corecrt_memory.h
; File C:\Program Files (x86)\Microsoft Visual Studio\2019\Community\VC\Tools\MSVC\14.28.29333\include\xutility
; File C:\Program Files (x86)\Windows Kits\10\Include\10.0.18362.0\ucrt\corecrt_memory.h
; File C:\Program Files (x86)\Microsoft Visual Studio\2019\Community\VC\Tools\MSVC\14.28.29333\include\xutility
; File C:\Program Files (x86)\Microsoft Visual Studio\2019\Community\VC\Tools\MSVC\14.28.29333\include\vector
; File D:\Metin2 Server Files\mainline\SRC_2014\Metin2Client\GameLib\MapOutdoor.h
; File C:\Program Files (x86)\Microsoft Visual Studio\2019\Community\VC\Tools\MSVC\14.28.29333\include\vector
; File D:\Metin2 Server Files\mainline\SRC_2014\Metin2Client\GameLib\MapOutdoor.h
; File C:\Program Files (x86)\Microsoft Visual Studio\2019\Community\VC\Tools\MSVC\14.28.29333\include\vector
; File D:\Metin2 Server Files\mainline\SRC_2014\Metin2Client\GameLib\MapOutdoor.h
; File C:\Program Files (x86)\Microsoft Visual Studio\2019\Community\VC\Tools\MSVC\14.28.29333\include\vector
; File D:\Metin2 Server Files\mainline\SRC_2014\Metin2Client\GameLib\MapOutdoor.h
; File C:\Program Files (x86)\Microsoft Visual Studio\2019\Community\VC\Tools\MSVC\14.28.29333\include\algorithm
; File C:\Program Files (x86)\Microsoft Visual Studio\2019\Community\VC\Tools\MSVC\14.28.29333\include\xutility
; File C:\Program Files (x86)\Microsoft Visual Studio\2019\Community\VC\Tools\MSVC\14.28.29333\include\algorithm
; File C:\Program Files (x86)\Microsoft Visual Studio\2019\Community\VC\Tools\MSVC\14.28.29333\include\xutility
; File C:\Program Files (x86)\Microsoft Visual Studio\2019\Community\VC\Tools\MSVC\14.28.29333\include\algorithm
;	COMDAT ??$_Merge_move@PAUTPatchDrawStruct@CMapOutdoor@@PAU12@UFSortPatchDrawStructWithTerrainNum@2@@std@@YAPAUTPatchDrawStruct@CMapOutdoor@@PAU12@QAU12@10UFSortPatchDrawStructWithTerrainNum@2@@Z
_TEXT	SEGMENT
tv1059 = -20						; size = 4
tv1054 = -16						; size = 4
__Next$1$ = -12						; size = 4
tv1069 = -8						; size = 4
_rhsTerrainNumOrder$1$ = -8				; size = 4
tv1057 = -1						; size = 1
tv1053 = -1						; size = 1
__First$ = 8						; size = 4
__Mid$ = 12						; size = 4
__Last$ = 16						; size = 4
__Dest$ = 20						; size = 4
__Pred$ = 24						; size = 1
??$_Merge_move@PAUTPatchDrawStruct@CMapOutdoor@@PAU12@UFSortPatchDrawStructWithTerrainNum@2@@std@@YAPAUTPatchDrawStruct@CMapOutdoor@@PAU12@QAU12@10UFSortPatchDrawStructWithTerrainNum@2@@Z PROC ; std::_Merge_move<CMapOutdoor::TPatchDrawStruct *,CMapOutdoor::TPatchDrawStruct *,CMapOutdoor::FSortPatchDrawStructWithTerrainNum>, COMDAT

; 7842 : _OutIt _Merge_move(_InIt _First, const _InIt _Mid, const _InIt _Last, _OutIt _Dest, _Pr _Pred) {

  00000	55		 push	 ebp
  00001	8b ec		 mov	 ebp, esp
  00003	83 ec 14	 sub	 esp, 20			; 00000014H

; 7843 :     // move merging adjacent ranges [_First, _Mid) and [_Mid, _Last) to _Dest
; 7844 :     // pre: _First != _Mid && _Mid != _Last
; 7845 :     _InIt _Next = _Mid;

  00006	8b 45 0c	 mov	 eax, DWORD PTR __Mid$[ebp]
  00009	53		 push	 ebx
  0000a	56		 push	 esi
  0000b	89 45 f4	 mov	 DWORD PTR __Next$1$[ebp], eax
  0000e	57		 push	 edi
  0000f	90		 npad	 1
$LL2@Merge_move:
; File C:\Program Files (x86)\Microsoft Visual Studio\2019\Community\VC\Tools\MSVC\14.28.29333\include\xutility

; 5480 :     _Seek_wrapped(_First, _Find_unchecked(_Get_unwrapped(_First), _Get_unwrapped(_Last), _Val));

  00010	8b 1d 04 00 00
	00		 mov	 ebx, DWORD PTR ?m_TerrainNumVector@FSortPatchDrawStructWithTerrainNum@CMapOutdoor@@2V?$vector@EV?$allocator@E@std@@@std@@A+4

; 5461 :     _First =

  00016	8d 50 04	 lea	 edx, DWORD PTR [eax+4]
  00019	8b 0d 00 00 00
	00		 mov	 ecx, DWORD PTR ?m_TerrainNumVector@FSortPatchDrawStructWithTerrainNum@CMapOutdoor@@2V?$vector@EV?$allocator@E@std@@@std@@A
  0001f	8b c3		 mov	 eax, ebx
  00021	2b c1		 sub	 eax, ecx

; 5480 :     _Seek_wrapped(_First, _Find_unchecked(_Get_unwrapped(_First), _Get_unwrapped(_Last), _Val));

  00023	89 5d f8	 mov	 DWORD PTR tv1069[ebp], ebx
; File C:\Program Files (x86)\Windows Kits\10\Include\10.0.18362.0\ucrt\corecrt_memory.h

; 107  :         return const_cast<void*>(memchr(_Pvc, _C, _N));

  00026	50		 push	 eax
; File C:\Program Files (x86)\Microsoft Visual Studio\2019\Community\VC\Tools\MSVC\14.28.29333\include\xutility

; 5461 :     _First =

  00027	0f b6 02	 movzx	 eax, BYTE PTR [edx]
; File D:\Metin2 Server Files\mainline\SRC_2014\Metin2Client\GameLib\MapOutdoor.h

; 360  : 				DWORD lhsTerrainNumOrder = 0, rhsTerrainNumOrder = 0;

  0002a	33 ff		 xor	 edi, edi
; File C:\Program Files (x86)\Windows Kits\10\Include\10.0.18362.0\ucrt\corecrt_memory.h

; 107  :         return const_cast<void*>(memchr(_Pvc, _C, _N));

  0002c	50		 push	 eax
  0002d	51		 push	 ecx
; File C:\Program Files (x86)\Microsoft Visual Studio\2019\Community\VC\Tools\MSVC\14.28.29333\include\xutility

; 5461 :     _First =

  0002e	89 55 ec	 mov	 DWORD PTR tv1059[ebp], edx
; File C:\Program Files (x86)\Windows Kits\10\Include\10.0.18362.0\ucrt\corecrt_memory.h

; 107  :         return const_cast<void*>(memchr(_Pvc, _C, _N));

  00031	e8 00 00 00 00	 call	 _memchr
; File C:\Program Files (x86)\Microsoft Visual Studio\2019\Community\VC\Tools\MSVC\14.28.29333\include\xutility

; 5463 :     return _First ? _First : _Last;

  00036	85 c0		 test	 eax, eax
  00038	8b cb		 mov	 ecx, ebx
  0003a	0f 45 c8	 cmovne	 ecx, eax
; File C:\Program Files (x86)\Microsoft Visual Studio\2019\Community\VC\Tools\MSVC\14.28.29333\include\vector

; 195  :         _Ptr = _Refancy<_Tptr>(const_cast<value_type*>(_It));

  0003d	51		 push	 ecx
  0003e	e8 00 00 00 00	 call	 ??$_Refancy@PAE$0A@@std@@YAPAEPAE@Z ; std::_Refancy<unsigned char *,0>
; File C:\Program Files (x86)\Microsoft Visual Studio\2019\Community\VC\Tools\MSVC\14.28.29333\include\xutility

; 5461 :     _First =

  00043	8b 0d 00 00 00
	00		 mov	 ecx, DWORD PTR ?m_TerrainNumVector@FSortPatchDrawStructWithTerrainNum@CMapOutdoor@@2V?$vector@EV?$allocator@E@std@@@std@@A
; File C:\Program Files (x86)\Microsoft Visual Studio\2019\Community\VC\Tools\MSVC\14.28.29333\include\vector

; 195  :         _Ptr = _Refancy<_Tptr>(const_cast<value_type*>(_It));

  00049	8b f0		 mov	 esi, eax
; File C:\Program Files (x86)\Microsoft Visual Studio\2019\Community\VC\Tools\MSVC\14.28.29333\include\xutility

; 5461 :     _First =

  0004b	8b 45 08	 mov	 eax, DWORD PTR __First$[ebp]
  0004e	83 c0 04	 add	 eax, 4
  00051	89 45 f0	 mov	 DWORD PTR tv1054[ebp], eax
  00054	8a 10		 mov	 dl, BYTE PTR [eax]
  00056	8b c3		 mov	 eax, ebx
  00058	2b c1		 sub	 eax, ecx
  0005a	88 55 ff	 mov	 BYTE PTR tv1053[ebp], dl
; File C:\Program Files (x86)\Windows Kits\10\Include\10.0.18362.0\ucrt\corecrt_memory.h

; 107  :         return const_cast<void*>(memchr(_Pvc, _C, _N));

  0005d	50		 push	 eax
; File C:\Program Files (x86)\Microsoft Visual Studio\2019\Community\VC\Tools\MSVC\14.28.29333\include\xutility

; 5461 :     _First =

  0005e	0f b6 c2	 movzx	 eax, dl
; File C:\Program Files (x86)\Windows Kits\10\Include\10.0.18362.0\ucrt\corecrt_memory.h

; 107  :         return const_cast<void*>(memchr(_Pvc, _C, _N));

  00061	50		 push	 eax
  00062	51		 push	 ecx
  00063	e8 00 00 00 00	 call	 _memchr
; File C:\Program Files (x86)\Microsoft Visual Studio\2019\Community\VC\Tools\MSVC\14.28.29333\include\xutility

; 5463 :     return _First ? _First : _Last;

  00068	85 c0		 test	 eax, eax
  0006a	8b cb		 mov	 ecx, ebx
  0006c	0f 45 c8	 cmovne	 ecx, eax
; File C:\Program Files (x86)\Microsoft Visual Studio\2019\Community\VC\Tools\MSVC\14.28.29333\include\vector

; 195  :         _Ptr = _Refancy<_Tptr>(const_cast<value_type*>(_It));

  0006f	51		 push	 ecx
  00070	e8 00 00 00 00	 call	 ??$_Refancy@PAE$0A@@std@@YAPAEPAE@Z ; std::_Refancy<unsigned char *,0>
; File D:\Metin2 Server Files\mainline\SRC_2014\Metin2Client\GameLib\MapOutdoor.h

; 367  : 				if (lhsIterator != m_TerrainNumVector.end())

  00075	8b 0d 00 00 00
	00		 mov	 ecx, DWORD PTR ?m_TerrainNumVector@FSortPatchDrawStructWithTerrainNum@CMapOutdoor@@2V?$vector@EV?$allocator@E@std@@@std@@A
; File C:\Program Files (x86)\Microsoft Visual Studio\2019\Community\VC\Tools\MSVC\14.28.29333\include\xutility

; 5481 :     return _First;

  0007b	8b d3		 mov	 edx, ebx
; File C:\Program Files (x86)\Microsoft Visual Studio\2019\Community\VC\Tools\MSVC\14.28.29333\include\vector

; 195  :         _Ptr = _Refancy<_Tptr>(const_cast<value_type*>(_It));

  0007d	83 c4 20	 add	 esp, 32			; 00000020H
; File C:\Program Files (x86)\Microsoft Visual Studio\2019\Community\VC\Tools\MSVC\14.28.29333\include\xutility

; 5481 :     return _First;

  00080	3b f2		 cmp	 esi, edx
; File D:\Metin2 Server Files\mainline\SRC_2014\Metin2Client\GameLib\MapOutdoor.h

; 367  : 				if (lhsIterator != m_TerrainNumVector.end())

  00082	74 04		 je	 SHORT $LN11@Merge_move

; 368  : 				{
; 369  : 					blhsOrderFound = true;

  00084	8b fe		 mov	 edi, esi
  00086	2b f9		 sub	 edi, ecx
$LN11@Merge_move:
; File C:\Program Files (x86)\Microsoft Visual Studio\2019\Community\VC\Tools\MSVC\14.28.29333\include\vector

; 149  :         return _Ptr == _Right._Ptr;

  00088	3b c2		 cmp	 eax, edx
; File D:\Metin2 Server Files\mainline\SRC_2014\Metin2Client\GameLib\MapOutdoor.h

; 372  : 				if (rhsIterator != m_TerrainNumVector.end())

  0008a	74 04		 je	 SHORT $LN181@Merge_move
; File C:\Program Files (x86)\Microsoft Visual Studio\2019\Community\VC\Tools\MSVC\14.28.29333\include\vector

; 140  :         return _Ptr - _Right._Ptr;

  0008c	2b c1		 sub	 eax, ecx
; File D:\Metin2 Server Files\mainline\SRC_2014\Metin2Client\GameLib\MapOutdoor.h

; 377  : 				if (!brhsOrderFound)

  0008e	eb 3e		 jmp	 SHORT $LN184@Merge_move
$LN181@Merge_move:
; File C:\Program Files (x86)\Microsoft Visual Studio\2019\Community\VC\Tools\MSVC\14.28.29333\include\vector

; 704  :         if (_Mylast != _My_data._Myend) {

  00090	3b 15 08 00 00
	00		 cmp	 edx, DWORD PTR ?m_TerrainNumVector@FSortPatchDrawStructWithTerrainNum@CMapOutdoor@@2V?$vector@EV?$allocator@E@std@@@std@@A+8
  00096	74 14		 je	 SHORT $LN107@Merge_move

; 687  :         _Alty_traits::construct(_Getal(), _Unfancy(_Mylast), _STD forward<_Valty>(_Val)...);

  00098	8a 45 ff	 mov	 al, BYTE PTR tv1053[ebp]
  0009b	88 02		 mov	 BYTE PTR [edx], al

; 688  :         _Orphan_range(_Mylast, _Mylast);
; 689  :         _Ty& _Result = *_Mylast;
; 690  :         ++_Mylast;

  0009d	8b 1d 04 00 00
	00		 mov	 ebx, DWORD PTR ?m_TerrainNumVector@FSortPatchDrawStructWithTerrainNum@CMapOutdoor@@2V?$vector@EV?$allocator@E@std@@@std@@A+4
  000a3	43		 inc	 ebx
  000a4	89 1d 04 00 00
	00		 mov	 DWORD PTR ?m_TerrainNumVector@FSortPatchDrawStructWithTerrainNum@CMapOutdoor@@2V?$vector@EV?$allocator@E@std@@@std@@A+4, ebx

; 705  :             return _Emplace_back_with_unused_capacity(_STD forward<_Valty>(_Val)...);

  000aa	eb 17		 jmp	 SHORT $LN106@Merge_move
$LN107@Merge_move:

; 706  :         }
; 707  : 
; 708  :         _Ty& _Result = *_Emplace_reallocate(_Mylast, _STD forward<_Valty>(_Val)...);

  000ac	ff 75 f0	 push	 DWORD PTR tv1054[ebp]
  000af	b9 00 00 00 00	 mov	 ecx, OFFSET ?m_TerrainNumVector@FSortPatchDrawStructWithTerrainNum@CMapOutdoor@@2V?$vector@EV?$allocator@E@std@@@std@@A ; CMapOutdoor::FSortPatchDrawStructWithTerrainNum::m_TerrainNumVector
  000b4	52		 push	 edx
  000b5	e8 00 00 00 00	 call	 ??$_Emplace_reallocate@ABE@?$vector@EV?$allocator@E@std@@@std@@QAEPAEQAEABE@Z ; std::vector<unsigned char,std::allocator<unsigned char> >::_Emplace_reallocate<unsigned char const &>
  000ba	8b 1d 04 00 00
	00		 mov	 ebx, DWORD PTR ?m_TerrainNumVector@FSortPatchDrawStructWithTerrainNum@CMapOutdoor@@2V?$vector@EV?$allocator@E@std@@@std@@A+4
  000c0	8b 55 f8	 mov	 edx, DWORD PTR tv1069[ebp]
$LN106@Merge_move:
; File D:\Metin2 Server Files\mainline\SRC_2014\Metin2Client\GameLib\MapOutdoor.h

; 380  : 					rhsTerrainNumOrder = m_TerrainNumVector.size() -1;

  000c3	8b 0d 00 00 00
	00		 mov	 ecx, DWORD PTR ?m_TerrainNumVector@FSortPatchDrawStructWithTerrainNum@CMapOutdoor@@2V?$vector@EV?$allocator@E@std@@@std@@A
  000c9	8b c3		 mov	 eax, ebx
  000cb	2b c1		 sub	 eax, ecx
  000cd	48		 dec	 eax
$LN184@Merge_move:

; 381  : 				}
; 382  : 				if (!blhsOrderFound)

  000ce	89 45 f8	 mov	 DWORD PTR _rhsTerrainNumOrder$1$[ebp], eax
  000d1	3b f2		 cmp	 esi, edx
  000d3	75 64		 jne	 SHORT $LN16@Merge_move
; File C:\Program Files (x86)\Microsoft Visual Studio\2019\Community\VC\Tools\MSVC\14.28.29333\include\xutility

; 5461 :     _First =

  000d5	8b 75 ec	 mov	 esi, DWORD PTR tv1059[ebp]
  000d8	8b c3		 mov	 eax, ebx
  000da	2b c1		 sub	 eax, ecx
; File C:\Program Files (x86)\Windows Kits\10\Include\10.0.18362.0\ucrt\corecrt_memory.h

; 107  :         return const_cast<void*>(memchr(_Pvc, _C, _N));

  000dc	50		 push	 eax
; File C:\Program Files (x86)\Microsoft Visual Studio\2019\Community\VC\Tools\MSVC\14.28.29333\include\xutility

; 5461 :     _First =

  000dd	0f b6 06	 movzx	 eax, BYTE PTR [esi]
; File C:\Program Files (x86)\Windows Kits\10\Include\10.0.18362.0\ucrt\corecrt_memory.h

; 107  :         return const_cast<void*>(memchr(_Pvc, _C, _N));

  000e0	50		 push	 eax
  000e1	51		 push	 ecx
  000e2	e8 00 00 00 00	 call	 _memchr
; File C:\Program Files (x86)\Microsoft Visual Studio\2019\Community\VC\Tools\MSVC\14.28.29333\include\xutility

; 5463 :     return _First ? _First : _Last;

  000e7	85 c0		 test	 eax, eax
  000e9	8b cb		 mov	 ecx, ebx
  000eb	0f 45 c8	 cmovne	 ecx, eax
; File C:\Program Files (x86)\Microsoft Visual Studio\2019\Community\VC\Tools\MSVC\14.28.29333\include\vector

; 195  :         _Ptr = _Refancy<_Tptr>(const_cast<value_type*>(_It));

  000ee	51		 push	 ecx
  000ef	e8 00 00 00 00	 call	 ??$_Refancy@PAE$0A@@std@@YAPAEPAE@Z ; std::_Refancy<unsigned char *,0>
; File D:\Metin2 Server Files\mainline\SRC_2014\Metin2Client\GameLib\MapOutdoor.h

; 384  : 					lhsIterator = std::find(m_TerrainNumVector.begin(), m_TerrainNumVector.end(), lhs.byTerrainNum);

  000f4	8b f8		 mov	 edi, eax
; File C:\Program Files (x86)\Microsoft Visual Studio\2019\Community\VC\Tools\MSVC\14.28.29333\include\vector

; 195  :         _Ptr = _Refancy<_Tptr>(const_cast<value_type*>(_It));

  000f6	83 c4 10	 add	 esp, 16			; 00000010H
; File D:\Metin2 Server Files\mainline\SRC_2014\Metin2Client\GameLib\MapOutdoor.h

; 384  : 					lhsIterator = std::find(m_TerrainNumVector.begin(), m_TerrainNumVector.end(), lhs.byTerrainNum);

  000f9	3b fb		 cmp	 edi, ebx

; 385  : 					if (lhsIterator != m_TerrainNumVector.end())

  000fb	74 08		 je	 SHORT $LN182@Merge_move
; File C:\Program Files (x86)\Microsoft Visual Studio\2019\Community\VC\Tools\MSVC\14.28.29333\include\vector

; 140  :         return _Ptr - _Right._Ptr;

  000fd	2b 3d 00 00 00
	00		 sub	 edi, DWORD PTR ?m_TerrainNumVector@FSortPatchDrawStructWithTerrainNum@CMapOutdoor@@2V?$vector@EV?$allocator@E@std@@@std@@A
; File D:\Metin2 Server Files\mainline\SRC_2014\Metin2Client\GameLib\MapOutdoor.h

; 390  : 					if (!blhsOrderFound)

  00103	eb 34		 jmp	 SHORT $LN16@Merge_move
$LN182@Merge_move:
; File C:\Program Files (x86)\Microsoft Visual Studio\2019\Community\VC\Tools\MSVC\14.28.29333\include\vector

; 704  :         if (_Mylast != _My_data._Myend) {

  00105	3b 1d 08 00 00
	00		 cmp	 ebx, DWORD PTR ?m_TerrainNumVector@FSortPatchDrawStructWithTerrainNum@CMapOutdoor@@2V?$vector@EV?$allocator@E@std@@@std@@A+8
  0010b	74 13		 je	 SHORT $LN159@Merge_move

; 687  :         _Alty_traits::construct(_Getal(), _Unfancy(_Mylast), _STD forward<_Valty>(_Val)...);

  0010d	8a 06		 mov	 al, BYTE PTR [esi]
  0010f	88 03		 mov	 BYTE PTR [ebx], al

; 688  :         _Orphan_range(_Mylast, _Mylast);
; 689  :         _Ty& _Result = *_Mylast;
; 690  :         ++_Mylast;

  00111	8b 3d 04 00 00
	00		 mov	 edi, DWORD PTR ?m_TerrainNumVector@FSortPatchDrawStructWithTerrainNum@CMapOutdoor@@2V?$vector@EV?$allocator@E@std@@@std@@A+4
  00117	47		 inc	 edi
  00118	89 3d 04 00 00
	00		 mov	 DWORD PTR ?m_TerrainNumVector@FSortPatchDrawStructWithTerrainNum@CMapOutdoor@@2V?$vector@EV?$allocator@E@std@@@std@@A+4, edi

; 705  :             return _Emplace_back_with_unused_capacity(_STD forward<_Valty>(_Val)...);

  0011e	eb 12		 jmp	 SHORT $LN158@Merge_move
$LN159@Merge_move:

; 706  :         }
; 707  : 
; 708  :         _Ty& _Result = *_Emplace_reallocate(_Mylast, _STD forward<_Valty>(_Val)...);

  00120	56		 push	 esi
  00121	53		 push	 ebx
  00122	b9 00 00 00 00	 mov	 ecx, OFFSET ?m_TerrainNumVector@FSortPatchDrawStructWithTerrainNum@CMapOutdoor@@2V?$vector@EV?$allocator@E@std@@@std@@A ; CMapOutdoor::FSortPatchDrawStructWithTerrainNum::m_TerrainNumVector
  00127	e8 00 00 00 00	 call	 ??$_Emplace_reallocate@ABE@?$vector@EV?$allocator@E@std@@@std@@QAEPAEQAEABE@Z ; std::vector<unsigned char,std::allocator<unsigned char> >::_Emplace_reallocate<unsigned char const &>
  0012c	8b 3d 04 00 00
	00		 mov	 edi, DWORD PTR ?m_TerrainNumVector@FSortPatchDrawStructWithTerrainNum@CMapOutdoor@@2V?$vector@EV?$allocator@E@std@@@std@@A+4
$LN158@Merge_move:
; File D:\Metin2 Server Files\mainline\SRC_2014\Metin2Client\GameLib\MapOutdoor.h

; 393  : 						lhsTerrainNumOrder = m_TerrainNumVector.size() -1;

  00132	2b 3d 00 00 00
	00		 sub	 edi, DWORD PTR ?m_TerrainNumVector@FSortPatchDrawStructWithTerrainNum@CMapOutdoor@@2V?$vector@EV?$allocator@E@std@@@std@@A
  00138	4f		 dec	 edi
$LN16@Merge_move:

; 394  : 					}
; 395  : 				}
; 396  : 
; 397  : 				return lhsTerrainNumOrder < rhsTerrainNumOrder;

  00139	8b 4d 14	 mov	 ecx, DWORD PTR __Dest$[ebp]
  0013c	8d 51 10	 lea	 edx, DWORD PTR [ecx+16]
  0013f	3b 7d f8	 cmp	 edi, DWORD PTR _rhsTerrainNumOrder$1$[ebp]
; File C:\Program Files (x86)\Microsoft Visual Studio\2019\Community\VC\Tools\MSVC\14.28.29333\include\algorithm

; 7847 :         if (_DEBUG_LT_PRED(_Pred, *_Next, *_First)) {

  00142	73 2a		 jae	 SHORT $LN5@Merge_move

; 7848 :             *_Dest = _STD move(*_Next);

  00144	8b 45 f4	 mov	 eax, DWORD PTR __Next$1$[ebp]
  00147	0f 10 00	 movups	 xmm0, XMMWORD PTR [eax]

; 7849 :             ++_Dest;
; 7850 :             ++_Next;

  0014a	83 c0 10	 add	 eax, 16			; 00000010H
  0014d	89 45 f4	 mov	 DWORD PTR __Next$1$[ebp], eax
  00150	0f 11 01	 movups	 XMMWORD PTR [ecx], xmm0

; 7851 : 
; 7852 :             if (_Next == _Last) {

  00153	3b 45 10	 cmp	 eax, DWORD PTR __Last$[ebp]
  00156	75 2d		 jne	 SHORT $LN8@Merge_move
; File C:\Program Files (x86)\Microsoft Visual Studio\2019\Community\VC\Tools\MSVC\14.28.29333\include\xutility

; 4628 :             return _Copy_memmove(_First, _Last, _Dest);

  00158	52		 push	 edx
  00159	ff 75 0c	 push	 DWORD PTR __Mid$[ebp]
  0015c	ff 75 08	 push	 DWORD PTR __First$[ebp]
; File C:\Program Files (x86)\Microsoft Visual Studio\2019\Community\VC\Tools\MSVC\14.28.29333\include\algorithm

; 7865 : }

  0015f	e8 00 00 00 00	 call	 ??$_Copy_memmove@PAUTPatchDrawStruct@CMapOutdoor@@PAU12@@std@@YAPAUTPatchDrawStruct@CMapOutdoor@@PAU12@00@Z ; std::_Copy_memmove<CMapOutdoor::TPatchDrawStruct *,CMapOutdoor::TPatchDrawStruct *>
  00164	83 c4 0c	 add	 esp, 12			; 0000000cH
  00167	5f		 pop	 edi
  00168	5e		 pop	 esi
  00169	5b		 pop	 ebx
  0016a	8b e5		 mov	 esp, ebp
  0016c	5d		 pop	 ebp
  0016d	c3		 ret	 0
$LN5@Merge_move:

; 7853 :                 return _Move_unchecked(_First, _Mid, _Dest);
; 7854 :             }
; 7855 :         } else {
; 7856 :             *_Dest = _STD move(*_First);

  0016e	8b 45 08	 mov	 eax, DWORD PTR __First$[ebp]
  00171	0f 10 00	 movups	 xmm0, XMMWORD PTR [eax]

; 7857 :             ++_Dest;
; 7858 :             ++_First;

  00174	83 c0 10	 add	 eax, 16			; 00000010H
  00177	89 45 08	 mov	 DWORD PTR __First$[ebp], eax
  0017a	0f 11 01	 movups	 XMMWORD PTR [ecx], xmm0

; 7859 : 
; 7860 :             if (_First == _Mid) {

  0017d	3b 45 0c	 cmp	 eax, DWORD PTR __Mid$[ebp]
  00180	74 0b		 je	 SHORT $LN178@Merge_move
  00182	8b 45 f4	 mov	 eax, DWORD PTR __Next$1$[ebp]
$LN8@Merge_move:

; 7861 :                 return _Move_unchecked(_Next, _Last, _Dest);
; 7862 :             }
; 7863 :         }
; 7864 :     }

  00185	89 55 14	 mov	 DWORD PTR __Dest$[ebp], edx
  00188	e9 83 fe ff ff	 jmp	 $LL2@Merge_move
$LN178@Merge_move:
; File C:\Program Files (x86)\Microsoft Visual Studio\2019\Community\VC\Tools\MSVC\14.28.29333\include\xutility

; 4628 :             return _Copy_memmove(_First, _Last, _Dest);

  0018d	52		 push	 edx
  0018e	ff 75 10	 push	 DWORD PTR __Last$[ebp]
  00191	ff 75 f4	 push	 DWORD PTR __Next$1$[ebp]
; File C:\Program Files (x86)\Microsoft Visual Studio\2019\Community\VC\Tools\MSVC\14.28.29333\include\algorithm

; 7865 : }

  00194	e8 00 00 00 00	 call	 ??$_Copy_memmove@PAUTPatchDrawStruct@CMapOutdoor@@PAU12@@std@@YAPAUTPatchDrawStruct@CMapOutdoor@@PAU12@00@Z ; std::_Copy_memmove<CMapOutdoor::TPatchDrawStruct *,CMapOutdoor::TPatchDrawStruct *>
  00199	83 c4 0c	 add	 esp, 12			; 0000000cH
  0019c	5f		 pop	 edi
  0019d	5e		 pop	 esi
  0019e	5b		 pop	 ebx
  0019f	8b e5		 mov	 esp, ebp
  001a1	5d		 pop	 ebp
  001a2	c3		 ret	 0
??$_Merge_move@PAUTPatchDrawStruct@CMapOutdoor@@PAU12@UFSortPatchDrawStructWithTerrainNum@2@@std@@YAPAUTPatchDrawStruct@CMapOutdoor@@PAU12@QAU12@10UFSortPatchDrawStructWithTerrainNum@2@@Z ENDP ; std::_Merge_move<CMapOutdoor::TPatchDrawStruct *,CMapOutdoor::TPatchDrawStruct *,CMapOutdoor::FSortPatchDrawStructWithTerrainNum>
_TEXT	ENDS
; Function compile flags: /Ogtp
; File C:\Program Files (x86)\Microsoft Visual Studio\2019\Community\VC\Tools\MSVC\14.28.29333\include\xmemory
;	COMDAT ??$_Uninitialized_move_unchecked@PAUTPatchDrawStruct@CMapOutdoor@@PAU12@@std@@YAPAUTPatchDrawStruct@CMapOutdoor@@PAU12@QAU12@0@Z
_TEXT	SEGMENT
__First$ = 8						; size = 4
__Last$ = 12						; size = 4
__Dest$ = 16						; size = 4
??$_Uninitialized_move_unchecked@PAUTPatchDrawStruct@CMapOutdoor@@PAU12@@std@@YAPAUTPatchDrawStruct@CMapOutdoor@@PAU12@QAU12@0@Z PROC ; std::_Uninitialized_move_unchecked<CMapOutdoor::TPatchDrawStruct *,CMapOutdoor::TPatchDrawStruct *>, COMDAT

; 1489 : _NoThrowFwdIt _Uninitialized_move_unchecked(_InIt _First, const _InIt _Last, _NoThrowFwdIt _Dest) {

  00000	55		 push	 ebp
  00001	8b ec		 mov	 ebp, esp

; 1493 :     } else {
; 1494 :         _Uninitialized_backout<_NoThrowFwdIt> _Backout{_Dest};
; 1495 :         for (; _First != _Last; ++_First) {
; 1496 :             _Backout._Emplace_back(_STD move(*_First));
; 1497 :         }
; 1498 : 
; 1499 :         return _Backout._Release();
; 1500 :     }
; 1501 : }

  00003	5d		 pop	 ebp

; 1490 :     // move [_First, _Last) to raw [_Dest, ...)
; 1491 :     if constexpr (_Ptr_move_cat<_InIt, _NoThrowFwdIt>::_Really_trivial) {
; 1492 :         return _Copy_memmove(_First, _Last, _Dest);

  00004	e9 00 00 00 00	 jmp	 ??$_Copy_memmove@PAUTPatchDrawStruct@CMapOutdoor@@PAU12@@std@@YAPAUTPatchDrawStruct@CMapOutdoor@@PAU12@00@Z ; std::_Copy_memmove<CMapOutdoor::TPatchDrawStruct *,CMapOutdoor::TPatchDrawStruct *>
??$_Uninitialized_move_unchecked@PAUTPatchDrawStruct@CMapOutdoor@@PAU12@@std@@YAPAUTPatchDrawStruct@CMapOutdoor@@PAU12@QAU12@0@Z ENDP ; std::_Uninitialized_move_unchecked<CMapOutdoor::TPatchDrawStruct *,CMapOutdoor::TPatchDrawStruct *>
_TEXT	ENDS
; Function compile flags: /Ogtp
; File C:\Program Files (x86)\Microsoft Visual Studio\2019\Community\VC\Tools\MSVC\14.28.29333\include\algorithm
; File C:\Program Files (x86)\Microsoft Visual Studio\2019\Community\VC\Tools\MSVC\14.28.29333\include\xutility
; File C:\Program Files (x86)\Windows Kits\10\Include\10.0.18362.0\ucrt\corecrt_memory.h
; File C:\Program Files (x86)\Microsoft Visual Studio\2019\Community\VC\Tools\MSVC\14.28.29333\include\xutility
; File D:\Metin2 Server Files\mainline\SRC_2014\Metin2Client\GameLib\MapOutdoor.h
; File C:\Program Files (x86)\Windows Kits\10\Include\10.0.18362.0\ucrt\corecrt_memory.h
; File C:\Program Files (x86)\Microsoft Visual Studio\2019\Community\VC\Tools\MSVC\14.28.29333\include\xutility
; File C:\Program Files (x86)\Windows Kits\10\Include\10.0.18362.0\ucrt\corecrt_memory.h
; File C:\Program Files (x86)\Microsoft Visual Studio\2019\Community\VC\Tools\MSVC\14.28.29333\include\xutility
; File C:\Program Files (x86)\Microsoft Visual Studio\2019\Community\VC\Tools\MSVC\14.28.29333\include\vector
; File C:\Program Files (x86)\Microsoft Visual Studio\2019\Community\VC\Tools\MSVC\14.28.29333\include\xutility
; File C:\Program Files (x86)\Microsoft Visual Studio\2019\Community\VC\Tools\MSVC\14.28.29333\include\vector
; File C:\Program Files (x86)\Microsoft Visual Studio\2019\Community\VC\Tools\MSVC\14.28.29333\include\xutility
; File C:\Program Files (x86)\Windows Kits\10\Include\10.0.18362.0\ucrt\corecrt_memory.h
; File C:\Program Files (x86)\Microsoft Visual Studio\2019\Community\VC\Tools\MSVC\14.28.29333\include\xutility
; File C:\Program Files (x86)\Windows Kits\10\Include\10.0.18362.0\ucrt\corecrt_memory.h
; File C:\Program Files (x86)\Microsoft Visual Studio\2019\Community\VC\Tools\MSVC\14.28.29333\include\xutility
; File C:\Program Files (x86)\Microsoft Visual Studio\2019\Community\VC\Tools\MSVC\14.28.29333\include\vector
; File D:\Metin2 Server Files\mainline\SRC_2014\Metin2Client\GameLib\MapOutdoor.h
; File C:\Program Files (x86)\Microsoft Visual Studio\2019\Community\VC\Tools\MSVC\14.28.29333\include\xutility
; File C:\Program Files (x86)\Microsoft Visual Studio\2019\Community\VC\Tools\MSVC\14.28.29333\include\vector
; File C:\Program Files (x86)\Microsoft Visual Studio\2019\Community\VC\Tools\MSVC\14.28.29333\include\xutility
; File D:\Metin2 Server Files\mainline\SRC_2014\Metin2Client\GameLib\MapOutdoor.h
; File C:\Program Files (x86)\Microsoft Visual Studio\2019\Community\VC\Tools\MSVC\14.28.29333\include\vector
; File D:\Metin2 Server Files\mainline\SRC_2014\Metin2Client\GameLib\MapOutdoor.h
; File C:\Program Files (x86)\Microsoft Visual Studio\2019\Community\VC\Tools\MSVC\14.28.29333\include\vector
; File D:\Metin2 Server Files\mainline\SRC_2014\Metin2Client\GameLib\MapOutdoor.h
; File C:\Program Files (x86)\Microsoft Visual Studio\2019\Community\VC\Tools\MSVC\14.28.29333\include\vector
; File D:\Metin2 Server Files\mainline\SRC_2014\Metin2Client\GameLib\MapOutdoor.h
; File C:\Program Files (x86)\Microsoft Visual Studio\2019\Community\VC\Tools\MSVC\14.28.29333\include\xutility
; File C:\Program Files (x86)\Windows Kits\10\Include\10.0.18362.0\ucrt\corecrt_memory.h
; File C:\Program Files (x86)\Microsoft Visual Studio\2019\Community\VC\Tools\MSVC\14.28.29333\include\xutility
; File C:\Program Files (x86)\Windows Kits\10\Include\10.0.18362.0\ucrt\corecrt_memory.h
; File C:\Program Files (x86)\Microsoft Visual Studio\2019\Community\VC\Tools\MSVC\14.28.29333\include\xutility
; File C:\Program Files (x86)\Microsoft Visual Studio\2019\Community\VC\Tools\MSVC\14.28.29333\include\vector
; File D:\Metin2 Server Files\mainline\SRC_2014\Metin2Client\GameLib\MapOutdoor.h
; File C:\Program Files (x86)\Microsoft Visual Studio\2019\Community\VC\Tools\MSVC\14.28.29333\include\vector
; File D:\Metin2 Server Files\mainline\SRC_2014\Metin2Client\GameLib\MapOutdoor.h
; File C:\Program Files (x86)\Microsoft Visual Studio\2019\Community\VC\Tools\MSVC\14.28.29333\include\vector
; File D:\Metin2 Server Files\mainline\SRC_2014\Metin2Client\GameLib\MapOutdoor.h
; File C:\Program Files (x86)\Microsoft Visual Studio\2019\Community\VC\Tools\MSVC\14.28.29333\include\vector
; File D:\Metin2 Server Files\mainline\SRC_2014\Metin2Client\GameLib\MapOutdoor.h
; File C:\Program Files (x86)\Microsoft Visual Studio\2019\Community\VC\Tools\MSVC\14.28.29333\include\algorithm
; File C:\Program Files (x86)\Microsoft Visual Studio\2019\Community\VC\Tools\MSVC\14.28.29333\include\xmemory
; File C:\Program Files (x86)\Microsoft Visual Studio\2019\Community\VC\Tools\MSVC\14.28.29333\include\algorithm
; File C:\Program Files (x86)\Microsoft Visual Studio\2019\Community\VC\Tools\MSVC\14.28.29333\include\xmemory
; File C:\Program Files (x86)\Microsoft Visual Studio\2019\Community\VC\Tools\MSVC\14.28.29333\include\algorithm
; File C:\Program Files (x86)\Microsoft Visual Studio\2019\Community\VC\Tools\MSVC\14.28.29333\include\xmemory
; File C:\Program Files (x86)\Microsoft Visual Studio\2019\Community\VC\Tools\MSVC\14.28.29333\include\algorithm
; File C:\Program Files (x86)\Microsoft Visual Studio\2019\Community\VC\Tools\MSVC\14.28.29333\include\xmemory
; File C:\Program Files (x86)\Microsoft Visual Studio\2019\Community\VC\Tools\MSVC\14.28.29333\include\algorithm
; File C:\Program Files (x86)\Microsoft Visual Studio\2019\Community\VC\Tools\MSVC\14.28.29333\include\xmemory
; File C:\Program Files (x86)\Microsoft Visual Studio\2019\Community\VC\Tools\MSVC\14.28.29333\include\algorithm
;	COMDAT ??$_Uninitialized_merge_move@PAUTPatchDrawStruct@CMapOutdoor@@U12@UFSortPatchDrawStructWithTerrainNum@2@@std@@YAPAUTPatchDrawStruct@CMapOutdoor@@PAU12@QAU12@11UFSortPatchDrawStructWithTerrainNum@2@@Z
_TEXT	SEGMENT
tv1087 = -20						; size = 4
tv1083 = -16						; size = 4
__Next$1$ = -12						; size = 4
tv1102 = -8						; size = 4
_rhsTerrainNumOrder$1$ = -8				; size = 4
tv1086 = -1						; size = 1
tv1082 = -1						; size = 1
__First$ = 8						; size = 4
__Mid$ = 12						; size = 4
__Last$ = 16						; size = 4
tv1093 = 20						; size = 4
__Dest$ = 20						; size = 4
__Pred$ = 24						; size = 1
??$_Uninitialized_merge_move@PAUTPatchDrawStruct@CMapOutdoor@@U12@UFSortPatchDrawStructWithTerrainNum@2@@std@@YAPAUTPatchDrawStruct@CMapOutdoor@@PAU12@QAU12@11UFSortPatchDrawStructWithTerrainNum@2@@Z PROC ; std::_Uninitialized_merge_move<CMapOutdoor::TPatchDrawStruct *,CMapOutdoor::TPatchDrawStruct,CMapOutdoor::FSortPatchDrawStructWithTerrainNum>, COMDAT

; 7815 : _Ty* _Uninitialized_merge_move(_FwdIt _First, const _FwdIt _Mid, const _FwdIt _Last, _Ty* const _Dest, _Pr _Pred) {

  00000	55		 push	 ebp
  00001	8b ec		 mov	 ebp, esp
  00003	83 ec 14	 sub	 esp, 20			; 00000014H
  00006	53		 push	 ebx
  00007	56		 push	 esi

; 7816 :     // move merging ranges to uninitialized storage
; 7817 :     // pre: _First != _Mid && _Mid != _Last
; 7818 :     _Uninitialized_backout<_Ty*> _Backout{_Dest};
; 7819 :     _FwdIt _Next = _Mid;

  00008	8b 75 0c	 mov	 esi, DWORD PTR __Mid$[ebp]
  0000b	57		 push	 edi
  0000c	89 75 f4	 mov	 DWORD PTR __Next$1$[ebp], esi
  0000f	90		 npad	 1
$LL2@Uninitiali:
; File C:\Program Files (x86)\Microsoft Visual Studio\2019\Community\VC\Tools\MSVC\14.28.29333\include\xutility

; 5480 :     _Seek_wrapped(_First, _Find_unchecked(_Get_unwrapped(_First), _Get_unwrapped(_Last), _Val));

  00010	8b 1d 04 00 00
	00		 mov	 ebx, DWORD PTR ?m_TerrainNumVector@FSortPatchDrawStructWithTerrainNum@CMapOutdoor@@2V?$vector@EV?$allocator@E@std@@@std@@A+4

; 5461 :     _First =

  00016	8d 56 04	 lea	 edx, DWORD PTR [esi+4]
  00019	8b 0d 00 00 00
	00		 mov	 ecx, DWORD PTR ?m_TerrainNumVector@FSortPatchDrawStructWithTerrainNum@CMapOutdoor@@2V?$vector@EV?$allocator@E@std@@@std@@A
  0001f	8b c3		 mov	 eax, ebx
  00021	2b c1		 sub	 eax, ecx

; 5480 :     _Seek_wrapped(_First, _Find_unchecked(_Get_unwrapped(_First), _Get_unwrapped(_Last), _Val));

  00023	89 5d f8	 mov	 DWORD PTR tv1102[ebp], ebx
; File C:\Program Files (x86)\Windows Kits\10\Include\10.0.18362.0\ucrt\corecrt_memory.h

; 107  :         return const_cast<void*>(memchr(_Pvc, _C, _N));

  00026	50		 push	 eax
; File C:\Program Files (x86)\Microsoft Visual Studio\2019\Community\VC\Tools\MSVC\14.28.29333\include\xutility

; 5461 :     _First =

  00027	0f b6 02	 movzx	 eax, BYTE PTR [edx]
; File D:\Metin2 Server Files\mainline\SRC_2014\Metin2Client\GameLib\MapOutdoor.h

; 360  : 				DWORD lhsTerrainNumOrder = 0, rhsTerrainNumOrder = 0;

  0002a	33 ff		 xor	 edi, edi
; File C:\Program Files (x86)\Windows Kits\10\Include\10.0.18362.0\ucrt\corecrt_memory.h

; 107  :         return const_cast<void*>(memchr(_Pvc, _C, _N));

  0002c	50		 push	 eax
  0002d	51		 push	 ecx
; File C:\Program Files (x86)\Microsoft Visual Studio\2019\Community\VC\Tools\MSVC\14.28.29333\include\xutility

; 5461 :     _First =

  0002e	89 55 ec	 mov	 DWORD PTR tv1087[ebp], edx
; File C:\Program Files (x86)\Windows Kits\10\Include\10.0.18362.0\ucrt\corecrt_memory.h

; 107  :         return const_cast<void*>(memchr(_Pvc, _C, _N));

  00031	e8 00 00 00 00	 call	 _memchr
; File C:\Program Files (x86)\Microsoft Visual Studio\2019\Community\VC\Tools\MSVC\14.28.29333\include\xutility

; 5463 :     return _First ? _First : _Last;

  00036	85 c0		 test	 eax, eax
  00038	8b cb		 mov	 ecx, ebx
  0003a	0f 45 c8	 cmovne	 ecx, eax
; File C:\Program Files (x86)\Microsoft Visual Studio\2019\Community\VC\Tools\MSVC\14.28.29333\include\vector

; 195  :         _Ptr = _Refancy<_Tptr>(const_cast<value_type*>(_It));

  0003d	51		 push	 ecx
  0003e	e8 00 00 00 00	 call	 ??$_Refancy@PAE$0A@@std@@YAPAEPAE@Z ; std::_Refancy<unsigned char *,0>
; File C:\Program Files (x86)\Microsoft Visual Studio\2019\Community\VC\Tools\MSVC\14.28.29333\include\xutility

; 5461 :     _First =

  00043	8b 0d 00 00 00
	00		 mov	 ecx, DWORD PTR ?m_TerrainNumVector@FSortPatchDrawStructWithTerrainNum@CMapOutdoor@@2V?$vector@EV?$allocator@E@std@@@std@@A
; File C:\Program Files (x86)\Microsoft Visual Studio\2019\Community\VC\Tools\MSVC\14.28.29333\include\vector

; 195  :         _Ptr = _Refancy<_Tptr>(const_cast<value_type*>(_It));

  00049	8b f0		 mov	 esi, eax
; File C:\Program Files (x86)\Microsoft Visual Studio\2019\Community\VC\Tools\MSVC\14.28.29333\include\xutility

; 5461 :     _First =

  0004b	8b 45 08	 mov	 eax, DWORD PTR __First$[ebp]
  0004e	83 c0 04	 add	 eax, 4
  00051	89 45 f0	 mov	 DWORD PTR tv1083[ebp], eax
  00054	8a 10		 mov	 dl, BYTE PTR [eax]
  00056	8b c3		 mov	 eax, ebx
  00058	2b c1		 sub	 eax, ecx
  0005a	88 55 ff	 mov	 BYTE PTR tv1082[ebp], dl
; File C:\Program Files (x86)\Windows Kits\10\Include\10.0.18362.0\ucrt\corecrt_memory.h

; 107  :         return const_cast<void*>(memchr(_Pvc, _C, _N));

  0005d	50		 push	 eax
; File C:\Program Files (x86)\Microsoft Visual Studio\2019\Community\VC\Tools\MSVC\14.28.29333\include\xutility

; 5461 :     _First =

  0005e	0f b6 c2	 movzx	 eax, dl
; File C:\Program Files (x86)\Windows Kits\10\Include\10.0.18362.0\ucrt\corecrt_memory.h

; 107  :         return const_cast<void*>(memchr(_Pvc, _C, _N));

  00061	50		 push	 eax
  00062	51		 push	 ecx
  00063	e8 00 00 00 00	 call	 _memchr
; File C:\Program Files (x86)\Microsoft Visual Studio\2019\Community\VC\Tools\MSVC\14.28.29333\include\xutility

; 5463 :     return _First ? _First : _Last;

  00068	85 c0		 test	 eax, eax
  0006a	8b cb		 mov	 ecx, ebx
  0006c	0f 45 c8	 cmovne	 ecx, eax
; File C:\Program Files (x86)\Microsoft Visual Studio\2019\Community\VC\Tools\MSVC\14.28.29333\include\vector

; 195  :         _Ptr = _Refancy<_Tptr>(const_cast<value_type*>(_It));

  0006f	51		 push	 ecx
  00070	e8 00 00 00 00	 call	 ??$_Refancy@PAE$0A@@std@@YAPAEPAE@Z ; std::_Refancy<unsigned char *,0>
; File D:\Metin2 Server Files\mainline\SRC_2014\Metin2Client\GameLib\MapOutdoor.h

; 367  : 				if (lhsIterator != m_TerrainNumVector.end())

  00075	8b 0d 00 00 00
	00		 mov	 ecx, DWORD PTR ?m_TerrainNumVector@FSortPatchDrawStructWithTerrainNum@CMapOutdoor@@2V?$vector@EV?$allocator@E@std@@@std@@A
; File C:\Program Files (x86)\Microsoft Visual Studio\2019\Community\VC\Tools\MSVC\14.28.29333\include\xutility

; 5481 :     return _First;

  0007b	8b d3		 mov	 edx, ebx
; File C:\Program Files (x86)\Microsoft Visual Studio\2019\Community\VC\Tools\MSVC\14.28.29333\include\vector

; 195  :         _Ptr = _Refancy<_Tptr>(const_cast<value_type*>(_It));

  0007d	83 c4 20	 add	 esp, 32			; 00000020H
; File C:\Program Files (x86)\Microsoft Visual Studio\2019\Community\VC\Tools\MSVC\14.28.29333\include\xutility

; 5481 :     return _First;

  00080	3b f2		 cmp	 esi, edx
; File D:\Metin2 Server Files\mainline\SRC_2014\Metin2Client\GameLib\MapOutdoor.h

; 367  : 				if (lhsIterator != m_TerrainNumVector.end())

  00082	74 04		 je	 SHORT $LN14@Uninitiali

; 368  : 				{
; 369  : 					blhsOrderFound = true;

  00084	8b fe		 mov	 edi, esi
  00086	2b f9		 sub	 edi, ecx
$LN14@Uninitiali:
; File C:\Program Files (x86)\Microsoft Visual Studio\2019\Community\VC\Tools\MSVC\14.28.29333\include\vector

; 149  :         return _Ptr == _Right._Ptr;

  00088	3b c2		 cmp	 eax, edx
; File D:\Metin2 Server Files\mainline\SRC_2014\Metin2Client\GameLib\MapOutdoor.h

; 372  : 				if (rhsIterator != m_TerrainNumVector.end())

  0008a	74 04		 je	 SHORT $LN182@Uninitiali
; File C:\Program Files (x86)\Microsoft Visual Studio\2019\Community\VC\Tools\MSVC\14.28.29333\include\vector

; 140  :         return _Ptr - _Right._Ptr;

  0008c	2b c1		 sub	 eax, ecx
; File D:\Metin2 Server Files\mainline\SRC_2014\Metin2Client\GameLib\MapOutdoor.h

; 377  : 				if (!brhsOrderFound)

  0008e	eb 3e		 jmp	 SHORT $LN185@Uninitiali
$LN182@Uninitiali:
; File C:\Program Files (x86)\Microsoft Visual Studio\2019\Community\VC\Tools\MSVC\14.28.29333\include\vector

; 704  :         if (_Mylast != _My_data._Myend) {

  00090	3b 15 08 00 00
	00		 cmp	 edx, DWORD PTR ?m_TerrainNumVector@FSortPatchDrawStructWithTerrainNum@CMapOutdoor@@2V?$vector@EV?$allocator@E@std@@@std@@A+8
  00096	74 14		 je	 SHORT $LN110@Uninitiali

; 687  :         _Alty_traits::construct(_Getal(), _Unfancy(_Mylast), _STD forward<_Valty>(_Val)...);

  00098	8a 45 ff	 mov	 al, BYTE PTR tv1082[ebp]
  0009b	88 02		 mov	 BYTE PTR [edx], al

; 688  :         _Orphan_range(_Mylast, _Mylast);
; 689  :         _Ty& _Result = *_Mylast;
; 690  :         ++_Mylast;

  0009d	8b 1d 04 00 00
	00		 mov	 ebx, DWORD PTR ?m_TerrainNumVector@FSortPatchDrawStructWithTerrainNum@CMapOutdoor@@2V?$vector@EV?$allocator@E@std@@@std@@A+4
  000a3	43		 inc	 ebx
  000a4	89 1d 04 00 00
	00		 mov	 DWORD PTR ?m_TerrainNumVector@FSortPatchDrawStructWithTerrainNum@CMapOutdoor@@2V?$vector@EV?$allocator@E@std@@@std@@A+4, ebx

; 705  :             return _Emplace_back_with_unused_capacity(_STD forward<_Valty>(_Val)...);

  000aa	eb 17		 jmp	 SHORT $LN109@Uninitiali
$LN110@Uninitiali:

; 706  :         }
; 707  : 
; 708  :         _Ty& _Result = *_Emplace_reallocate(_Mylast, _STD forward<_Valty>(_Val)...);

  000ac	ff 75 f0	 push	 DWORD PTR tv1083[ebp]
  000af	b9 00 00 00 00	 mov	 ecx, OFFSET ?m_TerrainNumVector@FSortPatchDrawStructWithTerrainNum@CMapOutdoor@@2V?$vector@EV?$allocator@E@std@@@std@@A ; CMapOutdoor::FSortPatchDrawStructWithTerrainNum::m_TerrainNumVector
  000b4	52		 push	 edx
  000b5	e8 00 00 00 00	 call	 ??$_Emplace_reallocate@ABE@?$vector@EV?$allocator@E@std@@@std@@QAEPAEQAEABE@Z ; std::vector<unsigned char,std::allocator<unsigned char> >::_Emplace_reallocate<unsigned char const &>
  000ba	8b 1d 04 00 00
	00		 mov	 ebx, DWORD PTR ?m_TerrainNumVector@FSortPatchDrawStructWithTerrainNum@CMapOutdoor@@2V?$vector@EV?$allocator@E@std@@@std@@A+4
  000c0	8b 55 f8	 mov	 edx, DWORD PTR tv1102[ebp]
$LN109@Uninitiali:
; File D:\Metin2 Server Files\mainline\SRC_2014\Metin2Client\GameLib\MapOutdoor.h

; 380  : 					rhsTerrainNumOrder = m_TerrainNumVector.size() -1;

  000c3	8b 0d 00 00 00
	00		 mov	 ecx, DWORD PTR ?m_TerrainNumVector@FSortPatchDrawStructWithTerrainNum@CMapOutdoor@@2V?$vector@EV?$allocator@E@std@@@std@@A
  000c9	8b c3		 mov	 eax, ebx
  000cb	2b c1		 sub	 eax, ecx
  000cd	48		 dec	 eax
$LN185@Uninitiali:

; 381  : 				}
; 382  : 				if (!blhsOrderFound)

  000ce	89 45 f8	 mov	 DWORD PTR _rhsTerrainNumOrder$1$[ebp], eax
  000d1	3b f2		 cmp	 esi, edx
  000d3	75 64		 jne	 SHORT $LN19@Uninitiali
; File C:\Program Files (x86)\Microsoft Visual Studio\2019\Community\VC\Tools\MSVC\14.28.29333\include\xutility

; 5461 :     _First =

  000d5	8b 75 ec	 mov	 esi, DWORD PTR tv1087[ebp]
  000d8	8b c3		 mov	 eax, ebx
  000da	2b c1		 sub	 eax, ecx
; File C:\Program Files (x86)\Windows Kits\10\Include\10.0.18362.0\ucrt\corecrt_memory.h

; 107  :         return const_cast<void*>(memchr(_Pvc, _C, _N));

  000dc	50		 push	 eax
; File C:\Program Files (x86)\Microsoft Visual Studio\2019\Community\VC\Tools\MSVC\14.28.29333\include\xutility

; 5461 :     _First =

  000dd	0f b6 06	 movzx	 eax, BYTE PTR [esi]
; File C:\Program Files (x86)\Windows Kits\10\Include\10.0.18362.0\ucrt\corecrt_memory.h

; 107  :         return const_cast<void*>(memchr(_Pvc, _C, _N));

  000e0	50		 push	 eax
  000e1	51		 push	 ecx
  000e2	e8 00 00 00 00	 call	 _memchr
; File C:\Program Files (x86)\Microsoft Visual Studio\2019\Community\VC\Tools\MSVC\14.28.29333\include\xutility

; 5463 :     return _First ? _First : _Last;

  000e7	85 c0		 test	 eax, eax
  000e9	8b cb		 mov	 ecx, ebx
  000eb	0f 45 c8	 cmovne	 ecx, eax
; File C:\Program Files (x86)\Microsoft Visual Studio\2019\Community\VC\Tools\MSVC\14.28.29333\include\vector

; 195  :         _Ptr = _Refancy<_Tptr>(const_cast<value_type*>(_It));

  000ee	51		 push	 ecx
  000ef	e8 00 00 00 00	 call	 ??$_Refancy@PAE$0A@@std@@YAPAEPAE@Z ; std::_Refancy<unsigned char *,0>
; File D:\Metin2 Server Files\mainline\SRC_2014\Metin2Client\GameLib\MapOutdoor.h

; 384  : 					lhsIterator = std::find(m_TerrainNumVector.begin(), m_TerrainNumVector.end(), lhs.byTerrainNum);

  000f4	8b f8		 mov	 edi, eax
; File C:\Program Files (x86)\Microsoft Visual Studio\2019\Community\VC\Tools\MSVC\14.28.29333\include\vector

; 195  :         _Ptr = _Refancy<_Tptr>(const_cast<value_type*>(_It));

  000f6	83 c4 10	 add	 esp, 16			; 00000010H
; File D:\Metin2 Server Files\mainline\SRC_2014\Metin2Client\GameLib\MapOutdoor.h

; 384  : 					lhsIterator = std::find(m_TerrainNumVector.begin(), m_TerrainNumVector.end(), lhs.byTerrainNum);

  000f9	3b fb		 cmp	 edi, ebx

; 385  : 					if (lhsIterator != m_TerrainNumVector.end())

  000fb	74 08		 je	 SHORT $LN183@Uninitiali
; File C:\Program Files (x86)\Microsoft Visual Studio\2019\Community\VC\Tools\MSVC\14.28.29333\include\vector

; 140  :         return _Ptr - _Right._Ptr;

  000fd	2b 3d 00 00 00
	00		 sub	 edi, DWORD PTR ?m_TerrainNumVector@FSortPatchDrawStructWithTerrainNum@CMapOutdoor@@2V?$vector@EV?$allocator@E@std@@@std@@A
; File D:\Metin2 Server Files\mainline\SRC_2014\Metin2Client\GameLib\MapOutdoor.h

; 390  : 					if (!blhsOrderFound)

  00103	eb 34		 jmp	 SHORT $LN19@Uninitiali
$LN183@Uninitiali:
; File C:\Program Files (x86)\Microsoft Visual Studio\2019\Community\VC\Tools\MSVC\14.28.29333\include\vector

; 704  :         if (_Mylast != _My_data._Myend) {

  00105	3b 1d 08 00 00
	00		 cmp	 ebx, DWORD PTR ?m_TerrainNumVector@FSortPatchDrawStructWithTerrainNum@CMapOutdoor@@2V?$vector@EV?$allocator@E@std@@@std@@A+8
  0010b	74 13		 je	 SHORT $LN162@Uninitiali

; 687  :         _Alty_traits::construct(_Getal(), _Unfancy(_Mylast), _STD forward<_Valty>(_Val)...);

  0010d	8a 06		 mov	 al, BYTE PTR [esi]
  0010f	88 03		 mov	 BYTE PTR [ebx], al

; 688  :         _Orphan_range(_Mylast, _Mylast);
; 689  :         _Ty& _Result = *_Mylast;
; 690  :         ++_Mylast;

  00111	8b 3d 04 00 00
	00		 mov	 edi, DWORD PTR ?m_TerrainNumVector@FSortPatchDrawStructWithTerrainNum@CMapOutdoor@@2V?$vector@EV?$allocator@E@std@@@std@@A+4
  00117	47		 inc	 edi
  00118	89 3d 04 00 00
	00		 mov	 DWORD PTR ?m_TerrainNumVector@FSortPatchDrawStructWithTerrainNum@CMapOutdoor@@2V?$vector@EV?$allocator@E@std@@@std@@A+4, edi

; 705  :             return _Emplace_back_with_unused_capacity(_STD forward<_Valty>(_Val)...);

  0011e	eb 12		 jmp	 SHORT $LN161@Uninitiali
$LN162@Uninitiali:

; 706  :         }
; 707  : 
; 708  :         _Ty& _Result = *_Emplace_reallocate(_Mylast, _STD forward<_Valty>(_Val)...);

  00120	56		 push	 esi
  00121	53		 push	 ebx
  00122	b9 00 00 00 00	 mov	 ecx, OFFSET ?m_TerrainNumVector@FSortPatchDrawStructWithTerrainNum@CMapOutdoor@@2V?$vector@EV?$allocator@E@std@@@std@@A ; CMapOutdoor::FSortPatchDrawStructWithTerrainNum::m_TerrainNumVector
  00127	e8 00 00 00 00	 call	 ??$_Emplace_reallocate@ABE@?$vector@EV?$allocator@E@std@@@std@@QAEPAEQAEABE@Z ; std::vector<unsigned char,std::allocator<unsigned char> >::_Emplace_reallocate<unsigned char const &>
  0012c	8b 3d 04 00 00
	00		 mov	 edi, DWORD PTR ?m_TerrainNumVector@FSortPatchDrawStructWithTerrainNum@CMapOutdoor@@2V?$vector@EV?$allocator@E@std@@@std@@A+4
$LN161@Uninitiali:
; File D:\Metin2 Server Files\mainline\SRC_2014\Metin2Client\GameLib\MapOutdoor.h

; 393  : 						lhsTerrainNumOrder = m_TerrainNumVector.size() -1;

  00132	2b 3d 00 00 00
	00		 sub	 edi, DWORD PTR ?m_TerrainNumVector@FSortPatchDrawStructWithTerrainNum@CMapOutdoor@@2V?$vector@EV?$allocator@E@std@@@std@@A
  00138	4f		 dec	 edi
$LN19@Uninitiali:

; 394  : 					}
; 395  : 				}
; 396  : 
; 397  : 				return lhsTerrainNumOrder < rhsTerrainNumOrder;

  00139	8b 45 14	 mov	 eax, DWORD PTR __Dest$[ebp]
  0013c	8d 48 10	 lea	 ecx, DWORD PTR [eax+16]
  0013f	89 4d 14	 mov	 DWORD PTR tv1093[ebp], ecx
  00142	3b 7d f8	 cmp	 edi, DWORD PTR _rhsTerrainNumOrder$1$[ebp]
; File C:\Program Files (x86)\Microsoft Visual Studio\2019\Community\VC\Tools\MSVC\14.28.29333\include\algorithm

; 7821 :         if (_DEBUG_LT_PRED(_Pred, *_Next, *_First)) {

  00145	73 1d		 jae	 SHORT $LN5@Uninitiali
; File C:\Program Files (x86)\Microsoft Visual Studio\2019\Community\VC\Tools\MSVC\14.28.29333\include\xmemory

; 1442 :         _Construct_in_place(*_Last, _STD forward<_Types>(_Vals)...);

  00147	8b 75 f4	 mov	 esi, DWORD PTR __Next$1$[ebp]
  0014a	56		 push	 esi
  0014b	50		 push	 eax
  0014c	e8 00 00 00 00	 call	 ??$_Construct_in_place@UTPatchDrawStruct@CMapOutdoor@@U12@@std@@YAXAAUTPatchDrawStruct@CMapOutdoor@@$$QAU12@@Z ; std::_Construct_in_place<CMapOutdoor::TPatchDrawStruct,CMapOutdoor::TPatchDrawStruct>
; File C:\Program Files (x86)\Microsoft Visual Studio\2019\Community\VC\Tools\MSVC\14.28.29333\include\algorithm

; 7823 :             ++_Next;

  00151	83 c6 10	 add	 esi, 16			; 00000010H
; File C:\Program Files (x86)\Microsoft Visual Studio\2019\Community\VC\Tools\MSVC\14.28.29333\include\xmemory

; 1442 :         _Construct_in_place(*_Last, _STD forward<_Types>(_Vals)...);

  00154	83 c4 08	 add	 esp, 8
; File C:\Program Files (x86)\Microsoft Visual Studio\2019\Community\VC\Tools\MSVC\14.28.29333\include\algorithm

; 7823 :             ++_Next;

  00157	89 75 f4	 mov	 DWORD PTR __Next$1$[ebp], esi

; 7824 : 
; 7825 :             if (_Next == _Last) {

  0015a	3b 75 10	 cmp	 esi, DWORD PTR __Last$[ebp]
  0015d	75 20		 jne	 SHORT $LN8@Uninitiali
  0015f	8b 45 08	 mov	 eax, DWORD PTR __First$[ebp]
  00162	eb 2f		 jmp	 SHORT $LN10@Uninitiali
$LN5@Uninitiali:
; File C:\Program Files (x86)\Microsoft Visual Studio\2019\Community\VC\Tools\MSVC\14.28.29333\include\xmemory

; 1442 :         _Construct_in_place(*_Last, _STD forward<_Types>(_Vals)...);

  00164	8b 5d 08	 mov	 ebx, DWORD PTR __First$[ebp]
  00167	53		 push	 ebx
  00168	50		 push	 eax
  00169	e8 00 00 00 00	 call	 ??$_Construct_in_place@UTPatchDrawStruct@CMapOutdoor@@U12@@std@@YAXAAUTPatchDrawStruct@CMapOutdoor@@$$QAU12@@Z ; std::_Construct_in_place<CMapOutdoor::TPatchDrawStruct,CMapOutdoor::TPatchDrawStruct>
; File C:\Program Files (x86)\Microsoft Visual Studio\2019\Community\VC\Tools\MSVC\14.28.29333\include\algorithm

; 7831 :             ++_First;

  0016e	83 c3 10	 add	 ebx, 16			; 00000010H
; File C:\Program Files (x86)\Microsoft Visual Studio\2019\Community\VC\Tools\MSVC\14.28.29333\include\xmemory

; 1442 :         _Construct_in_place(*_Last, _STD forward<_Types>(_Vals)...);

  00171	83 c4 08	 add	 esp, 8
; File C:\Program Files (x86)\Microsoft Visual Studio\2019\Community\VC\Tools\MSVC\14.28.29333\include\algorithm

; 7831 :             ++_First;

  00174	89 5d 08	 mov	 DWORD PTR __First$[ebp], ebx

; 7832 : 
; 7833 :             if (_First == _Mid) {

  00177	3b 5d 0c	 cmp	 ebx, DWORD PTR __Mid$[ebp]
  0017a	74 0e		 je	 SHORT $LN179@Uninitiali
  0017c	8b 75 f4	 mov	 esi, DWORD PTR __Next$1$[ebp]
$LN8@Uninitiali:

; 7836 :             }
; 7837 :         }
; 7838 :     }

  0017f	8b 4d 14	 mov	 ecx, DWORD PTR tv1093[ebp]
  00182	89 4d 14	 mov	 DWORD PTR __Dest$[ebp], ecx
  00185	e9 86 fe ff ff	 jmp	 $LL2@Uninitiali
$LN179@Uninitiali:
; File C:\Program Files (x86)\Microsoft Visual Studio\2019\Community\VC\Tools\MSVC\14.28.29333\include\xmemory

; 1448 :         return _Last;

  0018a	8b 4d 10	 mov	 ecx, DWORD PTR __Last$[ebp]
  0018d	8b 45 f4	 mov	 eax, DWORD PTR __Next$1$[ebp]
  00190	89 4d 0c	 mov	 DWORD PTR __Mid$[ebp], ecx
$LN10@Uninitiali:
; File C:\Program Files (x86)\Microsoft Visual Studio\2019\Community\VC\Tools\MSVC\14.28.29333\include\algorithm

; 7835 :                 return _Backout._Release();

  00193	8b 4d 14	 mov	 ecx, DWORD PTR tv1093[ebp]
  00196	51		 push	 ecx
  00197	ff 75 0c	 push	 DWORD PTR __Mid$[ebp]
  0019a	50		 push	 eax
  0019b	e8 00 00 00 00	 call	 ??$_Uninitialized_move_unchecked@PAUTPatchDrawStruct@CMapOutdoor@@PAU12@@std@@YAPAUTPatchDrawStruct@CMapOutdoor@@PAU12@QAU12@0@Z ; std::_Uninitialized_move_unchecked<CMapOutdoor::TPatchDrawStruct *,CMapOutdoor::TPatchDrawStruct *>
  001a0	83 c4 0c	 add	 esp, 12			; 0000000cH
  001a3	5f		 pop	 edi
  001a4	5e		 pop	 esi
  001a5	5b		 pop	 ebx

; 7839 : }

  001a6	8b e5		 mov	 esp, ebp
  001a8	5d		 pop	 ebp
  001a9	c3		 ret	 0
??$_Uninitialized_merge_move@PAUTPatchDrawStruct@CMapOutdoor@@U12@UFSortPatchDrawStructWithTerrainNum@2@@std@@YAPAUTPatchDrawStruct@CMapOutdoor@@PAU12@QAU12@11UFSortPatchDrawStructWithTerrainNum@2@@Z ENDP ; std::_Uninitialized_merge_move<CMapOutdoor::TPatchDrawStruct *,CMapOutdoor::TPatchDrawStruct,CMapOutdoor::FSortPatchDrawStructWithTerrainNum>
_TEXT	ENDS
; Function compile flags: /Ogtp
; File C:\Program Files (x86)\Microsoft Visual Studio\2019\Community\VC\Tools\MSVC\14.28.29333\include\algorithm
; File D:\Metin2 Server Files\mainline\SRC_2014\Metin2Client\GameLib\MapOutdoorRender.cpp
; File C:\Program Files (x86)\Microsoft Visual Studio\2019\Community\VC\Tools\MSVC\14.28.29333\include\algorithm
; File D:\Metin2 Server Files\mainline\SRC_2014\Metin2Client\GameLib\MapOutdoorRender.cpp
; File D:\Metin2 Server Files\mainline\SRC_2014\M2Data\include\d3dx8math.inl
; File C:\Program Files (x86)\Microsoft Visual Studio\2019\Community\VC\Tools\MSVC\14.28.29333\include\algorithm
; File D:\Metin2 Server Files\mainline\SRC_2014\M2Data\include\d3dx8math.inl
; File D:\Metin2 Server Files\mainline\SRC_2014\Metin2Client\GameLib\MapOutdoorRender.cpp
; File D:\Metin2 Server Files\mainline\SRC_2014\M2Data\include\d3dx8math.inl
; File D:\Metin2 Server Files\mainline\SRC_2014\Metin2Client\GameLib\MapOutdoorRender.cpp
; File C:\Program Files (x86)\Microsoft Visual Studio\2019\Community\VC\Tools\MSVC\14.28.29333\include\algorithm
; File C:\Program Files (x86)\Microsoft Visual Studio\2019\Community\VC\Tools\MSVC\14.28.29333\include\utility
; File C:\Program Files (x86)\Microsoft Visual Studio\2019\Community\VC\Tools\MSVC\14.28.29333\include\algorithm
; File D:\Metin2 Server Files\mainline\SRC_2014\Metin2Client\GameLib\MapOutdoorRender.cpp
; File C:\Program Files (x86)\Microsoft Visual Studio\2019\Community\VC\Tools\MSVC\14.28.29333\include\algorithm
; File D:\Metin2 Server Files\mainline\SRC_2014\Metin2Client\GameLib\MapOutdoorRender.cpp
; File D:\Metin2 Server Files\mainline\SRC_2014\M2Data\include\d3dx8math.inl
; File D:\Metin2 Server Files\mainline\SRC_2014\Metin2Client\GameLib\MapOutdoorRender.cpp
; File D:\Metin2 Server Files\mainline\SRC_2014\M2Data\include\d3dx8math.inl
; File D:\Metin2 Server Files\mainline\SRC_2014\Metin2Client\GameLib\MapOutdoorRender.cpp
; File C:\Program Files (x86)\Microsoft Visual Studio\2019\Community\VC\Tools\MSVC\14.28.29333\include\algorithm
; File C:\Program Files (x86)\Microsoft Visual Studio\2019\Community\VC\Tools\MSVC\14.28.29333\include\utility
; File C:\Program Files (x86)\Microsoft Visual Studio\2019\Community\VC\Tools\MSVC\14.28.29333\include\algorithm
; File C:\Program Files (x86)\Microsoft Visual Studio\2019\Community\VC\Tools\MSVC\14.28.29333\include\utility
; File D:\Metin2 Server Files\mainline\SRC_2014\Metin2Client\GameLib\MapOutdoorRender.cpp
; File C:\Program Files (x86)\Microsoft Visual Studio\2019\Community\VC\Tools\MSVC\14.28.29333\include\algorithm
; File D:\Metin2 Server Files\mainline\SRC_2014\Metin2Client\GameLib\MapOutdoorRender.cpp
; File D:\Metin2 Server Files\mainline\SRC_2014\M2Data\include\d3dx8math.inl
; File D:\Metin2 Server Files\mainline\SRC_2014\Metin2Client\GameLib\MapOutdoorRender.cpp
; File D:\Metin2 Server Files\mainline\SRC_2014\M2Data\include\d3dx8math.inl
; File D:\Metin2 Server Files\mainline\SRC_2014\Metin2Client\GameLib\MapOutdoorRender.cpp
; File C:\Program Files (x86)\Microsoft Visual Studio\2019\Community\VC\Tools\MSVC\14.28.29333\include\algorithm
; File C:\Program Files (x86)\Microsoft Visual Studio\2019\Community\VC\Tools\MSVC\14.28.29333\include\utility
; File C:\Program Files (x86)\Microsoft Visual Studio\2019\Community\VC\Tools\MSVC\14.28.29333\include\algorithm
;	COMDAT ??$_Med3_unchecked@PAPAVCGraphicThingInstance@@UCMapOutdoor_LessThingInstancePtrRenderOrder@@@std@@YAXPAPAVCGraphicThingInstance@@00UCMapOutdoor_LessThingInstancePtrRenderOrder@@@Z
_TEXT	SEGMENT
__First$ = 8						; size = 4
__Mid$ = 12						; size = 4
__Last$ = 16						; size = 4
__Pred$ = 20						; size = 1
??$_Med3_unchecked@PAPAVCGraphicThingInstance@@UCMapOutdoor_LessThingInstancePtrRenderOrder@@@std@@YAXPAPAVCGraphicThingInstance@@00UCMapOutdoor_LessThingInstancePtrRenderOrder@@@Z PROC ; std::_Med3_unchecked<CGraphicThingInstance * *,CMapOutdoor_LessThingInstancePtrRenderOrder>, COMDAT

; 7434 : _CONSTEXPR20 void _Med3_unchecked(_RanIt _First, _RanIt _Mid, _RanIt _Last, _Pr _Pred) {

  00000	55		 push	 ebp
  00001	8b ec		 mov	 ebp, esp
; File D:\Metin2 Server Files\mainline\SRC_2014\Metin2Client\GameLib\MapOutdoorRender.cpp

; 357  : 		CCamera * pCurrentCamera = CCameraManager::Instance().GetCurrentCamera();

  00003	8b 0d 00 00 00
	00		 mov	 ecx, DWORD PTR ?ms_singleton@?$CSingleton@VCCameraManager@@@@0PAVCCameraManager@@A ; CSingleton<CCameraManager>::ms_singleton
; File C:\Program Files (x86)\Microsoft Visual Studio\2019\Community\VC\Tools\MSVC\14.28.29333\include\algorithm

; 7434 : _CONSTEXPR20 void _Med3_unchecked(_RanIt _First, _RanIt _Mid, _RanIt _Last, _Pr _Pred) {

  00009	53		 push	 ebx
  0000a	56		 push	 esi

; 7436 :     if (_DEBUG_LT_PRED(_Pred, *_Mid, *_First)) {

  0000b	8b 75 0c	 mov	 esi, DWORD PTR __Mid$[ebp]
  0000e	57		 push	 edi
  0000f	8b 7d 08	 mov	 edi, DWORD PTR __First$[ebp]
  00012	8b 36		 mov	 esi, DWORD PTR [esi]
  00014	8b 3f		 mov	 edi, DWORD PTR [edi]
; File D:\Metin2 Server Files\mainline\SRC_2014\Metin2Client\GameLib\MapOutdoorRender.cpp

; 357  : 		CCamera * pCurrentCamera = CCameraManager::Instance().GetCurrentCamera();

  00016	e8 00 00 00 00	 call	 ?GetCurrentCamera@CCameraManager@@QAEPAVCCamera@@XZ ; CCameraManager::GetCurrentCamera

; 358  : 		const D3DXVECTOR3 & c_rv3CameraPos = pCurrentCamera->GetEye();
; 359  : 		const D3DXVECTOR3 & c_v3LeftPos  = pkLeft->GetPosition();

  0001b	8b ce		 mov	 ecx, esi
  0001d	8b d8		 mov	 ebx, eax
  0001f	e8 00 00 00 00	 call	 ?GetPosition@CGraphicObjectInstance@@QBEABUD3DXVECTOR3@@XZ ; CGraphicObjectInstance::GetPosition

; 360  : 		const D3DXVECTOR3 & c_v3RightPos = pkRight->GetPosition();

  00024	8b cf		 mov	 ecx, edi
  00026	8b f0		 mov	 esi, eax
  00028	e8 00 00 00 00	 call	 ?GetPosition@CGraphicObjectInstance@@QBEABUD3DXVECTOR3@@XZ ; CGraphicObjectInstance::GetPosition
; File D:\Metin2 Server Files\mainline\SRC_2014\M2Data\include\d3dx8math.inl

; 263  :     return D3DXVECTOR3(x - v.x, y - v.y, z - v.z);

  0002d	f3 0f 10 6b 30	 movss	 xmm5, DWORD PTR [ebx+48]
  00032	f3 0f 10 63 34	 movss	 xmm4, DWORD PTR [ebx+52]
  00037	0f 28 cd	 movaps	 xmm1, xmm5
  0003a	f3 0f 5c 0e	 subss	 xmm1, DWORD PTR [esi]
  0003e	f3 0f 5c 28	 subss	 xmm5, DWORD PTR [eax]
  00042	f3 0f 10 53 38	 movss	 xmm2, DWORD PTR [ebx+56]
  00047	0f 28 dc	 movaps	 xmm3, xmm4
  0004a	f3 0f 5c 5e 04	 subss	 xmm3, DWORD PTR [esi+4]
  0004f	f3 0f 5c 60 04	 subss	 xmm4, DWORD PTR [eax+4]
; File C:\Program Files (x86)\Microsoft Visual Studio\2019\Community\VC\Tools\MSVC\14.28.29333\include\algorithm

; 7436 :     if (_DEBUG_LT_PRED(_Pred, *_Mid, *_First)) {

  00054	8b 55 0c	 mov	 edx, DWORD PTR __Mid$[ebp]
; File D:\Metin2 Server Files\mainline\SRC_2014\M2Data\include\d3dx8math.inl

; 263  :     return D3DXVECTOR3(x - v.x, y - v.y, z - v.z);

  00057	0f 28 c2	 movaps	 xmm0, xmm2
  0005a	f3 0f 5c 46 08	 subss	 xmm0, DWORD PTR [esi+8]
  0005f	f3 0f 5c 50 08	 subss	 xmm2, DWORD PTR [eax+8]

; 1253 :     return pV->x * pV->x + pV->y * pV->y + pV->z * pV->z;

  00064	f3 0f 59 db	 mulss	 xmm3, xmm3
; File D:\Metin2 Server Files\mainline\SRC_2014\Metin2Client\GameLib\MapOutdoorRender.cpp

; 362  : 		return D3DXVec3LengthSq(&D3DXVECTOR3(c_rv3CameraPos - c_v3LeftPos)) < D3DXVec3LengthSq(&D3DXVECTOR3(c_rv3CameraPos - c_v3RightPos) );	

  00068	f3 0f 59 e4	 mulss	 xmm4, xmm4
; File D:\Metin2 Server Files\mainline\SRC_2014\M2Data\include\d3dx8math.inl

; 182  :     z = fz;

  0006c	f3 0f 59 c9	 mulss	 xmm1, xmm1

; 1253 :     return pV->x * pV->x + pV->y * pV->y + pV->z * pV->z;

  00070	f3 0f 59 ed	 mulss	 xmm5, xmm5
  00074	f3 0f 58 d9	 addss	 xmm3, xmm1
  00078	f3 0f 59 c0	 mulss	 xmm0, xmm0
  0007c	f3 0f 58 e5	 addss	 xmm4, xmm5
  00080	f3 0f 59 d2	 mulss	 xmm2, xmm2
  00084	f3 0f 58 d8	 addss	 xmm3, xmm0
  00088	f3 0f 58 e2	 addss	 xmm4, xmm2
; File D:\Metin2 Server Files\mainline\SRC_2014\Metin2Client\GameLib\MapOutdoorRender.cpp

; 362  : 		return D3DXVec3LengthSq(&D3DXVECTOR3(c_rv3CameraPos - c_v3LeftPos)) < D3DXVec3LengthSq(&D3DXVECTOR3(c_rv3CameraPos - c_v3RightPos) );	

  0008c	0f 2f e3	 comiss	 xmm4, xmm3
; File C:\Program Files (x86)\Microsoft Visual Studio\2019\Community\VC\Tools\MSVC\14.28.29333\include\algorithm

; 7436 :     if (_DEBUG_LT_PRED(_Pred, *_Mid, *_First)) {

  0008f	76 0b		 jbe	 SHORT $LN61@Med3_unche
; File C:\Program Files (x86)\Microsoft Visual Studio\2019\Community\VC\Tools\MSVC\14.28.29333\include\utility

; 105  :     _Left    = _STD move(_Right);

  00091	8b 5d 08	 mov	 ebx, DWORD PTR __First$[ebp]
  00094	8b 0a		 mov	 ecx, DWORD PTR [edx]
  00096	8b 03		 mov	 eax, DWORD PTR [ebx]
  00098	89 02		 mov	 DWORD PTR [edx], eax

; 106  :     _Right   = _STD move(_Tmp);

  0009a	89 0b		 mov	 DWORD PTR [ebx], ecx
$LN61@Med3_unche:
; File C:\Program Files (x86)\Microsoft Visual Studio\2019\Community\VC\Tools\MSVC\14.28.29333\include\algorithm

; 7440 :     if (_DEBUG_LT_PRED(_Pred, *_Last, *_Mid)) { // swap middle and last, then test first again

  0009c	8b 75 10	 mov	 esi, DWORD PTR __Last$[ebp]
; File D:\Metin2 Server Files\mainline\SRC_2014\Metin2Client\GameLib\MapOutdoorRender.cpp

; 357  : 		CCamera * pCurrentCamera = CCameraManager::Instance().GetCurrentCamera();

  0009f	8b 0d 00 00 00
	00		 mov	 ecx, DWORD PTR ?ms_singleton@?$CSingleton@VCCameraManager@@@@0PAVCCameraManager@@A ; CSingleton<CCameraManager>::ms_singleton
; File C:\Program Files (x86)\Microsoft Visual Studio\2019\Community\VC\Tools\MSVC\14.28.29333\include\algorithm

; 7440 :     if (_DEBUG_LT_PRED(_Pred, *_Last, *_Mid)) { // swap middle and last, then test first again

  000a5	8b 3a		 mov	 edi, DWORD PTR [edx]
  000a7	8b 36		 mov	 esi, DWORD PTR [esi]
; File D:\Metin2 Server Files\mainline\SRC_2014\Metin2Client\GameLib\MapOutdoorRender.cpp

; 357  : 		CCamera * pCurrentCamera = CCameraManager::Instance().GetCurrentCamera();

  000a9	e8 00 00 00 00	 call	 ?GetCurrentCamera@CCameraManager@@QAEPAVCCamera@@XZ ; CCameraManager::GetCurrentCamera

; 358  : 		const D3DXVECTOR3 & c_rv3CameraPos = pCurrentCamera->GetEye();
; 359  : 		const D3DXVECTOR3 & c_v3LeftPos  = pkLeft->GetPosition();

  000ae	8b ce		 mov	 ecx, esi
  000b0	8b d8		 mov	 ebx, eax
  000b2	e8 00 00 00 00	 call	 ?GetPosition@CGraphicObjectInstance@@QBEABUD3DXVECTOR3@@XZ ; CGraphicObjectInstance::GetPosition

; 360  : 		const D3DXVECTOR3 & c_v3RightPos = pkRight->GetPosition();

  000b7	8b cf		 mov	 ecx, edi
  000b9	8b f0		 mov	 esi, eax
  000bb	e8 00 00 00 00	 call	 ?GetPosition@CGraphicObjectInstance@@QBEABUD3DXVECTOR3@@XZ ; CGraphicObjectInstance::GetPosition
; File D:\Metin2 Server Files\mainline\SRC_2014\M2Data\include\d3dx8math.inl

; 263  :     return D3DXVECTOR3(x - v.x, y - v.y, z - v.z);

  000c0	f3 0f 10 6b 30	 movss	 xmm5, DWORD PTR [ebx+48]
  000c5	f3 0f 10 63 34	 movss	 xmm4, DWORD PTR [ebx+52]
  000ca	0f 28 cd	 movaps	 xmm1, xmm5
  000cd	f3 0f 5c 0e	 subss	 xmm1, DWORD PTR [esi]
  000d1	f3 0f 5c 28	 subss	 xmm5, DWORD PTR [eax]
  000d5	f3 0f 10 53 38	 movss	 xmm2, DWORD PTR [ebx+56]
  000da	0f 28 dc	 movaps	 xmm3, xmm4
  000dd	f3 0f 5c 5e 04	 subss	 xmm3, DWORD PTR [esi+4]
  000e2	f3 0f 5c 60 04	 subss	 xmm4, DWORD PTR [eax+4]
  000e7	0f 28 c2	 movaps	 xmm0, xmm2

; 1253 :     return pV->x * pV->x + pV->y * pV->y + pV->z * pV->z;

  000ea	f3 0f 59 c9	 mulss	 xmm1, xmm1

; 263  :     return D3DXVECTOR3(x - v.x, y - v.y, z - v.z);

  000ee	f3 0f 5c 46 08	 subss	 xmm0, DWORD PTR [esi+8]
  000f3	f3 0f 5c 50 08	 subss	 xmm2, DWORD PTR [eax+8]

; 182  :     z = fz;

  000f8	f3 0f 59 db	 mulss	 xmm3, xmm3

; 1253 :     return pV->x * pV->x + pV->y * pV->y + pV->z * pV->z;

  000fc	f3 0f 59 e4	 mulss	 xmm4, xmm4
; File D:\Metin2 Server Files\mainline\SRC_2014\Metin2Client\GameLib\MapOutdoorRender.cpp

; 362  : 		return D3DXVec3LengthSq(&D3DXVECTOR3(c_rv3CameraPos - c_v3LeftPos)) < D3DXVec3LengthSq(&D3DXVECTOR3(c_rv3CameraPos - c_v3RightPos) );	

  00100	f3 0f 59 ed	 mulss	 xmm5, xmm5
; File D:\Metin2 Server Files\mainline\SRC_2014\M2Data\include\d3dx8math.inl

; 1253 :     return pV->x * pV->x + pV->y * pV->y + pV->z * pV->z;

  00104	f3 0f 58 d9	 addss	 xmm3, xmm1
  00108	f3 0f 59 c0	 mulss	 xmm0, xmm0
  0010c	f3 0f 58 e5	 addss	 xmm4, xmm5
  00110	f3 0f 59 d2	 mulss	 xmm2, xmm2
  00114	f3 0f 58 d8	 addss	 xmm3, xmm0
  00118	f3 0f 58 e2	 addss	 xmm4, xmm2
; File D:\Metin2 Server Files\mainline\SRC_2014\Metin2Client\GameLib\MapOutdoorRender.cpp

; 362  : 		return D3DXVec3LengthSq(&D3DXVECTOR3(c_rv3CameraPos - c_v3LeftPos)) < D3DXVec3LengthSq(&D3DXVECTOR3(c_rv3CameraPos - c_v3RightPos) );	

  0011c	0f 2f e3	 comiss	 xmm4, xmm3
; File C:\Program Files (x86)\Microsoft Visual Studio\2019\Community\VC\Tools\MSVC\14.28.29333\include\algorithm

; 7440 :     if (_DEBUG_LT_PRED(_Pred, *_Last, *_Mid)) { // swap middle and last, then test first again

  0011f	0f 86 9f 00 00
	00		 jbe	 $LN59@Med3_unche
; File C:\Program Files (x86)\Microsoft Visual Studio\2019\Community\VC\Tools\MSVC\14.28.29333\include\utility

; 104  :     _Ty _Tmp = _STD move(_Left);

  00125	8b 55 10	 mov	 edx, DWORD PTR __Last$[ebp]

; 105  :     _Left    = _STD move(_Right);

  00128	8b 4d 0c	 mov	 ecx, DWORD PTR __Mid$[ebp]
  0012b	8b 3a		 mov	 edi, DWORD PTR [edx]
  0012d	8b 01		 mov	 eax, DWORD PTR [ecx]
  0012f	89 02		 mov	 DWORD PTR [edx], eax
; File C:\Program Files (x86)\Microsoft Visual Studio\2019\Community\VC\Tools\MSVC\14.28.29333\include\algorithm

; 7443 :         if (_DEBUG_LT_PRED(_Pred, *_Mid, *_First)) {

  00131	8b 45 08	 mov	 eax, DWORD PTR __First$[ebp]
; File C:\Program Files (x86)\Microsoft Visual Studio\2019\Community\VC\Tools\MSVC\14.28.29333\include\utility

; 106  :     _Right   = _STD move(_Tmp);

  00134	89 39		 mov	 DWORD PTR [ecx], edi
; File D:\Metin2 Server Files\mainline\SRC_2014\Metin2Client\GameLib\MapOutdoorRender.cpp

; 357  : 		CCamera * pCurrentCamera = CCameraManager::Instance().GetCurrentCamera();

  00136	8b 0d 00 00 00
	00		 mov	 ecx, DWORD PTR ?ms_singleton@?$CSingleton@VCCameraManager@@@@0PAVCCameraManager@@A ; CSingleton<CCameraManager>::ms_singleton
; File C:\Program Files (x86)\Microsoft Visual Studio\2019\Community\VC\Tools\MSVC\14.28.29333\include\algorithm

; 7443 :         if (_DEBUG_LT_PRED(_Pred, *_Mid, *_First)) {

  0013c	8b 30		 mov	 esi, DWORD PTR [eax]
; File D:\Metin2 Server Files\mainline\SRC_2014\Metin2Client\GameLib\MapOutdoorRender.cpp

; 357  : 		CCamera * pCurrentCamera = CCameraManager::Instance().GetCurrentCamera();

  0013e	e8 00 00 00 00	 call	 ?GetCurrentCamera@CCameraManager@@QAEPAVCCamera@@XZ ; CCameraManager::GetCurrentCamera

; 358  : 		const D3DXVECTOR3 & c_rv3CameraPos = pCurrentCamera->GetEye();
; 359  : 		const D3DXVECTOR3 & c_v3LeftPos  = pkLeft->GetPosition();

  00143	8b cf		 mov	 ecx, edi
  00145	8b d8		 mov	 ebx, eax
  00147	e8 00 00 00 00	 call	 ?GetPosition@CGraphicObjectInstance@@QBEABUD3DXVECTOR3@@XZ ; CGraphicObjectInstance::GetPosition

; 360  : 		const D3DXVECTOR3 & c_v3RightPos = pkRight->GetPosition();

  0014c	8b ce		 mov	 ecx, esi
  0014e	8b f8		 mov	 edi, eax
  00150	e8 00 00 00 00	 call	 ?GetPosition@CGraphicObjectInstance@@QBEABUD3DXVECTOR3@@XZ ; CGraphicObjectInstance::GetPosition
; File D:\Metin2 Server Files\mainline\SRC_2014\M2Data\include\d3dx8math.inl

; 263  :     return D3DXVECTOR3(x - v.x, y - v.y, z - v.z);

  00155	f3 0f 10 6b 30	 movss	 xmm5, DWORD PTR [ebx+48]
  0015a	f3 0f 10 63 34	 movss	 xmm4, DWORD PTR [ebx+52]
  0015f	0f 28 cd	 movaps	 xmm1, xmm5
  00162	f3 0f 5c 0f	 subss	 xmm1, DWORD PTR [edi]
  00166	f3 0f 5c 28	 subss	 xmm5, DWORD PTR [eax]
  0016a	f3 0f 10 53 38	 movss	 xmm2, DWORD PTR [ebx+56]
  0016f	0f 28 dc	 movaps	 xmm3, xmm4
  00172	f3 0f 5c 5f 04	 subss	 xmm3, DWORD PTR [edi+4]
  00177	f3 0f 5c 60 04	 subss	 xmm4, DWORD PTR [eax+4]
  0017c	0f 28 c2	 movaps	 xmm0, xmm2

; 182  :     z = fz;

  0017f	f3 0f 59 c9	 mulss	 xmm1, xmm1

; 263  :     return D3DXVECTOR3(x - v.x, y - v.y, z - v.z);

  00183	f3 0f 5c 47 08	 subss	 xmm0, DWORD PTR [edi+8]
  00188	f3 0f 5c 50 08	 subss	 xmm2, DWORD PTR [eax+8]

; 1253 :     return pV->x * pV->x + pV->y * pV->y + pV->z * pV->z;

  0018d	f3 0f 59 db	 mulss	 xmm3, xmm3
  00191	f3 0f 59 e4	 mulss	 xmm4, xmm4
; File D:\Metin2 Server Files\mainline\SRC_2014\Metin2Client\GameLib\MapOutdoorRender.cpp

; 362  : 		return D3DXVec3LengthSq(&D3DXVECTOR3(c_rv3CameraPos - c_v3LeftPos)) < D3DXVec3LengthSq(&D3DXVECTOR3(c_rv3CameraPos - c_v3RightPos) );	

  00195	f3 0f 59 ed	 mulss	 xmm5, xmm5
; File D:\Metin2 Server Files\mainline\SRC_2014\M2Data\include\d3dx8math.inl

; 1253 :     return pV->x * pV->x + pV->y * pV->y + pV->z * pV->z;

  00199	f3 0f 58 d9	 addss	 xmm3, xmm1
  0019d	f3 0f 59 c0	 mulss	 xmm0, xmm0
  001a1	f3 0f 58 e5	 addss	 xmm4, xmm5
  001a5	f3 0f 59 d2	 mulss	 xmm2, xmm2
  001a9	f3 0f 58 d8	 addss	 xmm3, xmm0
  001ad	f3 0f 58 e2	 addss	 xmm4, xmm2
; File D:\Metin2 Server Files\mainline\SRC_2014\Metin2Client\GameLib\MapOutdoorRender.cpp

; 362  : 		return D3DXVec3LengthSq(&D3DXVECTOR3(c_rv3CameraPos - c_v3LeftPos)) < D3DXVec3LengthSq(&D3DXVECTOR3(c_rv3CameraPos - c_v3RightPos) );	

  001b1	0f 2f e3	 comiss	 xmm4, xmm3
; File C:\Program Files (x86)\Microsoft Visual Studio\2019\Community\VC\Tools\MSVC\14.28.29333\include\algorithm

; 7443 :         if (_DEBUG_LT_PRED(_Pred, *_Mid, *_First)) {

  001b4	76 0e		 jbe	 SHORT $LN59@Med3_unche
; File C:\Program Files (x86)\Microsoft Visual Studio\2019\Community\VC\Tools\MSVC\14.28.29333\include\utility

; 104  :     _Ty _Tmp = _STD move(_Left);

  001b6	8b 55 0c	 mov	 edx, DWORD PTR __Mid$[ebp]

; 105  :     _Left    = _STD move(_Right);

  001b9	8b 5d 08	 mov	 ebx, DWORD PTR __First$[ebp]
  001bc	8b 0a		 mov	 ecx, DWORD PTR [edx]
  001be	8b 03		 mov	 eax, DWORD PTR [ebx]
  001c0	89 02		 mov	 DWORD PTR [edx], eax

; 106  :     _Right   = _STD move(_Tmp);

  001c2	89 0b		 mov	 DWORD PTR [ebx], ecx
$LN59@Med3_unche:
  001c4	5f		 pop	 edi
; File C:\Program Files (x86)\Microsoft Visual Studio\2019\Community\VC\Tools\MSVC\14.28.29333\include\algorithm

; 7447 : }

  001c5	5e		 pop	 esi
  001c6	5b		 pop	 ebx
  001c7	5d		 pop	 ebp
  001c8	c3		 ret	 0
??$_Med3_unchecked@PAPAVCGraphicThingInstance@@UCMapOutdoor_LessThingInstancePtrRenderOrder@@@std@@YAXPAPAVCGraphicThingInstance@@00UCMapOutdoor_LessThingInstancePtrRenderOrder@@@Z ENDP ; std::_Med3_unchecked<CGraphicThingInstance * *,CMapOutdoor_LessThingInstancePtrRenderOrder>
_TEXT	ENDS
; Function compile flags: /Ogtp
; File C:\Program Files (x86)\Microsoft Visual Studio\2019\Community\VC\Tools\MSVC\14.28.29333\include\xutility
;	COMDAT ??$_Copy_backward_memmove@PAPAVCGraphicThingInstance@@PAPAV1@@std@@YAPAPAVCGraphicThingInstance@@PAPAV1@00@Z
_TEXT	SEGMENT
__First$ = 8						; size = 4
__Last$ = 12						; size = 4
__Dest$ = 16						; size = 4
??$_Copy_backward_memmove@PAPAVCGraphicThingInstance@@PAPAV1@@std@@YAPAPAVCGraphicThingInstance@@PAPAV1@00@Z PROC ; std::_Copy_backward_memmove<CGraphicThingInstance * *,CGraphicThingInstance * *>, COMDAT

; 4535 : _BidIt2 _Copy_backward_memmove(_BidIt1 _First, _BidIt1 _Last, _BidIt2 _Dest) {

  00000	55		 push	 ebp
  00001	8b ec		 mov	 ebp, esp

; 4536 :     // implement copy_backward-like function as memmove
; 4537 :     const char* const _First_ch = const_cast<const char*>(reinterpret_cast<const volatile char*>(_First));
; 4538 :     const char* const _Last_ch  = const_cast<const char*>(reinterpret_cast<const volatile char*>(_Last));
; 4539 :     char* const _Dest_ch        = const_cast<char*>(reinterpret_cast<volatile char*>(_Dest));
; 4540 :     const auto _Count           = static_cast<size_t>(_Last_ch - _First_ch);

  00003	8b 45 08	 mov	 eax, DWORD PTR __First$[ebp]
  00006	8b 4d 0c	 mov	 ecx, DWORD PTR __Last$[ebp]
  00009	2b c8		 sub	 ecx, eax

; 4541 :     return static_cast<_BidIt2>(_CSTD memmove(_Dest_ch - _Count, _First_ch, _Count));

  0000b	51		 push	 ecx
  0000c	50		 push	 eax
  0000d	8b 45 10	 mov	 eax, DWORD PTR __Dest$[ebp]
  00010	2b c1		 sub	 eax, ecx
  00012	50		 push	 eax
  00013	e8 00 00 00 00	 call	 _memmove
  00018	83 c4 0c	 add	 esp, 12			; 0000000cH

; 4542 : }

  0001b	5d		 pop	 ebp
  0001c	c3		 ret	 0
??$_Copy_backward_memmove@PAPAVCGraphicThingInstance@@PAPAV1@@std@@YAPAPAVCGraphicThingInstance@@PAPAV1@00@Z ENDP ; std::_Copy_backward_memmove<CGraphicThingInstance * *,CGraphicThingInstance * *>
_TEXT	ENDS
; Function compile flags: /Ogtp
; File C:\Program Files (x86)\Microsoft Visual Studio\2019\Community\VC\Tools\MSVC\14.28.29333\include\algorithm
; File D:\Metin2 Server Files\mainline\SRC_2014\Metin2Client\GameLib\Area.h
; File C:\Program Files (x86)\Microsoft Visual Studio\2019\Community\VC\Tools\MSVC\14.28.29333\include\algorithm
; File D:\Metin2 Server Files\mainline\SRC_2014\Metin2Client\GameLib\Area.h
; File C:\Program Files (x86)\Microsoft Visual Studio\2019\Community\VC\Tools\MSVC\14.28.29333\include\algorithm
; File C:\Program Files (x86)\Microsoft Visual Studio\2019\Community\VC\Tools\MSVC\14.28.29333\include\utility
; File D:\Metin2 Server Files\mainline\SRC_2014\Metin2Client\GameLib\Area.h
; File C:\Program Files (x86)\Microsoft Visual Studio\2019\Community\VC\Tools\MSVC\14.28.29333\include\algorithm
; File C:\Program Files (x86)\Microsoft Visual Studio\2019\Community\VC\Tools\MSVC\14.28.29333\include\utility
; File D:\Metin2 Server Files\mainline\SRC_2014\Metin2Client\GameLib\Area.h
; File C:\Program Files (x86)\Microsoft Visual Studio\2019\Community\VC\Tools\MSVC\14.28.29333\include\algorithm
; File C:\Program Files (x86)\Microsoft Visual Studio\2019\Community\VC\Tools\MSVC\14.28.29333\include\utility
; File C:\Program Files (x86)\Microsoft Visual Studio\2019\Community\VC\Tools\MSVC\14.28.29333\include\algorithm
;	COMDAT ??$_Med3_unchecked@PAUSCRCWithNumber@CArea@@UCRCNumComp@2@@std@@YAXPAUSCRCWithNumber@CArea@@00UCRCNumComp@2@@Z
_TEXT	SEGMENT
__Tmp$1$ = 8						; size = 4
__First$ = 8						; size = 4
__Mid$ = 12						; size = 4
__Last$ = 16						; size = 4
__Pred$ = 20						; size = 1
??$_Med3_unchecked@PAUSCRCWithNumber@CArea@@UCRCNumComp@2@@std@@YAXPAUSCRCWithNumber@CArea@@00UCRCNumComp@2@@Z PROC ; std::_Med3_unchecked<CArea::SCRCWithNumber *,CArea::CRCNumComp>, COMDAT

; 7434 : _CONSTEXPR20 void _Med3_unchecked(_RanIt _First, _RanIt _Mid, _RanIt _Last, _Pr _Pred) {

  00000	55		 push	 ebp
  00001	8b ec		 mov	 ebp, esp
  00003	53		 push	 ebx
; File D:\Metin2 Server Files\mainline\SRC_2014\Metin2Client\GameLib\Area.h

; 190  : 				return lhs.dwNumber > rhs.dwNumber;

  00004	8b 5d 0c	 mov	 ebx, DWORD PTR __Mid$[ebp]
; File C:\Program Files (x86)\Microsoft Visual Studio\2019\Community\VC\Tools\MSVC\14.28.29333\include\algorithm

; 7434 : _CONSTEXPR20 void _Med3_unchecked(_RanIt _First, _RanIt _Mid, _RanIt _Last, _Pr _Pred) {

  00007	56		 push	 esi
  00008	57		 push	 edi
; File D:\Metin2 Server Files\mainline\SRC_2014\Metin2Client\GameLib\Area.h

; 190  : 				return lhs.dwNumber > rhs.dwNumber;

  00009	8b 7d 08	 mov	 edi, DWORD PTR __First$[ebp]
  0000c	8b 43 04	 mov	 eax, DWORD PTR [ebx+4]
  0000f	3b 47 04	 cmp	 eax, DWORD PTR [edi+4]
; File C:\Program Files (x86)\Microsoft Visual Studio\2019\Community\VC\Tools\MSVC\14.28.29333\include\algorithm

; 7436 :     if (_DEBUG_LT_PRED(_Pred, *_Mid, *_First)) {

  00012	76 16		 jbe	 SHORT $LN25@Med3_unche
; File C:\Program Files (x86)\Microsoft Visual Studio\2019\Community\VC\Tools\MSVC\14.28.29333\include\utility

; 104  :     _Ty _Tmp = _STD move(_Left);

  00014	8b 13		 mov	 edx, DWORD PTR [ebx]
  00016	8b f0		 mov	 esi, eax

; 105  :     _Left    = _STD move(_Right);

  00018	8b 07		 mov	 eax, DWORD PTR [edi]
  0001a	8b 4f 04	 mov	 ecx, DWORD PTR [edi+4]
  0001d	89 03		 mov	 DWORD PTR [ebx], eax
  0001f	89 4b 04	 mov	 DWORD PTR [ebx+4], ecx

; 106  :     _Right   = _STD move(_Tmp);

  00022	89 17		 mov	 DWORD PTR [edi], edx
  00024	89 77 04	 mov	 DWORD PTR [edi+4], esi
  00027	8b 43 04	 mov	 eax, DWORD PTR [ebx+4]
$LN25@Med3_unche:
; File D:\Metin2 Server Files\mainline\SRC_2014\Metin2Client\GameLib\Area.h

; 190  : 				return lhs.dwNumber > rhs.dwNumber;

  0002a	8b 55 10	 mov	 edx, DWORD PTR __Last$[ebp]
  0002d	39 42 04	 cmp	 DWORD PTR [edx+4], eax
; File C:\Program Files (x86)\Microsoft Visual Studio\2019\Community\VC\Tools\MSVC\14.28.29333\include\algorithm

; 7440 :     if (_DEBUG_LT_PRED(_Pred, *_Last, *_Mid)) { // swap middle and last, then test first again

  00030	76 2e		 jbe	 SHORT $LN23@Med3_unche
; File C:\Program Files (x86)\Microsoft Visual Studio\2019\Community\VC\Tools\MSVC\14.28.29333\include\utility

; 104  :     _Ty _Tmp = _STD move(_Left);

  00032	8b 02		 mov	 eax, DWORD PTR [edx]
  00034	8b 72 04	 mov	 esi, DWORD PTR [edx+4]

; 105  :     _Left    = _STD move(_Right);

  00037	8b 4b 04	 mov	 ecx, DWORD PTR [ebx+4]
  0003a	89 45 08	 mov	 DWORD PTR __Tmp$1$[ebp], eax
  0003d	8b 03		 mov	 eax, DWORD PTR [ebx]
  0003f	89 02		 mov	 DWORD PTR [edx], eax
  00041	89 4a 04	 mov	 DWORD PTR [edx+4], ecx

; 106  :     _Right   = _STD move(_Tmp);

  00044	8b 55 08	 mov	 edx, DWORD PTR __Tmp$1$[ebp]
  00047	89 13		 mov	 DWORD PTR [ebx], edx
  00049	89 73 04	 mov	 DWORD PTR [ebx+4], esi
; File D:\Metin2 Server Files\mainline\SRC_2014\Metin2Client\GameLib\Area.h

; 190  : 				return lhs.dwNumber > rhs.dwNumber;

  0004c	3b 77 04	 cmp	 esi, DWORD PTR [edi+4]
; File C:\Program Files (x86)\Microsoft Visual Studio\2019\Community\VC\Tools\MSVC\14.28.29333\include\algorithm

; 7443 :         if (_DEBUG_LT_PRED(_Pred, *_Mid, *_First)) {

  0004f	76 0f		 jbe	 SHORT $LN23@Med3_unche
; File C:\Program Files (x86)\Microsoft Visual Studio\2019\Community\VC\Tools\MSVC\14.28.29333\include\utility

; 105  :     _Left    = _STD move(_Right);

  00051	8b 07		 mov	 eax, DWORD PTR [edi]
  00053	8b 4f 04	 mov	 ecx, DWORD PTR [edi+4]
  00056	89 03		 mov	 DWORD PTR [ebx], eax
  00058	89 4b 04	 mov	 DWORD PTR [ebx+4], ecx

; 106  :     _Right   = _STD move(_Tmp);

  0005b	89 17		 mov	 DWORD PTR [edi], edx
  0005d	89 77 04	 mov	 DWORD PTR [edi+4], esi
$LN23@Med3_unche:
  00060	5f		 pop	 edi
; File C:\Program Files (x86)\Microsoft Visual Studio\2019\Community\VC\Tools\MSVC\14.28.29333\include\algorithm

; 7447 : }

  00061	5e		 pop	 esi
  00062	5b		 pop	 ebx
  00063	5d		 pop	 ebp
  00064	c3		 ret	 0
??$_Med3_unchecked@PAUSCRCWithNumber@CArea@@UCRCNumComp@2@@std@@YAXPAUSCRCWithNumber@CArea@@00UCRCNumComp@2@@Z ENDP ; std::_Med3_unchecked<CArea::SCRCWithNumber *,CArea::CRCNumComp>
_TEXT	ENDS
; Function compile flags: /Ogtp
; File C:\Program Files (x86)\Microsoft Visual Studio\2019\Community\VC\Tools\MSVC\14.28.29333\include\xutility
;	COMDAT ??$_Copy_backward_memmove@PAUSCRCWithNumber@CArea@@PAU12@@std@@YAPAUSCRCWithNumber@CArea@@PAU12@00@Z
_TEXT	SEGMENT
__First$ = 8						; size = 4
__Last$ = 12						; size = 4
__Dest$ = 16						; size = 4
??$_Copy_backward_memmove@PAUSCRCWithNumber@CArea@@PAU12@@std@@YAPAUSCRCWithNumber@CArea@@PAU12@00@Z PROC ; std::_Copy_backward_memmove<CArea::SCRCWithNumber *,CArea::SCRCWithNumber *>, COMDAT

; 4535 : _BidIt2 _Copy_backward_memmove(_BidIt1 _First, _BidIt1 _Last, _BidIt2 _Dest) {

  00000	55		 push	 ebp
  00001	8b ec		 mov	 ebp, esp

; 4536 :     // implement copy_backward-like function as memmove
; 4537 :     const char* const _First_ch = const_cast<const char*>(reinterpret_cast<const volatile char*>(_First));
; 4538 :     const char* const _Last_ch  = const_cast<const char*>(reinterpret_cast<const volatile char*>(_Last));
; 4539 :     char* const _Dest_ch        = const_cast<char*>(reinterpret_cast<volatile char*>(_Dest));
; 4540 :     const auto _Count           = static_cast<size_t>(_Last_ch - _First_ch);

  00003	8b 45 08	 mov	 eax, DWORD PTR __First$[ebp]
  00006	8b 4d 0c	 mov	 ecx, DWORD PTR __Last$[ebp]
  00009	2b c8		 sub	 ecx, eax

; 4541 :     return static_cast<_BidIt2>(_CSTD memmove(_Dest_ch - _Count, _First_ch, _Count));

  0000b	51		 push	 ecx
  0000c	50		 push	 eax
  0000d	8b 45 10	 mov	 eax, DWORD PTR __Dest$[ebp]
  00010	2b c1		 sub	 eax, ecx
  00012	50		 push	 eax
  00013	e8 00 00 00 00	 call	 _memmove
  00018	83 c4 0c	 add	 esp, 12			; 0000000cH

; 4542 : }

  0001b	5d		 pop	 ebp
  0001c	c3		 ret	 0
??$_Copy_backward_memmove@PAUSCRCWithNumber@CArea@@PAU12@@std@@YAPAUSCRCWithNumber@CArea@@PAU12@00@Z ENDP ; std::_Copy_backward_memmove<CArea::SCRCWithNumber *,CArea::SCRCWithNumber *>
_TEXT	ENDS
; Function compile flags: /Ogtp
; File C:\Program Files (x86)\Microsoft Visual Studio\2019\Community\VC\Tools\MSVC\14.28.29333\include\algorithm
; File C:\Program Files (x86)\Microsoft Visual Studio\2019\Community\VC\Tools\MSVC\14.28.29333\include\utility
; File C:\Program Files (x86)\Microsoft Visual Studio\2019\Community\VC\Tools\MSVC\14.28.29333\include\algorithm
; File C:\Program Files (x86)\Microsoft Visual Studio\2019\Community\VC\Tools\MSVC\14.28.29333\include\utility
; File C:\Program Files (x86)\Microsoft Visual Studio\2019\Community\VC\Tools\MSVC\14.28.29333\include\algorithm
; File C:\Program Files (x86)\Microsoft Visual Studio\2019\Community\VC\Tools\MSVC\14.28.29333\include\utility
; File C:\Program Files (x86)\Microsoft Visual Studio\2019\Community\VC\Tools\MSVC\14.28.29333\include\algorithm
; File C:\Program Files (x86)\Microsoft Visual Studio\2019\Community\VC\Tools\MSVC\14.28.29333\include\utility
; File C:\Program Files (x86)\Microsoft Visual Studio\2019\Community\VC\Tools\MSVC\14.28.29333\include\algorithm
; File C:\Program Files (x86)\Microsoft Visual Studio\2019\Community\VC\Tools\MSVC\14.28.29333\include\utility
; File C:\Program Files (x86)\Microsoft Visual Studio\2019\Community\VC\Tools\MSVC\14.28.29333\include\algorithm
; File C:\Program Files (x86)\Microsoft Visual Studio\2019\Community\VC\Tools\MSVC\14.28.29333\include\utility
; File C:\Program Files (x86)\Microsoft Visual Studio\2019\Community\VC\Tools\MSVC\14.28.29333\include\algorithm
;	COMDAT ??$_Pop_heap_hole_by_index@PAU?$pair@MJ@std@@U12@U?$less@X@2@@std@@YAXPAU?$pair@MJ@0@HH$$QAU10@U?$less@X@0@@Z
_TEXT	SEGMENT
__First$ = 8						; size = 4
__Top$1$ = 12						; size = 4
__Hole$ = 12						; size = 4
__Bottom$ = 16						; size = 4
__Val$ = 20						; size = 4
__Pred$ = 24						; size = 1
??$_Pop_heap_hole_by_index@PAU?$pair@MJ@std@@U12@U?$less@X@2@@std@@YAXPAU?$pair@MJ@0@HH$$QAU10@U?$less@X@0@@Z PROC ; std::_Pop_heap_hole_by_index<std::pair<float,long> *,std::pair<float,long>,std::less<void> >, COMDAT

; 6186 :     _RanIt _First, _Iter_diff_t<_RanIt> _Hole, _Iter_diff_t<_RanIt> _Bottom, _Ty&& _Val, _Pr _Pred) {

  00000	55		 push	 ebp
  00001	8b ec		 mov	 ebp, esp

; 6187 :     // percolate _Hole to _Bottom, then push _Val
; 6188 :     _STL_INTERNAL_CHECK(_Bottom > 0);
; 6189 : 
; 6190 :     using _Diff      = _Iter_diff_t<_RanIt>;
; 6191 :     const _Diff _Top = _Hole;
; 6192 :     _Diff _Idx       = _Hole;
; 6193 : 
; 6194 :     // Check whether _Idx can have a child before calculating that child's index, since
; 6195 :     // calculating the child's index can trigger integer overflows
; 6196 :     const _Diff _Max_sequence_non_leaf = (_Bottom - 1) >> 1; // shift for codegen
; 6197 :     while (_Idx < _Max_sequence_non_leaf) { // move _Hole down to larger child

  00003	8b 4d 08	 mov	 ecx, DWORD PTR __First$[ebp]
  00006	53		 push	 ebx
  00007	8b 5d 10	 mov	 ebx, DWORD PTR __Bottom$[ebp]
  0000a	56		 push	 esi
  0000b	8b 75 0c	 mov	 esi, DWORD PTR __Hole$[ebp]
  0000e	8b d6		 mov	 edx, esi
  00010	57		 push	 edi
  00011	8d 7b ff	 lea	 edi, DWORD PTR [ebx-1]
  00014	89 75 0c	 mov	 DWORD PTR __Top$1$[ebp], esi
  00017	d1 ff		 sar	 edi, 1
  00019	3b f7		 cmp	 esi, edi
  0001b	7d 47		 jge	 SHORT $LN3@Pop_heap_h
  0001d	0f 1f 00	 npad	 3
$LL2@Pop_heap_h:

; 6198 :         _Idx = 2 * _Idx + 2;

  00020	03 d2		 add	 edx, edx
; File C:\Program Files (x86)\Microsoft Visual Studio\2019\Community\VC\Tools\MSVC\14.28.29333\include\utility

; 352  :     return _Left.first < _Right.first || (!(_Right.first < _Left.first) && _Left.second < _Right.second);

  00022	f3 0f 10 4c d1
	10		 movss	 xmm1, DWORD PTR [ecx+edx*8+16]
  00028	f3 0f 10 44 d1
	08		 movss	 xmm0, DWORD PTR [ecx+edx*8+8]
  0002e	0f 2f c1	 comiss	 xmm0, xmm1
  00031	77 16		 ja	 SHORT $LN40@Pop_heap_h
  00033	0f 2f c8	 comiss	 xmm1, xmm0
  00036	77 0a		 ja	 SHORT $LN11@Pop_heap_h
  00038	8b 44 d1 14	 mov	 eax, DWORD PTR [ecx+edx*8+20]
  0003c	3b 44 d1 0c	 cmp	 eax, DWORD PTR [ecx+edx*8+12]
  00040	7c 07		 jl	 SHORT $LN40@Pop_heap_h
$LN11@Pop_heap_h:
  00042	b8 02 00 00 00	 mov	 eax, 2
  00047	eb 05		 jmp	 SHORT $LN13@Pop_heap_h
$LN40@Pop_heap_h:
  00049	b8 01 00 00 00	 mov	 eax, 1
$LN13@Pop_heap_h:
; File C:\Program Files (x86)\Microsoft Visual Studio\2019\Community\VC\Tools\MSVC\14.28.29333\include\algorithm

; 6202 :         *(_First + _Hole) = _STD move(*(_First + _Idx));

  0004e	03 d0		 add	 edx, eax
; File C:\Program Files (x86)\Microsoft Visual Studio\2019\Community\VC\Tools\MSVC\14.28.29333\include\utility

; 290  :         first  = _STD forward<_Ty1>(_Right.first);

  00050	8b 04 d1	 mov	 eax, DWORD PTR [ecx+edx*8]
  00053	89 04 f1	 mov	 DWORD PTR [ecx+esi*8], eax

; 291  :         second = _STD forward<_Ty2>(_Right.second);

  00056	8b 44 d1 04	 mov	 eax, DWORD PTR [ecx+edx*8+4]
  0005a	89 44 f1 04	 mov	 DWORD PTR [ecx+esi*8+4], eax
; File C:\Program Files (x86)\Microsoft Visual Studio\2019\Community\VC\Tools\MSVC\14.28.29333\include\algorithm

; 6203 :         _Hole             = _Idx;

  0005e	8b f2		 mov	 esi, edx
  00060	3b d7		 cmp	 edx, edi
  00062	7c bc		 jl	 SHORT $LL2@Pop_heap_h
$LN3@Pop_heap_h:

; 6204 :     }
; 6205 : 
; 6206 :     if (_Idx == _Max_sequence_non_leaf && _Bottom % 2 == 0) { // only child at bottom, move _Hole down to it

  00064	3b d7		 cmp	 edx, edi
  00066	75 17		 jne	 SHORT $LN5@Pop_heap_h
  00068	f6 c3 01	 test	 bl, 1
  0006b	75 12		 jne	 SHORT $LN5@Pop_heap_h
; File C:\Program Files (x86)\Microsoft Visual Studio\2019\Community\VC\Tools\MSVC\14.28.29333\include\utility

; 290  :         first  = _STD forward<_Ty1>(_Right.first);

  0006d	8b 44 d9 f8	 mov	 eax, DWORD PTR [ecx+ebx*8-8]
  00071	89 04 f1	 mov	 DWORD PTR [ecx+esi*8], eax

; 291  :         second = _STD forward<_Ty2>(_Right.second);

  00074	8b 44 d9 fc	 mov	 eax, DWORD PTR [ecx+ebx*8-4]
  00078	89 44 f1 04	 mov	 DWORD PTR [ecx+esi*8+4], eax
; File C:\Program Files (x86)\Microsoft Visual Studio\2019\Community\VC\Tools\MSVC\14.28.29333\include\algorithm

; 6208 :         _Hole             = _Bottom - 1;

  0007c	8d 73 ff	 lea	 esi, DWORD PTR [ebx-1]
$LN5@Pop_heap_h:

; 6077 :          _Top < _Hole && _DEBUG_LT_PRED(_Pred, *(_First + _Idx), _Val); //

  0007f	8b 5d 0c	 mov	 ebx, DWORD PTR __Top$1$[ebp]
  00082	8b 7d 14	 mov	 edi, DWORD PTR __Val$[ebp]
  00085	3b de		 cmp	 ebx, esi
  00087	7d 3b		 jge	 SHORT $LN47@Pop_heap_h
  00089	0f 1f 80 00 00
	00 00		 npad	 7
$LL21@Pop_heap_h:
; File C:\Program Files (x86)\Microsoft Visual Studio\2019\Community\VC\Tools\MSVC\14.28.29333\include\utility

; 352  :     return _Left.first < _Right.first || (!(_Right.first < _Left.first) && _Left.second < _Right.second);

  00090	f3 0f 10 0f	 movss	 xmm1, DWORD PTR [edi]
; File C:\Program Files (x86)\Microsoft Visual Studio\2019\Community\VC\Tools\MSVC\14.28.29333\include\algorithm

; 6076 :     for (_Diff _Idx = (_Hole - 1) >> 1; // shift for codegen

  00094	8d 56 ff	 lea	 edx, DWORD PTR [esi-1]
  00097	d1 fa		 sar	 edx, 1
; File C:\Program Files (x86)\Microsoft Visual Studio\2019\Community\VC\Tools\MSVC\14.28.29333\include\utility

; 352  :     return _Left.first < _Right.first || (!(_Right.first < _Left.first) && _Left.second < _Right.second);

  00099	f3 0f 10 04 d1	 movss	 xmm0, DWORD PTR [ecx+edx*8]
  0009e	0f 2f c8	 comiss	 xmm1, xmm0
  000a1	77 0e		 ja	 SHORT $LN46@Pop_heap_h
  000a3	0f 2f c1	 comiss	 xmm0, xmm1
  000a6	77 1c		 ja	 SHORT $LN47@Pop_heap_h
  000a8	8b 44 d1 04	 mov	 eax, DWORD PTR [ecx+edx*8+4]
  000ac	3b 47 04	 cmp	 eax, DWORD PTR [edi+4]
  000af	7d 13		 jge	 SHORT $LN47@Pop_heap_h
$LN46@Pop_heap_h:

; 290  :         first  = _STD forward<_Ty1>(_Right.first);

  000b1	f3 0f 11 04 f1	 movss	 DWORD PTR [ecx+esi*8], xmm0

; 291  :         second = _STD forward<_Ty2>(_Right.second);

  000b6	8b 44 d1 04	 mov	 eax, DWORD PTR [ecx+edx*8+4]
  000ba	89 44 f1 04	 mov	 DWORD PTR [ecx+esi*8+4], eax
; File C:\Program Files (x86)\Microsoft Visual Studio\2019\Community\VC\Tools\MSVC\14.28.29333\include\algorithm

; 6081 :         _Hole             = _Idx;

  000be	8b f2		 mov	 esi, edx
  000c0	3b da		 cmp	 ebx, edx
  000c2	7c cc		 jl	 SHORT $LL21@Pop_heap_h
$LN47@Pop_heap_h:
; File C:\Program Files (x86)\Microsoft Visual Studio\2019\Community\VC\Tools\MSVC\14.28.29333\include\utility

; 290  :         first  = _STD forward<_Ty1>(_Right.first);

  000c4	8b 07		 mov	 eax, DWORD PTR [edi]
  000c6	89 04 f1	 mov	 DWORD PTR [ecx+esi*8], eax

; 291  :         second = _STD forward<_Ty2>(_Right.second);

  000c9	8b 47 04	 mov	 eax, DWORD PTR [edi+4]
  000cc	5f		 pop	 edi
  000cd	89 44 f1 04	 mov	 DWORD PTR [ecx+esi*8+4], eax
  000d1	5e		 pop	 esi
  000d2	5b		 pop	 ebx
; File C:\Program Files (x86)\Microsoft Visual Studio\2019\Community\VC\Tools\MSVC\14.28.29333\include\algorithm

; 6212 : }

  000d3	5d		 pop	 ebp
  000d4	c3		 ret	 0
??$_Pop_heap_hole_by_index@PAU?$pair@MJ@std@@U12@U?$less@X@2@@std@@YAXPAU?$pair@MJ@0@HH$$QAU10@U?$less@X@0@@Z ENDP ; std::_Pop_heap_hole_by_index<std::pair<float,long> *,std::pair<float,long>,std::less<void> >
_TEXT	ENDS
; Function compile flags: /Ogtp
; File C:\Program Files (x86)\Microsoft Visual Studio\2019\Community\VC\Tools\MSVC\14.28.29333\include\xmemory
;	COMDAT ??$_Destroy_range@PAUTPatchDrawStruct@CMapOutdoor@@PAU12@@std@@YAXPAUTPatchDrawStruct@CMapOutdoor@@QAU12@@Z
_TEXT	SEGMENT
__First$ = 8						; size = 4
__Last$ = 12						; size = 4
??$_Destroy_range@PAUTPatchDrawStruct@CMapOutdoor@@PAU12@@std@@YAXPAUTPatchDrawStruct@CMapOutdoor@@QAU12@@Z PROC ; std::_Destroy_range<CMapOutdoor::TPatchDrawStruct *,CMapOutdoor::TPatchDrawStruct *>, COMDAT

; 975  :     // note that this is an optimization for debug mode codegen; in release mode the BE removes all of this
; 976  :     if _CONSTEXPR_IF (!is_trivially_destructible_v<_Iter_value_t<_NoThrowFwdIt>>) {
; 977  :         for (; _First != _Last; ++_First) {
; 978  :             _Destroy_in_place(*_First);
; 979  :         }
; 980  :     }
; 981  : }

  00000	c2 00 00	 ret	 0
??$_Destroy_range@PAUTPatchDrawStruct@CMapOutdoor@@PAU12@@std@@YAXPAUTPatchDrawStruct@CMapOutdoor@@QAU12@@Z ENDP ; std::_Destroy_range<CMapOutdoor::TPatchDrawStruct *,CMapOutdoor::TPatchDrawStruct *>
_TEXT	ENDS
; Function compile flags: /Ogtp
; File C:\Program Files (x86)\Microsoft Visual Studio\2019\Community\VC\Tools\MSVC\14.28.29333\include\algorithm
;	COMDAT ??$_Buffered_inplace_merge_unchecked_impl@PAUTPatchDrawStruct@CMapOutdoor@@UFSortPatchDrawStructWithTerrainNum@2@@std@@YAXPAUTPatchDrawStruct@CMapOutdoor@@00HHQAU12@HUFSortPatchDrawStructWithTerrainNum@2@@Z
_TEXT	SEGMENT
__First$ = 8						; size = 4
__Mid$ = 12						; size = 4
__Last$ = 16						; size = 4
__Count1$ = 20						; size = 4
__Count2$ = 24						; size = 4
__Temp_ptr$ = 28					; size = 4
__Capacity$ = 32					; size = 4
__Pred$ = 36						; size = 1
??$_Buffered_inplace_merge_unchecked_impl@PAUTPatchDrawStruct@CMapOutdoor@@UFSortPatchDrawStructWithTerrainNum@2@@std@@YAXPAUTPatchDrawStruct@CMapOutdoor@@00HHQAU12@HUFSortPatchDrawStructWithTerrainNum@2@@Z PROC ; std::_Buffered_inplace_merge_unchecked_impl<CMapOutdoor::TPatchDrawStruct *,CMapOutdoor::FSortPatchDrawStructWithTerrainNum>, COMDAT

; 7279 :     _Iter_diff_t<_BidIt> _Count2, _Iter_value_t<_BidIt>* const _Temp_ptr, const ptrdiff_t _Capacity, _Pr _Pred) {

  00000	55		 push	 ebp
  00001	8b ec		 mov	 ebp, esp

; 7280 :     // merge sorted [_First, _Mid) with sorted [_Mid, _Last)
; 7281 :     // usual invariants apply
; 7282 :     if (_Count1 <= _Count2 && _Count1 <= _Capacity) {

  00003	8b 4d 14	 mov	 ecx, DWORD PTR __Count1$[ebp]
  00006	8b 55 18	 mov	 edx, DWORD PTR __Count2$[ebp]
  00009	8b 45 20	 mov	 eax, DWORD PTR __Capacity$[ebp]
  0000c	3b ca		 cmp	 ecx, edx
  0000e	7f 1d		 jg	 SHORT $LN2@Buffered_i
  00010	3b c8		 cmp	 ecx, eax
  00012	7f 19		 jg	 SHORT $LN2@Buffered_i

; 7283 :         _Inplace_merge_buffer_left(_First, _Mid, _Last, _Temp_ptr, _Pred);

  00014	ff 75 24	 push	 DWORD PTR __Pred$[ebp]
  00017	ff 75 1c	 push	 DWORD PTR __Temp_ptr$[ebp]
  0001a	ff 75 10	 push	 DWORD PTR __Last$[ebp]
  0001d	ff 75 0c	 push	 DWORD PTR __Mid$[ebp]
  00020	ff 75 08	 push	 DWORD PTR __First$[ebp]
  00023	e8 00 00 00 00	 call	 ??$_Inplace_merge_buffer_left@PAUTPatchDrawStruct@CMapOutdoor@@UFSortPatchDrawStructWithTerrainNum@2@@std@@YAXPAUTPatchDrawStruct@CMapOutdoor@@00QAU12@UFSortPatchDrawStructWithTerrainNum@2@@Z ; std::_Inplace_merge_buffer_left<CMapOutdoor::TPatchDrawStruct *,CMapOutdoor::FSortPatchDrawStructWithTerrainNum>
  00028	83 c4 14	 add	 esp, 20			; 00000014H

; 7288 :     }
; 7289 : }

  0002b	5d		 pop	 ebp
  0002c	c3		 ret	 0
$LN2@Buffered_i:

; 7284 :     } else if (_Count2 <= _Capacity) {

  0002d	ff 75 24	 push	 DWORD PTR __Pred$[ebp]
  00030	3b d0		 cmp	 edx, eax
  00032	7f 16		 jg	 SHORT $LN4@Buffered_i

; 7285 :         _Inplace_merge_buffer_right(_First, _Mid, _Last, _Temp_ptr, _Pred);

  00034	ff 75 1c	 push	 DWORD PTR __Temp_ptr$[ebp]
  00037	ff 75 10	 push	 DWORD PTR __Last$[ebp]
  0003a	ff 75 0c	 push	 DWORD PTR __Mid$[ebp]
  0003d	ff 75 08	 push	 DWORD PTR __First$[ebp]
  00040	e8 00 00 00 00	 call	 ??$_Inplace_merge_buffer_right@PAUTPatchDrawStruct@CMapOutdoor@@UFSortPatchDrawStructWithTerrainNum@2@@std@@YAXPAUTPatchDrawStruct@CMapOutdoor@@00QAU12@UFSortPatchDrawStructWithTerrainNum@2@@Z ; std::_Inplace_merge_buffer_right<CMapOutdoor::TPatchDrawStruct *,CMapOutdoor::FSortPatchDrawStructWithTerrainNum>
  00045	83 c4 14	 add	 esp, 20			; 00000014H

; 7288 :     }
; 7289 : }

  00048	5d		 pop	 ebp
  00049	c3		 ret	 0
$LN4@Buffered_i:

; 7286 :     } else {
; 7287 :         _Buffered_inplace_merge_divide_and_conquer(_First, _Mid, _Last, _Count1, _Count2, _Temp_ptr, _Capacity, _Pred);

  0004a	50		 push	 eax
  0004b	ff 75 1c	 push	 DWORD PTR __Temp_ptr$[ebp]
  0004e	52		 push	 edx
  0004f	51		 push	 ecx
  00050	ff 75 10	 push	 DWORD PTR __Last$[ebp]
  00053	ff 75 0c	 push	 DWORD PTR __Mid$[ebp]
  00056	ff 75 08	 push	 DWORD PTR __First$[ebp]
  00059	e8 00 00 00 00	 call	 ??$_Buffered_inplace_merge_divide_and_conquer@PAUTPatchDrawStruct@CMapOutdoor@@UFSortPatchDrawStructWithTerrainNum@2@@std@@YAXPAUTPatchDrawStruct@CMapOutdoor@@00HHQAU12@HUFSortPatchDrawStructWithTerrainNum@2@@Z ; std::_Buffered_inplace_merge_divide_and_conquer<CMapOutdoor::TPatchDrawStruct *,CMapOutdoor::FSortPatchDrawStructWithTerrainNum>
  0005e	83 c4 20	 add	 esp, 32			; 00000020H

; 7288 :     }
; 7289 : }

  00061	5d		 pop	 ebp
  00062	c3		 ret	 0
??$_Buffered_inplace_merge_unchecked_impl@PAUTPatchDrawStruct@CMapOutdoor@@UFSortPatchDrawStructWithTerrainNum@2@@std@@YAXPAUTPatchDrawStruct@CMapOutdoor@@00HHQAU12@HUFSortPatchDrawStructWithTerrainNum@2@@Z ENDP ; std::_Buffered_inplace_merge_unchecked_impl<CMapOutdoor::TPatchDrawStruct *,CMapOutdoor::FSortPatchDrawStructWithTerrainNum>
_TEXT	ENDS
; Function compile flags: /Ogtp
; File C:\Program Files (x86)\Microsoft Visual Studio\2019\Community\VC\Tools\MSVC\14.28.29333\include\algorithm
; File C:\Program Files (x86)\Microsoft Visual Studio\2019\Community\VC\Tools\MSVC\14.28.29333\include\xutility
; File C:\Program Files (x86)\Microsoft Visual Studio\2019\Community\VC\Tools\MSVC\14.28.29333\include\algorithm
; File C:\Program Files (x86)\Microsoft Visual Studio\2019\Community\VC\Tools\MSVC\14.28.29333\include\xutility
; File C:\Program Files (x86)\Microsoft Visual Studio\2019\Community\VC\Tools\MSVC\14.28.29333\include\algorithm
; File C:\Program Files (x86)\Microsoft Visual Studio\2019\Community\VC\Tools\MSVC\14.28.29333\include\xutility
; File C:\Program Files (x86)\Microsoft Visual Studio\2019\Community\VC\Tools\MSVC\14.28.29333\include\algorithm
; File C:\Program Files (x86)\Microsoft Visual Studio\2019\Community\VC\Tools\MSVC\14.28.29333\include\xutility
; File C:\Program Files (x86)\Microsoft Visual Studio\2019\Community\VC\Tools\MSVC\14.28.29333\include\algorithm
;	COMDAT ??$_Rotate_one_left@PAUTPatchDrawStruct@CMapOutdoor@@@std@@YAXPAUTPatchDrawStruct@CMapOutdoor@@00@Z
_TEXT	SEGMENT
__Temp$1$ = -16						; size = 16
__First$ = 8						; size = 4
__Mid$ = 12						; size = 4
__Last$ = 16						; size = 4
??$_Rotate_one_left@PAUTPatchDrawStruct@CMapOutdoor@@@std@@YAXPAUTPatchDrawStruct@CMapOutdoor@@00@Z PROC ; std::_Rotate_one_left<CMapOutdoor::TPatchDrawStruct *>, COMDAT

; 7163 : void _Rotate_one_left(_BidIt _First, _BidIt _Mid, _BidIt _Last) {

  00000	55		 push	 ebp
  00001	8b ec		 mov	 ebp, esp
  00003	83 ec 10	 sub	 esp, 16			; 00000010H

; 7166 :     _Iter_value_t<_BidIt> _Temp(_STD move(*_First));

  00006	8b 45 08	 mov	 eax, DWORD PTR __First$[ebp]
; File C:\Program Files (x86)\Microsoft Visual Studio\2019\Community\VC\Tools\MSVC\14.28.29333\include\xutility

; 4628 :             return _Copy_memmove(_First, _Last, _Dest);

  00009	50		 push	 eax
  0000a	ff 75 10	 push	 DWORD PTR __Last$[ebp]
; File C:\Program Files (x86)\Microsoft Visual Studio\2019\Community\VC\Tools\MSVC\14.28.29333\include\algorithm

; 7166 :     _Iter_value_t<_BidIt> _Temp(_STD move(*_First));

  0000d	0f 10 00	 movups	 xmm0, XMMWORD PTR [eax]
; File C:\Program Files (x86)\Microsoft Visual Studio\2019\Community\VC\Tools\MSVC\14.28.29333\include\xutility

; 4628 :             return _Copy_memmove(_First, _Last, _Dest);

  00010	ff 75 0c	 push	 DWORD PTR __Mid$[ebp]
; File C:\Program Files (x86)\Microsoft Visual Studio\2019\Community\VC\Tools\MSVC\14.28.29333\include\algorithm

; 7166 :     _Iter_value_t<_BidIt> _Temp(_STD move(*_First));

  00013	0f 11 45 f0	 movups	 XMMWORD PTR __Temp$1$[ebp], xmm0
; File C:\Program Files (x86)\Microsoft Visual Studio\2019\Community\VC\Tools\MSVC\14.28.29333\include\xutility

; 4628 :             return _Copy_memmove(_First, _Last, _Dest);

  00017	e8 00 00 00 00	 call	 ??$_Copy_memmove@PAUTPatchDrawStruct@CMapOutdoor@@PAU12@@std@@YAPAUTPatchDrawStruct@CMapOutdoor@@PAU12@00@Z ; std::_Copy_memmove<CMapOutdoor::TPatchDrawStruct *,CMapOutdoor::TPatchDrawStruct *>
; File C:\Program Files (x86)\Microsoft Visual Studio\2019\Community\VC\Tools\MSVC\14.28.29333\include\algorithm

; 7167 :     *_Move_unchecked(_Mid, _Last, _First) = _STD move(_Temp);

  0001c	0f 10 45 f0	 movups	 xmm0, XMMWORD PTR __Temp$1$[ebp]
; File C:\Program Files (x86)\Microsoft Visual Studio\2019\Community\VC\Tools\MSVC\14.28.29333\include\xutility

; 4628 :             return _Copy_memmove(_First, _Last, _Dest);

  00020	83 c4 0c	 add	 esp, 12			; 0000000cH
; File C:\Program Files (x86)\Microsoft Visual Studio\2019\Community\VC\Tools\MSVC\14.28.29333\include\algorithm

; 7167 :     *_Move_unchecked(_Mid, _Last, _First) = _STD move(_Temp);

  00023	0f 11 00	 movups	 XMMWORD PTR [eax], xmm0

; 7168 : }

  00026	8b e5		 mov	 esp, ebp
  00028	5d		 pop	 ebp
  00029	c3		 ret	 0
??$_Rotate_one_left@PAUTPatchDrawStruct@CMapOutdoor@@@std@@YAXPAUTPatchDrawStruct@CMapOutdoor@@00@Z ENDP ; std::_Rotate_one_left<CMapOutdoor::TPatchDrawStruct *>
_TEXT	ENDS
; Function compile flags: /Ogtp
; File C:\Program Files (x86)\Microsoft Visual Studio\2019\Community\VC\Tools\MSVC\14.28.29333\include\algorithm
; File C:\Program Files (x86)\Microsoft Visual Studio\2019\Community\VC\Tools\MSVC\14.28.29333\include\xutility
; File C:\Program Files (x86)\Microsoft Visual Studio\2019\Community\VC\Tools\MSVC\14.28.29333\include\algorithm
; File C:\Program Files (x86)\Microsoft Visual Studio\2019\Community\VC\Tools\MSVC\14.28.29333\include\xutility
; File C:\Program Files (x86)\Microsoft Visual Studio\2019\Community\VC\Tools\MSVC\14.28.29333\include\algorithm
; File C:\Program Files (x86)\Microsoft Visual Studio\2019\Community\VC\Tools\MSVC\14.28.29333\include\xutility
; File C:\Program Files (x86)\Microsoft Visual Studio\2019\Community\VC\Tools\MSVC\14.28.29333\include\algorithm
; File C:\Program Files (x86)\Microsoft Visual Studio\2019\Community\VC\Tools\MSVC\14.28.29333\include\xutility
; File C:\Program Files (x86)\Microsoft Visual Studio\2019\Community\VC\Tools\MSVC\14.28.29333\include\algorithm
;	COMDAT ??$_Rotate_one_right@PAUTPatchDrawStruct@CMapOutdoor@@@std@@YAXPAUTPatchDrawStruct@CMapOutdoor@@00@Z
_TEXT	SEGMENT
__Temp$1$ = -16						; size = 16
__First$ = 8						; size = 4
__Mid$ = 12						; size = 4
__Last$ = 16						; size = 4
??$_Rotate_one_right@PAUTPatchDrawStruct@CMapOutdoor@@@std@@YAXPAUTPatchDrawStruct@CMapOutdoor@@00@Z PROC ; std::_Rotate_one_right<CMapOutdoor::TPatchDrawStruct *>, COMDAT

; 7154 : void _Rotate_one_right(_BidIt _First, _BidIt _Mid, _BidIt _Last) {

  00000	55		 push	 ebp
  00001	8b ec		 mov	 ebp, esp
  00003	83 ec 10	 sub	 esp, 16			; 00000010H

; 7157 :     _Iter_value_t<_BidIt> _Temp(_STD move(*_Mid));

  00006	8b 45 0c	 mov	 eax, DWORD PTR __Mid$[ebp]
  00009	56		 push	 esi
; File C:\Program Files (x86)\Microsoft Visual Studio\2019\Community\VC\Tools\MSVC\14.28.29333\include\xutility

; 4696 :             return _Copy_backward_memmove(_First, _Last, _Dest);

  0000a	ff 75 10	 push	 DWORD PTR __Last$[ebp]
  0000d	8b 75 08	 mov	 esi, DWORD PTR __First$[ebp]
; File C:\Program Files (x86)\Microsoft Visual Studio\2019\Community\VC\Tools\MSVC\14.28.29333\include\algorithm

; 7157 :     _Iter_value_t<_BidIt> _Temp(_STD move(*_Mid));

  00010	0f 10 00	 movups	 xmm0, XMMWORD PTR [eax]
; File C:\Program Files (x86)\Microsoft Visual Studio\2019\Community\VC\Tools\MSVC\14.28.29333\include\xutility

; 4696 :             return _Copy_backward_memmove(_First, _Last, _Dest);

  00013	50		 push	 eax
  00014	56		 push	 esi
; File C:\Program Files (x86)\Microsoft Visual Studio\2019\Community\VC\Tools\MSVC\14.28.29333\include\algorithm

; 7157 :     _Iter_value_t<_BidIt> _Temp(_STD move(*_Mid));

  00015	0f 11 45 f0	 movups	 XMMWORD PTR __Temp$1$[ebp], xmm0
; File C:\Program Files (x86)\Microsoft Visual Studio\2019\Community\VC\Tools\MSVC\14.28.29333\include\xutility

; 4696 :             return _Copy_backward_memmove(_First, _Last, _Dest);

  00019	e8 00 00 00 00	 call	 ??$_Copy_backward_memmove@PAUTPatchDrawStruct@CMapOutdoor@@PAU12@@std@@YAPAUTPatchDrawStruct@CMapOutdoor@@PAU12@00@Z ; std::_Copy_backward_memmove<CMapOutdoor::TPatchDrawStruct *,CMapOutdoor::TPatchDrawStruct *>
; File C:\Program Files (x86)\Microsoft Visual Studio\2019\Community\VC\Tools\MSVC\14.28.29333\include\algorithm

; 7159 :     *_First = _STD move(_Temp);

  0001e	0f 10 45 f0	 movups	 xmm0, XMMWORD PTR __Temp$1$[ebp]
; File C:\Program Files (x86)\Microsoft Visual Studio\2019\Community\VC\Tools\MSVC\14.28.29333\include\xutility

; 4696 :             return _Copy_backward_memmove(_First, _Last, _Dest);

  00022	83 c4 0c	 add	 esp, 12			; 0000000cH
; File C:\Program Files (x86)\Microsoft Visual Studio\2019\Community\VC\Tools\MSVC\14.28.29333\include\algorithm

; 7159 :     *_First = _STD move(_Temp);

  00025	0f 11 06	 movups	 XMMWORD PTR [esi], xmm0
  00028	5e		 pop	 esi

; 7160 : }

  00029	8b e5		 mov	 esp, ebp
  0002b	5d		 pop	 ebp
  0002c	c3		 ret	 0
??$_Rotate_one_right@PAUTPatchDrawStruct@CMapOutdoor@@@std@@YAXPAUTPatchDrawStruct@CMapOutdoor@@00@Z ENDP ; std::_Rotate_one_right<CMapOutdoor::TPatchDrawStruct *>
_TEXT	ENDS
; Function compile flags: /Ogtp
; File C:\Program Files (x86)\Microsoft Visual Studio\2019\Community\VC\Tools\MSVC\14.28.29333\include\algorithm
; File C:\Program Files (x86)\Microsoft Visual Studio\2019\Community\VC\Tools\MSVC\14.28.29333\include\xutility
; File C:\Program Files (x86)\Microsoft Visual Studio\2019\Community\VC\Tools\MSVC\14.28.29333\include\utility
; File C:\Program Files (x86)\Microsoft Visual Studio\2019\Community\VC\Tools\MSVC\14.28.29333\include\algorithm
; File C:\Program Files (x86)\Microsoft Visual Studio\2019\Community\VC\Tools\MSVC\14.28.29333\include\utility
; File C:\Program Files (x86)\Microsoft Visual Studio\2019\Community\VC\Tools\MSVC\14.28.29333\include\algorithm
; File C:\Program Files (x86)\Microsoft Visual Studio\2019\Community\VC\Tools\MSVC\14.28.29333\include\xutility
; File C:\Program Files (x86)\Microsoft Visual Studio\2019\Community\VC\Tools\MSVC\14.28.29333\include\algorithm
; File C:\Program Files (x86)\Microsoft Visual Studio\2019\Community\VC\Tools\MSVC\14.28.29333\include\xutility
; File C:\Program Files (x86)\Microsoft Visual Studio\2019\Community\VC\Tools\MSVC\14.28.29333\include\algorithm
;	COMDAT ??$_Chunked_merge_unchecked@PAUTPatchDrawStruct@CMapOutdoor@@PAU12@UFSortPatchDrawStructWithTerrainNum@2@@std@@YAXPAUTPatchDrawStruct@CMapOutdoor@@QAU12@0HHUFSortPatchDrawStructWithTerrainNum@2@@Z
_TEXT	SEGMENT
__First$ = 8						; size = 4
__Last$ = 12						; size = 4
__Dest$ = 16						; size = 4
tv187 = 20						; size = 4
__Chunk$ = 20						; size = 4
__Count$ = 24						; size = 4
__Pred$ = 28						; size = 1
??$_Chunked_merge_unchecked@PAUTPatchDrawStruct@CMapOutdoor@@PAU12@UFSortPatchDrawStructWithTerrainNum@2@@std@@YAXPAUTPatchDrawStruct@CMapOutdoor@@QAU12@0HHUFSortPatchDrawStructWithTerrainNum@2@@Z PROC ; std::_Chunked_merge_unchecked<CMapOutdoor::TPatchDrawStruct *,CMapOutdoor::TPatchDrawStruct *,CMapOutdoor::FSortPatchDrawStructWithTerrainNum>, COMDAT

; 7890 :     _Iter_diff_t<_BidIt> _Count, _Pr _Pred) {

  00000	55		 push	 ebp
  00001	8b ec		 mov	 ebp, esp

; 7891 :     // move merging adjacent chunks of distance _Chunk
; 7892 :     // pre: _Count == distance(_First, _Last)
; 7893 :     // pre: _Chunk > 0
; 7894 :     while (_Chunk < _Count) {

  00003	8b 55 10	 mov	 edx, DWORD PTR __Dest$[ebp]
  00006	8b 4d 08	 mov	 ecx, DWORD PTR __First$[ebp]
  00009	53		 push	 ebx
  0000a	8b 5d 14	 mov	 ebx, DWORD PTR __Chunk$[ebp]
  0000d	56		 push	 esi
  0000e	8b 75 18	 mov	 esi, DWORD PTR __Count$[ebp]
  00011	3b de		 cmp	 ebx, esi
  00013	7d 38		 jge	 SHORT $LN3@Chunked_me
  00015	8b c3		 mov	 eax, ebx
  00017	c1 e0 04	 shl	 eax, 4
  0001a	89 45 14	 mov	 DWORD PTR tv187[ebp], eax
  0001d	57		 push	 edi
  0001e	66 90		 npad	 2
$LL2@Chunked_me:

; 7900 :         _Dest              = _Merge_move(_First, _Mid1, _Mid2, _Dest, _Pred);

  00020	ff 75 1c	 push	 DWORD PTR __Pred$[ebp]
  00023	2b f3		 sub	 esi, ebx
; File C:\Program Files (x86)\Microsoft Visual Studio\2019\Community\VC\Tools\MSVC\14.28.29333\include\xutility

; 1714 :         _Where += _Off;

  00025	03 c1		 add	 eax, ecx
; File C:\Program Files (x86)\Microsoft Visual Studio\2019\Community\VC\Tools\MSVC\14.28.29333\include\utility

; 68   :     return _Right < _Left ? _Right : _Left;

  00027	3b f3		 cmp	 esi, ebx
  00029	8b fb		 mov	 edi, ebx
; File C:\Program Files (x86)\Microsoft Visual Studio\2019\Community\VC\Tools\MSVC\14.28.29333\include\algorithm

; 7900 :         _Dest              = _Merge_move(_First, _Mid1, _Mid2, _Dest, _Pred);

  0002b	52		 push	 edx
; File C:\Program Files (x86)\Microsoft Visual Studio\2019\Community\VC\Tools\MSVC\14.28.29333\include\utility

; 68   :     return _Right < _Left ? _Right : _Left;

  0002c	0f 4c fe	 cmovl	 edi, esi
; File C:\Program Files (x86)\Microsoft Visual Studio\2019\Community\VC\Tools\MSVC\14.28.29333\include\algorithm

; 7897 :         const auto _Chunk2 = (_STD min)(_Chunk, _Count);

  0002f	2b f7		 sub	 esi, edi
; File C:\Program Files (x86)\Microsoft Visual Studio\2019\Community\VC\Tools\MSVC\14.28.29333\include\xutility

; 1714 :         _Where += _Off;

  00031	c1 e7 04	 shl	 edi, 4
  00034	03 f8		 add	 edi, eax
; File C:\Program Files (x86)\Microsoft Visual Studio\2019\Community\VC\Tools\MSVC\14.28.29333\include\algorithm

; 7900 :         _Dest              = _Merge_move(_First, _Mid1, _Mid2, _Dest, _Pred);

  00036	57		 push	 edi
  00037	50		 push	 eax
  00038	51		 push	 ecx
  00039	e8 00 00 00 00	 call	 ??$_Merge_move@PAUTPatchDrawStruct@CMapOutdoor@@PAU12@UFSortPatchDrawStructWithTerrainNum@2@@std@@YAPAUTPatchDrawStruct@CMapOutdoor@@PAU12@QAU12@10UFSortPatchDrawStructWithTerrainNum@2@@Z ; std::_Merge_move<CMapOutdoor::TPatchDrawStruct *,CMapOutdoor::TPatchDrawStruct *,CMapOutdoor::FSortPatchDrawStructWithTerrainNum>
  0003e	83 c4 14	 add	 esp, 20			; 00000014H
  00041	8b d0		 mov	 edx, eax
  00043	8b 45 14	 mov	 eax, DWORD PTR tv187[ebp]

; 7901 :         _First             = _Mid2;

  00046	8b cf		 mov	 ecx, edi
  00048	3b de		 cmp	 ebx, esi
  0004a	7c d4		 jl	 SHORT $LL2@Chunked_me

; 7891 :     // move merging adjacent chunks of distance _Chunk
; 7892 :     // pre: _Count == distance(_First, _Last)
; 7893 :     // pre: _Chunk > 0
; 7894 :     while (_Chunk < _Count) {

  0004c	5f		 pop	 edi
$LN3@Chunked_me:
; File C:\Program Files (x86)\Microsoft Visual Studio\2019\Community\VC\Tools\MSVC\14.28.29333\include\xutility

; 4628 :             return _Copy_memmove(_First, _Last, _Dest);

  0004d	52		 push	 edx
  0004e	ff 75 0c	 push	 DWORD PTR __Last$[ebp]
  00051	51		 push	 ecx
  00052	e8 00 00 00 00	 call	 ??$_Copy_memmove@PAUTPatchDrawStruct@CMapOutdoor@@PAU12@@std@@YAPAUTPatchDrawStruct@CMapOutdoor@@PAU12@00@Z ; std::_Copy_memmove<CMapOutdoor::TPatchDrawStruct *,CMapOutdoor::TPatchDrawStruct *>
  00057	83 c4 0c	 add	 esp, 12			; 0000000cH
  0005a	5e		 pop	 esi
  0005b	5b		 pop	 ebx
; File C:\Program Files (x86)\Microsoft Visual Studio\2019\Community\VC\Tools\MSVC\14.28.29333\include\algorithm

; 7905 : }

  0005c	5d		 pop	 ebp
  0005d	c3		 ret	 0
??$_Chunked_merge_unchecked@PAUTPatchDrawStruct@CMapOutdoor@@PAU12@UFSortPatchDrawStructWithTerrainNum@2@@std@@YAXPAUTPatchDrawStruct@CMapOutdoor@@QAU12@0HHUFSortPatchDrawStructWithTerrainNum@2@@Z ENDP ; std::_Chunked_merge_unchecked<CMapOutdoor::TPatchDrawStruct *,CMapOutdoor::TPatchDrawStruct *,CMapOutdoor::FSortPatchDrawStructWithTerrainNum>
_TEXT	ENDS
; Function compile flags: /Ogtp
; File C:\Program Files (x86)\Microsoft Visual Studio\2019\Community\VC\Tools\MSVC\14.28.29333\include\algorithm
; File C:\Program Files (x86)\Microsoft Visual Studio\2019\Community\VC\Tools\MSVC\14.28.29333\include\xmemory
; File C:\Program Files (x86)\Microsoft Visual Studio\2019\Community\VC\Tools\MSVC\14.28.29333\include\algorithm
; File C:\Program Files (x86)\Microsoft Visual Studio\2019\Community\VC\Tools\MSVC\14.28.29333\include\xutility
; File C:\Program Files (x86)\Microsoft Visual Studio\2019\Community\VC\Tools\MSVC\14.28.29333\include\utility
; File C:\Program Files (x86)\Microsoft Visual Studio\2019\Community\VC\Tools\MSVC\14.28.29333\include\algorithm
; File C:\Program Files (x86)\Microsoft Visual Studio\2019\Community\VC\Tools\MSVC\14.28.29333\include\utility
; File C:\Program Files (x86)\Microsoft Visual Studio\2019\Community\VC\Tools\MSVC\14.28.29333\include\algorithm
; File C:\Program Files (x86)\Microsoft Visual Studio\2019\Community\VC\Tools\MSVC\14.28.29333\include\xutility
; File C:\Program Files (x86)\Microsoft Visual Studio\2019\Community\VC\Tools\MSVC\14.28.29333\include\algorithm
;	COMDAT ??$_Uninitialized_chunked_merge_unchecked@PAUTPatchDrawStruct@CMapOutdoor@@U12@UFSortPatchDrawStructWithTerrainNum@2@@std@@YAXPAUTPatchDrawStruct@CMapOutdoor@@QAU12@0HHUFSortPatchDrawStructWithTerrainNum@2@@Z
_TEXT	SEGMENT
__First$ = 8						; size = 4
__Last$ = 12						; size = 4
tv188 = 16						; size = 4
__Dest$ = 16						; size = 4
__Chunk$ = 20						; size = 4
__Count$ = 24						; size = 4
__Pred$ = 28						; size = 1
??$_Uninitialized_chunked_merge_unchecked@PAUTPatchDrawStruct@CMapOutdoor@@U12@UFSortPatchDrawStructWithTerrainNum@2@@std@@YAXPAUTPatchDrawStruct@CMapOutdoor@@QAU12@0HHUFSortPatchDrawStructWithTerrainNum@2@@Z PROC ; std::_Uninitialized_chunked_merge_unchecked<CMapOutdoor::TPatchDrawStruct *,CMapOutdoor::TPatchDrawStruct,CMapOutdoor::FSortPatchDrawStructWithTerrainNum>, COMDAT

; 7869 :     const _Iter_diff_t<_BidIt> _Chunk, _Iter_diff_t<_BidIt> _Count, _Pr _Pred) {

  00000	55		 push	 ebp
  00001	8b ec		 mov	 ebp, esp
; File C:\Program Files (x86)\Microsoft Visual Studio\2019\Community\VC\Tools\MSVC\14.28.29333\include\xmemory

; 1428 :     constexpr explicit _Uninitialized_backout(_NoThrowFwdIt _Dest) : _First(_Dest), _Last(_Dest) {}

  00003	8b 55 10	 mov	 edx, DWORD PTR __Dest$[ebp]
; File C:\Program Files (x86)\Microsoft Visual Studio\2019\Community\VC\Tools\MSVC\14.28.29333\include\algorithm

; 7874 :     while (_Chunk < _Count) {

  00006	8b 4d 08	 mov	 ecx, DWORD PTR __First$[ebp]
  00009	53		 push	 ebx
  0000a	8b 5d 14	 mov	 ebx, DWORD PTR __Chunk$[ebp]
  0000d	56		 push	 esi
  0000e	8b 75 18	 mov	 esi, DWORD PTR __Count$[ebp]
  00011	3b de		 cmp	 ebx, esi
  00013	7d 38		 jge	 SHORT $LN3@Uninitiali
  00015	8b c3		 mov	 eax, ebx
  00017	c1 e0 04	 shl	 eax, 4
  0001a	89 45 10	 mov	 DWORD PTR tv188[ebp], eax
  0001d	57		 push	 edi
  0001e	66 90		 npad	 2
$LL2@Uninitiali:

; 7880 :         _Backout._Last     = _Uninitialized_merge_move(_First, _Mid1, _Mid2, _Backout._Last, _Pred);

  00020	ff 75 1c	 push	 DWORD PTR __Pred$[ebp]
  00023	2b f3		 sub	 esi, ebx
; File C:\Program Files (x86)\Microsoft Visual Studio\2019\Community\VC\Tools\MSVC\14.28.29333\include\xutility

; 1714 :         _Where += _Off;

  00025	03 c1		 add	 eax, ecx
; File C:\Program Files (x86)\Microsoft Visual Studio\2019\Community\VC\Tools\MSVC\14.28.29333\include\utility

; 68   :     return _Right < _Left ? _Right : _Left;

  00027	3b f3		 cmp	 esi, ebx
  00029	8b fb		 mov	 edi, ebx
; File C:\Program Files (x86)\Microsoft Visual Studio\2019\Community\VC\Tools\MSVC\14.28.29333\include\algorithm

; 7880 :         _Backout._Last     = _Uninitialized_merge_move(_First, _Mid1, _Mid2, _Backout._Last, _Pred);

  0002b	52		 push	 edx
; File C:\Program Files (x86)\Microsoft Visual Studio\2019\Community\VC\Tools\MSVC\14.28.29333\include\utility

; 68   :     return _Right < _Left ? _Right : _Left;

  0002c	0f 4c fe	 cmovl	 edi, esi
; File C:\Program Files (x86)\Microsoft Visual Studio\2019\Community\VC\Tools\MSVC\14.28.29333\include\algorithm

; 7877 :         const auto _Chunk2 = (_STD min)(_Chunk, _Count);

  0002f	2b f7		 sub	 esi, edi
; File C:\Program Files (x86)\Microsoft Visual Studio\2019\Community\VC\Tools\MSVC\14.28.29333\include\xutility

; 1714 :         _Where += _Off;

  00031	c1 e7 04	 shl	 edi, 4
  00034	03 f8		 add	 edi, eax
; File C:\Program Files (x86)\Microsoft Visual Studio\2019\Community\VC\Tools\MSVC\14.28.29333\include\algorithm

; 7880 :         _Backout._Last     = _Uninitialized_merge_move(_First, _Mid1, _Mid2, _Backout._Last, _Pred);

  00036	57		 push	 edi
  00037	50		 push	 eax
  00038	51		 push	 ecx
  00039	e8 00 00 00 00	 call	 ??$_Uninitialized_merge_move@PAUTPatchDrawStruct@CMapOutdoor@@U12@UFSortPatchDrawStructWithTerrainNum@2@@std@@YAPAUTPatchDrawStruct@CMapOutdoor@@PAU12@QAU12@11UFSortPatchDrawStructWithTerrainNum@2@@Z ; std::_Uninitialized_merge_move<CMapOutdoor::TPatchDrawStruct *,CMapOutdoor::TPatchDrawStruct,CMapOutdoor::FSortPatchDrawStructWithTerrainNum>
  0003e	83 c4 14	 add	 esp, 20			; 00000014H
  00041	8b d0		 mov	 edx, eax
  00043	8b 45 10	 mov	 eax, DWORD PTR tv188[ebp]

; 7881 :         _First             = _Mid2;

  00046	8b cf		 mov	 ecx, edi
  00048	3b de		 cmp	 ebx, esi
  0004a	7c d4		 jl	 SHORT $LL2@Uninitiali

; 7874 :     while (_Chunk < _Count) {

  0004c	5f		 pop	 edi
$LN3@Uninitiali:

; 7882 :     }
; 7883 : 
; 7884 :     _Uninitialized_move_unchecked(_First, _Last, _Backout._Last); // copy partial last chunk

  0004d	52		 push	 edx
  0004e	ff 75 0c	 push	 DWORD PTR __Last$[ebp]
  00051	51		 push	 ecx
  00052	e8 00 00 00 00	 call	 ??$_Uninitialized_move_unchecked@PAUTPatchDrawStruct@CMapOutdoor@@PAU12@@std@@YAPAUTPatchDrawStruct@CMapOutdoor@@PAU12@QAU12@0@Z ; std::_Uninitialized_move_unchecked<CMapOutdoor::TPatchDrawStruct *,CMapOutdoor::TPatchDrawStruct *>
  00057	83 c4 0c	 add	 esp, 12			; 0000000cH
  0005a	5e		 pop	 esi
  0005b	5b		 pop	 ebx

; 7885 :     _Backout._Release();
; 7886 : }

  0005c	5d		 pop	 ebp
  0005d	c3		 ret	 0
??$_Uninitialized_chunked_merge_unchecked@PAUTPatchDrawStruct@CMapOutdoor@@U12@UFSortPatchDrawStructWithTerrainNum@2@@std@@YAXPAUTPatchDrawStruct@CMapOutdoor@@QAU12@0HHUFSortPatchDrawStructWithTerrainNum@2@@Z ENDP ; std::_Uninitialized_chunked_merge_unchecked<CMapOutdoor::TPatchDrawStruct *,CMapOutdoor::TPatchDrawStruct,CMapOutdoor::FSortPatchDrawStructWithTerrainNum>
_TEXT	ENDS
; Function compile flags: /Ogtp
; File C:\Program Files (x86)\Microsoft Visual Studio\2019\Community\VC\Tools\MSVC\14.28.29333\include\algorithm
; File C:\Program Files (x86)\Microsoft Visual Studio\2019\Community\VC\Tools\MSVC\14.28.29333\include\xutility
; File C:\Program Files (x86)\Microsoft Visual Studio\2019\Community\VC\Tools\MSVC\14.28.29333\include\algorithm
; File C:\Program Files (x86)\Microsoft Visual Studio\2019\Community\VC\Tools\MSVC\14.28.29333\include\xutility
; File D:\Metin2 Server Files\mainline\SRC_2014\Metin2Client\GameLib\MapOutdoor.h
; File C:\Program Files (x86)\Microsoft Visual Studio\2019\Community\VC\Tools\MSVC\14.28.29333\include\algorithm
; File C:\Program Files (x86)\Microsoft Visual Studio\2019\Community\VC\Tools\MSVC\14.28.29333\include\xutility
; File C:\Program Files (x86)\Microsoft Visual Studio\2019\Community\VC\Tools\MSVC\14.28.29333\include\algorithm
; File C:\Program Files (x86)\Microsoft Visual Studio\2019\Community\VC\Tools\MSVC\14.28.29333\include\xutility
; File C:\Program Files (x86)\Windows Kits\10\Include\10.0.18362.0\ucrt\corecrt_memory.h
; File C:\Program Files (x86)\Microsoft Visual Studio\2019\Community\VC\Tools\MSVC\14.28.29333\include\xutility
; File C:\Program Files (x86)\Microsoft Visual Studio\2019\Community\VC\Tools\MSVC\14.28.29333\include\vector
; File C:\Program Files (x86)\Microsoft Visual Studio\2019\Community\VC\Tools\MSVC\14.28.29333\include\xutility
; File C:\Program Files (x86)\Windows Kits\10\Include\10.0.18362.0\ucrt\corecrt_memory.h
; File C:\Program Files (x86)\Microsoft Visual Studio\2019\Community\VC\Tools\MSVC\14.28.29333\include\xutility
; File C:\Program Files (x86)\Windows Kits\10\Include\10.0.18362.0\ucrt\corecrt_memory.h
; File C:\Program Files (x86)\Microsoft Visual Studio\2019\Community\VC\Tools\MSVC\14.28.29333\include\xutility
; File C:\Program Files (x86)\Microsoft Visual Studio\2019\Community\VC\Tools\MSVC\14.28.29333\include\vector
; File C:\Program Files (x86)\Microsoft Visual Studio\2019\Community\VC\Tools\MSVC\14.28.29333\include\xutility
; File C:\Program Files (x86)\Microsoft Visual Studio\2019\Community\VC\Tools\MSVC\14.28.29333\include\vector
; File C:\Program Files (x86)\Microsoft Visual Studio\2019\Community\VC\Tools\MSVC\14.28.29333\include\xutility
; File D:\Metin2 Server Files\mainline\SRC_2014\Metin2Client\GameLib\MapOutdoor.h
; File C:\Program Files (x86)\Microsoft Visual Studio\2019\Community\VC\Tools\MSVC\14.28.29333\include\vector
; File D:\Metin2 Server Files\mainline\SRC_2014\Metin2Client\GameLib\MapOutdoor.h
; File C:\Program Files (x86)\Microsoft Visual Studio\2019\Community\VC\Tools\MSVC\14.28.29333\include\vector
; File D:\Metin2 Server Files\mainline\SRC_2014\Metin2Client\GameLib\MapOutdoor.h
; File C:\Program Files (x86)\Microsoft Visual Studio\2019\Community\VC\Tools\MSVC\14.28.29333\include\vector
; File D:\Metin2 Server Files\mainline\SRC_2014\Metin2Client\GameLib\MapOutdoor.h
; File C:\Program Files (x86)\Microsoft Visual Studio\2019\Community\VC\Tools\MSVC\14.28.29333\include\xutility
; File C:\Program Files (x86)\Windows Kits\10\Include\10.0.18362.0\ucrt\corecrt_memory.h
; File C:\Program Files (x86)\Microsoft Visual Studio\2019\Community\VC\Tools\MSVC\14.28.29333\include\xutility
; File C:\Program Files (x86)\Microsoft Visual Studio\2019\Community\VC\Tools\MSVC\14.28.29333\include\vector
; File D:\Metin2 Server Files\mainline\SRC_2014\Metin2Client\GameLib\MapOutdoor.h
; File C:\Program Files (x86)\Microsoft Visual Studio\2019\Community\VC\Tools\MSVC\14.28.29333\include\vector
; File D:\Metin2 Server Files\mainline\SRC_2014\Metin2Client\GameLib\MapOutdoor.h
; File C:\Program Files (x86)\Microsoft Visual Studio\2019\Community\VC\Tools\MSVC\14.28.29333\include\vector
; File D:\Metin2 Server Files\mainline\SRC_2014\Metin2Client\GameLib\MapOutdoor.h
; File C:\Program Files (x86)\Microsoft Visual Studio\2019\Community\VC\Tools\MSVC\14.28.29333\include\vector
; File D:\Metin2 Server Files\mainline\SRC_2014\Metin2Client\GameLib\MapOutdoor.h
; File C:\Program Files (x86)\Microsoft Visual Studio\2019\Community\VC\Tools\MSVC\14.28.29333\include\vector
; File D:\Metin2 Server Files\mainline\SRC_2014\Metin2Client\GameLib\MapOutdoor.h
; File C:\Program Files (x86)\Microsoft Visual Studio\2019\Community\VC\Tools\MSVC\14.28.29333\include\vector
; File D:\Metin2 Server Files\mainline\SRC_2014\Metin2Client\GameLib\MapOutdoor.h
; File C:\Program Files (x86)\Microsoft Visual Studio\2019\Community\VC\Tools\MSVC\14.28.29333\include\algorithm
; File C:\Program Files (x86)\Microsoft Visual Studio\2019\Community\VC\Tools\MSVC\14.28.29333\include\xutility
; File C:\Program Files (x86)\Microsoft Visual Studio\2019\Community\VC\Tools\MSVC\14.28.29333\include\algorithm
; File C:\Program Files (x86)\Microsoft Visual Studio\2019\Community\VC\Tools\MSVC\14.28.29333\include\xutility
; File C:\Program Files (x86)\Microsoft Visual Studio\2019\Community\VC\Tools\MSVC\14.28.29333\include\algorithm
; File C:\Program Files (x86)\Microsoft Visual Studio\2019\Community\VC\Tools\MSVC\14.28.29333\include\xutility
; File C:\Program Files (x86)\Microsoft Visual Studio\2019\Community\VC\Tools\MSVC\14.28.29333\include\algorithm
; File D:\Metin2 Server Files\mainline\SRC_2014\Metin2Client\GameLib\MapOutdoor.h
; File C:\Program Files (x86)\Microsoft Visual Studio\2019\Community\VC\Tools\MSVC\14.28.29333\include\xutility
; File C:\Program Files (x86)\Windows Kits\10\Include\10.0.18362.0\ucrt\corecrt_memory.h
; File C:\Program Files (x86)\Microsoft Visual Studio\2019\Community\VC\Tools\MSVC\14.28.29333\include\xutility
; File C:\Program Files (x86)\Microsoft Visual Studio\2019\Community\VC\Tools\MSVC\14.28.29333\include\vector
; File C:\Program Files (x86)\Microsoft Visual Studio\2019\Community\VC\Tools\MSVC\14.28.29333\include\xutility
; File C:\Program Files (x86)\Microsoft Visual Studio\2019\Community\VC\Tools\MSVC\14.28.29333\include\vector
; File C:\Program Files (x86)\Microsoft Visual Studio\2019\Community\VC\Tools\MSVC\14.28.29333\include\xutility
; File C:\Program Files (x86)\Windows Kits\10\Include\10.0.18362.0\ucrt\corecrt_memory.h
; File C:\Program Files (x86)\Microsoft Visual Studio\2019\Community\VC\Tools\MSVC\14.28.29333\include\xutility
; File C:\Program Files (x86)\Windows Kits\10\Include\10.0.18362.0\ucrt\corecrt_memory.h
; File C:\Program Files (x86)\Microsoft Visual Studio\2019\Community\VC\Tools\MSVC\14.28.29333\include\xutility
; File C:\Program Files (x86)\Microsoft Visual Studio\2019\Community\VC\Tools\MSVC\14.28.29333\include\vector
; File D:\Metin2 Server Files\mainline\SRC_2014\Metin2Client\GameLib\MapOutdoor.h
; File C:\Program Files (x86)\Microsoft Visual Studio\2019\Community\VC\Tools\MSVC\14.28.29333\include\xutility
; File C:\Program Files (x86)\Microsoft Visual Studio\2019\Community\VC\Tools\MSVC\14.28.29333\include\vector
; File C:\Program Files (x86)\Microsoft Visual Studio\2019\Community\VC\Tools\MSVC\14.28.29333\include\xutility
; File D:\Metin2 Server Files\mainline\SRC_2014\Metin2Client\GameLib\MapOutdoor.h
; File C:\Program Files (x86)\Microsoft Visual Studio\2019\Community\VC\Tools\MSVC\14.28.29333\include\vector
; File D:\Metin2 Server Files\mainline\SRC_2014\Metin2Client\GameLib\MapOutdoor.h
; File C:\Program Files (x86)\Microsoft Visual Studio\2019\Community\VC\Tools\MSVC\14.28.29333\include\vector
; File D:\Metin2 Server Files\mainline\SRC_2014\Metin2Client\GameLib\MapOutdoor.h
; File C:\Program Files (x86)\Microsoft Visual Studio\2019\Community\VC\Tools\MSVC\14.28.29333\include\vector
; File D:\Metin2 Server Files\mainline\SRC_2014\Metin2Client\GameLib\MapOutdoor.h
; File C:\Program Files (x86)\Microsoft Visual Studio\2019\Community\VC\Tools\MSVC\14.28.29333\include\xutility
; File C:\Program Files (x86)\Windows Kits\10\Include\10.0.18362.0\ucrt\corecrt_memory.h
; File C:\Program Files (x86)\Microsoft Visual Studio\2019\Community\VC\Tools\MSVC\14.28.29333\include\xutility
; File C:\Program Files (x86)\Microsoft Visual Studio\2019\Community\VC\Tools\MSVC\14.28.29333\include\vector
; File D:\Metin2 Server Files\mainline\SRC_2014\Metin2Client\GameLib\MapOutdoor.h
; File C:\Program Files (x86)\Microsoft Visual Studio\2019\Community\VC\Tools\MSVC\14.28.29333\include\vector
; File D:\Metin2 Server Files\mainline\SRC_2014\Metin2Client\GameLib\MapOutdoor.h
; File C:\Program Files (x86)\Microsoft Visual Studio\2019\Community\VC\Tools\MSVC\14.28.29333\include\vector
; File D:\Metin2 Server Files\mainline\SRC_2014\Metin2Client\GameLib\MapOutdoor.h
; File C:\Program Files (x86)\Microsoft Visual Studio\2019\Community\VC\Tools\MSVC\14.28.29333\include\vector
; File D:\Metin2 Server Files\mainline\SRC_2014\Metin2Client\GameLib\MapOutdoor.h
; File C:\Program Files (x86)\Microsoft Visual Studio\2019\Community\VC\Tools\MSVC\14.28.29333\include\algorithm
; File D:\Metin2 Server Files\mainline\SRC_2014\Metin2Client\GameLib\MapOutdoor.h
; File C:\Program Files (x86)\Microsoft Visual Studio\2019\Community\VC\Tools\MSVC\14.28.29333\include\algorithm
;	COMDAT ??$_Insertion_sort_isort_max_chunks@PAUTPatchDrawStruct@CMapOutdoor@@UFSortPatchDrawStructWithTerrainNum@2@@std@@YAXPAUTPatchDrawStruct@CMapOutdoor@@QAU12@HUFSortPatchDrawStructWithTerrainNum@2@@Z
_TEXT	SEGMENT
__Val$2$ = -72						; size = 16
__Val$1 = -56						; size = 16
tv1926 = -40						; size = 4
tv1927 = -36						; size = 4
__First$1$ = -32					; size = 4
tv1963 = -28						; size = 4
__Val$1$ = -24						; size = 4
__Hole$1$ = -20						; size = 4
__Mid$1$ = -16						; size = 4
tv1909 = -12						; size = 4
_lhsTerrainNumOrder$1$ = -12				; size = 4
tv1925 = -8						; size = 4
tv1951 = -4						; size = 4
tv1937 = -4						; size = 4
__First$ = 8						; size = 4
__Last$ = 12						; size = 4
_rhsTerrainNumOrder$1$ = 16				; size = 4
_rhsTerrainNumOrder$1$ = 16				; size = 4
__Count$ = 16						; size = 4
tv1938 = 19						; size = 1
tv1908 = 19						; size = 1
__Pred$ = 20						; size = 1
??$_Insertion_sort_isort_max_chunks@PAUTPatchDrawStruct@CMapOutdoor@@UFSortPatchDrawStructWithTerrainNum@2@@std@@YAXPAUTPatchDrawStruct@CMapOutdoor@@QAU12@HUFSortPatchDrawStructWithTerrainNum@2@@Z PROC ; std::_Insertion_sort_isort_max_chunks<CMapOutdoor::TPatchDrawStruct *,CMapOutdoor::FSortPatchDrawStructWithTerrainNum>, COMDAT

; 7908 : void _Insertion_sort_isort_max_chunks(_BidIt _First, const _BidIt _Last, _Iter_diff_t<_BidIt> _Count, _Pr _Pred) {

  00000	55		 push	 ebp
  00001	8b ec		 mov	 ebp, esp

; 7909 :     // insertion sort every chunk of distance _ISORT_MAX in [_First, _Last)
; 7910 :     // pre: _Count == distance(_First, _Last)
; 7911 :     for (; _ISORT_MAX < _Count; _Count -= _ISORT_MAX) { // sort chunks

  00003	8b 45 10	 mov	 eax, DWORD PTR __Count$[ebp]
  00006	83 ec 48	 sub	 esp, 72			; 00000048H
  00009	83 f8 20	 cmp	 eax, 32			; 00000020H
  0000c	0f 8e 39 03 00
	00		 jle	 $LN349@Insertion_
  00012	8d 50 df	 lea	 edx, DWORD PTR [eax-33]
  00015	8b 45 08	 mov	 eax, DWORD PTR __First$[ebp]
  00018	53		 push	 ebx
  00019	c1 ea 05	 shr	 edx, 5
  0001c	42		 inc	 edx
  0001d	89 45 e0	 mov	 DWORD PTR __First$1$[ebp], eax
  00020	56		 push	 esi
  00021	89 55 dc	 mov	 DWORD PTR tv1927[ebp], edx
  00024	57		 push	 edi
$LL4@Insertion_:
; File C:\Program Files (x86)\Microsoft Visual Studio\2019\Community\VC\Tools\MSVC\14.28.29333\include\xutility

; 1714 :         _Where += _Off;

  00025	8d 88 00 02 00
	00		 lea	 ecx, DWORD PTR [eax+512]
  0002b	89 4d d8	 mov	 DWORD PTR tv1926[ebp], ecx
; File C:\Program Files (x86)\Microsoft Visual Studio\2019\Community\VC\Tools\MSVC\14.28.29333\include\algorithm

; 7412 :     if (_First != _Last) {

  0002e	3b c1		 cmp	 eax, ecx
  00030	0f 84 ee 02 00
	00		 je	 $LN12@Insertion_

; 7413 :         for (_BidIt _Mid = _First; ++_Mid != _Last;) { // order next element

  00036	8d 58 10	 lea	 ebx, DWORD PTR [eax+16]
  00039	89 5d f0	 mov	 DWORD PTR __Mid$1$[ebp], ebx
  0003c	3b d9		 cmp	 ebx, ecx
  0003e	0f 84 e0 02 00
	00		 je	 $LN12@Insertion_
  00044	83 c0 04	 add	 eax, 4
  00047	89 45 e8	 mov	 DWORD PTR __Val$1$[ebp], eax
  0004a	66 0f 1f 44 00
	00		 npad	 6
$LL11@Insertion_:

; 7415 :             _Iter_value_t<_BidIt> _Val = _STD move(*_Mid);

  00050	0f 10 03	 movups	 xmm0, XMMWORD PTR [ebx]
; File C:\Program Files (x86)\Microsoft Visual Studio\2019\Community\VC\Tools\MSVC\14.28.29333\include\xutility

; 5480 :     _Seek_wrapped(_First, _Find_unchecked(_Get_unwrapped(_First), _Get_unwrapped(_Last), _Val));

  00053	8b 3d 04 00 00
	00		 mov	 edi, DWORD PTR ?m_TerrainNumVector@FSortPatchDrawStructWithTerrainNum@CMapOutdoor@@2V?$vector@EV?$allocator@E@std@@@std@@A+4
; File D:\Metin2 Server Files\mainline\SRC_2014\Metin2Client\GameLib\MapOutdoor.h

; 360  : 				DWORD lhsTerrainNumOrder = 0, rhsTerrainNumOrder = 0;

  00059	33 c0		 xor	 eax, eax
  0005b	89 45 f4	 mov	 DWORD PTR _lhsTerrainNumOrder$1$[ebp], eax
; File C:\Program Files (x86)\Microsoft Visual Studio\2019\Community\VC\Tools\MSVC\14.28.29333\include\algorithm

; 7415 :             _Iter_value_t<_BidIt> _Val = _STD move(*_Mid);

  0005e	0f 11 45 b8	 movups	 XMMWORD PTR __Val$2$[ebp], xmm0
  00062	89 5d ec	 mov	 DWORD PTR __Hole$1$[ebp], ebx
; File C:\Program Files (x86)\Microsoft Visual Studio\2019\Community\VC\Tools\MSVC\14.28.29333\include\xutility

; 5461 :     _First =

  00065	8b 1d 00 00 00
	00		 mov	 ebx, DWORD PTR ?m_TerrainNumVector@FSortPatchDrawStructWithTerrainNum@CMapOutdoor@@2V?$vector@EV?$allocator@E@std@@@std@@A
; File C:\Program Files (x86)\Microsoft Visual Studio\2019\Community\VC\Tools\MSVC\14.28.29333\include\algorithm

; 7415 :             _Iter_value_t<_BidIt> _Val = _STD move(*_Mid);

  0006b	0f 11 45 c8	 movups	 XMMWORD PTR __Val$1[ebp], xmm0
; File C:\Program Files (x86)\Microsoft Visual Studio\2019\Community\VC\Tools\MSVC\14.28.29333\include\xutility

; 5480 :     _Seek_wrapped(_First, _Find_unchecked(_Get_unwrapped(_First), _Get_unwrapped(_Last), _Val));

  0006f	89 7d fc	 mov	 DWORD PTR tv1937[ebp], edi

; 5461 :     _First =

  00072	66 0f 73 d8 04	 psrldq	 xmm0, 4
  00077	66 0f 7e c0	 movd	 eax, xmm0
  0007b	0f b6 c8	 movzx	 ecx, al
  0007e	89 45 e4	 mov	 DWORD PTR tv1963[ebp], eax
  00081	8b c7		 mov	 eax, edi
  00083	2b c3		 sub	 eax, ebx
  00085	89 4d f8	 mov	 DWORD PTR tv1925[ebp], ecx
; File C:\Program Files (x86)\Windows Kits\10\Include\10.0.18362.0\ucrt\corecrt_memory.h

; 107  :         return const_cast<void*>(memchr(_Pvc, _C, _N));

  00088	50		 push	 eax
  00089	51		 push	 ecx
  0008a	53		 push	 ebx
  0008b	e8 00 00 00 00	 call	 _memchr
; File C:\Program Files (x86)\Microsoft Visual Studio\2019\Community\VC\Tools\MSVC\14.28.29333\include\xutility

; 5463 :     return _First ? _First : _Last;

  00090	85 c0		 test	 eax, eax
  00092	8b cf		 mov	 ecx, edi
  00094	0f 45 c8	 cmovne	 ecx, eax
; File C:\Program Files (x86)\Microsoft Visual Studio\2019\Community\VC\Tools\MSVC\14.28.29333\include\vector

; 195  :         _Ptr = _Refancy<_Tptr>(const_cast<value_type*>(_It));

  00097	51		 push	 ecx
  00098	e8 00 00 00 00	 call	 ??$_Refancy@PAE$0A@@std@@YAPAEPAE@Z ; std::_Refancy<unsigned char *,0>
  0009d	8b f0		 mov	 esi, eax
; File C:\Program Files (x86)\Microsoft Visual Studio\2019\Community\VC\Tools\MSVC\14.28.29333\include\xutility

; 5461 :     _First =

  0009f	8b 45 e8	 mov	 eax, DWORD PTR __Val$1$[ebp]
  000a2	8a 08		 mov	 cl, BYTE PTR [eax]
  000a4	8b c7		 mov	 eax, edi
  000a6	2b c3		 sub	 eax, ebx
  000a8	88 4d 13	 mov	 BYTE PTR tv1938[ebp], cl
; File C:\Program Files (x86)\Windows Kits\10\Include\10.0.18362.0\ucrt\corecrt_memory.h

; 107  :         return const_cast<void*>(memchr(_Pvc, _C, _N));

  000ab	50		 push	 eax
; File C:\Program Files (x86)\Microsoft Visual Studio\2019\Community\VC\Tools\MSVC\14.28.29333\include\xutility

; 5461 :     _First =

  000ac	0f b6 c1	 movzx	 eax, cl
; File C:\Program Files (x86)\Windows Kits\10\Include\10.0.18362.0\ucrt\corecrt_memory.h

; 107  :         return const_cast<void*>(memchr(_Pvc, _C, _N));

  000af	50		 push	 eax
  000b0	53		 push	 ebx
  000b1	e8 00 00 00 00	 call	 _memchr
; File C:\Program Files (x86)\Microsoft Visual Studio\2019\Community\VC\Tools\MSVC\14.28.29333\include\xutility

; 5463 :     return _First ? _First : _Last;

  000b6	85 c0		 test	 eax, eax
  000b8	8b cf		 mov	 ecx, edi
  000ba	0f 45 c8	 cmovne	 ecx, eax
; File C:\Program Files (x86)\Microsoft Visual Studio\2019\Community\VC\Tools\MSVC\14.28.29333\include\vector

; 195  :         _Ptr = _Refancy<_Tptr>(const_cast<value_type*>(_It));

  000bd	51		 push	 ecx
  000be	e8 00 00 00 00	 call	 ??$_Refancy@PAE$0A@@std@@YAPAEPAE@Z ; std::_Refancy<unsigned char *,0>
; File C:\Program Files (x86)\Microsoft Visual Studio\2019\Community\VC\Tools\MSVC\14.28.29333\include\xutility

; 5481 :     return _First;

  000c3	8b d7		 mov	 edx, edi
; File C:\Program Files (x86)\Microsoft Visual Studio\2019\Community\VC\Tools\MSVC\14.28.29333\include\vector

; 195  :         _Ptr = _Refancy<_Tptr>(const_cast<value_type*>(_It));

  000c5	83 c4 20	 add	 esp, 32			; 00000020H
; File C:\Program Files (x86)\Microsoft Visual Studio\2019\Community\VC\Tools\MSVC\14.28.29333\include\xutility

; 5481 :     return _First;

  000c8	8b c8		 mov	 ecx, eax
  000ca	3b f2		 cmp	 esi, edx
; File D:\Metin2 Server Files\mainline\SRC_2014\Metin2Client\GameLib\MapOutdoor.h

; 367  : 				if (lhsIterator != m_TerrainNumVector.end())

  000cc	74 07		 je	 SHORT $LN22@Insertion_

; 368  : 				{
; 369  : 					blhsOrderFound = true;

  000ce	8b c6		 mov	 eax, esi
  000d0	2b c3		 sub	 eax, ebx
  000d2	89 45 f4	 mov	 DWORD PTR _lhsTerrainNumOrder$1$[ebp], eax
$LN22@Insertion_:
; File C:\Program Files (x86)\Microsoft Visual Studio\2019\Community\VC\Tools\MSVC\14.28.29333\include\vector

; 149  :         return _Ptr == _Right._Ptr;

  000d5	3b ca		 cmp	 ecx, edx
; File D:\Metin2 Server Files\mainline\SRC_2014\Metin2Client\GameLib\MapOutdoor.h

; 372  : 				if (rhsIterator != m_TerrainNumVector.end())

  000d7	74 04		 je	 SHORT $LN345@Insertion_
; File C:\Program Files (x86)\Microsoft Visual Studio\2019\Community\VC\Tools\MSVC\14.28.29333\include\vector

; 140  :         return _Ptr - _Right._Ptr;

  000d9	2b cb		 sub	 ecx, ebx
; File D:\Metin2 Server Files\mainline\SRC_2014\Metin2Client\GameLib\MapOutdoor.h

; 377  : 				if (!brhsOrderFound)

  000db	eb 3e		 jmp	 SHORT $LN353@Insertion_
$LN345@Insertion_:
; File C:\Program Files (x86)\Microsoft Visual Studio\2019\Community\VC\Tools\MSVC\14.28.29333\include\vector

; 704  :         if (_Mylast != _My_data._Myend) {

  000dd	3b 15 08 00 00
	00		 cmp	 edx, DWORD PTR ?m_TerrainNumVector@FSortPatchDrawStructWithTerrainNum@CMapOutdoor@@2V?$vector@EV?$allocator@E@std@@@std@@A+8
  000e3	74 14		 je	 SHORT $LN118@Insertion_

; 687  :         _Alty_traits::construct(_Getal(), _Unfancy(_Mylast), _STD forward<_Valty>(_Val)...);

  000e5	8a 45 13	 mov	 al, BYTE PTR tv1938[ebp]
  000e8	88 02		 mov	 BYTE PTR [edx], al

; 690  :         ++_Mylast;

  000ea	8b 3d 04 00 00
	00		 mov	 edi, DWORD PTR ?m_TerrainNumVector@FSortPatchDrawStructWithTerrainNum@CMapOutdoor@@2V?$vector@EV?$allocator@E@std@@@std@@A+4
  000f0	47		 inc	 edi
  000f1	89 3d 04 00 00
	00		 mov	 DWORD PTR ?m_TerrainNumVector@FSortPatchDrawStructWithTerrainNum@CMapOutdoor@@2V?$vector@EV?$allocator@E@std@@@std@@A+4, edi

; 705  :             return _Emplace_back_with_unused_capacity(_STD forward<_Valty>(_Val)...);

  000f7	eb 17		 jmp	 SHORT $LN117@Insertion_
$LN118@Insertion_:

; 708  :         _Ty& _Result = *_Emplace_reallocate(_Mylast, _STD forward<_Valty>(_Val)...);

  000f9	ff 75 e8	 push	 DWORD PTR __Val$1$[ebp]
  000fc	b9 00 00 00 00	 mov	 ecx, OFFSET ?m_TerrainNumVector@FSortPatchDrawStructWithTerrainNum@CMapOutdoor@@2V?$vector@EV?$allocator@E@std@@@std@@A ; CMapOutdoor::FSortPatchDrawStructWithTerrainNum::m_TerrainNumVector
  00101	52		 push	 edx
  00102	e8 00 00 00 00	 call	 ??$_Emplace_reallocate@ABE@?$vector@EV?$allocator@E@std@@@std@@QAEPAEQAEABE@Z ; std::vector<unsigned char,std::allocator<unsigned char> >::_Emplace_reallocate<unsigned char const &>
  00107	8b 3d 04 00 00
	00		 mov	 edi, DWORD PTR ?m_TerrainNumVector@FSortPatchDrawStructWithTerrainNum@CMapOutdoor@@2V?$vector@EV?$allocator@E@std@@@std@@A+4
  0010d	8b 55 fc	 mov	 edx, DWORD PTR tv1937[ebp]
$LN117@Insertion_:
; File D:\Metin2 Server Files\mainline\SRC_2014\Metin2Client\GameLib\MapOutdoor.h

; 380  : 					rhsTerrainNumOrder = m_TerrainNumVector.size() -1;

  00110	8b 1d 00 00 00
	00		 mov	 ebx, DWORD PTR ?m_TerrainNumVector@FSortPatchDrawStructWithTerrainNum@CMapOutdoor@@2V?$vector@EV?$allocator@E@std@@@std@@A
  00116	8b cf		 mov	 ecx, edi
  00118	2b cb		 sub	 ecx, ebx
  0011a	49		 dec	 ecx
$LN353@Insertion_:

; 381  : 				}
; 382  : 				if (!blhsOrderFound)

  0011b	3b f2		 cmp	 esi, edx
  0011d	89 4d 10	 mov	 DWORD PTR _rhsTerrainNumOrder$1$[ebp], ecx
  00120	8b 75 f8	 mov	 esi, DWORD PTR tv1925[ebp]
  00123	75 6d		 jne	 SHORT $LN350@Insertion_
; File C:\Program Files (x86)\Microsoft Visual Studio\2019\Community\VC\Tools\MSVC\14.28.29333\include\xutility

; 5461 :     _First =

  00125	8b c7		 mov	 eax, edi
  00127	2b c3		 sub	 eax, ebx
; File C:\Program Files (x86)\Windows Kits\10\Include\10.0.18362.0\ucrt\corecrt_memory.h

; 107  :         return const_cast<void*>(memchr(_Pvc, _C, _N));

  00129	50		 push	 eax
  0012a	56		 push	 esi
  0012b	53		 push	 ebx
  0012c	e8 00 00 00 00	 call	 _memchr
; File C:\Program Files (x86)\Microsoft Visual Studio\2019\Community\VC\Tools\MSVC\14.28.29333\include\xutility

; 5463 :     return _First ? _First : _Last;

  00131	85 c0		 test	 eax, eax
  00133	8b cf		 mov	 ecx, edi
  00135	0f 45 c8	 cmovne	 ecx, eax
; File C:\Program Files (x86)\Microsoft Visual Studio\2019\Community\VC\Tools\MSVC\14.28.29333\include\vector

; 195  :         _Ptr = _Refancy<_Tptr>(const_cast<value_type*>(_It));

  00138	51		 push	 ecx
  00139	e8 00 00 00 00	 call	 ??$_Refancy@PAE$0A@@std@@YAPAEPAE@Z ; std::_Refancy<unsigned char *,0>
  0013e	83 c4 10	 add	 esp, 16			; 00000010H
; File D:\Metin2 Server Files\mainline\SRC_2014\Metin2Client\GameLib\MapOutdoor.h

; 384  : 					lhsIterator = std::find(m_TerrainNumVector.begin(), m_TerrainNumVector.end(), lhs.byTerrainNum);

  00141	3b c7		 cmp	 eax, edi

; 385  : 					if (lhsIterator != m_TerrainNumVector.end())

  00143	74 04		 je	 SHORT $LN346@Insertion_
; File C:\Program Files (x86)\Microsoft Visual Studio\2019\Community\VC\Tools\MSVC\14.28.29333\include\vector

; 140  :         return _Ptr - _Right._Ptr;

  00145	2b c3		 sub	 eax, ebx
; File D:\Metin2 Server Files\mainline\SRC_2014\Metin2Client\GameLib\MapOutdoor.h

; 390  : 					if (!blhsOrderFound)

  00147	eb 4c		 jmp	 SHORT $LN354@Insertion_
$LN346@Insertion_:
; File C:\Program Files (x86)\Microsoft Visual Studio\2019\Community\VC\Tools\MSVC\14.28.29333\include\vector

; 704  :         if (_Mylast != _My_data._Myend) {

  00149	3b 3d 08 00 00
	00		 cmp	 edi, DWORD PTR ?m_TerrainNumVector@FSortPatchDrawStructWithTerrainNum@CMapOutdoor@@2V?$vector@EV?$allocator@E@std@@@std@@A+8
  0014f	74 1f		 je	 SHORT $LN170@Insertion_

; 687  :         _Alty_traits::construct(_Getal(), _Unfancy(_Mylast), _STD forward<_Valty>(_Val)...);

  00151	8b 45 e4	 mov	 eax, DWORD PTR tv1963[ebp]
  00154	88 07		 mov	 BYTE PTR [edi], al

; 690  :         ++_Mylast;

  00156	8b 3d 04 00 00
	00		 mov	 edi, DWORD PTR ?m_TerrainNumVector@FSortPatchDrawStructWithTerrainNum@CMapOutdoor@@2V?$vector@EV?$allocator@E@std@@@std@@A+4
; File D:\Metin2 Server Files\mainline\SRC_2014\Metin2Client\GameLib\MapOutdoor.h

; 393  : 						lhsTerrainNumOrder = m_TerrainNumVector.size() -1;

  0015c	8b 0d 00 00 00
	00		 mov	 ecx, DWORD PTR ?m_TerrainNumVector@FSortPatchDrawStructWithTerrainNum@CMapOutdoor@@2V?$vector@EV?$allocator@E@std@@@std@@A
; File C:\Program Files (x86)\Microsoft Visual Studio\2019\Community\VC\Tools\MSVC\14.28.29333\include\vector

; 690  :         ++_Mylast;

  00162	47		 inc	 edi
; File D:\Metin2 Server Files\mainline\SRC_2014\Metin2Client\GameLib\MapOutdoor.h

; 393  : 						lhsTerrainNumOrder = m_TerrainNumVector.size() -1;

  00163	8b c7		 mov	 eax, edi
; File C:\Program Files (x86)\Microsoft Visual Studio\2019\Community\VC\Tools\MSVC\14.28.29333\include\vector

; 690  :         ++_Mylast;

  00165	89 3d 04 00 00
	00		 mov	 DWORD PTR ?m_TerrainNumVector@FSortPatchDrawStructWithTerrainNum@CMapOutdoor@@2V?$vector@EV?$allocator@E@std@@@std@@A+4, edi
; File D:\Metin2 Server Files\mainline\SRC_2014\Metin2Client\GameLib\MapOutdoor.h

; 393  : 						lhsTerrainNumOrder = m_TerrainNumVector.size() -1;

  0016b	2b c1		 sub	 eax, ecx
  0016d	48		 dec	 eax
  0016e	eb 2b		 jmp	 SHORT $LN27@Insertion_
$LN170@Insertion_:
; File C:\Program Files (x86)\Microsoft Visual Studio\2019\Community\VC\Tools\MSVC\14.28.29333\include\vector

; 708  :         _Ty& _Result = *_Emplace_reallocate(_Mylast, _STD forward<_Valty>(_Val)...);

  00170	8d 45 cc	 lea	 eax, DWORD PTR __Val$1[ebp+4]
  00173	b9 00 00 00 00	 mov	 ecx, OFFSET ?m_TerrainNumVector@FSortPatchDrawStructWithTerrainNum@CMapOutdoor@@2V?$vector@EV?$allocator@E@std@@@std@@A ; CMapOutdoor::FSortPatchDrawStructWithTerrainNum::m_TerrainNumVector
  00178	50		 push	 eax
  00179	57		 push	 edi
  0017a	e8 00 00 00 00	 call	 ??$_Emplace_reallocate@ABE@?$vector@EV?$allocator@E@std@@@std@@QAEPAEQAEABE@Z ; std::vector<unsigned char,std::allocator<unsigned char> >::_Emplace_reallocate<unsigned char const &>
  0017f	8b 3d 04 00 00
	00		 mov	 edi, DWORD PTR ?m_TerrainNumVector@FSortPatchDrawStructWithTerrainNum@CMapOutdoor@@2V?$vector@EV?$allocator@E@std@@@std@@A+4
; File D:\Metin2 Server Files\mainline\SRC_2014\Metin2Client\GameLib\MapOutdoor.h

; 393  : 						lhsTerrainNumOrder = m_TerrainNumVector.size() -1;

  00185	8b c7		 mov	 eax, edi
  00187	8b 0d 00 00 00
	00		 mov	 ecx, DWORD PTR ?m_TerrainNumVector@FSortPatchDrawStructWithTerrainNum@CMapOutdoor@@2V?$vector@EV?$allocator@E@std@@@std@@A
  0018d	2b c1		 sub	 eax, ecx
  0018f	48		 dec	 eax
  00190	eb 09		 jmp	 SHORT $LN27@Insertion_
$LN350@Insertion_:

; 381  : 				}
; 382  : 				if (!blhsOrderFound)

  00192	8b 45 f4	 mov	 eax, DWORD PTR _lhsTerrainNumOrder$1$[ebp]
$LN354@Insertion_:

; 397  : 				return lhsTerrainNumOrder < rhsTerrainNumOrder;

  00195	8b 0d 00 00 00
	00		 mov	 ecx, DWORD PTR ?m_TerrainNumVector@FSortPatchDrawStructWithTerrainNum@CMapOutdoor@@2V?$vector@EV?$allocator@E@std@@@std@@A
$LN27@Insertion_:
  0019b	3b 45 10	 cmp	 eax, DWORD PTR _rhsTerrainNumOrder$1$[ebp]
; File C:\Program Files (x86)\Microsoft Visual Studio\2019\Community\VC\Tools\MSVC\14.28.29333\include\algorithm

; 7417 :             if (_DEBUG_LT_PRED(_Pred, _Val, *_First)) { // found new earliest element, move to front

  0019e	73 20		 jae	 SHORT $LN18@Insertion_
; File C:\Program Files (x86)\Microsoft Visual Studio\2019\Community\VC\Tools\MSVC\14.28.29333\include\xutility

; 4696 :             return _Copy_backward_memmove(_First, _Last, _Dest);

  001a0	8b 5d f0	 mov	 ebx, DWORD PTR __Mid$1$[ebp]
  001a3	8b 75 e0	 mov	 esi, DWORD PTR __First$1$[ebp]
  001a6	8d 43 10	 lea	 eax, DWORD PTR [ebx+16]
  001a9	50		 push	 eax
  001aa	53		 push	 ebx
  001ab	56		 push	 esi
  001ac	e8 00 00 00 00	 call	 ??$_Copy_backward_memmove@PAUTPatchDrawStruct@CMapOutdoor@@PAU12@@std@@YAPAUTPatchDrawStruct@CMapOutdoor@@PAU12@00@Z ; std::_Copy_backward_memmove<CMapOutdoor::TPatchDrawStruct *,CMapOutdoor::TPatchDrawStruct *>
; File C:\Program Files (x86)\Microsoft Visual Studio\2019\Community\VC\Tools\MSVC\14.28.29333\include\algorithm

; 7419 :                 *_First = _STD move(_Val);

  001b1	0f 10 45 b8	 movups	 xmm0, XMMWORD PTR __Val$2$[ebp]
; File C:\Program Files (x86)\Microsoft Visual Studio\2019\Community\VC\Tools\MSVC\14.28.29333\include\xutility

; 4696 :             return _Copy_backward_memmove(_First, _Last, _Dest);

  001b5	83 c4 0c	 add	 esp, 12			; 0000000cH
; File C:\Program Files (x86)\Microsoft Visual Studio\2019\Community\VC\Tools\MSVC\14.28.29333\include\algorithm

; 7419 :                 *_First = _STD move(_Val);

  001b8	0f 11 06	 movups	 XMMWORD PTR [esi], xmm0

; 7420 :             } else { // look for insertion point after first

  001bb	e9 50 01 00 00	 jmp	 $LN19@Insertion_
$LN18@Insertion_:

; 7421 :                 for (_BidIt _Prev = _Hole; _DEBUG_LT_PRED(_Pred, _Val, *--_Prev); _Hole = _Prev) {

  001c0	8b 45 f0	 mov	 eax, DWORD PTR __Mid$1$[ebp]
  001c3	83 c0 04	 add	 eax, 4
$LL16@Insertion_:
  001c6	83 e8 10	 sub	 eax, 16			; 00000010H
; File C:\Program Files (x86)\Microsoft Visual Studio\2019\Community\VC\Tools\MSVC\14.28.29333\include\xutility

; 5480 :     _Seek_wrapped(_First, _Find_unchecked(_Get_unwrapped(_First), _Get_unwrapped(_Last), _Val));

  001c9	89 7d fc	 mov	 DWORD PTR tv1951[ebp], edi
; File C:\Program Files (x86)\Microsoft Visual Studio\2019\Community\VC\Tools\MSVC\14.28.29333\include\algorithm

; 7421 :                 for (_BidIt _Prev = _Hole; _DEBUG_LT_PRED(_Pred, _Val, *--_Prev); _Hole = _Prev) {

  001cc	89 45 f4	 mov	 DWORD PTR tv1909[ebp], eax
; File D:\Metin2 Server Files\mainline\SRC_2014\Metin2Client\GameLib\MapOutdoor.h

; 360  : 				DWORD lhsTerrainNumOrder = 0, rhsTerrainNumOrder = 0;

  001cf	33 db		 xor	 ebx, ebx
; File C:\Program Files (x86)\Microsoft Visual Studio\2019\Community\VC\Tools\MSVC\14.28.29333\include\xutility

; 5461 :     _First =

  001d1	8b c7		 mov	 eax, edi
  001d3	2b c1		 sub	 eax, ecx
; File C:\Program Files (x86)\Windows Kits\10\Include\10.0.18362.0\ucrt\corecrt_memory.h

; 107  :         return const_cast<void*>(memchr(_Pvc, _C, _N));

  001d5	50		 push	 eax
  001d6	56		 push	 esi
  001d7	51		 push	 ecx
  001d8	e8 00 00 00 00	 call	 _memchr
; File C:\Program Files (x86)\Microsoft Visual Studio\2019\Community\VC\Tools\MSVC\14.28.29333\include\xutility

; 5463 :     return _First ? _First : _Last;

  001dd	85 c0		 test	 eax, eax
  001df	8b cf		 mov	 ecx, edi
  001e1	0f 45 c8	 cmovne	 ecx, eax
; File C:\Program Files (x86)\Microsoft Visual Studio\2019\Community\VC\Tools\MSVC\14.28.29333\include\vector

; 195  :         _Ptr = _Refancy<_Tptr>(const_cast<value_type*>(_It));

  001e4	51		 push	 ecx
  001e5	e8 00 00 00 00	 call	 ??$_Refancy@PAE$0A@@std@@YAPAEPAE@Z ; std::_Refancy<unsigned char *,0>
; File C:\Program Files (x86)\Microsoft Visual Studio\2019\Community\VC\Tools\MSVC\14.28.29333\include\xutility

; 5461 :     _First =

  001ea	8b 0d 00 00 00
	00		 mov	 ecx, DWORD PTR ?m_TerrainNumVector@FSortPatchDrawStructWithTerrainNum@CMapOutdoor@@2V?$vector@EV?$allocator@E@std@@@std@@A
; File C:\Program Files (x86)\Microsoft Visual Studio\2019\Community\VC\Tools\MSVC\14.28.29333\include\vector

; 195  :         _Ptr = _Refancy<_Tptr>(const_cast<value_type*>(_It));

  001f0	8b f0		 mov	 esi, eax
; File C:\Program Files (x86)\Microsoft Visual Studio\2019\Community\VC\Tools\MSVC\14.28.29333\include\xutility

; 5461 :     _First =

  001f2	8b 45 f4	 mov	 eax, DWORD PTR tv1909[ebp]
  001f5	8a 10		 mov	 dl, BYTE PTR [eax]
  001f7	8b c7		 mov	 eax, edi
  001f9	2b c1		 sub	 eax, ecx
  001fb	88 55 13	 mov	 BYTE PTR tv1908[ebp], dl
; File C:\Program Files (x86)\Windows Kits\10\Include\10.0.18362.0\ucrt\corecrt_memory.h

; 107  :         return const_cast<void*>(memchr(_Pvc, _C, _N));

  001fe	50		 push	 eax
; File C:\Program Files (x86)\Microsoft Visual Studio\2019\Community\VC\Tools\MSVC\14.28.29333\include\xutility

; 5461 :     _First =

  001ff	0f b6 c2	 movzx	 eax, dl
; File C:\Program Files (x86)\Windows Kits\10\Include\10.0.18362.0\ucrt\corecrt_memory.h

; 107  :         return const_cast<void*>(memchr(_Pvc, _C, _N));

  00202	50		 push	 eax
  00203	51		 push	 ecx
  00204	e8 00 00 00 00	 call	 _memchr
; File C:\Program Files (x86)\Microsoft Visual Studio\2019\Community\VC\Tools\MSVC\14.28.29333\include\xutility

; 5463 :     return _First ? _First : _Last;

  00209	85 c0		 test	 eax, eax
  0020b	8b cf		 mov	 ecx, edi
  0020d	0f 45 c8	 cmovne	 ecx, eax
; File C:\Program Files (x86)\Microsoft Visual Studio\2019\Community\VC\Tools\MSVC\14.28.29333\include\vector

; 195  :         _Ptr = _Refancy<_Tptr>(const_cast<value_type*>(_It));

  00210	51		 push	 ecx
  00211	e8 00 00 00 00	 call	 ??$_Refancy@PAE$0A@@std@@YAPAEPAE@Z ; std::_Refancy<unsigned char *,0>
; File D:\Metin2 Server Files\mainline\SRC_2014\Metin2Client\GameLib\MapOutdoor.h

; 367  : 				if (lhsIterator != m_TerrainNumVector.end())

  00216	8b 0d 00 00 00
	00		 mov	 ecx, DWORD PTR ?m_TerrainNumVector@FSortPatchDrawStructWithTerrainNum@CMapOutdoor@@2V?$vector@EV?$allocator@E@std@@@std@@A
; File C:\Program Files (x86)\Microsoft Visual Studio\2019\Community\VC\Tools\MSVC\14.28.29333\include\xutility

; 5481 :     return _First;

  0021c	8b d7		 mov	 edx, edi
; File C:\Program Files (x86)\Microsoft Visual Studio\2019\Community\VC\Tools\MSVC\14.28.29333\include\vector

; 195  :         _Ptr = _Refancy<_Tptr>(const_cast<value_type*>(_It));

  0021e	83 c4 20	 add	 esp, 32			; 00000020H
; File C:\Program Files (x86)\Microsoft Visual Studio\2019\Community\VC\Tools\MSVC\14.28.29333\include\xutility

; 5481 :     return _First;

  00221	3b f2		 cmp	 esi, edx
; File D:\Metin2 Server Files\mainline\SRC_2014\Metin2Client\GameLib\MapOutdoor.h

; 367  : 				if (lhsIterator != m_TerrainNumVector.end())

  00223	74 04		 je	 SHORT $LN181@Insertion_

; 368  : 				{
; 369  : 					blhsOrderFound = true;

  00225	8b de		 mov	 ebx, esi
  00227	2b d9		 sub	 ebx, ecx
$LN181@Insertion_:
; File C:\Program Files (x86)\Microsoft Visual Studio\2019\Community\VC\Tools\MSVC\14.28.29333\include\vector

; 149  :         return _Ptr == _Right._Ptr;

  00229	3b c2		 cmp	 eax, edx
; File D:\Metin2 Server Files\mainline\SRC_2014\Metin2Client\GameLib\MapOutdoor.h

; 372  : 				if (rhsIterator != m_TerrainNumVector.end())

  0022b	74 04		 je	 SHORT $LN347@Insertion_
; File C:\Program Files (x86)\Microsoft Visual Studio\2019\Community\VC\Tools\MSVC\14.28.29333\include\vector

; 140  :         return _Ptr - _Right._Ptr;

  0022d	2b c1		 sub	 eax, ecx
; File D:\Metin2 Server Files\mainline\SRC_2014\Metin2Client\GameLib\MapOutdoor.h

; 377  : 				if (!brhsOrderFound)

  0022f	eb 3e		 jmp	 SHORT $LN355@Insertion_
$LN347@Insertion_:
; File C:\Program Files (x86)\Microsoft Visual Studio\2019\Community\VC\Tools\MSVC\14.28.29333\include\vector

; 704  :         if (_Mylast != _My_data._Myend) {

  00231	3b 15 08 00 00
	00		 cmp	 edx, DWORD PTR ?m_TerrainNumVector@FSortPatchDrawStructWithTerrainNum@CMapOutdoor@@2V?$vector@EV?$allocator@E@std@@@std@@A+8
  00237	74 14		 je	 SHORT $LN277@Insertion_

; 687  :         _Alty_traits::construct(_Getal(), _Unfancy(_Mylast), _STD forward<_Valty>(_Val)...);

  00239	8a 45 13	 mov	 al, BYTE PTR tv1908[ebp]
  0023c	88 02		 mov	 BYTE PTR [edx], al

; 690  :         ++_Mylast;

  0023e	8b 3d 04 00 00
	00		 mov	 edi, DWORD PTR ?m_TerrainNumVector@FSortPatchDrawStructWithTerrainNum@CMapOutdoor@@2V?$vector@EV?$allocator@E@std@@@std@@A+4
  00244	47		 inc	 edi
  00245	89 3d 04 00 00
	00		 mov	 DWORD PTR ?m_TerrainNumVector@FSortPatchDrawStructWithTerrainNum@CMapOutdoor@@2V?$vector@EV?$allocator@E@std@@@std@@A+4, edi

; 705  :             return _Emplace_back_with_unused_capacity(_STD forward<_Valty>(_Val)...);

  0024b	eb 17		 jmp	 SHORT $LN276@Insertion_
$LN277@Insertion_:

; 708  :         _Ty& _Result = *_Emplace_reallocate(_Mylast, _STD forward<_Valty>(_Val)...);

  0024d	ff 75 f4	 push	 DWORD PTR tv1909[ebp]
  00250	b9 00 00 00 00	 mov	 ecx, OFFSET ?m_TerrainNumVector@FSortPatchDrawStructWithTerrainNum@CMapOutdoor@@2V?$vector@EV?$allocator@E@std@@@std@@A ; CMapOutdoor::FSortPatchDrawStructWithTerrainNum::m_TerrainNumVector
  00255	52		 push	 edx
  00256	e8 00 00 00 00	 call	 ??$_Emplace_reallocate@ABE@?$vector@EV?$allocator@E@std@@@std@@QAEPAEQAEABE@Z ; std::vector<unsigned char,std::allocator<unsigned char> >::_Emplace_reallocate<unsigned char const &>
  0025b	8b 3d 04 00 00
	00		 mov	 edi, DWORD PTR ?m_TerrainNumVector@FSortPatchDrawStructWithTerrainNum@CMapOutdoor@@2V?$vector@EV?$allocator@E@std@@@std@@A+4
  00261	8b 55 fc	 mov	 edx, DWORD PTR tv1951[ebp]
$LN276@Insertion_:
; File D:\Metin2 Server Files\mainline\SRC_2014\Metin2Client\GameLib\MapOutdoor.h

; 380  : 					rhsTerrainNumOrder = m_TerrainNumVector.size() -1;

  00264	8b 0d 00 00 00
	00		 mov	 ecx, DWORD PTR ?m_TerrainNumVector@FSortPatchDrawStructWithTerrainNum@CMapOutdoor@@2V?$vector@EV?$allocator@E@std@@@std@@A
  0026a	8b c7		 mov	 eax, edi
  0026c	2b c1		 sub	 eax, ecx
  0026e	48		 dec	 eax
$LN355@Insertion_:

; 381  : 				}
; 382  : 				if (!blhsOrderFound)

  0026f	3b f2		 cmp	 esi, edx
  00271	89 45 10	 mov	 DWORD PTR _rhsTerrainNumOrder$1$[ebp], eax
  00274	8b 75 f8	 mov	 esi, DWORD PTR tv1925[ebp]
  00277	75 62		 jne	 SHORT $LN186@Insertion_
; File C:\Program Files (x86)\Microsoft Visual Studio\2019\Community\VC\Tools\MSVC\14.28.29333\include\xutility

; 5461 :     _First =

  00279	8b c7		 mov	 eax, edi
  0027b	2b c1		 sub	 eax, ecx
; File C:\Program Files (x86)\Windows Kits\10\Include\10.0.18362.0\ucrt\corecrt_memory.h

; 107  :         return const_cast<void*>(memchr(_Pvc, _C, _N));

  0027d	50		 push	 eax
  0027e	56		 push	 esi
  0027f	51		 push	 ecx
  00280	e8 00 00 00 00	 call	 _memchr
; File C:\Program Files (x86)\Microsoft Visual Studio\2019\Community\VC\Tools\MSVC\14.28.29333\include\xutility

; 5463 :     return _First ? _First : _Last;

  00285	85 c0		 test	 eax, eax
  00287	8b cf		 mov	 ecx, edi
  00289	0f 45 c8	 cmovne	 ecx, eax
; File C:\Program Files (x86)\Microsoft Visual Studio\2019\Community\VC\Tools\MSVC\14.28.29333\include\vector

; 195  :         _Ptr = _Refancy<_Tptr>(const_cast<value_type*>(_It));

  0028c	51		 push	 ecx
  0028d	e8 00 00 00 00	 call	 ??$_Refancy@PAE$0A@@std@@YAPAEPAE@Z ; std::_Refancy<unsigned char *,0>
; File D:\Metin2 Server Files\mainline\SRC_2014\Metin2Client\GameLib\MapOutdoor.h

; 384  : 					lhsIterator = std::find(m_TerrainNumVector.begin(), m_TerrainNumVector.end(), lhs.byTerrainNum);

  00292	8b d8		 mov	 ebx, eax
; File C:\Program Files (x86)\Microsoft Visual Studio\2019\Community\VC\Tools\MSVC\14.28.29333\include\vector

; 195  :         _Ptr = _Refancy<_Tptr>(const_cast<value_type*>(_It));

  00294	83 c4 10	 add	 esp, 16			; 00000010H
; File D:\Metin2 Server Files\mainline\SRC_2014\Metin2Client\GameLib\MapOutdoor.h

; 384  : 					lhsIterator = std::find(m_TerrainNumVector.begin(), m_TerrainNumVector.end(), lhs.byTerrainNum);

  00297	3b df		 cmp	 ebx, edi

; 385  : 					if (lhsIterator != m_TerrainNumVector.end())

  00299	74 08		 je	 SHORT $LN348@Insertion_
; File C:\Program Files (x86)\Microsoft Visual Studio\2019\Community\VC\Tools\MSVC\14.28.29333\include\vector

; 140  :         return _Ptr - _Right._Ptr;

  0029b	2b 1d 00 00 00
	00		 sub	 ebx, DWORD PTR ?m_TerrainNumVector@FSortPatchDrawStructWithTerrainNum@CMapOutdoor@@2V?$vector@EV?$allocator@E@std@@@std@@A
; File D:\Metin2 Server Files\mainline\SRC_2014\Metin2Client\GameLib\MapOutdoor.h

; 390  : 					if (!blhsOrderFound)

  002a1	eb 38		 jmp	 SHORT $LN186@Insertion_
$LN348@Insertion_:
; File C:\Program Files (x86)\Microsoft Visual Studio\2019\Community\VC\Tools\MSVC\14.28.29333\include\vector

; 704  :         if (_Mylast != _My_data._Myend) {

  002a3	3b 3d 08 00 00
	00		 cmp	 edi, DWORD PTR ?m_TerrainNumVector@FSortPatchDrawStructWithTerrainNum@CMapOutdoor@@2V?$vector@EV?$allocator@E@std@@@std@@A+8
  002a9	74 14		 je	 SHORT $LN329@Insertion_

; 687  :         _Alty_traits::construct(_Getal(), _Unfancy(_Mylast), _STD forward<_Valty>(_Val)...);

  002ab	8b 45 e4	 mov	 eax, DWORD PTR tv1963[ebp]
  002ae	88 07		 mov	 BYTE PTR [edi], al

; 690  :         ++_Mylast;

  002b0	8b 1d 04 00 00
	00		 mov	 ebx, DWORD PTR ?m_TerrainNumVector@FSortPatchDrawStructWithTerrainNum@CMapOutdoor@@2V?$vector@EV?$allocator@E@std@@@std@@A+4
  002b6	43		 inc	 ebx
  002b7	89 1d 04 00 00
	00		 mov	 DWORD PTR ?m_TerrainNumVector@FSortPatchDrawStructWithTerrainNum@CMapOutdoor@@2V?$vector@EV?$allocator@E@std@@@std@@A+4, ebx

; 705  :             return _Emplace_back_with_unused_capacity(_STD forward<_Valty>(_Val)...);

  002bd	eb 15		 jmp	 SHORT $LN328@Insertion_
$LN329@Insertion_:

; 708  :         _Ty& _Result = *_Emplace_reallocate(_Mylast, _STD forward<_Valty>(_Val)...);

  002bf	8d 45 cc	 lea	 eax, DWORD PTR __Val$1[ebp+4]
  002c2	b9 00 00 00 00	 mov	 ecx, OFFSET ?m_TerrainNumVector@FSortPatchDrawStructWithTerrainNum@CMapOutdoor@@2V?$vector@EV?$allocator@E@std@@@std@@A ; CMapOutdoor::FSortPatchDrawStructWithTerrainNum::m_TerrainNumVector
  002c7	50		 push	 eax
  002c8	57		 push	 edi
  002c9	e8 00 00 00 00	 call	 ??$_Emplace_reallocate@ABE@?$vector@EV?$allocator@E@std@@@std@@QAEPAEQAEABE@Z ; std::vector<unsigned char,std::allocator<unsigned char> >::_Emplace_reallocate<unsigned char const &>
  002ce	8b 1d 04 00 00
	00		 mov	 ebx, DWORD PTR ?m_TerrainNumVector@FSortPatchDrawStructWithTerrainNum@CMapOutdoor@@2V?$vector@EV?$allocator@E@std@@@std@@A+4
$LN328@Insertion_:
; File D:\Metin2 Server Files\mainline\SRC_2014\Metin2Client\GameLib\MapOutdoor.h

; 393  : 						lhsTerrainNumOrder = m_TerrainNumVector.size() -1;

  002d4	2b 1d 00 00 00
	00		 sub	 ebx, DWORD PTR ?m_TerrainNumVector@FSortPatchDrawStructWithTerrainNum@CMapOutdoor@@2V?$vector@EV?$allocator@E@std@@@std@@A
  002da	4b		 dec	 ebx
$LN186@Insertion_:
; File C:\Program Files (x86)\Microsoft Visual Studio\2019\Community\VC\Tools\MSVC\14.28.29333\include\algorithm

; 7421 :                 for (_BidIt _Prev = _Hole; _DEBUG_LT_PRED(_Pred, _Val, *--_Prev); _Hole = _Prev) {

  002db	8b 4d ec	 mov	 ecx, DWORD PTR __Hole$1$[ebp]
; File D:\Metin2 Server Files\mainline\SRC_2014\Metin2Client\GameLib\MapOutdoor.h

; 397  : 				return lhsTerrainNumOrder < rhsTerrainNumOrder;

  002de	3b 5d 10	 cmp	 ebx, DWORD PTR _rhsTerrainNumOrder$1$[ebp]
; File C:\Program Files (x86)\Microsoft Visual Studio\2019\Community\VC\Tools\MSVC\14.28.29333\include\algorithm

; 7421 :                 for (_BidIt _Prev = _Hole; _DEBUG_LT_PRED(_Pred, _Val, *--_Prev); _Hole = _Prev) {

  002e1	73 23		 jae	 SHORT $LN15@Insertion_

; 7422 :                     *_Hole = _STD move(*_Prev); // move hole down

  002e3	8b 45 f4	 mov	 eax, DWORD PTR tv1909[ebp]
  002e6	83 c0 fc	 add	 eax, -4			; fffffffcH
  002e9	89 45 ec	 mov	 DWORD PTR __Hole$1$[ebp], eax
  002ec	0f 10 00	 movups	 xmm0, XMMWORD PTR [eax]
  002ef	8b 45 f4	 mov	 eax, DWORD PTR tv1909[ebp]
  002f2	0f 11 01	 movups	 XMMWORD PTR [ecx], xmm0
  002f5	8b 3d 04 00 00
	00		 mov	 edi, DWORD PTR ?m_TerrainNumVector@FSortPatchDrawStructWithTerrainNum@CMapOutdoor@@2V?$vector@EV?$allocator@E@std@@@std@@A+4
  002fb	8b 0d 00 00 00
	00		 mov	 ecx, DWORD PTR ?m_TerrainNumVector@FSortPatchDrawStructWithTerrainNum@CMapOutdoor@@2V?$vector@EV?$allocator@E@std@@@std@@A
  00301	e9 c0 fe ff ff	 jmp	 $LL16@Insertion_
$LN15@Insertion_:

; 7423 :                 }
; 7424 : 
; 7425 :                 *_Hole = _STD move(_Val); // insert element in hole

  00306	0f 10 45 b8	 movups	 xmm0, XMMWORD PTR __Val$2$[ebp]
  0030a	8b 5d f0	 mov	 ebx, DWORD PTR __Mid$1$[ebp]
  0030d	0f 11 01	 movups	 XMMWORD PTR [ecx], xmm0
$LN19@Insertion_:

; 7413 :         for (_BidIt _Mid = _First; ++_Mid != _Last;) { // order next element

  00310	8b 4d d8	 mov	 ecx, DWORD PTR tv1926[ebp]
  00313	83 c3 10	 add	 ebx, 16			; 00000010H
  00316	89 5d f0	 mov	 DWORD PTR __Mid$1$[ebp], ebx
  00319	3b d9		 cmp	 ebx, ecx
  0031b	0f 85 2f fd ff
	ff		 jne	 $LL11@Insertion_
  00321	8b 55 dc	 mov	 edx, DWORD PTR tv1927[ebp]
$LN12@Insertion_:

; 7912 :         _First = _Insertion_sort_unchecked(_First, _STD next(_First, _ISORT_MAX), _Pred);

  00324	8b c1		 mov	 eax, ecx
  00326	83 ea 01	 sub	 edx, 1
  00329	89 45 e0	 mov	 DWORD PTR __First$1$[ebp], eax
  0032c	89 55 dc	 mov	 DWORD PTR tv1927[ebp], edx
  0032f	0f 85 f0 fc ff
	ff		 jne	 $LL4@Insertion_

; 7909 :     // insertion sort every chunk of distance _ISORT_MAX in [_First, _Last)
; 7910 :     // pre: _Count == distance(_First, _Last)
; 7911 :     for (; _ISORT_MAX < _Count; _Count -= _ISORT_MAX) { // sort chunks

  00335	5f		 pop	 edi
  00336	5e		 pop	 esi
  00337	5b		 pop	 ebx

; 7913 :     }
; 7914 : 
; 7915 :     _Insertion_sort_unchecked(_First, _Last, _Pred); // sort partial last chunk

  00338	ff 75 14	 push	 DWORD PTR __Pred$[ebp]
  0033b	ff 75 0c	 push	 DWORD PTR __Last$[ebp]
  0033e	50		 push	 eax
  0033f	e8 00 00 00 00	 call	 ??$_Insertion_sort_unchecked@PAUTPatchDrawStruct@CMapOutdoor@@UFSortPatchDrawStructWithTerrainNum@2@@std@@YAPAUTPatchDrawStruct@CMapOutdoor@@QAU12@0UFSortPatchDrawStructWithTerrainNum@2@@Z ; std::_Insertion_sort_unchecked<CMapOutdoor::TPatchDrawStruct *,CMapOutdoor::FSortPatchDrawStructWithTerrainNum>
  00344	83 c4 0c	 add	 esp, 12			; 0000000cH

; 7916 : }

  00347	8b e5		 mov	 esp, ebp
  00349	5d		 pop	 ebp
  0034a	c3		 ret	 0
$LN349@Insertion_:

; 7913 :     }
; 7914 : 
; 7915 :     _Insertion_sort_unchecked(_First, _Last, _Pred); // sort partial last chunk

  0034b	ff 75 14	 push	 DWORD PTR __Pred$[ebp]
  0034e	8b 45 08	 mov	 eax, DWORD PTR __First$[ebp]
  00351	ff 75 0c	 push	 DWORD PTR __Last$[ebp]
  00354	50		 push	 eax
  00355	e8 00 00 00 00	 call	 ??$_Insertion_sort_unchecked@PAUTPatchDrawStruct@CMapOutdoor@@UFSortPatchDrawStructWithTerrainNum@2@@std@@YAPAUTPatchDrawStruct@CMapOutdoor@@QAU12@0UFSortPatchDrawStructWithTerrainNum@2@@Z ; std::_Insertion_sort_unchecked<CMapOutdoor::TPatchDrawStruct *,CMapOutdoor::FSortPatchDrawStructWithTerrainNum>
  0035a	83 c4 0c	 add	 esp, 12			; 0000000cH

; 7916 : }

  0035d	8b e5		 mov	 esp, ebp
  0035f	5d		 pop	 ebp
  00360	c3		 ret	 0
??$_Insertion_sort_isort_max_chunks@PAUTPatchDrawStruct@CMapOutdoor@@UFSortPatchDrawStructWithTerrainNum@2@@std@@YAXPAUTPatchDrawStruct@CMapOutdoor@@QAU12@HUFSortPatchDrawStructWithTerrainNum@2@@Z ENDP ; std::_Insertion_sort_isort_max_chunks<CMapOutdoor::TPatchDrawStruct *,CMapOutdoor::FSortPatchDrawStructWithTerrainNum>
_TEXT	ENDS
; Function compile flags: /Ogtp
; File C:\Program Files (x86)\Microsoft Visual Studio\2019\Community\VC\Tools\MSVC\14.28.29333\include\xutility
;	COMDAT ??$_Copy_backward_memmove@PAUTPatchDrawStruct@CMapOutdoor@@PAU12@@std@@YAPAUTPatchDrawStruct@CMapOutdoor@@PAU12@00@Z
_TEXT	SEGMENT
__First$ = 8						; size = 4
__Last$ = 12						; size = 4
__Dest$ = 16						; size = 4
??$_Copy_backward_memmove@PAUTPatchDrawStruct@CMapOutdoor@@PAU12@@std@@YAPAUTPatchDrawStruct@CMapOutdoor@@PAU12@00@Z PROC ; std::_Copy_backward_memmove<CMapOutdoor::TPatchDrawStruct *,CMapOutdoor::TPatchDrawStruct *>, COMDAT

; 4535 : _BidIt2 _Copy_backward_memmove(_BidIt1 _First, _BidIt1 _Last, _BidIt2 _Dest) {

  00000	55		 push	 ebp
  00001	8b ec		 mov	 ebp, esp

; 4536 :     // implement copy_backward-like function as memmove
; 4537 :     const char* const _First_ch = const_cast<const char*>(reinterpret_cast<const volatile char*>(_First));
; 4538 :     const char* const _Last_ch  = const_cast<const char*>(reinterpret_cast<const volatile char*>(_Last));
; 4539 :     char* const _Dest_ch        = const_cast<char*>(reinterpret_cast<volatile char*>(_Dest));
; 4540 :     const auto _Count           = static_cast<size_t>(_Last_ch - _First_ch);

  00003	8b 45 08	 mov	 eax, DWORD PTR __First$[ebp]
  00006	8b 4d 0c	 mov	 ecx, DWORD PTR __Last$[ebp]
  00009	2b c8		 sub	 ecx, eax

; 4541 :     return static_cast<_BidIt2>(_CSTD memmove(_Dest_ch - _Count, _First_ch, _Count));

  0000b	51		 push	 ecx
  0000c	50		 push	 eax
  0000d	8b 45 10	 mov	 eax, DWORD PTR __Dest$[ebp]
  00010	2b c1		 sub	 eax, ecx
  00012	50		 push	 eax
  00013	e8 00 00 00 00	 call	 _memmove
  00018	83 c4 0c	 add	 esp, 12			; 0000000cH

; 4542 : }

  0001b	5d		 pop	 ebp
  0001c	c3		 ret	 0
??$_Copy_backward_memmove@PAUTPatchDrawStruct@CMapOutdoor@@PAU12@@std@@YAPAUTPatchDrawStruct@CMapOutdoor@@PAU12@00@Z ENDP ; std::_Copy_backward_memmove<CMapOutdoor::TPatchDrawStruct *,CMapOutdoor::TPatchDrawStruct *>
_TEXT	ENDS
; Function compile flags: /Ogtp
; File C:\Program Files (x86)\Microsoft Visual Studio\2019\Community\VC\Tools\MSVC\14.28.29333\include\algorithm
; File D:\Metin2 Server Files\mainline\SRC_2014\Metin2Client\GameLib\MapOutdoorRender.cpp
; File C:\Program Files (x86)\Microsoft Visual Studio\2019\Community\VC\Tools\MSVC\14.28.29333\include\algorithm
; File D:\Metin2 Server Files\mainline\SRC_2014\Metin2Client\GameLib\MapOutdoorRender.cpp
; File D:\Metin2 Server Files\mainline\SRC_2014\M2Data\include\d3dx8math.inl
; File C:\Program Files (x86)\Microsoft Visual Studio\2019\Community\VC\Tools\MSVC\14.28.29333\include\algorithm
; File D:\Metin2 Server Files\mainline\SRC_2014\M2Data\include\d3dx8math.inl
; File C:\Program Files (x86)\Microsoft Visual Studio\2019\Community\VC\Tools\MSVC\14.28.29333\include\algorithm
; File D:\Metin2 Server Files\mainline\SRC_2014\M2Data\include\d3dx8math.inl
; File D:\Metin2 Server Files\mainline\SRC_2014\Metin2Client\GameLib\MapOutdoorRender.cpp
; File D:\Metin2 Server Files\mainline\SRC_2014\M2Data\include\d3dx8math.inl
; File C:\Program Files (x86)\Microsoft Visual Studio\2019\Community\VC\Tools\MSVC\14.28.29333\include\algorithm
; File D:\Metin2 Server Files\mainline\SRC_2014\Metin2Client\GameLib\MapOutdoorRender.cpp
; File C:\Program Files (x86)\Microsoft Visual Studio\2019\Community\VC\Tools\MSVC\14.28.29333\include\algorithm
; File D:\Metin2 Server Files\mainline\SRC_2014\Metin2Client\GameLib\MapOutdoorRender.cpp
; File D:\Metin2 Server Files\mainline\SRC_2014\M2Data\include\d3dx8math.inl
; File C:\Program Files (x86)\Microsoft Visual Studio\2019\Community\VC\Tools\MSVC\14.28.29333\include\algorithm
; File D:\Metin2 Server Files\mainline\SRC_2014\M2Data\include\d3dx8math.inl
; File C:\Program Files (x86)\Microsoft Visual Studio\2019\Community\VC\Tools\MSVC\14.28.29333\include\algorithm
; File D:\Metin2 Server Files\mainline\SRC_2014\M2Data\include\d3dx8math.inl
; File D:\Metin2 Server Files\mainline\SRC_2014\Metin2Client\GameLib\MapOutdoorRender.cpp
; File D:\Metin2 Server Files\mainline\SRC_2014\M2Data\include\d3dx8math.inl
; File D:\Metin2 Server Files\mainline\SRC_2014\Metin2Client\GameLib\MapOutdoorRender.cpp
; File C:\Program Files (x86)\Microsoft Visual Studio\2019\Community\VC\Tools\MSVC\14.28.29333\include\algorithm
;	COMDAT ??$_Pop_heap_hole_by_index@PAPAVCGraphicThingInstance@@PAV1@UCMapOutdoor_LessThingInstancePtrRenderOrder@@@std@@YAXPAPAVCGraphicThingInstance@@HH$$QAPAV1@UCMapOutdoor_LessThingInstancePtrRenderOrder@@@Z
_TEXT	SEGMENT
tv947 = -16						; size = 4
__Max_sequence_non_leaf$1$ = -12			; size = 4
tv944 = -8						; size = 4
__Top$1$ = -4						; size = 4
__First$ = 8						; size = 4
__Hole$ = 12						; size = 4
__Idx$1$ = 16						; size = 4
__Bottom$ = 16						; size = 4
__Val$ = 20						; size = 4
__Pred$ = 24						; size = 1
??$_Pop_heap_hole_by_index@PAPAVCGraphicThingInstance@@PAV1@UCMapOutdoor_LessThingInstancePtrRenderOrder@@@std@@YAXPAPAVCGraphicThingInstance@@HH$$QAPAV1@UCMapOutdoor_LessThingInstancePtrRenderOrder@@@Z PROC ; std::_Pop_heap_hole_by_index<CGraphicThingInstance * *,CGraphicThingInstance *,CMapOutdoor_LessThingInstancePtrRenderOrder>, COMDAT

; 6186 :     _RanIt _First, _Iter_diff_t<_RanIt> _Hole, _Iter_diff_t<_RanIt> _Bottom, _Ty&& _Val, _Pr _Pred) {

  00000	55		 push	 ebp
  00001	8b ec		 mov	 ebp, esp
  00003	83 ec 10	 sub	 esp, 16			; 00000010H

; 6187 :     // percolate _Hole to _Bottom, then push _Val
; 6188 :     _STL_INTERNAL_CHECK(_Bottom > 0);
; 6189 : 
; 6190 :     using _Diff      = _Iter_diff_t<_RanIt>;
; 6191 :     const _Diff _Top = _Hole;

  00006	8b 4d 0c	 mov	 ecx, DWORD PTR __Hole$[ebp]

; 6192 :     _Diff _Idx       = _Hole;
; 6193 : 
; 6194 :     // Check whether _Idx can have a child before calculating that child's index, since
; 6195 :     // calculating the child's index can trigger integer overflows
; 6196 :     const _Diff _Max_sequence_non_leaf = (_Bottom - 1) >> 1; // shift for codegen
; 6197 :     while (_Idx < _Max_sequence_non_leaf) { // move _Hole down to larger child

  00009	8b 55 08	 mov	 edx, DWORD PTR __First$[ebp]
  0000c	53		 push	 ebx
  0000d	56		 push	 esi
  0000e	57		 push	 edi
  0000f	8b 7d 10	 mov	 edi, DWORD PTR __Bottom$[ebp]
  00012	8b f1		 mov	 esi, ecx
  00014	4f		 dec	 edi
  00015	89 75 fc	 mov	 DWORD PTR __Top$1$[ebp], esi
  00018	8b c7		 mov	 eax, edi
  0001a	89 7d f0	 mov	 DWORD PTR tv947[ebp], edi
  0001d	d1 f8		 sar	 eax, 1
  0001f	8b d9		 mov	 ebx, ecx
  00021	89 45 f4	 mov	 DWORD PTR __Max_sequence_non_leaf$1$[ebp], eax
  00024	3b c8		 cmp	 ecx, eax
  00026	0f 8d b9 00 00
	00		 jge	 $LN3@Pop_heap_h
  0002c	0f 1f 40 00	 npad	 4
$LL2@Pop_heap_h:
; File D:\Metin2 Server Files\mainline\SRC_2014\Metin2Client\GameLib\MapOutdoorRender.cpp

; 357  : 		CCamera * pCurrentCamera = CCameraManager::Instance().GetCurrentCamera();

  00030	8b 0d 00 00 00
	00		 mov	 ecx, DWORD PTR ?ms_singleton@?$CSingleton@VCCameraManager@@@@0PAVCCameraManager@@A ; CSingleton<CCameraManager>::ms_singleton
; File C:\Program Files (x86)\Microsoft Visual Studio\2019\Community\VC\Tools\MSVC\14.28.29333\include\algorithm

; 6198 :         _Idx = 2 * _Idx + 2;

  00036	8d 04 1b	 lea	 eax, DWORD PTR [ebx+ebx]

; 6199 :         if (_DEBUG_LT_PRED(_Pred, *(_First + _Idx), *(_First + (_Idx - 1)))) {

  00039	8b 7c 82 04	 mov	 edi, DWORD PTR [edx+eax*4+4]
  0003d	8b 74 82 08	 mov	 esi, DWORD PTR [edx+eax*4+8]
  00041	89 45 f8	 mov	 DWORD PTR tv944[ebp], eax
; File D:\Metin2 Server Files\mainline\SRC_2014\Metin2Client\GameLib\MapOutdoorRender.cpp

; 357  : 		CCamera * pCurrentCamera = CCameraManager::Instance().GetCurrentCamera();

  00044	e8 00 00 00 00	 call	 ?GetCurrentCamera@CCameraManager@@QAEPAVCCamera@@XZ ; CCameraManager::GetCurrentCamera

; 358  : 		const D3DXVECTOR3 & c_rv3CameraPos = pCurrentCamera->GetEye();
; 359  : 		const D3DXVECTOR3 & c_v3LeftPos  = pkLeft->GetPosition();

  00049	8b ce		 mov	 ecx, esi
  0004b	8b d8		 mov	 ebx, eax
  0004d	e8 00 00 00 00	 call	 ?GetPosition@CGraphicObjectInstance@@QBEABUD3DXVECTOR3@@XZ ; CGraphicObjectInstance::GetPosition

; 360  : 		const D3DXVECTOR3 & c_v3RightPos = pkRight->GetPosition();

  00052	8b cf		 mov	 ecx, edi
  00054	8b f0		 mov	 esi, eax
  00056	e8 00 00 00 00	 call	 ?GetPosition@CGraphicObjectInstance@@QBEABUD3DXVECTOR3@@XZ ; CGraphicObjectInstance::GetPosition
; File D:\Metin2 Server Files\mainline\SRC_2014\M2Data\include\d3dx8math.inl

; 263  :     return D3DXVECTOR3(x - v.x, y - v.y, z - v.z);

  0005b	f3 0f 10 6b 30	 movss	 xmm5, DWORD PTR [ebx+48]
  00060	f3 0f 10 63 34	 movss	 xmm4, DWORD PTR [ebx+52]
  00065	0f 28 cd	 movaps	 xmm1, xmm5
  00068	f3 0f 10 53 38	 movss	 xmm2, DWORD PTR [ebx+56]
  0006d	0f 28 dc	 movaps	 xmm3, xmm4
  00070	f3 0f 5c 60 04	 subss	 xmm4, DWORD PTR [eax+4]
  00075	f3 0f 5c 5e 04	 subss	 xmm3, DWORD PTR [esi+4]
  0007a	f3 0f 5c 28	 subss	 xmm5, DWORD PTR [eax]
  0007e	f3 0f 5c 0e	 subss	 xmm1, DWORD PTR [esi]
  00082	0f 28 c2	 movaps	 xmm0, xmm2
; File C:\Program Files (x86)\Microsoft Visual Studio\2019\Community\VC\Tools\MSVC\14.28.29333\include\algorithm

; 6202 :         *(_First + _Hole) = _STD move(*(_First + _Idx));

  00085	8b 55 08	 mov	 edx, DWORD PTR __First$[ebp]
; File D:\Metin2 Server Files\mainline\SRC_2014\M2Data\include\d3dx8math.inl

; 263  :     return D3DXVECTOR3(x - v.x, y - v.y, z - v.z);

  00088	f3 0f 5c 50 08	 subss	 xmm2, DWORD PTR [eax+8]
  0008d	f3 0f 5c 46 08	 subss	 xmm0, DWORD PTR [esi+8]

; 1253 :     return pV->x * pV->x + pV->y * pV->y + pV->z * pV->z;

  00092	f3 0f 59 db	 mulss	 xmm3, xmm3
; File C:\Program Files (x86)\Microsoft Visual Studio\2019\Community\VC\Tools\MSVC\14.28.29333\include\algorithm

; 6202 :         *(_First + _Hole) = _STD move(*(_First + _Idx));

  00096	33 db		 xor	 ebx, ebx
  00098	8b 4d 0c	 mov	 ecx, DWORD PTR __Hole$[ebp]
; File D:\Metin2 Server Files\mainline\SRC_2014\M2Data\include\d3dx8math.inl

; 1253 :     return pV->x * pV->x + pV->y * pV->y + pV->z * pV->z;

  0009b	f3 0f 59 e4	 mulss	 xmm4, xmm4

; 182  :     z = fz;

  0009f	f3 0f 59 c9	 mulss	 xmm1, xmm1
; File D:\Metin2 Server Files\mainline\SRC_2014\Metin2Client\GameLib\MapOutdoorRender.cpp

; 362  : 		return D3DXVec3LengthSq(&D3DXVECTOR3(c_rv3CameraPos - c_v3LeftPos)) < D3DXVec3LengthSq(&D3DXVECTOR3(c_rv3CameraPos - c_v3RightPos) );	

  000a3	f3 0f 59 ed	 mulss	 xmm5, xmm5
; File D:\Metin2 Server Files\mainline\SRC_2014\M2Data\include\d3dx8math.inl

; 1253 :     return pV->x * pV->x + pV->y * pV->y + pV->z * pV->z;

  000a7	f3 0f 58 d9	 addss	 xmm3, xmm1
  000ab	f3 0f 59 c0	 mulss	 xmm0, xmm0
  000af	f3 0f 58 e5	 addss	 xmm4, xmm5
  000b3	f3 0f 59 d2	 mulss	 xmm2, xmm2
  000b7	f3 0f 58 d8	 addss	 xmm3, xmm0
  000bb	f3 0f 58 e2	 addss	 xmm4, xmm2
; File C:\Program Files (x86)\Microsoft Visual Studio\2019\Community\VC\Tools\MSVC\14.28.29333\include\algorithm

; 6202 :         *(_First + _Hole) = _STD move(*(_First + _Idx));

  000bf	0f 2f e3	 comiss	 xmm4, xmm3
  000c2	0f 96 c3	 setbe	 bl
  000c5	43		 inc	 ebx
  000c6	03 5d f8	 add	 ebx, DWORD PTR tv944[ebp]
  000c9	8b 04 9a	 mov	 eax, DWORD PTR [edx+ebx*4]
  000cc	89 04 8a	 mov	 DWORD PTR [edx+ecx*4], eax

; 6203 :         _Hole             = _Idx;

  000cf	8b cb		 mov	 ecx, ebx
  000d1	8b 45 f4	 mov	 eax, DWORD PTR __Max_sequence_non_leaf$1$[ebp]
  000d4	89 4d 0c	 mov	 DWORD PTR __Hole$[ebp], ecx
  000d7	3b d8		 cmp	 ebx, eax
  000d9	0f 8c 51 ff ff
	ff		 jl	 $LL2@Pop_heap_h

; 6192 :     _Diff _Idx       = _Hole;
; 6193 : 
; 6194 :     // Check whether _Idx can have a child before calculating that child's index, since
; 6195 :     // calculating the child's index can trigger integer overflows
; 6196 :     const _Diff _Max_sequence_non_leaf = (_Bottom - 1) >> 1; // shift for codegen
; 6197 :     while (_Idx < _Max_sequence_non_leaf) { // move _Hole down to larger child

  000df	8b 75 fc	 mov	 esi, DWORD PTR __Top$1$[ebp]
  000e2	8b 7d f0	 mov	 edi, DWORD PTR tv947[ebp]
$LN3@Pop_heap_h:

; 6204 :     }
; 6205 : 
; 6206 :     if (_Idx == _Max_sequence_non_leaf && _Bottom % 2 == 0) { // only child at bottom, move _Hole down to it

  000e5	3b d8		 cmp	 ebx, eax
  000e7	75 13		 jne	 SHORT $LN5@Pop_heap_h
  000e9	8b 45 10	 mov	 eax, DWORD PTR __Bottom$[ebp]
  000ec	a8 01		 test	 al, 1
  000ee	75 0c		 jne	 SHORT $LN5@Pop_heap_h

; 6207 :         *(_First + _Hole) = _STD move(*(_First + (_Bottom - 1)));

  000f0	8b 44 82 fc	 mov	 eax, DWORD PTR [edx+eax*4-4]
  000f4	89 04 8a	 mov	 DWORD PTR [edx+ecx*4], eax

; 6208 :         _Hole             = _Bottom - 1;

  000f7	8b cf		 mov	 ecx, edi
  000f9	89 4d 0c	 mov	 DWORD PTR __Hole$[ebp], ecx
$LN5@Pop_heap_h:

; 6077 :          _Top < _Hole && _DEBUG_LT_PRED(_Pred, *(_First + _Idx), _Val); //

  000fc	3b f1		 cmp	 esi, ecx
  000fe	0f 8d ab 00 00
	00		 jge	 $LN48@Pop_heap_h
$LL24@Pop_heap_h:

; 6076 :     for (_Diff _Idx = (_Hole - 1) >> 1; // shift for codegen

  00104	8d 41 ff	 lea	 eax, DWORD PTR [ecx-1]

; 6077 :          _Top < _Hole && _DEBUG_LT_PRED(_Pred, *(_First + _Idx), _Val); //

  00107	8b 4d 14	 mov	 ecx, DWORD PTR __Val$[ebp]
  0010a	d1 f8		 sar	 eax, 1
  0010c	89 45 10	 mov	 DWORD PTR __Idx$1$[ebp], eax
  0010f	8b 39		 mov	 edi, DWORD PTR [ecx]
; File D:\Metin2 Server Files\mainline\SRC_2014\Metin2Client\GameLib\MapOutdoorRender.cpp

; 357  : 		CCamera * pCurrentCamera = CCameraManager::Instance().GetCurrentCamera();

  00111	8b 0d 00 00 00
	00		 mov	 ecx, DWORD PTR ?ms_singleton@?$CSingleton@VCCameraManager@@@@0PAVCCameraManager@@A ; CSingleton<CCameraManager>::ms_singleton
; File C:\Program Files (x86)\Microsoft Visual Studio\2019\Community\VC\Tools\MSVC\14.28.29333\include\algorithm

; 6077 :          _Top < _Hole && _DEBUG_LT_PRED(_Pred, *(_First + _Idx), _Val); //

  00117	8b 34 82	 mov	 esi, DWORD PTR [edx+eax*4]
; File D:\Metin2 Server Files\mainline\SRC_2014\Metin2Client\GameLib\MapOutdoorRender.cpp

; 357  : 		CCamera * pCurrentCamera = CCameraManager::Instance().GetCurrentCamera();

  0011a	e8 00 00 00 00	 call	 ?GetCurrentCamera@CCameraManager@@QAEPAVCCamera@@XZ ; CCameraManager::GetCurrentCamera

; 358  : 		const D3DXVECTOR3 & c_rv3CameraPos = pCurrentCamera->GetEye();
; 359  : 		const D3DXVECTOR3 & c_v3LeftPos  = pkLeft->GetPosition();

  0011f	8b ce		 mov	 ecx, esi
  00121	8b d8		 mov	 ebx, eax
  00123	e8 00 00 00 00	 call	 ?GetPosition@CGraphicObjectInstance@@QBEABUD3DXVECTOR3@@XZ ; CGraphicObjectInstance::GetPosition

; 360  : 		const D3DXVECTOR3 & c_v3RightPos = pkRight->GetPosition();

  00128	8b cf		 mov	 ecx, edi
  0012a	8b f0		 mov	 esi, eax
  0012c	e8 00 00 00 00	 call	 ?GetPosition@CGraphicObjectInstance@@QBEABUD3DXVECTOR3@@XZ ; CGraphicObjectInstance::GetPosition
; File D:\Metin2 Server Files\mainline\SRC_2014\M2Data\include\d3dx8math.inl

; 263  :     return D3DXVECTOR3(x - v.x, y - v.y, z - v.z);

  00131	f3 0f 10 6b 30	 movss	 xmm5, DWORD PTR [ebx+48]
  00136	f3 0f 10 63 34	 movss	 xmm4, DWORD PTR [ebx+52]
  0013b	0f 28 cd	 movaps	 xmm1, xmm5
  0013e	f3 0f 5c 0e	 subss	 xmm1, DWORD PTR [esi]
  00142	f3 0f 5c 28	 subss	 xmm5, DWORD PTR [eax]
  00146	f3 0f 10 53 38	 movss	 xmm2, DWORD PTR [ebx+56]
  0014b	0f 28 dc	 movaps	 xmm3, xmm4
  0014e	f3 0f 5c 5e 04	 subss	 xmm3, DWORD PTR [esi+4]
  00153	f3 0f 5c 60 04	 subss	 xmm4, DWORD PTR [eax+4]
; File C:\Program Files (x86)\Microsoft Visual Studio\2019\Community\VC\Tools\MSVC\14.28.29333\include\algorithm

; 6077 :          _Top < _Hole && _DEBUG_LT_PRED(_Pred, *(_First + _Idx), _Val); //

  00158	8b 55 08	 mov	 edx, DWORD PTR __First$[ebp]
; File D:\Metin2 Server Files\mainline\SRC_2014\M2Data\include\d3dx8math.inl

; 263  :     return D3DXVECTOR3(x - v.x, y - v.y, z - v.z);

  0015b	0f 28 c2	 movaps	 xmm0, xmm2
  0015e	f3 0f 5c 46 08	 subss	 xmm0, DWORD PTR [esi+8]
  00163	f3 0f 5c 50 08	 subss	 xmm2, DWORD PTR [eax+8]
; File C:\Program Files (x86)\Microsoft Visual Studio\2019\Community\VC\Tools\MSVC\14.28.29333\include\algorithm

; 6077 :          _Top < _Hole && _DEBUG_LT_PRED(_Pred, *(_First + _Idx), _Val); //

  00168	8b 4d 0c	 mov	 ecx, DWORD PTR __Hole$[ebp]
; File D:\Metin2 Server Files\mainline\SRC_2014\M2Data\include\d3dx8math.inl

; 1253 :     return pV->x * pV->x + pV->y * pV->y + pV->z * pV->z;

  0016b	f3 0f 59 db	 mulss	 xmm3, xmm3
  0016f	f3 0f 59 e4	 mulss	 xmm4, xmm4

; 182  :     z = fz;

  00173	f3 0f 59 c9	 mulss	 xmm1, xmm1
; File D:\Metin2 Server Files\mainline\SRC_2014\Metin2Client\GameLib\MapOutdoorRender.cpp

; 362  : 		return D3DXVec3LengthSq(&D3DXVECTOR3(c_rv3CameraPos - c_v3LeftPos)) < D3DXVec3LengthSq(&D3DXVECTOR3(c_rv3CameraPos - c_v3RightPos) );	

  00177	f3 0f 59 ed	 mulss	 xmm5, xmm5
; File D:\Metin2 Server Files\mainline\SRC_2014\M2Data\include\d3dx8math.inl

; 1253 :     return pV->x * pV->x + pV->y * pV->y + pV->z * pV->z;

  0017b	f3 0f 58 d9	 addss	 xmm3, xmm1
  0017f	f3 0f 59 c0	 mulss	 xmm0, xmm0
  00183	f3 0f 58 e5	 addss	 xmm4, xmm5
  00187	f3 0f 59 d2	 mulss	 xmm2, xmm2
  0018b	f3 0f 58 d8	 addss	 xmm3, xmm0
  0018f	f3 0f 58 e2	 addss	 xmm4, xmm2
; File D:\Metin2 Server Files\mainline\SRC_2014\Metin2Client\GameLib\MapOutdoorRender.cpp

; 362  : 		return D3DXVec3LengthSq(&D3DXVECTOR3(c_rv3CameraPos - c_v3LeftPos)) < D3DXVec3LengthSq(&D3DXVECTOR3(c_rv3CameraPos - c_v3RightPos) );	

  00193	0f 2f e3	 comiss	 xmm4, xmm3
; File C:\Program Files (x86)\Microsoft Visual Studio\2019\Community\VC\Tools\MSVC\14.28.29333\include\algorithm

; 6077 :          _Top < _Hole && _DEBUG_LT_PRED(_Pred, *(_First + _Idx), _Val); //

  00196	76 17		 jbe	 SHORT $LN48@Pop_heap_h

; 6078 :          _Idx = (_Hole - 1) >> 1) { // shift for codegen
; 6079 :         // move _Hole up to parent
; 6080 :         *(_First + _Hole) = _STD move(*(_First + _Idx));

  00198	8b 75 10	 mov	 esi, DWORD PTR __Idx$1$[ebp]
  0019b	8b 04 b2	 mov	 eax, DWORD PTR [edx+esi*4]
  0019e	89 04 8a	 mov	 DWORD PTR [edx+ecx*4], eax

; 6081 :         _Hole             = _Idx;

  001a1	8b ce		 mov	 ecx, esi
  001a3	89 4d 0c	 mov	 DWORD PTR __Hole$[ebp], ecx
  001a6	39 75 fc	 cmp	 DWORD PTR __Top$1$[ebp], esi
  001a9	0f 8c 55 ff ff
	ff		 jl	 $LL24@Pop_heap_h
$LN48@Pop_heap_h:

; 6209 :     }
; 6210 : 
; 6211 :     _Push_heap_by_index(_First, _Hole, _Top, _STD forward<_Ty>(_Val), _Pred);
; 6212 : }

  001af	8b 45 14	 mov	 eax, DWORD PTR __Val$[ebp]
  001b2	5f		 pop	 edi
  001b3	5e		 pop	 esi
  001b4	5b		 pop	 ebx
  001b5	8b 00		 mov	 eax, DWORD PTR [eax]
  001b7	89 04 8a	 mov	 DWORD PTR [edx+ecx*4], eax
  001ba	8b e5		 mov	 esp, ebp
  001bc	5d		 pop	 ebp
  001bd	c3		 ret	 0
??$_Pop_heap_hole_by_index@PAPAVCGraphicThingInstance@@PAV1@UCMapOutdoor_LessThingInstancePtrRenderOrder@@@std@@YAXPAPAVCGraphicThingInstance@@HH$$QAPAV1@UCMapOutdoor_LessThingInstancePtrRenderOrder@@@Z ENDP ; std::_Pop_heap_hole_by_index<CGraphicThingInstance * *,CGraphicThingInstance *,CMapOutdoor_LessThingInstancePtrRenderOrder>
_TEXT	ENDS
; Function compile flags: /Ogtp
; File C:\Program Files (x86)\Microsoft Visual Studio\2019\Community\VC\Tools\MSVC\14.28.29333\include\algorithm
; File D:\Metin2 Server Files\mainline\SRC_2014\Metin2Client\GameLib\Area.h
; File C:\Program Files (x86)\Microsoft Visual Studio\2019\Community\VC\Tools\MSVC\14.28.29333\include\algorithm
;	COMDAT ??$_Pop_heap_hole_by_index@PAUSCRCWithNumber@CArea@@U12@UCRCNumComp@2@@std@@YAXPAUSCRCWithNumber@CArea@@HH$$QAU12@UCRCNumComp@2@@Z
_TEXT	SEGMENT
tv392 = -4						; size = 4
__First$ = 8						; size = 4
__Top$1$ = 12						; size = 4
__Hole$ = 12						; size = 4
__Bottom$ = 16						; size = 4
__Val$ = 20						; size = 4
__Pred$ = 24						; size = 1
??$_Pop_heap_hole_by_index@PAUSCRCWithNumber@CArea@@U12@UCRCNumComp@2@@std@@YAXPAUSCRCWithNumber@CArea@@HH$$QAU12@UCRCNumComp@2@@Z PROC ; std::_Pop_heap_hole_by_index<CArea::SCRCWithNumber *,CArea::SCRCWithNumber,CArea::CRCNumComp>, COMDAT

; 6186 :     _RanIt _First, _Iter_diff_t<_RanIt> _Hole, _Iter_diff_t<_RanIt> _Bottom, _Ty&& _Val, _Pr _Pred) {

  00000	55		 push	 ebp
  00001	8b ec		 mov	 ebp, esp
  00003	51		 push	 ecx

; 6187 :     // percolate _Hole to _Bottom, then push _Val
; 6188 :     _STL_INTERNAL_CHECK(_Bottom > 0);
; 6189 : 
; 6190 :     using _Diff      = _Iter_diff_t<_RanIt>;
; 6191 :     const _Diff _Top = _Hole;
; 6192 :     _Diff _Idx       = _Hole;
; 6193 : 
; 6194 :     // Check whether _Idx can have a child before calculating that child's index, since
; 6195 :     // calculating the child's index can trigger integer overflows
; 6196 :     const _Diff _Max_sequence_non_leaf = (_Bottom - 1) >> 1; // shift for codegen

  00004	8b 55 10	 mov	 edx, DWORD PTR __Bottom$[ebp]
  00007	8b 45 0c	 mov	 eax, DWORD PTR __Hole$[ebp]
  0000a	53		 push	 ebx
  0000b	56		 push	 esi

; 6197 :     while (_Idx < _Max_sequence_non_leaf) { // move _Hole down to larger child

  0000c	8b 75 08	 mov	 esi, DWORD PTR __First$[ebp]
  0000f	8d 4a ff	 lea	 ecx, DWORD PTR [edx-1]
  00012	8b d9		 mov	 ebx, ecx
  00014	89 45 0c	 mov	 DWORD PTR __Top$1$[ebp], eax
  00017	d1 fb		 sar	 ebx, 1
  00019	89 4d fc	 mov	 DWORD PTR tv392[ebp], ecx
  0001c	57		 push	 edi
  0001d	8b f8		 mov	 edi, eax
  0001f	3b c3		 cmp	 eax, ebx
  00021	7d 29		 jge	 SHORT $LN3@Pop_heap_h
$LL2@Pop_heap_h:

; 6198 :         _Idx = 2 * _Idx + 2;

  00023	8d 14 3f	 lea	 edx, DWORD PTR [edi+edi]

; 6199 :         if (_DEBUG_LT_PRED(_Pred, *(_First + _Idx), *(_First + (_Idx - 1)))) {
; 6200 :             --_Idx;
; 6201 :         }
; 6202 :         *(_First + _Hole) = _STD move(*(_First + _Idx));

  00026	8b 4c d6 14	 mov	 ecx, DWORD PTR [esi+edx*8+20]
  0002a	39 4c d6 0c	 cmp	 DWORD PTR [esi+edx*8+12], ecx
  0002e	1b c9		 sbb	 ecx, ecx
  00030	8d 79 02	 lea	 edi, DWORD PTR [ecx+2]
  00033	03 fa		 add	 edi, edx
  00035	8b 0c fe	 mov	 ecx, DWORD PTR [esi+edi*8]
  00038	8b 54 fe 04	 mov	 edx, DWORD PTR [esi+edi*8+4]
  0003c	89 0c c6	 mov	 DWORD PTR [esi+eax*8], ecx
  0003f	89 54 c6 04	 mov	 DWORD PTR [esi+eax*8+4], edx

; 6203 :         _Hole             = _Idx;

  00043	8b c7		 mov	 eax, edi
  00045	3b fb		 cmp	 edi, ebx
  00047	7c da		 jl	 SHORT $LL2@Pop_heap_h
  00049	8b 55 10	 mov	 edx, DWORD PTR __Bottom$[ebp]
$LN3@Pop_heap_h:

; 6204 :     }
; 6205 : 
; 6206 :     if (_Idx == _Max_sequence_non_leaf && _Bottom % 2 == 0) { // only child at bottom, move _Hole down to it

  0004c	3b fb		 cmp	 edi, ebx
  0004e	75 17		 jne	 SHORT $LN5@Pop_heap_h
  00050	f6 c2 01	 test	 dl, 1
  00053	75 12		 jne	 SHORT $LN5@Pop_heap_h

; 6207 :         *(_First + _Hole) = _STD move(*(_First + (_Bottom - 1)));

  00055	8b 4c d6 f8	 mov	 ecx, DWORD PTR [esi+edx*8-8]
  00059	8b 54 d6 fc	 mov	 edx, DWORD PTR [esi+edx*8-4]
  0005d	89 0c c6	 mov	 DWORD PTR [esi+eax*8], ecx
  00060	89 54 c6 04	 mov	 DWORD PTR [esi+eax*8+4], edx

; 6208 :         _Hole             = _Bottom - 1;

  00064	8b 45 fc	 mov	 eax, DWORD PTR tv392[ebp]
$LN5@Pop_heap_h:

; 6077 :          _Top < _Hole && _DEBUG_LT_PRED(_Pred, *(_First + _Idx), _Val); //

  00067	8b 5d 14	 mov	 ebx, DWORD PTR __Val$[ebp]
  0006a	39 45 0c	 cmp	 DWORD PTR __Top$1$[ebp], eax
  0006d	7d 24		 jge	 SHORT $LN24@Pop_heap_h
  0006f	90		 npad	 1
$LL12@Pop_heap_h:

; 6076 :     for (_Diff _Idx = (_Hole - 1) >> 1; // shift for codegen

  00070	8d 78 ff	 lea	 edi, DWORD PTR [eax-1]
  00073	d1 ff		 sar	 edi, 1
; File D:\Metin2 Server Files\mainline\SRC_2014\Metin2Client\GameLib\Area.h

; 190  : 				return lhs.dwNumber > rhs.dwNumber;

  00075	8b 4c fe 04	 mov	 ecx, DWORD PTR [esi+edi*8+4]
  00079	3b 4b 04	 cmp	 ecx, DWORD PTR [ebx+4]
; File C:\Program Files (x86)\Microsoft Visual Studio\2019\Community\VC\Tools\MSVC\14.28.29333\include\algorithm

; 6077 :          _Top < _Hole && _DEBUG_LT_PRED(_Pred, *(_First + _Idx), _Val); //

  0007c	76 15		 jbe	 SHORT $LN24@Pop_heap_h

; 6078 :          _Idx = (_Hole - 1) >> 1) { // shift for codegen
; 6079 :         // move _Hole up to parent
; 6080 :         *(_First + _Hole) = _STD move(*(_First + _Idx));

  0007e	8b 0c fe	 mov	 ecx, DWORD PTR [esi+edi*8]
  00081	8b 54 fe 04	 mov	 edx, DWORD PTR [esi+edi*8+4]
  00085	89 0c c6	 mov	 DWORD PTR [esi+eax*8], ecx
  00088	89 54 c6 04	 mov	 DWORD PTR [esi+eax*8+4], edx

; 6081 :         _Hole             = _Idx;

  0008c	8b c7		 mov	 eax, edi
  0008e	39 7d 0c	 cmp	 DWORD PTR __Top$1$[ebp], edi
  00091	7c dd		 jl	 SHORT $LL12@Pop_heap_h
$LN24@Pop_heap_h:

; 6082 :     }
; 6083 : 
; 6084 :     *(_First + _Hole) = _STD forward<_Ty>(_Val); // drop _Val into final hole

  00093	8b 0b		 mov	 ecx, DWORD PTR [ebx]
  00095	8b 53 04	 mov	 edx, DWORD PTR [ebx+4]
  00098	5f		 pop	 edi
  00099	89 0c c6	 mov	 DWORD PTR [esi+eax*8], ecx
  0009c	89 54 c6 04	 mov	 DWORD PTR [esi+eax*8+4], edx
  000a0	5e		 pop	 esi
  000a1	5b		 pop	 ebx

; 6209 :     }
; 6210 : 
; 6211 :     _Push_heap_by_index(_First, _Hole, _Top, _STD forward<_Ty>(_Val), _Pred);
; 6212 : }

  000a2	8b e5		 mov	 esp, ebp
  000a4	5d		 pop	 ebp
  000a5	c3		 ret	 0
??$_Pop_heap_hole_by_index@PAUSCRCWithNumber@CArea@@U12@UCRCNumComp@2@@std@@YAXPAUSCRCWithNumber@CArea@@HH$$QAU12@UCRCNumComp@2@@Z ENDP ; std::_Pop_heap_hole_by_index<CArea::SCRCWithNumber *,CArea::SCRCWithNumber,CArea::CRCNumComp>
_TEXT	ENDS
; Function compile flags: /Ogtp
; File C:\Program Files (x86)\Microsoft Visual Studio\2019\Community\VC\Tools\MSVC\14.28.29333\include\algorithm
; File C:\Program Files (x86)\Microsoft Visual Studio\2019\Community\VC\Tools\MSVC\14.28.29333\include\utility
; File C:\Program Files (x86)\Microsoft Visual Studio\2019\Community\VC\Tools\MSVC\14.28.29333\include\algorithm
; File C:\Program Files (x86)\Microsoft Visual Studio\2019\Community\VC\Tools\MSVC\14.28.29333\include\utility
; File C:\Program Files (x86)\Microsoft Visual Studio\2019\Community\VC\Tools\MSVC\14.28.29333\include\algorithm
; File C:\Program Files (x86)\Microsoft Visual Studio\2019\Community\VC\Tools\MSVC\14.28.29333\include\utility
; File C:\Program Files (x86)\Microsoft Visual Studio\2019\Community\VC\Tools\MSVC\14.28.29333\include\algorithm
; File C:\Program Files (x86)\Microsoft Visual Studio\2019\Community\VC\Tools\MSVC\14.28.29333\include\utility
; File C:\Program Files (x86)\Microsoft Visual Studio\2019\Community\VC\Tools\MSVC\14.28.29333\include\algorithm
; File C:\Program Files (x86)\Microsoft Visual Studio\2019\Community\VC\Tools\MSVC\14.28.29333\include\utility
; File C:\Program Files (x86)\Microsoft Visual Studio\2019\Community\VC\Tools\MSVC\14.28.29333\include\algorithm
; File C:\Program Files (x86)\Microsoft Visual Studio\2019\Community\VC\Tools\MSVC\14.28.29333\include\utility
; File C:\Program Files (x86)\Microsoft Visual Studio\2019\Community\VC\Tools\MSVC\14.28.29333\include\algorithm
; File C:\Program Files (x86)\Microsoft Visual Studio\2019\Community\VC\Tools\MSVC\14.28.29333\include\utility
; File C:\Program Files (x86)\Microsoft Visual Studio\2019\Community\VC\Tools\MSVC\14.28.29333\include\algorithm
; File C:\Program Files (x86)\Microsoft Visual Studio\2019\Community\VC\Tools\MSVC\14.28.29333\include\utility
; File C:\Program Files (x86)\Microsoft Visual Studio\2019\Community\VC\Tools\MSVC\14.28.29333\include\algorithm
; File C:\Program Files (x86)\Microsoft Visual Studio\2019\Community\VC\Tools\MSVC\14.28.29333\include\utility
; File C:\Program Files (x86)\Microsoft Visual Studio\2019\Community\VC\Tools\MSVC\14.28.29333\include\algorithm
; File C:\Program Files (x86)\Microsoft Visual Studio\2019\Community\VC\Tools\MSVC\14.28.29333\include\utility
; File C:\Program Files (x86)\Microsoft Visual Studio\2019\Community\VC\Tools\MSVC\14.28.29333\include\algorithm
; File C:\Program Files (x86)\Microsoft Visual Studio\2019\Community\VC\Tools\MSVC\14.28.29333\include\utility
; File C:\Program Files (x86)\Microsoft Visual Studio\2019\Community\VC\Tools\MSVC\14.28.29333\include\algorithm
; File C:\Program Files (x86)\Microsoft Visual Studio\2019\Community\VC\Tools\MSVC\14.28.29333\include\utility
; File C:\Program Files (x86)\Microsoft Visual Studio\2019\Community\VC\Tools\MSVC\14.28.29333\include\algorithm
; File C:\Program Files (x86)\Microsoft Visual Studio\2019\Community\VC\Tools\MSVC\14.28.29333\include\utility
; File C:\Program Files (x86)\Microsoft Visual Studio\2019\Community\VC\Tools\MSVC\14.28.29333\include\algorithm
;	COMDAT ??$_Partition_by_median_guess_unchecked@PAU?$pair@MJ@std@@U?$less@X@2@@std@@YA?AU?$pair@PAU?$pair@MJ@std@@PAU12@@0@PAU?$pair@MJ@0@0U?$less@X@0@@Z
_TEXT	SEGMENT
__Pfirst$1$ = -8					; size = 4
tv1402 = -4						; size = 4
___$ReturnUdt$ = 8					; size = 4
__First$ = 12						; size = 4
__Last$ = 16						; size = 4
__Glast$1$ = 20						; size = 4
__Pred$ = 20						; size = 1
??$_Partition_by_median_guess_unchecked@PAU?$pair@MJ@std@@U?$less@X@2@@std@@YA?AU?$pair@PAU?$pair@MJ@std@@PAU12@@0@PAU?$pair@MJ@0@0U?$less@X@0@@Z PROC ; std::_Partition_by_median_guess_unchecked<std::pair<float,long> *,std::less<void> >, COMDAT

; 7467 : _CONSTEXPR20 pair<_RanIt, _RanIt> _Partition_by_median_guess_unchecked(_RanIt _First, _RanIt _Last, _Pr _Pred) {

  00000	55		 push	 ebp
  00001	8b ec		 mov	 ebp, esp
  00003	83 ec 08	 sub	 esp, 8

; 7468 :     // partition [_First, _Last)
; 7469 :     _RanIt _Mid = _First + ((_Last - _First) >> 1); // shift for codegen

  00006	8b 4d 10	 mov	 ecx, DWORD PTR __Last$[ebp]
  00009	8b c1		 mov	 eax, ecx
  0000b	53		 push	 ebx
  0000c	8b 5d 0c	 mov	 ebx, DWORD PTR __First$[ebp]

; 7470 :     _Guess_median_unchecked(_First, _Mid, _Prev_iter(_Last), _Pred);

  0000f	83 c1 f8	 add	 ecx, -8			; fffffff8H
  00012	2b c3		 sub	 eax, ebx
  00014	c1 f8 04	 sar	 eax, 4
  00017	56		 push	 esi
  00018	57		 push	 edi
  00019	8d 34 c3	 lea	 esi, DWORD PTR [ebx+eax*8]

; 7453 :     const _Diff _Count = _Last - _First;

  0001c	8b c1		 mov	 eax, ecx
  0001e	2b c3		 sub	 eax, ebx

; 7468 :     // partition [_First, _Last)
; 7469 :     _RanIt _Mid = _First + ((_Last - _First) >> 1); // shift for codegen

  00020	89 75 f8	 mov	 DWORD PTR __Pfirst$1$[ebp], esi

; 7453 :     const _Diff _Count = _Last - _First;

  00023	c1 f8 03	 sar	 eax, 3

; 7454 :     if (40 < _Count) { // Tukey's ninther

  00026	83 f8 28	 cmp	 eax, 40			; 00000028H
  00029	7e 66		 jle	 SHORT $LN35@Partition_

; 7455 :         const _Diff _Step     = (_Count + 1) >> 3; // +1 can't overflow because range was made inclusive in caller

  0002b	40		 inc	 eax
  0002c	c1 f8 03	 sar	 eax, 3

; 7456 :         const _Diff _Two_step = _Step << 1; // note: intentionally discards low-order bit
; 7457 :         _Med3_unchecked(_First, _First + _Step, _First + _Two_step, _Pred);

  0002f	8b c8		 mov	 ecx, eax
  00031	c1 e1 04	 shl	 ecx, 4
  00034	89 4d fc	 mov	 DWORD PTR tv1402[ebp], ecx
  00037	8d 3c c5 00 00
	00 00		 lea	 edi, DWORD PTR [eax*8]
  0003e	8b 45 0c	 mov	 eax, DWORD PTR __First$[ebp]
  00041	8d 14 1f	 lea	 edx, DWORD PTR [edi+ebx]
  00044	03 c1		 add	 eax, ecx
  00046	8b 5d 14	 mov	 ebx, DWORD PTR __Pred$[ebp]
  00049	53		 push	 ebx
  0004a	50		 push	 eax
  0004b	52		 push	 edx
  0004c	ff 75 0c	 push	 DWORD PTR __First$[ebp]
  0004f	e8 00 00 00 00	 call	 ??$_Med3_unchecked@PAU?$pair@MJ@std@@U?$less@X@2@@std@@YAXPAU?$pair@MJ@0@00U?$less@X@0@@Z ; std::_Med3_unchecked<std::pair<float,long> *,std::less<void> >

; 7458 :         _Med3_unchecked(_Mid - _Step, _Mid, _Mid + _Step, _Pred);

  00054	53		 push	 ebx
  00055	8d 04 37	 lea	 eax, DWORD PTR [edi+esi]
  00058	50		 push	 eax
  00059	8b c6		 mov	 eax, esi
  0005b	2b c7		 sub	 eax, edi
  0005d	56		 push	 esi
  0005e	50		 push	 eax
  0005f	e8 00 00 00 00	 call	 ??$_Med3_unchecked@PAU?$pair@MJ@std@@U?$less@X@2@@std@@YAXPAU?$pair@MJ@0@00U?$less@X@0@@Z ; std::_Med3_unchecked<std::pair<float,long> *,std::less<void> >

; 7459 :         _Med3_unchecked(_Last - _Two_step, _Last - _Step, _Last, _Pred);

  00064	8b 45 10	 mov	 eax, DWORD PTR __Last$[ebp]
  00067	83 c0 f8	 add	 eax, -8			; fffffff8H
  0006a	8b f0		 mov	 esi, eax
  0006c	53		 push	 ebx
  0006d	50		 push	 eax
  0006e	2b 45 fc	 sub	 eax, DWORD PTR tv1402[ebp]
  00071	2b f7		 sub	 esi, edi
  00073	56		 push	 esi
  00074	50		 push	 eax
  00075	e8 00 00 00 00	 call	 ??$_Med3_unchecked@PAU?$pair@MJ@std@@U?$less@X@2@@std@@YAXPAU?$pair@MJ@0@00U?$less@X@0@@Z ; std::_Med3_unchecked<std::pair<float,long> *,std::less<void> >

; 7460 :         _Med3_unchecked(_First + _Step, _Mid, _Last - _Step, _Pred);

  0007a	53		 push	 ebx
  0007b	8b 5d 0c	 mov	 ebx, DWORD PTR __First$[ebp]
  0007e	56		 push	 esi
  0007f	8b 75 f8	 mov	 esi, DWORD PTR __Pfirst$1$[ebp]
  00082	56		 push	 esi
  00083	8d 04 1f	 lea	 eax, DWORD PTR [edi+ebx]
  00086	50		 push	 eax
  00087	e8 00 00 00 00	 call	 ??$_Med3_unchecked@PAU?$pair@MJ@std@@U?$less@X@2@@std@@YAXPAU?$pair@MJ@0@00U?$less@X@0@@Z ; std::_Med3_unchecked<std::pair<float,long> *,std::less<void> >
  0008c	83 c4 40	 add	 esp, 64			; 00000040H

; 7461 :     } else {

  0008f	eb 0e		 jmp	 SHORT $LN36@Partition_
$LN35@Partition_:

; 7462 :         _Med3_unchecked(_First, _Mid, _Last, _Pred);

  00091	ff 75 14	 push	 DWORD PTR __Pred$[ebp]
  00094	51		 push	 ecx
  00095	56		 push	 esi
  00096	53		 push	 ebx
  00097	e8 00 00 00 00	 call	 ??$_Med3_unchecked@PAU?$pair@MJ@std@@U?$less@X@2@@std@@YAXPAU?$pair@MJ@0@00U?$less@X@0@@Z ; std::_Med3_unchecked<std::pair<float,long> *,std::less<void> >
  0009c	83 c4 10	 add	 esp, 16			; 00000010H
$LN36@Partition_:

; 7471 :     _RanIt _Pfirst = _Mid;
; 7472 :     _RanIt _Plast  = _Next_iter(_Pfirst);

  0009f	8d 7e 08	 lea	 edi, DWORD PTR [esi+8]

; 7473 : 
; 7474 :     while (_First < _Pfirst && !_DEBUG_LT_PRED(_Pred, *_Prev_iter(_Pfirst), *_Pfirst)
; 7475 :            && !_Pred(*_Pfirst, *_Prev_iter(_Pfirst))) {

  000a2	3b de		 cmp	 ebx, esi
  000a4	73 3d		 jae	 SHORT $LN260@Partition_
  000a6	f3 0f 10 0e	 movss	 xmm1, DWORD PTR [esi]
  000aa	66 0f 1f 44 00
	00		 npad	 6
$LL2@Partition_:
; File C:\Program Files (x86)\Microsoft Visual Studio\2019\Community\VC\Tools\MSVC\14.28.29333\include\utility

; 352  :     return _Left.first < _Right.first || (!(_Right.first < _Left.first) && _Left.second < _Right.second);

  000b0	f3 0f 10 46 f8	 movss	 xmm0, DWORD PTR [esi-8]
  000b5	0f 2f c8	 comiss	 xmm1, xmm0
  000b8	77 29		 ja	 SHORT $LN260@Partition_
  000ba	0f 2f c1	 comiss	 xmm0, xmm1
  000bd	77 24		 ja	 SHORT $LN260@Partition_
  000bf	8b 46 fc	 mov	 eax, DWORD PTR [esi-4]
  000c2	3b 46 04	 cmp	 eax, DWORD PTR [esi+4]
  000c5	7c 1c		 jl	 SHORT $LN260@Partition_
  000c7	0f 2f c1	 comiss	 xmm0, xmm1
  000ca	77 17		 ja	 SHORT $LN260@Partition_
  000cc	0f 2f c8	 comiss	 xmm1, xmm0
  000cf	77 08		 ja	 SHORT $LN248@Partition_
  000d1	8b 46 04	 mov	 eax, DWORD PTR [esi+4]
  000d4	3b 46 fc	 cmp	 eax, DWORD PTR [esi-4]
  000d7	7c 0a		 jl	 SHORT $LN260@Partition_
$LN248@Partition_:
; File C:\Program Files (x86)\Microsoft Visual Studio\2019\Community\VC\Tools\MSVC\14.28.29333\include\algorithm

; 7476 :         --_Pfirst;

  000d9	83 c6 f8	 add	 esi, -8			; fffffff8H
  000dc	0f 28 c8	 movaps	 xmm1, xmm0
  000df	3b de		 cmp	 ebx, esi
  000e1	72 cd		 jb	 SHORT $LL2@Partition_
$LN260@Partition_:

; 7477 :     }
; 7478 : 
; 7479 :     while (_Plast < _Last && !_DEBUG_LT_PRED(_Pred, *_Plast, *_Pfirst) && !_Pred(*_Pfirst, *_Plast)) {

  000e3	8b 4d 10	 mov	 ecx, DWORD PTR __Last$[ebp]
  000e6	3b f9		 cmp	 edi, ecx
  000e8	73 35		 jae	 SHORT $LN261@Partition_
; File C:\Program Files (x86)\Microsoft Visual Studio\2019\Community\VC\Tools\MSVC\14.28.29333\include\utility

; 352  :     return _Left.first < _Right.first || (!(_Right.first < _Left.first) && _Left.second < _Right.second);

  000ea	f3 0f 10 0e	 movss	 xmm1, DWORD PTR [esi]
  000ee	66 90		 npad	 2
$LL4@Partition_:
  000f0	f3 0f 10 07	 movss	 xmm0, DWORD PTR [edi]
  000f4	0f 2f c8	 comiss	 xmm1, xmm0
  000f7	77 26		 ja	 SHORT $LN261@Partition_
  000f9	0f 2f c1	 comiss	 xmm0, xmm1
  000fc	77 21		 ja	 SHORT $LN261@Partition_
  000fe	8b 47 04	 mov	 eax, DWORD PTR [edi+4]
  00101	3b 46 04	 cmp	 eax, DWORD PTR [esi+4]
  00104	7c 19		 jl	 SHORT $LN261@Partition_
  00106	0f 2f c1	 comiss	 xmm0, xmm1
  00109	77 14		 ja	 SHORT $LN261@Partition_
  0010b	0f 2f c8	 comiss	 xmm1, xmm0
  0010e	77 08		 ja	 SHORT $LN250@Partition_
  00110	8b 46 04	 mov	 eax, DWORD PTR [esi+4]
  00113	3b 47 04	 cmp	 eax, DWORD PTR [edi+4]
  00116	7c 07		 jl	 SHORT $LN261@Partition_
$LN250@Partition_:
; File C:\Program Files (x86)\Microsoft Visual Studio\2019\Community\VC\Tools\MSVC\14.28.29333\include\algorithm

; 7480 :         ++_Plast;

  00118	83 c7 08	 add	 edi, 8
  0011b	3b f9		 cmp	 edi, ecx
  0011d	72 d1		 jb	 SHORT $LL4@Partition_
$LN261@Partition_:

; 7481 :     }
; 7482 : 
; 7483 :     _RanIt _Gfirst = _Plast;
; 7484 :     _RanIt _Glast  = _Pfirst;

  0011f	8b ce		 mov	 ecx, esi
  00121	8b d7		 mov	 edx, edi
  00123	89 4d 14	 mov	 DWORD PTR __Glast$1$[ebp], ecx
$LN271@Partition_:

; 7485 : 
; 7486 :     for (;;) { // partition
; 7487 :         for (; _Gfirst < _Last; ++_Gfirst) {

  00126	8b 45 10	 mov	 eax, DWORD PTR __Last$[ebp]
  00129	0f 1f 80 00 00
	00 00		 npad	 7
$LL6@Partition_:
  00130	3b d0		 cmp	 edx, eax
  00132	73 67		 jae	 SHORT $LN230@Partition_
  00134	8b 4d 10	 mov	 ecx, DWORD PTR __Last$[ebp]
  00137	66 0f 1f 84 00
	00 00 00 00	 npad	 9
$LL11@Partition_:
; File C:\Program Files (x86)\Microsoft Visual Studio\2019\Community\VC\Tools\MSVC\14.28.29333\include\utility

; 352  :     return _Left.first < _Right.first || (!(_Right.first < _Left.first) && _Left.second < _Right.second);

  00140	f3 0f 10 06	 movss	 xmm0, DWORD PTR [esi]
  00144	f3 0f 10 0a	 movss	 xmm1, DWORD PTR [edx]
  00148	0f 2f c8	 comiss	 xmm1, xmm0
  0014b	77 41		 ja	 SHORT $LN9@Partition_
  0014d	0f 2f c1	 comiss	 xmm0, xmm1
  00150	77 43		 ja	 SHORT $LN262@Partition_
  00152	8b 46 04	 mov	 eax, DWORD PTR [esi+4]
  00155	3b 42 04	 cmp	 eax, DWORD PTR [edx+4]
  00158	7c 34		 jl	 SHORT $LN9@Partition_
  0015a	0f 2f c1	 comiss	 xmm0, xmm1
  0015d	77 36		 ja	 SHORT $LN262@Partition_
  0015f	0f 2f c8	 comiss	 xmm1, xmm0
  00162	77 08		 ja	 SHORT $LN253@Partition_
  00164	8b 42 04	 mov	 eax, DWORD PTR [edx+4]
  00167	3b 46 04	 cmp	 eax, DWORD PTR [esi+4]
  0016a	7c 29		 jl	 SHORT $LN262@Partition_
$LN253@Partition_:
; File C:\Program Files (x86)\Microsoft Visual Studio\2019\Community\VC\Tools\MSVC\14.28.29333\include\algorithm

; 7492 :             } else if (_Plast != _Gfirst) {

  0016c	3b fa		 cmp	 edi, edx
  0016e	74 1b		 je	 SHORT $LN19@Partition_
; File C:\Program Files (x86)\Microsoft Visual Studio\2019\Community\VC\Tools\MSVC\14.28.29333\include\utility

; 104  :     _Ty _Tmp = _STD move(_Left);

  00170	f3 0f 10 07	 movss	 xmm0, DWORD PTR [edi]

; 105  :     _Left    = _STD move(_Right);

  00174	f3 0f 11 0f	 movss	 DWORD PTR [edi], xmm1
  00178	8b 42 04	 mov	 eax, DWORD PTR [edx+4]

; 106  :     _Right   = _STD move(_Tmp);

  0017b	f3 0f 11 02	 movss	 DWORD PTR [edx], xmm0

; 104  :     _Ty _Tmp = _STD move(_Left);

  0017f	8b 4f 04	 mov	 ecx, DWORD PTR [edi+4]

; 105  :     _Left    = _STD move(_Right);

  00182	89 47 04	 mov	 DWORD PTR [edi+4], eax

; 106  :     _Right   = _STD move(_Tmp);

  00185	89 4a 04	 mov	 DWORD PTR [edx+4], ecx
; File C:\Program Files (x86)\Microsoft Visual Studio\2019\Community\VC\Tools\MSVC\14.28.29333\include\algorithm

; 7495 :             } else {

  00188	8b 4d 10	 mov	 ecx, DWORD PTR __Last$[ebp]
$LN19@Partition_:

; 7485 : 
; 7486 :     for (;;) { // partition
; 7487 :         for (; _Gfirst < _Last; ++_Gfirst) {

  0018b	83 c7 08	 add	 edi, 8
$LN9@Partition_:
  0018e	83 c2 08	 add	 edx, 8
  00191	3b d1		 cmp	 edx, ecx
  00193	72 ab		 jb	 SHORT $LL11@Partition_
$LN262@Partition_:
  00195	8b 4d 14	 mov	 ecx, DWORD PTR __Glast$1$[ebp]
  00198	8b 5d 0c	 mov	 ebx, DWORD PTR __First$[ebp]
$LN230@Partition_:

; 7500 :         for (; _First < _Glast; --_Glast) {

  0019b	3b cb		 cmp	 ecx, ebx
  0019d	76 75		 jbe	 SHORT $LN269@Partition_
  0019f	8b 45 0c	 mov	 eax, DWORD PTR __First$[ebp]
  001a2	8d 59 fc	 lea	 ebx, DWORD PTR [ecx-4]
  001a5	66 66 66 0f 1f
	84 00 00 00 00
	00		 npad	 11
$LL14@Partition_:
; File C:\Program Files (x86)\Microsoft Visual Studio\2019\Community\VC\Tools\MSVC\14.28.29333\include\utility

; 352  :     return _Left.first < _Right.first || (!(_Right.first < _Left.first) && _Left.second < _Right.second);

  001b0	f3 0f 10 4b fc	 movss	 xmm1, DWORD PTR [ebx-4]
  001b5	f3 0f 10 06	 movss	 xmm0, DWORD PTR [esi]
  001b9	0f 2f c1	 comiss	 xmm0, xmm1
  001bc	77 44		 ja	 SHORT $LN12@Partition_
  001be	0f 2f c8	 comiss	 xmm1, xmm0
  001c1	77 4c		 ja	 SHORT $LN263@Partition_
  001c3	8b 03		 mov	 eax, DWORD PTR [ebx]
  001c5	3b 46 04	 cmp	 eax, DWORD PTR [esi+4]
  001c8	7c 35		 jl	 SHORT $LN265@Partition_
  001ca	0f 2f c8	 comiss	 xmm1, xmm0
  001cd	77 40		 ja	 SHORT $LN263@Partition_
  001cf	0f 2f c1	 comiss	 xmm0, xmm1
  001d2	77 07		 ja	 SHORT $LN255@Partition_
  001d4	8b 46 04	 mov	 eax, DWORD PTR [esi+4]
  001d7	3b 03		 cmp	 eax, DWORD PTR [ebx]
  001d9	7c 34		 jl	 SHORT $LN263@Partition_
$LN255@Partition_:
; File C:\Program Files (x86)\Microsoft Visual Studio\2019\Community\VC\Tools\MSVC\14.28.29333\include\algorithm

; 7505 :             } else if (--_Pfirst != _Prev_iter(_Glast)) {

  001db	83 ee 08	 sub	 esi, 8
  001de	8d 43 fc	 lea	 eax, DWORD PTR [ebx-4]
  001e1	3b f0		 cmp	 esi, eax
  001e3	74 1a		 je	 SHORT $LN265@Partition_
; File C:\Program Files (x86)\Microsoft Visual Studio\2019\Community\VC\Tools\MSVC\14.28.29333\include\utility

; 104  :     _Ty _Tmp = _STD move(_Left);

  001e5	f3 0f 10 06	 movss	 xmm0, DWORD PTR [esi]

; 105  :     _Left    = _STD move(_Right);

  001e9	f3 0f 11 0e	 movss	 DWORD PTR [esi], xmm1
  001ed	8b 03		 mov	 eax, DWORD PTR [ebx]

; 106  :     _Right   = _STD move(_Tmp);

  001ef	f3 0f 11 43 fc	 movss	 DWORD PTR [ebx-4], xmm0

; 104  :     _Ty _Tmp = _STD move(_Left);

  001f4	8b 4e 04	 mov	 ecx, DWORD PTR [esi+4]

; 105  :     _Left    = _STD move(_Right);

  001f7	89 46 04	 mov	 DWORD PTR [esi+4], eax

; 106  :     _Right   = _STD move(_Tmp);

  001fa	89 0b		 mov	 DWORD PTR [ebx], ecx
  001fc	8b 4d 14	 mov	 ecx, DWORD PTR __Glast$1$[ebp]
$LN265@Partition_:
; File C:\Program Files (x86)\Microsoft Visual Studio\2019\Community\VC\Tools\MSVC\14.28.29333\include\algorithm

; 7500 :         for (; _First < _Glast; --_Glast) {

  001ff	8b 45 0c	 mov	 eax, DWORD PTR __First$[ebp]
$LN12@Partition_:
  00202	83 e9 08	 sub	 ecx, 8
  00205	83 eb 08	 sub	 ebx, 8
  00208	89 4d 14	 mov	 DWORD PTR __Glast$1$[ebp], ecx
  0020b	3b c1		 cmp	 eax, ecx
  0020d	72 a1		 jb	 SHORT $LL14@Partition_
$LN263@Partition_:
  0020f	8b 5d 0c	 mov	 ebx, DWORD PTR __First$[ebp]

; 7506 :                 _STD iter_swap(_Pfirst, _Prev_iter(_Glast));
; 7507 :             }
; 7508 :         }
; 7509 : 
; 7510 :         if (_Glast == _First && _Gfirst == _Last) {

  00212	3b cb		 cmp	 ecx, ebx
$LN269@Partition_:
  00214	75 56		 jne	 SHORT $LN27@Partition_
  00216	3b 55 10	 cmp	 edx, DWORD PTR __Last$[ebp]
  00219	0f 84 e1 00 00
	00		 je	 $LN209@Partition_

; 7512 :         }
; 7513 : 
; 7514 :         if (_Glast == _First) { // no room at bottom, rotate pivot upward
; 7515 :             if (_Plast != _Gfirst) {

  0021f	3b fa		 cmp	 edi, edx
  00221	74 1c		 je	 SHORT $LN140@Partition_
; File C:\Program Files (x86)\Microsoft Visual Studio\2019\Community\VC\Tools\MSVC\14.28.29333\include\utility

; 320  :         if (this != _STD addressof(_Right)) {

  00223	3b f7		 cmp	 esi, edi
  00225	74 18		 je	 SHORT $LN140@Partition_

; 105  :     _Left    = _STD move(_Right);

  00227	8b 07		 mov	 eax, DWORD PTR [edi]
  00229	f3 0f 10 06	 movss	 xmm0, DWORD PTR [esi]
  0022d	89 06		 mov	 DWORD PTR [esi], eax
  0022f	8b 47 04	 mov	 eax, DWORD PTR [edi+4]

; 106  :     _Right   = _STD move(_Tmp);

  00232	f3 0f 11 07	 movss	 DWORD PTR [edi], xmm0

; 104  :     _Ty _Tmp = _STD move(_Left);

  00236	8b 4e 04	 mov	 ecx, DWORD PTR [esi+4]

; 105  :     _Left    = _STD move(_Right);

  00239	89 46 04	 mov	 DWORD PTR [esi+4], eax

; 106  :     _Right   = _STD move(_Tmp);

  0023c	89 4f 04	 mov	 DWORD PTR [edi+4], ecx
$LN140@Partition_:
; File C:\Program Files (x86)\Microsoft Visual Studio\2019\Community\VC\Tools\MSVC\14.28.29333\include\algorithm

; 7519 :             ++_Plast;

  0023f	83 c7 08	 add	 edi, 8
; File C:\Program Files (x86)\Microsoft Visual Studio\2019\Community\VC\Tools\MSVC\14.28.29333\include\utility

; 320  :         if (this != _STD addressof(_Right)) {

  00242	3b f2		 cmp	 esi, edx
  00244	74 18		 je	 SHORT $LN155@Partition_

; 105  :     _Left    = _STD move(_Right);

  00246	8b 02		 mov	 eax, DWORD PTR [edx]
  00248	f3 0f 10 06	 movss	 xmm0, DWORD PTR [esi]
  0024c	89 06		 mov	 DWORD PTR [esi], eax
  0024e	8b 42 04	 mov	 eax, DWORD PTR [edx+4]

; 106  :     _Right   = _STD move(_Tmp);

  00251	f3 0f 11 02	 movss	 DWORD PTR [edx], xmm0

; 104  :     _Ty _Tmp = _STD move(_Left);

  00255	8b 4e 04	 mov	 ecx, DWORD PTR [esi+4]

; 105  :     _Left    = _STD move(_Right);

  00258	89 46 04	 mov	 DWORD PTR [esi+4], eax

; 106  :     _Right   = _STD move(_Tmp);

  0025b	89 4a 04	 mov	 DWORD PTR [edx+4], ecx
$LN155@Partition_:
; File C:\Program Files (x86)\Microsoft Visual Studio\2019\Community\VC\Tools\MSVC\14.28.29333\include\algorithm

; 7522 :             ++_Gfirst;

  0025e	8b 4d 14	 mov	 ecx, DWORD PTR __Glast$1$[ebp]
  00261	83 c6 08	 add	 esi, 8
  00264	83 c2 08	 add	 edx, 8
  00267	e9 ba fe ff ff	 jmp	 $LN271@Partition_
$LN27@Partition_:

; 7523 :         } else if (_Gfirst == _Last) { // no room at top, rotate pivot downward

  0026c	8b 45 10	 mov	 eax, DWORD PTR __Last$[ebp]
  0026f	83 c1 f8	 add	 ecx, -8			; fffffff8H
  00272	89 4d 14	 mov	 DWORD PTR __Glast$1$[ebp], ecx
  00275	3b d0		 cmp	 edx, eax
  00277	75 55		 jne	 SHORT $LN30@Partition_

; 7524 :             if (--_Glast != --_Pfirst) {

  00279	83 ee 08	 sub	 esi, 8
  0027c	3b ce		 cmp	 ecx, esi
  0027e	74 23		 je	 SHORT $LN256@Partition_
; File C:\Program Files (x86)\Microsoft Visual Studio\2019\Community\VC\Tools\MSVC\14.28.29333\include\utility

; 104  :     _Ty _Tmp = _STD move(_Left);

  00280	f3 0f 10 01	 movss	 xmm0, DWORD PTR [ecx]

; 105  :     _Left    = _STD move(_Right);

  00284	8b 06		 mov	 eax, DWORD PTR [esi]
  00286	8b 5d 14	 mov	 ebx, DWORD PTR __Glast$1$[ebp]
  00289	89 01		 mov	 DWORD PTR [ecx], eax
  0028b	8b 46 04	 mov	 eax, DWORD PTR [esi+4]

; 106  :     _Right   = _STD move(_Tmp);

  0028e	f3 0f 11 06	 movss	 DWORD PTR [esi], xmm0

; 104  :     _Ty _Tmp = _STD move(_Left);

  00292	8b 49 04	 mov	 ecx, DWORD PTR [ecx+4]

; 105  :     _Left    = _STD move(_Right);

  00295	89 43 04	 mov	 DWORD PTR [ebx+4], eax
  00298	8b 45 10	 mov	 eax, DWORD PTR __Last$[ebp]

; 106  :     _Right   = _STD move(_Tmp);

  0029b	89 4e 04	 mov	 DWORD PTR [esi+4], ecx
  0029e	8b cb		 mov	 ecx, ebx
  002a0	8b 5d 0c	 mov	 ebx, DWORD PTR __First$[ebp]
$LN256@Partition_:
; File C:\Program Files (x86)\Microsoft Visual Studio\2019\Community\VC\Tools\MSVC\14.28.29333\include\algorithm

; 7528 :             _STD iter_swap(_Pfirst, --_Plast);

  002a3	83 ef 08	 sub	 edi, 8
; File C:\Program Files (x86)\Microsoft Visual Studio\2019\Community\VC\Tools\MSVC\14.28.29333\include\utility

; 320  :         if (this != _STD addressof(_Right)) {

  002a6	3b f7		 cmp	 esi, edi
  002a8	0f 84 82 fe ff
	ff		 je	 $LL6@Partition_

; 105  :     _Left    = _STD move(_Right);

  002ae	8b 07		 mov	 eax, DWORD PTR [edi]
  002b0	f3 0f 10 06	 movss	 xmm0, DWORD PTR [esi]
  002b4	89 06		 mov	 DWORD PTR [esi], eax
  002b6	8b 47 04	 mov	 eax, DWORD PTR [edi+4]

; 106  :     _Right   = _STD move(_Tmp);

  002b9	f3 0f 11 07	 movss	 DWORD PTR [edi], xmm0

; 104  :     _Ty _Tmp = _STD move(_Left);

  002bd	8b 4e 04	 mov	 ecx, DWORD PTR [esi+4]

; 105  :     _Left    = _STD move(_Right);

  002c0	89 46 04	 mov	 DWORD PTR [esi+4], eax

; 106  :     _Right   = _STD move(_Tmp);

  002c3	89 4f 04	 mov	 DWORD PTR [edi+4], ecx
; File C:\Program Files (x86)\Microsoft Visual Studio\2019\Community\VC\Tools\MSVC\14.28.29333\include\algorithm

; 7529 :         } else {

  002c6	8b 4d 14	 mov	 ecx, DWORD PTR __Glast$1$[ebp]
  002c9	e9 58 fe ff ff	 jmp	 $LN271@Partition_
$LN30@Partition_:

; 7530 :             _STD iter_swap(_Gfirst, --_Glast);

  002ce	89 4d 14	 mov	 DWORD PTR __Glast$1$[ebp], ecx
; File C:\Program Files (x86)\Microsoft Visual Studio\2019\Community\VC\Tools\MSVC\14.28.29333\include\utility

; 320  :         if (this != _STD addressof(_Right)) {

  002d1	3b d1		 cmp	 edx, ecx
  002d3	74 23		 je	 SHORT $LN200@Partition_

; 105  :     _Left    = _STD move(_Right);

  002d5	8b 01		 mov	 eax, DWORD PTR [ecx]
  002d7	8b 5d 14	 mov	 ebx, DWORD PTR __Glast$1$[ebp]

; 104  :     _Ty _Tmp = _STD move(_Left);

  002da	f3 0f 10 02	 movss	 xmm0, DWORD PTR [edx]

; 105  :     _Left    = _STD move(_Right);

  002de	89 02		 mov	 DWORD PTR [edx], eax

; 106  :     _Right   = _STD move(_Tmp);

  002e0	f3 0f 11 01	 movss	 DWORD PTR [ecx], xmm0

; 105  :     _Left    = _STD move(_Right);

  002e4	8b 43 04	 mov	 eax, DWORD PTR [ebx+4]
  002e7	8b 4a 04	 mov	 ecx, DWORD PTR [edx+4]
  002ea	89 42 04	 mov	 DWORD PTR [edx+4], eax
  002ed	8b 45 10	 mov	 eax, DWORD PTR __Last$[ebp]

; 106  :     _Right   = _STD move(_Tmp);

  002f0	89 4b 04	 mov	 DWORD PTR [ebx+4], ecx
  002f3	8b cb		 mov	 ecx, ebx
  002f5	8b 5d 0c	 mov	 ebx, DWORD PTR __First$[ebp]
$LN200@Partition_:
; File C:\Program Files (x86)\Microsoft Visual Studio\2019\Community\VC\Tools\MSVC\14.28.29333\include\algorithm

; 7531 :             ++_Gfirst;

  002f8	83 c2 08	 add	 edx, 8

; 7532 :         }
; 7533 :     }

  002fb	e9 30 fe ff ff	 jmp	 $LL6@Partition_
$LN209@Partition_:
; File C:\Program Files (x86)\Microsoft Visual Studio\2019\Community\VC\Tools\MSVC\14.28.29333\include\utility

; 190  :         : first(_STD forward<_Other1>(_Val1)), second(_STD forward<_Other2>(_Val2)) {}

  00300	8b 45 08	 mov	 eax, DWORD PTR ___$ReturnUdt$[ebp]
  00303	89 78 04	 mov	 DWORD PTR [eax+4], edi
; File C:\Program Files (x86)\Microsoft Visual Studio\2019\Community\VC\Tools\MSVC\14.28.29333\include\algorithm

; 7511 :             return pair<_RanIt, _RanIt>(_Pfirst, _Plast);

  00306	5f		 pop	 edi
; File C:\Program Files (x86)\Microsoft Visual Studio\2019\Community\VC\Tools\MSVC\14.28.29333\include\utility

; 190  :         : first(_STD forward<_Other1>(_Val1)), second(_STD forward<_Other2>(_Val2)) {}

  00307	89 30		 mov	 DWORD PTR [eax], esi
; File C:\Program Files (x86)\Microsoft Visual Studio\2019\Community\VC\Tools\MSVC\14.28.29333\include\algorithm

; 7511 :             return pair<_RanIt, _RanIt>(_Pfirst, _Plast);

  00309	5e		 pop	 esi
  0030a	5b		 pop	 ebx

; 7534 : }

  0030b	8b e5		 mov	 esp, ebp
  0030d	5d		 pop	 ebp
  0030e	c3		 ret	 0
??$_Partition_by_median_guess_unchecked@PAU?$pair@MJ@std@@U?$less@X@2@@std@@YA?AU?$pair@PAU?$pair@MJ@std@@PAU12@@0@PAU?$pair@MJ@0@0U?$less@X@0@@Z ENDP ; std::_Partition_by_median_guess_unchecked<std::pair<float,long> *,std::less<void> >
_TEXT	ENDS
; Function compile flags: /Ogtp
; File C:\Program Files (x86)\Microsoft Visual Studio\2019\Community\VC\Tools\MSVC\14.28.29333\include\xmemory
;	COMDAT ??$_Refancy@PAE$0A@@std@@YAPAEPAE@Z
_TEXT	SEGMENT
__Ptr$ = 8						; size = 4
??$_Refancy@PAE$0A@@std@@YAPAEPAE@Z PROC		; std::_Refancy<unsigned char *,0>, COMDAT

; 261  : _Pointer _Refancy(_Pointer _Ptr) noexcept {

  00000	55		 push	 ebp
  00001	8b ec		 mov	 ebp, esp

; 262  :     return _Ptr;

  00003	8b 45 08	 mov	 eax, DWORD PTR __Ptr$[ebp]

; 263  : }

  00006	5d		 pop	 ebp
  00007	c3		 ret	 0
??$_Refancy@PAE$0A@@std@@YAPAEPAE@Z ENDP		; std::_Refancy<unsigned char *,0>
_TEXT	ENDS
; Function compile flags: /Ogtp
; File C:\Program Files (x86)\Microsoft Visual Studio\2019\Community\VC\Tools\MSVC\14.28.29333\include\xmemory
;	COMDAT ??$_Refancy@PAUSCRCWithNumber@CArea@@$0A@@std@@YAPAUSCRCWithNumber@CArea@@PAU12@@Z
_TEXT	SEGMENT
__Ptr$ = 8						; size = 4
??$_Refancy@PAUSCRCWithNumber@CArea@@$0A@@std@@YAPAUSCRCWithNumber@CArea@@PAU12@@Z PROC ; std::_Refancy<CArea::SCRCWithNumber *,0>, COMDAT

; 261  : _Pointer _Refancy(_Pointer _Ptr) noexcept {

  00000	55		 push	 ebp
  00001	8b ec		 mov	 ebp, esp

; 262  :     return _Ptr;

  00003	8b 45 08	 mov	 eax, DWORD PTR __Ptr$[ebp]

; 263  : }

  00006	5d		 pop	 ebp
  00007	c3		 ret	 0
??$_Refancy@PAUSCRCWithNumber@CArea@@$0A@@std@@YAPAUSCRCWithNumber@CArea@@PAU12@@Z ENDP ; std::_Refancy<CArea::SCRCWithNumber *,0>
_TEXT	ENDS
; Function compile flags: /Ogtp
; File C:\Program Files (x86)\Microsoft Visual Studio\2019\Community\VC\Tools\MSVC\14.28.29333\include\xutility
;	COMDAT ??$_Copy_memmove@PAEPAE@std@@YAPAEPAE00@Z
_TEXT	SEGMENT
__First$ = 8						; size = 4
__Last$ = 12						; size = 4
__Dest$ = 16						; size = 4
??$_Copy_memmove@PAEPAE@std@@YAPAEPAE00@Z PROC		; std::_Copy_memmove<unsigned char *,unsigned char *>, COMDAT

; 4360 : _OutIt _Copy_memmove(_InIt _First, _InIt _Last, _OutIt _Dest) {

  00000	55		 push	 ebp
  00001	8b ec		 mov	 ebp, esp

; 4361 :     const char* const _First_ch = const_cast<const char*>(reinterpret_cast<const volatile char*>(_First));
; 4362 :     const char* const _Last_ch  = const_cast<const char*>(reinterpret_cast<const volatile char*>(_Last));
; 4363 :     char* const _Dest_ch        = const_cast<char*>(reinterpret_cast<volatile char*>(_Dest));
; 4364 :     const auto _Count           = static_cast<size_t>(_Last_ch - _First_ch);

  00003	8b 45 08	 mov	 eax, DWORD PTR __First$[ebp]
  00006	56		 push	 esi

; 4365 :     _CSTD memmove(_Dest_ch, _First_ch, _Count);

  00007	8b 75 10	 mov	 esi, DWORD PTR __Dest$[ebp]
  0000a	57		 push	 edi
  0000b	8b 7d 0c	 mov	 edi, DWORD PTR __Last$[ebp]
  0000e	2b f8		 sub	 edi, eax
  00010	57		 push	 edi
  00011	50		 push	 eax
  00012	56		 push	 esi
  00013	e8 00 00 00 00	 call	 _memmove
  00018	83 c4 0c	 add	 esp, 12			; 0000000cH

; 4366 :     return reinterpret_cast<_OutIt>(_Dest_ch + _Count);

  0001b	8d 04 37	 lea	 eax, DWORD PTR [edi+esi]
  0001e	5f		 pop	 edi
  0001f	5e		 pop	 esi

; 4367 : }

  00020	5d		 pop	 ebp
  00021	c3		 ret	 0
??$_Copy_memmove@PAEPAE@std@@YAPAEPAE00@Z ENDP		; std::_Copy_memmove<unsigned char *,unsigned char *>
_TEXT	ENDS
; Function compile flags: /Ogtp
; File C:\Program Files (x86)\Microsoft Visual Studio\2019\Community\VC\Tools\MSVC\14.28.29333\include\xutility
;	COMDAT ??$_Copy_memmove@PAUSCRCWithNumber@CArea@@PAU12@@std@@YAPAUSCRCWithNumber@CArea@@PAU12@00@Z
_TEXT	SEGMENT
__First$ = 8						; size = 4
__Last$ = 12						; size = 4
__Dest$ = 16						; size = 4
??$_Copy_memmove@PAUSCRCWithNumber@CArea@@PAU12@@std@@YAPAUSCRCWithNumber@CArea@@PAU12@00@Z PROC ; std::_Copy_memmove<CArea::SCRCWithNumber *,CArea::SCRCWithNumber *>, COMDAT

; 4360 : _OutIt _Copy_memmove(_InIt _First, _InIt _Last, _OutIt _Dest) {

  00000	55		 push	 ebp
  00001	8b ec		 mov	 ebp, esp

; 4361 :     const char* const _First_ch = const_cast<const char*>(reinterpret_cast<const volatile char*>(_First));
; 4362 :     const char* const _Last_ch  = const_cast<const char*>(reinterpret_cast<const volatile char*>(_Last));
; 4363 :     char* const _Dest_ch        = const_cast<char*>(reinterpret_cast<volatile char*>(_Dest));
; 4364 :     const auto _Count           = static_cast<size_t>(_Last_ch - _First_ch);

  00003	8b 45 08	 mov	 eax, DWORD PTR __First$[ebp]
  00006	56		 push	 esi

; 4365 :     _CSTD memmove(_Dest_ch, _First_ch, _Count);

  00007	8b 75 10	 mov	 esi, DWORD PTR __Dest$[ebp]
  0000a	57		 push	 edi
  0000b	8b 7d 0c	 mov	 edi, DWORD PTR __Last$[ebp]
  0000e	2b f8		 sub	 edi, eax
  00010	57		 push	 edi
  00011	50		 push	 eax
  00012	56		 push	 esi
  00013	e8 00 00 00 00	 call	 _memmove
  00018	83 c4 0c	 add	 esp, 12			; 0000000cH

; 4366 :     return reinterpret_cast<_OutIt>(_Dest_ch + _Count);

  0001b	8d 04 37	 lea	 eax, DWORD PTR [edi+esi]
  0001e	5f		 pop	 edi
  0001f	5e		 pop	 esi

; 4367 : }

  00020	5d		 pop	 ebp
  00021	c3		 ret	 0
??$_Copy_memmove@PAUSCRCWithNumber@CArea@@PAU12@@std@@YAPAUSCRCWithNumber@CArea@@PAU12@00@Z ENDP ; std::_Copy_memmove<CArea::SCRCWithNumber *,CArea::SCRCWithNumber *>
_TEXT	ENDS
; Function compile flags: /Ogtp
; File C:\Program Files (x86)\Microsoft Visual Studio\2019\Community\VC\Tools\MSVC\14.28.29333\include\xutility
;	COMDAT ??$_Copy_memmove@PAUTPatchDrawStruct@CMapOutdoor@@PAU12@@std@@YAPAUTPatchDrawStruct@CMapOutdoor@@PAU12@00@Z
_TEXT	SEGMENT
__First$ = 8						; size = 4
__Last$ = 12						; size = 4
__Dest$ = 16						; size = 4
??$_Copy_memmove@PAUTPatchDrawStruct@CMapOutdoor@@PAU12@@std@@YAPAUTPatchDrawStruct@CMapOutdoor@@PAU12@00@Z PROC ; std::_Copy_memmove<CMapOutdoor::TPatchDrawStruct *,CMapOutdoor::TPatchDrawStruct *>, COMDAT

; 4360 : _OutIt _Copy_memmove(_InIt _First, _InIt _Last, _OutIt _Dest) {

  00000	55		 push	 ebp
  00001	8b ec		 mov	 ebp, esp

; 4361 :     const char* const _First_ch = const_cast<const char*>(reinterpret_cast<const volatile char*>(_First));
; 4362 :     const char* const _Last_ch  = const_cast<const char*>(reinterpret_cast<const volatile char*>(_Last));
; 4363 :     char* const _Dest_ch        = const_cast<char*>(reinterpret_cast<volatile char*>(_Dest));
; 4364 :     const auto _Count           = static_cast<size_t>(_Last_ch - _First_ch);

  00003	8b 45 08	 mov	 eax, DWORD PTR __First$[ebp]
  00006	56		 push	 esi

; 4365 :     _CSTD memmove(_Dest_ch, _First_ch, _Count);

  00007	8b 75 10	 mov	 esi, DWORD PTR __Dest$[ebp]
  0000a	57		 push	 edi
  0000b	8b 7d 0c	 mov	 edi, DWORD PTR __Last$[ebp]
  0000e	2b f8		 sub	 edi, eax
  00010	57		 push	 edi
  00011	50		 push	 eax
  00012	56		 push	 esi
  00013	e8 00 00 00 00	 call	 _memmove
  00018	83 c4 0c	 add	 esp, 12			; 0000000cH

; 4366 :     return reinterpret_cast<_OutIt>(_Dest_ch + _Count);

  0001b	8d 04 37	 lea	 eax, DWORD PTR [edi+esi]
  0001e	5f		 pop	 edi
  0001f	5e		 pop	 esi

; 4367 : }

  00020	5d		 pop	 ebp
  00021	c3		 ret	 0
??$_Copy_memmove@PAUTPatchDrawStruct@CMapOutdoor@@PAU12@@std@@YAPAUTPatchDrawStruct@CMapOutdoor@@PAU12@00@Z ENDP ; std::_Copy_memmove<CMapOutdoor::TPatchDrawStruct *,CMapOutdoor::TPatchDrawStruct *>
_TEXT	ENDS
; Function compile flags: /Ogtp
; File C:\Program Files (x86)\Microsoft Visual Studio\2019\Community\VC\Tools\MSVC\14.28.29333\include\algorithm
; File D:\Metin2 Server Files\mainline\SRC_2014\Metin2Client\GameLib\MapOutdoor.h
; File C:\Program Files (x86)\Microsoft Visual Studio\2019\Community\VC\Tools\MSVC\14.28.29333\include\xutility
; File D:\Metin2 Server Files\mainline\SRC_2014\Metin2Client\GameLib\MapOutdoor.h
; File C:\Program Files (x86)\Microsoft Visual Studio\2019\Community\VC\Tools\MSVC\14.28.29333\include\xutility
; File C:\Program Files (x86)\Windows Kits\10\Include\10.0.18362.0\ucrt\corecrt_memory.h
; File C:\Program Files (x86)\Microsoft Visual Studio\2019\Community\VC\Tools\MSVC\14.28.29333\include\xutility
; File C:\Program Files (x86)\Windows Kits\10\Include\10.0.18362.0\ucrt\corecrt_memory.h
; File C:\Program Files (x86)\Microsoft Visual Studio\2019\Community\VC\Tools\MSVC\14.28.29333\include\xutility
; File C:\Program Files (x86)\Microsoft Visual Studio\2019\Community\VC\Tools\MSVC\14.28.29333\include\vector
; File C:\Program Files (x86)\Microsoft Visual Studio\2019\Community\VC\Tools\MSVC\14.28.29333\include\xutility
; File C:\Program Files (x86)\Windows Kits\10\Include\10.0.18362.0\ucrt\corecrt_memory.h
; File C:\Program Files (x86)\Microsoft Visual Studio\2019\Community\VC\Tools\MSVC\14.28.29333\include\xutility
; File C:\Program Files (x86)\Windows Kits\10\Include\10.0.18362.0\ucrt\corecrt_memory.h
; File C:\Program Files (x86)\Microsoft Visual Studio\2019\Community\VC\Tools\MSVC\14.28.29333\include\xutility
; File C:\Program Files (x86)\Microsoft Visual Studio\2019\Community\VC\Tools\MSVC\14.28.29333\include\vector
; File C:\Program Files (x86)\Microsoft Visual Studio\2019\Community\VC\Tools\MSVC\14.28.29333\include\xutility
; File C:\Program Files (x86)\Microsoft Visual Studio\2019\Community\VC\Tools\MSVC\14.28.29333\include\vector
; File C:\Program Files (x86)\Microsoft Visual Studio\2019\Community\VC\Tools\MSVC\14.28.29333\include\xutility
; File D:\Metin2 Server Files\mainline\SRC_2014\Metin2Client\GameLib\MapOutdoor.h
; File C:\Program Files (x86)\Microsoft Visual Studio\2019\Community\VC\Tools\MSVC\14.28.29333\include\vector
; File D:\Metin2 Server Files\mainline\SRC_2014\Metin2Client\GameLib\MapOutdoor.h
; File C:\Program Files (x86)\Microsoft Visual Studio\2019\Community\VC\Tools\MSVC\14.28.29333\include\vector
; File D:\Metin2 Server Files\mainline\SRC_2014\Metin2Client\GameLib\MapOutdoor.h
; File C:\Program Files (x86)\Microsoft Visual Studio\2019\Community\VC\Tools\MSVC\14.28.29333\include\vector
; File D:\Metin2 Server Files\mainline\SRC_2014\Metin2Client\GameLib\MapOutdoor.h
; File C:\Program Files (x86)\Microsoft Visual Studio\2019\Community\VC\Tools\MSVC\14.28.29333\include\xutility
; File C:\Program Files (x86)\Windows Kits\10\Include\10.0.18362.0\ucrt\corecrt_memory.h
; File C:\Program Files (x86)\Microsoft Visual Studio\2019\Community\VC\Tools\MSVC\14.28.29333\include\xutility
; File C:\Program Files (x86)\Windows Kits\10\Include\10.0.18362.0\ucrt\corecrt_memory.h
; File C:\Program Files (x86)\Microsoft Visual Studio\2019\Community\VC\Tools\MSVC\14.28.29333\include\xutility
; File C:\Program Files (x86)\Microsoft Visual Studio\2019\Community\VC\Tools\MSVC\14.28.29333\include\vector
; File D:\Metin2 Server Files\mainline\SRC_2014\Metin2Client\GameLib\MapOutdoor.h
; File C:\Program Files (x86)\Microsoft Visual Studio\2019\Community\VC\Tools\MSVC\14.28.29333\include\vector
; File D:\Metin2 Server Files\mainline\SRC_2014\Metin2Client\GameLib\MapOutdoor.h
; File C:\Program Files (x86)\Microsoft Visual Studio\2019\Community\VC\Tools\MSVC\14.28.29333\include\vector
; File D:\Metin2 Server Files\mainline\SRC_2014\Metin2Client\GameLib\MapOutdoor.h
; File C:\Program Files (x86)\Microsoft Visual Studio\2019\Community\VC\Tools\MSVC\14.28.29333\include\vector
; File D:\Metin2 Server Files\mainline\SRC_2014\Metin2Client\GameLib\MapOutdoor.h
; File C:\Program Files (x86)\Microsoft Visual Studio\2019\Community\VC\Tools\MSVC\14.28.29333\include\vector
; File D:\Metin2 Server Files\mainline\SRC_2014\Metin2Client\GameLib\MapOutdoor.h
; File C:\Program Files (x86)\Microsoft Visual Studio\2019\Community\VC\Tools\MSVC\14.28.29333\include\vector
; File D:\Metin2 Server Files\mainline\SRC_2014\Metin2Client\GameLib\MapOutdoor.h
; File C:\Program Files (x86)\Microsoft Visual Studio\2019\Community\VC\Tools\MSVC\14.28.29333\include\algorithm
; File D:\Metin2 Server Files\mainline\SRC_2014\Metin2Client\GameLib\MapOutdoor.h
; File C:\Program Files (x86)\Microsoft Visual Studio\2019\Community\VC\Tools\MSVC\14.28.29333\include\xutility
; File D:\Metin2 Server Files\mainline\SRC_2014\Metin2Client\GameLib\MapOutdoor.h
; File C:\Program Files (x86)\Microsoft Visual Studio\2019\Community\VC\Tools\MSVC\14.28.29333\include\xutility
; File C:\Program Files (x86)\Windows Kits\10\Include\10.0.18362.0\ucrt\corecrt_memory.h
; File C:\Program Files (x86)\Microsoft Visual Studio\2019\Community\VC\Tools\MSVC\14.28.29333\include\xutility
; File C:\Program Files (x86)\Windows Kits\10\Include\10.0.18362.0\ucrt\corecrt_memory.h
; File C:\Program Files (x86)\Microsoft Visual Studio\2019\Community\VC\Tools\MSVC\14.28.29333\include\xutility
; File C:\Program Files (x86)\Microsoft Visual Studio\2019\Community\VC\Tools\MSVC\14.28.29333\include\vector
; File D:\Metin2 Server Files\mainline\SRC_2014\Metin2Client\GameLib\MapOutdoor.h
; File C:\Program Files (x86)\Microsoft Visual Studio\2019\Community\VC\Tools\MSVC\14.28.29333\include\xutility
; File C:\Program Files (x86)\Windows Kits\10\Include\10.0.18362.0\ucrt\corecrt_memory.h
; File C:\Program Files (x86)\Microsoft Visual Studio\2019\Community\VC\Tools\MSVC\14.28.29333\include\xutility
; File C:\Program Files (x86)\Windows Kits\10\Include\10.0.18362.0\ucrt\corecrt_memory.h
; File C:\Program Files (x86)\Microsoft Visual Studio\2019\Community\VC\Tools\MSVC\14.28.29333\include\xutility
; File C:\Program Files (x86)\Microsoft Visual Studio\2019\Community\VC\Tools\MSVC\14.28.29333\include\vector
; File C:\Program Files (x86)\Microsoft Visual Studio\2019\Community\VC\Tools\MSVC\14.28.29333\include\xutility
; File C:\Program Files (x86)\Microsoft Visual Studio\2019\Community\VC\Tools\MSVC\14.28.29333\include\vector
; File C:\Program Files (x86)\Microsoft Visual Studio\2019\Community\VC\Tools\MSVC\14.28.29333\include\xutility
; File D:\Metin2 Server Files\mainline\SRC_2014\Metin2Client\GameLib\MapOutdoor.h
; File C:\Program Files (x86)\Microsoft Visual Studio\2019\Community\VC\Tools\MSVC\14.28.29333\include\vector
; File D:\Metin2 Server Files\mainline\SRC_2014\Metin2Client\GameLib\MapOutdoor.h
; File C:\Program Files (x86)\Microsoft Visual Studio\2019\Community\VC\Tools\MSVC\14.28.29333\include\vector
; File D:\Metin2 Server Files\mainline\SRC_2014\Metin2Client\GameLib\MapOutdoor.h
; File C:\Program Files (x86)\Microsoft Visual Studio\2019\Community\VC\Tools\MSVC\14.28.29333\include\vector
; File D:\Metin2 Server Files\mainline\SRC_2014\Metin2Client\GameLib\MapOutdoor.h
; File C:\Program Files (x86)\Microsoft Visual Studio\2019\Community\VC\Tools\MSVC\14.28.29333\include\xutility
; File C:\Program Files (x86)\Windows Kits\10\Include\10.0.18362.0\ucrt\corecrt_memory.h
; File C:\Program Files (x86)\Microsoft Visual Studio\2019\Community\VC\Tools\MSVC\14.28.29333\include\xutility
; File C:\Program Files (x86)\Windows Kits\10\Include\10.0.18362.0\ucrt\corecrt_memory.h
; File C:\Program Files (x86)\Microsoft Visual Studio\2019\Community\VC\Tools\MSVC\14.28.29333\include\xutility
; File C:\Program Files (x86)\Microsoft Visual Studio\2019\Community\VC\Tools\MSVC\14.28.29333\include\vector
; File D:\Metin2 Server Files\mainline\SRC_2014\Metin2Client\GameLib\MapOutdoor.h
; File C:\Program Files (x86)\Microsoft Visual Studio\2019\Community\VC\Tools\MSVC\14.28.29333\include\vector
; File D:\Metin2 Server Files\mainline\SRC_2014\Metin2Client\GameLib\MapOutdoor.h
; File C:\Program Files (x86)\Microsoft Visual Studio\2019\Community\VC\Tools\MSVC\14.28.29333\include\vector
; File D:\Metin2 Server Files\mainline\SRC_2014\Metin2Client\GameLib\MapOutdoor.h
; File C:\Program Files (x86)\Microsoft Visual Studio\2019\Community\VC\Tools\MSVC\14.28.29333\include\vector
; File D:\Metin2 Server Files\mainline\SRC_2014\Metin2Client\GameLib\MapOutdoor.h
; File C:\Program Files (x86)\Microsoft Visual Studio\2019\Community\VC\Tools\MSVC\14.28.29333\include\vector
; File D:\Metin2 Server Files\mainline\SRC_2014\Metin2Client\GameLib\MapOutdoor.h
; File C:\Program Files (x86)\Microsoft Visual Studio\2019\Community\VC\Tools\MSVC\14.28.29333\include\vector
; File D:\Metin2 Server Files\mainline\SRC_2014\Metin2Client\GameLib\MapOutdoor.h
; File C:\Program Files (x86)\Microsoft Visual Studio\2019\Community\VC\Tools\MSVC\14.28.29333\include\algorithm
;	COMDAT ??$_Buffered_inplace_merge_unchecked@PAUTPatchDrawStruct@CMapOutdoor@@UFSortPatchDrawStructWithTerrainNum@2@@std@@YAXPAUTPatchDrawStruct@CMapOutdoor@@00HHQAU12@HUFSortPatchDrawStructWithTerrainNum@2@@Z
_TEXT	SEGMENT
tv1922 = -28						; size = 4
tv1901 = -24						; size = 4
tv1915 = -20						; size = 4
__Last$2$ = -20						; size = 4
_lhsTerrainNumOrder$1$ = -16				; size = 4
__Val$1$ = -16						; size = 4
tv1898 = -12						; size = 4
_lhsTerrainNumOrder$1$ = -12				; size = 4
_rhsTerrainNumOrder$1$ = -8				; size = 4
tv1940 = -8						; size = 4
tv1926 = -8						; size = 4
_rhsTerrainNumOrder$1$ = -8				; size = 4
tv1931 = -1						; size = 1
tv1914 = -1						; size = 1
__First$ = 8						; size = 4
__Mid$ = 12						; size = 4
__Last$ = 16						; size = 4
tv1900 = 19						; size = 1
tv1896 = 19						; size = 1
__Count1$ = 20						; size = 4
__Count2$ = 24						; size = 4
__Temp_ptr$ = 28					; size = 4
__Capacity$ = 32					; size = 4
__Pred$ = 36						; size = 1
??$_Buffered_inplace_merge_unchecked@PAUTPatchDrawStruct@CMapOutdoor@@UFSortPatchDrawStructWithTerrainNum@2@@std@@YAXPAUTPatchDrawStruct@CMapOutdoor@@00HHQAU12@HUFSortPatchDrawStructWithTerrainNum@2@@Z PROC ; std::_Buffered_inplace_merge_unchecked<CMapOutdoor::TPatchDrawStruct *,CMapOutdoor::FSortPatchDrawStructWithTerrainNum>, COMDAT

; 7293 :     _Iter_diff_t<_BidIt> _Count2, _Iter_value_t<_BidIt>* const _Temp_ptr, const ptrdiff_t _Capacity, _Pr _Pred) {

  00000	55		 push	 ebp
  00001	8b ec		 mov	 ebp, esp

; 7294 :     // merge sorted [_First, _Mid) with sorted [_Mid, _Last)
; 7295 :     // usual invariants *do not* apply; only sortedness applies
; 7296 :     // establish the usual invariants (explained in inplace_merge)
; 7297 :     if (_Mid == _Last) {

  00003	8b 45 0c	 mov	 eax, DWORD PTR __Mid$[ebp]
  00006	83 ec 1c	 sub	 esp, 28			; 0000001cH
  00009	3b 45 10	 cmp	 eax, DWORD PTR __Last$[ebp]
  0000c	0f 84 11 03 00
	00		 je	 $LN1@Buffered_i

; 7298 :         return;
; 7299 :     }
; 7300 : 
; 7301 :     for (;;) {
; 7302 :         if (_First == _Mid) {

  00012	39 45 08	 cmp	 DWORD PTR __First$[ebp], eax
  00015	0f 84 08 03 00
	00		 je	 $LN1@Buffered_i
  0001b	53		 push	 ebx
  0001c	8b 1d 00 00 00
	00		 mov	 ebx, DWORD PTR ?m_TerrainNumVector@FSortPatchDrawStructWithTerrainNum@CMapOutdoor@@2V?$vector@EV?$allocator@E@std@@@std@@A
  00022	56		 push	 esi
  00023	8d 70 04	 lea	 esi, DWORD PTR [eax+4]
  00026	57		 push	 edi
  00027	8b 3d 04 00 00
	00		 mov	 edi, DWORD PTR ?m_TerrainNumVector@FSortPatchDrawStructWithTerrainNum@CMapOutdoor@@2V?$vector@EV?$allocator@E@std@@@std@@A+4
  0002d	89 75 f0	 mov	 DWORD PTR __Val$1$[ebp], esi
$LL2@Buffered_i:
; File D:\Metin2 Server Files\mainline\SRC_2014\Metin2Client\GameLib\MapOutdoor.h

; 360  : 				DWORD lhsTerrainNumOrder = 0, rhsTerrainNumOrder = 0;

  00030	33 c0		 xor	 eax, eax
; File C:\Program Files (x86)\Microsoft Visual Studio\2019\Community\VC\Tools\MSVC\14.28.29333\include\xutility

; 5480 :     _Seek_wrapped(_First, _Find_unchecked(_Get_unwrapped(_First), _Get_unwrapped(_Last), _Val));

  00032	89 7d f8	 mov	 DWORD PTR tv1926[ebp], edi
; File D:\Metin2 Server Files\mainline\SRC_2014\Metin2Client\GameLib\MapOutdoor.h

; 360  : 				DWORD lhsTerrainNumOrder = 0, rhsTerrainNumOrder = 0;

  00035	89 45 f4	 mov	 DWORD PTR _lhsTerrainNumOrder$1$[ebp], eax
; File C:\Program Files (x86)\Microsoft Visual Studio\2019\Community\VC\Tools\MSVC\14.28.29333\include\xutility

; 5461 :     _First =

  00038	8b c7		 mov	 eax, edi
  0003a	2b c3		 sub	 eax, ebx
; File C:\Program Files (x86)\Windows Kits\10\Include\10.0.18362.0\ucrt\corecrt_memory.h

; 107  :         return const_cast<void*>(memchr(_Pvc, _C, _N));

  0003c	50		 push	 eax
; File C:\Program Files (x86)\Microsoft Visual Studio\2019\Community\VC\Tools\MSVC\14.28.29333\include\xutility

; 5461 :     _First =

  0003d	0f b6 06	 movzx	 eax, BYTE PTR [esi]
; File C:\Program Files (x86)\Windows Kits\10\Include\10.0.18362.0\ucrt\corecrt_memory.h

; 107  :         return const_cast<void*>(memchr(_Pvc, _C, _N));

  00040	50		 push	 eax
  00041	53		 push	 ebx
  00042	e8 00 00 00 00	 call	 _memchr
; File C:\Program Files (x86)\Microsoft Visual Studio\2019\Community\VC\Tools\MSVC\14.28.29333\include\xutility

; 5463 :     return _First ? _First : _Last;

  00047	85 c0		 test	 eax, eax
  00049	8b cf		 mov	 ecx, edi
  0004b	0f 45 c8	 cmovne	 ecx, eax
; File C:\Program Files (x86)\Microsoft Visual Studio\2019\Community\VC\Tools\MSVC\14.28.29333\include\vector

; 195  :         _Ptr = _Refancy<_Tptr>(const_cast<value_type*>(_It));

  0004e	51		 push	 ecx
  0004f	e8 00 00 00 00	 call	 ??$_Refancy@PAE$0A@@std@@YAPAEPAE@Z ; std::_Refancy<unsigned char *,0>
  00054	8b f0		 mov	 esi, eax
; File C:\Program Files (x86)\Microsoft Visual Studio\2019\Community\VC\Tools\MSVC\14.28.29333\include\xutility

; 5461 :     _First =

  00056	8b 45 08	 mov	 eax, DWORD PTR __First$[ebp]
  00059	83 c0 04	 add	 eax, 4
  0005c	89 45 ec	 mov	 DWORD PTR tv1915[ebp], eax
  0005f	8a 08		 mov	 cl, BYTE PTR [eax]
  00061	8b c7		 mov	 eax, edi
  00063	2b c3		 sub	 eax, ebx
  00065	88 4d ff	 mov	 BYTE PTR tv1914[ebp], cl
; File C:\Program Files (x86)\Windows Kits\10\Include\10.0.18362.0\ucrt\corecrt_memory.h

; 107  :         return const_cast<void*>(memchr(_Pvc, _C, _N));

  00068	50		 push	 eax
; File C:\Program Files (x86)\Microsoft Visual Studio\2019\Community\VC\Tools\MSVC\14.28.29333\include\xutility

; 5461 :     _First =

  00069	0f b6 c1	 movzx	 eax, cl
; File C:\Program Files (x86)\Windows Kits\10\Include\10.0.18362.0\ucrt\corecrt_memory.h

; 107  :         return const_cast<void*>(memchr(_Pvc, _C, _N));

  0006c	50		 push	 eax
  0006d	53		 push	 ebx
  0006e	e8 00 00 00 00	 call	 _memchr
; File C:\Program Files (x86)\Microsoft Visual Studio\2019\Community\VC\Tools\MSVC\14.28.29333\include\xutility

; 5463 :     return _First ? _First : _Last;

  00073	85 c0		 test	 eax, eax
  00075	8b cf		 mov	 ecx, edi
  00077	0f 45 c8	 cmovne	 ecx, eax
; File C:\Program Files (x86)\Microsoft Visual Studio\2019\Community\VC\Tools\MSVC\14.28.29333\include\vector

; 195  :         _Ptr = _Refancy<_Tptr>(const_cast<value_type*>(_It));

  0007a	51		 push	 ecx
  0007b	e8 00 00 00 00	 call	 ??$_Refancy@PAE$0A@@std@@YAPAEPAE@Z ; std::_Refancy<unsigned char *,0>
; File C:\Program Files (x86)\Microsoft Visual Studio\2019\Community\VC\Tools\MSVC\14.28.29333\include\xutility

; 5481 :     return _First;

  00080	8b d7		 mov	 edx, edi
; File C:\Program Files (x86)\Microsoft Visual Studio\2019\Community\VC\Tools\MSVC\14.28.29333\include\vector

; 195  :         _Ptr = _Refancy<_Tptr>(const_cast<value_type*>(_It));

  00082	83 c4 20	 add	 esp, 32			; 00000020H
; File C:\Program Files (x86)\Microsoft Visual Studio\2019\Community\VC\Tools\MSVC\14.28.29333\include\xutility

; 5481 :     return _First;

  00085	8b c8		 mov	 ecx, eax
  00087	3b f2		 cmp	 esi, edx
; File D:\Metin2 Server Files\mainline\SRC_2014\Metin2Client\GameLib\MapOutdoor.h

; 367  : 				if (lhsIterator != m_TerrainNumVector.end())

  00089	74 07		 je	 SHORT $LN15@Buffered_i

; 368  : 				{
; 369  : 					blhsOrderFound = true;

  0008b	8b c6		 mov	 eax, esi
  0008d	2b c3		 sub	 eax, ebx
  0008f	89 45 f4	 mov	 DWORD PTR _lhsTerrainNumOrder$1$[ebp], eax
$LN15@Buffered_i:
; File C:\Program Files (x86)\Microsoft Visual Studio\2019\Community\VC\Tools\MSVC\14.28.29333\include\vector

; 149  :         return _Ptr == _Right._Ptr;

  00092	3b ca		 cmp	 ecx, edx
; File D:\Metin2 Server Files\mainline\SRC_2014\Metin2Client\GameLib\MapOutdoor.h

; 372  : 				if (rhsIterator != m_TerrainNumVector.end())

  00094	74 04		 je	 SHORT $LN336@Buffered_i
; File C:\Program Files (x86)\Microsoft Visual Studio\2019\Community\VC\Tools\MSVC\14.28.29333\include\vector

; 140  :         return _Ptr - _Right._Ptr;

  00096	2b cb		 sub	 ecx, ebx
; File D:\Metin2 Server Files\mainline\SRC_2014\Metin2Client\GameLib\MapOutdoor.h

; 377  : 				if (!brhsOrderFound)

  00098	eb 3e		 jmp	 SHORT $LN346@Buffered_i
$LN336@Buffered_i:
; File C:\Program Files (x86)\Microsoft Visual Studio\2019\Community\VC\Tools\MSVC\14.28.29333\include\vector

; 704  :         if (_Mylast != _My_data._Myend) {

  0009a	3b 15 08 00 00
	00		 cmp	 edx, DWORD PTR ?m_TerrainNumVector@FSortPatchDrawStructWithTerrainNum@CMapOutdoor@@2V?$vector@EV?$allocator@E@std@@@std@@A+8
  000a0	74 14		 je	 SHORT $LN111@Buffered_i

; 687  :         _Alty_traits::construct(_Getal(), _Unfancy(_Mylast), _STD forward<_Valty>(_Val)...);

  000a2	8a 45 ff	 mov	 al, BYTE PTR tv1914[ebp]
  000a5	88 02		 mov	 BYTE PTR [edx], al

; 690  :         ++_Mylast;

  000a7	8b 3d 04 00 00
	00		 mov	 edi, DWORD PTR ?m_TerrainNumVector@FSortPatchDrawStructWithTerrainNum@CMapOutdoor@@2V?$vector@EV?$allocator@E@std@@@std@@A+4
  000ad	47		 inc	 edi
  000ae	89 3d 04 00 00
	00		 mov	 DWORD PTR ?m_TerrainNumVector@FSortPatchDrawStructWithTerrainNum@CMapOutdoor@@2V?$vector@EV?$allocator@E@std@@@std@@A+4, edi

; 705  :             return _Emplace_back_with_unused_capacity(_STD forward<_Valty>(_Val)...);

  000b4	eb 17		 jmp	 SHORT $LN110@Buffered_i
$LN111@Buffered_i:

; 708  :         _Ty& _Result = *_Emplace_reallocate(_Mylast, _STD forward<_Valty>(_Val)...);

  000b6	ff 75 ec	 push	 DWORD PTR tv1915[ebp]
  000b9	b9 00 00 00 00	 mov	 ecx, OFFSET ?m_TerrainNumVector@FSortPatchDrawStructWithTerrainNum@CMapOutdoor@@2V?$vector@EV?$allocator@E@std@@@std@@A ; CMapOutdoor::FSortPatchDrawStructWithTerrainNum::m_TerrainNumVector
  000be	52		 push	 edx
  000bf	e8 00 00 00 00	 call	 ??$_Emplace_reallocate@ABE@?$vector@EV?$allocator@E@std@@@std@@QAEPAEQAEABE@Z ; std::vector<unsigned char,std::allocator<unsigned char> >::_Emplace_reallocate<unsigned char const &>
  000c4	8b 3d 04 00 00
	00		 mov	 edi, DWORD PTR ?m_TerrainNumVector@FSortPatchDrawStructWithTerrainNum@CMapOutdoor@@2V?$vector@EV?$allocator@E@std@@@std@@A+4
  000ca	8b 55 f8	 mov	 edx, DWORD PTR tv1926[ebp]
$LN110@Buffered_i:
; File D:\Metin2 Server Files\mainline\SRC_2014\Metin2Client\GameLib\MapOutdoor.h

; 380  : 					rhsTerrainNumOrder = m_TerrainNumVector.size() -1;

  000cd	8b 1d 00 00 00
	00		 mov	 ebx, DWORD PTR ?m_TerrainNumVector@FSortPatchDrawStructWithTerrainNum@CMapOutdoor@@2V?$vector@EV?$allocator@E@std@@@std@@A
  000d3	8b cf		 mov	 ecx, edi
  000d5	2b cb		 sub	 ecx, ebx
  000d7	49		 dec	 ecx
$LN346@Buffered_i:

; 381  : 				}
; 382  : 				if (!blhsOrderFound)

  000d8	3b f2		 cmp	 esi, edx
  000da	89 4d f8	 mov	 DWORD PTR _rhsTerrainNumOrder$1$[ebp], ecx
  000dd	8b 75 f0	 mov	 esi, DWORD PTR __Val$1$[ebp]
  000e0	75 6c		 jne	 SHORT $LN341@Buffered_i
; File C:\Program Files (x86)\Microsoft Visual Studio\2019\Community\VC\Tools\MSVC\14.28.29333\include\xutility

; 5461 :     _First =

  000e2	8b c7		 mov	 eax, edi
  000e4	2b c3		 sub	 eax, ebx
; File C:\Program Files (x86)\Windows Kits\10\Include\10.0.18362.0\ucrt\corecrt_memory.h

; 107  :         return const_cast<void*>(memchr(_Pvc, _C, _N));

  000e6	50		 push	 eax
; File C:\Program Files (x86)\Microsoft Visual Studio\2019\Community\VC\Tools\MSVC\14.28.29333\include\xutility

; 5461 :     _First =

  000e7	0f b6 06	 movzx	 eax, BYTE PTR [esi]
; File C:\Program Files (x86)\Windows Kits\10\Include\10.0.18362.0\ucrt\corecrt_memory.h

; 107  :         return const_cast<void*>(memchr(_Pvc, _C, _N));

  000ea	50		 push	 eax
  000eb	53		 push	 ebx
  000ec	e8 00 00 00 00	 call	 _memchr
; File C:\Program Files (x86)\Microsoft Visual Studio\2019\Community\VC\Tools\MSVC\14.28.29333\include\xutility

; 5463 :     return _First ? _First : _Last;

  000f1	85 c0		 test	 eax, eax
  000f3	8b cf		 mov	 ecx, edi
  000f5	0f 45 c8	 cmovne	 ecx, eax
; File C:\Program Files (x86)\Microsoft Visual Studio\2019\Community\VC\Tools\MSVC\14.28.29333\include\vector

; 195  :         _Ptr = _Refancy<_Tptr>(const_cast<value_type*>(_It));

  000f8	51		 push	 ecx
  000f9	e8 00 00 00 00	 call	 ??$_Refancy@PAE$0A@@std@@YAPAEPAE@Z ; std::_Refancy<unsigned char *,0>
  000fe	83 c4 10	 add	 esp, 16			; 00000010H
; File D:\Metin2 Server Files\mainline\SRC_2014\Metin2Client\GameLib\MapOutdoor.h

; 384  : 					lhsIterator = std::find(m_TerrainNumVector.begin(), m_TerrainNumVector.end(), lhs.byTerrainNum);

  00101	3b c7		 cmp	 eax, edi

; 385  : 					if (lhsIterator != m_TerrainNumVector.end())

  00103	74 04		 je	 SHORT $LN337@Buffered_i
; File C:\Program Files (x86)\Microsoft Visual Studio\2019\Community\VC\Tools\MSVC\14.28.29333\include\vector

; 140  :         return _Ptr - _Right._Ptr;

  00105	2b c3		 sub	 eax, ebx
; File D:\Metin2 Server Files\mainline\SRC_2014\Metin2Client\GameLib\MapOutdoor.h

; 390  : 					if (!blhsOrderFound)

  00107	eb 48		 jmp	 SHORT $LN20@Buffered_i
$LN337@Buffered_i:
; File C:\Program Files (x86)\Microsoft Visual Studio\2019\Community\VC\Tools\MSVC\14.28.29333\include\vector

; 704  :         if (_Mylast != _My_data._Myend) {

  00109	3b 3d 08 00 00
	00		 cmp	 edi, DWORD PTR ?m_TerrainNumVector@FSortPatchDrawStructWithTerrainNum@CMapOutdoor@@2V?$vector@EV?$allocator@E@std@@@std@@A+8
  0010f	74 1e		 je	 SHORT $LN163@Buffered_i

; 687  :         _Alty_traits::construct(_Getal(), _Unfancy(_Mylast), _STD forward<_Valty>(_Val)...);

  00111	8a 06		 mov	 al, BYTE PTR [esi]
  00113	88 07		 mov	 BYTE PTR [edi], al

; 690  :         ++_Mylast;

  00115	8b 3d 04 00 00
	00		 mov	 edi, DWORD PTR ?m_TerrainNumVector@FSortPatchDrawStructWithTerrainNum@CMapOutdoor@@2V?$vector@EV?$allocator@E@std@@@std@@A+4
; File D:\Metin2 Server Files\mainline\SRC_2014\Metin2Client\GameLib\MapOutdoor.h

; 393  : 						lhsTerrainNumOrder = m_TerrainNumVector.size() -1;

  0011b	8b 1d 00 00 00
	00		 mov	 ebx, DWORD PTR ?m_TerrainNumVector@FSortPatchDrawStructWithTerrainNum@CMapOutdoor@@2V?$vector@EV?$allocator@E@std@@@std@@A
; File C:\Program Files (x86)\Microsoft Visual Studio\2019\Community\VC\Tools\MSVC\14.28.29333\include\vector

; 690  :         ++_Mylast;

  00121	47		 inc	 edi
; File D:\Metin2 Server Files\mainline\SRC_2014\Metin2Client\GameLib\MapOutdoor.h

; 393  : 						lhsTerrainNumOrder = m_TerrainNumVector.size() -1;

  00122	8b c7		 mov	 eax, edi
; File C:\Program Files (x86)\Microsoft Visual Studio\2019\Community\VC\Tools\MSVC\14.28.29333\include\vector

; 690  :         ++_Mylast;

  00124	89 3d 04 00 00
	00		 mov	 DWORD PTR ?m_TerrainNumVector@FSortPatchDrawStructWithTerrainNum@CMapOutdoor@@2V?$vector@EV?$allocator@E@std@@@std@@A+4, edi
; File D:\Metin2 Server Files\mainline\SRC_2014\Metin2Client\GameLib\MapOutdoor.h

; 393  : 						lhsTerrainNumOrder = m_TerrainNumVector.size() -1;

  0012a	2b c3		 sub	 eax, ebx
  0012c	48		 dec	 eax
  0012d	eb 22		 jmp	 SHORT $LN20@Buffered_i
$LN163@Buffered_i:
; File C:\Program Files (x86)\Microsoft Visual Studio\2019\Community\VC\Tools\MSVC\14.28.29333\include\vector

; 708  :         _Ty& _Result = *_Emplace_reallocate(_Mylast, _STD forward<_Valty>(_Val)...);

  0012f	56		 push	 esi
  00130	57		 push	 edi
  00131	b9 00 00 00 00	 mov	 ecx, OFFSET ?m_TerrainNumVector@FSortPatchDrawStructWithTerrainNum@CMapOutdoor@@2V?$vector@EV?$allocator@E@std@@@std@@A ; CMapOutdoor::FSortPatchDrawStructWithTerrainNum::m_TerrainNumVector
  00136	e8 00 00 00 00	 call	 ??$_Emplace_reallocate@ABE@?$vector@EV?$allocator@E@std@@@std@@QAEPAEQAEABE@Z ; std::vector<unsigned char,std::allocator<unsigned char> >::_Emplace_reallocate<unsigned char const &>
  0013b	8b 3d 04 00 00
	00		 mov	 edi, DWORD PTR ?m_TerrainNumVector@FSortPatchDrawStructWithTerrainNum@CMapOutdoor@@2V?$vector@EV?$allocator@E@std@@@std@@A+4
; File D:\Metin2 Server Files\mainline\SRC_2014\Metin2Client\GameLib\MapOutdoor.h

; 393  : 						lhsTerrainNumOrder = m_TerrainNumVector.size() -1;

  00141	8b c7		 mov	 eax, edi
  00143	8b 1d 00 00 00
	00		 mov	 ebx, DWORD PTR ?m_TerrainNumVector@FSortPatchDrawStructWithTerrainNum@CMapOutdoor@@2V?$vector@EV?$allocator@E@std@@@std@@A
  00149	2b c3		 sub	 eax, ebx
  0014b	48		 dec	 eax
  0014c	eb 03		 jmp	 SHORT $LN20@Buffered_i
$LN341@Buffered_i:

; 381  : 				}
; 382  : 				if (!blhsOrderFound)

  0014e	8b 45 f4	 mov	 eax, DWORD PTR _lhsTerrainNumOrder$1$[ebp]
$LN20@Buffered_i:

; 394  : 					}
; 395  : 				}
; 396  : 
; 397  : 				return lhsTerrainNumOrder < rhsTerrainNumOrder;

  00151	3b 45 f8	 cmp	 eax, DWORD PTR _rhsTerrainNumOrder$1$[ebp]
; File C:\Program Files (x86)\Microsoft Visual Studio\2019\Community\VC\Tools\MSVC\14.28.29333\include\algorithm

; 7306 :         if (_Pred(*_Mid, *_First)) {

  00154	72 1c		 jb	 SHORT $LN340@Buffered_i

; 7307 :             break;
; 7308 :         }
; 7309 : 
; 7310 :         ++_First;

  00156	8b 45 08	 mov	 eax, DWORD PTR __First$[ebp]

; 7311 :         --_Count1;

  00159	ff 4d 14	 dec	 DWORD PTR __Count1$[ebp]
  0015c	83 c0 10	 add	 eax, 16			; 00000010H
  0015f	89 45 08	 mov	 DWORD PTR __First$[ebp], eax
  00162	3b 45 0c	 cmp	 eax, DWORD PTR __Mid$[ebp]
  00165	0f 85 c5 fe ff
	ff		 jne	 $LL2@Buffered_i
  0016b	5f		 pop	 edi
  0016c	5e		 pop	 esi
  0016d	5b		 pop	 ebx

; 7333 : }

  0016e	8b e5		 mov	 esp, ebp
  00170	5d		 pop	 ebp
  00171	c3		 ret	 0
$LN340@Buffered_i:
  00172	8b 75 10	 mov	 esi, DWORD PTR __Last$[ebp]
  00175	83 c6 04	 add	 esi, 4
  00178	0f 1f 84 00 00
	00 00 00	 npad	 8
$LL7@Buffered_i:

; 7312 :     }
; 7313 : 
; 7314 :     const auto _Highest = _Prev_iter(_Mid);
; 7315 :     do {
; 7316 :         --_Last;

  00180	8b 45 18	 mov	 eax, DWORD PTR __Count2$[ebp]
  00183	8d 56 fc	 lea	 edx, DWORD PTR [esi-4]

; 7317 :         --_Count2;
; 7318 :         if (_Mid == _Last) {

  00186	8b 4d 0c	 mov	 ecx, DWORD PTR __Mid$[ebp]
  00189	83 ee 10	 sub	 esi, 16			; 00000010H
  0018c	89 45 e4	 mov	 DWORD PTR tv1922[ebp], eax
  0018f	48		 dec	 eax
  00190	89 45 18	 mov	 DWORD PTR __Count2$[ebp], eax
  00193	89 55 ec	 mov	 DWORD PTR __Last$2$[ebp], edx
  00196	8d 46 fc	 lea	 eax, DWORD PTR [esi-4]
  00199	89 75 f4	 mov	 DWORD PTR tv1898[ebp], esi
  0019c	3b c8		 cmp	 ecx, eax
  0019e	0f 84 6f 01 00
	00		 je	 $LN329@Buffered_i
; File D:\Metin2 Server Files\mainline\SRC_2014\Metin2Client\GameLib\MapOutdoor.h

; 360  : 				DWORD lhsTerrainNumOrder = 0, rhsTerrainNumOrder = 0;

  001a4	33 c0		 xor	 eax, eax
; File C:\Program Files (x86)\Microsoft Visual Studio\2019\Community\VC\Tools\MSVC\14.28.29333\include\xutility

; 5480 :     _Seek_wrapped(_First, _Find_unchecked(_Get_unwrapped(_First), _Get_unwrapped(_Last), _Val));

  001a6	89 7d f8	 mov	 DWORD PTR tv1940[ebp], edi
; File D:\Metin2 Server Files\mainline\SRC_2014\Metin2Client\GameLib\MapOutdoor.h

; 360  : 				DWORD lhsTerrainNumOrder = 0, rhsTerrainNumOrder = 0;

  001a9	89 45 f0	 mov	 DWORD PTR _lhsTerrainNumOrder$1$[ebp], eax
; File C:\Program Files (x86)\Microsoft Visual Studio\2019\Community\VC\Tools\MSVC\14.28.29333\include\xutility

; 5461 :     _First =

  001ac	8b c7		 mov	 eax, edi
  001ae	2b c3		 sub	 eax, ebx
; File C:\Program Files (x86)\Windows Kits\10\Include\10.0.18362.0\ucrt\corecrt_memory.h

; 107  :         return const_cast<void*>(memchr(_Pvc, _C, _N));

  001b0	50		 push	 eax
; File C:\Program Files (x86)\Microsoft Visual Studio\2019\Community\VC\Tools\MSVC\14.28.29333\include\xutility

; 5461 :     _First =

  001b1	0f b6 06	 movzx	 eax, BYTE PTR [esi]
; File C:\Program Files (x86)\Windows Kits\10\Include\10.0.18362.0\ucrt\corecrt_memory.h

; 107  :         return const_cast<void*>(memchr(_Pvc, _C, _N));

  001b4	50		 push	 eax
  001b5	53		 push	 ebx
  001b6	e8 00 00 00 00	 call	 _memchr
; File C:\Program Files (x86)\Microsoft Visual Studio\2019\Community\VC\Tools\MSVC\14.28.29333\include\xutility

; 5463 :     return _First ? _First : _Last;

  001bb	85 c0		 test	 eax, eax
  001bd	8b cf		 mov	 ecx, edi
  001bf	0f 45 c8	 cmovne	 ecx, eax
; File C:\Program Files (x86)\Microsoft Visual Studio\2019\Community\VC\Tools\MSVC\14.28.29333\include\vector

; 195  :         _Ptr = _Refancy<_Tptr>(const_cast<value_type*>(_It));

  001c2	51		 push	 ecx
  001c3	e8 00 00 00 00	 call	 ??$_Refancy@PAE$0A@@std@@YAPAEPAE@Z ; std::_Refancy<unsigned char *,0>
  001c8	8b f0		 mov	 esi, eax
; File D:\Metin2 Server Files\mainline\SRC_2014\Metin2Client\GameLib\MapOutdoor.h

; 365  : 				TTerrainNumVector::iterator rhsIterator = std::find(m_TerrainNumVector.begin(), m_TerrainNumVector.end(), rhs.byTerrainNum);

  001ca	8b 45 0c	 mov	 eax, DWORD PTR __Mid$[ebp]
  001cd	83 c0 f4	 add	 eax, -12		; fffffff4H
  001d0	89 45 e8	 mov	 DWORD PTR tv1901[ebp], eax
; File C:\Program Files (x86)\Microsoft Visual Studio\2019\Community\VC\Tools\MSVC\14.28.29333\include\xutility

; 5461 :     _First =

  001d3	8a 08		 mov	 cl, BYTE PTR [eax]
  001d5	8b c7		 mov	 eax, edi
  001d7	2b c3		 sub	 eax, ebx
  001d9	88 4d 13	 mov	 BYTE PTR tv1900[ebp], cl
; File C:\Program Files (x86)\Windows Kits\10\Include\10.0.18362.0\ucrt\corecrt_memory.h

; 107  :         return const_cast<void*>(memchr(_Pvc, _C, _N));

  001dc	50		 push	 eax
; File C:\Program Files (x86)\Microsoft Visual Studio\2019\Community\VC\Tools\MSVC\14.28.29333\include\xutility

; 5461 :     _First =

  001dd	0f b6 c1	 movzx	 eax, cl
; File C:\Program Files (x86)\Windows Kits\10\Include\10.0.18362.0\ucrt\corecrt_memory.h

; 107  :         return const_cast<void*>(memchr(_Pvc, _C, _N));

  001e0	50		 push	 eax
  001e1	53		 push	 ebx
  001e2	e8 00 00 00 00	 call	 _memchr
; File C:\Program Files (x86)\Microsoft Visual Studio\2019\Community\VC\Tools\MSVC\14.28.29333\include\xutility

; 5463 :     return _First ? _First : _Last;

  001e7	85 c0		 test	 eax, eax
  001e9	8b cf		 mov	 ecx, edi
  001eb	0f 45 c8	 cmovne	 ecx, eax
; File C:\Program Files (x86)\Microsoft Visual Studio\2019\Community\VC\Tools\MSVC\14.28.29333\include\vector

; 195  :         _Ptr = _Refancy<_Tptr>(const_cast<value_type*>(_It));

  001ee	51		 push	 ecx
  001ef	e8 00 00 00 00	 call	 ??$_Refancy@PAE$0A@@std@@YAPAEPAE@Z ; std::_Refancy<unsigned char *,0>
; File C:\Program Files (x86)\Microsoft Visual Studio\2019\Community\VC\Tools\MSVC\14.28.29333\include\xutility

; 5481 :     return _First;

  001f4	8b d7		 mov	 edx, edi
; File C:\Program Files (x86)\Microsoft Visual Studio\2019\Community\VC\Tools\MSVC\14.28.29333\include\vector

; 195  :         _Ptr = _Refancy<_Tptr>(const_cast<value_type*>(_It));

  001f6	83 c4 20	 add	 esp, 32			; 00000020H
; File C:\Program Files (x86)\Microsoft Visual Studio\2019\Community\VC\Tools\MSVC\14.28.29333\include\xutility

; 5481 :     return _First;

  001f9	8b c8		 mov	 ecx, eax
  001fb	3b f2		 cmp	 esi, edx
; File D:\Metin2 Server Files\mainline\SRC_2014\Metin2Client\GameLib\MapOutdoor.h

; 367  : 				if (lhsIterator != m_TerrainNumVector.end())

  001fd	74 07		 je	 SHORT $LN170@Buffered_i

; 368  : 				{
; 369  : 					blhsOrderFound = true;

  001ff	8b c6		 mov	 eax, esi
  00201	2b c3		 sub	 eax, ebx
  00203	89 45 f0	 mov	 DWORD PTR _lhsTerrainNumOrder$1$[ebp], eax
$LN170@Buffered_i:
; File C:\Program Files (x86)\Microsoft Visual Studio\2019\Community\VC\Tools\MSVC\14.28.29333\include\vector

; 149  :         return _Ptr == _Right._Ptr;

  00206	3b ca		 cmp	 ecx, edx
; File D:\Metin2 Server Files\mainline\SRC_2014\Metin2Client\GameLib\MapOutdoor.h

; 372  : 				if (rhsIterator != m_TerrainNumVector.end())

  00208	74 04		 je	 SHORT $LN338@Buffered_i
; File C:\Program Files (x86)\Microsoft Visual Studio\2019\Community\VC\Tools\MSVC\14.28.29333\include\vector

; 140  :         return _Ptr - _Right._Ptr;

  0020a	2b cb		 sub	 ecx, ebx
; File D:\Metin2 Server Files\mainline\SRC_2014\Metin2Client\GameLib\MapOutdoor.h

; 377  : 				if (!brhsOrderFound)

  0020c	eb 3e		 jmp	 SHORT $LN347@Buffered_i
$LN338@Buffered_i:
; File C:\Program Files (x86)\Microsoft Visual Studio\2019\Community\VC\Tools\MSVC\14.28.29333\include\vector

; 704  :         if (_Mylast != _My_data._Myend) {

  0020e	3b 15 08 00 00
	00		 cmp	 edx, DWORD PTR ?m_TerrainNumVector@FSortPatchDrawStructWithTerrainNum@CMapOutdoor@@2V?$vector@EV?$allocator@E@std@@@std@@A+8
  00214	74 14		 je	 SHORT $LN266@Buffered_i

; 687  :         _Alty_traits::construct(_Getal(), _Unfancy(_Mylast), _STD forward<_Valty>(_Val)...);

  00216	8a 45 13	 mov	 al, BYTE PTR tv1900[ebp]
  00219	88 02		 mov	 BYTE PTR [edx], al

; 690  :         ++_Mylast;

  0021b	8b 3d 04 00 00
	00		 mov	 edi, DWORD PTR ?m_TerrainNumVector@FSortPatchDrawStructWithTerrainNum@CMapOutdoor@@2V?$vector@EV?$allocator@E@std@@@std@@A+4
  00221	47		 inc	 edi
  00222	89 3d 04 00 00
	00		 mov	 DWORD PTR ?m_TerrainNumVector@FSortPatchDrawStructWithTerrainNum@CMapOutdoor@@2V?$vector@EV?$allocator@E@std@@@std@@A+4, edi

; 705  :             return _Emplace_back_with_unused_capacity(_STD forward<_Valty>(_Val)...);

  00228	eb 17		 jmp	 SHORT $LN265@Buffered_i
$LN266@Buffered_i:

; 708  :         _Ty& _Result = *_Emplace_reallocate(_Mylast, _STD forward<_Valty>(_Val)...);

  0022a	ff 75 e8	 push	 DWORD PTR tv1901[ebp]
  0022d	b9 00 00 00 00	 mov	 ecx, OFFSET ?m_TerrainNumVector@FSortPatchDrawStructWithTerrainNum@CMapOutdoor@@2V?$vector@EV?$allocator@E@std@@@std@@A ; CMapOutdoor::FSortPatchDrawStructWithTerrainNum::m_TerrainNumVector
  00232	52		 push	 edx
  00233	e8 00 00 00 00	 call	 ??$_Emplace_reallocate@ABE@?$vector@EV?$allocator@E@std@@@std@@QAEPAEQAEABE@Z ; std::vector<unsigned char,std::allocator<unsigned char> >::_Emplace_reallocate<unsigned char const &>
  00238	8b 3d 04 00 00
	00		 mov	 edi, DWORD PTR ?m_TerrainNumVector@FSortPatchDrawStructWithTerrainNum@CMapOutdoor@@2V?$vector@EV?$allocator@E@std@@@std@@A+4
  0023e	8b 55 f8	 mov	 edx, DWORD PTR tv1940[ebp]
$LN265@Buffered_i:
; File D:\Metin2 Server Files\mainline\SRC_2014\Metin2Client\GameLib\MapOutdoor.h

; 380  : 					rhsTerrainNumOrder = m_TerrainNumVector.size() -1;

  00241	8b 1d 00 00 00
	00		 mov	 ebx, DWORD PTR ?m_TerrainNumVector@FSortPatchDrawStructWithTerrainNum@CMapOutdoor@@2V?$vector@EV?$allocator@E@std@@@std@@A
  00247	8b cf		 mov	 ecx, edi
  00249	2b cb		 sub	 ecx, ebx
  0024b	49		 dec	 ecx
$LN347@Buffered_i:

; 381  : 				}
; 382  : 				if (!blhsOrderFound)

  0024c	3b f2		 cmp	 esi, edx
  0024e	89 4d f8	 mov	 DWORD PTR _rhsTerrainNumOrder$1$[ebp], ecx
  00251	8b 75 f4	 mov	 esi, DWORD PTR tv1898[ebp]
  00254	75 6c		 jne	 SHORT $LN342@Buffered_i
; File C:\Program Files (x86)\Microsoft Visual Studio\2019\Community\VC\Tools\MSVC\14.28.29333\include\xutility

; 5461 :     _First =

  00256	8b c7		 mov	 eax, edi
  00258	2b c3		 sub	 eax, ebx
; File C:\Program Files (x86)\Windows Kits\10\Include\10.0.18362.0\ucrt\corecrt_memory.h

; 107  :         return const_cast<void*>(memchr(_Pvc, _C, _N));

  0025a	50		 push	 eax
; File C:\Program Files (x86)\Microsoft Visual Studio\2019\Community\VC\Tools\MSVC\14.28.29333\include\xutility

; 5461 :     _First =

  0025b	0f b6 06	 movzx	 eax, BYTE PTR [esi]
; File C:\Program Files (x86)\Windows Kits\10\Include\10.0.18362.0\ucrt\corecrt_memory.h

; 107  :         return const_cast<void*>(memchr(_Pvc, _C, _N));

  0025e	50		 push	 eax
  0025f	53		 push	 ebx
  00260	e8 00 00 00 00	 call	 _memchr
; File C:\Program Files (x86)\Microsoft Visual Studio\2019\Community\VC\Tools\MSVC\14.28.29333\include\xutility

; 5463 :     return _First ? _First : _Last;

  00265	85 c0		 test	 eax, eax
  00267	8b cf		 mov	 ecx, edi
  00269	0f 45 c8	 cmovne	 ecx, eax
; File C:\Program Files (x86)\Microsoft Visual Studio\2019\Community\VC\Tools\MSVC\14.28.29333\include\vector

; 195  :         _Ptr = _Refancy<_Tptr>(const_cast<value_type*>(_It));

  0026c	51		 push	 ecx
  0026d	e8 00 00 00 00	 call	 ??$_Refancy@PAE$0A@@std@@YAPAEPAE@Z ; std::_Refancy<unsigned char *,0>
  00272	83 c4 10	 add	 esp, 16			; 00000010H
; File D:\Metin2 Server Files\mainline\SRC_2014\Metin2Client\GameLib\MapOutdoor.h

; 384  : 					lhsIterator = std::find(m_TerrainNumVector.begin(), m_TerrainNumVector.end(), lhs.byTerrainNum);

  00275	3b c7		 cmp	 eax, edi

; 385  : 					if (lhsIterator != m_TerrainNumVector.end())

  00277	74 04		 je	 SHORT $LN339@Buffered_i
; File C:\Program Files (x86)\Microsoft Visual Studio\2019\Community\VC\Tools\MSVC\14.28.29333\include\vector

; 140  :         return _Ptr - _Right._Ptr;

  00279	2b c3		 sub	 eax, ebx
; File D:\Metin2 Server Files\mainline\SRC_2014\Metin2Client\GameLib\MapOutdoor.h

; 390  : 					if (!blhsOrderFound)

  0027b	eb 48		 jmp	 SHORT $LN175@Buffered_i
$LN339@Buffered_i:
; File C:\Program Files (x86)\Microsoft Visual Studio\2019\Community\VC\Tools\MSVC\14.28.29333\include\vector

; 704  :         if (_Mylast != _My_data._Myend) {

  0027d	3b 3d 08 00 00
	00		 cmp	 edi, DWORD PTR ?m_TerrainNumVector@FSortPatchDrawStructWithTerrainNum@CMapOutdoor@@2V?$vector@EV?$allocator@E@std@@@std@@A+8
  00283	74 1e		 je	 SHORT $LN318@Buffered_i

; 687  :         _Alty_traits::construct(_Getal(), _Unfancy(_Mylast), _STD forward<_Valty>(_Val)...);

  00285	8a 06		 mov	 al, BYTE PTR [esi]
  00287	88 07		 mov	 BYTE PTR [edi], al

; 690  :         ++_Mylast;

  00289	8b 3d 04 00 00
	00		 mov	 edi, DWORD PTR ?m_TerrainNumVector@FSortPatchDrawStructWithTerrainNum@CMapOutdoor@@2V?$vector@EV?$allocator@E@std@@@std@@A+4
; File D:\Metin2 Server Files\mainline\SRC_2014\Metin2Client\GameLib\MapOutdoor.h

; 393  : 						lhsTerrainNumOrder = m_TerrainNumVector.size() -1;

  0028f	8b 1d 00 00 00
	00		 mov	 ebx, DWORD PTR ?m_TerrainNumVector@FSortPatchDrawStructWithTerrainNum@CMapOutdoor@@2V?$vector@EV?$allocator@E@std@@@std@@A
; File C:\Program Files (x86)\Microsoft Visual Studio\2019\Community\VC\Tools\MSVC\14.28.29333\include\vector

; 690  :         ++_Mylast;

  00295	47		 inc	 edi
; File D:\Metin2 Server Files\mainline\SRC_2014\Metin2Client\GameLib\MapOutdoor.h

; 393  : 						lhsTerrainNumOrder = m_TerrainNumVector.size() -1;

  00296	8b c7		 mov	 eax, edi
; File C:\Program Files (x86)\Microsoft Visual Studio\2019\Community\VC\Tools\MSVC\14.28.29333\include\vector

; 690  :         ++_Mylast;

  00298	89 3d 04 00 00
	00		 mov	 DWORD PTR ?m_TerrainNumVector@FSortPatchDrawStructWithTerrainNum@CMapOutdoor@@2V?$vector@EV?$allocator@E@std@@@std@@A+4, edi
; File D:\Metin2 Server Files\mainline\SRC_2014\Metin2Client\GameLib\MapOutdoor.h

; 393  : 						lhsTerrainNumOrder = m_TerrainNumVector.size() -1;

  0029e	2b c3		 sub	 eax, ebx
  002a0	48		 dec	 eax
  002a1	eb 22		 jmp	 SHORT $LN175@Buffered_i
$LN318@Buffered_i:
; File C:\Program Files (x86)\Microsoft Visual Studio\2019\Community\VC\Tools\MSVC\14.28.29333\include\vector

; 708  :         _Ty& _Result = *_Emplace_reallocate(_Mylast, _STD forward<_Valty>(_Val)...);

  002a3	56		 push	 esi
  002a4	57		 push	 edi
  002a5	b9 00 00 00 00	 mov	 ecx, OFFSET ?m_TerrainNumVector@FSortPatchDrawStructWithTerrainNum@CMapOutdoor@@2V?$vector@EV?$allocator@E@std@@@std@@A ; CMapOutdoor::FSortPatchDrawStructWithTerrainNum::m_TerrainNumVector
  002aa	e8 00 00 00 00	 call	 ??$_Emplace_reallocate@ABE@?$vector@EV?$allocator@E@std@@@std@@QAEPAEQAEABE@Z ; std::vector<unsigned char,std::allocator<unsigned char> >::_Emplace_reallocate<unsigned char const &>
  002af	8b 3d 04 00 00
	00		 mov	 edi, DWORD PTR ?m_TerrainNumVector@FSortPatchDrawStructWithTerrainNum@CMapOutdoor@@2V?$vector@EV?$allocator@E@std@@@std@@A+4
; File D:\Metin2 Server Files\mainline\SRC_2014\Metin2Client\GameLib\MapOutdoor.h

; 393  : 						lhsTerrainNumOrder = m_TerrainNumVector.size() -1;

  002b5	8b c7		 mov	 eax, edi
  002b7	8b 1d 00 00 00
	00		 mov	 ebx, DWORD PTR ?m_TerrainNumVector@FSortPatchDrawStructWithTerrainNum@CMapOutdoor@@2V?$vector@EV?$allocator@E@std@@@std@@A
  002bd	2b c3		 sub	 eax, ebx
  002bf	48		 dec	 eax
  002c0	eb 03		 jmp	 SHORT $LN175@Buffered_i
$LN342@Buffered_i:

; 381  : 				}
; 382  : 				if (!blhsOrderFound)

  002c2	8b 45 f0	 mov	 eax, DWORD PTR _lhsTerrainNumOrder$1$[ebp]
$LN175@Buffered_i:

; 394  : 					}
; 395  : 				}
; 396  : 
; 397  : 				return lhsTerrainNumOrder < rhsTerrainNumOrder;

  002c5	3b 45 f8	 cmp	 eax, DWORD PTR _rhsTerrainNumOrder$1$[ebp]
; File C:\Program Files (x86)\Microsoft Visual Studio\2019\Community\VC\Tools\MSVC\14.28.29333\include\algorithm

; 7322 :     } while (!_Pred(*_Last, *_Highest));

  002c8	0f 83 b2 fe ff
	ff		 jae	 $LL7@Buffered_i

; 7323 : 
; 7324 :     ++_Last;
; 7325 :     ++_Count2;
; 7326 : 
; 7327 :     if (_Count1 == 1) {

  002ce	8b 45 14	 mov	 eax, DWORD PTR __Count1$[ebp]
  002d1	83 f8 01	 cmp	 eax, 1
  002d4	75 18		 jne	 SHORT $LN12@Buffered_i

; 7328 :         _Rotate_one_left(_First, _Mid, _Last);

  002d6	ff 75 ec	 push	 DWORD PTR __Last$2$[ebp]
  002d9	ff 75 0c	 push	 DWORD PTR __Mid$[ebp]
  002dc	ff 75 08	 push	 DWORD PTR __First$[ebp]
  002df	e8 00 00 00 00	 call	 ??$_Rotate_one_left@PAUTPatchDrawStruct@CMapOutdoor@@@std@@YAXPAUTPatchDrawStruct@CMapOutdoor@@00@Z ; std::_Rotate_one_left<CMapOutdoor::TPatchDrawStruct *>
  002e4	83 c4 0c	 add	 esp, 12			; 0000000cH
  002e7	5f		 pop	 edi
  002e8	5e		 pop	 esi
  002e9	5b		 pop	 ebx

; 7333 : }

  002ea	8b e5		 mov	 esp, ebp
  002ec	5d		 pop	 ebp
  002ed	c3		 ret	 0
$LN12@Buffered_i:

; 7329 :         return;
; 7330 :     }
; 7331 : 
; 7332 :     _Buffered_inplace_merge_unchecked_impl(_First, _Mid, _Last, _Count1, _Count2, _Temp_ptr, _Capacity, _Pred);

  002ee	ff 75 24	 push	 DWORD PTR __Pred$[ebp]
  002f1	ff 75 20	 push	 DWORD PTR __Capacity$[ebp]
  002f4	ff 75 1c	 push	 DWORD PTR __Temp_ptr$[ebp]
  002f7	ff 75 e4	 push	 DWORD PTR tv1922[ebp]
  002fa	50		 push	 eax
  002fb	ff 75 ec	 push	 DWORD PTR __Last$2$[ebp]
  002fe	ff 75 0c	 push	 DWORD PTR __Mid$[ebp]
  00301	ff 75 08	 push	 DWORD PTR __First$[ebp]
  00304	e8 00 00 00 00	 call	 ??$_Buffered_inplace_merge_unchecked_impl@PAUTPatchDrawStruct@CMapOutdoor@@UFSortPatchDrawStructWithTerrainNum@2@@std@@YAXPAUTPatchDrawStruct@CMapOutdoor@@00HHQAU12@HUFSortPatchDrawStructWithTerrainNum@2@@Z ; std::_Buffered_inplace_merge_unchecked_impl<CMapOutdoor::TPatchDrawStruct *,CMapOutdoor::FSortPatchDrawStructWithTerrainNum>
  00309	83 c4 20	 add	 esp, 32			; 00000020H
  0030c	5f		 pop	 edi
  0030d	5e		 pop	 esi
  0030e	5b		 pop	 ebx

; 7333 : }

  0030f	8b e5		 mov	 esp, ebp
  00311	5d		 pop	 ebp
  00312	c3		 ret	 0
$LN329@Buffered_i:

; 7319 :             _Rotate_one_right(_First, _Mid, ++_Last);

  00313	52		 push	 edx
  00314	51		 push	 ecx
  00315	ff 75 08	 push	 DWORD PTR __First$[ebp]
  00318	e8 00 00 00 00	 call	 ??$_Rotate_one_right@PAUTPatchDrawStruct@CMapOutdoor@@@std@@YAXPAUTPatchDrawStruct@CMapOutdoor@@00@Z ; std::_Rotate_one_right<CMapOutdoor::TPatchDrawStruct *>
  0031d	83 c4 0c	 add	 esp, 12			; 0000000cH
  00320	5f		 pop	 edi
  00321	5e		 pop	 esi
  00322	5b		 pop	 ebx
$LN1@Buffered_i:

; 7333 : }

  00323	8b e5		 mov	 esp, ebp
  00325	5d		 pop	 ebp
  00326	c3		 ret	 0
??$_Buffered_inplace_merge_unchecked@PAUTPatchDrawStruct@CMapOutdoor@@UFSortPatchDrawStructWithTerrainNum@2@@std@@YAXPAUTPatchDrawStruct@CMapOutdoor@@00HHQAU12@HUFSortPatchDrawStructWithTerrainNum@2@@Z ENDP ; std::_Buffered_inplace_merge_unchecked<CMapOutdoor::TPatchDrawStruct *,CMapOutdoor::FSortPatchDrawStructWithTerrainNum>
_TEXT	ENDS
; Function compile flags: /Ogtp
; File C:\Program Files (x86)\Microsoft Visual Studio\2019\Community\VC\Tools\MSVC\14.28.29333\include\algorithm
;	COMDAT ??$_Buffered_merge_sort_unchecked@PAUTPatchDrawStruct@CMapOutdoor@@UFSortPatchDrawStructWithTerrainNum@2@@std@@YAXQAUTPatchDrawStruct@CMapOutdoor@@0H0UFSortPatchDrawStructWithTerrainNum@2@@Z
_TEXT	SEGMENT
__First$ = 8						; size = 4
__Last$ = 12						; size = 4
tv165 = 16						; size = 4
__Count$ = 16						; size = 4
__Temp_ptr$ = 20					; size = 4
__Pred$ = 24						; size = 1
??$_Buffered_merge_sort_unchecked@PAUTPatchDrawStruct@CMapOutdoor@@UFSortPatchDrawStructWithTerrainNum@2@@std@@YAXQAUTPatchDrawStruct@CMapOutdoor@@0H0UFSortPatchDrawStructWithTerrainNum@2@@Z PROC ; std::_Buffered_merge_sort_unchecked<CMapOutdoor::TPatchDrawStruct *,CMapOutdoor::FSortPatchDrawStructWithTerrainNum>, COMDAT

; 7920 :     _Iter_value_t<_BidIt>* const _Temp_ptr, _Pr _Pred) {

  00000	55		 push	 ebp
  00001	8b ec		 mov	 ebp, esp
  00003	53		 push	 ebx

; 7921 :     // sort using temp buffer for merges
; 7922 :     // pre: _Last - _First == _Count
; 7923 :     // pre: _Count <= capacity of buffer at _Temp_ptr; also allows safe narrowing to ptrdiff_t
; 7924 :     _Insertion_sort_isort_max_chunks(_First, _Last, _Count, _Pred);

  00004	8b 5d 08	 mov	 ebx, DWORD PTR __First$[ebp]
  00007	57		 push	 edi
  00008	ff 75 18	 push	 DWORD PTR __Pred$[ebp]
  0000b	8b 7d 10	 mov	 edi, DWORD PTR __Count$[ebp]
  0000e	57		 push	 edi
  0000f	ff 75 0c	 push	 DWORD PTR __Last$[ebp]
  00012	53		 push	 ebx
  00013	e8 00 00 00 00	 call	 ??$_Insertion_sort_isort_max_chunks@PAUTPatchDrawStruct@CMapOutdoor@@UFSortPatchDrawStructWithTerrainNum@2@@std@@YAXPAUTPatchDrawStruct@CMapOutdoor@@QAU12@HUFSortPatchDrawStructWithTerrainNum@2@@Z ; std::_Insertion_sort_isort_max_chunks<CMapOutdoor::TPatchDrawStruct *,CMapOutdoor::FSortPatchDrawStructWithTerrainNum>
  00018	83 c4 10	 add	 esp, 16			; 00000010H

; 7925 :     // merge adjacent pairs of chunks to and from temp buffer
; 7926 :     auto _Chunk = static_cast<_Iter_diff_t<_BidIt>>(_ISORT_MAX);
; 7927 :     if (_Count <= _Chunk) {

  0001b	83 ff 20	 cmp	 edi, 32			; 00000020H
  0001e	7e 66		 jle	 SHORT $LN13@Buffered_m

; 7928 :         return;
; 7929 :     }
; 7930 : 
; 7931 :     // do the first merge, constructing elements in the temporary buffer
; 7932 :     _Uninitialized_chunked_merge_unchecked(_First, _Last, _Temp_ptr, _Chunk, _Count, _Pred);

  00020	56		 push	 esi
  00021	ff 75 18	 push	 DWORD PTR __Pred$[ebp]
  00024	8b 75 14	 mov	 esi, DWORD PTR __Temp_ptr$[ebp]
  00027	57		 push	 edi
  00028	6a 20		 push	 32			; 00000020H
  0002a	56		 push	 esi
  0002b	ff 75 0c	 push	 DWORD PTR __Last$[ebp]
  0002e	53		 push	 ebx
  0002f	e8 00 00 00 00	 call	 ??$_Uninitialized_chunked_merge_unchecked@PAUTPatchDrawStruct@CMapOutdoor@@U12@UFSortPatchDrawStructWithTerrainNum@2@@std@@YAXPAUTPatchDrawStruct@CMapOutdoor@@QAU12@0HHUFSortPatchDrawStructWithTerrainNum@2@@Z ; std::_Uninitialized_chunked_merge_unchecked<CMapOutdoor::TPatchDrawStruct *,CMapOutdoor::TPatchDrawStruct,CMapOutdoor::FSortPatchDrawStructWithTerrainNum>

; 7933 :     _Uninitialized_backout<_Iter_value_t<_BidIt>*> _Backout{_Temp_ptr, _Temp_ptr + _Count};
; 7934 :     for (;;) {
; 7935 :         // unconditionally merge elements back into the source buffer
; 7936 :         _Chunk <<= 1;
; 7937 :         _Chunked_merge_unchecked(_Temp_ptr, _Temp_ptr + _Count, _First, static_cast<ptrdiff_t>(_Chunk),

  00034	ff 75 18	 push	 DWORD PTR __Pred$[ebp]
  00037	8b c7		 mov	 eax, edi
  00039	57		 push	 edi
  0003a	6a 40		 push	 64			; 00000040H
  0003c	c1 e0 04	 shl	 eax, 4
  0003f	03 c6		 add	 eax, esi
  00041	53		 push	 ebx
  00042	50		 push	 eax
  00043	56		 push	 esi
  00044	89 45 10	 mov	 DWORD PTR tv165[ebp], eax
  00047	e8 00 00 00 00	 call	 ??$_Chunked_merge_unchecked@PAUTPatchDrawStruct@CMapOutdoor@@PAU12@UFSortPatchDrawStructWithTerrainNum@2@@std@@YAXPAUTPatchDrawStruct@CMapOutdoor@@QAU12@0HHUFSortPatchDrawStructWithTerrainNum@2@@Z ; std::_Chunked_merge_unchecked<CMapOutdoor::TPatchDrawStruct *,CMapOutdoor::TPatchDrawStruct *,CMapOutdoor::FSortPatchDrawStructWithTerrainNum>

; 7938 :             static_cast<ptrdiff_t>(_Count), _Pred);
; 7939 :         _Chunk <<= 1;

  0004c	be 80 00 00 00	 mov	 esi, 128		; 00000080H
  00051	83 c4 30	 add	 esp, 48			; 00000030H

; 7940 :         if (_Count <= _Chunk) { // if the input would be a single chunk, it's already sorted and we're done

  00054	3b fe		 cmp	 edi, esi
  00056	7e 2d		 jle	 SHORT $LN17@Buffered_m
$LL2@Buffered_m:

; 7941 :             return;
; 7942 :         }
; 7943 : 
; 7944 :         // more merges necessary; merge to temporary buffer
; 7945 :         _Chunked_merge_unchecked(_First, _Last, _Temp_ptr, _Chunk, _Count, _Pred);

  00058	ff 75 18	 push	 DWORD PTR __Pred$[ebp]
  0005b	57		 push	 edi
  0005c	56		 push	 esi
  0005d	ff 75 14	 push	 DWORD PTR __Temp_ptr$[ebp]
  00060	ff 75 0c	 push	 DWORD PTR __Last$[ebp]
  00063	53		 push	 ebx
  00064	e8 00 00 00 00	 call	 ??$_Chunked_merge_unchecked@PAUTPatchDrawStruct@CMapOutdoor@@PAU12@UFSortPatchDrawStructWithTerrainNum@2@@std@@YAXPAUTPatchDrawStruct@CMapOutdoor@@QAU12@0HHUFSortPatchDrawStructWithTerrainNum@2@@Z ; std::_Chunked_merge_unchecked<CMapOutdoor::TPatchDrawStruct *,CMapOutdoor::TPatchDrawStruct *,CMapOutdoor::FSortPatchDrawStructWithTerrainNum>
  00069	ff 75 18	 push	 DWORD PTR __Pred$[ebp]
  0006c	03 f6		 add	 esi, esi
  0006e	57		 push	 edi
  0006f	56		 push	 esi
  00070	53		 push	 ebx
  00071	ff 75 10	 push	 DWORD PTR tv165[ebp]
  00074	ff 75 14	 push	 DWORD PTR __Temp_ptr$[ebp]
  00077	e8 00 00 00 00	 call	 ??$_Chunked_merge_unchecked@PAUTPatchDrawStruct@CMapOutdoor@@PAU12@UFSortPatchDrawStructWithTerrainNum@2@@std@@YAXPAUTPatchDrawStruct@CMapOutdoor@@QAU12@0HHUFSortPatchDrawStructWithTerrainNum@2@@Z ; std::_Chunked_merge_unchecked<CMapOutdoor::TPatchDrawStruct *,CMapOutdoor::TPatchDrawStruct *,CMapOutdoor::FSortPatchDrawStructWithTerrainNum>
  0007c	03 f6		 add	 esi, esi
  0007e	83 c4 30	 add	 esp, 48			; 00000030H
  00081	3b fe		 cmp	 edi, esi
  00083	7f d3		 jg	 SHORT $LL2@Buffered_m
$LN17@Buffered_m:
  00085	5e		 pop	 esi
$LN13@Buffered_m:
  00086	5f		 pop	 edi

; 7946 :     }
; 7947 : }

  00087	5b		 pop	 ebx
  00088	5d		 pop	 ebp
  00089	c3		 ret	 0
??$_Buffered_merge_sort_unchecked@PAUTPatchDrawStruct@CMapOutdoor@@UFSortPatchDrawStructWithTerrainNum@2@@std@@YAXQAUTPatchDrawStruct@CMapOutdoor@@0H0UFSortPatchDrawStructWithTerrainNum@2@@Z ENDP ; std::_Buffered_merge_sort_unchecked<CMapOutdoor::TPatchDrawStruct *,CMapOutdoor::FSortPatchDrawStructWithTerrainNum>
_TEXT	ENDS
; Function compile flags: /Ogtp
; File C:\Program Files (x86)\Microsoft Visual Studio\2019\Community\VC\Tools\MSVC\14.28.29333\include\xmemory
; File C:\Program Files (x86)\Microsoft Visual Studio\2019\Community\VC\Tools\MSVC\14.28.29333\include\utility
; File C:\Program Files (x86)\Microsoft Visual Studio\2019\Community\VC\Tools\MSVC\14.28.29333\include\xmemory
; File C:\Program Files (x86)\Microsoft Visual Studio\2019\Community\VC\Tools\MSVC\14.28.29333\include\utility
; File C:\Program Files (x86)\Microsoft Visual Studio\2019\Community\VC\Tools\MSVC\14.28.29333\include\xmemory
;	COMDAT ??$_Get_temporary_buffer@UTPatchDrawStruct@CMapOutdoor@@@std@@YA?AU?$pair@PAUTPatchDrawStruct@CMapOutdoor@@H@0@H@Z
_TEXT	SEGMENT
___$ReturnUdt$ = 8					; size = 4
__Count$ = 12						; size = 4
??$_Get_temporary_buffer@UTPatchDrawStruct@CMapOutdoor@@@std@@YA?AU?$pair@PAUTPatchDrawStruct@CMapOutdoor@@H@0@H@Z PROC ; std::_Get_temporary_buffer<CMapOutdoor::TPatchDrawStruct>, COMDAT

; 1386 : pair<_Ty*, ptrdiff_t> _Get_temporary_buffer(ptrdiff_t _Count) noexcept {

  00000	55		 push	 ebp
  00001	8b ec		 mov	 ebp, esp
  00003	56		 push	 esi

; 1387 :     if (static_cast<size_t>(_Count) <= static_cast<size_t>(-1) / sizeof(_Ty)) {

  00004	8b 75 0c	 mov	 esi, DWORD PTR __Count$[ebp]
  00007	81 fe ff ff ff
	0f		 cmp	 esi, 268435455		; 0fffffffH
  0000d	77 21		 ja	 SHORT $LN3@Get_tempor

; 1388 :         for (; 0 < _Count; _Count /= 2) {

  0000f	85 f6		 test	 esi, esi
  00011	7e 1d		 jle	 SHORT $LN3@Get_tempor
$LL4@Get_tempor:

; 1389 :             const auto _Size = static_cast<size_t>(_Count) * sizeof(_Ty);

  00013	8b c6		 mov	 eax, esi
  00015	c1 e0 04	 shl	 eax, 4

; 1390 :             void* _Pbuf;
; 1391 : #ifdef __cpp_aligned_new
; 1392 :             if constexpr (alignof(_Ty) > __STDCPP_DEFAULT_NEW_ALIGNMENT__) {
; 1393 :                 _Pbuf = ::operator new (_Size, align_val_t{alignof(_Ty)}, nothrow);
; 1394 :             } else
; 1395 : #endif // __cpp_aligned_new
; 1396 :             {
; 1397 :                 _Pbuf = ::operator new(_Size, nothrow);

  00018	68 00 00 00 00	 push	 OFFSET ?nothrow@std@@3Unothrow_t@1@B ; std::nothrow
  0001d	50		 push	 eax
  0001e	e8 00 00 00 00	 call	 ??2@YAPAXIABUnothrow_t@std@@@Z ; operator new
  00023	8b c8		 mov	 ecx, eax
  00025	83 c4 08	 add	 esp, 8

; 1398 :             }
; 1399 : 
; 1400 :             if (_Pbuf) {

  00028	85 c9		 test	 ecx, ecx
  0002a	75 17		 jne	 SHORT $LN13@Get_tempor

; 1388 :         for (; 0 < _Count; _Count /= 2) {

  0002c	d1 ee		 shr	 esi, 1
  0002e	75 e3		 jne	 SHORT $LL4@Get_tempor
$LN3@Get_tempor:
; File C:\Program Files (x86)\Microsoft Visual Studio\2019\Community\VC\Tools\MSVC\14.28.29333\include\utility

; 190  :         : first(_STD forward<_Other1>(_Val1)), second(_STD forward<_Other2>(_Val2)) {}

  00030	8b 45 08	 mov	 eax, DWORD PTR ___$ReturnUdt$[ebp]
  00033	5e		 pop	 esi
  00034	c7 00 00 00 00
	00		 mov	 DWORD PTR [eax], 0
  0003a	c7 40 04 00 00
	00 00		 mov	 DWORD PTR [eax+4], 0
; File C:\Program Files (x86)\Microsoft Visual Studio\2019\Community\VC\Tools\MSVC\14.28.29333\include\xmemory

; 1407 : }

  00041	5d		 pop	 ebp
  00042	c3		 ret	 0
$LN13@Get_tempor:
; File C:\Program Files (x86)\Microsoft Visual Studio\2019\Community\VC\Tools\MSVC\14.28.29333\include\utility

; 190  :         : first(_STD forward<_Other1>(_Val1)), second(_STD forward<_Other2>(_Val2)) {}

  00043	8b 45 08	 mov	 eax, DWORD PTR ___$ReturnUdt$[ebp]
  00046	89 70 04	 mov	 DWORD PTR [eax+4], esi
  00049	89 08		 mov	 DWORD PTR [eax], ecx
  0004b	5e		 pop	 esi
; File C:\Program Files (x86)\Microsoft Visual Studio\2019\Community\VC\Tools\MSVC\14.28.29333\include\xmemory

; 1407 : }

  0004c	5d		 pop	 ebp
  0004d	c3		 ret	 0
??$_Get_temporary_buffer@UTPatchDrawStruct@CMapOutdoor@@@std@@YA?AU?$pair@PAUTPatchDrawStruct@CMapOutdoor@@H@0@H@Z ENDP ; std::_Get_temporary_buffer<CMapOutdoor::TPatchDrawStruct>
_TEXT	ENDS
; Function compile flags: /Ogtp
; File C:\Program Files (x86)\Microsoft Visual Studio\2019\Community\VC\Tools\MSVC\14.28.29333\include\algorithm
; File D:\Metin2 Server Files\mainline\SRC_2014\Metin2Client\GameLib\MapOutdoorRender.cpp
; File C:\Program Files (x86)\Microsoft Visual Studio\2019\Community\VC\Tools\MSVC\14.28.29333\include\algorithm
; File D:\Metin2 Server Files\mainline\SRC_2014\Metin2Client\GameLib\MapOutdoorRender.cpp
; File D:\Metin2 Server Files\mainline\SRC_2014\M2Data\include\d3dx8math.inl
; File D:\Metin2 Server Files\mainline\SRC_2014\Metin2Client\GameLib\MapOutdoorRender.cpp
; File D:\Metin2 Server Files\mainline\SRC_2014\M2Data\include\d3dx8math.inl
; File D:\Metin2 Server Files\mainline\SRC_2014\Metin2Client\GameLib\MapOutdoorRender.cpp
; File C:\Program Files (x86)\Microsoft Visual Studio\2019\Community\VC\Tools\MSVC\14.28.29333\include\algorithm
; File D:\Metin2 Server Files\mainline\SRC_2014\Metin2Client\GameLib\MapOutdoorRender.cpp
; File C:\Program Files (x86)\Microsoft Visual Studio\2019\Community\VC\Tools\MSVC\14.28.29333\include\algorithm
; File D:\Metin2 Server Files\mainline\SRC_2014\Metin2Client\GameLib\MapOutdoorRender.cpp
; File D:\Metin2 Server Files\mainline\SRC_2014\M2Data\include\d3dx8math.inl
; File D:\Metin2 Server Files\mainline\SRC_2014\Metin2Client\GameLib\MapOutdoorRender.cpp
; File D:\Metin2 Server Files\mainline\SRC_2014\M2Data\include\d3dx8math.inl
; File D:\Metin2 Server Files\mainline\SRC_2014\Metin2Client\GameLib\MapOutdoorRender.cpp
; File C:\Program Files (x86)\Microsoft Visual Studio\2019\Community\VC\Tools\MSVC\14.28.29333\include\algorithm
; File D:\Metin2 Server Files\mainline\SRC_2014\Metin2Client\GameLib\MapOutdoorRender.cpp
; File D:\Metin2 Server Files\mainline\SRC_2014\M2Data\include\d3dx8math.inl
; File D:\Metin2 Server Files\mainline\SRC_2014\Metin2Client\GameLib\MapOutdoorRender.cpp
; File D:\Metin2 Server Files\mainline\SRC_2014\M2Data\include\d3dx8math.inl
; File D:\Metin2 Server Files\mainline\SRC_2014\Metin2Client\GameLib\MapOutdoorRender.cpp
; File C:\Program Files (x86)\Microsoft Visual Studio\2019\Community\VC\Tools\MSVC\14.28.29333\include\algorithm
; File D:\Metin2 Server Files\mainline\SRC_2014\Metin2Client\GameLib\MapOutdoorRender.cpp
; File C:\Program Files (x86)\Microsoft Visual Studio\2019\Community\VC\Tools\MSVC\14.28.29333\include\algorithm
; File D:\Metin2 Server Files\mainline\SRC_2014\Metin2Client\GameLib\MapOutdoorRender.cpp
; File D:\Metin2 Server Files\mainline\SRC_2014\M2Data\include\d3dx8math.inl
; File C:\Program Files (x86)\Microsoft Visual Studio\2019\Community\VC\Tools\MSVC\14.28.29333\include\algorithm
; File D:\Metin2 Server Files\mainline\SRC_2014\M2Data\include\d3dx8math.inl
; File C:\Program Files (x86)\Microsoft Visual Studio\2019\Community\VC\Tools\MSVC\14.28.29333\include\algorithm
; File D:\Metin2 Server Files\mainline\SRC_2014\M2Data\include\d3dx8math.inl
; File D:\Metin2 Server Files\mainline\SRC_2014\Metin2Client\GameLib\MapOutdoorRender.cpp
; File D:\Metin2 Server Files\mainline\SRC_2014\M2Data\include\d3dx8math.inl
; File D:\Metin2 Server Files\mainline\SRC_2014\Metin2Client\GameLib\MapOutdoorRender.cpp
; File C:\Program Files (x86)\Microsoft Visual Studio\2019\Community\VC\Tools\MSVC\14.28.29333\include\algorithm
; File D:\Metin2 Server Files\mainline\SRC_2014\Metin2Client\GameLib\MapOutdoorRender.cpp
; File C:\Program Files (x86)\Microsoft Visual Studio\2019\Community\VC\Tools\MSVC\14.28.29333\include\algorithm
; File D:\Metin2 Server Files\mainline\SRC_2014\Metin2Client\GameLib\MapOutdoorRender.cpp
; File D:\Metin2 Server Files\mainline\SRC_2014\M2Data\include\d3dx8math.inl
; File D:\Metin2 Server Files\mainline\SRC_2014\Metin2Client\GameLib\MapOutdoorRender.cpp
; File D:\Metin2 Server Files\mainline\SRC_2014\M2Data\include\d3dx8math.inl
; File D:\Metin2 Server Files\mainline\SRC_2014\Metin2Client\GameLib\MapOutdoorRender.cpp
; File C:\Program Files (x86)\Microsoft Visual Studio\2019\Community\VC\Tools\MSVC\14.28.29333\include\algorithm
; File D:\Metin2 Server Files\mainline\SRC_2014\Metin2Client\GameLib\MapOutdoorRender.cpp
; File C:\Program Files (x86)\Microsoft Visual Studio\2019\Community\VC\Tools\MSVC\14.28.29333\include\algorithm
; File D:\Metin2 Server Files\mainline\SRC_2014\Metin2Client\GameLib\MapOutdoorRender.cpp
; File D:\Metin2 Server Files\mainline\SRC_2014\M2Data\include\d3dx8math.inl
; File D:\Metin2 Server Files\mainline\SRC_2014\Metin2Client\GameLib\MapOutdoorRender.cpp
; File D:\Metin2 Server Files\mainline\SRC_2014\M2Data\include\d3dx8math.inl
; File D:\Metin2 Server Files\mainline\SRC_2014\Metin2Client\GameLib\MapOutdoorRender.cpp
; File C:\Program Files (x86)\Microsoft Visual Studio\2019\Community\VC\Tools\MSVC\14.28.29333\include\algorithm
; File C:\Program Files (x86)\Microsoft Visual Studio\2019\Community\VC\Tools\MSVC\14.28.29333\include\utility
; File C:\Program Files (x86)\Microsoft Visual Studio\2019\Community\VC\Tools\MSVC\14.28.29333\include\algorithm
; File D:\Metin2 Server Files\mainline\SRC_2014\Metin2Client\GameLib\MapOutdoorRender.cpp
; File C:\Program Files (x86)\Microsoft Visual Studio\2019\Community\VC\Tools\MSVC\14.28.29333\include\algorithm
; File D:\Metin2 Server Files\mainline\SRC_2014\Metin2Client\GameLib\MapOutdoorRender.cpp
; File D:\Metin2 Server Files\mainline\SRC_2014\M2Data\include\d3dx8math.inl
; File D:\Metin2 Server Files\mainline\SRC_2014\Metin2Client\GameLib\MapOutdoorRender.cpp
; File D:\Metin2 Server Files\mainline\SRC_2014\M2Data\include\d3dx8math.inl
; File D:\Metin2 Server Files\mainline\SRC_2014\Metin2Client\GameLib\MapOutdoorRender.cpp
; File C:\Program Files (x86)\Microsoft Visual Studio\2019\Community\VC\Tools\MSVC\14.28.29333\include\algorithm
; File D:\Metin2 Server Files\mainline\SRC_2014\Metin2Client\GameLib\MapOutdoorRender.cpp
; File C:\Program Files (x86)\Microsoft Visual Studio\2019\Community\VC\Tools\MSVC\14.28.29333\include\algorithm
; File D:\Metin2 Server Files\mainline\SRC_2014\Metin2Client\GameLib\MapOutdoorRender.cpp
; File D:\Metin2 Server Files\mainline\SRC_2014\M2Data\include\d3dx8math.inl
; File D:\Metin2 Server Files\mainline\SRC_2014\Metin2Client\GameLib\MapOutdoorRender.cpp
; File D:\Metin2 Server Files\mainline\SRC_2014\M2Data\include\d3dx8math.inl
; File D:\Metin2 Server Files\mainline\SRC_2014\Metin2Client\GameLib\MapOutdoorRender.cpp
; File C:\Program Files (x86)\Microsoft Visual Studio\2019\Community\VC\Tools\MSVC\14.28.29333\include\algorithm
; File C:\Program Files (x86)\Microsoft Visual Studio\2019\Community\VC\Tools\MSVC\14.28.29333\include\utility
; File C:\Program Files (x86)\Microsoft Visual Studio\2019\Community\VC\Tools\MSVC\14.28.29333\include\algorithm
; File C:\Program Files (x86)\Microsoft Visual Studio\2019\Community\VC\Tools\MSVC\14.28.29333\include\utility
; File C:\Program Files (x86)\Microsoft Visual Studio\2019\Community\VC\Tools\MSVC\14.28.29333\include\algorithm
; File C:\Program Files (x86)\Microsoft Visual Studio\2019\Community\VC\Tools\MSVC\14.28.29333\include\utility
; File C:\Program Files (x86)\Microsoft Visual Studio\2019\Community\VC\Tools\MSVC\14.28.29333\include\algorithm
; File C:\Program Files (x86)\Microsoft Visual Studio\2019\Community\VC\Tools\MSVC\14.28.29333\include\utility
; File C:\Program Files (x86)\Microsoft Visual Studio\2019\Community\VC\Tools\MSVC\14.28.29333\include\algorithm
; File C:\Program Files (x86)\Microsoft Visual Studio\2019\Community\VC\Tools\MSVC\14.28.29333\include\utility
; File C:\Program Files (x86)\Microsoft Visual Studio\2019\Community\VC\Tools\MSVC\14.28.29333\include\algorithm
; File C:\Program Files (x86)\Microsoft Visual Studio\2019\Community\VC\Tools\MSVC\14.28.29333\include\utility
; File C:\Program Files (x86)\Microsoft Visual Studio\2019\Community\VC\Tools\MSVC\14.28.29333\include\algorithm
; File C:\Program Files (x86)\Microsoft Visual Studio\2019\Community\VC\Tools\MSVC\14.28.29333\include\utility
; File C:\Program Files (x86)\Microsoft Visual Studio\2019\Community\VC\Tools\MSVC\14.28.29333\include\algorithm
; File C:\Program Files (x86)\Microsoft Visual Studio\2019\Community\VC\Tools\MSVC\14.28.29333\include\utility
; File C:\Program Files (x86)\Microsoft Visual Studio\2019\Community\VC\Tools\MSVC\14.28.29333\include\algorithm
; File C:\Program Files (x86)\Microsoft Visual Studio\2019\Community\VC\Tools\MSVC\14.28.29333\include\utility
; File C:\Program Files (x86)\Microsoft Visual Studio\2019\Community\VC\Tools\MSVC\14.28.29333\include\algorithm
; File C:\Program Files (x86)\Microsoft Visual Studio\2019\Community\VC\Tools\MSVC\14.28.29333\include\utility
; File C:\Program Files (x86)\Microsoft Visual Studio\2019\Community\VC\Tools\MSVC\14.28.29333\include\algorithm
; File C:\Program Files (x86)\Microsoft Visual Studio\2019\Community\VC\Tools\MSVC\14.28.29333\include\utility
; File C:\Program Files (x86)\Microsoft Visual Studio\2019\Community\VC\Tools\MSVC\14.28.29333\include\algorithm
;	COMDAT ??$_Partition_by_median_guess_unchecked@PAPAVCGraphicThingInstance@@UCMapOutdoor_LessThingInstancePtrRenderOrder@@@std@@YA?AU?$pair@PAPAVCGraphicThingInstance@@PAPAV1@@0@PAPAVCGraphicThingInstance@@0UCMapOutdoor_LessThingInstancePtrRenderOrder@@@Z
_TEXT	SEGMENT
tv3220 = -16						; size = 4
tv3148 = -16						; size = 4
__Last$1$ = -16						; size = 4
tv3217 = -12						; size = 4
__Glast$1$ = -12					; size = 4
__Gfirst$1$ = -8					; size = 4
__Pfirst$1$ = -4					; size = 4
___$ReturnUdt$ = 8					; size = 4
__First$ = 12						; size = 4
__Last$ = 16						; size = 4
__Plast$1$ = 20						; size = 4
__Pred$ = 20						; size = 1
??$_Partition_by_median_guess_unchecked@PAPAVCGraphicThingInstance@@UCMapOutdoor_LessThingInstancePtrRenderOrder@@@std@@YA?AU?$pair@PAPAVCGraphicThingInstance@@PAPAV1@@0@PAPAVCGraphicThingInstance@@0UCMapOutdoor_LessThingInstancePtrRenderOrder@@@Z PROC ; std::_Partition_by_median_guess_unchecked<CGraphicThingInstance * *,CMapOutdoor_LessThingInstancePtrRenderOrder>, COMDAT

; 7467 : _CONSTEXPR20 pair<_RanIt, _RanIt> _Partition_by_median_guess_unchecked(_RanIt _First, _RanIt _Last, _Pr _Pred) {

  00000	55		 push	 ebp
  00001	8b ec		 mov	 ebp, esp
  00003	83 ec 10	 sub	 esp, 16			; 00000010H

; 7468 :     // partition [_First, _Last)
; 7469 :     _RanIt _Mid = _First + ((_Last - _First) >> 1); // shift for codegen

  00006	8b 4d 10	 mov	 ecx, DWORD PTR __Last$[ebp]
  00009	8b c1		 mov	 eax, ecx
  0000b	8b 55 0c	 mov	 edx, DWORD PTR __First$[ebp]

; 7470 :     _Guess_median_unchecked(_First, _Mid, _Prev_iter(_Last), _Pred);

  0000e	83 c1 fc	 add	 ecx, -4			; fffffffcH
  00011	2b c2		 sub	 eax, edx
  00013	89 4d f0	 mov	 DWORD PTR __Last$1$[ebp], ecx
  00016	c1 f8 03	 sar	 eax, 3
  00019	53		 push	 ebx
  0001a	56		 push	 esi
  0001b	57		 push	 edi
  0001c	8d 34 82	 lea	 esi, DWORD PTR [edx+eax*4]

; 7453 :     const _Diff _Count = _Last - _First;

  0001f	8b c1		 mov	 eax, ecx
  00021	2b c2		 sub	 eax, edx

; 7468 :     // partition [_First, _Last)
; 7469 :     _RanIt _Mid = _First + ((_Last - _First) >> 1); // shift for codegen

  00023	89 75 fc	 mov	 DWORD PTR __Pfirst$1$[ebp], esi

; 7453 :     const _Diff _Count = _Last - _First;

  00026	c1 f8 02	 sar	 eax, 2

; 7454 :     if (40 < _Count) { // Tukey's ninther

  00029	83 f8 28	 cmp	 eax, 40			; 00000028H
  0002c	7e 63		 jle	 SHORT $LN35@Partition_

; 7455 :         const _Diff _Step     = (_Count + 1) >> 3; // +1 can't overflow because range was made inclusive in caller
; 7456 :         const _Diff _Two_step = _Step << 1; // note: intentionally discards low-order bit
; 7457 :         _Med3_unchecked(_First, _First + _Step, _First + _Two_step, _Pred);

  0002e	8b 5d 14	 mov	 ebx, DWORD PTR __Pred$[ebp]
  00031	40		 inc	 eax
  00032	c1 f8 03	 sar	 eax, 3
  00035	53		 push	 ebx
  00036	8d 0c c5 00 00
	00 00		 lea	 ecx, DWORD PTR [eax*8]
  0003d	8d 3c 85 00 00
	00 00		 lea	 edi, DWORD PTR [eax*4]
  00044	89 4d f4	 mov	 DWORD PTR tv3217[ebp], ecx
  00047	8b 45 0c	 mov	 eax, DWORD PTR __First$[ebp]
  0004a	03 d7		 add	 edx, edi
  0004c	03 c1		 add	 eax, ecx
  0004e	50		 push	 eax
  0004f	52		 push	 edx
  00050	ff 75 0c	 push	 DWORD PTR __First$[ebp]
  00053	e8 00 00 00 00	 call	 ??$_Med3_unchecked@PAPAVCGraphicThingInstance@@UCMapOutdoor_LessThingInstancePtrRenderOrder@@@std@@YAXPAPAVCGraphicThingInstance@@00UCMapOutdoor_LessThingInstancePtrRenderOrder@@@Z ; std::_Med3_unchecked<CGraphicThingInstance * *,CMapOutdoor_LessThingInstancePtrRenderOrder>

; 7458 :         _Med3_unchecked(_Mid - _Step, _Mid, _Mid + _Step, _Pred);

  00058	53		 push	 ebx
  00059	8d 04 37	 lea	 eax, DWORD PTR [edi+esi]
  0005c	50		 push	 eax
  0005d	8b c6		 mov	 eax, esi
  0005f	2b c7		 sub	 eax, edi
  00061	56		 push	 esi
  00062	50		 push	 eax
  00063	e8 00 00 00 00	 call	 ??$_Med3_unchecked@PAPAVCGraphicThingInstance@@UCMapOutdoor_LessThingInstancePtrRenderOrder@@@std@@YAXPAPAVCGraphicThingInstance@@00UCMapOutdoor_LessThingInstancePtrRenderOrder@@@Z ; std::_Med3_unchecked<CGraphicThingInstance * *,CMapOutdoor_LessThingInstancePtrRenderOrder>

; 7459 :         _Med3_unchecked(_Last - _Two_step, _Last - _Step, _Last, _Pred);

  00068	8b 45 f0	 mov	 eax, DWORD PTR __Last$1$[ebp]
  0006b	8b f0		 mov	 esi, eax
  0006d	53		 push	 ebx
  0006e	50		 push	 eax
  0006f	2b 45 f4	 sub	 eax, DWORD PTR tv3217[ebp]
  00072	2b f7		 sub	 esi, edi
  00074	56		 push	 esi
  00075	50		 push	 eax
  00076	e8 00 00 00 00	 call	 ??$_Med3_unchecked@PAPAVCGraphicThingInstance@@UCMapOutdoor_LessThingInstancePtrRenderOrder@@@std@@YAXPAPAVCGraphicThingInstance@@00UCMapOutdoor_LessThingInstancePtrRenderOrder@@@Z ; std::_Med3_unchecked<CGraphicThingInstance * *,CMapOutdoor_LessThingInstancePtrRenderOrder>

; 7460 :         _Med3_unchecked(_First + _Step, _Mid, _Last - _Step, _Pred);

  0007b	8b 45 0c	 mov	 eax, DWORD PTR __First$[ebp]
  0007e	53		 push	 ebx
  0007f	56		 push	 esi
  00080	8b 75 fc	 mov	 esi, DWORD PTR __Pfirst$1$[ebp]
  00083	03 c7		 add	 eax, edi
  00085	56		 push	 esi
  00086	50		 push	 eax
  00087	e8 00 00 00 00	 call	 ??$_Med3_unchecked@PAPAVCGraphicThingInstance@@UCMapOutdoor_LessThingInstancePtrRenderOrder@@@std@@YAXPAPAVCGraphicThingInstance@@00UCMapOutdoor_LessThingInstancePtrRenderOrder@@@Z ; std::_Med3_unchecked<CGraphicThingInstance * *,CMapOutdoor_LessThingInstancePtrRenderOrder>
  0008c	83 c4 40	 add	 esp, 64			; 00000040H

; 7461 :     } else {

  0008f	eb 0e		 jmp	 SHORT $LN36@Partition_
$LN35@Partition_:

; 7462 :         _Med3_unchecked(_First, _Mid, _Last, _Pred);

  00091	ff 75 14	 push	 DWORD PTR __Pred$[ebp]
  00094	51		 push	 ecx
  00095	56		 push	 esi
  00096	52		 push	 edx
  00097	e8 00 00 00 00	 call	 ??$_Med3_unchecked@PAPAVCGraphicThingInstance@@UCMapOutdoor_LessThingInstancePtrRenderOrder@@@std@@YAXPAPAVCGraphicThingInstance@@00UCMapOutdoor_LessThingInstancePtrRenderOrder@@@Z ; std::_Med3_unchecked<CGraphicThingInstance * *,CMapOutdoor_LessThingInstancePtrRenderOrder>
  0009c	83 c4 10	 add	 esp, 16			; 00000010H
$LN36@Partition_:

; 7471 :     _RanIt _Pfirst = _Mid;
; 7472 :     _RanIt _Plast  = _Next_iter(_Pfirst);

  0009f	8d 7e 04	 lea	 edi, DWORD PTR [esi+4]
  000a2	89 7d 14	 mov	 DWORD PTR __Plast$1$[ebp], edi

; 7475 :            && !_Pred(*_Pfirst, *_Prev_iter(_Pfirst))) {

  000a5	39 75 0c	 cmp	 DWORD PTR __First$[ebp], esi
  000a8	0f 83 2d 01 00
	00		 jae	 $LN182@Partition_
  000ae	66 90		 npad	 2
$LL2@Partition_:
  000b0	8b 3e		 mov	 edi, DWORD PTR [esi]
  000b2	8d 46 fc	 lea	 eax, DWORD PTR [esi-4]
; File D:\Metin2 Server Files\mainline\SRC_2014\Metin2Client\GameLib\MapOutdoorRender.cpp

; 357  : 		CCamera * pCurrentCamera = CCameraManager::Instance().GetCurrentCamera();

  000b5	8b 0d 00 00 00
	00		 mov	 ecx, DWORD PTR ?ms_singleton@?$CSingleton@VCCameraManager@@@@0PAVCCameraManager@@A ; CSingleton<CCameraManager>::ms_singleton
; File C:\Program Files (x86)\Microsoft Visual Studio\2019\Community\VC\Tools\MSVC\14.28.29333\include\algorithm

; 7475 :            && !_Pred(*_Pfirst, *_Prev_iter(_Pfirst))) {

  000bb	8b 30		 mov	 esi, DWORD PTR [eax]
  000bd	89 45 f0	 mov	 DWORD PTR tv3220[ebp], eax
; File D:\Metin2 Server Files\mainline\SRC_2014\Metin2Client\GameLib\MapOutdoorRender.cpp

; 357  : 		CCamera * pCurrentCamera = CCameraManager::Instance().GetCurrentCamera();

  000c0	e8 00 00 00 00	 call	 ?GetCurrentCamera@CCameraManager@@QAEPAVCCamera@@XZ ; CCameraManager::GetCurrentCamera

; 358  : 		const D3DXVECTOR3 & c_rv3CameraPos = pCurrentCamera->GetEye();
; 359  : 		const D3DXVECTOR3 & c_v3LeftPos  = pkLeft->GetPosition();

  000c5	8b ce		 mov	 ecx, esi
  000c7	8b d8		 mov	 ebx, eax
  000c9	e8 00 00 00 00	 call	 ?GetPosition@CGraphicObjectInstance@@QBEABUD3DXVECTOR3@@XZ ; CGraphicObjectInstance::GetPosition

; 360  : 		const D3DXVECTOR3 & c_v3RightPos = pkRight->GetPosition();

  000ce	8b cf		 mov	 ecx, edi
  000d0	8b f0		 mov	 esi, eax
  000d2	e8 00 00 00 00	 call	 ?GetPosition@CGraphicObjectInstance@@QBEABUD3DXVECTOR3@@XZ ; CGraphicObjectInstance::GetPosition
; File D:\Metin2 Server Files\mainline\SRC_2014\M2Data\include\d3dx8math.inl

; 263  :     return D3DXVECTOR3(x - v.x, y - v.y, z - v.z);

  000d7	f3 0f 10 6b 30	 movss	 xmm5, DWORD PTR [ebx+48]
  000dc	f3 0f 10 63 34	 movss	 xmm4, DWORD PTR [ebx+52]
  000e1	0f 28 cd	 movaps	 xmm1, xmm5
  000e4	f3 0f 5c 0e	 subss	 xmm1, DWORD PTR [esi]
  000e8	f3 0f 5c 28	 subss	 xmm5, DWORD PTR [eax]
  000ec	f3 0f 10 53 38	 movss	 xmm2, DWORD PTR [ebx+56]
  000f1	0f 28 dc	 movaps	 xmm3, xmm4
  000f4	f3 0f 5c 5e 04	 subss	 xmm3, DWORD PTR [esi+4]
  000f9	f3 0f 5c 60 04	 subss	 xmm4, DWORD PTR [eax+4]
  000fe	0f 28 c2	 movaps	 xmm0, xmm2

; 1253 :     return pV->x * pV->x + pV->y * pV->y + pV->z * pV->z;

  00101	f3 0f 59 c9	 mulss	 xmm1, xmm1

; 263  :     return D3DXVECTOR3(x - v.x, y - v.y, z - v.z);

  00105	f3 0f 5c 46 08	 subss	 xmm0, DWORD PTR [esi+8]
  0010a	f3 0f 5c 50 08	 subss	 xmm2, DWORD PTR [eax+8]

; 182  :     z = fz;

  0010f	f3 0f 59 db	 mulss	 xmm3, xmm3
; File D:\Metin2 Server Files\mainline\SRC_2014\Metin2Client\GameLib\MapOutdoorRender.cpp

; 362  : 		return D3DXVec3LengthSq(&D3DXVECTOR3(c_rv3CameraPos - c_v3LeftPos)) < D3DXVec3LengthSq(&D3DXVECTOR3(c_rv3CameraPos - c_v3RightPos) );	

  00113	f3 0f 59 e4	 mulss	 xmm4, xmm4
; File D:\Metin2 Server Files\mainline\SRC_2014\M2Data\include\d3dx8math.inl

; 1253 :     return pV->x * pV->x + pV->y * pV->y + pV->z * pV->z;

  00117	f3 0f 59 ed	 mulss	 xmm5, xmm5
  0011b	f3 0f 58 d9	 addss	 xmm3, xmm1
  0011f	f3 0f 59 c0	 mulss	 xmm0, xmm0
  00123	f3 0f 58 e5	 addss	 xmm4, xmm5
  00127	f3 0f 59 d2	 mulss	 xmm2, xmm2
  0012b	f3 0f 58 d8	 addss	 xmm3, xmm0
  0012f	f3 0f 58 e2	 addss	 xmm4, xmm2
; File D:\Metin2 Server Files\mainline\SRC_2014\Metin2Client\GameLib\MapOutdoorRender.cpp

; 362  : 		return D3DXVec3LengthSq(&D3DXVECTOR3(c_rv3CameraPos - c_v3LeftPos)) < D3DXVec3LengthSq(&D3DXVECTOR3(c_rv3CameraPos - c_v3RightPos) );	

  00133	0f 2f e3	 comiss	 xmm4, xmm3
; File C:\Program Files (x86)\Microsoft Visual Studio\2019\Community\VC\Tools\MSVC\14.28.29333\include\algorithm

; 7475 :            && !_Pred(*_Pfirst, *_Prev_iter(_Pfirst))) {

  00136	0f 87 99 00 00
	00		 ja	 $LN212@Partition_
  0013c	8b 4d fc	 mov	 ecx, DWORD PTR __Pfirst$1$[ebp]
  0013f	8b 7d f0	 mov	 edi, DWORD PTR tv3220[ebp]
  00142	8b 31		 mov	 esi, DWORD PTR [ecx]
; File D:\Metin2 Server Files\mainline\SRC_2014\Metin2Client\GameLib\MapOutdoorRender.cpp

; 357  : 		CCamera * pCurrentCamera = CCameraManager::Instance().GetCurrentCamera();

  00144	8b 0d 00 00 00
	00		 mov	 ecx, DWORD PTR ?ms_singleton@?$CSingleton@VCCameraManager@@@@0PAVCCameraManager@@A ; CSingleton<CCameraManager>::ms_singleton
; File C:\Program Files (x86)\Microsoft Visual Studio\2019\Community\VC\Tools\MSVC\14.28.29333\include\algorithm

; 7475 :            && !_Pred(*_Pfirst, *_Prev_iter(_Pfirst))) {

  0014a	8b 3f		 mov	 edi, DWORD PTR [edi]
; File D:\Metin2 Server Files\mainline\SRC_2014\Metin2Client\GameLib\MapOutdoorRender.cpp

; 357  : 		CCamera * pCurrentCamera = CCameraManager::Instance().GetCurrentCamera();

  0014c	e8 00 00 00 00	 call	 ?GetCurrentCamera@CCameraManager@@QAEPAVCCamera@@XZ ; CCameraManager::GetCurrentCamera

; 358  : 		const D3DXVECTOR3 & c_rv3CameraPos = pCurrentCamera->GetEye();
; 359  : 		const D3DXVECTOR3 & c_v3LeftPos  = pkLeft->GetPosition();

  00151	8b ce		 mov	 ecx, esi
  00153	8b d8		 mov	 ebx, eax
  00155	e8 00 00 00 00	 call	 ?GetPosition@CGraphicObjectInstance@@QBEABUD3DXVECTOR3@@XZ ; CGraphicObjectInstance::GetPosition

; 360  : 		const D3DXVECTOR3 & c_v3RightPos = pkRight->GetPosition();

  0015a	8b cf		 mov	 ecx, edi
  0015c	8b f0		 mov	 esi, eax
  0015e	e8 00 00 00 00	 call	 ?GetPosition@CGraphicObjectInstance@@QBEABUD3DXVECTOR3@@XZ ; CGraphicObjectInstance::GetPosition
; File D:\Metin2 Server Files\mainline\SRC_2014\M2Data\include\d3dx8math.inl

; 263  :     return D3DXVECTOR3(x - v.x, y - v.y, z - v.z);

  00163	f3 0f 10 6b 30	 movss	 xmm5, DWORD PTR [ebx+48]
  00168	f3 0f 10 63 34	 movss	 xmm4, DWORD PTR [ebx+52]
  0016d	0f 28 cd	 movaps	 xmm1, xmm5
  00170	f3 0f 5c 0e	 subss	 xmm1, DWORD PTR [esi]
  00174	f3 0f 5c 28	 subss	 xmm5, DWORD PTR [eax]
  00178	f3 0f 10 53 38	 movss	 xmm2, DWORD PTR [ebx+56]
  0017d	0f 28 dc	 movaps	 xmm3, xmm4
  00180	f3 0f 5c 5e 04	 subss	 xmm3, DWORD PTR [esi+4]
  00185	f3 0f 5c 60 04	 subss	 xmm4, DWORD PTR [eax+4]
  0018a	0f 28 c2	 movaps	 xmm0, xmm2

; 1253 :     return pV->x * pV->x + pV->y * pV->y + pV->z * pV->z;

  0018d	f3 0f 59 c9	 mulss	 xmm1, xmm1

; 263  :     return D3DXVECTOR3(x - v.x, y - v.y, z - v.z);

  00191	f3 0f 5c 46 08	 subss	 xmm0, DWORD PTR [esi+8]
  00196	f3 0f 5c 50 08	 subss	 xmm2, DWORD PTR [eax+8]

; 182  :     z = fz;

  0019b	f3 0f 59 db	 mulss	 xmm3, xmm3
; File D:\Metin2 Server Files\mainline\SRC_2014\Metin2Client\GameLib\MapOutdoorRender.cpp

; 362  : 		return D3DXVec3LengthSq(&D3DXVECTOR3(c_rv3CameraPos - c_v3LeftPos)) < D3DXVec3LengthSq(&D3DXVECTOR3(c_rv3CameraPos - c_v3RightPos) );	

  0019f	f3 0f 59 e4	 mulss	 xmm4, xmm4
; File D:\Metin2 Server Files\mainline\SRC_2014\M2Data\include\d3dx8math.inl

; 1253 :     return pV->x * pV->x + pV->y * pV->y + pV->z * pV->z;

  001a3	f3 0f 59 ed	 mulss	 xmm5, xmm5
  001a7	f3 0f 58 d9	 addss	 xmm3, xmm1
  001ab	f3 0f 59 c0	 mulss	 xmm0, xmm0
  001af	f3 0f 58 e5	 addss	 xmm4, xmm5
  001b3	f3 0f 59 d2	 mulss	 xmm2, xmm2
  001b7	f3 0f 58 d8	 addss	 xmm3, xmm0
  001bb	f3 0f 58 e2	 addss	 xmm4, xmm2
; File D:\Metin2 Server Files\mainline\SRC_2014\Metin2Client\GameLib\MapOutdoorRender.cpp

; 362  : 		return D3DXVec3LengthSq(&D3DXVECTOR3(c_rv3CameraPos - c_v3LeftPos)) < D3DXVec3LengthSq(&D3DXVECTOR3(c_rv3CameraPos - c_v3RightPos) );	

  001bf	0f 2f e3	 comiss	 xmm4, xmm3
; File C:\Program Files (x86)\Microsoft Visual Studio\2019\Community\VC\Tools\MSVC\14.28.29333\include\algorithm

; 7475 :            && !_Pred(*_Pfirst, *_Prev_iter(_Pfirst))) {

  001c2	77 11		 ja	 SHORT $LN212@Partition_

; 7476 :         --_Pfirst;

  001c4	8b 75 f0	 mov	 esi, DWORD PTR tv3220[ebp]
  001c7	89 75 fc	 mov	 DWORD PTR __Pfirst$1$[ebp], esi
  001ca	39 75 0c	 cmp	 DWORD PTR __First$[ebp], esi
  001cd	0f 82 dd fe ff
	ff		 jb	 $LL2@Partition_

; 7475 :            && !_Pred(*_Pfirst, *_Prev_iter(_Pfirst))) {

  001d3	eb 03		 jmp	 SHORT $LN207@Partition_
$LN212@Partition_:
  001d5	8b 75 fc	 mov	 esi, DWORD PTR __Pfirst$1$[ebp]
$LN207@Partition_:
  001d8	8b 7d 14	 mov	 edi, DWORD PTR __Plast$1$[ebp]
$LN182@Partition_:

; 7479 :     while (_Plast < _Last && !_DEBUG_LT_PRED(_Pred, *_Plast, *_Pfirst) && !_Pred(*_Pfirst, *_Plast)) {

  001db	8b 45 10	 mov	 eax, DWORD PTR __Last$[ebp]
  001de	3b f8		 cmp	 edi, eax
  001e0	0f 83 30 01 00
	00		 jae	 $LN208@Partition_
$LL4@Partition_:
  001e6	8b 4d 14	 mov	 ecx, DWORD PTR __Plast$1$[ebp]
  001e9	8b 3e		 mov	 edi, DWORD PTR [esi]
  001eb	8b 31		 mov	 esi, DWORD PTR [ecx]
; File D:\Metin2 Server Files\mainline\SRC_2014\Metin2Client\GameLib\MapOutdoorRender.cpp

; 357  : 		CCamera * pCurrentCamera = CCameraManager::Instance().GetCurrentCamera();

  001ed	8b 0d 00 00 00
	00		 mov	 ecx, DWORD PTR ?ms_singleton@?$CSingleton@VCCameraManager@@@@0PAVCCameraManager@@A ; CSingleton<CCameraManager>::ms_singleton
  001f3	e8 00 00 00 00	 call	 ?GetCurrentCamera@CCameraManager@@QAEPAVCCamera@@XZ ; CCameraManager::GetCurrentCamera

; 358  : 		const D3DXVECTOR3 & c_rv3CameraPos = pCurrentCamera->GetEye();
; 359  : 		const D3DXVECTOR3 & c_v3LeftPos  = pkLeft->GetPosition();

  001f8	8b ce		 mov	 ecx, esi
  001fa	8b d8		 mov	 ebx, eax
  001fc	e8 00 00 00 00	 call	 ?GetPosition@CGraphicObjectInstance@@QBEABUD3DXVECTOR3@@XZ ; CGraphicObjectInstance::GetPosition

; 360  : 		const D3DXVECTOR3 & c_v3RightPos = pkRight->GetPosition();

  00201	8b cf		 mov	 ecx, edi
  00203	8b f0		 mov	 esi, eax
  00205	e8 00 00 00 00	 call	 ?GetPosition@CGraphicObjectInstance@@QBEABUD3DXVECTOR3@@XZ ; CGraphicObjectInstance::GetPosition
; File D:\Metin2 Server Files\mainline\SRC_2014\M2Data\include\d3dx8math.inl

; 263  :     return D3DXVECTOR3(x - v.x, y - v.y, z - v.z);

  0020a	f3 0f 10 6b 30	 movss	 xmm5, DWORD PTR [ebx+48]
  0020f	f3 0f 10 63 34	 movss	 xmm4, DWORD PTR [ebx+52]
  00214	0f 28 cd	 movaps	 xmm1, xmm5
  00217	f3 0f 5c 0e	 subss	 xmm1, DWORD PTR [esi]
  0021b	f3 0f 5c 28	 subss	 xmm5, DWORD PTR [eax]
  0021f	f3 0f 10 53 38	 movss	 xmm2, DWORD PTR [ebx+56]
  00224	0f 28 dc	 movaps	 xmm3, xmm4
  00227	f3 0f 5c 5e 04	 subss	 xmm3, DWORD PTR [esi+4]
  0022c	f3 0f 5c 60 04	 subss	 xmm4, DWORD PTR [eax+4]
  00231	0f 28 c2	 movaps	 xmm0, xmm2

; 1253 :     return pV->x * pV->x + pV->y * pV->y + pV->z * pV->z;

  00234	f3 0f 59 c9	 mulss	 xmm1, xmm1

; 263  :     return D3DXVECTOR3(x - v.x, y - v.y, z - v.z);

  00238	f3 0f 5c 46 08	 subss	 xmm0, DWORD PTR [esi+8]
  0023d	f3 0f 5c 50 08	 subss	 xmm2, DWORD PTR [eax+8]

; 182  :     z = fz;

  00242	f3 0f 59 db	 mulss	 xmm3, xmm3
; File D:\Metin2 Server Files\mainline\SRC_2014\Metin2Client\GameLib\MapOutdoorRender.cpp

; 362  : 		return D3DXVec3LengthSq(&D3DXVECTOR3(c_rv3CameraPos - c_v3LeftPos)) < D3DXVec3LengthSq(&D3DXVECTOR3(c_rv3CameraPos - c_v3RightPos) );	

  00246	f3 0f 59 e4	 mulss	 xmm4, xmm4
; File D:\Metin2 Server Files\mainline\SRC_2014\M2Data\include\d3dx8math.inl

; 1253 :     return pV->x * pV->x + pV->y * pV->y + pV->z * pV->z;

  0024a	f3 0f 59 ed	 mulss	 xmm5, xmm5
  0024e	f3 0f 58 d9	 addss	 xmm3, xmm1
  00252	f3 0f 59 c0	 mulss	 xmm0, xmm0
  00256	f3 0f 58 e5	 addss	 xmm4, xmm5
  0025a	f3 0f 59 d2	 mulss	 xmm2, xmm2
  0025e	f3 0f 58 d8	 addss	 xmm3, xmm0
  00262	f3 0f 58 e2	 addss	 xmm4, xmm2
; File D:\Metin2 Server Files\mainline\SRC_2014\Metin2Client\GameLib\MapOutdoorRender.cpp

; 362  : 		return D3DXVec3LengthSq(&D3DXVECTOR3(c_rv3CameraPos - c_v3LeftPos)) < D3DXVec3LengthSq(&D3DXVECTOR3(c_rv3CameraPos - c_v3RightPos) );	

  00266	0f 2f e3	 comiss	 xmm4, xmm3
; File C:\Program Files (x86)\Microsoft Visual Studio\2019\Community\VC\Tools\MSVC\14.28.29333\include\algorithm

; 7479 :     while (_Plast < _Last && !_DEBUG_LT_PRED(_Pred, *_Plast, *_Pfirst) && !_Pred(*_Pfirst, *_Plast)) {

  00269	0f 87 a1 00 00
	00		 ja	 $LN217@Partition_
  0026f	8b 4d fc	 mov	 ecx, DWORD PTR __Pfirst$1$[ebp]
  00272	8b 45 14	 mov	 eax, DWORD PTR __Plast$1$[ebp]
  00275	8b 31		 mov	 esi, DWORD PTR [ecx]
; File D:\Metin2 Server Files\mainline\SRC_2014\Metin2Client\GameLib\MapOutdoorRender.cpp

; 357  : 		CCamera * pCurrentCamera = CCameraManager::Instance().GetCurrentCamera();

  00277	8b 0d 00 00 00
	00		 mov	 ecx, DWORD PTR ?ms_singleton@?$CSingleton@VCCameraManager@@@@0PAVCCameraManager@@A ; CSingleton<CCameraManager>::ms_singleton
; File C:\Program Files (x86)\Microsoft Visual Studio\2019\Community\VC\Tools\MSVC\14.28.29333\include\algorithm

; 7479 :     while (_Plast < _Last && !_DEBUG_LT_PRED(_Pred, *_Plast, *_Pfirst) && !_Pred(*_Pfirst, *_Plast)) {

  0027d	8b 38		 mov	 edi, DWORD PTR [eax]
; File D:\Metin2 Server Files\mainline\SRC_2014\Metin2Client\GameLib\MapOutdoorRender.cpp

; 357  : 		CCamera * pCurrentCamera = CCameraManager::Instance().GetCurrentCamera();

  0027f	e8 00 00 00 00	 call	 ?GetCurrentCamera@CCameraManager@@QAEPAVCCamera@@XZ ; CCameraManager::GetCurrentCamera

; 358  : 		const D3DXVECTOR3 & c_rv3CameraPos = pCurrentCamera->GetEye();
; 359  : 		const D3DXVECTOR3 & c_v3LeftPos  = pkLeft->GetPosition();

  00284	8b ce		 mov	 ecx, esi
  00286	8b d8		 mov	 ebx, eax
  00288	e8 00 00 00 00	 call	 ?GetPosition@CGraphicObjectInstance@@QBEABUD3DXVECTOR3@@XZ ; CGraphicObjectInstance::GetPosition

; 360  : 		const D3DXVECTOR3 & c_v3RightPos = pkRight->GetPosition();

  0028d	8b cf		 mov	 ecx, edi
  0028f	8b f0		 mov	 esi, eax
  00291	e8 00 00 00 00	 call	 ?GetPosition@CGraphicObjectInstance@@QBEABUD3DXVECTOR3@@XZ ; CGraphicObjectInstance::GetPosition
; File D:\Metin2 Server Files\mainline\SRC_2014\M2Data\include\d3dx8math.inl

; 263  :     return D3DXVECTOR3(x - v.x, y - v.y, z - v.z);

  00296	f3 0f 10 6b 30	 movss	 xmm5, DWORD PTR [ebx+48]
  0029b	f3 0f 10 63 34	 movss	 xmm4, DWORD PTR [ebx+52]
  002a0	0f 28 cd	 movaps	 xmm1, xmm5
  002a3	f3 0f 5c 0e	 subss	 xmm1, DWORD PTR [esi]
  002a7	f3 0f 5c 28	 subss	 xmm5, DWORD PTR [eax]
  002ab	f3 0f 10 53 38	 movss	 xmm2, DWORD PTR [ebx+56]
  002b0	0f 28 dc	 movaps	 xmm3, xmm4
  002b3	f3 0f 5c 60 04	 subss	 xmm4, DWORD PTR [eax+4]
  002b8	f3 0f 5c 5e 04	 subss	 xmm3, DWORD PTR [esi+4]
; File C:\Program Files (x86)\Microsoft Visual Studio\2019\Community\VC\Tools\MSVC\14.28.29333\include\algorithm

; 7479 :     while (_Plast < _Last && !_DEBUG_LT_PRED(_Pred, *_Plast, *_Pfirst) && !_Pred(*_Pfirst, *_Plast)) {

  002bd	8b 7d 14	 mov	 edi, DWORD PTR __Plast$1$[ebp]
; File D:\Metin2 Server Files\mainline\SRC_2014\M2Data\include\d3dx8math.inl

; 263  :     return D3DXVECTOR3(x - v.x, y - v.y, z - v.z);

  002c0	0f 28 c2	 movaps	 xmm0, xmm2
  002c3	f3 0f 5c 50 08	 subss	 xmm2, DWORD PTR [eax+8]
  002c8	f3 0f 5c 46 08	 subss	 xmm0, DWORD PTR [esi+8]
; File C:\Program Files (x86)\Microsoft Visual Studio\2019\Community\VC\Tools\MSVC\14.28.29333\include\algorithm

; 7479 :     while (_Plast < _Last && !_DEBUG_LT_PRED(_Pred, *_Plast, *_Pfirst) && !_Pred(*_Pfirst, *_Plast)) {

  002cd	8b 45 10	 mov	 eax, DWORD PTR __Last$[ebp]
; File D:\Metin2 Server Files\mainline\SRC_2014\M2Data\include\d3dx8math.inl

; 182  :     z = fz;

  002d0	f3 0f 59 db	 mulss	 xmm3, xmm3
; File D:\Metin2 Server Files\mainline\SRC_2014\Metin2Client\GameLib\MapOutdoorRender.cpp

; 362  : 		return D3DXVec3LengthSq(&D3DXVECTOR3(c_rv3CameraPos - c_v3LeftPos)) < D3DXVec3LengthSq(&D3DXVECTOR3(c_rv3CameraPos - c_v3RightPos) );	

  002d4	f3 0f 59 e4	 mulss	 xmm4, xmm4
; File D:\Metin2 Server Files\mainline\SRC_2014\M2Data\include\d3dx8math.inl

; 1253 :     return pV->x * pV->x + pV->y * pV->y + pV->z * pV->z;

  002d8	f3 0f 59 c9	 mulss	 xmm1, xmm1
  002dc	f3 0f 59 ed	 mulss	 xmm5, xmm5
  002e0	f3 0f 58 d9	 addss	 xmm3, xmm1
  002e4	f3 0f 59 c0	 mulss	 xmm0, xmm0
  002e8	f3 0f 58 e5	 addss	 xmm4, xmm5
  002ec	f3 0f 59 d2	 mulss	 xmm2, xmm2
  002f0	f3 0f 58 d8	 addss	 xmm3, xmm0
  002f4	f3 0f 58 e2	 addss	 xmm4, xmm2
; File D:\Metin2 Server Files\mainline\SRC_2014\Metin2Client\GameLib\MapOutdoorRender.cpp

; 362  : 		return D3DXVec3LengthSq(&D3DXVECTOR3(c_rv3CameraPos - c_v3LeftPos)) < D3DXVec3LengthSq(&D3DXVECTOR3(c_rv3CameraPos - c_v3RightPos) );	

  002f8	0f 2f e3	 comiss	 xmm4, xmm3
; File C:\Program Files (x86)\Microsoft Visual Studio\2019\Community\VC\Tools\MSVC\14.28.29333\include\algorithm

; 7479 :     while (_Plast < _Last && !_DEBUG_LT_PRED(_Pred, *_Plast, *_Pfirst) && !_Pred(*_Pfirst, *_Plast)) {

  002fb	77 19		 ja	 SHORT $LN208@Partition_
  002fd	8b 75 fc	 mov	 esi, DWORD PTR __Pfirst$1$[ebp]

; 7480 :         ++_Plast;

  00300	83 c7 04	 add	 edi, 4
  00303	89 7d 14	 mov	 DWORD PTR __Plast$1$[ebp], edi
  00306	3b f8		 cmp	 edi, eax
  00308	0f 82 d8 fe ff
	ff		 jb	 $LL4@Partition_

; 7479 :     while (_Plast < _Last && !_DEBUG_LT_PRED(_Pred, *_Plast, *_Pfirst) && !_Pred(*_Pfirst, *_Plast)) {

  0030e	eb 06		 jmp	 SHORT $LN208@Partition_
$LN217@Partition_:
  00310	8b 7d 14	 mov	 edi, DWORD PTR __Plast$1$[ebp]
  00313	8b 45 10	 mov	 eax, DWORD PTR __Last$[ebp]
$LN208@Partition_:

; 7481 :     }
; 7482 : 
; 7483 :     _RanIt _Gfirst = _Plast;
; 7484 :     _RanIt _Glast  = _Pfirst;

  00316	8b 55 fc	 mov	 edx, DWORD PTR __Pfirst$1$[ebp]
  00319	8b df		 mov	 ebx, edi
  0031b	8b f2		 mov	 esi, edx
$LN221@Partition_:

; 7485 : 
; 7486 :     for (;;) { // partition
; 7487 :         for (; _Gfirst < _Last; ++_Gfirst) {

  0031d	89 75 f4	 mov	 DWORD PTR __Glast$1$[ebp], esi
$LN220@Partition_:
  00320	89 5d f8	 mov	 DWORD PTR __Gfirst$1$[ebp], ebx
$LL6@Partition_:
  00323	3b d8		 cmp	 ebx, eax
  00325	0f 83 48 01 00
	00		 jae	 $LN186@Partition_
  0032b	0f 1f 44 00 00	 npad	 5
$LL11@Partition_:
; File D:\Metin2 Server Files\mainline\SRC_2014\Metin2Client\GameLib\MapOutdoorRender.cpp

; 357  : 		CCamera * pCurrentCamera = CCameraManager::Instance().GetCurrentCamera();

  00330	8b 0d 00 00 00
	00		 mov	 ecx, DWORD PTR ?ms_singleton@?$CSingleton@VCCameraManager@@@@0PAVCCameraManager@@A ; CSingleton<CCameraManager>::ms_singleton
; File C:\Program Files (x86)\Microsoft Visual Studio\2019\Community\VC\Tools\MSVC\14.28.29333\include\algorithm

; 7488 :             if (_DEBUG_LT_PRED(_Pred, *_Pfirst, *_Gfirst)) {

  00336	8b 3b		 mov	 edi, DWORD PTR [ebx]
  00338	8b 32		 mov	 esi, DWORD PTR [edx]
; File D:\Metin2 Server Files\mainline\SRC_2014\Metin2Client\GameLib\MapOutdoorRender.cpp

; 357  : 		CCamera * pCurrentCamera = CCameraManager::Instance().GetCurrentCamera();

  0033a	e8 00 00 00 00	 call	 ?GetCurrentCamera@CCameraManager@@QAEPAVCCamera@@XZ ; CCameraManager::GetCurrentCamera

; 358  : 		const D3DXVECTOR3 & c_rv3CameraPos = pCurrentCamera->GetEye();
; 359  : 		const D3DXVECTOR3 & c_v3LeftPos  = pkLeft->GetPosition();

  0033f	8b ce		 mov	 ecx, esi
  00341	8b d8		 mov	 ebx, eax
  00343	e8 00 00 00 00	 call	 ?GetPosition@CGraphicObjectInstance@@QBEABUD3DXVECTOR3@@XZ ; CGraphicObjectInstance::GetPosition

; 360  : 		const D3DXVECTOR3 & c_v3RightPos = pkRight->GetPosition();

  00348	8b cf		 mov	 ecx, edi
  0034a	8b f0		 mov	 esi, eax
  0034c	e8 00 00 00 00	 call	 ?GetPosition@CGraphicObjectInstance@@QBEABUD3DXVECTOR3@@XZ ; CGraphicObjectInstance::GetPosition
; File D:\Metin2 Server Files\mainline\SRC_2014\M2Data\include\d3dx8math.inl

; 263  :     return D3DXVECTOR3(x - v.x, y - v.y, z - v.z);

  00351	f3 0f 10 6b 30	 movss	 xmm5, DWORD PTR [ebx+48]
  00356	f3 0f 10 63 34	 movss	 xmm4, DWORD PTR [ebx+52]
  0035b	0f 28 cd	 movaps	 xmm1, xmm5
  0035e	f3 0f 5c 0e	 subss	 xmm1, DWORD PTR [esi]
  00362	f3 0f 5c 28	 subss	 xmm5, DWORD PTR [eax]
  00366	f3 0f 10 53 38	 movss	 xmm2, DWORD PTR [ebx+56]
  0036b	0f 28 dc	 movaps	 xmm3, xmm4
  0036e	f3 0f 5c 5e 04	 subss	 xmm3, DWORD PTR [esi+4]
  00373	f3 0f 5c 60 04	 subss	 xmm4, DWORD PTR [eax+4]
  00378	0f 28 c2	 movaps	 xmm0, xmm2

; 1253 :     return pV->x * pV->x + pV->y * pV->y + pV->z * pV->z;

  0037b	f3 0f 59 c9	 mulss	 xmm1, xmm1

; 263  :     return D3DXVECTOR3(x - v.x, y - v.y, z - v.z);

  0037f	f3 0f 5c 46 08	 subss	 xmm0, DWORD PTR [esi+8]
  00384	f3 0f 5c 50 08	 subss	 xmm2, DWORD PTR [eax+8]

; 182  :     z = fz;

  00389	f3 0f 59 db	 mulss	 xmm3, xmm3
; File D:\Metin2 Server Files\mainline\SRC_2014\Metin2Client\GameLib\MapOutdoorRender.cpp

; 362  : 		return D3DXVec3LengthSq(&D3DXVECTOR3(c_rv3CameraPos - c_v3LeftPos)) < D3DXVec3LengthSq(&D3DXVECTOR3(c_rv3CameraPos - c_v3RightPos) );	

  0038d	f3 0f 59 e4	 mulss	 xmm4, xmm4
; File D:\Metin2 Server Files\mainline\SRC_2014\M2Data\include\d3dx8math.inl

; 1253 :     return pV->x * pV->x + pV->y * pV->y + pV->z * pV->z;

  00391	f3 0f 59 ed	 mulss	 xmm5, xmm5
  00395	f3 0f 58 d9	 addss	 xmm3, xmm1
  00399	f3 0f 59 c0	 mulss	 xmm0, xmm0
  0039d	f3 0f 58 e5	 addss	 xmm4, xmm5
  003a1	f3 0f 59 d2	 mulss	 xmm2, xmm2
  003a5	f3 0f 58 d8	 addss	 xmm3, xmm0
  003a9	f3 0f 58 e2	 addss	 xmm4, xmm2
; File D:\Metin2 Server Files\mainline\SRC_2014\Metin2Client\GameLib\MapOutdoorRender.cpp

; 362  : 		return D3DXVec3LengthSq(&D3DXVECTOR3(c_rv3CameraPos - c_v3LeftPos)) < D3DXVec3LengthSq(&D3DXVECTOR3(c_rv3CameraPos - c_v3RightPos) );	

  003ad	0f 2f e3	 comiss	 xmm4, xmm3
; File C:\Program Files (x86)\Microsoft Visual Studio\2019\Community\VC\Tools\MSVC\14.28.29333\include\algorithm

; 7488 :             if (_DEBUG_LT_PRED(_Pred, *_Pfirst, *_Gfirst)) {

  003b0	0f 87 a2 00 00
	00		 ja	 $LN215@Partition_

; 7490 :             } else if (_Pred(*_Gfirst, *_Pfirst)) {

  003b6	8b 4d fc	 mov	 ecx, DWORD PTR __Pfirst$1$[ebp]
  003b9	8b 75 f8	 mov	 esi, DWORD PTR __Gfirst$1$[ebp]
  003bc	8b 39		 mov	 edi, DWORD PTR [ecx]
; File D:\Metin2 Server Files\mainline\SRC_2014\Metin2Client\GameLib\MapOutdoorRender.cpp

; 357  : 		CCamera * pCurrentCamera = CCameraManager::Instance().GetCurrentCamera();

  003be	8b 0d 00 00 00
	00		 mov	 ecx, DWORD PTR ?ms_singleton@?$CSingleton@VCCameraManager@@@@0PAVCCameraManager@@A ; CSingleton<CCameraManager>::ms_singleton
; File C:\Program Files (x86)\Microsoft Visual Studio\2019\Community\VC\Tools\MSVC\14.28.29333\include\algorithm

; 7490 :             } else if (_Pred(*_Gfirst, *_Pfirst)) {

  003c4	8b 36		 mov	 esi, DWORD PTR [esi]
; File D:\Metin2 Server Files\mainline\SRC_2014\Metin2Client\GameLib\MapOutdoorRender.cpp

; 357  : 		CCamera * pCurrentCamera = CCameraManager::Instance().GetCurrentCamera();

  003c6	e8 00 00 00 00	 call	 ?GetCurrentCamera@CCameraManager@@QAEPAVCCamera@@XZ ; CCameraManager::GetCurrentCamera

; 358  : 		const D3DXVECTOR3 & c_rv3CameraPos = pCurrentCamera->GetEye();
; 359  : 		const D3DXVECTOR3 & c_v3LeftPos  = pkLeft->GetPosition();

  003cb	8b ce		 mov	 ecx, esi
  003cd	8b d8		 mov	 ebx, eax
  003cf	e8 00 00 00 00	 call	 ?GetPosition@CGraphicObjectInstance@@QBEABUD3DXVECTOR3@@XZ ; CGraphicObjectInstance::GetPosition

; 360  : 		const D3DXVECTOR3 & c_v3RightPos = pkRight->GetPosition();

  003d4	8b cf		 mov	 ecx, edi
  003d6	8b f0		 mov	 esi, eax
  003d8	e8 00 00 00 00	 call	 ?GetPosition@CGraphicObjectInstance@@QBEABUD3DXVECTOR3@@XZ ; CGraphicObjectInstance::GetPosition
; File D:\Metin2 Server Files\mainline\SRC_2014\M2Data\include\d3dx8math.inl

; 263  :     return D3DXVECTOR3(x - v.x, y - v.y, z - v.z);

  003dd	f3 0f 10 6b 30	 movss	 xmm5, DWORD PTR [ebx+48]
  003e2	f3 0f 10 63 34	 movss	 xmm4, DWORD PTR [ebx+52]
  003e7	0f 28 cd	 movaps	 xmm1, xmm5
  003ea	f3 0f 5c 0e	 subss	 xmm1, DWORD PTR [esi]
  003ee	f3 0f 5c 28	 subss	 xmm5, DWORD PTR [eax]
  003f2	f3 0f 10 53 38	 movss	 xmm2, DWORD PTR [ebx+56]
  003f7	0f 28 dc	 movaps	 xmm3, xmm4
  003fa	f3 0f 5c 5e 04	 subss	 xmm3, DWORD PTR [esi+4]
  003ff	f3 0f 5c 60 04	 subss	 xmm4, DWORD PTR [eax+4]
  00404	0f 28 c2	 movaps	 xmm0, xmm2

; 1253 :     return pV->x * pV->x + pV->y * pV->y + pV->z * pV->z;

  00407	f3 0f 59 c9	 mulss	 xmm1, xmm1

; 263  :     return D3DXVECTOR3(x - v.x, y - v.y, z - v.z);

  0040b	f3 0f 5c 46 08	 subss	 xmm0, DWORD PTR [esi+8]
  00410	f3 0f 5c 50 08	 subss	 xmm2, DWORD PTR [eax+8]

; 182  :     z = fz;

  00415	f3 0f 59 db	 mulss	 xmm3, xmm3
; File D:\Metin2 Server Files\mainline\SRC_2014\Metin2Client\GameLib\MapOutdoorRender.cpp

; 362  : 		return D3DXVec3LengthSq(&D3DXVECTOR3(c_rv3CameraPos - c_v3LeftPos)) < D3DXVec3LengthSq(&D3DXVECTOR3(c_rv3CameraPos - c_v3RightPos) );	

  00419	f3 0f 59 e4	 mulss	 xmm4, xmm4
; File D:\Metin2 Server Files\mainline\SRC_2014\M2Data\include\d3dx8math.inl

; 1253 :     return pV->x * pV->x + pV->y * pV->y + pV->z * pV->z;

  0041d	f3 0f 59 ed	 mulss	 xmm5, xmm5
  00421	f3 0f 58 d9	 addss	 xmm3, xmm1
  00425	f3 0f 59 c0	 mulss	 xmm0, xmm0
  00429	f3 0f 58 e5	 addss	 xmm4, xmm5
  0042d	f3 0f 59 d2	 mulss	 xmm2, xmm2
  00431	f3 0f 58 d8	 addss	 xmm3, xmm0
  00435	f3 0f 58 e2	 addss	 xmm4, xmm2
; File D:\Metin2 Server Files\mainline\SRC_2014\Metin2Client\GameLib\MapOutdoorRender.cpp

; 362  : 		return D3DXVec3LengthSq(&D3DXVECTOR3(c_rv3CameraPos - c_v3LeftPos)) < D3DXVec3LengthSq(&D3DXVECTOR3(c_rv3CameraPos - c_v3RightPos) );	

  00439	0f 2f e3	 comiss	 xmm4, xmm3
; File C:\Program Files (x86)\Microsoft Visual Studio\2019\Community\VC\Tools\MSVC\14.28.29333\include\algorithm

; 7490 :             } else if (_Pred(*_Gfirst, *_Pfirst)) {

  0043c	77 2f		 ja	 SHORT $LN209@Partition_

; 7491 :                 break;
; 7492 :             } else if (_Plast != _Gfirst) {

  0043e	8b 55 14	 mov	 edx, DWORD PTR __Plast$1$[ebp]
  00441	8b 5d f8	 mov	 ebx, DWORD PTR __Gfirst$1$[ebp]
  00444	8d 72 04	 lea	 esi, DWORD PTR [edx+4]
  00447	89 75 14	 mov	 DWORD PTR __Plast$1$[ebp], esi
  0044a	3b d3		 cmp	 edx, ebx
  0044c	74 0d		 je	 SHORT $LN9@Partition_
; File C:\Program Files (x86)\Microsoft Visual Studio\2019\Community\VC\Tools\MSVC\14.28.29333\include\utility

; 104  :     _Ty _Tmp = _STD move(_Left);

  0044e	8b 0a		 mov	 ecx, DWORD PTR [edx]

; 105  :     _Left    = _STD move(_Right);

  00450	8b 03		 mov	 eax, DWORD PTR [ebx]
  00452	89 02		 mov	 DWORD PTR [edx], eax

; 106  :     _Right   = _STD move(_Tmp);

  00454	89 0b		 mov	 DWORD PTR [ebx], ecx
; File C:\Program Files (x86)\Microsoft Visual Studio\2019\Community\VC\Tools\MSVC\14.28.29333\include\algorithm

; 7495 :             } else {

  00456	eb 03		 jmp	 SHORT $LN9@Partition_
$LN215@Partition_:

; 7488 :             if (_DEBUG_LT_PRED(_Pred, *_Pfirst, *_Gfirst)) {

  00458	8b 5d f8	 mov	 ebx, DWORD PTR __Gfirst$1$[ebp]
$LN9@Partition_:

; 7485 : 
; 7486 :     for (;;) { // partition
; 7487 :         for (; _Gfirst < _Last; ++_Gfirst) {

  0045b	8b 55 fc	 mov	 edx, DWORD PTR __Pfirst$1$[ebp]
  0045e	83 c3 04	 add	 ebx, 4
  00461	89 5d f8	 mov	 DWORD PTR __Gfirst$1$[ebp], ebx
  00464	3b 5d 10	 cmp	 ebx, DWORD PTR __Last$[ebp]
  00467	0f 82 c3 fe ff
	ff		 jb	 $LL11@Partition_
$LN209@Partition_:
  0046d	8b 55 fc	 mov	 edx, DWORD PTR __Pfirst$1$[ebp]
  00470	8b 75 f4	 mov	 esi, DWORD PTR __Glast$1$[ebp]
$LN186@Partition_:

; 7496 :                 ++_Plast;
; 7497 :             }
; 7498 :         }
; 7499 : 
; 7500 :         for (; _First < _Glast; --_Glast) {

  00473	8b 45 0c	 mov	 eax, DWORD PTR __First$[ebp]
  00476	3b f0		 cmp	 esi, eax
  00478	0f 86 58 01 00
	00		 jbe	 $LN219@Partition_
  0047e	8d 5e fc	 lea	 ebx, DWORD PTR [esi-4]
  00481	89 5d f0	 mov	 DWORD PTR tv3148[ebp], ebx
$LL14@Partition_:
; File D:\Metin2 Server Files\mainline\SRC_2014\Metin2Client\GameLib\MapOutdoorRender.cpp

; 357  : 		CCamera * pCurrentCamera = CCameraManager::Instance().GetCurrentCamera();

  00484	8b 0d 00 00 00
	00		 mov	 ecx, DWORD PTR ?ms_singleton@?$CSingleton@VCCameraManager@@@@0PAVCCameraManager@@A ; CSingleton<CCameraManager>::ms_singleton
; File C:\Program Files (x86)\Microsoft Visual Studio\2019\Community\VC\Tools\MSVC\14.28.29333\include\algorithm

; 7501 :             if (_DEBUG_LT_PRED(_Pred, *_Prev_iter(_Glast), *_Pfirst)) {

  0048a	8b 3a		 mov	 edi, DWORD PTR [edx]
  0048c	8b 33		 mov	 esi, DWORD PTR [ebx]
; File D:\Metin2 Server Files\mainline\SRC_2014\Metin2Client\GameLib\MapOutdoorRender.cpp

; 357  : 		CCamera * pCurrentCamera = CCameraManager::Instance().GetCurrentCamera();

  0048e	e8 00 00 00 00	 call	 ?GetCurrentCamera@CCameraManager@@QAEPAVCCamera@@XZ ; CCameraManager::GetCurrentCamera

; 358  : 		const D3DXVECTOR3 & c_rv3CameraPos = pCurrentCamera->GetEye();
; 359  : 		const D3DXVECTOR3 & c_v3LeftPos  = pkLeft->GetPosition();

  00493	8b ce		 mov	 ecx, esi
  00495	8b d8		 mov	 ebx, eax
  00497	e8 00 00 00 00	 call	 ?GetPosition@CGraphicObjectInstance@@QBEABUD3DXVECTOR3@@XZ ; CGraphicObjectInstance::GetPosition

; 360  : 		const D3DXVECTOR3 & c_v3RightPos = pkRight->GetPosition();

  0049c	8b cf		 mov	 ecx, edi
  0049e	8b f0		 mov	 esi, eax
  004a0	e8 00 00 00 00	 call	 ?GetPosition@CGraphicObjectInstance@@QBEABUD3DXVECTOR3@@XZ ; CGraphicObjectInstance::GetPosition
; File D:\Metin2 Server Files\mainline\SRC_2014\M2Data\include\d3dx8math.inl

; 263  :     return D3DXVECTOR3(x - v.x, y - v.y, z - v.z);

  004a5	f3 0f 10 6b 30	 movss	 xmm5, DWORD PTR [ebx+48]
  004aa	f3 0f 10 5b 34	 movss	 xmm3, DWORD PTR [ebx+52]
  004af	0f 28 cd	 movaps	 xmm1, xmm5
  004b2	f3 0f 5c 0e	 subss	 xmm1, DWORD PTR [esi]
  004b6	f3 0f 5c 28	 subss	 xmm5, DWORD PTR [eax]
  004ba	f3 0f 10 53 38	 movss	 xmm2, DWORD PTR [ebx+56]
  004bf	0f 28 e3	 movaps	 xmm4, xmm3
  004c2	f3 0f 5c 66 04	 subss	 xmm4, DWORD PTR [esi+4]
  004c7	f3 0f 5c 58 04	 subss	 xmm3, DWORD PTR [eax+4]
  004cc	0f 28 c2	 movaps	 xmm0, xmm2

; 1253 :     return pV->x * pV->x + pV->y * pV->y + pV->z * pV->z;

  004cf	f3 0f 59 c9	 mulss	 xmm1, xmm1

; 263  :     return D3DXVECTOR3(x - v.x, y - v.y, z - v.z);

  004d3	f3 0f 5c 46 08	 subss	 xmm0, DWORD PTR [esi+8]
  004d8	f3 0f 5c 50 08	 subss	 xmm2, DWORD PTR [eax+8]

; 182  :     z = fz;

  004dd	f3 0f 59 e4	 mulss	 xmm4, xmm4
; File D:\Metin2 Server Files\mainline\SRC_2014\Metin2Client\GameLib\MapOutdoorRender.cpp

; 362  : 		return D3DXVec3LengthSq(&D3DXVECTOR3(c_rv3CameraPos - c_v3LeftPos)) < D3DXVec3LengthSq(&D3DXVECTOR3(c_rv3CameraPos - c_v3RightPos) );	

  004e1	f3 0f 59 ed	 mulss	 xmm5, xmm5
; File D:\Metin2 Server Files\mainline\SRC_2014\M2Data\include\d3dx8math.inl

; 1253 :     return pV->x * pV->x + pV->y * pV->y + pV->z * pV->z;

  004e5	f3 0f 59 db	 mulss	 xmm3, xmm3
  004e9	f3 0f 58 e1	 addss	 xmm4, xmm1
  004ed	f3 0f 59 c0	 mulss	 xmm0, xmm0
  004f1	f3 0f 58 eb	 addss	 xmm5, xmm3
  004f5	f3 0f 59 d2	 mulss	 xmm2, xmm2
  004f9	f3 0f 58 e0	 addss	 xmm4, xmm0
  004fd	f3 0f 58 ea	 addss	 xmm5, xmm2
; File D:\Metin2 Server Files\mainline\SRC_2014\Metin2Client\GameLib\MapOutdoorRender.cpp

; 362  : 		return D3DXVec3LengthSq(&D3DXVECTOR3(c_rv3CameraPos - c_v3LeftPos)) < D3DXVec3LengthSq(&D3DXVECTOR3(c_rv3CameraPos - c_v3RightPos) );	

  00501	0f 2f ec	 comiss	 xmm5, xmm4
; File C:\Program Files (x86)\Microsoft Visual Studio\2019\Community\VC\Tools\MSVC\14.28.29333\include\algorithm

; 7501 :             if (_DEBUG_LT_PRED(_Pred, *_Prev_iter(_Glast), *_Pfirst)) {

  00504	0f 87 a2 00 00
	00		 ja	 $LN214@Partition_

; 7503 :             } else if (_Pred(*_Pfirst, *_Prev_iter(_Glast))) {

  0050a	8b 45 fc	 mov	 eax, DWORD PTR __Pfirst$1$[ebp]
  0050d	8b 7d f0	 mov	 edi, DWORD PTR tv3148[ebp]
; File D:\Metin2 Server Files\mainline\SRC_2014\Metin2Client\GameLib\MapOutdoorRender.cpp

; 357  : 		CCamera * pCurrentCamera = CCameraManager::Instance().GetCurrentCamera();

  00510	8b 0d 00 00 00
	00		 mov	 ecx, DWORD PTR ?ms_singleton@?$CSingleton@VCCameraManager@@@@0PAVCCameraManager@@A ; CSingleton<CCameraManager>::ms_singleton
; File C:\Program Files (x86)\Microsoft Visual Studio\2019\Community\VC\Tools\MSVC\14.28.29333\include\algorithm

; 7503 :             } else if (_Pred(*_Pfirst, *_Prev_iter(_Glast))) {

  00516	8b 30		 mov	 esi, DWORD PTR [eax]
  00518	8b 3f		 mov	 edi, DWORD PTR [edi]
; File D:\Metin2 Server Files\mainline\SRC_2014\Metin2Client\GameLib\MapOutdoorRender.cpp

; 357  : 		CCamera * pCurrentCamera = CCameraManager::Instance().GetCurrentCamera();

  0051a	e8 00 00 00 00	 call	 ?GetCurrentCamera@CCameraManager@@QAEPAVCCamera@@XZ ; CCameraManager::GetCurrentCamera

; 358  : 		const D3DXVECTOR3 & c_rv3CameraPos = pCurrentCamera->GetEye();
; 359  : 		const D3DXVECTOR3 & c_v3LeftPos  = pkLeft->GetPosition();

  0051f	8b ce		 mov	 ecx, esi
  00521	8b d8		 mov	 ebx, eax
  00523	e8 00 00 00 00	 call	 ?GetPosition@CGraphicObjectInstance@@QBEABUD3DXVECTOR3@@XZ ; CGraphicObjectInstance::GetPosition

; 360  : 		const D3DXVECTOR3 & c_v3RightPos = pkRight->GetPosition();

  00528	8b cf		 mov	 ecx, edi
  0052a	8b f0		 mov	 esi, eax
  0052c	e8 00 00 00 00	 call	 ?GetPosition@CGraphicObjectInstance@@QBEABUD3DXVECTOR3@@XZ ; CGraphicObjectInstance::GetPosition
; File D:\Metin2 Server Files\mainline\SRC_2014\M2Data\include\d3dx8math.inl

; 263  :     return D3DXVECTOR3(x - v.x, y - v.y, z - v.z);

  00531	f3 0f 10 6b 30	 movss	 xmm5, DWORD PTR [ebx+48]
  00536	f3 0f 10 63 34	 movss	 xmm4, DWORD PTR [ebx+52]
  0053b	0f 28 cd	 movaps	 xmm1, xmm5
  0053e	f3 0f 5c 0e	 subss	 xmm1, DWORD PTR [esi]
  00542	f3 0f 5c 28	 subss	 xmm5, DWORD PTR [eax]
  00546	f3 0f 10 53 38	 movss	 xmm2, DWORD PTR [ebx+56]
  0054b	0f 28 dc	 movaps	 xmm3, xmm4
  0054e	f3 0f 5c 5e 04	 subss	 xmm3, DWORD PTR [esi+4]
  00553	f3 0f 5c 60 04	 subss	 xmm4, DWORD PTR [eax+4]
  00558	0f 28 c2	 movaps	 xmm0, xmm2

; 182  :     z = fz;

  0055b	f3 0f 59 c9	 mulss	 xmm1, xmm1

; 263  :     return D3DXVECTOR3(x - v.x, y - v.y, z - v.z);

  0055f	f3 0f 5c 46 08	 subss	 xmm0, DWORD PTR [esi+8]
  00564	f3 0f 5c 50 08	 subss	 xmm2, DWORD PTR [eax+8]

; 1253 :     return pV->x * pV->x + pV->y * pV->y + pV->z * pV->z;

  00569	f3 0f 59 db	 mulss	 xmm3, xmm3
  0056d	f3 0f 59 e4	 mulss	 xmm4, xmm4
; File D:\Metin2 Server Files\mainline\SRC_2014\Metin2Client\GameLib\MapOutdoorRender.cpp

; 362  : 		return D3DXVec3LengthSq(&D3DXVECTOR3(c_rv3CameraPos - c_v3LeftPos)) < D3DXVec3LengthSq(&D3DXVECTOR3(c_rv3CameraPos - c_v3RightPos) );	

  00571	f3 0f 59 ed	 mulss	 xmm5, xmm5
; File D:\Metin2 Server Files\mainline\SRC_2014\M2Data\include\d3dx8math.inl

; 1253 :     return pV->x * pV->x + pV->y * pV->y + pV->z * pV->z;

  00575	f3 0f 58 d9	 addss	 xmm3, xmm1
  00579	f3 0f 59 c0	 mulss	 xmm0, xmm0
  0057d	f3 0f 58 e5	 addss	 xmm4, xmm5
  00581	f3 0f 59 d2	 mulss	 xmm2, xmm2
  00585	f3 0f 58 d8	 addss	 xmm3, xmm0
  00589	f3 0f 58 e2	 addss	 xmm4, xmm2
; File D:\Metin2 Server Files\mainline\SRC_2014\Metin2Client\GameLib\MapOutdoorRender.cpp

; 362  : 		return D3DXVec3LengthSq(&D3DXVECTOR3(c_rv3CameraPos - c_v3LeftPos)) < D3DXVec3LengthSq(&D3DXVECTOR3(c_rv3CameraPos - c_v3RightPos) );	

  0058d	0f 2f e3	 comiss	 xmm4, xmm3
; File C:\Program Files (x86)\Microsoft Visual Studio\2019\Community\VC\Tools\MSVC\14.28.29333\include\algorithm

; 7503 :             } else if (_Pred(*_Pfirst, *_Prev_iter(_Glast))) {

  00590	77 3c		 ja	 SHORT $LN218@Partition_

; 7504 :                 break;
; 7505 :             } else if (--_Pfirst != _Prev_iter(_Glast)) {

  00592	8b 55 fc	 mov	 edx, DWORD PTR __Pfirst$1$[ebp]
  00595	8b 5d f0	 mov	 ebx, DWORD PTR tv3148[ebp]
  00598	83 ea 04	 sub	 edx, 4
  0059b	89 55 fc	 mov	 DWORD PTR __Pfirst$1$[ebp], edx
  0059e	3b d3		 cmp	 edx, ebx
  005a0	74 10		 je	 SHORT $LN12@Partition_
; File C:\Program Files (x86)\Microsoft Visual Studio\2019\Community\VC\Tools\MSVC\14.28.29333\include\utility

; 104  :     _Ty _Tmp = _STD move(_Left);

  005a2	8b 0a		 mov	 ecx, DWORD PTR [edx]

; 105  :     _Left    = _STD move(_Right);

  005a4	8b 03		 mov	 eax, DWORD PTR [ebx]
  005a6	89 02		 mov	 DWORD PTR [edx], eax

; 106  :     _Right   = _STD move(_Tmp);

  005a8	89 0b		 mov	 DWORD PTR [ebx], ecx
; File C:\Program Files (x86)\Microsoft Visual Studio\2019\Community\VC\Tools\MSVC\14.28.29333\include\algorithm

; 7501 :             if (_DEBUG_LT_PRED(_Pred, *_Prev_iter(_Glast), *_Pfirst)) {

  005aa	eb 06		 jmp	 SHORT $LN12@Partition_
$LN214@Partition_:
  005ac	8b 55 fc	 mov	 edx, DWORD PTR __Pfirst$1$[ebp]
  005af	8b 5d f0	 mov	 ebx, DWORD PTR tv3148[ebp]
$LN12@Partition_:

; 7496 :                 ++_Plast;
; 7497 :             }
; 7498 :         }
; 7499 : 
; 7500 :         for (; _First < _Glast; --_Glast) {

  005b2	8b 75 f4	 mov	 esi, DWORD PTR __Glast$1$[ebp]
  005b5	83 eb 04	 sub	 ebx, 4
  005b8	8b 45 0c	 mov	 eax, DWORD PTR __First$[ebp]
  005bb	83 ee 04	 sub	 esi, 4
  005be	89 75 f4	 mov	 DWORD PTR __Glast$1$[ebp], esi
  005c1	89 5d f0	 mov	 DWORD PTR tv3148[ebp], ebx
  005c4	3b c6		 cmp	 eax, esi
  005c6	0f 82 b8 fe ff
	ff		 jb	 $LL14@Partition_

; 7503 :             } else if (_Pred(*_Pfirst, *_Prev_iter(_Glast))) {

  005cc	eb 06		 jmp	 SHORT $LN210@Partition_
$LN218@Partition_:
  005ce	8b 75 f4	 mov	 esi, DWORD PTR __Glast$1$[ebp]
  005d1	8b 45 0c	 mov	 eax, DWORD PTR __First$[ebp]
$LN210@Partition_:

; 7506 :                 _STD iter_swap(_Pfirst, _Prev_iter(_Glast));
; 7507 :             }
; 7508 :         }
; 7509 : 
; 7510 :         if (_Glast == _First && _Gfirst == _Last) {

  005d4	3b f0		 cmp	 esi, eax
$LN219@Partition_:
  005d6	8b 5d f8	 mov	 ebx, DWORD PTR __Gfirst$1$[ebp]
  005d9	75 3a		 jne	 SHORT $LN27@Partition_
  005db	3b 5d 10	 cmp	 ebx, DWORD PTR __Last$[ebp]
  005de	0f 84 7f 00 00
	00		 je	 $LN188@Partition_

; 7512 :         }
; 7513 : 
; 7514 :         if (_Glast == _First) { // no room at bottom, rotate pivot upward
; 7515 :             if (_Plast != _Gfirst) {

  005e4	8b 7d 14	 mov	 edi, DWORD PTR __Plast$1$[ebp]
  005e7	8b 55 fc	 mov	 edx, DWORD PTR __Pfirst$1$[ebp]
  005ea	3b fb		 cmp	 edi, ebx
  005ec	74 08		 je	 SHORT $LN163@Partition_
; File C:\Program Files (x86)\Microsoft Visual Studio\2019\Community\VC\Tools\MSVC\14.28.29333\include\utility

; 104  :     _Ty _Tmp = _STD move(_Left);

  005ee	8b 0a		 mov	 ecx, DWORD PTR [edx]

; 105  :     _Left    = _STD move(_Right);

  005f0	8b 07		 mov	 eax, DWORD PTR [edi]
  005f2	89 02		 mov	 DWORD PTR [edx], eax

; 106  :     _Right   = _STD move(_Tmp);

  005f4	89 0f		 mov	 DWORD PTR [edi], ecx
$LN163@Partition_:

; 105  :     _Left    = _STD move(_Right);

  005f6	8b 03		 mov	 eax, DWORD PTR [ebx]
; File C:\Program Files (x86)\Microsoft Visual Studio\2019\Community\VC\Tools\MSVC\14.28.29333\include\algorithm

; 7519 :             ++_Plast;

  005f8	83 c7 04	 add	 edi, 4
; File C:\Program Files (x86)\Microsoft Visual Studio\2019\Community\VC\Tools\MSVC\14.28.29333\include\utility

; 104  :     _Ty _Tmp = _STD move(_Left);

  005fb	8b 0a		 mov	 ecx, DWORD PTR [edx]

; 105  :     _Left    = _STD move(_Right);

  005fd	89 02		 mov	 DWORD PTR [edx], eax
; File C:\Program Files (x86)\Microsoft Visual Studio\2019\Community\VC\Tools\MSVC\14.28.29333\include\algorithm

; 7521 :             ++_Pfirst;

  005ff	83 c2 04	 add	 edx, 4

; 7522 :             ++_Gfirst;

  00602	8b 45 10	 mov	 eax, DWORD PTR __Last$[ebp]
; File C:\Program Files (x86)\Microsoft Visual Studio\2019\Community\VC\Tools\MSVC\14.28.29333\include\utility

; 106  :     _Right   = _STD move(_Tmp);

  00605	89 0b		 mov	 DWORD PTR [ebx], ecx
; File C:\Program Files (x86)\Microsoft Visual Studio\2019\Community\VC\Tools\MSVC\14.28.29333\include\algorithm

; 7522 :             ++_Gfirst;

  00607	83 c3 04	 add	 ebx, 4
  0060a	89 7d 14	 mov	 DWORD PTR __Plast$1$[ebp], edi
  0060d	89 55 fc	 mov	 DWORD PTR __Pfirst$1$[ebp], edx
  00610	e9 0b fd ff ff	 jmp	 $LN220@Partition_
$LN27@Partition_:

; 7523 :         } else if (_Gfirst == _Last) { // no room at top, rotate pivot downward

  00615	8b 55 fc	 mov	 edx, DWORD PTR __Pfirst$1$[ebp]
  00618	83 c6 fc	 add	 esi, -4			; fffffffcH
  0061b	89 75 f4	 mov	 DWORD PTR __Glast$1$[ebp], esi
  0061e	3b 5d 10	 cmp	 ebx, DWORD PTR __Last$[ebp]
  00621	75 2d		 jne	 SHORT $LN30@Partition_

; 7524 :             if (--_Glast != --_Pfirst) {

  00623	83 ea 04	 sub	 edx, 4
  00626	89 55 fc	 mov	 DWORD PTR __Pfirst$1$[ebp], edx
  00629	3b f2		 cmp	 esi, edx
  0062b	74 0a		 je	 SHORT $LN198@Partition_
; File C:\Program Files (x86)\Microsoft Visual Studio\2019\Community\VC\Tools\MSVC\14.28.29333\include\utility

; 104  :     _Ty _Tmp = _STD move(_Left);

  0062d	8b 0e		 mov	 ecx, DWORD PTR [esi]

; 105  :     _Left    = _STD move(_Right);

  0062f	8b 02		 mov	 eax, DWORD PTR [edx]
  00631	89 06		 mov	 DWORD PTR [esi], eax

; 106  :     _Right   = _STD move(_Tmp);

  00633	89 0a		 mov	 DWORD PTR [edx], ecx
  00635	eb 02		 jmp	 SHORT $LN171@Partition_
$LN198@Partition_:
  00637	8b 0a		 mov	 ecx, DWORD PTR [edx]
$LN171@Partition_:
; File C:\Program Files (x86)\Microsoft Visual Studio\2019\Community\VC\Tools\MSVC\14.28.29333\include\algorithm

; 7528 :             _STD iter_swap(_Pfirst, --_Plast);

  00639	8b 7d 14	 mov	 edi, DWORD PTR __Plast$1$[ebp]
  0063c	83 ef 04	 sub	 edi, 4
  0063f	89 7d 14	 mov	 DWORD PTR __Plast$1$[ebp], edi
; File C:\Program Files (x86)\Microsoft Visual Studio\2019\Community\VC\Tools\MSVC\14.28.29333\include\utility

; 105  :     _Left    = _STD move(_Right);

  00642	8b 07		 mov	 eax, DWORD PTR [edi]
  00644	89 02		 mov	 DWORD PTR [edx], eax
; File C:\Program Files (x86)\Microsoft Visual Studio\2019\Community\VC\Tools\MSVC\14.28.29333\include\algorithm

; 7529 :         } else {

  00646	8b 45 10	 mov	 eax, DWORD PTR __Last$[ebp]
; File C:\Program Files (x86)\Microsoft Visual Studio\2019\Community\VC\Tools\MSVC\14.28.29333\include\utility

; 106  :     _Right   = _STD move(_Tmp);

  00649	89 0f		 mov	 DWORD PTR [edi], ecx
; File C:\Program Files (x86)\Microsoft Visual Studio\2019\Community\VC\Tools\MSVC\14.28.29333\include\algorithm

; 7529 :         } else {

  0064b	e9 d3 fc ff ff	 jmp	 $LL6@Partition_
$LN30@Partition_:
; File C:\Program Files (x86)\Microsoft Visual Studio\2019\Community\VC\Tools\MSVC\14.28.29333\include\utility

; 104  :     _Ty _Tmp = _STD move(_Left);

  00650	8b 0b		 mov	 ecx, DWORD PTR [ebx]

; 105  :     _Left    = _STD move(_Right);

  00652	8b 06		 mov	 eax, DWORD PTR [esi]
  00654	89 03		 mov	 DWORD PTR [ebx], eax
; File C:\Program Files (x86)\Microsoft Visual Studio\2019\Community\VC\Tools\MSVC\14.28.29333\include\algorithm

; 7531 :             ++_Gfirst;

  00656	83 c3 04	 add	 ebx, 4

; 7533 :     }

  00659	8b 45 10	 mov	 eax, DWORD PTR __Last$[ebp]
; File C:\Program Files (x86)\Microsoft Visual Studio\2019\Community\VC\Tools\MSVC\14.28.29333\include\utility

; 106  :     _Right   = _STD move(_Tmp);

  0065c	89 0e		 mov	 DWORD PTR [esi], ecx
; File C:\Program Files (x86)\Microsoft Visual Studio\2019\Community\VC\Tools\MSVC\14.28.29333\include\algorithm

; 7533 :     }

  0065e	e9 ba fc ff ff	 jmp	 $LN221@Partition_
$LN188@Partition_:
; File C:\Program Files (x86)\Microsoft Visual Studio\2019\Community\VC\Tools\MSVC\14.28.29333\include\utility

; 190  :         : first(_STD forward<_Other1>(_Val1)), second(_STD forward<_Other2>(_Val2)) {}

  00663	8b 45 08	 mov	 eax, DWORD PTR ___$ReturnUdt$[ebp]
  00666	8b 4d fc	 mov	 ecx, DWORD PTR __Pfirst$1$[ebp]
; File C:\Program Files (x86)\Microsoft Visual Studio\2019\Community\VC\Tools\MSVC\14.28.29333\include\algorithm

; 7511 :             return pair<_RanIt, _RanIt>(_Pfirst, _Plast);

  00669	5f		 pop	 edi
  0066a	5e		 pop	 esi
; File C:\Program Files (x86)\Microsoft Visual Studio\2019\Community\VC\Tools\MSVC\14.28.29333\include\utility

; 190  :         : first(_STD forward<_Other1>(_Val1)), second(_STD forward<_Other2>(_Val2)) {}

  0066b	89 08		 mov	 DWORD PTR [eax], ecx
  0066d	8b 4d 14	 mov	 ecx, DWORD PTR __Plast$1$[ebp]
  00670	89 48 04	 mov	 DWORD PTR [eax+4], ecx
; File C:\Program Files (x86)\Microsoft Visual Studio\2019\Community\VC\Tools\MSVC\14.28.29333\include\algorithm

; 7511 :             return pair<_RanIt, _RanIt>(_Pfirst, _Plast);

  00673	5b		 pop	 ebx

; 7534 : }

  00674	8b e5		 mov	 esp, ebp
  00676	5d		 pop	 ebp
  00677	c3		 ret	 0
??$_Partition_by_median_guess_unchecked@PAPAVCGraphicThingInstance@@UCMapOutdoor_LessThingInstancePtrRenderOrder@@@std@@YA?AU?$pair@PAPAVCGraphicThingInstance@@PAPAV1@@0@PAPAVCGraphicThingInstance@@0UCMapOutdoor_LessThingInstancePtrRenderOrder@@@Z ENDP ; std::_Partition_by_median_guess_unchecked<CGraphicThingInstance * *,CMapOutdoor_LessThingInstancePtrRenderOrder>
_TEXT	ENDS
; Function compile flags: /Ogtp
; File C:\Program Files (x86)\Microsoft Visual Studio\2019\Community\VC\Tools\MSVC\14.28.29333\include\algorithm
; File D:\Metin2 Server Files\mainline\SRC_2014\Metin2Client\GameLib\MapOutdoorRender.cpp
; File C:\Program Files (x86)\Microsoft Visual Studio\2019\Community\VC\Tools\MSVC\14.28.29333\include\algorithm
; File D:\Metin2 Server Files\mainline\SRC_2014\Metin2Client\GameLib\MapOutdoorRender.cpp
; File D:\Metin2 Server Files\mainline\SRC_2014\M2Data\include\d3dx8math.inl
; File C:\Program Files (x86)\Microsoft Visual Studio\2019\Community\VC\Tools\MSVC\14.28.29333\include\algorithm
; File D:\Metin2 Server Files\mainline\SRC_2014\M2Data\include\d3dx8math.inl
; File C:\Program Files (x86)\Microsoft Visual Studio\2019\Community\VC\Tools\MSVC\14.28.29333\include\algorithm
; File D:\Metin2 Server Files\mainline\SRC_2014\M2Data\include\d3dx8math.inl
; File C:\Program Files (x86)\Microsoft Visual Studio\2019\Community\VC\Tools\MSVC\14.28.29333\include\algorithm
; File D:\Metin2 Server Files\mainline\SRC_2014\M2Data\include\d3dx8math.inl
; File D:\Metin2 Server Files\mainline\SRC_2014\Metin2Client\GameLib\MapOutdoorRender.cpp
; File D:\Metin2 Server Files\mainline\SRC_2014\M2Data\include\d3dx8math.inl
; File C:\Program Files (x86)\Microsoft Visual Studio\2019\Community\VC\Tools\MSVC\14.28.29333\include\algorithm
; File D:\Metin2 Server Files\mainline\SRC_2014\Metin2Client\GameLib\MapOutdoorRender.cpp
; File C:\Program Files (x86)\Microsoft Visual Studio\2019\Community\VC\Tools\MSVC\14.28.29333\include\algorithm
; File D:\Metin2 Server Files\mainline\SRC_2014\Metin2Client\GameLib\MapOutdoorRender.cpp
; File D:\Metin2 Server Files\mainline\SRC_2014\M2Data\include\d3dx8math.inl
; File C:\Program Files (x86)\Microsoft Visual Studio\2019\Community\VC\Tools\MSVC\14.28.29333\include\algorithm
; File D:\Metin2 Server Files\mainline\SRC_2014\M2Data\include\d3dx8math.inl
; File C:\Program Files (x86)\Microsoft Visual Studio\2019\Community\VC\Tools\MSVC\14.28.29333\include\algorithm
; File D:\Metin2 Server Files\mainline\SRC_2014\M2Data\include\d3dx8math.inl
; File D:\Metin2 Server Files\mainline\SRC_2014\Metin2Client\GameLib\MapOutdoorRender.cpp
; File D:\Metin2 Server Files\mainline\SRC_2014\M2Data\include\d3dx8math.inl
; File D:\Metin2 Server Files\mainline\SRC_2014\Metin2Client\GameLib\MapOutdoorRender.cpp
; File C:\Program Files (x86)\Microsoft Visual Studio\2019\Community\VC\Tools\MSVC\14.28.29333\include\algorithm
;	COMDAT ??$_Make_heap_unchecked@PAPAVCGraphicThingInstance@@UCMapOutdoor_LessThingInstancePtrRenderOrder@@@std@@YAXPAPAVCGraphicThingInstance@@0UCMapOutdoor_LessThingInstancePtrRenderOrder@@@Z
_TEXT	SEGMENT
tv1011 = -24						; size = 4
tv1009 = -20						; size = 4
__Idx$1$ = -20						; size = 4
__Val$1$ = -16						; size = 4
__Max_sequence_non_leaf$1$ = -12			; size = 4
__Hole$1$ = -8						; size = 4
__Hole$1$ = -4						; size = 4
__First$ = 8						; size = 4
__Last$ = 12						; size = 4
__Pred$ = 16						; size = 1
??$_Make_heap_unchecked@PAPAVCGraphicThingInstance@@UCMapOutdoor_LessThingInstancePtrRenderOrder@@@std@@YAXPAPAVCGraphicThingInstance@@0UCMapOutdoor_LessThingInstancePtrRenderOrder@@@Z PROC ; std::_Make_heap_unchecked<CGraphicThingInstance * *,CMapOutdoor_LessThingInstancePtrRenderOrder>, COMDAT

; 6357 : _CONSTEXPR20 void _Make_heap_unchecked(_RanIt _First, _RanIt _Last, _Pr _Pred) {

  00000	55		 push	 ebp
  00001	8b ec		 mov	 ebp, esp

; 6358 :     // make [_First, _Last) into a heap
; 6359 :     using _Diff   = _Iter_diff_t<_RanIt>;
; 6360 :     _Diff _Bottom = _Last - _First;

  00003	8b 45 0c	 mov	 eax, DWORD PTR __Last$[ebp]
  00006	83 ec 18	 sub	 esp, 24			; 00000018H
  00009	8b 55 08	 mov	 edx, DWORD PTR __First$[ebp]
  0000c	2b c2		 sub	 eax, edx
  0000e	c1 f8 02	 sar	 eax, 2
  00011	89 45 0c	 mov	 DWORD PTR __Last$[ebp], eax
  00014	53		 push	 ebx

; 6361 :     for (_Diff _Hole = _Bottom >> 1; _Hole > 0;) { // shift for codegen

  00015	8b d8		 mov	 ebx, eax
  00017	d1 fb		 sar	 ebx, 1
  00019	85 db		 test	 ebx, ebx
  0001b	0f 8e c0 01 00
	00		 jle	 $LN3@Make_heap_
  00021	56		 push	 esi
  00022	57		 push	 edi
  00023	8d 78 ff	 lea	 edi, DWORD PTR [eax-1]
  00026	8b f7		 mov	 esi, edi
  00028	89 7d e8	 mov	 DWORD PTR tv1011[ebp], edi
  0002b	d1 fe		 sar	 esi, 1
  0002d	89 75 f4	 mov	 DWORD PTR __Max_sequence_non_leaf$1$[ebp], esi
$LL2@Make_heap_:

; 6362 :         // reheap top half, bottom to top
; 6363 :         --_Hole;
; 6364 :         _Iter_value_t<_RanIt> _Val = _STD move(*(_First + _Hole));

  00030	8b 4c 9a fc	 mov	 ecx, DWORD PTR [edx+ebx*4-4]
  00034	4b		 dec	 ebx
  00035	89 4d f0	 mov	 DWORD PTR __Val$1$[ebp], ecx

; 6365 :         _Pop_heap_hole_by_index(_First, _Hole, _Bottom, _STD move(_Val), _Pred);

  00038	8b cb		 mov	 ecx, ebx
  0003a	89 5d f8	 mov	 DWORD PTR __Hole$1$[ebp], ebx
  0003d	89 4d fc	 mov	 DWORD PTR __Hole$1$[ebp], ecx

; 6192 :     _Diff _Idx       = _Hole;

  00040	89 5d ec	 mov	 DWORD PTR __Idx$1$[ebp], ebx

; 6197 :     while (_Idx < _Max_sequence_non_leaf) { // move _Hole down to larger child

  00043	3b de		 cmp	 ebx, esi
  00045	0f 8d bd 00 00
	00		 jge	 $LN8@Make_heap_
  0004b	0f 1f 44 00 00	 npad	 5
$LL7@Make_heap_:
; File D:\Metin2 Server Files\mainline\SRC_2014\Metin2Client\GameLib\MapOutdoorRender.cpp

; 357  : 		CCamera * pCurrentCamera = CCameraManager::Instance().GetCurrentCamera();

  00050	8b 0d 00 00 00
	00		 mov	 ecx, DWORD PTR ?ms_singleton@?$CSingleton@VCCameraManager@@@@0PAVCCameraManager@@A ; CSingleton<CCameraManager>::ms_singleton
; File C:\Program Files (x86)\Microsoft Visual Studio\2019\Community\VC\Tools\MSVC\14.28.29333\include\algorithm

; 6198 :         _Idx = 2 * _Idx + 2;

  00056	8d 04 1b	 lea	 eax, DWORD PTR [ebx+ebx]

; 6199 :         if (_DEBUG_LT_PRED(_Pred, *(_First + _Idx), *(_First + (_Idx - 1)))) {

  00059	8b 7c 82 04	 mov	 edi, DWORD PTR [edx+eax*4+4]
  0005d	8b 74 82 08	 mov	 esi, DWORD PTR [edx+eax*4+8]
  00061	89 45 ec	 mov	 DWORD PTR tv1009[ebp], eax
; File D:\Metin2 Server Files\mainline\SRC_2014\Metin2Client\GameLib\MapOutdoorRender.cpp

; 357  : 		CCamera * pCurrentCamera = CCameraManager::Instance().GetCurrentCamera();

  00064	e8 00 00 00 00	 call	 ?GetCurrentCamera@CCameraManager@@QAEPAVCCamera@@XZ ; CCameraManager::GetCurrentCamera

; 358  : 		const D3DXVECTOR3 & c_rv3CameraPos = pCurrentCamera->GetEye();
; 359  : 		const D3DXVECTOR3 & c_v3LeftPos  = pkLeft->GetPosition();

  00069	8b ce		 mov	 ecx, esi
  0006b	8b d8		 mov	 ebx, eax
  0006d	e8 00 00 00 00	 call	 ?GetPosition@CGraphicObjectInstance@@QBEABUD3DXVECTOR3@@XZ ; CGraphicObjectInstance::GetPosition

; 360  : 		const D3DXVECTOR3 & c_v3RightPos = pkRight->GetPosition();

  00072	8b cf		 mov	 ecx, edi
  00074	8b f0		 mov	 esi, eax
  00076	e8 00 00 00 00	 call	 ?GetPosition@CGraphicObjectInstance@@QBEABUD3DXVECTOR3@@XZ ; CGraphicObjectInstance::GetPosition
; File D:\Metin2 Server Files\mainline\SRC_2014\M2Data\include\d3dx8math.inl

; 263  :     return D3DXVECTOR3(x - v.x, y - v.y, z - v.z);

  0007b	f3 0f 10 6b 30	 movss	 xmm5, DWORD PTR [ebx+48]
  00080	f3 0f 10 63 34	 movss	 xmm4, DWORD PTR [ebx+52]
  00085	0f 28 cd	 movaps	 xmm1, xmm5
  00088	f3 0f 10 53 38	 movss	 xmm2, DWORD PTR [ebx+56]
  0008d	0f 28 dc	 movaps	 xmm3, xmm4
  00090	f3 0f 5c 5e 04	 subss	 xmm3, DWORD PTR [esi+4]
  00095	f3 0f 5c 60 04	 subss	 xmm4, DWORD PTR [eax+4]
  0009a	f3 0f 5c 0e	 subss	 xmm1, DWORD PTR [esi]
  0009e	f3 0f 5c 28	 subss	 xmm5, DWORD PTR [eax]
  000a2	0f 28 c2	 movaps	 xmm0, xmm2
; File C:\Program Files (x86)\Microsoft Visual Studio\2019\Community\VC\Tools\MSVC\14.28.29333\include\algorithm

; 6202 :         *(_First + _Hole) = _STD move(*(_First + _Idx));

  000a5	8b 55 08	 mov	 edx, DWORD PTR __First$[ebp]
; File D:\Metin2 Server Files\mainline\SRC_2014\M2Data\include\d3dx8math.inl

; 263  :     return D3DXVECTOR3(x - v.x, y - v.y, z - v.z);

  000a8	f3 0f 5c 46 08	 subss	 xmm0, DWORD PTR [esi+8]
  000ad	f3 0f 5c 50 08	 subss	 xmm2, DWORD PTR [eax+8]

; 1253 :     return pV->x * pV->x + pV->y * pV->y + pV->z * pV->z;

  000b2	f3 0f 59 db	 mulss	 xmm3, xmm3
; File C:\Program Files (x86)\Microsoft Visual Studio\2019\Community\VC\Tools\MSVC\14.28.29333\include\algorithm

; 6202 :         *(_First + _Hole) = _STD move(*(_First + _Idx));

  000b6	33 db		 xor	 ebx, ebx
  000b8	8b 4d fc	 mov	 ecx, DWORD PTR __Hole$1$[ebp]
; File D:\Metin2 Server Files\mainline\SRC_2014\M2Data\include\d3dx8math.inl

; 1253 :     return pV->x * pV->x + pV->y * pV->y + pV->z * pV->z;

  000bb	f3 0f 59 e4	 mulss	 xmm4, xmm4
; File C:\Program Files (x86)\Microsoft Visual Studio\2019\Community\VC\Tools\MSVC\14.28.29333\include\algorithm

; 6197 :     while (_Idx < _Max_sequence_non_leaf) { // move _Hole down to larger child

  000bf	8b 75 f4	 mov	 esi, DWORD PTR __Max_sequence_non_leaf$1$[ebp]
; File D:\Metin2 Server Files\mainline\SRC_2014\M2Data\include\d3dx8math.inl

; 182  :     z = fz;

  000c2	f3 0f 59 c9	 mulss	 xmm1, xmm1
; File D:\Metin2 Server Files\mainline\SRC_2014\Metin2Client\GameLib\MapOutdoorRender.cpp

; 362  : 		return D3DXVec3LengthSq(&D3DXVECTOR3(c_rv3CameraPos - c_v3LeftPos)) < D3DXVec3LengthSq(&D3DXVECTOR3(c_rv3CameraPos - c_v3RightPos) );	

  000c6	f3 0f 59 ed	 mulss	 xmm5, xmm5
; File D:\Metin2 Server Files\mainline\SRC_2014\M2Data\include\d3dx8math.inl

; 1253 :     return pV->x * pV->x + pV->y * pV->y + pV->z * pV->z;

  000ca	f3 0f 58 d9	 addss	 xmm3, xmm1
  000ce	f3 0f 59 c0	 mulss	 xmm0, xmm0
  000d2	f3 0f 58 e5	 addss	 xmm4, xmm5
  000d6	f3 0f 59 d2	 mulss	 xmm2, xmm2
  000da	f3 0f 58 d8	 addss	 xmm3, xmm0
  000de	f3 0f 58 e2	 addss	 xmm4, xmm2
; File C:\Program Files (x86)\Microsoft Visual Studio\2019\Community\VC\Tools\MSVC\14.28.29333\include\algorithm

; 6202 :         *(_First + _Hole) = _STD move(*(_First + _Idx));

  000e2	0f 2f e3	 comiss	 xmm4, xmm3
  000e5	0f 96 c3	 setbe	 bl
  000e8	43		 inc	 ebx
  000e9	03 5d ec	 add	 ebx, DWORD PTR tv1009[ebp]
  000ec	8b 04 9a	 mov	 eax, DWORD PTR [edx+ebx*4]
  000ef	89 04 8a	 mov	 DWORD PTR [edx+ecx*4], eax

; 6203 :         _Hole             = _Idx;

  000f2	8b cb		 mov	 ecx, ebx
  000f4	89 4d fc	 mov	 DWORD PTR __Hole$1$[ebp], ecx
  000f7	3b de		 cmp	 ebx, esi
  000f9	0f 8c 51 ff ff
	ff		 jl	 $LL7@Make_heap_
  000ff	8b 5d f8	 mov	 ebx, DWORD PTR __Hole$1$[ebp]
  00102	8b 45 0c	 mov	 eax, DWORD PTR __Last$[ebp]
  00105	8b 7d e8	 mov	 edi, DWORD PTR tv1011[ebp]
$LN8@Make_heap_:

; 6204 :     }
; 6205 : 
; 6206 :     if (_Idx == _Max_sequence_non_leaf && _Bottom % 2 == 0) { // only child at bottom, move _Hole down to it

  00108	3b ce		 cmp	 ecx, esi
  0010a	75 10		 jne	 SHORT $LN10@Make_heap_
  0010c	a8 01		 test	 al, 1
  0010e	75 0c		 jne	 SHORT $LN10@Make_heap_

; 6207 :         *(_First + _Hole) = _STD move(*(_First + (_Bottom - 1)));

  00110	8b 44 82 fc	 mov	 eax, DWORD PTR [edx+eax*4-4]
  00114	89 04 8a	 mov	 DWORD PTR [edx+ecx*4], eax

; 6208 :         _Hole             = _Bottom - 1;

  00117	8b cf		 mov	 ecx, edi
  00119	89 4d fc	 mov	 DWORD PTR __Hole$1$[ebp], ecx
$LN10@Make_heap_:

; 6077 :          _Top < _Hole && _DEBUG_LT_PRED(_Pred, *(_First + _Idx), _Val); //

  0011c	3b d9		 cmp	 ebx, ecx
  0011e	0f 8d a7 00 00
	00		 jge	 $LN28@Make_heap_
$LL29@Make_heap_:

; 6076 :     for (_Diff _Idx = (_Hole - 1) >> 1; // shift for codegen

  00124	8d 59 ff	 lea	 ebx, DWORD PTR [ecx-1]
; File D:\Metin2 Server Files\mainline\SRC_2014\Metin2Client\GameLib\MapOutdoorRender.cpp

; 357  : 		CCamera * pCurrentCamera = CCameraManager::Instance().GetCurrentCamera();

  00127	8b 0d 00 00 00
	00		 mov	 ecx, DWORD PTR ?ms_singleton@?$CSingleton@VCCameraManager@@@@0PAVCCameraManager@@A ; CSingleton<CCameraManager>::ms_singleton
; File C:\Program Files (x86)\Microsoft Visual Studio\2019\Community\VC\Tools\MSVC\14.28.29333\include\algorithm

; 6076 :     for (_Diff _Idx = (_Hole - 1) >> 1; // shift for codegen

  0012d	d1 fb		 sar	 ebx, 1

; 6077 :          _Top < _Hole && _DEBUG_LT_PRED(_Pred, *(_First + _Idx), _Val); //

  0012f	8b 34 9a	 mov	 esi, DWORD PTR [edx+ebx*4]
; File D:\Metin2 Server Files\mainline\SRC_2014\Metin2Client\GameLib\MapOutdoorRender.cpp

; 357  : 		CCamera * pCurrentCamera = CCameraManager::Instance().GetCurrentCamera();

  00132	e8 00 00 00 00	 call	 ?GetCurrentCamera@CCameraManager@@QAEPAVCCamera@@XZ ; CCameraManager::GetCurrentCamera

; 358  : 		const D3DXVECTOR3 & c_rv3CameraPos = pCurrentCamera->GetEye();
; 359  : 		const D3DXVECTOR3 & c_v3LeftPos  = pkLeft->GetPosition();

  00137	8b ce		 mov	 ecx, esi
  00139	8b f8		 mov	 edi, eax
  0013b	e8 00 00 00 00	 call	 ?GetPosition@CGraphicObjectInstance@@QBEABUD3DXVECTOR3@@XZ ; CGraphicObjectInstance::GetPosition

; 360  : 		const D3DXVECTOR3 & c_v3RightPos = pkRight->GetPosition();

  00140	8b 4d f0	 mov	 ecx, DWORD PTR __Val$1$[ebp]
  00143	8b f0		 mov	 esi, eax
  00145	e8 00 00 00 00	 call	 ?GetPosition@CGraphicObjectInstance@@QBEABUD3DXVECTOR3@@XZ ; CGraphicObjectInstance::GetPosition
; File D:\Metin2 Server Files\mainline\SRC_2014\M2Data\include\d3dx8math.inl

; 263  :     return D3DXVECTOR3(x - v.x, y - v.y, z - v.z);

  0014a	f3 0f 10 6f 30	 movss	 xmm5, DWORD PTR [edi+48]
  0014f	f3 0f 10 67 34	 movss	 xmm4, DWORD PTR [edi+52]
  00154	0f 28 cd	 movaps	 xmm1, xmm5
  00157	f3 0f 5c 0e	 subss	 xmm1, DWORD PTR [esi]
  0015b	f3 0f 5c 28	 subss	 xmm5, DWORD PTR [eax]
  0015f	f3 0f 10 57 38	 movss	 xmm2, DWORD PTR [edi+56]
  00164	0f 28 dc	 movaps	 xmm3, xmm4
  00167	f3 0f 5c 5e 04	 subss	 xmm3, DWORD PTR [esi+4]
  0016c	f3 0f 5c 60 04	 subss	 xmm4, DWORD PTR [eax+4]
; File C:\Program Files (x86)\Microsoft Visual Studio\2019\Community\VC\Tools\MSVC\14.28.29333\include\algorithm

; 6077 :          _Top < _Hole && _DEBUG_LT_PRED(_Pred, *(_First + _Idx), _Val); //

  00171	8b 55 08	 mov	 edx, DWORD PTR __First$[ebp]
; File D:\Metin2 Server Files\mainline\SRC_2014\M2Data\include\d3dx8math.inl

; 263  :     return D3DXVECTOR3(x - v.x, y - v.y, z - v.z);

  00174	0f 28 c2	 movaps	 xmm0, xmm2
  00177	f3 0f 5c 46 08	 subss	 xmm0, DWORD PTR [esi+8]
  0017c	f3 0f 5c 50 08	 subss	 xmm2, DWORD PTR [eax+8]
; File C:\Program Files (x86)\Microsoft Visual Studio\2019\Community\VC\Tools\MSVC\14.28.29333\include\algorithm

; 6077 :          _Top < _Hole && _DEBUG_LT_PRED(_Pred, *(_First + _Idx), _Val); //

  00181	8b 4d fc	 mov	 ecx, DWORD PTR __Hole$1$[ebp]
; File D:\Metin2 Server Files\mainline\SRC_2014\M2Data\include\d3dx8math.inl

; 1253 :     return pV->x * pV->x + pV->y * pV->y + pV->z * pV->z;

  00184	f3 0f 59 db	 mulss	 xmm3, xmm3
  00188	f3 0f 59 e4	 mulss	 xmm4, xmm4

; 182  :     z = fz;

  0018c	f3 0f 59 c9	 mulss	 xmm1, xmm1
; File D:\Metin2 Server Files\mainline\SRC_2014\Metin2Client\GameLib\MapOutdoorRender.cpp

; 362  : 		return D3DXVec3LengthSq(&D3DXVECTOR3(c_rv3CameraPos - c_v3LeftPos)) < D3DXVec3LengthSq(&D3DXVECTOR3(c_rv3CameraPos - c_v3RightPos) );	

  00190	f3 0f 59 ed	 mulss	 xmm5, xmm5
; File D:\Metin2 Server Files\mainline\SRC_2014\M2Data\include\d3dx8math.inl

; 1253 :     return pV->x * pV->x + pV->y * pV->y + pV->z * pV->z;

  00194	f3 0f 58 d9	 addss	 xmm3, xmm1
  00198	f3 0f 59 c0	 mulss	 xmm0, xmm0
  0019c	f3 0f 58 e5	 addss	 xmm4, xmm5
  001a0	f3 0f 59 d2	 mulss	 xmm2, xmm2
  001a4	f3 0f 58 d8	 addss	 xmm3, xmm0
  001a8	f3 0f 58 e2	 addss	 xmm4, xmm2
; File D:\Metin2 Server Files\mainline\SRC_2014\Metin2Client\GameLib\MapOutdoorRender.cpp

; 362  : 		return D3DXVec3LengthSq(&D3DXVECTOR3(c_rv3CameraPos - c_v3LeftPos)) < D3DXVec3LengthSq(&D3DXVECTOR3(c_rv3CameraPos - c_v3RightPos) );	

  001ac	0f 2f e3	 comiss	 xmm4, xmm3
; File C:\Program Files (x86)\Microsoft Visual Studio\2019\Community\VC\Tools\MSVC\14.28.29333\include\algorithm

; 6077 :          _Top < _Hole && _DEBUG_LT_PRED(_Pred, *(_First + _Idx), _Val); //

  001af	76 14		 jbe	 SHORT $LN57@Make_heap_

; 6078 :          _Idx = (_Hole - 1) >> 1) { // shift for codegen
; 6079 :         // move _Hole up to parent
; 6080 :         *(_First + _Hole) = _STD move(*(_First + _Idx));

  001b1	8b 04 9a	 mov	 eax, DWORD PTR [edx+ebx*4]
  001b4	89 04 8a	 mov	 DWORD PTR [edx+ecx*4], eax

; 6081 :         _Hole             = _Idx;

  001b7	8b cb		 mov	 ecx, ebx
  001b9	89 4d fc	 mov	 DWORD PTR __Hole$1$[ebp], ecx
  001bc	39 5d f8	 cmp	 DWORD PTR __Hole$1$[ebp], ebx
  001bf	0f 8c 5f ff ff
	ff		 jl	 $LL29@Make_heap_
$LN57@Make_heap_:
  001c5	8b 5d f8	 mov	 ebx, DWORD PTR __Hole$1$[ebp]
  001c8	8b 75 f4	 mov	 esi, DWORD PTR __Max_sequence_non_leaf$1$[ebp]
$LN28@Make_heap_:

; 6082 :     }
; 6083 : 
; 6084 :     *(_First + _Hole) = _STD forward<_Ty>(_Val); // drop _Val into final hole

  001cb	8b 45 f0	 mov	 eax, DWORD PTR __Val$1$[ebp]
  001ce	89 04 8a	 mov	 DWORD PTR [edx+ecx*4], eax

; 6361 :     for (_Diff _Hole = _Bottom >> 1; _Hole > 0;) { // shift for codegen

  001d1	8b 45 0c	 mov	 eax, DWORD PTR __Last$[ebp]
  001d4	8d 78 ff	 lea	 edi, DWORD PTR [eax-1]
  001d7	85 db		 test	 ebx, ebx
  001d9	0f 8f 51 fe ff
	ff		 jg	 $LL2@Make_heap_
  001df	5f		 pop	 edi
  001e0	5e		 pop	 esi
$LN3@Make_heap_:
  001e1	5b		 pop	 ebx

; 6366 :     }
; 6367 : }

  001e2	8b e5		 mov	 esp, ebp
  001e4	5d		 pop	 ebp
  001e5	c3		 ret	 0
??$_Make_heap_unchecked@PAPAVCGraphicThingInstance@@UCMapOutdoor_LessThingInstancePtrRenderOrder@@@std@@YAXPAPAVCGraphicThingInstance@@0UCMapOutdoor_LessThingInstancePtrRenderOrder@@@Z ENDP ; std::_Make_heap_unchecked<CGraphicThingInstance * *,CMapOutdoor_LessThingInstancePtrRenderOrder>
_TEXT	ENDS
; Function compile flags: /Ogtp
; File C:\Program Files (x86)\Microsoft Visual Studio\2019\Community\VC\Tools\MSVC\14.28.29333\include\algorithm
; File D:\Metin2 Server Files\mainline\SRC_2014\Metin2Client\GameLib\MapOutdoorRender.cpp
; File C:\Program Files (x86)\Microsoft Visual Studio\2019\Community\VC\Tools\MSVC\14.28.29333\include\algorithm
; File D:\Metin2 Server Files\mainline\SRC_2014\Metin2Client\GameLib\MapOutdoorRender.cpp
; File D:\Metin2 Server Files\mainline\SRC_2014\M2Data\include\d3dx8math.inl
; File D:\Metin2 Server Files\mainline\SRC_2014\Metin2Client\GameLib\MapOutdoorRender.cpp
; File D:\Metin2 Server Files\mainline\SRC_2014\M2Data\include\d3dx8math.inl
; File D:\Metin2 Server Files\mainline\SRC_2014\Metin2Client\GameLib\MapOutdoorRender.cpp
; File C:\Program Files (x86)\Microsoft Visual Studio\2019\Community\VC\Tools\MSVC\14.28.29333\include\algorithm
; File C:\Program Files (x86)\Microsoft Visual Studio\2019\Community\VC\Tools\MSVC\14.28.29333\include\xutility
; File C:\Program Files (x86)\Microsoft Visual Studio\2019\Community\VC\Tools\MSVC\14.28.29333\include\algorithm
; File C:\Program Files (x86)\Microsoft Visual Studio\2019\Community\VC\Tools\MSVC\14.28.29333\include\xutility
; File C:\Program Files (x86)\Microsoft Visual Studio\2019\Community\VC\Tools\MSVC\14.28.29333\include\algorithm
; File D:\Metin2 Server Files\mainline\SRC_2014\Metin2Client\GameLib\MapOutdoorRender.cpp
; File C:\Program Files (x86)\Microsoft Visual Studio\2019\Community\VC\Tools\MSVC\14.28.29333\include\algorithm
; File D:\Metin2 Server Files\mainline\SRC_2014\Metin2Client\GameLib\MapOutdoorRender.cpp
; File D:\Metin2 Server Files\mainline\SRC_2014\M2Data\include\d3dx8math.inl
; File D:\Metin2 Server Files\mainline\SRC_2014\Metin2Client\GameLib\MapOutdoorRender.cpp
; File D:\Metin2 Server Files\mainline\SRC_2014\M2Data\include\d3dx8math.inl
; File D:\Metin2 Server Files\mainline\SRC_2014\Metin2Client\GameLib\MapOutdoorRender.cpp
; File C:\Program Files (x86)\Microsoft Visual Studio\2019\Community\VC\Tools\MSVC\14.28.29333\include\algorithm
; File D:\Metin2 Server Files\mainline\SRC_2014\Metin2Client\GameLib\MapOutdoorRender.cpp
; File D:\Metin2 Server Files\mainline\SRC_2014\M2Data\include\d3dx8math.inl
; File D:\Metin2 Server Files\mainline\SRC_2014\Metin2Client\GameLib\MapOutdoorRender.cpp
; File D:\Metin2 Server Files\mainline\SRC_2014\M2Data\include\d3dx8math.inl
; File D:\Metin2 Server Files\mainline\SRC_2014\Metin2Client\GameLib\MapOutdoorRender.cpp
; File C:\Program Files (x86)\Microsoft Visual Studio\2019\Community\VC\Tools\MSVC\14.28.29333\include\algorithm
;	COMDAT ??$_Insertion_sort_unchecked@PAPAVCGraphicThingInstance@@UCMapOutdoor_LessThingInstancePtrRenderOrder@@@std@@YAPAPAVCGraphicThingInstance@@QAPAV1@0UCMapOutdoor_LessThingInstancePtrRenderOrder@@@Z
_TEXT	SEGMENT
__Prev$1$ = -16						; size = 4
__Hole$1$ = -12						; size = 4
__Mid$1$ = -8						; size = 4
__Val$1$ = -4						; size = 4
__First$ = 8						; size = 4
__Last$ = 12						; size = 4
__Pred$ = 16						; size = 1
??$_Insertion_sort_unchecked@PAPAVCGraphicThingInstance@@UCMapOutdoor_LessThingInstancePtrRenderOrder@@@std@@YAPAPAVCGraphicThingInstance@@QAPAV1@0UCMapOutdoor_LessThingInstancePtrRenderOrder@@@Z PROC ; std::_Insertion_sort_unchecked<CGraphicThingInstance * *,CMapOutdoor_LessThingInstancePtrRenderOrder>, COMDAT

; 7410 : _CONSTEXPR20 _BidIt _Insertion_sort_unchecked(const _BidIt _First, const _BidIt _Last, _Pr _Pred) {

  00000	55		 push	 ebp
  00001	8b ec		 mov	 ebp, esp

; 7411 :     // insertion sort [_First, _Last)
; 7412 :     if (_First != _Last) {

  00003	8b 45 0c	 mov	 eax, DWORD PTR __Last$[ebp]
  00006	83 ec 10	 sub	 esp, 16			; 00000010H
  00009	56		 push	 esi
  0000a	8b 75 08	 mov	 esi, DWORD PTR __First$[ebp]
  0000d	3b f0		 cmp	 esi, eax
  0000f	0f 84 04 02 00
	00		 je	 $LN3@Insertion_

; 7413 :         for (_BidIt _Mid = _First; ++_Mid != _Last;) { // order next element

  00015	53		 push	 ebx
  00016	8d 5e 04	 lea	 ebx, DWORD PTR [esi+4]
  00019	89 5d f8	 mov	 DWORD PTR __Mid$1$[ebp], ebx
  0001c	3b d8		 cmp	 ebx, eax
  0001e	0f 84 f4 01 00
	00		 je	 $LN53@Insertion_
  00024	57		 push	 edi
$LL2@Insertion_:

; 7414 :             _BidIt _Hole               = _Mid;
; 7415 :             _Iter_value_t<_BidIt> _Val = _STD move(*_Mid);

  00025	8b 3b		 mov	 edi, DWORD PTR [ebx]
; File D:\Metin2 Server Files\mainline\SRC_2014\Metin2Client\GameLib\MapOutdoorRender.cpp

; 357  : 		CCamera * pCurrentCamera = CCameraManager::Instance().GetCurrentCamera();

  00027	8b 0d 00 00 00
	00		 mov	 ecx, DWORD PTR ?ms_singleton@?$CSingleton@VCCameraManager@@@@0PAVCCameraManager@@A ; CSingleton<CCameraManager>::ms_singleton
; File C:\Program Files (x86)\Microsoft Visual Studio\2019\Community\VC\Tools\MSVC\14.28.29333\include\algorithm

; 7417 :             if (_DEBUG_LT_PRED(_Pred, _Val, *_First)) { // found new earliest element, move to front

  0002d	8b 36		 mov	 esi, DWORD PTR [esi]
  0002f	89 5d f4	 mov	 DWORD PTR __Hole$1$[ebp], ebx
  00032	89 7d fc	 mov	 DWORD PTR __Val$1$[ebp], edi
; File D:\Metin2 Server Files\mainline\SRC_2014\Metin2Client\GameLib\MapOutdoorRender.cpp

; 357  : 		CCamera * pCurrentCamera = CCameraManager::Instance().GetCurrentCamera();

  00035	e8 00 00 00 00	 call	 ?GetCurrentCamera@CCameraManager@@QAEPAVCCamera@@XZ ; CCameraManager::GetCurrentCamera

; 358  : 		const D3DXVECTOR3 & c_rv3CameraPos = pCurrentCamera->GetEye();
; 359  : 		const D3DXVECTOR3 & c_v3LeftPos  = pkLeft->GetPosition();

  0003a	8b cf		 mov	 ecx, edi
  0003c	8b d8		 mov	 ebx, eax
  0003e	e8 00 00 00 00	 call	 ?GetPosition@CGraphicObjectInstance@@QBEABUD3DXVECTOR3@@XZ ; CGraphicObjectInstance::GetPosition

; 360  : 		const D3DXVECTOR3 & c_v3RightPos = pkRight->GetPosition();

  00043	8b ce		 mov	 ecx, esi
  00045	8b f8		 mov	 edi, eax
  00047	e8 00 00 00 00	 call	 ?GetPosition@CGraphicObjectInstance@@QBEABUD3DXVECTOR3@@XZ ; CGraphicObjectInstance::GetPosition
; File D:\Metin2 Server Files\mainline\SRC_2014\M2Data\include\d3dx8math.inl

; 263  :     return D3DXVECTOR3(x - v.x, y - v.y, z - v.z);

  0004c	f3 0f 10 6b 30	 movss	 xmm5, DWORD PTR [ebx+48]
  00051	f3 0f 10 63 34	 movss	 xmm4, DWORD PTR [ebx+52]
  00056	0f 28 cd	 movaps	 xmm1, xmm5
  00059	f3 0f 5c 0f	 subss	 xmm1, DWORD PTR [edi]
  0005d	f3 0f 5c 28	 subss	 xmm5, DWORD PTR [eax]
  00061	f3 0f 10 53 38	 movss	 xmm2, DWORD PTR [ebx+56]
  00066	0f 28 dc	 movaps	 xmm3, xmm4
  00069	f3 0f 5c 5f 04	 subss	 xmm3, DWORD PTR [edi+4]
  0006e	f3 0f 5c 60 04	 subss	 xmm4, DWORD PTR [eax+4]
  00073	0f 28 c2	 movaps	 xmm0, xmm2

; 182  :     z = fz;

  00076	f3 0f 59 c9	 mulss	 xmm1, xmm1

; 263  :     return D3DXVECTOR3(x - v.x, y - v.y, z - v.z);

  0007a	f3 0f 5c 47 08	 subss	 xmm0, DWORD PTR [edi+8]
  0007f	f3 0f 5c 50 08	 subss	 xmm2, DWORD PTR [eax+8]

; 1253 :     return pV->x * pV->x + pV->y * pV->y + pV->z * pV->z;

  00084	f3 0f 59 db	 mulss	 xmm3, xmm3
; File D:\Metin2 Server Files\mainline\SRC_2014\Metin2Client\GameLib\MapOutdoorRender.cpp

; 362  : 		return D3DXVec3LengthSq(&D3DXVECTOR3(c_rv3CameraPos - c_v3LeftPos)) < D3DXVec3LengthSq(&D3DXVECTOR3(c_rv3CameraPos - c_v3RightPos) );	

  00088	f3 0f 59 e4	 mulss	 xmm4, xmm4
; File D:\Metin2 Server Files\mainline\SRC_2014\M2Data\include\d3dx8math.inl

; 1253 :     return pV->x * pV->x + pV->y * pV->y + pV->z * pV->z;

  0008c	f3 0f 59 ed	 mulss	 xmm5, xmm5
  00090	f3 0f 58 d9	 addss	 xmm3, xmm1
  00094	f3 0f 59 c0	 mulss	 xmm0, xmm0
  00098	f3 0f 58 e5	 addss	 xmm4, xmm5
  0009c	f3 0f 59 d2	 mulss	 xmm2, xmm2
  000a0	f3 0f 58 d8	 addss	 xmm3, xmm0
  000a4	f3 0f 58 e2	 addss	 xmm4, xmm2
; File D:\Metin2 Server Files\mainline\SRC_2014\Metin2Client\GameLib\MapOutdoorRender.cpp

; 362  : 		return D3DXVec3LengthSq(&D3DXVECTOR3(c_rv3CameraPos - c_v3LeftPos)) < D3DXVec3LengthSq(&D3DXVECTOR3(c_rv3CameraPos - c_v3RightPos) );	

  000a8	0f 2f e3	 comiss	 xmm4, xmm3
; File C:\Program Files (x86)\Microsoft Visual Studio\2019\Community\VC\Tools\MSVC\14.28.29333\include\algorithm

; 7417 :             if (_DEBUG_LT_PRED(_Pred, _Val, *_First)) { // found new earliest element, move to front

  000ab	76 1e		 jbe	 SHORT $LN9@Insertion_
; File C:\Program Files (x86)\Microsoft Visual Studio\2019\Community\VC\Tools\MSVC\14.28.29333\include\xutility

; 4696 :             return _Copy_backward_memmove(_First, _Last, _Dest);

  000ad	8b 5d f8	 mov	 ebx, DWORD PTR __Mid$1$[ebp]
  000b0	8b 75 08	 mov	 esi, DWORD PTR __First$[ebp]
  000b3	8d 43 04	 lea	 eax, DWORD PTR [ebx+4]
  000b6	50		 push	 eax
  000b7	53		 push	 ebx
  000b8	56		 push	 esi
  000b9	e8 00 00 00 00	 call	 ??$_Copy_backward_memmove@PAPAVCGraphicThingInstance@@PAPAV1@@std@@YAPAPAVCGraphicThingInstance@@PAPAV1@00@Z ; std::_Copy_backward_memmove<CGraphicThingInstance * *,CGraphicThingInstance * *>
; File C:\Program Files (x86)\Microsoft Visual Studio\2019\Community\VC\Tools\MSVC\14.28.29333\include\algorithm

; 7419 :                 *_First = _STD move(_Val);

  000be	8b 4d fc	 mov	 ecx, DWORD PTR __Val$1$[ebp]
; File C:\Program Files (x86)\Microsoft Visual Studio\2019\Community\VC\Tools\MSVC\14.28.29333\include\xutility

; 4696 :             return _Copy_backward_memmove(_First, _Last, _Dest);

  000c1	83 c4 0c	 add	 esp, 12			; 0000000cH
; File C:\Program Files (x86)\Microsoft Visual Studio\2019\Community\VC\Tools\MSVC\14.28.29333\include\algorithm

; 7419 :                 *_First = _STD move(_Val);

  000c4	89 0e		 mov	 DWORD PTR [esi], ecx

; 7420 :             } else { // look for insertion point after first

  000c6	e9 3b 01 00 00	 jmp	 $LN10@Insertion_
$LN9@Insertion_:

; 7421 :                 for (_BidIt _Prev = _Hole; _DEBUG_LT_PRED(_Pred, _Val, *--_Prev); _Hole = _Prev) {

  000cb	8b 75 f8	 mov	 esi, DWORD PTR __Mid$1$[ebp]
; File D:\Metin2 Server Files\mainline\SRC_2014\Metin2Client\GameLib\MapOutdoorRender.cpp

; 357  : 		CCamera * pCurrentCamera = CCameraManager::Instance().GetCurrentCamera();

  000ce	8b 0d 00 00 00
	00		 mov	 ecx, DWORD PTR ?ms_singleton@?$CSingleton@VCCameraManager@@@@0PAVCCameraManager@@A ; CSingleton<CCameraManager>::ms_singleton
; File C:\Program Files (x86)\Microsoft Visual Studio\2019\Community\VC\Tools\MSVC\14.28.29333\include\algorithm

; 7421 :                 for (_BidIt _Prev = _Hole; _DEBUG_LT_PRED(_Pred, _Val, *--_Prev); _Hole = _Prev) {

  000d4	83 c6 fc	 add	 esi, -4			; fffffffcH
  000d7	89 75 f0	 mov	 DWORD PTR __Prev$1$[ebp], esi
  000da	8b 36		 mov	 esi, DWORD PTR [esi]
; File D:\Metin2 Server Files\mainline\SRC_2014\Metin2Client\GameLib\MapOutdoorRender.cpp

; 357  : 		CCamera * pCurrentCamera = CCameraManager::Instance().GetCurrentCamera();

  000dc	e8 00 00 00 00	 call	 ?GetCurrentCamera@CCameraManager@@QAEPAVCCamera@@XZ ; CCameraManager::GetCurrentCamera

; 358  : 		const D3DXVECTOR3 & c_rv3CameraPos = pCurrentCamera->GetEye();
; 359  : 		const D3DXVECTOR3 & c_v3LeftPos  = pkLeft->GetPosition();

  000e1	8b 4d fc	 mov	 ecx, DWORD PTR __Val$1$[ebp]
  000e4	8b d8		 mov	 ebx, eax
  000e6	e8 00 00 00 00	 call	 ?GetPosition@CGraphicObjectInstance@@QBEABUD3DXVECTOR3@@XZ ; CGraphicObjectInstance::GetPosition

; 360  : 		const D3DXVECTOR3 & c_v3RightPos = pkRight->GetPosition();

  000eb	8b ce		 mov	 ecx, esi
  000ed	8b f8		 mov	 edi, eax
  000ef	e8 00 00 00 00	 call	 ?GetPosition@CGraphicObjectInstance@@QBEABUD3DXVECTOR3@@XZ ; CGraphicObjectInstance::GetPosition
; File D:\Metin2 Server Files\mainline\SRC_2014\M2Data\include\d3dx8math.inl

; 263  :     return D3DXVECTOR3(x - v.x, y - v.y, z - v.z);

  000f4	f3 0f 10 6b 30	 movss	 xmm5, DWORD PTR [ebx+48]
  000f9	f3 0f 10 63 34	 movss	 xmm4, DWORD PTR [ebx+52]
  000fe	0f 28 cd	 movaps	 xmm1, xmm5
  00101	f3 0f 5c 0f	 subss	 xmm1, DWORD PTR [edi]
  00105	f3 0f 5c 28	 subss	 xmm5, DWORD PTR [eax]
  00109	f3 0f 10 53 38	 movss	 xmm2, DWORD PTR [ebx+56]
  0010e	0f 28 dc	 movaps	 xmm3, xmm4
  00111	f3 0f 5c 5f 04	 subss	 xmm3, DWORD PTR [edi+4]
  00116	f3 0f 5c 60 04	 subss	 xmm4, DWORD PTR [eax+4]
  0011b	0f 28 c2	 movaps	 xmm0, xmm2

; 1253 :     return pV->x * pV->x + pV->y * pV->y + pV->z * pV->z;

  0011e	f3 0f 59 c9	 mulss	 xmm1, xmm1

; 263  :     return D3DXVECTOR3(x - v.x, y - v.y, z - v.z);

  00122	f3 0f 5c 47 08	 subss	 xmm0, DWORD PTR [edi+8]
  00127	f3 0f 5c 50 08	 subss	 xmm2, DWORD PTR [eax+8]

; 182  :     z = fz;

  0012c	f3 0f 59 db	 mulss	 xmm3, xmm3
; File D:\Metin2 Server Files\mainline\SRC_2014\Metin2Client\GameLib\MapOutdoorRender.cpp

; 362  : 		return D3DXVec3LengthSq(&D3DXVECTOR3(c_rv3CameraPos - c_v3LeftPos)) < D3DXVec3LengthSq(&D3DXVECTOR3(c_rv3CameraPos - c_v3RightPos) );	

  00130	f3 0f 59 e4	 mulss	 xmm4, xmm4
; File D:\Metin2 Server Files\mainline\SRC_2014\M2Data\include\d3dx8math.inl

; 1253 :     return pV->x * pV->x + pV->y * pV->y + pV->z * pV->z;

  00134	f3 0f 59 ed	 mulss	 xmm5, xmm5
  00138	f3 0f 58 d9	 addss	 xmm3, xmm1
  0013c	f3 0f 59 c0	 mulss	 xmm0, xmm0
  00140	f3 0f 58 e5	 addss	 xmm4, xmm5
  00144	f3 0f 59 d2	 mulss	 xmm2, xmm2
  00148	f3 0f 58 d8	 addss	 xmm3, xmm0
  0014c	f3 0f 58 e2	 addss	 xmm4, xmm2
; File D:\Metin2 Server Files\mainline\SRC_2014\Metin2Client\GameLib\MapOutdoorRender.cpp

; 362  : 		return D3DXVec3LengthSq(&D3DXVECTOR3(c_rv3CameraPos - c_v3LeftPos)) < D3DXVec3LengthSq(&D3DXVECTOR3(c_rv3CameraPos - c_v3RightPos) );	

  00150	0f 2f e3	 comiss	 xmm4, xmm3
; File C:\Program Files (x86)\Microsoft Visual Studio\2019\Community\VC\Tools\MSVC\14.28.29333\include\algorithm

; 7421 :                 for (_BidIt _Prev = _Hole; _DEBUG_LT_PRED(_Pred, _Val, *--_Prev); _Hole = _Prev) {

  00153	0f 86 9f 00 00
	00		 jbe	 $LN6@Insertion_
  00159	0f 1f 80 00 00
	00 00		 npad	 7
$LL7@Insertion_:

; 7422 :                     *_Hole = _STD move(*_Prev); // move hole down

  00160	8b 4d f0	 mov	 ecx, DWORD PTR __Prev$1$[ebp]
  00163	8b 55 f4	 mov	 edx, DWORD PTR __Hole$1$[ebp]
  00166	89 4d f4	 mov	 DWORD PTR __Hole$1$[ebp], ecx
  00169	8b 01		 mov	 eax, DWORD PTR [ecx]
  0016b	83 e9 04	 sub	 ecx, 4
  0016e	89 02		 mov	 DWORD PTR [edx], eax
  00170	89 4d f0	 mov	 DWORD PTR __Prev$1$[ebp], ecx
  00173	8b 31		 mov	 esi, DWORD PTR [ecx]
; File D:\Metin2 Server Files\mainline\SRC_2014\Metin2Client\GameLib\MapOutdoorRender.cpp

; 357  : 		CCamera * pCurrentCamera = CCameraManager::Instance().GetCurrentCamera();

  00175	8b 0d 00 00 00
	00		 mov	 ecx, DWORD PTR ?ms_singleton@?$CSingleton@VCCameraManager@@@@0PAVCCameraManager@@A ; CSingleton<CCameraManager>::ms_singleton
  0017b	e8 00 00 00 00	 call	 ?GetCurrentCamera@CCameraManager@@QAEPAVCCamera@@XZ ; CCameraManager::GetCurrentCamera

; 358  : 		const D3DXVECTOR3 & c_rv3CameraPos = pCurrentCamera->GetEye();
; 359  : 		const D3DXVECTOR3 & c_v3LeftPos  = pkLeft->GetPosition();

  00180	8b 4d fc	 mov	 ecx, DWORD PTR __Val$1$[ebp]
  00183	8b d8		 mov	 ebx, eax
  00185	e8 00 00 00 00	 call	 ?GetPosition@CGraphicObjectInstance@@QBEABUD3DXVECTOR3@@XZ ; CGraphicObjectInstance::GetPosition

; 360  : 		const D3DXVECTOR3 & c_v3RightPos = pkRight->GetPosition();

  0018a	8b ce		 mov	 ecx, esi
  0018c	8b f8		 mov	 edi, eax
  0018e	e8 00 00 00 00	 call	 ?GetPosition@CGraphicObjectInstance@@QBEABUD3DXVECTOR3@@XZ ; CGraphicObjectInstance::GetPosition
; File D:\Metin2 Server Files\mainline\SRC_2014\M2Data\include\d3dx8math.inl

; 263  :     return D3DXVECTOR3(x - v.x, y - v.y, z - v.z);

  00193	f3 0f 10 6b 30	 movss	 xmm5, DWORD PTR [ebx+48]
  00198	f3 0f 10 5b 34	 movss	 xmm3, DWORD PTR [ebx+52]
  0019d	0f 28 e5	 movaps	 xmm4, xmm5
  001a0	f3 0f 5c 27	 subss	 xmm4, DWORD PTR [edi]
  001a4	f3 0f 5c 28	 subss	 xmm5, DWORD PTR [eax]
  001a8	f3 0f 10 53 38	 movss	 xmm2, DWORD PTR [ebx+56]
  001ad	0f 28 cb	 movaps	 xmm1, xmm3
  001b0	f3 0f 5c 4f 04	 subss	 xmm1, DWORD PTR [edi+4]
  001b5	f3 0f 5c 58 04	 subss	 xmm3, DWORD PTR [eax+4]
  001ba	0f 28 c2	 movaps	 xmm0, xmm2

; 1253 :     return pV->x * pV->x + pV->y * pV->y + pV->z * pV->z;

  001bd	f3 0f 59 e4	 mulss	 xmm4, xmm4

; 263  :     return D3DXVECTOR3(x - v.x, y - v.y, z - v.z);

  001c1	f3 0f 5c 47 08	 subss	 xmm0, DWORD PTR [edi+8]
  001c6	f3 0f 5c 50 08	 subss	 xmm2, DWORD PTR [eax+8]

; 1253 :     return pV->x * pV->x + pV->y * pV->y + pV->z * pV->z;

  001cb	f3 0f 59 ed	 mulss	 xmm5, xmm5

; 182  :     z = fz;

  001cf	f3 0f 59 c9	 mulss	 xmm1, xmm1
; File D:\Metin2 Server Files\mainline\SRC_2014\Metin2Client\GameLib\MapOutdoorRender.cpp

; 362  : 		return D3DXVec3LengthSq(&D3DXVECTOR3(c_rv3CameraPos - c_v3LeftPos)) < D3DXVec3LengthSq(&D3DXVECTOR3(c_rv3CameraPos - c_v3RightPos) );	

  001d3	f3 0f 59 db	 mulss	 xmm3, xmm3
; File D:\Metin2 Server Files\mainline\SRC_2014\M2Data\include\d3dx8math.inl

; 1253 :     return pV->x * pV->x + pV->y * pV->y + pV->z * pV->z;

  001d7	f3 0f 58 e1	 addss	 xmm4, xmm1
  001db	f3 0f 59 c0	 mulss	 xmm0, xmm0
  001df	f3 0f 58 eb	 addss	 xmm5, xmm3
  001e3	f3 0f 59 d2	 mulss	 xmm2, xmm2
  001e7	f3 0f 58 e0	 addss	 xmm4, xmm0
  001eb	f3 0f 58 ea	 addss	 xmm5, xmm2
; File D:\Metin2 Server Files\mainline\SRC_2014\Metin2Client\GameLib\MapOutdoorRender.cpp

; 362  : 		return D3DXVec3LengthSq(&D3DXVECTOR3(c_rv3CameraPos - c_v3LeftPos)) < D3DXVec3LengthSq(&D3DXVECTOR3(c_rv3CameraPos - c_v3RightPos) );	

  001ef	0f 2f ec	 comiss	 xmm5, xmm4
; File C:\Program Files (x86)\Microsoft Visual Studio\2019\Community\VC\Tools\MSVC\14.28.29333\include\algorithm

; 7421 :                 for (_BidIt _Prev = _Hole; _DEBUG_LT_PRED(_Pred, _Val, *--_Prev); _Hole = _Prev) {

  001f2	0f 87 68 ff ff
	ff		 ja	 $LL7@Insertion_
$LN6@Insertion_:

; 7423 :                 }
; 7424 : 
; 7425 :                 *_Hole = _STD move(_Val); // insert element in hole

  001f8	8b 55 f4	 mov	 edx, DWORD PTR __Hole$1$[ebp]
  001fb	8b 45 fc	 mov	 eax, DWORD PTR __Val$1$[ebp]
  001fe	8b 5d f8	 mov	 ebx, DWORD PTR __Mid$1$[ebp]
  00201	8b 75 08	 mov	 esi, DWORD PTR __First$[ebp]
  00204	89 02		 mov	 DWORD PTR [edx], eax
$LN10@Insertion_:

; 7413 :         for (_BidIt _Mid = _First; ++_Mid != _Last;) { // order next element

  00206	8b 45 0c	 mov	 eax, DWORD PTR __Last$[ebp]
  00209	83 c3 04	 add	 ebx, 4
  0020c	89 5d f8	 mov	 DWORD PTR __Mid$1$[ebp], ebx
  0020f	3b d8		 cmp	 ebx, eax
  00211	0f 85 0e fe ff
	ff		 jne	 $LL2@Insertion_

; 7426 :             }
; 7427 :         }
; 7428 :     }
; 7429 : 
; 7430 :     return _Last;

  00217	5f		 pop	 edi
$LN53@Insertion_:
  00218	5b		 pop	 ebx
$LN3@Insertion_:
  00219	5e		 pop	 esi

; 7431 : }

  0021a	8b e5		 mov	 esp, ebp
  0021c	5d		 pop	 ebp
  0021d	c3		 ret	 0
??$_Insertion_sort_unchecked@PAPAVCGraphicThingInstance@@UCMapOutdoor_LessThingInstancePtrRenderOrder@@@std@@YAPAPAVCGraphicThingInstance@@QAPAV1@0UCMapOutdoor_LessThingInstancePtrRenderOrder@@@Z ENDP ; std::_Insertion_sort_unchecked<CGraphicThingInstance * *,CMapOutdoor_LessThingInstancePtrRenderOrder>
_TEXT	ENDS
; Function compile flags: /Ogtp
; File C:\Program Files (x86)\Microsoft Visual Studio\2019\Community\VC\Tools\MSVC\14.28.29333\include\algorithm
; File D:\Metin2 Server Files\mainline\SRC_2014\Metin2Client\GameLib\Area.h
; File C:\Program Files (x86)\Microsoft Visual Studio\2019\Community\VC\Tools\MSVC\14.28.29333\include\algorithm
; File D:\Metin2 Server Files\mainline\SRC_2014\Metin2Client\GameLib\Area.h
; File C:\Program Files (x86)\Microsoft Visual Studio\2019\Community\VC\Tools\MSVC\14.28.29333\include\algorithm
; File D:\Metin2 Server Files\mainline\SRC_2014\Metin2Client\GameLib\Area.h
; File C:\Program Files (x86)\Microsoft Visual Studio\2019\Community\VC\Tools\MSVC\14.28.29333\include\algorithm
; File C:\Program Files (x86)\Microsoft Visual Studio\2019\Community\VC\Tools\MSVC\14.28.29333\include\utility
; File C:\Program Files (x86)\Microsoft Visual Studio\2019\Community\VC\Tools\MSVC\14.28.29333\include\algorithm
; File C:\Program Files (x86)\Microsoft Visual Studio\2019\Community\VC\Tools\MSVC\14.28.29333\include\utility
; File C:\Program Files (x86)\Microsoft Visual Studio\2019\Community\VC\Tools\MSVC\14.28.29333\include\algorithm
; File D:\Metin2 Server Files\mainline\SRC_2014\Metin2Client\GameLib\Area.h
; File C:\Program Files (x86)\Microsoft Visual Studio\2019\Community\VC\Tools\MSVC\14.28.29333\include\algorithm
; File C:\Program Files (x86)\Microsoft Visual Studio\2019\Community\VC\Tools\MSVC\14.28.29333\include\utility
; File C:\Program Files (x86)\Microsoft Visual Studio\2019\Community\VC\Tools\MSVC\14.28.29333\include\algorithm
; File C:\Program Files (x86)\Microsoft Visual Studio\2019\Community\VC\Tools\MSVC\14.28.29333\include\utility
; File C:\Program Files (x86)\Microsoft Visual Studio\2019\Community\VC\Tools\MSVC\14.28.29333\include\algorithm
; File C:\Program Files (x86)\Microsoft Visual Studio\2019\Community\VC\Tools\MSVC\14.28.29333\include\utility
; File C:\Program Files (x86)\Microsoft Visual Studio\2019\Community\VC\Tools\MSVC\14.28.29333\include\algorithm
; File C:\Program Files (x86)\Microsoft Visual Studio\2019\Community\VC\Tools\MSVC\14.28.29333\include\utility
; File C:\Program Files (x86)\Microsoft Visual Studio\2019\Community\VC\Tools\MSVC\14.28.29333\include\algorithm
; File C:\Program Files (x86)\Microsoft Visual Studio\2019\Community\VC\Tools\MSVC\14.28.29333\include\utility
; File C:\Program Files (x86)\Microsoft Visual Studio\2019\Community\VC\Tools\MSVC\14.28.29333\include\algorithm
; File C:\Program Files (x86)\Microsoft Visual Studio\2019\Community\VC\Tools\MSVC\14.28.29333\include\utility
; File C:\Program Files (x86)\Microsoft Visual Studio\2019\Community\VC\Tools\MSVC\14.28.29333\include\algorithm
; File C:\Program Files (x86)\Microsoft Visual Studio\2019\Community\VC\Tools\MSVC\14.28.29333\include\utility
; File C:\Program Files (x86)\Microsoft Visual Studio\2019\Community\VC\Tools\MSVC\14.28.29333\include\algorithm
; File C:\Program Files (x86)\Microsoft Visual Studio\2019\Community\VC\Tools\MSVC\14.28.29333\include\utility
; File C:\Program Files (x86)\Microsoft Visual Studio\2019\Community\VC\Tools\MSVC\14.28.29333\include\algorithm
; File C:\Program Files (x86)\Microsoft Visual Studio\2019\Community\VC\Tools\MSVC\14.28.29333\include\utility
; File C:\Program Files (x86)\Microsoft Visual Studio\2019\Community\VC\Tools\MSVC\14.28.29333\include\algorithm
; File C:\Program Files (x86)\Microsoft Visual Studio\2019\Community\VC\Tools\MSVC\14.28.29333\include\utility
; File C:\Program Files (x86)\Microsoft Visual Studio\2019\Community\VC\Tools\MSVC\14.28.29333\include\algorithm
; File C:\Program Files (x86)\Microsoft Visual Studio\2019\Community\VC\Tools\MSVC\14.28.29333\include\utility
; File C:\Program Files (x86)\Microsoft Visual Studio\2019\Community\VC\Tools\MSVC\14.28.29333\include\algorithm
; File C:\Program Files (x86)\Microsoft Visual Studio\2019\Community\VC\Tools\MSVC\14.28.29333\include\utility
; File C:\Program Files (x86)\Microsoft Visual Studio\2019\Community\VC\Tools\MSVC\14.28.29333\include\algorithm
; File C:\Program Files (x86)\Microsoft Visual Studio\2019\Community\VC\Tools\MSVC\14.28.29333\include\utility
; File C:\Program Files (x86)\Microsoft Visual Studio\2019\Community\VC\Tools\MSVC\14.28.29333\include\algorithm
; File C:\Program Files (x86)\Microsoft Visual Studio\2019\Community\VC\Tools\MSVC\14.28.29333\include\utility
; File C:\Program Files (x86)\Microsoft Visual Studio\2019\Community\VC\Tools\MSVC\14.28.29333\include\algorithm
; File C:\Program Files (x86)\Microsoft Visual Studio\2019\Community\VC\Tools\MSVC\14.28.29333\include\utility
; File C:\Program Files (x86)\Microsoft Visual Studio\2019\Community\VC\Tools\MSVC\14.28.29333\include\algorithm
; File C:\Program Files (x86)\Microsoft Visual Studio\2019\Community\VC\Tools\MSVC\14.28.29333\include\utility
; File C:\Program Files (x86)\Microsoft Visual Studio\2019\Community\VC\Tools\MSVC\14.28.29333\include\algorithm
; File C:\Program Files (x86)\Microsoft Visual Studio\2019\Community\VC\Tools\MSVC\14.28.29333\include\utility
; File C:\Program Files (x86)\Microsoft Visual Studio\2019\Community\VC\Tools\MSVC\14.28.29333\include\algorithm
;	COMDAT ??$_Partition_by_median_guess_unchecked@PAUSCRCWithNumber@CArea@@UCRCNumComp@2@@std@@YA?AU?$pair@PAUSCRCWithNumber@CArea@@PAU12@@0@PAUSCRCWithNumber@CArea@@0UCRCNumComp@3@@Z
_TEXT	SEGMENT
$T1 = -16						; size = 4
__Tmp$1$ = -16						; size = 4
__Last$1$ = -16						; size = 4
$T2 = -12						; size = 4
tv674 = -12						; size = 4
tv669 = -12						; size = 4
tv668 = -8						; size = 4
__Gfirst$1$ = -8					; size = 4
__Glast$1$ = -4						; size = 4
___$ReturnUdt$ = 8					; size = 4
__First$ = 12						; size = 4
__Last$ = 16						; size = 4
__Plast$1$ = 20						; size = 4
__Pred$ = 20						; size = 1
??$_Partition_by_median_guess_unchecked@PAUSCRCWithNumber@CArea@@UCRCNumComp@2@@std@@YA?AU?$pair@PAUSCRCWithNumber@CArea@@PAU12@@0@PAUSCRCWithNumber@CArea@@0UCRCNumComp@3@@Z PROC ; std::_Partition_by_median_guess_unchecked<CArea::SCRCWithNumber *,CArea::CRCNumComp>, COMDAT

; 7467 : _CONSTEXPR20 pair<_RanIt, _RanIt> _Partition_by_median_guess_unchecked(_RanIt _First, _RanIt _Last, _Pr _Pred) {

  00000	55		 push	 ebp
  00001	8b ec		 mov	 ebp, esp
  00003	83 ec 10	 sub	 esp, 16			; 00000010H

; 7468 :     // partition [_First, _Last)
; 7469 :     _RanIt _Mid = _First + ((_Last - _First) >> 1); // shift for codegen

  00006	8b 4d 10	 mov	 ecx, DWORD PTR __Last$[ebp]
  00009	8b c1		 mov	 eax, ecx
  0000b	53		 push	 ebx
  0000c	8b 5d 0c	 mov	 ebx, DWORD PTR __First$[ebp]

; 7470 :     _Guess_median_unchecked(_First, _Mid, _Prev_iter(_Last), _Pred);

  0000f	83 c1 f8	 add	 ecx, -8			; fffffff8H
  00012	2b c3		 sub	 eax, ebx
  00014	89 4d f0	 mov	 DWORD PTR __Last$1$[ebp], ecx
  00017	c1 f8 04	 sar	 eax, 4
  0001a	56		 push	 esi
  0001b	57		 push	 edi
  0001c	8d 34 c3	 lea	 esi, DWORD PTR [ebx+eax*8]

; 7453 :     const _Diff _Count = _Last - _First;

  0001f	8b c1		 mov	 eax, ecx
  00021	2b c3		 sub	 eax, ebx
  00023	c1 f8 03	 sar	 eax, 3

; 7454 :     if (40 < _Count) { // Tukey's ninther

  00026	83 f8 28	 cmp	 eax, 40			; 00000028H
  00029	7e 65		 jle	 SHORT $LN35@Partition_

; 7455 :         const _Diff _Step     = (_Count + 1) >> 3; // +1 can't overflow because range was made inclusive in caller
; 7456 :         const _Diff _Two_step = _Step << 1; // note: intentionally discards low-order bit
; 7457 :         _Med3_unchecked(_First, _First + _Step, _First + _Two_step, _Pred);

  0002b	8b 7d 14	 mov	 edi, DWORD PTR __Pred$[ebp]
  0002e	40		 inc	 eax
  0002f	c1 f8 03	 sar	 eax, 3
  00032	8b c8		 mov	 ecx, eax
  00034	c1 e1 04	 shl	 ecx, 4
  00037	57		 push	 edi
  00038	8d 1c c5 00 00
	00 00		 lea	 ebx, DWORD PTR [eax*8]
  0003f	89 4d f4	 mov	 DWORD PTR tv669[ebp], ecx
  00042	8b 45 0c	 mov	 eax, DWORD PTR __First$[ebp]
  00045	8d 14 03	 lea	 edx, DWORD PTR [ebx+eax]
  00048	03 c1		 add	 eax, ecx
  0004a	50		 push	 eax
  0004b	52		 push	 edx
  0004c	ff 75 0c	 push	 DWORD PTR __First$[ebp]
  0004f	89 55 f8	 mov	 DWORD PTR tv668[ebp], edx
  00052	e8 00 00 00 00	 call	 ??$_Med3_unchecked@PAUSCRCWithNumber@CArea@@UCRCNumComp@2@@std@@YAXPAUSCRCWithNumber@CArea@@00UCRCNumComp@2@@Z ; std::_Med3_unchecked<CArea::SCRCWithNumber *,CArea::CRCNumComp>

; 7458 :         _Med3_unchecked(_Mid - _Step, _Mid, _Mid + _Step, _Pred);

  00057	57		 push	 edi
  00058	8d 04 33	 lea	 eax, DWORD PTR [ebx+esi]
  0005b	50		 push	 eax
  0005c	8b c6		 mov	 eax, esi
  0005e	2b c3		 sub	 eax, ebx
  00060	56		 push	 esi
  00061	50		 push	 eax
  00062	e8 00 00 00 00	 call	 ??$_Med3_unchecked@PAUSCRCWithNumber@CArea@@UCRCNumComp@2@@std@@YAXPAUSCRCWithNumber@CArea@@00UCRCNumComp@2@@Z ; std::_Med3_unchecked<CArea::SCRCWithNumber *,CArea::CRCNumComp>

; 7459 :         _Med3_unchecked(_Last - _Two_step, _Last - _Step, _Last, _Pred);

  00067	8b 45 f0	 mov	 eax, DWORD PTR __Last$1$[ebp]
  0006a	8b f8		 mov	 edi, eax
  0006c	2b fb		 sub	 edi, ebx
  0006e	8b 5d 14	 mov	 ebx, DWORD PTR __Pred$[ebp]
  00071	53		 push	 ebx
  00072	50		 push	 eax
  00073	2b 45 f4	 sub	 eax, DWORD PTR tv669[ebp]
  00076	57		 push	 edi
  00077	50		 push	 eax
  00078	e8 00 00 00 00	 call	 ??$_Med3_unchecked@PAUSCRCWithNumber@CArea@@UCRCNumComp@2@@std@@YAXPAUSCRCWithNumber@CArea@@00UCRCNumComp@2@@Z ; std::_Med3_unchecked<CArea::SCRCWithNumber *,CArea::CRCNumComp>

; 7460 :         _Med3_unchecked(_First + _Step, _Mid, _Last - _Step, _Pred);

  0007d	53		 push	 ebx
  0007e	57		 push	 edi
  0007f	56		 push	 esi
  00080	ff 75 f8	 push	 DWORD PTR tv668[ebp]
  00083	e8 00 00 00 00	 call	 ??$_Med3_unchecked@PAUSCRCWithNumber@CArea@@UCRCNumComp@2@@std@@YAXPAUSCRCWithNumber@CArea@@00UCRCNumComp@2@@Z ; std::_Med3_unchecked<CArea::SCRCWithNumber *,CArea::CRCNumComp>

; 7461 :     } else {

  00088	8b 5d 0c	 mov	 ebx, DWORD PTR __First$[ebp]
  0008b	83 c4 40	 add	 esp, 64			; 00000040H
  0008e	eb 0e		 jmp	 SHORT $LN36@Partition_
$LN35@Partition_:

; 7462 :         _Med3_unchecked(_First, _Mid, _Last, _Pred);

  00090	ff 75 14	 push	 DWORD PTR __Pred$[ebp]
  00093	51		 push	 ecx
  00094	56		 push	 esi
  00095	53		 push	 ebx
  00096	e8 00 00 00 00	 call	 ??$_Med3_unchecked@PAUSCRCWithNumber@CArea@@UCRCNumComp@2@@std@@YAXPAUSCRCWithNumber@CArea@@00UCRCNumComp@2@@Z ; std::_Med3_unchecked<CArea::SCRCWithNumber *,CArea::CRCNumComp>
  0009b	83 c4 10	 add	 esp, 16			; 00000010H
$LN36@Partition_:

; 7471 :     _RanIt _Pfirst = _Mid;
; 7472 :     _RanIt _Plast  = _Next_iter(_Pfirst);

  0009e	8d 7e 08	 lea	 edi, DWORD PTR [esi+8]
  000a1	89 7d 14	 mov	 DWORD PTR __Plast$1$[ebp], edi

; 7475 :            && !_Pred(*_Pfirst, *_Prev_iter(_Pfirst))) {

  000a4	3b de		 cmp	 ebx, esi
  000a6	73 11		 jae	 SHORT $LN111@Partition_
$LL2@Partition_:
; File D:\Metin2 Server Files\mainline\SRC_2014\Metin2Client\GameLib\Area.h

; 190  : 				return lhs.dwNumber > rhs.dwNumber;

  000a8	8b 46 fc	 mov	 eax, DWORD PTR [esi-4]
  000ab	3b 46 04	 cmp	 eax, DWORD PTR [esi+4]
; File C:\Program Files (x86)\Microsoft Visual Studio\2019\Community\VC\Tools\MSVC\14.28.29333\include\algorithm

; 7475 :            && !_Pred(*_Pfirst, *_Prev_iter(_Pfirst))) {

  000ae	77 09		 ja	 SHORT $LN111@Partition_
  000b0	72 07		 jb	 SHORT $LN111@Partition_

; 7476 :         --_Pfirst;

  000b2	83 ee 08	 sub	 esi, 8
  000b5	3b de		 cmp	 ebx, esi
  000b7	72 ef		 jb	 SHORT $LL2@Partition_
$LN111@Partition_:

; 7479 :     while (_Plast < _Last && !_DEBUG_LT_PRED(_Pred, *_Plast, *_Pfirst) && !_Pred(*_Pfirst, *_Plast)) {

  000b9	8b 55 10	 mov	 edx, DWORD PTR __Last$[ebp]
  000bc	3b fa		 cmp	 edi, edx
  000be	73 14		 jae	 SHORT $LN5@Partition_
; File D:\Metin2 Server Files\mainline\SRC_2014\Metin2Client\GameLib\Area.h

; 190  : 				return lhs.dwNumber > rhs.dwNumber;

  000c0	8b 4e 04	 mov	 ecx, DWORD PTR [esi+4]
$LL4@Partition_:
  000c3	39 4f 04	 cmp	 DWORD PTR [edi+4], ecx
; File C:\Program Files (x86)\Microsoft Visual Studio\2019\Community\VC\Tools\MSVC\14.28.29333\include\algorithm

; 7479 :     while (_Plast < _Last && !_DEBUG_LT_PRED(_Pred, *_Plast, *_Pfirst) && !_Pred(*_Pfirst, *_Plast)) {

  000c6	77 09		 ja	 SHORT $LN112@Partition_
  000c8	72 07		 jb	 SHORT $LN112@Partition_

; 7480 :         ++_Plast;

  000ca	83 c7 08	 add	 edi, 8
  000cd	3b fa		 cmp	 edi, edx
  000cf	72 f2		 jb	 SHORT $LL4@Partition_
$LN112@Partition_:
  000d1	89 7d 14	 mov	 DWORD PTR __Plast$1$[ebp], edi
$LN5@Partition_:

; 7481 :     }
; 7482 : 
; 7483 :     _RanIt _Gfirst = _Plast;
; 7484 :     _RanIt _Glast  = _Pfirst;

  000d4	8b ce		 mov	 ecx, esi
  000d6	8b df		 mov	 ebx, edi
  000d8	89 4d fc	 mov	 DWORD PTR __Glast$1$[ebp], ecx
$LN117@Partition_:

; 7485 : 
; 7486 :     for (;;) { // partition
; 7487 :         for (; _Gfirst < _Last; ++_Gfirst) {

  000db	89 5d f8	 mov	 DWORD PTR __Gfirst$1$[ebp], ebx
  000de	66 90		 npad	 2
$LL6@Partition_:
  000e0	3b da		 cmp	 ebx, edx
  000e2	73 4a		 jae	 SHORT $LN90@Partition_
$LL11@Partition_:
; File D:\Metin2 Server Files\mainline\SRC_2014\Metin2Client\GameLib\Area.h

; 190  : 				return lhs.dwNumber > rhs.dwNumber;

  000e4	8b 4b 04	 mov	 ecx, DWORD PTR [ebx+4]
  000e7	39 4e 04	 cmp	 DWORD PTR [esi+4], ecx
; File C:\Program Files (x86)\Microsoft Visual Studio\2019\Community\VC\Tools\MSVC\14.28.29333\include\algorithm

; 7488 :             if (_DEBUG_LT_PRED(_Pred, *_Pfirst, *_Gfirst)) {

  000ea	77 35		 ja	 SHORT $LN9@Partition_

; 7489 :                 continue;
; 7490 :             } else if (_Pred(*_Gfirst, *_Pfirst)) {

  000ec	72 3a		 jb	 SHORT $LN113@Partition_

; 7491 :                 break;
; 7492 :             } else if (_Plast != _Gfirst) {

  000ee	8d 47 08	 lea	 eax, DWORD PTR [edi+8]
  000f1	89 45 f4	 mov	 DWORD PTR tv674[ebp], eax
  000f4	3b fb		 cmp	 edi, ebx
  000f6	74 24		 je	 SHORT $LN19@Partition_
; File C:\Program Files (x86)\Microsoft Visual Studio\2019\Community\VC\Tools\MSVC\14.28.29333\include\utility

; 104  :     _Ty _Tmp = _STD move(_Left);

  000f8	8b 17		 mov	 edx, DWORD PTR [edi]

; 105  :     _Left    = _STD move(_Right);

  000fa	8b 03		 mov	 eax, DWORD PTR [ebx]
  000fc	8b 7f 04	 mov	 edi, DWORD PTR [edi+4]
  000ff	89 55 f0	 mov	 DWORD PTR __Tmp$1$[ebp], edx
  00102	8b 55 14	 mov	 edx, DWORD PTR __Plast$1$[ebp]
  00105	89 02		 mov	 DWORD PTR [edx], eax
  00107	8b c2		 mov	 eax, edx

; 106  :     _Right   = _STD move(_Tmp);

  00109	8b 55 f0	 mov	 edx, DWORD PTR __Tmp$1$[ebp]
  0010c	89 48 04	 mov	 DWORD PTR [eax+4], ecx
  0010f	89 13		 mov	 DWORD PTR [ebx], edx
; File C:\Program Files (x86)\Microsoft Visual Studio\2019\Community\VC\Tools\MSVC\14.28.29333\include\algorithm

; 7495 :             } else {

  00111	8b 55 10	 mov	 edx, DWORD PTR __Last$[ebp]
; File C:\Program Files (x86)\Microsoft Visual Studio\2019\Community\VC\Tools\MSVC\14.28.29333\include\utility

; 106  :     _Right   = _STD move(_Tmp);

  00114	89 7b 04	 mov	 DWORD PTR [ebx+4], edi
; File C:\Program Files (x86)\Microsoft Visual Studio\2019\Community\VC\Tools\MSVC\14.28.29333\include\algorithm

; 7494 :                 ++_Plast;

  00117	8b 7d f4	 mov	 edi, DWORD PTR tv674[ebp]

; 7495 :             } else {

  0011a	eb 02		 jmp	 SHORT $LN115@Partition_
$LN19@Partition_:

; 7496 :                 ++_Plast;

  0011c	8b f8		 mov	 edi, eax
$LN115@Partition_:

; 7485 : 
; 7486 :     for (;;) { // partition
; 7487 :         for (; _Gfirst < _Last; ++_Gfirst) {

  0011e	89 7d 14	 mov	 DWORD PTR __Plast$1$[ebp], edi
$LN9@Partition_:
  00121	83 c3 08	 add	 ebx, 8
  00124	3b da		 cmp	 ebx, edx
  00126	72 bc		 jb	 SHORT $LL11@Partition_
$LN113@Partition_:
  00128	8b 4d fc	 mov	 ecx, DWORD PTR __Glast$1$[ebp]
  0012b	89 5d f8	 mov	 DWORD PTR __Gfirst$1$[ebp], ebx
$LN90@Partition_:

; 7500 :         for (; _First < _Glast; --_Glast) {

  0012e	8b 7d 0c	 mov	 edi, DWORD PTR __First$[ebp]
  00131	3b cf		 cmp	 ecx, edi
  00133	76 43		 jbe	 SHORT $LN116@Partition_
  00135	8d 59 f8	 lea	 ebx, DWORD PTR [ecx-8]
$LL14@Partition_:
; File D:\Metin2 Server Files\mainline\SRC_2014\Metin2Client\GameLib\Area.h

; 190  : 				return lhs.dwNumber > rhs.dwNumber;

  00138	8b 43 04	 mov	 eax, DWORD PTR [ebx+4]
  0013b	3b 46 04	 cmp	 eax, DWORD PTR [esi+4]
; File C:\Program Files (x86)\Microsoft Visual Studio\2019\Community\VC\Tools\MSVC\14.28.29333\include\algorithm

; 7501 :             if (_DEBUG_LT_PRED(_Pred, *_Prev_iter(_Glast), *_Pfirst)) {

  0013e	77 23		 ja	 SHORT $LN12@Partition_

; 7502 :                 continue;
; 7503 :             } else if (_Pred(*_Pfirst, *_Prev_iter(_Glast))) {

  00140	72 2e		 jb	 SHORT $LN114@Partition_

; 7504 :                 break;
; 7505 :             } else if (--_Pfirst != _Prev_iter(_Glast)) {

  00142	83 ee 08	 sub	 esi, 8
  00145	3b f3		 cmp	 esi, ebx
  00147	74 1a		 je	 SHORT $LN12@Partition_
; File C:\Program Files (x86)\Microsoft Visual Studio\2019\Community\VC\Tools\MSVC\14.28.29333\include\utility

; 104  :     _Ty _Tmp = _STD move(_Left);

  00149	8b 7e 04	 mov	 edi, DWORD PTR [esi+4]

; 105  :     _Left    = _STD move(_Right);

  0014c	8b 4b 04	 mov	 ecx, DWORD PTR [ebx+4]
  0014f	8b 16		 mov	 edx, DWORD PTR [esi]
  00151	8b 03		 mov	 eax, DWORD PTR [ebx]
  00153	89 4e 04	 mov	 DWORD PTR [esi+4], ecx
  00156	8b 4d fc	 mov	 ecx, DWORD PTR __Glast$1$[ebp]
  00159	89 06		 mov	 DWORD PTR [esi], eax

; 106  :     _Right   = _STD move(_Tmp);

  0015b	89 7b 04	 mov	 DWORD PTR [ebx+4], edi
  0015e	8b 7d 0c	 mov	 edi, DWORD PTR __First$[ebp]
  00161	89 13		 mov	 DWORD PTR [ebx], edx
$LN12@Partition_:
; File C:\Program Files (x86)\Microsoft Visual Studio\2019\Community\VC\Tools\MSVC\14.28.29333\include\algorithm

; 7500 :         for (; _First < _Glast; --_Glast) {

  00163	83 e9 08	 sub	 ecx, 8
  00166	83 eb 08	 sub	 ebx, 8
  00169	89 4d fc	 mov	 DWORD PTR __Glast$1$[ebp], ecx
  0016c	3b f9		 cmp	 edi, ecx
  0016e	72 c8		 jb	 SHORT $LL14@Partition_
$LN114@Partition_:
  00170	8b 5d f8	 mov	 ebx, DWORD PTR __Gfirst$1$[ebp]

; 7506 :                 _STD iter_swap(_Pfirst, _Prev_iter(_Glast));
; 7507 :             }
; 7508 :         }
; 7509 : 
; 7510 :         if (_Glast == _First && _Gfirst == _Last) {

  00173	3b cf		 cmp	 ecx, edi
  00175	8b 55 10	 mov	 edx, DWORD PTR __Last$[ebp]
$LN116@Partition_:
  00178	75 54		 jne	 SHORT $LN27@Partition_
  0017a	8b 4d 14	 mov	 ecx, DWORD PTR __Plast$1$[ebp]
  0017d	3b da		 cmp	 ebx, edx
  0017f	0f 84 d8 00 00
	00		 je	 $LN92@Partition_

; 7512 :         }
; 7513 : 
; 7514 :         if (_Glast == _First) { // no room at bottom, rotate pivot upward
; 7515 :             if (_Plast != _Gfirst) {

  00185	3b cb		 cmp	 ecx, ebx
  00187	74 17		 je	 SHORT $LN67@Partition_
; File C:\Program Files (x86)\Microsoft Visual Studio\2019\Community\VC\Tools\MSVC\14.28.29333\include\utility

; 105  :     _Left    = _STD move(_Right);

  00189	8b 01		 mov	 eax, DWORD PTR [ecx]
  0018b	8b 49 04	 mov	 ecx, DWORD PTR [ecx+4]
  0018e	8b 7e 04	 mov	 edi, DWORD PTR [esi+4]
  00191	8b 16		 mov	 edx, DWORD PTR [esi]
  00193	89 4e 04	 mov	 DWORD PTR [esi+4], ecx

; 106  :     _Right   = _STD move(_Tmp);

  00196	8b 4d 14	 mov	 ecx, DWORD PTR __Plast$1$[ebp]
  00199	89 06		 mov	 DWORD PTR [esi], eax
  0019b	89 11		 mov	 DWORD PTR [ecx], edx
  0019d	89 79 04	 mov	 DWORD PTR [ecx+4], edi
$LN67@Partition_:

; 104  :     _Ty _Tmp = _STD move(_Left);

  001a0	8b 16		 mov	 edx, DWORD PTR [esi]
; File C:\Program Files (x86)\Microsoft Visual Studio\2019\Community\VC\Tools\MSVC\14.28.29333\include\algorithm

; 7519 :             ++_Plast;

  001a2	83 c1 08	 add	 ecx, 8
; File C:\Program Files (x86)\Microsoft Visual Studio\2019\Community\VC\Tools\MSVC\14.28.29333\include\utility

; 104  :     _Ty _Tmp = _STD move(_Left);

  001a5	8b 7e 04	 mov	 edi, DWORD PTR [esi+4]

; 105  :     _Left    = _STD move(_Right);

  001a8	8b 03		 mov	 eax, DWORD PTR [ebx]
; File C:\Program Files (x86)\Microsoft Visual Studio\2019\Community\VC\Tools\MSVC\14.28.29333\include\algorithm

; 7519 :             ++_Plast;

  001aa	89 4d 14	 mov	 DWORD PTR __Plast$1$[ebp], ecx
; File C:\Program Files (x86)\Microsoft Visual Studio\2019\Community\VC\Tools\MSVC\14.28.29333\include\utility

; 105  :     _Left    = _STD move(_Right);

  001ad	8b 4b 04	 mov	 ecx, DWORD PTR [ebx+4]
  001b0	89 4e 04	 mov	 DWORD PTR [esi+4], ecx
; File C:\Program Files (x86)\Microsoft Visual Studio\2019\Community\VC\Tools\MSVC\14.28.29333\include\algorithm

; 7522 :             ++_Gfirst;

  001b3	8b 4d fc	 mov	 ecx, DWORD PTR __Glast$1$[ebp]
; File C:\Program Files (x86)\Microsoft Visual Studio\2019\Community\VC\Tools\MSVC\14.28.29333\include\utility

; 105  :     _Left    = _STD move(_Right);

  001b6	89 06		 mov	 DWORD PTR [esi], eax
; File C:\Program Files (x86)\Microsoft Visual Studio\2019\Community\VC\Tools\MSVC\14.28.29333\include\algorithm

; 7521 :             ++_Pfirst;

  001b8	83 c6 08	 add	 esi, 8
; File C:\Program Files (x86)\Microsoft Visual Studio\2019\Community\VC\Tools\MSVC\14.28.29333\include\utility

; 106  :     _Right   = _STD move(_Tmp);

  001bb	89 13		 mov	 DWORD PTR [ebx], edx
; File C:\Program Files (x86)\Microsoft Visual Studio\2019\Community\VC\Tools\MSVC\14.28.29333\include\algorithm

; 7522 :             ++_Gfirst;

  001bd	8b 55 10	 mov	 edx, DWORD PTR __Last$[ebp]
; File C:\Program Files (x86)\Microsoft Visual Studio\2019\Community\VC\Tools\MSVC\14.28.29333\include\utility

; 106  :     _Right   = _STD move(_Tmp);

  001c0	89 7b 04	 mov	 DWORD PTR [ebx+4], edi
; File C:\Program Files (x86)\Microsoft Visual Studio\2019\Community\VC\Tools\MSVC\14.28.29333\include\algorithm

; 7522 :             ++_Gfirst;

  001c3	83 c3 08	 add	 ebx, 8
  001c6	8b 7d 14	 mov	 edi, DWORD PTR __Plast$1$[ebp]
  001c9	e9 0d ff ff ff	 jmp	 $LN117@Partition_
$LN27@Partition_:

; 7523 :         } else if (_Gfirst == _Last) { // no room at top, rotate pivot downward

  001ce	83 c1 f8	 add	 ecx, -8			; fffffff8H
  001d1	89 4d fc	 mov	 DWORD PTR __Glast$1$[ebp], ecx
  001d4	3b da		 cmp	 ebx, edx
  001d6	75 5d		 jne	 SHORT $LN30@Partition_

; 7524 :             if (--_Glast != --_Pfirst) {

  001d8	83 ee 08	 sub	 esi, 8
  001db	3b ce		 cmp	 ecx, esi
  001dd	74 25		 je	 SHORT $LN102@Partition_
; File C:\Program Files (x86)\Microsoft Visual Studio\2019\Community\VC\Tools\MSVC\14.28.29333\include\utility

; 104  :     _Ty _Tmp = _STD move(_Left);

  001df	8b 41 04	 mov	 eax, DWORD PTR [ecx+4]

; 105  :     _Left    = _STD move(_Right);

  001e2	8b 55 fc	 mov	 edx, DWORD PTR __Glast$1$[ebp]
  001e5	8b 39		 mov	 edi, DWORD PTR [ecx]
  001e7	8b 4e 04	 mov	 ecx, DWORD PTR [esi+4]
  001ea	89 45 f4	 mov	 DWORD PTR $T2[ebp], eax
  001ed	8b 06		 mov	 eax, DWORD PTR [esi]
  001ef	89 02		 mov	 DWORD PTR [edx], eax

; 106  :     _Right   = _STD move(_Tmp);

  001f1	8b 45 f4	 mov	 eax, DWORD PTR $T2[ebp]
  001f4	89 4a 04	 mov	 DWORD PTR [edx+4], ecx
  001f7	8b 55 10	 mov	 edx, DWORD PTR __Last$[ebp]
  001fa	89 7d f0	 mov	 DWORD PTR $T1[ebp], edi
  001fd	89 3e		 mov	 DWORD PTR [esi], edi
  001ff	89 46 04	 mov	 DWORD PTR [esi+4], eax
  00202	eb 0b		 jmp	 SHORT $LN75@Partition_
$LN102@Partition_:
  00204	8b 06		 mov	 eax, DWORD PTR [esi]
  00206	89 45 f0	 mov	 DWORD PTR $T1[ebp], eax
  00209	8b 46 04	 mov	 eax, DWORD PTR [esi+4]
  0020c	89 45 f4	 mov	 DWORD PTR $T2[ebp], eax
$LN75@Partition_:
; File C:\Program Files (x86)\Microsoft Visual Studio\2019\Community\VC\Tools\MSVC\14.28.29333\include\algorithm

; 7528 :             _STD iter_swap(_Pfirst, --_Plast);

  0020f	8b 7d 14	 mov	 edi, DWORD PTR __Plast$1$[ebp]
  00212	83 ef 08	 sub	 edi, 8
  00215	89 7d 14	 mov	 DWORD PTR __Plast$1$[ebp], edi
; File C:\Program Files (x86)\Microsoft Visual Studio\2019\Community\VC\Tools\MSVC\14.28.29333\include\utility

; 105  :     _Left    = _STD move(_Right);

  00218	8b 07		 mov	 eax, DWORD PTR [edi]
  0021a	8b 4f 04	 mov	 ecx, DWORD PTR [edi+4]
  0021d	89 06		 mov	 DWORD PTR [esi], eax

; 106  :     _Right   = _STD move(_Tmp);

  0021f	8b 45 f0	 mov	 eax, DWORD PTR $T1[ebp]
  00222	89 4e 04	 mov	 DWORD PTR [esi+4], ecx
; File C:\Program Files (x86)\Microsoft Visual Studio\2019\Community\VC\Tools\MSVC\14.28.29333\include\algorithm

; 7529 :         } else {

  00225	8b 4d fc	 mov	 ecx, DWORD PTR __Glast$1$[ebp]
; File C:\Program Files (x86)\Microsoft Visual Studio\2019\Community\VC\Tools\MSVC\14.28.29333\include\utility

; 106  :     _Right   = _STD move(_Tmp);

  00228	89 07		 mov	 DWORD PTR [edi], eax
  0022a	8b 45 f4	 mov	 eax, DWORD PTR $T2[ebp]
  0022d	89 47 04	 mov	 DWORD PTR [edi+4], eax
; File C:\Program Files (x86)\Microsoft Visual Studio\2019\Community\VC\Tools\MSVC\14.28.29333\include\algorithm

; 7529 :         } else {

  00230	e9 ab fe ff ff	 jmp	 $LL6@Partition_
$LN30@Partition_:
; File C:\Program Files (x86)\Microsoft Visual Studio\2019\Community\VC\Tools\MSVC\14.28.29333\include\utility

; 105  :     _Left    = _STD move(_Right);

  00235	8b 01		 mov	 eax, DWORD PTR [ecx]
  00237	8b 7b 04	 mov	 edi, DWORD PTR [ebx+4]
  0023a	8b 13		 mov	 edx, DWORD PTR [ebx]
; File C:\Program Files (x86)\Microsoft Visual Studio\2019\Community\VC\Tools\MSVC\14.28.29333\include\algorithm

; 7530 :             _STD iter_swap(_Gfirst, --_Glast);

  0023c	89 4d fc	 mov	 DWORD PTR __Glast$1$[ebp], ecx
; File C:\Program Files (x86)\Microsoft Visual Studio\2019\Community\VC\Tools\MSVC\14.28.29333\include\utility

; 105  :     _Left    = _STD move(_Right);

  0023f	8b 49 04	 mov	 ecx, DWORD PTR [ecx+4]
  00242	89 4b 04	 mov	 DWORD PTR [ebx+4], ecx

; 106  :     _Right   = _STD move(_Tmp);

  00245	8b 4d fc	 mov	 ecx, DWORD PTR __Glast$1$[ebp]
  00248	89 03		 mov	 DWORD PTR [ebx], eax
; File C:\Program Files (x86)\Microsoft Visual Studio\2019\Community\VC\Tools\MSVC\14.28.29333\include\algorithm

; 7531 :             ++_Gfirst;

  0024a	83 c3 08	 add	 ebx, 8
; File C:\Program Files (x86)\Microsoft Visual Studio\2019\Community\VC\Tools\MSVC\14.28.29333\include\utility

; 106  :     _Right   = _STD move(_Tmp);

  0024d	89 11		 mov	 DWORD PTR [ecx], edx
; File C:\Program Files (x86)\Microsoft Visual Studio\2019\Community\VC\Tools\MSVC\14.28.29333\include\algorithm

; 7533 :     }

  0024f	8b 55 10	 mov	 edx, DWORD PTR __Last$[ebp]
; File C:\Program Files (x86)\Microsoft Visual Studio\2019\Community\VC\Tools\MSVC\14.28.29333\include\utility

; 106  :     _Right   = _STD move(_Tmp);

  00252	89 79 04	 mov	 DWORD PTR [ecx+4], edi
; File C:\Program Files (x86)\Microsoft Visual Studio\2019\Community\VC\Tools\MSVC\14.28.29333\include\algorithm

; 7533 :     }

  00255	8b 7d 14	 mov	 edi, DWORD PTR __Plast$1$[ebp]
  00258	e9 7e fe ff ff	 jmp	 $LN117@Partition_
$LN92@Partition_:
; File C:\Program Files (x86)\Microsoft Visual Studio\2019\Community\VC\Tools\MSVC\14.28.29333\include\utility

; 190  :         : first(_STD forward<_Other1>(_Val1)), second(_STD forward<_Other2>(_Val2)) {}

  0025d	8b 45 08	 mov	 eax, DWORD PTR ___$ReturnUdt$[ebp]
; File C:\Program Files (x86)\Microsoft Visual Studio\2019\Community\VC\Tools\MSVC\14.28.29333\include\algorithm

; 7511 :             return pair<_RanIt, _RanIt>(_Pfirst, _Plast);

  00260	5f		 pop	 edi
; File C:\Program Files (x86)\Microsoft Visual Studio\2019\Community\VC\Tools\MSVC\14.28.29333\include\utility

; 190  :         : first(_STD forward<_Other1>(_Val1)), second(_STD forward<_Other2>(_Val2)) {}

  00261	89 30		 mov	 DWORD PTR [eax], esi
; File C:\Program Files (x86)\Microsoft Visual Studio\2019\Community\VC\Tools\MSVC\14.28.29333\include\algorithm

; 7511 :             return pair<_RanIt, _RanIt>(_Pfirst, _Plast);

  00263	5e		 pop	 esi
; File C:\Program Files (x86)\Microsoft Visual Studio\2019\Community\VC\Tools\MSVC\14.28.29333\include\utility

; 190  :         : first(_STD forward<_Other1>(_Val1)), second(_STD forward<_Other2>(_Val2)) {}

  00264	89 48 04	 mov	 DWORD PTR [eax+4], ecx
; File C:\Program Files (x86)\Microsoft Visual Studio\2019\Community\VC\Tools\MSVC\14.28.29333\include\algorithm

; 7511 :             return pair<_RanIt, _RanIt>(_Pfirst, _Plast);

  00267	5b		 pop	 ebx

; 7534 : }

  00268	8b e5		 mov	 esp, ebp
  0026a	5d		 pop	 ebp
  0026b	c3		 ret	 0
??$_Partition_by_median_guess_unchecked@PAUSCRCWithNumber@CArea@@UCRCNumComp@2@@std@@YA?AU?$pair@PAUSCRCWithNumber@CArea@@PAU12@@0@PAUSCRCWithNumber@CArea@@0UCRCNumComp@3@@Z ENDP ; std::_Partition_by_median_guess_unchecked<CArea::SCRCWithNumber *,CArea::CRCNumComp>
_TEXT	ENDS
; Function compile flags: /Ogtp
; File C:\Program Files (x86)\Microsoft Visual Studio\2019\Community\VC\Tools\MSVC\14.28.29333\include\algorithm
; File C:\Program Files (x86)\Microsoft Visual Studio\2019\Community\VC\Tools\MSVC\14.28.29333\include\utility
; File C:\Program Files (x86)\Microsoft Visual Studio\2019\Community\VC\Tools\MSVC\14.28.29333\include\algorithm
; File C:\Program Files (x86)\Microsoft Visual Studio\2019\Community\VC\Tools\MSVC\14.28.29333\include\utility
; File C:\Program Files (x86)\Microsoft Visual Studio\2019\Community\VC\Tools\MSVC\14.28.29333\include\algorithm
; File C:\Program Files (x86)\Microsoft Visual Studio\2019\Community\VC\Tools\MSVC\14.28.29333\include\utility
; File C:\Program Files (x86)\Microsoft Visual Studio\2019\Community\VC\Tools\MSVC\14.28.29333\include\algorithm
; File C:\Program Files (x86)\Microsoft Visual Studio\2019\Community\VC\Tools\MSVC\14.28.29333\include\utility
; File C:\Program Files (x86)\Microsoft Visual Studio\2019\Community\VC\Tools\MSVC\14.28.29333\include\algorithm
; File C:\Program Files (x86)\Microsoft Visual Studio\2019\Community\VC\Tools\MSVC\14.28.29333\include\utility
; File C:\Program Files (x86)\Microsoft Visual Studio\2019\Community\VC\Tools\MSVC\14.28.29333\include\algorithm
; File C:\Program Files (x86)\Microsoft Visual Studio\2019\Community\VC\Tools\MSVC\14.28.29333\include\utility
; File C:\Program Files (x86)\Microsoft Visual Studio\2019\Community\VC\Tools\MSVC\14.28.29333\include\algorithm
; File C:\Program Files (x86)\Microsoft Visual Studio\2019\Community\VC\Tools\MSVC\14.28.29333\include\utility
; File C:\Program Files (x86)\Microsoft Visual Studio\2019\Community\VC\Tools\MSVC\14.28.29333\include\algorithm
; File C:\Program Files (x86)\Microsoft Visual Studio\2019\Community\VC\Tools\MSVC\14.28.29333\include\utility
; File C:\Program Files (x86)\Microsoft Visual Studio\2019\Community\VC\Tools\MSVC\14.28.29333\include\algorithm
; File C:\Program Files (x86)\Microsoft Visual Studio\2019\Community\VC\Tools\MSVC\14.28.29333\include\utility
; File C:\Program Files (x86)\Microsoft Visual Studio\2019\Community\VC\Tools\MSVC\14.28.29333\include\algorithm
; File C:\Program Files (x86)\Microsoft Visual Studio\2019\Community\VC\Tools\MSVC\14.28.29333\include\utility
; File C:\Program Files (x86)\Microsoft Visual Studio\2019\Community\VC\Tools\MSVC\14.28.29333\include\algorithm
; File C:\Program Files (x86)\Microsoft Visual Studio\2019\Community\VC\Tools\MSVC\14.28.29333\include\utility
; File C:\Program Files (x86)\Microsoft Visual Studio\2019\Community\VC\Tools\MSVC\14.28.29333\include\xutility
; File C:\Program Files (x86)\Microsoft Visual Studio\2019\Community\VC\Tools\MSVC\14.28.29333\include\algorithm
; File C:\Program Files (x86)\Microsoft Visual Studio\2019\Community\VC\Tools\MSVC\14.28.29333\include\utility
; File C:\Program Files (x86)\Microsoft Visual Studio\2019\Community\VC\Tools\MSVC\14.28.29333\include\xutility
; File C:\Program Files (x86)\Microsoft Visual Studio\2019\Community\VC\Tools\MSVC\14.28.29333\include\utility
; File C:\Program Files (x86)\Microsoft Visual Studio\2019\Community\VC\Tools\MSVC\14.28.29333\include\xutility
; File C:\Program Files (x86)\Microsoft Visual Studio\2019\Community\VC\Tools\MSVC\14.28.29333\include\utility
; File C:\Program Files (x86)\Microsoft Visual Studio\2019\Community\VC\Tools\MSVC\14.28.29333\include\algorithm
;	COMDAT ??$_Sort_unchecked@PAU?$pair@MJ@std@@U?$less@X@2@@std@@YAXPAU?$pair@MJ@0@0HU?$less@X@0@@Z
_TEXT	SEGMENT
__Val$1 = -24						; size = 8
__Val$2 = -24						; size = 8
__Val$3 = -16						; size = 8
__Mid$4 = -16						; size = 8
tv1142 = -12						; size = 4
__Max_sequence_non_leaf$1$ = -8				; size = 4
__Bottom$1$ = -4					; size = 4
__Val$1$ = 8						; size = 4
__First$ = 8						; size = 4
tv1134 = 12						; size = 4
__Last$ = 12						; size = 4
__Ideal$ = 16						; size = 4
__Pred$ = 20						; size = 1
??$_Sort_unchecked@PAU?$pair@MJ@std@@U?$less@X@2@@std@@YAXPAU?$pair@MJ@0@0HU?$less@X@0@@Z PROC ; std::_Sort_unchecked<std::pair<float,long> *,std::less<void> >, COMDAT

; 7537 : _CONSTEXPR20 void _Sort_unchecked(_RanIt _First, _RanIt _Last, _Iter_diff_t<_RanIt> _Ideal, _Pr _Pred) {

  00000	55		 push	 ebp
  00001	8b ec		 mov	 ebp, esp
  00003	83 ec 18	 sub	 esp, 24			; 00000018H
  00006	53		 push	 ebx

; 7538 :     // order [_First, _Last)
; 7539 :     for (;;) {
; 7540 :         if (_Last - _First <= _ISORT_MAX) { // small

  00007	8b 5d 0c	 mov	 ebx, DWORD PTR __Last$[ebp]
  0000a	8b c3		 mov	 eax, ebx
  0000c	56		 push	 esi
  0000d	57		 push	 edi
  0000e	8b 7d 08	 mov	 edi, DWORD PTR __First$[ebp]
  00011	2b c7		 sub	 eax, edi
  00013	83 e0 f8	 and	 eax, -8			; fffffff8H
  00016	3d 00 01 00 00	 cmp	 eax, 256		; 00000100H
  0001b	7e 70		 jle	 SHORT $LN106@Sort_unche
  0001d	8b 75 10	 mov	 esi, DWORD PTR __Ideal$[ebp]
$LL2@Sort_unche:

; 7541 :             _Insertion_sort_unchecked(_First, _Last, _Pred);
; 7542 :             return;
; 7543 :         }
; 7544 : 
; 7545 :         if (_Ideal <= 0) { // heap sort if too many divisions

  00020	85 f6		 test	 esi, esi
  00022	0f 8e d5 00 00
	00		 jle	 $LN107@Sort_unche

; 7548 :             return;
; 7549 :         }
; 7550 : 
; 7551 :         // divide and conquer by quicksort
; 7552 :         auto _Mid = _Partition_by_median_guess_unchecked(_First, _Last, _Pred);

  00028	ff 75 14	 push	 DWORD PTR __Pred$[ebp]
  0002b	8d 45 f0	 lea	 eax, DWORD PTR __Mid$4[ebp]
  0002e	53		 push	 ebx
  0002f	57		 push	 edi
  00030	50		 push	 eax
  00031	e8 00 00 00 00	 call	 ??$_Partition_by_median_guess_unchecked@PAU?$pair@MJ@std@@U?$less@X@2@@std@@YA?AU?$pair@PAU?$pair@MJ@std@@PAU12@@0@PAU?$pair@MJ@0@0U?$less@X@0@@Z ; std::_Partition_by_median_guess_unchecked<std::pair<float,long> *,std::less<void> >

; 7553 : 
; 7554 :         _Ideal = (_Ideal >> 1) + (_Ideal >> 2); // allow 1.5 log2(N) divisions
; 7555 : 
; 7556 :         if (_Mid.first - _First < _Last - _Mid.second) { // loop on second half

  00036	8b 55 f0	 mov	 edx, DWORD PTR __Mid$4[ebp]
  00039	8b c6		 mov	 eax, esi
  0003b	c1 f8 02	 sar	 eax, 2
  0003e	8b cb		 mov	 ecx, ebx
  00040	8b 5d f4	 mov	 ebx, DWORD PTR __Mid$4[ebp+4]
  00043	83 c4 10	 add	 esp, 16			; 00000010H
  00046	d1 fe		 sar	 esi, 1
  00048	2b cb		 sub	 ecx, ebx
  0004a	03 f0		 add	 esi, eax
  0004c	83 e1 f8	 and	 ecx, -8			; fffffff8H
  0004f	8b c2		 mov	 eax, edx
  00051	2b c7		 sub	 eax, edi
  00053	83 e0 f8	 and	 eax, -8			; fffffff8H
  00056	3b c1		 cmp	 eax, ecx
  00058	8b 45 14	 mov	 eax, DWORD PTR __Pred$[ebp]
  0005b	50		 push	 eax
  0005c	56		 push	 esi
  0005d	7d 0e		 jge	 SHORT $LN7@Sort_unche

; 7557 :             _Sort_unchecked(_First, _Mid.first, _Ideal, _Pred);

  0005f	52		 push	 edx
  00060	57		 push	 edi
  00061	e8 00 00 00 00	 call	 ??$_Sort_unchecked@PAU?$pair@MJ@std@@U?$less@X@2@@std@@YAXPAU?$pair@MJ@0@0HU?$less@X@0@@Z ; std::_Sort_unchecked<std::pair<float,long> *,std::less<void> >

; 7558 :             _First = _Mid.second;

  00066	8b fb		 mov	 edi, ebx

; 7559 :         } else { // loop on first half

  00068	8b 5d 0c	 mov	 ebx, DWORD PTR __Last$[ebp]
  0006b	eb 0f		 jmp	 SHORT $LN144@Sort_unche
$LN7@Sort_unche:

; 7560 :             _Sort_unchecked(_Mid.second, _Last, _Ideal, _Pred);

  0006d	ff 75 0c	 push	 DWORD PTR __Last$[ebp]
  00070	53		 push	 ebx
  00071	e8 00 00 00 00	 call	 ??$_Sort_unchecked@PAU?$pair@MJ@std@@U?$less@X@2@@std@@YAXPAU?$pair@MJ@0@0HU?$less@X@0@@Z ; std::_Sort_unchecked<std::pair<float,long> *,std::less<void> >

; 7561 :             _Last = _Mid.first;

  00076	8b 5d f0	 mov	 ebx, DWORD PTR __Mid$4[ebp]
  00079	89 5d 0c	 mov	 DWORD PTR __Last$[ebp], ebx
$LN144@Sort_unche:

; 7538 :     // order [_First, _Last)
; 7539 :     for (;;) {
; 7540 :         if (_Last - _First <= _ISORT_MAX) { // small

  0007c	8b c3		 mov	 eax, ebx
  0007e	83 c4 10	 add	 esp, 16			; 00000010H
  00081	2b c7		 sub	 eax, edi
  00083	83 e0 f8	 and	 eax, -8			; fffffff8H
  00086	3d 00 01 00 00	 cmp	 eax, 256		; 00000100H
  0008b	7f 93		 jg	 SHORT $LL2@Sort_unche
$LN106@Sort_unche:

; 7412 :     if (_First != _Last) {

  0008d	3b fb		 cmp	 edi, ebx
  0008f	0f 84 f9 01 00
	00		 je	 $LN87@Sort_unche

; 7413 :         for (_BidIt _Mid = _First; ++_Mid != _Last;) { // order next element

  00095	8d 77 08	 lea	 esi, DWORD PTR [edi+8]
  00098	3b f3		 cmp	 esi, ebx
  0009a	0f 84 ee 01 00
	00		 je	 $LN87@Sort_unche
$LL11@Sort_unche:

; 7415 :             _Iter_value_t<_BidIt> _Val = _STD move(*_Mid);

  000a0	8b 06		 mov	 eax, DWORD PTR [esi]
  000a2	8b d6		 mov	 edx, esi
; File C:\Program Files (x86)\Microsoft Visual Studio\2019\Community\VC\Tools\MSVC\14.28.29333\include\utility

; 352  :     return _Left.first < _Right.first || (!(_Right.first < _Left.first) && _Left.second < _Right.second);

  000a4	f3 0f 10 07	 movss	 xmm0, DWORD PTR [edi]
; File C:\Program Files (x86)\Microsoft Visual Studio\2019\Community\VC\Tools\MSVC\14.28.29333\include\algorithm

; 7415 :             _Iter_value_t<_BidIt> _Val = _STD move(*_Mid);

  000a8	8b 5e 04	 mov	 ebx, DWORD PTR [esi+4]
  000ab	89 45 e8	 mov	 DWORD PTR __Val$2[ebp], eax
; File C:\Program Files (x86)\Microsoft Visual Studio\2019\Community\VC\Tools\MSVC\14.28.29333\include\utility

; 352  :     return _Left.first < _Right.first || (!(_Right.first < _Left.first) && _Left.second < _Right.second);

  000ae	f3 0f 10 4d e8	 movss	 xmm1, DWORD PTR __Val$2[ebp]
  000b3	0f 2f c1	 comiss	 xmm0, xmm1
  000b6	0f 87 a3 01 00
	00		 ja	 $LN122@Sort_unche
  000bc	0f 2f c8	 comiss	 xmm1, xmm0
  000bf	77 09		 ja	 SHORT $LN18@Sort_unche
  000c1	3b 5f 04	 cmp	 ebx, DWORD PTR [edi+4]
  000c4	0f 8c 95 01 00
	00		 jl	 $LN122@Sort_unche
$LN18@Sort_unche:
; File C:\Program Files (x86)\Microsoft Visual Studio\2019\Community\VC\Tools\MSVC\14.28.29333\include\algorithm

; 7421 :                 for (_BidIt _Prev = _Hole; _DEBUG_LT_PRED(_Pred, _Val, *--_Prev); _Hole = _Prev) {

  000ca	8b ce		 mov	 ecx, esi
  000cc	0f 1f 40 00	 npad	 4
$LL16@Sort_unche:
; File C:\Program Files (x86)\Microsoft Visual Studio\2019\Community\VC\Tools\MSVC\14.28.29333\include\utility

; 352  :     return _Left.first < _Right.first || (!(_Right.first < _Left.first) && _Left.second < _Right.second);

  000d0	f3 0f 10 41 f8	 movss	 xmm0, DWORD PTR [ecx-8]
; File C:\Program Files (x86)\Microsoft Visual Studio\2019\Community\VC\Tools\MSVC\14.28.29333\include\algorithm

; 7421 :                 for (_BidIt _Prev = _Hole; _DEBUG_LT_PRED(_Pred, _Val, *--_Prev); _Hole = _Prev) {

  000d5	83 e9 08	 sub	 ecx, 8
; File C:\Program Files (x86)\Microsoft Visual Studio\2019\Community\VC\Tools\MSVC\14.28.29333\include\utility

; 352  :     return _Left.first < _Right.first || (!(_Right.first < _Left.first) && _Left.second < _Right.second);

  000d8	0f 2f c1	 comiss	 xmm0, xmm1
  000db	77 12		 ja	 SHORT $LN140@Sort_unche
  000dd	0f 2f c8	 comiss	 xmm1, xmm0
  000e0	0f 87 70 01 00
	00		 ja	 $LN139@Sort_unche
  000e6	3b 59 04	 cmp	 ebx, DWORD PTR [ecx+4]
  000e9	0f 8d 67 01 00
	00		 jge	 $LN139@Sort_unche
$LN140@Sort_unche:

; 290  :         first  = _STD forward<_Ty1>(_Right.first);

  000ef	f3 0f 11 02	 movss	 DWORD PTR [edx], xmm0

; 291  :         second = _STD forward<_Ty2>(_Right.second);

  000f3	8b 41 04	 mov	 eax, DWORD PTR [ecx+4]
  000f6	89 42 04	 mov	 DWORD PTR [edx+4], eax
; File C:\Program Files (x86)\Microsoft Visual Studio\2019\Community\VC\Tools\MSVC\14.28.29333\include\algorithm

; 7421 :                 for (_BidIt _Prev = _Hole; _DEBUG_LT_PRED(_Pred, _Val, *--_Prev); _Hole = _Prev) {

  000f9	8b d1		 mov	 edx, ecx
  000fb	eb d3		 jmp	 SHORT $LL16@Sort_unche
$LN107@Sort_unche:

; 6360 :     _Diff _Bottom = _Last - _First;

  000fd	8b cb		 mov	 ecx, ebx
  000ff	2b cf		 sub	 ecx, edi
  00101	8b c1		 mov	 eax, ecx
  00103	89 4d f4	 mov	 DWORD PTR tv1142[ebp], ecx
  00106	c1 f8 03	 sar	 eax, 3

; 6361 :     for (_Diff _Hole = _Bottom >> 1; _Hole > 0;) { // shift for codegen

  00109	8b f0		 mov	 esi, eax
  0010b	89 45 fc	 mov	 DWORD PTR __Bottom$1$[ebp], eax
  0010e	d1 fe		 sar	 esi, 1
  00110	85 f6		 test	 esi, esi
  00112	0f 8e e5 00 00
	00		 jle	 $LN49@Sort_unche
  00118	8d 58 ff	 lea	 ebx, DWORD PTR [eax-1]
  0011b	d1 fb		 sar	 ebx, 1
  0011d	89 5d f8	 mov	 DWORD PTR __Max_sequence_non_leaf$1$[ebp], ebx
$LL48@Sort_unche:

; 6362 :         // reheap top half, bottom to top
; 6363 :         --_Hole;
; 6364 :         _Iter_value_t<_RanIt> _Val = _STD move(*(_First + _Hole));

  00120	8b 4c f7 fc	 mov	 ecx, DWORD PTR [edi+esi*8-4]
  00124	4e		 dec	 esi
  00125	89 4d 08	 mov	 DWORD PTR __Val$1$[ebp], ecx

; 6365 :         _Pop_heap_hole_by_index(_First, _Hole, _Bottom, _STD move(_Val), _Pred);

  00128	8b d6		 mov	 edx, esi

; 6192 :     _Diff _Idx       = _Hole;

  0012a	8b ce		 mov	 ecx, esi

; 6364 :         _Iter_value_t<_RanIt> _Val = _STD move(*(_First + _Hole));

  0012c	8b 04 f7	 mov	 eax, DWORD PTR [edi+esi*8]
  0012f	89 45 e8	 mov	 DWORD PTR __Val$1[ebp], eax

; 6197 :     while (_Idx < _Max_sequence_non_leaf) { // move _Hole down to larger child

  00132	3b f3		 cmp	 esi, ebx
  00134	7d 4e		 jge	 SHORT $LN54@Sort_unche
  00136	66 66 0f 1f 84
	00 00 00 00 00	 npad	 10
$LL53@Sort_unche:

; 6198 :         _Idx = 2 * _Idx + 2;

  00140	03 c9		 add	 ecx, ecx
; File C:\Program Files (x86)\Microsoft Visual Studio\2019\Community\VC\Tools\MSVC\14.28.29333\include\utility

; 352  :     return _Left.first < _Right.first || (!(_Right.first < _Left.first) && _Left.second < _Right.second);

  00142	f3 0f 10 4c cf
	10		 movss	 xmm1, DWORD PTR [edi+ecx*8+16]
  00148	f3 0f 10 44 cf
	08		 movss	 xmm0, DWORD PTR [edi+ecx*8+8]
  0014e	0f 2f c1	 comiss	 xmm0, xmm1
  00151	77 16		 ja	 SHORT $LN125@Sort_unche
  00153	0f 2f c8	 comiss	 xmm1, xmm0
  00156	77 0a		 ja	 SHORT $LN62@Sort_unche
  00158	8b 44 cf 14	 mov	 eax, DWORD PTR [edi+ecx*8+20]
  0015c	3b 44 cf 0c	 cmp	 eax, DWORD PTR [edi+ecx*8+12]
  00160	7c 07		 jl	 SHORT $LN125@Sort_unche
$LN62@Sort_unche:
  00162	b8 02 00 00 00	 mov	 eax, 2
  00167	eb 05		 jmp	 SHORT $LN64@Sort_unche
$LN125@Sort_unche:
  00169	b8 01 00 00 00	 mov	 eax, 1
$LN64@Sort_unche:
; File C:\Program Files (x86)\Microsoft Visual Studio\2019\Community\VC\Tools\MSVC\14.28.29333\include\algorithm

; 6202 :         *(_First + _Hole) = _STD move(*(_First + _Idx));

  0016e	03 c8		 add	 ecx, eax
; File C:\Program Files (x86)\Microsoft Visual Studio\2019\Community\VC\Tools\MSVC\14.28.29333\include\utility

; 290  :         first  = _STD forward<_Ty1>(_Right.first);

  00170	8b 04 cf	 mov	 eax, DWORD PTR [edi+ecx*8]
  00173	89 04 d7	 mov	 DWORD PTR [edi+edx*8], eax

; 291  :         second = _STD forward<_Ty2>(_Right.second);

  00176	8b 44 cf 04	 mov	 eax, DWORD PTR [edi+ecx*8+4]
  0017a	89 44 d7 04	 mov	 DWORD PTR [edi+edx*8+4], eax
; File C:\Program Files (x86)\Microsoft Visual Studio\2019\Community\VC\Tools\MSVC\14.28.29333\include\algorithm

; 6203 :         _Hole             = _Idx;

  0017e	8b d1		 mov	 edx, ecx
  00180	3b cb		 cmp	 ecx, ebx
  00182	7c bc		 jl	 SHORT $LL53@Sort_unche
$LN54@Sort_unche:

; 6204 :     }
; 6205 : 
; 6206 :     if (_Idx == _Max_sequence_non_leaf && _Bottom % 2 == 0) { // only child at bottom, move _Hole down to it

  00184	3b d3		 cmp	 edx, ebx
  00186	75 1a		 jne	 SHORT $LN56@Sort_unche
  00188	8b 4d fc	 mov	 ecx, DWORD PTR __Bottom$1$[ebp]
  0018b	f6 c1 01	 test	 cl, 1
  0018e	75 12		 jne	 SHORT $LN56@Sort_unche
; File C:\Program Files (x86)\Microsoft Visual Studio\2019\Community\VC\Tools\MSVC\14.28.29333\include\utility

; 290  :         first  = _STD forward<_Ty1>(_Right.first);

  00190	8b 44 cf f8	 mov	 eax, DWORD PTR [edi+ecx*8-8]
  00194	89 04 d7	 mov	 DWORD PTR [edi+edx*8], eax

; 291  :         second = _STD forward<_Ty2>(_Right.second);

  00197	8b 44 cf fc	 mov	 eax, DWORD PTR [edi+ecx*8-4]
  0019b	89 44 d7 04	 mov	 DWORD PTR [edi+edx*8+4], eax
; File C:\Program Files (x86)\Microsoft Visual Studio\2019\Community\VC\Tools\MSVC\14.28.29333\include\algorithm

; 6208 :         _Hole             = _Bottom - 1;

  0019f	8d 51 ff	 lea	 edx, DWORD PTR [ecx-1]
$LN56@Sort_unche:

; 6077 :          _Top < _Hole && _DEBUG_LT_PRED(_Pred, *(_First + _Idx), _Val); //

  001a2	f3 0f 10 4d e8	 movss	 xmm1, DWORD PTR __Val$1[ebp]
  001a7	3b f2		 cmp	 esi, edx
  001a9	7d 35		 jge	 SHORT $LN127@Sort_unche
  001ab	8b 5d 08	 mov	 ebx, DWORD PTR __Val$1$[ebp]
  001ae	66 90		 npad	 2
$LL72@Sort_unche:

; 6076 :     for (_Diff _Idx = (_Hole - 1) >> 1; // shift for codegen

  001b0	8d 4a ff	 lea	 ecx, DWORD PTR [edx-1]
  001b3	d1 f9		 sar	 ecx, 1
; File C:\Program Files (x86)\Microsoft Visual Studio\2019\Community\VC\Tools\MSVC\14.28.29333\include\utility

; 352  :     return _Left.first < _Right.first || (!(_Right.first < _Left.first) && _Left.second < _Right.second);

  001b5	f3 0f 10 04 cf	 movss	 xmm0, DWORD PTR [edi+ecx*8]
  001ba	0f 2f c8	 comiss	 xmm1, xmm0
  001bd	77 0b		 ja	 SHORT $LN141@Sort_unche
  001bf	0f 2f c1	 comiss	 xmm0, xmm1
  001c2	77 19		 ja	 SHORT $LN143@Sort_unche
  001c4	39 5c cf 04	 cmp	 DWORD PTR [edi+ecx*8+4], ebx
  001c8	7d 13		 jge	 SHORT $LN143@Sort_unche
$LN141@Sort_unche:

; 290  :         first  = _STD forward<_Ty1>(_Right.first);

  001ca	f3 0f 11 04 d7	 movss	 DWORD PTR [edi+edx*8], xmm0

; 291  :         second = _STD forward<_Ty2>(_Right.second);

  001cf	8b 44 cf 04	 mov	 eax, DWORD PTR [edi+ecx*8+4]
  001d3	89 44 d7 04	 mov	 DWORD PTR [edi+edx*8+4], eax
; File C:\Program Files (x86)\Microsoft Visual Studio\2019\Community\VC\Tools\MSVC\14.28.29333\include\algorithm

; 6081 :         _Hole             = _Idx;

  001d7	8b d1		 mov	 edx, ecx
  001d9	3b f1		 cmp	 esi, ecx
  001db	7c d3		 jl	 SHORT $LL72@Sort_unche
$LN143@Sort_unche:
  001dd	8b 5d f8	 mov	 ebx, DWORD PTR __Max_sequence_non_leaf$1$[ebp]
$LN127@Sort_unche:
; File C:\Program Files (x86)\Microsoft Visual Studio\2019\Community\VC\Tools\MSVC\14.28.29333\include\utility

; 291  :         second = _STD forward<_Ty2>(_Right.second);

  001e0	8b 45 08	 mov	 eax, DWORD PTR __Val$1$[ebp]
  001e3	f3 0f 11 0c d7	 movss	 DWORD PTR [edi+edx*8], xmm1
  001e8	89 44 d7 04	 mov	 DWORD PTR [edi+edx*8+4], eax
; File C:\Program Files (x86)\Microsoft Visual Studio\2019\Community\VC\Tools\MSVC\14.28.29333\include\algorithm

; 6361 :     for (_Diff _Hole = _Bottom >> 1; _Hole > 0;) { // shift for codegen

  001ec	85 f6		 test	 esi, esi
  001ee	0f 8f 2c ff ff
	ff		 jg	 $LL48@Sort_unche
  001f4	8b 5d 0c	 mov	 ebx, DWORD PTR __Last$[ebp]
  001f7	8b 45 fc	 mov	 eax, DWORD PTR __Bottom$1$[ebp]
  001fa	8b 4d f4	 mov	 ecx, DWORD PTR tv1142[ebp]
$LN49@Sort_unche:

; 6592 :     for (; _Last - _First >= 2; --_Last) {

  001fd	83 f8 02	 cmp	 eax, 2
  00200	0f 8c 88 00 00
	00		 jl	 $LN87@Sort_unche

; 7546 :             _Make_heap_unchecked(_First, _Last, _Pred);
; 7547 :             _Sort_heap_unchecked(_First, _Last, _Pred);

  00206	8d 51 f8	 lea	 edx, DWORD PTR [ecx-8]
  00209	83 c3 f8	 add	 ebx, -8			; fffffff8H
  0020c	89 55 0c	 mov	 DWORD PTR tv1134[ebp], edx
  0020f	90		 npad	 1
$LL88@Sort_unche:

; 6230 :         _Iter_value_t<_RanIt> _Val = _STD move(*_Last);

  00210	8b 03		 mov	 eax, DWORD PTR [ebx]

; 6221 :     _Pop_heap_hole_by_index(

  00212	8b f2		 mov	 esi, edx

; 6230 :         _Iter_value_t<_RanIt> _Val = _STD move(*_Last);

  00214	8b 4b 04	 mov	 ecx, DWORD PTR [ebx+4]

; 6221 :     _Pop_heap_hole_by_index(

  00217	ff 75 14	 push	 DWORD PTR __Pred$[ebp]

; 6230 :         _Iter_value_t<_RanIt> _Val = _STD move(*_Last);

  0021a	89 45 f0	 mov	 DWORD PTR __Val$3[ebp], eax
; File C:\Program Files (x86)\Microsoft Visual Studio\2019\Community\VC\Tools\MSVC\14.28.29333\include\utility

; 290  :         first  = _STD forward<_Ty1>(_Right.first);

  0021d	8b 07		 mov	 eax, DWORD PTR [edi]
  0021f	89 03		 mov	 DWORD PTR [ebx], eax

; 291  :         second = _STD forward<_Ty2>(_Right.second);

  00221	8b 47 04	 mov	 eax, DWORD PTR [edi+4]
  00224	89 44 17 04	 mov	 DWORD PTR [edi+edx+4], eax
; File C:\Program Files (x86)\Microsoft Visual Studio\2019\Community\VC\Tools\MSVC\14.28.29333\include\algorithm

; 6221 :     _Pop_heap_hole_by_index(

  00228	8d 45 f0	 lea	 eax, DWORD PTR __Val$3[ebp]
  0022b	50		 push	 eax
  0022c	c1 fe 03	 sar	 esi, 3
  0022f	56		 push	 esi
  00230	6a 00		 push	 0
  00232	57		 push	 edi

; 6230 :         _Iter_value_t<_RanIt> _Val = _STD move(*_Last);

  00233	89 4d f4	 mov	 DWORD PTR __Val$3[ebp+4], ecx

; 6221 :     _Pop_heap_hole_by_index(

  00236	e8 00 00 00 00	 call	 ??$_Pop_heap_hole_by_index@PAU?$pair@MJ@std@@U12@U?$less@X@2@@std@@YAXPAU?$pair@MJ@0@HH$$QAU10@U?$less@X@0@@Z ; std::_Pop_heap_hole_by_index<std::pair<float,long> *,std::pair<float,long>,std::less<void> >

; 6592 :     for (; _Last - _First >= 2; --_Last) {

  0023b	8b 55 0c	 mov	 edx, DWORD PTR tv1134[ebp]
  0023e	8d 5b f8	 lea	 ebx, DWORD PTR [ebx-8]
  00241	83 ea 08	 sub	 edx, 8

; 6221 :     _Pop_heap_hole_by_index(

  00244	83 c4 14	 add	 esp, 20			; 00000014H

; 6592 :     for (; _Last - _First >= 2; --_Last) {

  00247	89 55 0c	 mov	 DWORD PTR tv1134[ebp], edx
  0024a	83 fe 02	 cmp	 esi, 2
  0024d	7d c1		 jge	 SHORT $LL88@Sort_unche

; 7562 :         }
; 7563 :     }
; 7564 : }

  0024f	5f		 pop	 edi
  00250	5e		 pop	 esi
  00251	5b		 pop	 ebx
  00252	8b e5		 mov	 esp, ebp
  00254	5d		 pop	 ebp
  00255	c3		 ret	 0
$LN139@Sort_unche:
; File C:\Program Files (x86)\Microsoft Visual Studio\2019\Community\VC\Tools\MSVC\14.28.29333\include\utility

; 290  :         first  = _STD forward<_Ty1>(_Right.first);

  00256	f3 0f 11 0a	 movss	 DWORD PTR [edx], xmm1

; 291  :         second = _STD forward<_Ty2>(_Right.second);

  0025a	89 5a 04	 mov	 DWORD PTR [edx+4], ebx
  0025d	eb 23		 jmp	 SHORT $LN46@Sort_unche
$LN122@Sort_unche:
; File C:\Program Files (x86)\Microsoft Visual Studio\2019\Community\VC\Tools\MSVC\14.28.29333\include\xutility

; 4700 :     while (_First != _Last) {

  0025f	3b f7		 cmp	 esi, edi
  00261	74 18		 je	 SHORT $LN30@Sort_unche
; File C:\Program Files (x86)\Microsoft Visual Studio\2019\Community\VC\Tools\MSVC\14.28.29333\include\algorithm

; 7418 :                 _Move_backward_unchecked(_First, _Mid, ++_Hole);

  00263	8d 4e 04	 lea	 ecx, DWORD PTR [esi+4]
$LL113@Sort_unche:
; File C:\Program Files (x86)\Microsoft Visual Studio\2019\Community\VC\Tools\MSVC\14.28.29333\include\utility

; 290  :         first  = _STD forward<_Ty1>(_Right.first);

  00266	8b 41 f4	 mov	 eax, DWORD PTR [ecx-12]
; File C:\Program Files (x86)\Microsoft Visual Studio\2019\Community\VC\Tools\MSVC\14.28.29333\include\xutility

; 4701 :         *--_Dest = _STD move(*--_Last);

  00269	8d 49 f8	 lea	 ecx, DWORD PTR [ecx-8]
; File C:\Program Files (x86)\Microsoft Visual Studio\2019\Community\VC\Tools\MSVC\14.28.29333\include\utility

; 290  :         first  = _STD forward<_Ty1>(_Right.first);

  0026c	89 41 04	 mov	 DWORD PTR [ecx+4], eax

; 291  :         second = _STD forward<_Ty2>(_Right.second);

  0026f	8b 01		 mov	 eax, DWORD PTR [ecx]
  00271	89 41 08	 mov	 DWORD PTR [ecx+8], eax
; File C:\Program Files (x86)\Microsoft Visual Studio\2019\Community\VC\Tools\MSVC\14.28.29333\include\xutility

; 4700 :     while (_First != _Last) {

  00274	8d 41 fc	 lea	 eax, DWORD PTR [ecx-4]
  00277	3b c7		 cmp	 eax, edi
  00279	75 eb		 jne	 SHORT $LL113@Sort_unche
$LN30@Sort_unche:
; File C:\Program Files (x86)\Microsoft Visual Studio\2019\Community\VC\Tools\MSVC\14.28.29333\include\utility

; 290  :         first  = _STD forward<_Ty1>(_Right.first);

  0027b	f3 0f 11 0f	 movss	 DWORD PTR [edi], xmm1

; 291  :         second = _STD forward<_Ty2>(_Right.second);

  0027f	89 5f 04	 mov	 DWORD PTR [edi+4], ebx
$LN46@Sort_unche:
; File C:\Program Files (x86)\Microsoft Visual Studio\2019\Community\VC\Tools\MSVC\14.28.29333\include\algorithm

; 7413 :         for (_BidIt _Mid = _First; ++_Mid != _Last;) { // order next element

  00282	83 c6 08	 add	 esi, 8
  00285	3b 75 0c	 cmp	 esi, DWORD PTR __Last$[ebp]
  00288	0f 85 12 fe ff
	ff		 jne	 $LL11@Sort_unche
$LN87@Sort_unche:
  0028e	5f		 pop	 edi

; 7562 :         }
; 7563 :     }
; 7564 : }

  0028f	5e		 pop	 esi
  00290	5b		 pop	 ebx
  00291	8b e5		 mov	 esp, ebp
  00293	5d		 pop	 ebp
  00294	c3		 ret	 0
??$_Sort_unchecked@PAU?$pair@MJ@std@@U?$less@X@2@@std@@YAXPAU?$pair@MJ@0@0HU?$less@X@0@@Z ENDP ; std::_Sort_unchecked<std::pair<float,long> *,std::less<void> >
_TEXT	ENDS
; Function compile flags: /Ogtp
; File C:\Program Files (x86)\Microsoft Visual Studio\2019\Community\VC\Tools\MSVC\14.28.29333\include\xmemory
;	COMDAT ??$_Uninitialized_move@PAEV?$allocator@E@std@@@std@@YAPAEQAE0PAEAAV?$allocator@E@0@@Z
_TEXT	SEGMENT
__First$ = 8						; size = 4
__Last$ = 12						; size = 4
__Dest$ = 16						; size = 4
__Al$ = 20						; size = 4
??$_Uninitialized_move@PAEV?$allocator@E@std@@@std@@YAPAEQAE0PAEAAV?$allocator@E@0@@Z PROC ; std::_Uninitialized_move<unsigned char *,std::allocator<unsigned char> >, COMDAT

; 1685 :     const _InIt _First, const _InIt _Last, _Alloc_ptr_t<_Alloc> _Dest, _Alloc& _Al) {

  00000	55		 push	 ebp
  00001	8b ec		 mov	 ebp, esp
  00003	57		 push	 edi

; 1686 :     // move [_First, _Last) to raw _Dest, using _Al
; 1687 :     // note: only called internally from elsewhere in the STL
; 1688 :     using _Ptrval     = typename _Alloc::value_type*;
; 1689 :     auto _UFirst      = _Get_unwrapped(_First);
; 1690 :     const auto _ULast = _Get_unwrapped(_Last);
; 1691 :     if constexpr (conjunction_v<bool_constant<_Ptr_move_cat<decltype(_UFirst), _Ptrval>::_Really_trivial>,
; 1692 :                       _Uses_default_construct<_Alloc, _Ptrval, decltype(_STD move(*_UFirst))>>) {
; 1693 :         _Copy_memmove(_UFirst, _ULast, _Unfancy(_Dest));

  00004	ff 75 10	 push	 DWORD PTR __Dest$[ebp]
  00007	8b 7d 0c	 mov	 edi, DWORD PTR __Last$[ebp]
  0000a	57		 push	 edi
  0000b	ff 75 08	 push	 DWORD PTR __First$[ebp]
  0000e	e8 00 00 00 00	 call	 ??$_Copy_memmove@PAEPAE@std@@YAPAEPAE00@Z ; std::_Copy_memmove<unsigned char *,unsigned char *>

; 1694 :         return _Dest + (_ULast - _UFirst);

  00013	2b 7d 08	 sub	 edi, DWORD PTR __First$[ebp]
  00016	83 c4 0c	 add	 esp, 12			; 0000000cH
  00019	03 7d 10	 add	 edi, DWORD PTR __Dest$[ebp]
  0001c	8b c7		 mov	 eax, edi
  0001e	5f		 pop	 edi

; 1695 :     } else {
; 1696 :         _Uninitialized_backout_al<_Alloc> _Backout{_Dest, _Al};
; 1697 :         for (; _UFirst != _ULast; ++_UFirst) {
; 1698 :             _Backout._Emplace_back(_STD move(*_UFirst));
; 1699 :         }
; 1700 : 
; 1701 :         return _Backout._Release();
; 1702 :     }
; 1703 : }

  0001f	5d		 pop	 ebp
  00020	c3		 ret	 0
??$_Uninitialized_move@PAEV?$allocator@E@std@@@std@@YAPAEQAE0PAEAAV?$allocator@E@0@@Z ENDP ; std::_Uninitialized_move<unsigned char *,std::allocator<unsigned char> >
_TEXT	ENDS
; Function compile flags: /Ogtp
; File C:\Program Files (x86)\Microsoft Visual Studio\2019\Community\VC\Tools\MSVC\14.28.29333\include\xmemory
;	COMDAT ??$_Uninitialized_move@PAUSCRCWithNumber@CArea@@V?$allocator@USCRCWithNumber@CArea@@@std@@@std@@YAPAUSCRCWithNumber@CArea@@QAU12@0PAU12@AAV?$allocator@USCRCWithNumber@CArea@@@0@@Z
_TEXT	SEGMENT
__First$ = 8						; size = 4
__Last$ = 12						; size = 4
__Dest$ = 16						; size = 4
__Al$ = 20						; size = 4
??$_Uninitialized_move@PAUSCRCWithNumber@CArea@@V?$allocator@USCRCWithNumber@CArea@@@std@@@std@@YAPAUSCRCWithNumber@CArea@@QAU12@0PAU12@AAV?$allocator@USCRCWithNumber@CArea@@@0@@Z PROC ; std::_Uninitialized_move<CArea::SCRCWithNumber *,std::allocator<CArea::SCRCWithNumber> >, COMDAT

; 1685 :     const _InIt _First, const _InIt _Last, _Alloc_ptr_t<_Alloc> _Dest, _Alloc& _Al) {

  00000	55		 push	 ebp
  00001	8b ec		 mov	 ebp, esp
  00003	53		 push	 ebx

; 1686 :     // move [_First, _Last) to raw _Dest, using _Al
; 1687 :     // note: only called internally from elsewhere in the STL
; 1688 :     using _Ptrval     = typename _Alloc::value_type*;
; 1689 :     auto _UFirst      = _Get_unwrapped(_First);
; 1690 :     const auto _ULast = _Get_unwrapped(_Last);
; 1691 :     if constexpr (conjunction_v<bool_constant<_Ptr_move_cat<decltype(_UFirst), _Ptrval>::_Really_trivial>,
; 1692 :                       _Uses_default_construct<_Alloc, _Ptrval, decltype(_STD move(*_UFirst))>>) {
; 1693 :         _Copy_memmove(_UFirst, _ULast, _Unfancy(_Dest));

  00004	8b 5d 10	 mov	 ebx, DWORD PTR __Dest$[ebp]
  00007	57		 push	 edi
  00008	8b 7d 0c	 mov	 edi, DWORD PTR __Last$[ebp]
  0000b	53		 push	 ebx
  0000c	57		 push	 edi
  0000d	ff 75 08	 push	 DWORD PTR __First$[ebp]
  00010	e8 00 00 00 00	 call	 ??$_Copy_memmove@PAUSCRCWithNumber@CArea@@PAU12@@std@@YAPAUSCRCWithNumber@CArea@@PAU12@00@Z ; std::_Copy_memmove<CArea::SCRCWithNumber *,CArea::SCRCWithNumber *>

; 1694 :         return _Dest + (_ULast - _UFirst);

  00015	2b 7d 08	 sub	 edi, DWORD PTR __First$[ebp]
  00018	83 c4 0c	 add	 esp, 12			; 0000000cH
  0001b	c1 ff 03	 sar	 edi, 3
  0001e	8d 04 fb	 lea	 eax, DWORD PTR [ebx+edi*8]
  00021	5f		 pop	 edi
  00022	5b		 pop	 ebx

; 1695 :     } else {
; 1696 :         _Uninitialized_backout_al<_Alloc> _Backout{_Dest, _Al};
; 1697 :         for (; _UFirst != _ULast; ++_UFirst) {
; 1698 :             _Backout._Emplace_back(_STD move(*_UFirst));
; 1699 :         }
; 1700 : 
; 1701 :         return _Backout._Release();
; 1702 :     }
; 1703 : }

  00023	5d		 pop	 ebp
  00024	c3		 ret	 0
??$_Uninitialized_move@PAUSCRCWithNumber@CArea@@V?$allocator@USCRCWithNumber@CArea@@@std@@@std@@YAPAUSCRCWithNumber@CArea@@QAU12@0PAU12@AAV?$allocator@USCRCWithNumber@CArea@@@0@@Z ENDP ; std::_Uninitialized_move<CArea::SCRCWithNumber *,std::allocator<CArea::SCRCWithNumber> >
_TEXT	ENDS
; Function compile flags: /Ogtp
; File C:\Program Files (x86)\Microsoft Visual Studio\2019\Community\VC\Tools\MSVC\14.28.29333\include\xmemory
;	COMDAT ??$_Uninitialized_move@PAU?$pair@MJ@std@@V?$allocator@U?$pair@MJ@std@@@2@@std@@YAPAU?$pair@MJ@0@QAU10@0PAU10@AAV?$allocator@U?$pair@MJ@std@@@0@@Z
_TEXT	SEGMENT
__First$ = 8						; size = 4
__Last$ = 12						; size = 4
__Dest$ = 16						; size = 4
__Al$ = 20						; size = 4
??$_Uninitialized_move@PAU?$pair@MJ@std@@V?$allocator@U?$pair@MJ@std@@@2@@std@@YAPAU?$pair@MJ@0@QAU10@0PAU10@AAV?$allocator@U?$pair@MJ@std@@@0@@Z PROC ; std::_Uninitialized_move<std::pair<float,long> *,std::allocator<std::pair<float,long> > >, COMDAT

; 1685 :     const _InIt _First, const _InIt _Last, _Alloc_ptr_t<_Alloc> _Dest, _Alloc& _Al) {

  00000	55		 push	 ebp
  00001	8b ec		 mov	 ebp, esp

; 1686 :     // move [_First, _Last) to raw _Dest, using _Al
; 1687 :     // note: only called internally from elsewhere in the STL
; 1688 :     using _Ptrval     = typename _Alloc::value_type*;
; 1689 :     auto _UFirst      = _Get_unwrapped(_First);
; 1690 :     const auto _ULast = _Get_unwrapped(_Last);
; 1691 :     if constexpr (conjunction_v<bool_constant<_Ptr_move_cat<decltype(_UFirst), _Ptrval>::_Really_trivial>,
; 1692 :                       _Uses_default_construct<_Alloc, _Ptrval, decltype(_STD move(*_UFirst))>>) {
; 1693 :         _Copy_memmove(_UFirst, _ULast, _Unfancy(_Dest));
; 1694 :         return _Dest + (_ULast - _UFirst);
; 1695 :     } else {
; 1696 :         _Uninitialized_backout_al<_Alloc> _Backout{_Dest, _Al};
; 1697 :         for (; _UFirst != _ULast; ++_UFirst) {

  00003	8b 4d 08	 mov	 ecx, DWORD PTR __First$[ebp]

; 1535 :     _Uninitialized_backout_al(pointer _Dest, _Alloc& _Al_) : _First(_Dest), _Last(_Dest), _Al(_Al_) {}

  00006	8b 45 10	 mov	 eax, DWORD PTR __Dest$[ebp]

; 1685 :     const _InIt _First, const _InIt _Last, _Alloc_ptr_t<_Alloc> _Dest, _Alloc& _Al) {

  00009	57		 push	 edi

; 1686 :     // move [_First, _Last) to raw _Dest, using _Al
; 1687 :     // note: only called internally from elsewhere in the STL
; 1688 :     using _Ptrval     = typename _Alloc::value_type*;
; 1689 :     auto _UFirst      = _Get_unwrapped(_First);
; 1690 :     const auto _ULast = _Get_unwrapped(_Last);
; 1691 :     if constexpr (conjunction_v<bool_constant<_Ptr_move_cat<decltype(_UFirst), _Ptrval>::_Really_trivial>,
; 1692 :                       _Uses_default_construct<_Alloc, _Ptrval, decltype(_STD move(*_UFirst))>>) {
; 1693 :         _Copy_memmove(_UFirst, _ULast, _Unfancy(_Dest));
; 1694 :         return _Dest + (_ULast - _UFirst);
; 1695 :     } else {
; 1696 :         _Uninitialized_backout_al<_Alloc> _Backout{_Dest, _Al};
; 1697 :         for (; _UFirst != _ULast; ++_UFirst) {

  0000a	8b 7d 0c	 mov	 edi, DWORD PTR __Last$[ebp]
  0000d	3b cf		 cmp	 ecx, edi
  0000f	74 16		 je	 SHORT $LN3@Uninitiali
  00011	56		 push	 esi
$LL4@Uninitiali:

; 1546 :         allocator_traits<_Alloc>::construct(_Al, _Unfancy(_Last), _STD forward<_Types>(_Vals)...);

  00012	8b 11		 mov	 edx, DWORD PTR [ecx]
  00014	8b 71 04	 mov	 esi, DWORD PTR [ecx+4]

; 1547 :         ++_Last;

  00017	83 c1 08	 add	 ecx, 8
  0001a	89 10		 mov	 DWORD PTR [eax], edx
  0001c	89 70 04	 mov	 DWORD PTR [eax+4], esi
  0001f	83 c0 08	 add	 eax, 8

; 1686 :     // move [_First, _Last) to raw _Dest, using _Al
; 1687 :     // note: only called internally from elsewhere in the STL
; 1688 :     using _Ptrval     = typename _Alloc::value_type*;
; 1689 :     auto _UFirst      = _Get_unwrapped(_First);
; 1690 :     const auto _ULast = _Get_unwrapped(_Last);
; 1691 :     if constexpr (conjunction_v<bool_constant<_Ptr_move_cat<decltype(_UFirst), _Ptrval>::_Really_trivial>,
; 1692 :                       _Uses_default_construct<_Alloc, _Ptrval, decltype(_STD move(*_UFirst))>>) {
; 1693 :         _Copy_memmove(_UFirst, _ULast, _Unfancy(_Dest));
; 1694 :         return _Dest + (_ULast - _UFirst);
; 1695 :     } else {
; 1696 :         _Uninitialized_backout_al<_Alloc> _Backout{_Dest, _Al};
; 1697 :         for (; _UFirst != _ULast; ++_UFirst) {

  00022	3b cf		 cmp	 ecx, edi
  00024	75 ec		 jne	 SHORT $LL4@Uninitiali

; 1698 :             _Backout._Emplace_back(_STD move(*_UFirst));
; 1699 :         }
; 1700 : 
; 1701 :         return _Backout._Release();

  00026	5e		 pop	 esi
$LN3@Uninitiali:
  00027	5f		 pop	 edi

; 1702 :     }
; 1703 : }

  00028	5d		 pop	 ebp
  00029	c3		 ret	 0
??$_Uninitialized_move@PAU?$pair@MJ@std@@V?$allocator@U?$pair@MJ@std@@@2@@std@@YAPAU?$pair@MJ@0@QAU10@0PAU10@AAV?$allocator@U?$pair@MJ@std@@@0@@Z ENDP ; std::_Uninitialized_move<std::pair<float,long> *,std::allocator<std::pair<float,long> > >
_TEXT	ENDS
; Function compile flags: /Ogtp
; File C:\Program Files (x86)\Microsoft Visual Studio\2019\Community\VC\Tools\MSVC\14.28.29333\include\xmemory
;	COMDAT ??$_Uninitialized_move@PAUTPatchDrawStruct@CMapOutdoor@@V?$allocator@UTPatchDrawStruct@CMapOutdoor@@@std@@@std@@YAPAUTPatchDrawStruct@CMapOutdoor@@QAU12@0PAU12@AAV?$allocator@UTPatchDrawStruct@CMapOutdoor@@@0@@Z
_TEXT	SEGMENT
__First$ = 8						; size = 4
__Last$ = 12						; size = 4
__Dest$ = 16						; size = 4
__Al$ = 20						; size = 4
??$_Uninitialized_move@PAUTPatchDrawStruct@CMapOutdoor@@V?$allocator@UTPatchDrawStruct@CMapOutdoor@@@std@@@std@@YAPAUTPatchDrawStruct@CMapOutdoor@@QAU12@0PAU12@AAV?$allocator@UTPatchDrawStruct@CMapOutdoor@@@0@@Z PROC ; std::_Uninitialized_move<CMapOutdoor::TPatchDrawStruct *,std::allocator<CMapOutdoor::TPatchDrawStruct> >, COMDAT

; 1685 :     const _InIt _First, const _InIt _Last, _Alloc_ptr_t<_Alloc> _Dest, _Alloc& _Al) {

  00000	55		 push	 ebp
  00001	8b ec		 mov	 ebp, esp
  00003	57		 push	 edi

; 1686 :     // move [_First, _Last) to raw _Dest, using _Al
; 1687 :     // note: only called internally from elsewhere in the STL
; 1688 :     using _Ptrval     = typename _Alloc::value_type*;
; 1689 :     auto _UFirst      = _Get_unwrapped(_First);
; 1690 :     const auto _ULast = _Get_unwrapped(_Last);
; 1691 :     if constexpr (conjunction_v<bool_constant<_Ptr_move_cat<decltype(_UFirst), _Ptrval>::_Really_trivial>,
; 1692 :                       _Uses_default_construct<_Alloc, _Ptrval, decltype(_STD move(*_UFirst))>>) {
; 1693 :         _Copy_memmove(_UFirst, _ULast, _Unfancy(_Dest));

  00004	ff 75 10	 push	 DWORD PTR __Dest$[ebp]
  00007	8b 7d 0c	 mov	 edi, DWORD PTR __Last$[ebp]
  0000a	57		 push	 edi
  0000b	ff 75 08	 push	 DWORD PTR __First$[ebp]
  0000e	e8 00 00 00 00	 call	 ??$_Copy_memmove@PAUTPatchDrawStruct@CMapOutdoor@@PAU12@@std@@YAPAUTPatchDrawStruct@CMapOutdoor@@PAU12@00@Z ; std::_Copy_memmove<CMapOutdoor::TPatchDrawStruct *,CMapOutdoor::TPatchDrawStruct *>

; 1694 :         return _Dest + (_ULast - _UFirst);

  00013	2b 7d 08	 sub	 edi, DWORD PTR __First$[ebp]
  00016	83 c4 0c	 add	 esp, 12			; 0000000cH
  00019	83 e7 f0	 and	 edi, -16		; fffffff0H
  0001c	03 7d 10	 add	 edi, DWORD PTR __Dest$[ebp]
  0001f	8b c7		 mov	 eax, edi
  00021	5f		 pop	 edi

; 1695 :     } else {
; 1696 :         _Uninitialized_backout_al<_Alloc> _Backout{_Dest, _Al};
; 1697 :         for (; _UFirst != _ULast; ++_UFirst) {
; 1698 :             _Backout._Emplace_back(_STD move(*_UFirst));
; 1699 :         }
; 1700 : 
; 1701 :         return _Backout._Release();
; 1702 :     }
; 1703 : }

  00022	5d		 pop	 ebp
  00023	c3		 ret	 0
??$_Uninitialized_move@PAUTPatchDrawStruct@CMapOutdoor@@V?$allocator@UTPatchDrawStruct@CMapOutdoor@@@std@@@std@@YAPAUTPatchDrawStruct@CMapOutdoor@@QAU12@0PAU12@AAV?$allocator@UTPatchDrawStruct@CMapOutdoor@@@0@@Z ENDP ; std::_Uninitialized_move<CMapOutdoor::TPatchDrawStruct *,std::allocator<CMapOutdoor::TPatchDrawStruct> >
_TEXT	ENDS
; Function compile flags: /Ogtp
; File C:\Program Files (x86)\Microsoft Visual Studio\2019\Community\VC\Tools\MSVC\14.28.29333\include\xmemory
;	COMDAT ??$_Return_temporary_buffer@UTPatchDrawStruct@CMapOutdoor@@@std@@YAXQAUTPatchDrawStruct@CMapOutdoor@@@Z
_TEXT	SEGMENT
__Pbuf$ = 8						; size = 4
??$_Return_temporary_buffer@UTPatchDrawStruct@CMapOutdoor@@@std@@YAXQAUTPatchDrawStruct@CMapOutdoor@@@Z PROC ; std::_Return_temporary_buffer<CMapOutdoor::TPatchDrawStruct>, COMDAT

; 1412 : #ifdef __cpp_aligned_new
; 1413 :     if constexpr (alignof(_Ty) > __STDCPP_DEFAULT_NEW_ALIGNMENT__) {
; 1414 :         ::operator delete (_Pbuf, align_val_t{alignof(_Ty)});
; 1415 :     } else
; 1416 : #endif // __cpp_aligned_new
; 1417 :     {
; 1418 :         ::operator delete(_Pbuf);

  00000	e9 00 00 00 00	 jmp	 ??3@YAXPAX@Z		; operator delete
??$_Return_temporary_buffer@UTPatchDrawStruct@CMapOutdoor@@@std@@YAXQAUTPatchDrawStruct@CMapOutdoor@@@Z ENDP ; std::_Return_temporary_buffer<CMapOutdoor::TPatchDrawStruct>
_TEXT	ENDS
; Function compile flags: /Ogtp
; File C:\Program Files (x86)\Microsoft Visual Studio\2019\Community\VC\Tools\MSVC\14.28.29333\include\algorithm
; File C:\Program Files (x86)\Microsoft Visual Studio\2019\Community\VC\Tools\MSVC\14.28.29333\include\xutility
; File C:\Program Files (x86)\Microsoft Visual Studio\2019\Community\VC\Tools\MSVC\14.28.29333\include\algorithm
; File C:\Program Files (x86)\Microsoft Visual Studio\2019\Community\VC\Tools\MSVC\14.28.29333\include\xutility
; File C:\Program Files (x86)\Microsoft Visual Studio\2019\Community\VC\Tools\MSVC\14.28.29333\include\algorithm
;	COMDAT ??$_Stable_sort_unchecked@PAUTPatchDrawStruct@CMapOutdoor@@UFSortPatchDrawStructWithTerrainNum@2@@std@@YAXQAUTPatchDrawStruct@CMapOutdoor@@0H0HUFSortPatchDrawStructWithTerrainNum@2@@Z
_TEXT	SEGMENT
__First$ = 8						; size = 4
__Last$ = 12						; size = 4
__Half_count$1$ = 16					; size = 4
__Count$ = 16						; size = 4
__Temp_ptr$ = 20					; size = 4
__Capacity$ = 24					; size = 4
__Pred$ = 28						; size = 1
??$_Stable_sort_unchecked@PAUTPatchDrawStruct@CMapOutdoor@@UFSortPatchDrawStructWithTerrainNum@2@@std@@YAXQAUTPatchDrawStruct@CMapOutdoor@@0H0HUFSortPatchDrawStructWithTerrainNum@2@@Z PROC ; std::_Stable_sort_unchecked<CMapOutdoor::TPatchDrawStruct *,CMapOutdoor::FSortPatchDrawStructWithTerrainNum>, COMDAT

; 7951 :     _Iter_value_t<_BidIt>* const _Temp_ptr, const ptrdiff_t _Capacity, _Pr _Pred) {

  00000	55		 push	 ebp
  00001	8b ec		 mov	 ebp, esp
  00003	56		 push	 esi
  00004	8b 75 10	 mov	 esi, DWORD PTR __Count$[ebp]

; 7952 :     // sort preserving order of equivalents
; 7953 :     using _Diff = _Iter_diff_t<_BidIt>;
; 7954 :     if (_Count <= _ISORT_MAX) {

  00007	83 fe 20	 cmp	 esi, 32			; 00000020H
  0000a	7f 14		 jg	 SHORT $LN2@Stable_sor

; 7955 :         _Insertion_sort_unchecked(_First, _Last, _Pred); // small

  0000c	ff 75 1c	 push	 DWORD PTR __Pred$[ebp]
  0000f	ff 75 0c	 push	 DWORD PTR __Last$[ebp]
  00012	ff 75 08	 push	 DWORD PTR __First$[ebp]
  00015	e8 00 00 00 00	 call	 ??$_Insertion_sort_unchecked@PAUTPatchDrawStruct@CMapOutdoor@@UFSortPatchDrawStructWithTerrainNum@2@@std@@YAPAUTPatchDrawStruct@CMapOutdoor@@QAU12@0UFSortPatchDrawStructWithTerrainNum@2@@Z ; std::_Insertion_sort_unchecked<CMapOutdoor::TPatchDrawStruct *,CMapOutdoor::FSortPatchDrawStructWithTerrainNum>
  0001a	83 c4 0c	 add	 esp, 12			; 0000000cH
  0001d	5e		 pop	 esi

; 7969 :             _First, _Mid, _Last, _Half_count_ceil, _Half_count, _Temp_ptr, _Capacity, _Pred); // merge halves
; 7970 :     }
; 7971 : }

  0001e	5d		 pop	 ebp
  0001f	c3		 ret	 0
$LN2@Stable_sor:

; 7960 :         if (_Half_count_ceil <= _Capacity) { // temp buffer big enough, sort each half using buffer

  00020	8b 4d 18	 mov	 ecx, DWORD PTR __Capacity$[ebp]
  00023	8b c6		 mov	 eax, esi
  00025	d1 e8		 shr	 eax, 1
  00027	53		 push	 ebx
  00028	8b 5d 14	 mov	 ebx, DWORD PTR __Temp_ptr$[ebp]
  0002b	2b f0		 sub	 esi, eax
  0002d	57		 push	 edi
  0002e	ff 75 1c	 push	 DWORD PTR __Pred$[ebp]
; File C:\Program Files (x86)\Microsoft Visual Studio\2019\Community\VC\Tools\MSVC\14.28.29333\include\xutility

; 1714 :         _Where += _Off;

  00031	8b fe		 mov	 edi, esi
; File C:\Program Files (x86)\Microsoft Visual Studio\2019\Community\VC\Tools\MSVC\14.28.29333\include\algorithm

; 7957 :         const auto _Half_count      = static_cast<_Diff>(_Count / 2);

  00033	89 45 10	 mov	 DWORD PTR __Half_count$1$[ebp], eax
; File C:\Program Files (x86)\Microsoft Visual Studio\2019\Community\VC\Tools\MSVC\14.28.29333\include\xutility

; 1714 :         _Where += _Off;

  00036	8b 45 08	 mov	 eax, DWORD PTR __First$[ebp]
  00039	c1 e7 04	 shl	 edi, 4
  0003c	03 f8		 add	 edi, eax
; File C:\Program Files (x86)\Microsoft Visual Studio\2019\Community\VC\Tools\MSVC\14.28.29333\include\algorithm

; 7960 :         if (_Half_count_ceil <= _Capacity) { // temp buffer big enough, sort each half using buffer

  0003e	3b f1		 cmp	 esi, ecx
  00040	7f 1e		 jg	 SHORT $LN4@Stable_sor

; 7961 :             _Buffered_merge_sort_unchecked(_First, _Mid, _Half_count_ceil, _Temp_ptr, _Pred);

  00042	53		 push	 ebx
  00043	56		 push	 esi
  00044	57		 push	 edi
  00045	50		 push	 eax
  00046	e8 00 00 00 00	 call	 ??$_Buffered_merge_sort_unchecked@PAUTPatchDrawStruct@CMapOutdoor@@UFSortPatchDrawStructWithTerrainNum@2@@std@@YAXQAUTPatchDrawStruct@CMapOutdoor@@0H0UFSortPatchDrawStructWithTerrainNum@2@@Z ; std::_Buffered_merge_sort_unchecked<CMapOutdoor::TPatchDrawStruct *,CMapOutdoor::FSortPatchDrawStructWithTerrainNum>

; 7962 :             _Buffered_merge_sort_unchecked(_Mid, _Last, _Half_count, _Temp_ptr, _Pred);

  0004b	ff 75 1c	 push	 DWORD PTR __Pred$[ebp]
  0004e	53		 push	 ebx
  0004f	ff 75 10	 push	 DWORD PTR __Half_count$1$[ebp]
  00052	ff 75 0c	 push	 DWORD PTR __Last$[ebp]
  00055	57		 push	 edi
  00056	e8 00 00 00 00	 call	 ??$_Buffered_merge_sort_unchecked@PAUTPatchDrawStruct@CMapOutdoor@@UFSortPatchDrawStructWithTerrainNum@2@@std@@YAXQAUTPatchDrawStruct@CMapOutdoor@@0H0UFSortPatchDrawStructWithTerrainNum@2@@Z ; std::_Buffered_merge_sort_unchecked<CMapOutdoor::TPatchDrawStruct *,CMapOutdoor::FSortPatchDrawStructWithTerrainNum>
  0005b	83 c4 28	 add	 esp, 40			; 00000028H

; 7963 :         } else { // temp buffer not big enough, divide and conquer

  0005e	eb 20		 jmp	 SHORT $LN5@Stable_sor
$LN4@Stable_sor:

; 7964 :             _Stable_sort_unchecked(_First, _Mid, _Half_count_ceil, _Temp_ptr, _Capacity, _Pred);

  00060	51		 push	 ecx
  00061	53		 push	 ebx
  00062	56		 push	 esi
  00063	57		 push	 edi
  00064	50		 push	 eax
  00065	e8 00 00 00 00	 call	 ??$_Stable_sort_unchecked@PAUTPatchDrawStruct@CMapOutdoor@@UFSortPatchDrawStructWithTerrainNum@2@@std@@YAXQAUTPatchDrawStruct@CMapOutdoor@@0H0HUFSortPatchDrawStructWithTerrainNum@2@@Z ; std::_Stable_sort_unchecked<CMapOutdoor::TPatchDrawStruct *,CMapOutdoor::FSortPatchDrawStructWithTerrainNum>

; 7965 :             _Stable_sort_unchecked(_Mid, _Last, _Half_count, _Temp_ptr, _Capacity, _Pred);

  0006a	ff 75 1c	 push	 DWORD PTR __Pred$[ebp]
  0006d	ff 75 18	 push	 DWORD PTR __Capacity$[ebp]
  00070	53		 push	 ebx
  00071	ff 75 10	 push	 DWORD PTR __Half_count$1$[ebp]
  00074	ff 75 0c	 push	 DWORD PTR __Last$[ebp]
  00077	57		 push	 edi
  00078	e8 00 00 00 00	 call	 ??$_Stable_sort_unchecked@PAUTPatchDrawStruct@CMapOutdoor@@UFSortPatchDrawStructWithTerrainNum@2@@std@@YAXQAUTPatchDrawStruct@CMapOutdoor@@0H0HUFSortPatchDrawStructWithTerrainNum@2@@Z ; std::_Stable_sort_unchecked<CMapOutdoor::TPatchDrawStruct *,CMapOutdoor::FSortPatchDrawStructWithTerrainNum>
  0007d	83 c4 30	 add	 esp, 48			; 00000030H
$LN5@Stable_sor:

; 7966 :         }
; 7967 : 
; 7968 :         _Buffered_inplace_merge_unchecked(

  00080	ff 75 1c	 push	 DWORD PTR __Pred$[ebp]
  00083	ff 75 18	 push	 DWORD PTR __Capacity$[ebp]
  00086	53		 push	 ebx
  00087	ff 75 10	 push	 DWORD PTR __Half_count$1$[ebp]
  0008a	56		 push	 esi
  0008b	ff 75 0c	 push	 DWORD PTR __Last$[ebp]
  0008e	57		 push	 edi
  0008f	ff 75 08	 push	 DWORD PTR __First$[ebp]
  00092	e8 00 00 00 00	 call	 ??$_Buffered_inplace_merge_unchecked@PAUTPatchDrawStruct@CMapOutdoor@@UFSortPatchDrawStructWithTerrainNum@2@@std@@YAXPAUTPatchDrawStruct@CMapOutdoor@@00HHQAU12@HUFSortPatchDrawStructWithTerrainNum@2@@Z ; std::_Buffered_inplace_merge_unchecked<CMapOutdoor::TPatchDrawStruct *,CMapOutdoor::FSortPatchDrawStructWithTerrainNum>
  00097	83 c4 20	 add	 esp, 32			; 00000020H
  0009a	5f		 pop	 edi
  0009b	5b		 pop	 ebx
  0009c	5e		 pop	 esi

; 7969 :             _First, _Mid, _Last, _Half_count_ceil, _Half_count, _Temp_ptr, _Capacity, _Pred); // merge halves
; 7970 :     }
; 7971 : }

  0009d	5d		 pop	 ebp
  0009e	c3		 ret	 0
??$_Stable_sort_unchecked@PAUTPatchDrawStruct@CMapOutdoor@@UFSortPatchDrawStructWithTerrainNum@2@@std@@YAXQAUTPatchDrawStruct@CMapOutdoor@@0H0HUFSortPatchDrawStructWithTerrainNum@2@@Z ENDP ; std::_Stable_sort_unchecked<CMapOutdoor::TPatchDrawStruct *,CMapOutdoor::FSortPatchDrawStructWithTerrainNum>
_TEXT	ENDS
; Function compile flags: /Ogtp
; File C:\Program Files (x86)\Microsoft Visual Studio\2019\Community\VC\Tools\MSVC\14.28.29333\include\algorithm
;	COMDAT ??1?$_Optimistic_temporary_buffer@UTPatchDrawStruct@CMapOutdoor@@@std@@QAE@XZ
_TEXT	SEGMENT
??1?$_Optimistic_temporary_buffer@UTPatchDrawStruct@CMapOutdoor@@@std@@QAE@XZ PROC ; std::_Optimistic_temporary_buffer<CMapOutdoor::TPatchDrawStruct>::~_Optimistic_temporary_buffer<CMapOutdoor::TPatchDrawStruct>, COMDAT
; _this$ = ecx

; 85   :         if (static_cast<size_t>(_Capacity) > _Optimistic_count) {

  00000	81 79 04 00 01
	00 00		 cmp	 DWORD PTR [ecx+4], 256	; 00000100H
  00007	76 08		 jbe	 SHORT $LN2@Optimistic

; 86   :             _Return_temporary_buffer(_Data);

  00009	ff 31		 push	 DWORD PTR [ecx]
  0000b	e8 00 00 00 00	 call	 ??$_Return_temporary_buffer@UTPatchDrawStruct@CMapOutdoor@@@std@@YAXQAUTPatchDrawStruct@CMapOutdoor@@@Z ; std::_Return_temporary_buffer<CMapOutdoor::TPatchDrawStruct>
  00010	59		 pop	 ecx
$LN2@Optimistic:

; 87   :         }
; 88   :     }

  00011	c3		 ret	 0
??1?$_Optimistic_temporary_buffer@UTPatchDrawStruct@CMapOutdoor@@@std@@QAE@XZ ENDP ; std::_Optimistic_temporary_buffer<CMapOutdoor::TPatchDrawStruct>::~_Optimistic_temporary_buffer<CMapOutdoor::TPatchDrawStruct>
_TEXT	ENDS
; Function compile flags: /Ogtp
; File C:\Program Files (x86)\Microsoft Visual Studio\2019\Community\VC\Tools\MSVC\14.28.29333\include\algorithm
; File C:\Program Files (x86)\Microsoft Visual Studio\2019\Community\VC\Tools\MSVC\14.28.29333\include\xutility
; File D:\Metin2 Server Files\mainline\SRC_2014\Metin2Client\GameLib\MapOutdoor.h
; File C:\Program Files (x86)\Microsoft Visual Studio\2019\Community\VC\Tools\MSVC\14.28.29333\include\algorithm
; File C:\Program Files (x86)\Microsoft Visual Studio\2019\Community\VC\Tools\MSVC\14.28.29333\include\xutility
; File C:\Program Files (x86)\Microsoft Visual Studio\2019\Community\VC\Tools\MSVC\14.28.29333\include\algorithm
; File C:\Program Files (x86)\Microsoft Visual Studio\2019\Community\VC\Tools\MSVC\14.28.29333\include\xutility
; File C:\Program Files (x86)\Windows Kits\10\Include\10.0.18362.0\ucrt\corecrt_memory.h
; File C:\Program Files (x86)\Microsoft Visual Studio\2019\Community\VC\Tools\MSVC\14.28.29333\include\xutility
; File C:\Program Files (x86)\Microsoft Visual Studio\2019\Community\VC\Tools\MSVC\14.28.29333\include\vector
; File C:\Program Files (x86)\Microsoft Visual Studio\2019\Community\VC\Tools\MSVC\14.28.29333\include\xutility
; File C:\Program Files (x86)\Windows Kits\10\Include\10.0.18362.0\ucrt\corecrt_memory.h
; File C:\Program Files (x86)\Microsoft Visual Studio\2019\Community\VC\Tools\MSVC\14.28.29333\include\xutility
; File C:\Program Files (x86)\Windows Kits\10\Include\10.0.18362.0\ucrt\corecrt_memory.h
; File C:\Program Files (x86)\Microsoft Visual Studio\2019\Community\VC\Tools\MSVC\14.28.29333\include\xutility
; File C:\Program Files (x86)\Microsoft Visual Studio\2019\Community\VC\Tools\MSVC\14.28.29333\include\vector
; File C:\Program Files (x86)\Microsoft Visual Studio\2019\Community\VC\Tools\MSVC\14.28.29333\include\xutility
; File C:\Program Files (x86)\Microsoft Visual Studio\2019\Community\VC\Tools\MSVC\14.28.29333\include\vector
; File C:\Program Files (x86)\Microsoft Visual Studio\2019\Community\VC\Tools\MSVC\14.28.29333\include\xutility
; File D:\Metin2 Server Files\mainline\SRC_2014\Metin2Client\GameLib\MapOutdoor.h
; File C:\Program Files (x86)\Microsoft Visual Studio\2019\Community\VC\Tools\MSVC\14.28.29333\include\vector
; File D:\Metin2 Server Files\mainline\SRC_2014\Metin2Client\GameLib\MapOutdoor.h
; File C:\Program Files (x86)\Microsoft Visual Studio\2019\Community\VC\Tools\MSVC\14.28.29333\include\vector
; File D:\Metin2 Server Files\mainline\SRC_2014\Metin2Client\GameLib\MapOutdoor.h
; File C:\Program Files (x86)\Microsoft Visual Studio\2019\Community\VC\Tools\MSVC\14.28.29333\include\vector
; File D:\Metin2 Server Files\mainline\SRC_2014\Metin2Client\GameLib\MapOutdoor.h
; File C:\Program Files (x86)\Microsoft Visual Studio\2019\Community\VC\Tools\MSVC\14.28.29333\include\xutility
; File C:\Program Files (x86)\Windows Kits\10\Include\10.0.18362.0\ucrt\corecrt_memory.h
; File C:\Program Files (x86)\Microsoft Visual Studio\2019\Community\VC\Tools\MSVC\14.28.29333\include\xutility
; File C:\Program Files (x86)\Microsoft Visual Studio\2019\Community\VC\Tools\MSVC\14.28.29333\include\vector
; File D:\Metin2 Server Files\mainline\SRC_2014\Metin2Client\GameLib\MapOutdoor.h
; File C:\Program Files (x86)\Microsoft Visual Studio\2019\Community\VC\Tools\MSVC\14.28.29333\include\vector
; File D:\Metin2 Server Files\mainline\SRC_2014\Metin2Client\GameLib\MapOutdoor.h
; File C:\Program Files (x86)\Microsoft Visual Studio\2019\Community\VC\Tools\MSVC\14.28.29333\include\vector
; File D:\Metin2 Server Files\mainline\SRC_2014\Metin2Client\GameLib\MapOutdoor.h
; File C:\Program Files (x86)\Microsoft Visual Studio\2019\Community\VC\Tools\MSVC\14.28.29333\include\vector
; File D:\Metin2 Server Files\mainline\SRC_2014\Metin2Client\GameLib\MapOutdoor.h
; File C:\Program Files (x86)\Microsoft Visual Studio\2019\Community\VC\Tools\MSVC\14.28.29333\include\vector
; File D:\Metin2 Server Files\mainline\SRC_2014\Metin2Client\GameLib\MapOutdoor.h
; File C:\Program Files (x86)\Microsoft Visual Studio\2019\Community\VC\Tools\MSVC\14.28.29333\include\vector
; File D:\Metin2 Server Files\mainline\SRC_2014\Metin2Client\GameLib\MapOutdoor.h
; File C:\Program Files (x86)\Microsoft Visual Studio\2019\Community\VC\Tools\MSVC\14.28.29333\include\algorithm
; File C:\Program Files (x86)\Microsoft Visual Studio\2019\Community\VC\Tools\MSVC\14.28.29333\include\xutility
; File C:\Program Files (x86)\Microsoft Visual Studio\2019\Community\VC\Tools\MSVC\14.28.29333\include\algorithm
; File C:\Program Files (x86)\Microsoft Visual Studio\2019\Community\VC\Tools\MSVC\14.28.29333\include\xutility
; File C:\Program Files (x86)\Microsoft Visual Studio\2019\Community\VC\Tools\MSVC\14.28.29333\include\algorithm
; File C:\Program Files (x86)\Microsoft Visual Studio\2019\Community\VC\Tools\MSVC\14.28.29333\include\xutility
; File C:\Program Files (x86)\Microsoft Visual Studio\2019\Community\VC\Tools\MSVC\14.28.29333\include\algorithm
; File D:\Metin2 Server Files\mainline\SRC_2014\Metin2Client\GameLib\MapOutdoor.h
; File C:\Program Files (x86)\Microsoft Visual Studio\2019\Community\VC\Tools\MSVC\14.28.29333\include\xutility
; File C:\Program Files (x86)\Windows Kits\10\Include\10.0.18362.0\ucrt\corecrt_memory.h
; File C:\Program Files (x86)\Microsoft Visual Studio\2019\Community\VC\Tools\MSVC\14.28.29333\include\xutility
; File C:\Program Files (x86)\Microsoft Visual Studio\2019\Community\VC\Tools\MSVC\14.28.29333\include\vector
; File C:\Program Files (x86)\Microsoft Visual Studio\2019\Community\VC\Tools\MSVC\14.28.29333\include\xutility
; File C:\Program Files (x86)\Microsoft Visual Studio\2019\Community\VC\Tools\MSVC\14.28.29333\include\vector
; File C:\Program Files (x86)\Microsoft Visual Studio\2019\Community\VC\Tools\MSVC\14.28.29333\include\xutility
; File C:\Program Files (x86)\Windows Kits\10\Include\10.0.18362.0\ucrt\corecrt_memory.h
; File C:\Program Files (x86)\Microsoft Visual Studio\2019\Community\VC\Tools\MSVC\14.28.29333\include\xutility
; File C:\Program Files (x86)\Windows Kits\10\Include\10.0.18362.0\ucrt\corecrt_memory.h
; File C:\Program Files (x86)\Microsoft Visual Studio\2019\Community\VC\Tools\MSVC\14.28.29333\include\xutility
; File C:\Program Files (x86)\Microsoft Visual Studio\2019\Community\VC\Tools\MSVC\14.28.29333\include\vector
; File D:\Metin2 Server Files\mainline\SRC_2014\Metin2Client\GameLib\MapOutdoor.h
; File C:\Program Files (x86)\Microsoft Visual Studio\2019\Community\VC\Tools\MSVC\14.28.29333\include\xutility
; File C:\Program Files (x86)\Microsoft Visual Studio\2019\Community\VC\Tools\MSVC\14.28.29333\include\vector
; File C:\Program Files (x86)\Microsoft Visual Studio\2019\Community\VC\Tools\MSVC\14.28.29333\include\xutility
; File D:\Metin2 Server Files\mainline\SRC_2014\Metin2Client\GameLib\MapOutdoor.h
; File C:\Program Files (x86)\Microsoft Visual Studio\2019\Community\VC\Tools\MSVC\14.28.29333\include\vector
; File D:\Metin2 Server Files\mainline\SRC_2014\Metin2Client\GameLib\MapOutdoor.h
; File C:\Program Files (x86)\Microsoft Visual Studio\2019\Community\VC\Tools\MSVC\14.28.29333\include\vector
; File D:\Metin2 Server Files\mainline\SRC_2014\Metin2Client\GameLib\MapOutdoor.h
; File C:\Program Files (x86)\Microsoft Visual Studio\2019\Community\VC\Tools\MSVC\14.28.29333\include\vector
; File D:\Metin2 Server Files\mainline\SRC_2014\Metin2Client\GameLib\MapOutdoor.h
; File C:\Program Files (x86)\Microsoft Visual Studio\2019\Community\VC\Tools\MSVC\14.28.29333\include\xutility
; File C:\Program Files (x86)\Windows Kits\10\Include\10.0.18362.0\ucrt\corecrt_memory.h
; File C:\Program Files (x86)\Microsoft Visual Studio\2019\Community\VC\Tools\MSVC\14.28.29333\include\xutility
; File C:\Program Files (x86)\Microsoft Visual Studio\2019\Community\VC\Tools\MSVC\14.28.29333\include\vector
; File D:\Metin2 Server Files\mainline\SRC_2014\Metin2Client\GameLib\MapOutdoor.h
; File C:\Program Files (x86)\Microsoft Visual Studio\2019\Community\VC\Tools\MSVC\14.28.29333\include\vector
; File D:\Metin2 Server Files\mainline\SRC_2014\Metin2Client\GameLib\MapOutdoor.h
; File C:\Program Files (x86)\Microsoft Visual Studio\2019\Community\VC\Tools\MSVC\14.28.29333\include\vector
; File D:\Metin2 Server Files\mainline\SRC_2014\Metin2Client\GameLib\MapOutdoor.h
; File C:\Program Files (x86)\Microsoft Visual Studio\2019\Community\VC\Tools\MSVC\14.28.29333\include\vector
; File D:\Metin2 Server Files\mainline\SRC_2014\Metin2Client\GameLib\MapOutdoor.h
; File C:\Program Files (x86)\Microsoft Visual Studio\2019\Community\VC\Tools\MSVC\14.28.29333\include\algorithm
; File D:\Metin2 Server Files\mainline\SRC_2014\Metin2Client\GameLib\MapOutdoor.h
; File C:\Program Files (x86)\Microsoft Visual Studio\2019\Community\VC\Tools\MSVC\14.28.29333\include\algorithm
;	COMDAT ??$_Insertion_sort_unchecked@PAUTPatchDrawStruct@CMapOutdoor@@UFSortPatchDrawStructWithTerrainNum@2@@std@@YAPAUTPatchDrawStruct@CMapOutdoor@@QAU12@0UFSortPatchDrawStructWithTerrainNum@2@@Z
_TEXT	SEGMENT
__Val$1$ = -64						; size = 16
__Val$1 = -48						; size = 16
tv1907 = -32						; size = 4
__Val$1$ = -28						; size = 4
__Hole$1$ = -24						; size = 4
__Mid$1$ = -20						; size = 4
tv1857 = -16						; size = 4
_lhsTerrainNumOrder$1$ = -16				; size = 4
tv1873 = -12						; size = 4
_rhsTerrainNumOrder$1$ = -8				; size = 4
tv1897 = -8						; size = 4
tv1882 = -8						; size = 4
_rhsTerrainNumOrder$1$ = -8				; size = 4
tv1883 = -1						; size = 1
tv1856 = -1						; size = 1
__First$ = 8						; size = 4
__Last$ = 12						; size = 4
__Pred$ = 16						; size = 1
??$_Insertion_sort_unchecked@PAUTPatchDrawStruct@CMapOutdoor@@UFSortPatchDrawStructWithTerrainNum@2@@std@@YAPAUTPatchDrawStruct@CMapOutdoor@@QAU12@0UFSortPatchDrawStructWithTerrainNum@2@@Z PROC ; std::_Insertion_sort_unchecked<CMapOutdoor::TPatchDrawStruct *,CMapOutdoor::FSortPatchDrawStructWithTerrainNum>, COMDAT

; 7410 : _CONSTEXPR20 _BidIt _Insertion_sort_unchecked(const _BidIt _First, const _BidIt _Last, _Pr _Pred) {

  00000	55		 push	 ebp
  00001	8b ec		 mov	 ebp, esp

; 7411 :     // insertion sort [_First, _Last)
; 7412 :     if (_First != _Last) {

  00003	8b 4d 0c	 mov	 ecx, DWORD PTR __Last$[ebp]
  00006	83 ec 40	 sub	 esp, 64			; 00000040H
  00009	8b 45 08	 mov	 eax, DWORD PTR __First$[ebp]
  0000c	3b c1		 cmp	 eax, ecx
  0000e	0f 84 fb 02 00
	00		 je	 $LN336@Insertion_

; 7413 :         for (_BidIt _Mid = _First; ++_Mid != _Last;) { // order next element

  00014	53		 push	 ebx
  00015	8d 58 10	 lea	 ebx, DWORD PTR [eax+16]
  00018	89 5d ec	 mov	 DWORD PTR __Mid$1$[ebp], ebx
  0001b	3b d9		 cmp	 ebx, ecx
  0001d	0f 84 e5 02 00
	00		 je	 $LN337@Insertion_
  00023	83 c0 04	 add	 eax, 4
  00026	56		 push	 esi
  00027	89 45 e4	 mov	 DWORD PTR __Val$1$[ebp], eax
  0002a	57		 push	 edi
  0002b	0f 1f 44 00 00	 npad	 5
$LL2@Insertion_:

; 7415 :             _Iter_value_t<_BidIt> _Val = _STD move(*_Mid);

  00030	0f 10 03	 movups	 xmm0, XMMWORD PTR [ebx]
; File C:\Program Files (x86)\Microsoft Visual Studio\2019\Community\VC\Tools\MSVC\14.28.29333\include\xutility

; 5480 :     _Seek_wrapped(_First, _Find_unchecked(_Get_unwrapped(_First), _Get_unwrapped(_Last), _Val));

  00033	8b 3d 04 00 00
	00		 mov	 edi, DWORD PTR ?m_TerrainNumVector@FSortPatchDrawStructWithTerrainNum@CMapOutdoor@@2V?$vector@EV?$allocator@E@std@@@std@@A+4
; File D:\Metin2 Server Files\mainline\SRC_2014\Metin2Client\GameLib\MapOutdoor.h

; 360  : 				DWORD lhsTerrainNumOrder = 0, rhsTerrainNumOrder = 0;

  00039	33 c0		 xor	 eax, eax
  0003b	89 45 f0	 mov	 DWORD PTR _lhsTerrainNumOrder$1$[ebp], eax
; File C:\Program Files (x86)\Microsoft Visual Studio\2019\Community\VC\Tools\MSVC\14.28.29333\include\algorithm

; 7415 :             _Iter_value_t<_BidIt> _Val = _STD move(*_Mid);

  0003e	0f 11 45 c0	 movups	 XMMWORD PTR __Val$1$[ebp], xmm0
  00042	89 5d e8	 mov	 DWORD PTR __Hole$1$[ebp], ebx
; File C:\Program Files (x86)\Microsoft Visual Studio\2019\Community\VC\Tools\MSVC\14.28.29333\include\xutility

; 5461 :     _First =

  00045	8b 1d 00 00 00
	00		 mov	 ebx, DWORD PTR ?m_TerrainNumVector@FSortPatchDrawStructWithTerrainNum@CMapOutdoor@@2V?$vector@EV?$allocator@E@std@@@std@@A
; File C:\Program Files (x86)\Microsoft Visual Studio\2019\Community\VC\Tools\MSVC\14.28.29333\include\algorithm

; 7415 :             _Iter_value_t<_BidIt> _Val = _STD move(*_Mid);

  0004b	0f 11 45 d0	 movups	 XMMWORD PTR __Val$1[ebp], xmm0
; File C:\Program Files (x86)\Microsoft Visual Studio\2019\Community\VC\Tools\MSVC\14.28.29333\include\xutility

; 5480 :     _Seek_wrapped(_First, _Find_unchecked(_Get_unwrapped(_First), _Get_unwrapped(_Last), _Val));

  0004f	89 7d f8	 mov	 DWORD PTR tv1882[ebp], edi

; 5461 :     _First =

  00052	66 0f 73 d8 04	 psrldq	 xmm0, 4
  00057	66 0f 7e c0	 movd	 eax, xmm0
  0005b	0f b6 c8	 movzx	 ecx, al
  0005e	89 45 e0	 mov	 DWORD PTR tv1907[ebp], eax
  00061	8b c7		 mov	 eax, edi
  00063	2b c3		 sub	 eax, ebx
  00065	89 4d f4	 mov	 DWORD PTR tv1873[ebp], ecx
; File C:\Program Files (x86)\Windows Kits\10\Include\10.0.18362.0\ucrt\corecrt_memory.h

; 107  :         return const_cast<void*>(memchr(_Pvc, _C, _N));

  00068	50		 push	 eax
  00069	51		 push	 ecx
  0006a	53		 push	 ebx
  0006b	e8 00 00 00 00	 call	 _memchr
; File C:\Program Files (x86)\Microsoft Visual Studio\2019\Community\VC\Tools\MSVC\14.28.29333\include\xutility

; 5463 :     return _First ? _First : _Last;

  00070	85 c0		 test	 eax, eax
  00072	8b cf		 mov	 ecx, edi
  00074	0f 45 c8	 cmovne	 ecx, eax
; File C:\Program Files (x86)\Microsoft Visual Studio\2019\Community\VC\Tools\MSVC\14.28.29333\include\vector

; 195  :         _Ptr = _Refancy<_Tptr>(const_cast<value_type*>(_It));

  00077	51		 push	 ecx
  00078	e8 00 00 00 00	 call	 ??$_Refancy@PAE$0A@@std@@YAPAEPAE@Z ; std::_Refancy<unsigned char *,0>
  0007d	8b f0		 mov	 esi, eax
; File C:\Program Files (x86)\Microsoft Visual Studio\2019\Community\VC\Tools\MSVC\14.28.29333\include\xutility

; 5461 :     _First =

  0007f	8b 45 e4	 mov	 eax, DWORD PTR __Val$1$[ebp]
  00082	8a 08		 mov	 cl, BYTE PTR [eax]
  00084	8b c7		 mov	 eax, edi
  00086	2b c3		 sub	 eax, ebx
  00088	88 4d ff	 mov	 BYTE PTR tv1883[ebp], cl
; File C:\Program Files (x86)\Windows Kits\10\Include\10.0.18362.0\ucrt\corecrt_memory.h

; 107  :         return const_cast<void*>(memchr(_Pvc, _C, _N));

  0008b	50		 push	 eax
; File C:\Program Files (x86)\Microsoft Visual Studio\2019\Community\VC\Tools\MSVC\14.28.29333\include\xutility

; 5461 :     _First =

  0008c	0f b6 c1	 movzx	 eax, cl
; File C:\Program Files (x86)\Windows Kits\10\Include\10.0.18362.0\ucrt\corecrt_memory.h

; 107  :         return const_cast<void*>(memchr(_Pvc, _C, _N));

  0008f	50		 push	 eax
  00090	53		 push	 ebx
  00091	e8 00 00 00 00	 call	 _memchr
; File C:\Program Files (x86)\Microsoft Visual Studio\2019\Community\VC\Tools\MSVC\14.28.29333\include\xutility

; 5463 :     return _First ? _First : _Last;

  00096	85 c0		 test	 eax, eax
  00098	8b cf		 mov	 ecx, edi
  0009a	0f 45 c8	 cmovne	 ecx, eax
; File C:\Program Files (x86)\Microsoft Visual Studio\2019\Community\VC\Tools\MSVC\14.28.29333\include\vector

; 195  :         _Ptr = _Refancy<_Tptr>(const_cast<value_type*>(_It));

  0009d	51		 push	 ecx
  0009e	e8 00 00 00 00	 call	 ??$_Refancy@PAE$0A@@std@@YAPAEPAE@Z ; std::_Refancy<unsigned char *,0>
; File C:\Program Files (x86)\Microsoft Visual Studio\2019\Community\VC\Tools\MSVC\14.28.29333\include\xutility

; 5481 :     return _First;

  000a3	8b d7		 mov	 edx, edi
; File C:\Program Files (x86)\Microsoft Visual Studio\2019\Community\VC\Tools\MSVC\14.28.29333\include\vector

; 195  :         _Ptr = _Refancy<_Tptr>(const_cast<value_type*>(_It));

  000a5	83 c4 20	 add	 esp, 32			; 00000020H
; File C:\Program Files (x86)\Microsoft Visual Studio\2019\Community\VC\Tools\MSVC\14.28.29333\include\xutility

; 5481 :     return _First;

  000a8	8b c8		 mov	 ecx, eax
  000aa	3b f2		 cmp	 esi, edx
; File D:\Metin2 Server Files\mainline\SRC_2014\Metin2Client\GameLib\MapOutdoor.h

; 367  : 				if (lhsIterator != m_TerrainNumVector.end())

  000ac	74 07		 je	 SHORT $LN13@Insertion_

; 368  : 				{
; 369  : 					blhsOrderFound = true;

  000ae	8b c6		 mov	 eax, esi
  000b0	2b c3		 sub	 eax, ebx
  000b2	89 45 f0	 mov	 DWORD PTR _lhsTerrainNumOrder$1$[ebp], eax
$LN13@Insertion_:
; File C:\Program Files (x86)\Microsoft Visual Studio\2019\Community\VC\Tools\MSVC\14.28.29333\include\vector

; 149  :         return _Ptr == _Right._Ptr;

  000b5	3b ca		 cmp	 ecx, edx
; File D:\Metin2 Server Files\mainline\SRC_2014\Metin2Client\GameLib\MapOutdoor.h

; 372  : 				if (rhsIterator != m_TerrainNumVector.end())

  000b7	74 04		 je	 SHORT $LN332@Insertion_
; File C:\Program Files (x86)\Microsoft Visual Studio\2019\Community\VC\Tools\MSVC\14.28.29333\include\vector

; 140  :         return _Ptr - _Right._Ptr;

  000b9	2b cb		 sub	 ecx, ebx
; File D:\Metin2 Server Files\mainline\SRC_2014\Metin2Client\GameLib\MapOutdoor.h

; 377  : 				if (!brhsOrderFound)

  000bb	eb 3e		 jmp	 SHORT $LN342@Insertion_
$LN332@Insertion_:
; File C:\Program Files (x86)\Microsoft Visual Studio\2019\Community\VC\Tools\MSVC\14.28.29333\include\vector

; 704  :         if (_Mylast != _My_data._Myend) {

  000bd	3b 15 08 00 00
	00		 cmp	 edx, DWORD PTR ?m_TerrainNumVector@FSortPatchDrawStructWithTerrainNum@CMapOutdoor@@2V?$vector@EV?$allocator@E@std@@@std@@A+8
  000c3	74 14		 je	 SHORT $LN109@Insertion_

; 687  :         _Alty_traits::construct(_Getal(), _Unfancy(_Mylast), _STD forward<_Valty>(_Val)...);

  000c5	8a 45 ff	 mov	 al, BYTE PTR tv1883[ebp]
  000c8	88 02		 mov	 BYTE PTR [edx], al

; 690  :         ++_Mylast;

  000ca	8b 3d 04 00 00
	00		 mov	 edi, DWORD PTR ?m_TerrainNumVector@FSortPatchDrawStructWithTerrainNum@CMapOutdoor@@2V?$vector@EV?$allocator@E@std@@@std@@A+4
  000d0	47		 inc	 edi
  000d1	89 3d 04 00 00
	00		 mov	 DWORD PTR ?m_TerrainNumVector@FSortPatchDrawStructWithTerrainNum@CMapOutdoor@@2V?$vector@EV?$allocator@E@std@@@std@@A+4, edi

; 705  :             return _Emplace_back_with_unused_capacity(_STD forward<_Valty>(_Val)...);

  000d7	eb 17		 jmp	 SHORT $LN108@Insertion_
$LN109@Insertion_:

; 708  :         _Ty& _Result = *_Emplace_reallocate(_Mylast, _STD forward<_Valty>(_Val)...);

  000d9	ff 75 e4	 push	 DWORD PTR __Val$1$[ebp]
  000dc	b9 00 00 00 00	 mov	 ecx, OFFSET ?m_TerrainNumVector@FSortPatchDrawStructWithTerrainNum@CMapOutdoor@@2V?$vector@EV?$allocator@E@std@@@std@@A ; CMapOutdoor::FSortPatchDrawStructWithTerrainNum::m_TerrainNumVector
  000e1	52		 push	 edx
  000e2	e8 00 00 00 00	 call	 ??$_Emplace_reallocate@ABE@?$vector@EV?$allocator@E@std@@@std@@QAEPAEQAEABE@Z ; std::vector<unsigned char,std::allocator<unsigned char> >::_Emplace_reallocate<unsigned char const &>
  000e7	8b 3d 04 00 00
	00		 mov	 edi, DWORD PTR ?m_TerrainNumVector@FSortPatchDrawStructWithTerrainNum@CMapOutdoor@@2V?$vector@EV?$allocator@E@std@@@std@@A+4
  000ed	8b 55 f8	 mov	 edx, DWORD PTR tv1882[ebp]
$LN108@Insertion_:
; File D:\Metin2 Server Files\mainline\SRC_2014\Metin2Client\GameLib\MapOutdoor.h

; 380  : 					rhsTerrainNumOrder = m_TerrainNumVector.size() -1;

  000f0	8b 1d 00 00 00
	00		 mov	 ebx, DWORD PTR ?m_TerrainNumVector@FSortPatchDrawStructWithTerrainNum@CMapOutdoor@@2V?$vector@EV?$allocator@E@std@@@std@@A
  000f6	8b cf		 mov	 ecx, edi
  000f8	2b cb		 sub	 ecx, ebx
  000fa	49		 dec	 ecx
$LN342@Insertion_:

; 381  : 				}
; 382  : 				if (!blhsOrderFound)

  000fb	3b f2		 cmp	 esi, edx
  000fd	89 4d f8	 mov	 DWORD PTR _rhsTerrainNumOrder$1$[ebp], ecx
  00100	8b 75 f4	 mov	 esi, DWORD PTR tv1873[ebp]
  00103	75 6d		 jne	 SHORT $LN338@Insertion_
; File C:\Program Files (x86)\Microsoft Visual Studio\2019\Community\VC\Tools\MSVC\14.28.29333\include\xutility

; 5461 :     _First =

  00105	8b c7		 mov	 eax, edi
  00107	2b c3		 sub	 eax, ebx
; File C:\Program Files (x86)\Windows Kits\10\Include\10.0.18362.0\ucrt\corecrt_memory.h

; 107  :         return const_cast<void*>(memchr(_Pvc, _C, _N));

  00109	50		 push	 eax
  0010a	56		 push	 esi
  0010b	53		 push	 ebx
  0010c	e8 00 00 00 00	 call	 _memchr
; File C:\Program Files (x86)\Microsoft Visual Studio\2019\Community\VC\Tools\MSVC\14.28.29333\include\xutility

; 5463 :     return _First ? _First : _Last;

  00111	85 c0		 test	 eax, eax
  00113	8b cf		 mov	 ecx, edi
  00115	0f 45 c8	 cmovne	 ecx, eax
; File C:\Program Files (x86)\Microsoft Visual Studio\2019\Community\VC\Tools\MSVC\14.28.29333\include\vector

; 195  :         _Ptr = _Refancy<_Tptr>(const_cast<value_type*>(_It));

  00118	51		 push	 ecx
  00119	e8 00 00 00 00	 call	 ??$_Refancy@PAE$0A@@std@@YAPAEPAE@Z ; std::_Refancy<unsigned char *,0>
  0011e	83 c4 10	 add	 esp, 16			; 00000010H
; File D:\Metin2 Server Files\mainline\SRC_2014\Metin2Client\GameLib\MapOutdoor.h

; 384  : 					lhsIterator = std::find(m_TerrainNumVector.begin(), m_TerrainNumVector.end(), lhs.byTerrainNum);

  00121	3b c7		 cmp	 eax, edi

; 385  : 					if (lhsIterator != m_TerrainNumVector.end())

  00123	74 04		 je	 SHORT $LN333@Insertion_
; File C:\Program Files (x86)\Microsoft Visual Studio\2019\Community\VC\Tools\MSVC\14.28.29333\include\vector

; 140  :         return _Ptr - _Right._Ptr;

  00125	2b c3		 sub	 eax, ebx
; File D:\Metin2 Server Files\mainline\SRC_2014\Metin2Client\GameLib\MapOutdoor.h

; 390  : 					if (!blhsOrderFound)

  00127	eb 4c		 jmp	 SHORT $LN343@Insertion_
$LN333@Insertion_:
; File C:\Program Files (x86)\Microsoft Visual Studio\2019\Community\VC\Tools\MSVC\14.28.29333\include\vector

; 704  :         if (_Mylast != _My_data._Myend) {

  00129	3b 3d 08 00 00
	00		 cmp	 edi, DWORD PTR ?m_TerrainNumVector@FSortPatchDrawStructWithTerrainNum@CMapOutdoor@@2V?$vector@EV?$allocator@E@std@@@std@@A+8
  0012f	74 1f		 je	 SHORT $LN161@Insertion_

; 687  :         _Alty_traits::construct(_Getal(), _Unfancy(_Mylast), _STD forward<_Valty>(_Val)...);

  00131	8b 45 e0	 mov	 eax, DWORD PTR tv1907[ebp]
  00134	88 07		 mov	 BYTE PTR [edi], al

; 690  :         ++_Mylast;

  00136	8b 3d 04 00 00
	00		 mov	 edi, DWORD PTR ?m_TerrainNumVector@FSortPatchDrawStructWithTerrainNum@CMapOutdoor@@2V?$vector@EV?$allocator@E@std@@@std@@A+4
; File D:\Metin2 Server Files\mainline\SRC_2014\Metin2Client\GameLib\MapOutdoor.h

; 393  : 						lhsTerrainNumOrder = m_TerrainNumVector.size() -1;

  0013c	8b 0d 00 00 00
	00		 mov	 ecx, DWORD PTR ?m_TerrainNumVector@FSortPatchDrawStructWithTerrainNum@CMapOutdoor@@2V?$vector@EV?$allocator@E@std@@@std@@A
; File C:\Program Files (x86)\Microsoft Visual Studio\2019\Community\VC\Tools\MSVC\14.28.29333\include\vector

; 690  :         ++_Mylast;

  00142	47		 inc	 edi
; File D:\Metin2 Server Files\mainline\SRC_2014\Metin2Client\GameLib\MapOutdoor.h

; 393  : 						lhsTerrainNumOrder = m_TerrainNumVector.size() -1;

  00143	8b c7		 mov	 eax, edi
; File C:\Program Files (x86)\Microsoft Visual Studio\2019\Community\VC\Tools\MSVC\14.28.29333\include\vector

; 690  :         ++_Mylast;

  00145	89 3d 04 00 00
	00		 mov	 DWORD PTR ?m_TerrainNumVector@FSortPatchDrawStructWithTerrainNum@CMapOutdoor@@2V?$vector@EV?$allocator@E@std@@@std@@A+4, edi
; File D:\Metin2 Server Files\mainline\SRC_2014\Metin2Client\GameLib\MapOutdoor.h

; 393  : 						lhsTerrainNumOrder = m_TerrainNumVector.size() -1;

  0014b	2b c1		 sub	 eax, ecx
  0014d	48		 dec	 eax
  0014e	eb 2b		 jmp	 SHORT $LN18@Insertion_
$LN161@Insertion_:
; File C:\Program Files (x86)\Microsoft Visual Studio\2019\Community\VC\Tools\MSVC\14.28.29333\include\vector

; 708  :         _Ty& _Result = *_Emplace_reallocate(_Mylast, _STD forward<_Valty>(_Val)...);

  00150	8d 45 d4	 lea	 eax, DWORD PTR __Val$1[ebp+4]
  00153	b9 00 00 00 00	 mov	 ecx, OFFSET ?m_TerrainNumVector@FSortPatchDrawStructWithTerrainNum@CMapOutdoor@@2V?$vector@EV?$allocator@E@std@@@std@@A ; CMapOutdoor::FSortPatchDrawStructWithTerrainNum::m_TerrainNumVector
  00158	50		 push	 eax
  00159	57		 push	 edi
  0015a	e8 00 00 00 00	 call	 ??$_Emplace_reallocate@ABE@?$vector@EV?$allocator@E@std@@@std@@QAEPAEQAEABE@Z ; std::vector<unsigned char,std::allocator<unsigned char> >::_Emplace_reallocate<unsigned char const &>
  0015f	8b 3d 04 00 00
	00		 mov	 edi, DWORD PTR ?m_TerrainNumVector@FSortPatchDrawStructWithTerrainNum@CMapOutdoor@@2V?$vector@EV?$allocator@E@std@@@std@@A+4
; File D:\Metin2 Server Files\mainline\SRC_2014\Metin2Client\GameLib\MapOutdoor.h

; 393  : 						lhsTerrainNumOrder = m_TerrainNumVector.size() -1;

  00165	8b c7		 mov	 eax, edi
  00167	8b 0d 00 00 00
	00		 mov	 ecx, DWORD PTR ?m_TerrainNumVector@FSortPatchDrawStructWithTerrainNum@CMapOutdoor@@2V?$vector@EV?$allocator@E@std@@@std@@A
  0016d	2b c1		 sub	 eax, ecx
  0016f	48		 dec	 eax
  00170	eb 09		 jmp	 SHORT $LN18@Insertion_
$LN338@Insertion_:

; 381  : 				}
; 382  : 				if (!blhsOrderFound)

  00172	8b 45 f0	 mov	 eax, DWORD PTR _lhsTerrainNumOrder$1$[ebp]
$LN343@Insertion_:

; 397  : 				return lhsTerrainNumOrder < rhsTerrainNumOrder;

  00175	8b 0d 00 00 00
	00		 mov	 ecx, DWORD PTR ?m_TerrainNumVector@FSortPatchDrawStructWithTerrainNum@CMapOutdoor@@2V?$vector@EV?$allocator@E@std@@@std@@A
$LN18@Insertion_:
  0017b	3b 45 f8	 cmp	 eax, DWORD PTR _rhsTerrainNumOrder$1$[ebp]
; File C:\Program Files (x86)\Microsoft Visual Studio\2019\Community\VC\Tools\MSVC\14.28.29333\include\algorithm

; 7417 :             if (_DEBUG_LT_PRED(_Pred, _Val, *_First)) { // found new earliest element, move to front

  0017e	73 20		 jae	 SHORT $LN9@Insertion_
; File C:\Program Files (x86)\Microsoft Visual Studio\2019\Community\VC\Tools\MSVC\14.28.29333\include\xutility

; 4696 :             return _Copy_backward_memmove(_First, _Last, _Dest);

  00180	8b 5d ec	 mov	 ebx, DWORD PTR __Mid$1$[ebp]
  00183	8b 75 08	 mov	 esi, DWORD PTR __First$[ebp]
  00186	8d 43 10	 lea	 eax, DWORD PTR [ebx+16]
  00189	50		 push	 eax
  0018a	53		 push	 ebx
  0018b	56		 push	 esi
  0018c	e8 00 00 00 00	 call	 ??$_Copy_backward_memmove@PAUTPatchDrawStruct@CMapOutdoor@@PAU12@@std@@YAPAUTPatchDrawStruct@CMapOutdoor@@PAU12@00@Z ; std::_Copy_backward_memmove<CMapOutdoor::TPatchDrawStruct *,CMapOutdoor::TPatchDrawStruct *>
; File C:\Program Files (x86)\Microsoft Visual Studio\2019\Community\VC\Tools\MSVC\14.28.29333\include\algorithm

; 7419 :                 *_First = _STD move(_Val);

  00191	0f 10 45 c0	 movups	 xmm0, XMMWORD PTR __Val$1$[ebp]
; File C:\Program Files (x86)\Microsoft Visual Studio\2019\Community\VC\Tools\MSVC\14.28.29333\include\xutility

; 4696 :             return _Copy_backward_memmove(_First, _Last, _Dest);

  00195	83 c4 0c	 add	 esp, 12			; 0000000cH
; File C:\Program Files (x86)\Microsoft Visual Studio\2019\Community\VC\Tools\MSVC\14.28.29333\include\algorithm

; 7419 :                 *_First = _STD move(_Val);

  00198	0f 11 06	 movups	 XMMWORD PTR [esi], xmm0

; 7420 :             } else { // look for insertion point after first

  0019b	e9 50 01 00 00	 jmp	 $LN10@Insertion_
$LN9@Insertion_:

; 7421 :                 for (_BidIt _Prev = _Hole; _DEBUG_LT_PRED(_Pred, _Val, *--_Prev); _Hole = _Prev) {

  001a0	8b 45 ec	 mov	 eax, DWORD PTR __Mid$1$[ebp]
  001a3	83 c0 04	 add	 eax, 4
$LL7@Insertion_:
  001a6	83 e8 10	 sub	 eax, 16			; 00000010H
; File C:\Program Files (x86)\Microsoft Visual Studio\2019\Community\VC\Tools\MSVC\14.28.29333\include\xutility

; 5480 :     _Seek_wrapped(_First, _Find_unchecked(_Get_unwrapped(_First), _Get_unwrapped(_Last), _Val));

  001a9	89 7d f8	 mov	 DWORD PTR tv1897[ebp], edi
; File C:\Program Files (x86)\Microsoft Visual Studio\2019\Community\VC\Tools\MSVC\14.28.29333\include\algorithm

; 7421 :                 for (_BidIt _Prev = _Hole; _DEBUG_LT_PRED(_Pred, _Val, *--_Prev); _Hole = _Prev) {

  001ac	89 45 f0	 mov	 DWORD PTR tv1857[ebp], eax
; File D:\Metin2 Server Files\mainline\SRC_2014\Metin2Client\GameLib\MapOutdoor.h

; 360  : 				DWORD lhsTerrainNumOrder = 0, rhsTerrainNumOrder = 0;

  001af	33 db		 xor	 ebx, ebx
; File C:\Program Files (x86)\Microsoft Visual Studio\2019\Community\VC\Tools\MSVC\14.28.29333\include\xutility

; 5461 :     _First =

  001b1	8b c7		 mov	 eax, edi
  001b3	2b c1		 sub	 eax, ecx
; File C:\Program Files (x86)\Windows Kits\10\Include\10.0.18362.0\ucrt\corecrt_memory.h

; 107  :         return const_cast<void*>(memchr(_Pvc, _C, _N));

  001b5	50		 push	 eax
  001b6	56		 push	 esi
  001b7	51		 push	 ecx
  001b8	e8 00 00 00 00	 call	 _memchr
; File C:\Program Files (x86)\Microsoft Visual Studio\2019\Community\VC\Tools\MSVC\14.28.29333\include\xutility

; 5463 :     return _First ? _First : _Last;

  001bd	85 c0		 test	 eax, eax
  001bf	8b cf		 mov	 ecx, edi
  001c1	0f 45 c8	 cmovne	 ecx, eax
; File C:\Program Files (x86)\Microsoft Visual Studio\2019\Community\VC\Tools\MSVC\14.28.29333\include\vector

; 195  :         _Ptr = _Refancy<_Tptr>(const_cast<value_type*>(_It));

  001c4	51		 push	 ecx
  001c5	e8 00 00 00 00	 call	 ??$_Refancy@PAE$0A@@std@@YAPAEPAE@Z ; std::_Refancy<unsigned char *,0>
; File C:\Program Files (x86)\Microsoft Visual Studio\2019\Community\VC\Tools\MSVC\14.28.29333\include\xutility

; 5461 :     _First =

  001ca	8b 0d 00 00 00
	00		 mov	 ecx, DWORD PTR ?m_TerrainNumVector@FSortPatchDrawStructWithTerrainNum@CMapOutdoor@@2V?$vector@EV?$allocator@E@std@@@std@@A
; File C:\Program Files (x86)\Microsoft Visual Studio\2019\Community\VC\Tools\MSVC\14.28.29333\include\vector

; 195  :         _Ptr = _Refancy<_Tptr>(const_cast<value_type*>(_It));

  001d0	8b f0		 mov	 esi, eax
; File C:\Program Files (x86)\Microsoft Visual Studio\2019\Community\VC\Tools\MSVC\14.28.29333\include\xutility

; 5461 :     _First =

  001d2	8b 45 f0	 mov	 eax, DWORD PTR tv1857[ebp]
  001d5	8a 10		 mov	 dl, BYTE PTR [eax]
  001d7	8b c7		 mov	 eax, edi
  001d9	2b c1		 sub	 eax, ecx
  001db	88 55 ff	 mov	 BYTE PTR tv1856[ebp], dl
; File C:\Program Files (x86)\Windows Kits\10\Include\10.0.18362.0\ucrt\corecrt_memory.h

; 107  :         return const_cast<void*>(memchr(_Pvc, _C, _N));

  001de	50		 push	 eax
; File C:\Program Files (x86)\Microsoft Visual Studio\2019\Community\VC\Tools\MSVC\14.28.29333\include\xutility

; 5461 :     _First =

  001df	0f b6 c2	 movzx	 eax, dl
; File C:\Program Files (x86)\Windows Kits\10\Include\10.0.18362.0\ucrt\corecrt_memory.h

; 107  :         return const_cast<void*>(memchr(_Pvc, _C, _N));

  001e2	50		 push	 eax
  001e3	51		 push	 ecx
  001e4	e8 00 00 00 00	 call	 _memchr
; File C:\Program Files (x86)\Microsoft Visual Studio\2019\Community\VC\Tools\MSVC\14.28.29333\include\xutility

; 5463 :     return _First ? _First : _Last;

  001e9	85 c0		 test	 eax, eax
  001eb	8b cf		 mov	 ecx, edi
  001ed	0f 45 c8	 cmovne	 ecx, eax
; File C:\Program Files (x86)\Microsoft Visual Studio\2019\Community\VC\Tools\MSVC\14.28.29333\include\vector

; 195  :         _Ptr = _Refancy<_Tptr>(const_cast<value_type*>(_It));

  001f0	51		 push	 ecx
  001f1	e8 00 00 00 00	 call	 ??$_Refancy@PAE$0A@@std@@YAPAEPAE@Z ; std::_Refancy<unsigned char *,0>
; File D:\Metin2 Server Files\mainline\SRC_2014\Metin2Client\GameLib\MapOutdoor.h

; 367  : 				if (lhsIterator != m_TerrainNumVector.end())

  001f6	8b 0d 00 00 00
	00		 mov	 ecx, DWORD PTR ?m_TerrainNumVector@FSortPatchDrawStructWithTerrainNum@CMapOutdoor@@2V?$vector@EV?$allocator@E@std@@@std@@A
; File C:\Program Files (x86)\Microsoft Visual Studio\2019\Community\VC\Tools\MSVC\14.28.29333\include\xutility

; 5481 :     return _First;

  001fc	8b d7		 mov	 edx, edi
; File C:\Program Files (x86)\Microsoft Visual Studio\2019\Community\VC\Tools\MSVC\14.28.29333\include\vector

; 195  :         _Ptr = _Refancy<_Tptr>(const_cast<value_type*>(_It));

  001fe	83 c4 20	 add	 esp, 32			; 00000020H
; File C:\Program Files (x86)\Microsoft Visual Studio\2019\Community\VC\Tools\MSVC\14.28.29333\include\xutility

; 5481 :     return _First;

  00201	3b f2		 cmp	 esi, edx
; File D:\Metin2 Server Files\mainline\SRC_2014\Metin2Client\GameLib\MapOutdoor.h

; 367  : 				if (lhsIterator != m_TerrainNumVector.end())

  00203	74 04		 je	 SHORT $LN172@Insertion_

; 368  : 				{
; 369  : 					blhsOrderFound = true;

  00205	8b de		 mov	 ebx, esi
  00207	2b d9		 sub	 ebx, ecx
$LN172@Insertion_:
; File C:\Program Files (x86)\Microsoft Visual Studio\2019\Community\VC\Tools\MSVC\14.28.29333\include\vector

; 149  :         return _Ptr == _Right._Ptr;

  00209	3b c2		 cmp	 eax, edx
; File D:\Metin2 Server Files\mainline\SRC_2014\Metin2Client\GameLib\MapOutdoor.h

; 372  : 				if (rhsIterator != m_TerrainNumVector.end())

  0020b	74 04		 je	 SHORT $LN334@Insertion_
; File C:\Program Files (x86)\Microsoft Visual Studio\2019\Community\VC\Tools\MSVC\14.28.29333\include\vector

; 140  :         return _Ptr - _Right._Ptr;

  0020d	2b c1		 sub	 eax, ecx
; File D:\Metin2 Server Files\mainline\SRC_2014\Metin2Client\GameLib\MapOutdoor.h

; 377  : 				if (!brhsOrderFound)

  0020f	eb 3e		 jmp	 SHORT $LN344@Insertion_
$LN334@Insertion_:
; File C:\Program Files (x86)\Microsoft Visual Studio\2019\Community\VC\Tools\MSVC\14.28.29333\include\vector

; 704  :         if (_Mylast != _My_data._Myend) {

  00211	3b 15 08 00 00
	00		 cmp	 edx, DWORD PTR ?m_TerrainNumVector@FSortPatchDrawStructWithTerrainNum@CMapOutdoor@@2V?$vector@EV?$allocator@E@std@@@std@@A+8
  00217	74 14		 je	 SHORT $LN268@Insertion_

; 687  :         _Alty_traits::construct(_Getal(), _Unfancy(_Mylast), _STD forward<_Valty>(_Val)...);

  00219	8a 45 ff	 mov	 al, BYTE PTR tv1856[ebp]
  0021c	88 02		 mov	 BYTE PTR [edx], al

; 690  :         ++_Mylast;

  0021e	8b 3d 04 00 00
	00		 mov	 edi, DWORD PTR ?m_TerrainNumVector@FSortPatchDrawStructWithTerrainNum@CMapOutdoor@@2V?$vector@EV?$allocator@E@std@@@std@@A+4
  00224	47		 inc	 edi
  00225	89 3d 04 00 00
	00		 mov	 DWORD PTR ?m_TerrainNumVector@FSortPatchDrawStructWithTerrainNum@CMapOutdoor@@2V?$vector@EV?$allocator@E@std@@@std@@A+4, edi

; 705  :             return _Emplace_back_with_unused_capacity(_STD forward<_Valty>(_Val)...);

  0022b	eb 17		 jmp	 SHORT $LN267@Insertion_
$LN268@Insertion_:

; 708  :         _Ty& _Result = *_Emplace_reallocate(_Mylast, _STD forward<_Valty>(_Val)...);

  0022d	ff 75 f0	 push	 DWORD PTR tv1857[ebp]
  00230	b9 00 00 00 00	 mov	 ecx, OFFSET ?m_TerrainNumVector@FSortPatchDrawStructWithTerrainNum@CMapOutdoor@@2V?$vector@EV?$allocator@E@std@@@std@@A ; CMapOutdoor::FSortPatchDrawStructWithTerrainNum::m_TerrainNumVector
  00235	52		 push	 edx
  00236	e8 00 00 00 00	 call	 ??$_Emplace_reallocate@ABE@?$vector@EV?$allocator@E@std@@@std@@QAEPAEQAEABE@Z ; std::vector<unsigned char,std::allocator<unsigned char> >::_Emplace_reallocate<unsigned char const &>
  0023b	8b 3d 04 00 00
	00		 mov	 edi, DWORD PTR ?m_TerrainNumVector@FSortPatchDrawStructWithTerrainNum@CMapOutdoor@@2V?$vector@EV?$allocator@E@std@@@std@@A+4
  00241	8b 55 f8	 mov	 edx, DWORD PTR tv1897[ebp]
$LN267@Insertion_:
; File D:\Metin2 Server Files\mainline\SRC_2014\Metin2Client\GameLib\MapOutdoor.h

; 380  : 					rhsTerrainNumOrder = m_TerrainNumVector.size() -1;

  00244	8b 0d 00 00 00
	00		 mov	 ecx, DWORD PTR ?m_TerrainNumVector@FSortPatchDrawStructWithTerrainNum@CMapOutdoor@@2V?$vector@EV?$allocator@E@std@@@std@@A
  0024a	8b c7		 mov	 eax, edi
  0024c	2b c1		 sub	 eax, ecx
  0024e	48		 dec	 eax
$LN344@Insertion_:

; 381  : 				}
; 382  : 				if (!blhsOrderFound)

  0024f	3b f2		 cmp	 esi, edx
  00251	89 45 f8	 mov	 DWORD PTR _rhsTerrainNumOrder$1$[ebp], eax
  00254	8b 75 f4	 mov	 esi, DWORD PTR tv1873[ebp]
  00257	75 62		 jne	 SHORT $LN177@Insertion_
; File C:\Program Files (x86)\Microsoft Visual Studio\2019\Community\VC\Tools\MSVC\14.28.29333\include\xutility

; 5461 :     _First =

  00259	8b c7		 mov	 eax, edi
  0025b	2b c1		 sub	 eax, ecx
; File C:\Program Files (x86)\Windows Kits\10\Include\10.0.18362.0\ucrt\corecrt_memory.h

; 107  :         return const_cast<void*>(memchr(_Pvc, _C, _N));

  0025d	50		 push	 eax
  0025e	56		 push	 esi
  0025f	51		 push	 ecx
  00260	e8 00 00 00 00	 call	 _memchr
; File C:\Program Files (x86)\Microsoft Visual Studio\2019\Community\VC\Tools\MSVC\14.28.29333\include\xutility

; 5463 :     return _First ? _First : _Last;

  00265	85 c0		 test	 eax, eax
  00267	8b cf		 mov	 ecx, edi
  00269	0f 45 c8	 cmovne	 ecx, eax
; File C:\Program Files (x86)\Microsoft Visual Studio\2019\Community\VC\Tools\MSVC\14.28.29333\include\vector

; 195  :         _Ptr = _Refancy<_Tptr>(const_cast<value_type*>(_It));

  0026c	51		 push	 ecx
  0026d	e8 00 00 00 00	 call	 ??$_Refancy@PAE$0A@@std@@YAPAEPAE@Z ; std::_Refancy<unsigned char *,0>
; File D:\Metin2 Server Files\mainline\SRC_2014\Metin2Client\GameLib\MapOutdoor.h

; 384  : 					lhsIterator = std::find(m_TerrainNumVector.begin(), m_TerrainNumVector.end(), lhs.byTerrainNum);

  00272	8b d8		 mov	 ebx, eax
; File C:\Program Files (x86)\Microsoft Visual Studio\2019\Community\VC\Tools\MSVC\14.28.29333\include\vector

; 195  :         _Ptr = _Refancy<_Tptr>(const_cast<value_type*>(_It));

  00274	83 c4 10	 add	 esp, 16			; 00000010H
; File D:\Metin2 Server Files\mainline\SRC_2014\Metin2Client\GameLib\MapOutdoor.h

; 384  : 					lhsIterator = std::find(m_TerrainNumVector.begin(), m_TerrainNumVector.end(), lhs.byTerrainNum);

  00277	3b df		 cmp	 ebx, edi

; 385  : 					if (lhsIterator != m_TerrainNumVector.end())

  00279	74 08		 je	 SHORT $LN335@Insertion_
; File C:\Program Files (x86)\Microsoft Visual Studio\2019\Community\VC\Tools\MSVC\14.28.29333\include\vector

; 140  :         return _Ptr - _Right._Ptr;

  0027b	2b 1d 00 00 00
	00		 sub	 ebx, DWORD PTR ?m_TerrainNumVector@FSortPatchDrawStructWithTerrainNum@CMapOutdoor@@2V?$vector@EV?$allocator@E@std@@@std@@A
; File D:\Metin2 Server Files\mainline\SRC_2014\Metin2Client\GameLib\MapOutdoor.h

; 390  : 					if (!blhsOrderFound)

  00281	eb 38		 jmp	 SHORT $LN177@Insertion_
$LN335@Insertion_:
; File C:\Program Files (x86)\Microsoft Visual Studio\2019\Community\VC\Tools\MSVC\14.28.29333\include\vector

; 704  :         if (_Mylast != _My_data._Myend) {

  00283	3b 3d 08 00 00
	00		 cmp	 edi, DWORD PTR ?m_TerrainNumVector@FSortPatchDrawStructWithTerrainNum@CMapOutdoor@@2V?$vector@EV?$allocator@E@std@@@std@@A+8
  00289	74 14		 je	 SHORT $LN320@Insertion_

; 687  :         _Alty_traits::construct(_Getal(), _Unfancy(_Mylast), _STD forward<_Valty>(_Val)...);

  0028b	8b 45 e0	 mov	 eax, DWORD PTR tv1907[ebp]
  0028e	88 07		 mov	 BYTE PTR [edi], al

; 690  :         ++_Mylast;

  00290	8b 1d 04 00 00
	00		 mov	 ebx, DWORD PTR ?m_TerrainNumVector@FSortPatchDrawStructWithTerrainNum@CMapOutdoor@@2V?$vector@EV?$allocator@E@std@@@std@@A+4
  00296	43		 inc	 ebx
  00297	89 1d 04 00 00
	00		 mov	 DWORD PTR ?m_TerrainNumVector@FSortPatchDrawStructWithTerrainNum@CMapOutdoor@@2V?$vector@EV?$allocator@E@std@@@std@@A+4, ebx

; 705  :             return _Emplace_back_with_unused_capacity(_STD forward<_Valty>(_Val)...);

  0029d	eb 15		 jmp	 SHORT $LN319@Insertion_
$LN320@Insertion_:

; 708  :         _Ty& _Result = *_Emplace_reallocate(_Mylast, _STD forward<_Valty>(_Val)...);

  0029f	8d 45 d4	 lea	 eax, DWORD PTR __Val$1[ebp+4]
  002a2	b9 00 00 00 00	 mov	 ecx, OFFSET ?m_TerrainNumVector@FSortPatchDrawStructWithTerrainNum@CMapOutdoor@@2V?$vector@EV?$allocator@E@std@@@std@@A ; CMapOutdoor::FSortPatchDrawStructWithTerrainNum::m_TerrainNumVector
  002a7	50		 push	 eax
  002a8	57		 push	 edi
  002a9	e8 00 00 00 00	 call	 ??$_Emplace_reallocate@ABE@?$vector@EV?$allocator@E@std@@@std@@QAEPAEQAEABE@Z ; std::vector<unsigned char,std::allocator<unsigned char> >::_Emplace_reallocate<unsigned char const &>
  002ae	8b 1d 04 00 00
	00		 mov	 ebx, DWORD PTR ?m_TerrainNumVector@FSortPatchDrawStructWithTerrainNum@CMapOutdoor@@2V?$vector@EV?$allocator@E@std@@@std@@A+4
$LN319@Insertion_:
; File D:\Metin2 Server Files\mainline\SRC_2014\Metin2Client\GameLib\MapOutdoor.h

; 393  : 						lhsTerrainNumOrder = m_TerrainNumVector.size() -1;

  002b4	2b 1d 00 00 00
	00		 sub	 ebx, DWORD PTR ?m_TerrainNumVector@FSortPatchDrawStructWithTerrainNum@CMapOutdoor@@2V?$vector@EV?$allocator@E@std@@@std@@A
  002ba	4b		 dec	 ebx
$LN177@Insertion_:
; File C:\Program Files (x86)\Microsoft Visual Studio\2019\Community\VC\Tools\MSVC\14.28.29333\include\algorithm

; 7421 :                 for (_BidIt _Prev = _Hole; _DEBUG_LT_PRED(_Pred, _Val, *--_Prev); _Hole = _Prev) {

  002bb	8b 4d e8	 mov	 ecx, DWORD PTR __Hole$1$[ebp]
; File D:\Metin2 Server Files\mainline\SRC_2014\Metin2Client\GameLib\MapOutdoor.h

; 397  : 				return lhsTerrainNumOrder < rhsTerrainNumOrder;

  002be	3b 5d f8	 cmp	 ebx, DWORD PTR _rhsTerrainNumOrder$1$[ebp]
; File C:\Program Files (x86)\Microsoft Visual Studio\2019\Community\VC\Tools\MSVC\14.28.29333\include\algorithm

; 7421 :                 for (_BidIt _Prev = _Hole; _DEBUG_LT_PRED(_Pred, _Val, *--_Prev); _Hole = _Prev) {

  002c1	73 23		 jae	 SHORT $LN6@Insertion_

; 7422 :                     *_Hole = _STD move(*_Prev); // move hole down

  002c3	8b 45 f0	 mov	 eax, DWORD PTR tv1857[ebp]
  002c6	83 c0 fc	 add	 eax, -4			; fffffffcH
  002c9	89 45 e8	 mov	 DWORD PTR __Hole$1$[ebp], eax
  002cc	0f 10 00	 movups	 xmm0, XMMWORD PTR [eax]
  002cf	8b 45 f0	 mov	 eax, DWORD PTR tv1857[ebp]
  002d2	0f 11 01	 movups	 XMMWORD PTR [ecx], xmm0
  002d5	8b 3d 04 00 00
	00		 mov	 edi, DWORD PTR ?m_TerrainNumVector@FSortPatchDrawStructWithTerrainNum@CMapOutdoor@@2V?$vector@EV?$allocator@E@std@@@std@@A+4
  002db	8b 0d 00 00 00
	00		 mov	 ecx, DWORD PTR ?m_TerrainNumVector@FSortPatchDrawStructWithTerrainNum@CMapOutdoor@@2V?$vector@EV?$allocator@E@std@@@std@@A
  002e1	e9 c0 fe ff ff	 jmp	 $LL7@Insertion_
$LN6@Insertion_:

; 7423 :                 }
; 7424 : 
; 7425 :                 *_Hole = _STD move(_Val); // insert element in hole

  002e6	0f 10 45 c0	 movups	 xmm0, XMMWORD PTR __Val$1$[ebp]
  002ea	8b 5d ec	 mov	 ebx, DWORD PTR __Mid$1$[ebp]
  002ed	0f 11 01	 movups	 XMMWORD PTR [ecx], xmm0
$LN10@Insertion_:

; 7413 :         for (_BidIt _Mid = _First; ++_Mid != _Last;) { // order next element

  002f0	8b 45 0c	 mov	 eax, DWORD PTR __Last$[ebp]
  002f3	83 c3 10	 add	 ebx, 16			; 00000010H
  002f6	89 5d ec	 mov	 DWORD PTR __Mid$1$[ebp], ebx
  002f9	3b d8		 cmp	 ebx, eax
  002fb	0f 85 2f fd ff
	ff		 jne	 $LL2@Insertion_

; 7426 :             }
; 7427 :         }
; 7428 :     }
; 7429 : 
; 7430 :     return _Last;

  00301	5f		 pop	 edi
  00302	5e		 pop	 esi
  00303	5b		 pop	 ebx

; 7431 : }

  00304	8b e5		 mov	 esp, ebp
  00306	5d		 pop	 ebp
  00307	c3		 ret	 0
$LN337@Insertion_:

; 7426 :             }
; 7427 :         }
; 7428 :     }
; 7429 : 
; 7430 :     return _Last;

  00308	8b c1		 mov	 eax, ecx
  0030a	5b		 pop	 ebx

; 7431 : }

  0030b	8b e5		 mov	 esp, ebp
  0030d	5d		 pop	 ebp
  0030e	c3		 ret	 0
$LN336@Insertion_:

; 7426 :             }
; 7427 :         }
; 7428 :     }
; 7429 : 
; 7430 :     return _Last;

  0030f	8b c1		 mov	 eax, ecx

; 7431 : }

  00311	8b e5		 mov	 esp, ebp
  00313	5d		 pop	 ebp
  00314	c3		 ret	 0
??$_Insertion_sort_unchecked@PAUTPatchDrawStruct@CMapOutdoor@@UFSortPatchDrawStructWithTerrainNum@2@@std@@YAPAUTPatchDrawStruct@CMapOutdoor@@QAU12@0UFSortPatchDrawStructWithTerrainNum@2@@Z ENDP ; std::_Insertion_sort_unchecked<CMapOutdoor::TPatchDrawStruct *,CMapOutdoor::FSortPatchDrawStructWithTerrainNum>
_TEXT	ENDS
; Function compile flags: /Ogtp
; File C:\Program Files (x86)\Microsoft Visual Studio\2019\Community\VC\Tools\MSVC\14.28.29333\include\algorithm
;	COMDAT ??$_Sort_unchecked@PAPAVCGraphicThingInstance@@UCMapOutdoor_LessThingInstancePtrRenderOrder@@@std@@YAXPAPAVCGraphicThingInstance@@0HUCMapOutdoor_LessThingInstancePtrRenderOrder@@@Z
_TEXT	SEGMENT
__Mid$1 = -8						; size = 8
__First$ = 8						; size = 4
__Val$2 = 12						; size = 4
__Last$ = 12						; size = 4
__Ideal$ = 16						; size = 4
__Pred$ = 20						; size = 1
??$_Sort_unchecked@PAPAVCGraphicThingInstance@@UCMapOutdoor_LessThingInstancePtrRenderOrder@@@std@@YAXPAPAVCGraphicThingInstance@@0HUCMapOutdoor_LessThingInstancePtrRenderOrder@@@Z PROC ; std::_Sort_unchecked<CGraphicThingInstance * *,CMapOutdoor_LessThingInstancePtrRenderOrder>, COMDAT

; 7537 : _CONSTEXPR20 void _Sort_unchecked(_RanIt _First, _RanIt _Last, _Iter_diff_t<_RanIt> _Ideal, _Pr _Pred) {

  00000	55		 push	 ebp
  00001	8b ec		 mov	 ebp, esp
  00003	83 ec 08	 sub	 esp, 8
  00006	53		 push	 ebx
  00007	56		 push	 esi

; 7538 :     // order [_First, _Last)
; 7539 :     for (;;) {
; 7540 :         if (_Last - _First <= _ISORT_MAX) { // small

  00008	8b 75 0c	 mov	 esi, DWORD PTR __Last$[ebp]
  0000b	8b c6		 mov	 eax, esi
  0000d	57		 push	 edi
  0000e	8b 7d 08	 mov	 edi, DWORD PTR __First$[ebp]
  00011	2b c7		 sub	 eax, edi
  00013	83 e0 fc	 and	 eax, -4			; fffffffcH
  00016	3d 80 00 00 00	 cmp	 eax, 128		; 00000080H
  0001b	8b 45 14	 mov	 eax, DWORD PTR __Pred$[ebp]
  0001e	7e 67		 jle	 SHORT $LN23@Sort_unche
  00020	8b 5d 10	 mov	 ebx, DWORD PTR __Ideal$[ebp]
$LL2@Sort_unche:

; 7542 :             return;
; 7543 :         }
; 7544 : 
; 7545 :         if (_Ideal <= 0) { // heap sort if too many divisions

  00023	50		 push	 eax
  00024	56		 push	 esi
  00025	57		 push	 edi
  00026	85 db		 test	 ebx, ebx
  00028	7e 6f		 jle	 SHORT $LN24@Sort_unche

; 7547 :             _Sort_heap_unchecked(_First, _Last, _Pred);
; 7548 :             return;
; 7549 :         }
; 7550 : 
; 7551 :         // divide and conquer by quicksort
; 7552 :         auto _Mid = _Partition_by_median_guess_unchecked(_First, _Last, _Pred);

  0002a	8d 45 f8	 lea	 eax, DWORD PTR __Mid$1[ebp]
  0002d	50		 push	 eax
  0002e	e8 00 00 00 00	 call	 ??$_Partition_by_median_guess_unchecked@PAPAVCGraphicThingInstance@@UCMapOutdoor_LessThingInstancePtrRenderOrder@@@std@@YA?AU?$pair@PAPAVCGraphicThingInstance@@PAPAV1@@0@PAPAVCGraphicThingInstance@@0UCMapOutdoor_LessThingInstancePtrRenderOrder@@@Z ; std::_Partition_by_median_guess_unchecked<CGraphicThingInstance * *,CMapOutdoor_LessThingInstancePtrRenderOrder>

; 7553 : 
; 7554 :         _Ideal = (_Ideal >> 1) + (_Ideal >> 2); // allow 1.5 log2(N) divisions
; 7555 : 
; 7556 :         if (_Mid.first - _First < _Last - _Mid.second) { // loop on second half

  00033	8b 55 fc	 mov	 edx, DWORD PTR __Mid$1[ebp+4]
  00036	8b c3		 mov	 eax, ebx
  00038	c1 f8 02	 sar	 eax, 2
  0003b	8b ce		 mov	 ecx, esi
  0003d	d1 fb		 sar	 ebx, 1
  0003f	83 c4 10	 add	 esp, 16			; 00000010H
  00042	03 d8		 add	 ebx, eax
  00044	2b ca		 sub	 ecx, edx
  00046	8b 45 f8	 mov	 eax, DWORD PTR __Mid$1[ebp]
  00049	83 e1 fc	 and	 ecx, -4			; fffffffcH
  0004c	2b c7		 sub	 eax, edi
  0004e	83 e0 fc	 and	 eax, -4			; fffffffcH
  00051	3b c1		 cmp	 eax, ecx
  00053	8b 45 14	 mov	 eax, DWORD PTR __Pred$[ebp]
  00056	50		 push	 eax
  00057	53		 push	 ebx
  00058	7d 0f		 jge	 SHORT $LN7@Sort_unche

; 7557 :             _Sort_unchecked(_First, _Mid.first, _Ideal, _Pred);

  0005a	8b 45 f8	 mov	 eax, DWORD PTR __Mid$1[ebp]
  0005d	50		 push	 eax
  0005e	57		 push	 edi
  0005f	e8 00 00 00 00	 call	 ??$_Sort_unchecked@PAPAVCGraphicThingInstance@@UCMapOutdoor_LessThingInstancePtrRenderOrder@@@std@@YAXPAPAVCGraphicThingInstance@@0HUCMapOutdoor_LessThingInstancePtrRenderOrder@@@Z ; std::_Sort_unchecked<CGraphicThingInstance * *,CMapOutdoor_LessThingInstancePtrRenderOrder>

; 7558 :             _First = _Mid.second;

  00064	8b 7d fc	 mov	 edi, DWORD PTR __Mid$1[ebp+4]

; 7559 :         } else { // loop on first half

  00067	eb 0a		 jmp	 SHORT $LN32@Sort_unche
$LN7@Sort_unche:

; 7560 :             _Sort_unchecked(_Mid.second, _Last, _Ideal, _Pred);

  00069	56		 push	 esi
  0006a	52		 push	 edx
  0006b	e8 00 00 00 00	 call	 ??$_Sort_unchecked@PAPAVCGraphicThingInstance@@UCMapOutdoor_LessThingInstancePtrRenderOrder@@@std@@YAXPAPAVCGraphicThingInstance@@0HUCMapOutdoor_LessThingInstancePtrRenderOrder@@@Z ; std::_Sort_unchecked<CGraphicThingInstance * *,CMapOutdoor_LessThingInstancePtrRenderOrder>

; 7561 :             _Last = _Mid.first;

  00070	8b 75 f8	 mov	 esi, DWORD PTR __Mid$1[ebp]
$LN32@Sort_unche:

; 7538 :     // order [_First, _Last)
; 7539 :     for (;;) {
; 7540 :         if (_Last - _First <= _ISORT_MAX) { // small

  00073	8b c6		 mov	 eax, esi
  00075	83 c4 10	 add	 esp, 16			; 00000010H
  00078	2b c7		 sub	 eax, edi
  0007a	83 e0 fc	 and	 eax, -4			; fffffffcH
  0007d	3d 80 00 00 00	 cmp	 eax, 128		; 00000080H
  00082	8b 45 14	 mov	 eax, DWORD PTR __Pred$[ebp]
  00085	7f 9c		 jg	 SHORT $LL2@Sort_unche
$LN23@Sort_unche:

; 7541 :             _Insertion_sort_unchecked(_First, _Last, _Pred);

  00087	50		 push	 eax
  00088	56		 push	 esi
  00089	57		 push	 edi
  0008a	e8 00 00 00 00	 call	 ??$_Insertion_sort_unchecked@PAPAVCGraphicThingInstance@@UCMapOutdoor_LessThingInstancePtrRenderOrder@@@std@@YAPAPAVCGraphicThingInstance@@QAPAV1@0UCMapOutdoor_LessThingInstancePtrRenderOrder@@@Z ; std::_Insertion_sort_unchecked<CGraphicThingInstance * *,CMapOutdoor_LessThingInstancePtrRenderOrder>
  0008f	83 c4 0c	 add	 esp, 12			; 0000000cH
$LN12@Sort_unche:

; 7562 :         }
; 7563 :     }
; 7564 : }

  00092	5f		 pop	 edi
  00093	5e		 pop	 esi
  00094	5b		 pop	 ebx
  00095	8b e5		 mov	 esp, ebp
  00097	5d		 pop	 ebp
  00098	c3		 ret	 0
$LN24@Sort_unche:

; 7546 :             _Make_heap_unchecked(_First, _Last, _Pred);

  00099	e8 00 00 00 00	 call	 ??$_Make_heap_unchecked@PAPAVCGraphicThingInstance@@UCMapOutdoor_LessThingInstancePtrRenderOrder@@@std@@YAXPAPAVCGraphicThingInstance@@0UCMapOutdoor_LessThingInstancePtrRenderOrder@@@Z ; std::_Make_heap_unchecked<CGraphicThingInstance * *,CMapOutdoor_LessThingInstancePtrRenderOrder>

; 6592 :     for (; _Last - _First >= 2; --_Last) {

  0009e	2b f7		 sub	 esi, edi

; 7546 :             _Make_heap_unchecked(_First, _Last, _Pred);

  000a0	83 c4 0c	 add	 esp, 12			; 0000000cH

; 6592 :     for (; _Last - _First >= 2; --_Last) {

  000a3	8b c6		 mov	 eax, esi
  000a5	83 e0 fc	 and	 eax, -4			; fffffffcH
  000a8	83 f8 08	 cmp	 eax, 8
  000ab	7c e5		 jl	 SHORT $LN12@Sort_unche
  000ad	0f 1f 00	 npad	 3
$LL13@Sort_unche:

; 6230 :         _Iter_value_t<_RanIt> _Val = _STD move(*_Last);

  000b0	8b 44 3e fc	 mov	 eax, DWORD PTR [esi+edi-4]

; 6221 :     _Pop_heap_hole_by_index(

  000b4	ff 75 14	 push	 DWORD PTR __Pred$[ebp]

; 6230 :         _Iter_value_t<_RanIt> _Val = _STD move(*_Last);

  000b7	89 45 0c	 mov	 DWORD PTR __Val$2[ebp], eax

; 6219 :     *_Dest      = _STD move(*_First);

  000ba	8b 07		 mov	 eax, DWORD PTR [edi]
  000bc	89 44 3e fc	 mov	 DWORD PTR [esi+edi-4], eax

; 6220 :     using _Diff = _Iter_diff_t<_RanIt>;
; 6221 :     _Pop_heap_hole_by_index(

  000c0	8d 45 0c	 lea	 eax, DWORD PTR __Val$2[ebp]
  000c3	50		 push	 eax
  000c4	8d 46 fc	 lea	 eax, DWORD PTR [esi-4]
  000c7	c1 f8 02	 sar	 eax, 2
  000ca	50		 push	 eax
  000cb	6a 00		 push	 0
  000cd	57		 push	 edi
  000ce	e8 00 00 00 00	 call	 ??$_Pop_heap_hole_by_index@PAPAVCGraphicThingInstance@@PAV1@UCMapOutdoor_LessThingInstancePtrRenderOrder@@@std@@YAXPAPAVCGraphicThingInstance@@HH$$QAPAV1@UCMapOutdoor_LessThingInstancePtrRenderOrder@@@Z ; std::_Pop_heap_hole_by_index<CGraphicThingInstance * *,CGraphicThingInstance *,CMapOutdoor_LessThingInstancePtrRenderOrder>

; 6592 :     for (; _Last - _First >= 2; --_Last) {

  000d3	83 ee 04	 sub	 esi, 4

; 6221 :     _Pop_heap_hole_by_index(

  000d6	83 c4 14	 add	 esp, 20			; 00000014H

; 6592 :     for (; _Last - _First >= 2; --_Last) {

  000d9	8b c6		 mov	 eax, esi
  000db	83 e0 fc	 and	 eax, -4			; fffffffcH
  000de	83 f8 08	 cmp	 eax, 8
  000e1	7d cd		 jge	 SHORT $LL13@Sort_unche

; 7562 :         }
; 7563 :     }
; 7564 : }

  000e3	5f		 pop	 edi
  000e4	5e		 pop	 esi
  000e5	5b		 pop	 ebx
  000e6	8b e5		 mov	 esp, ebp
  000e8	5d		 pop	 ebp
  000e9	c3		 ret	 0
??$_Sort_unchecked@PAPAVCGraphicThingInstance@@UCMapOutdoor_LessThingInstancePtrRenderOrder@@@std@@YAXPAPAVCGraphicThingInstance@@0HUCMapOutdoor_LessThingInstancePtrRenderOrder@@@Z ENDP ; std::_Sort_unchecked<CGraphicThingInstance * *,CMapOutdoor_LessThingInstancePtrRenderOrder>
_TEXT	ENDS
; Function compile flags: /Ogtp
; File C:\Program Files (x86)\Microsoft Visual Studio\2019\Community\VC\Tools\MSVC\14.28.29333\include\algorithm
; File D:\Metin2 Server Files\mainline\SRC_2014\Metin2Client\GameLib\Area.h
; File C:\Program Files (x86)\Microsoft Visual Studio\2019\Community\VC\Tools\MSVC\14.28.29333\include\algorithm
; File C:\Program Files (x86)\Microsoft Visual Studio\2019\Community\VC\Tools\MSVC\14.28.29333\include\xutility
; File C:\Program Files (x86)\Microsoft Visual Studio\2019\Community\VC\Tools\MSVC\14.28.29333\include\algorithm
; File C:\Program Files (x86)\Microsoft Visual Studio\2019\Community\VC\Tools\MSVC\14.28.29333\include\xutility
; File C:\Program Files (x86)\Microsoft Visual Studio\2019\Community\VC\Tools\MSVC\14.28.29333\include\algorithm
; File D:\Metin2 Server Files\mainline\SRC_2014\Metin2Client\GameLib\Area.h
; File C:\Program Files (x86)\Microsoft Visual Studio\2019\Community\VC\Tools\MSVC\14.28.29333\include\algorithm
; File D:\Metin2 Server Files\mainline\SRC_2014\Metin2Client\GameLib\Area.h
; File C:\Program Files (x86)\Microsoft Visual Studio\2019\Community\VC\Tools\MSVC\14.28.29333\include\algorithm
; File D:\Metin2 Server Files\mainline\SRC_2014\Metin2Client\GameLib\Area.h
; File C:\Program Files (x86)\Microsoft Visual Studio\2019\Community\VC\Tools\MSVC\14.28.29333\include\algorithm
; File D:\Metin2 Server Files\mainline\SRC_2014\Metin2Client\GameLib\Area.h
; File C:\Program Files (x86)\Microsoft Visual Studio\2019\Community\VC\Tools\MSVC\14.28.29333\include\algorithm
;	COMDAT ??$_Sort_unchecked@PAUSCRCWithNumber@CArea@@UCRCNumComp@2@@std@@YAXPAUSCRCWithNumber@CArea@@0HUCRCNumComp@2@@Z
_TEXT	SEGMENT
__Val$1 = -24						; size = 8
__Mid$2 = -24						; size = 8
__Val$2$ = -20						; size = 4
tv869 = -16						; size = 4
__Hole$1$ = -12						; size = 4
__Val$2$ = -8						; size = 4
__Val$1$ = -8						; size = 4
__Bottom$1$ = -4					; size = 4
__Val$1$ = -4						; size = 4
__Max_sequence_non_leaf$1$ = 8				; size = 4
__First$ = 8						; size = 4
__Last$ = 12						; size = 4
__Ideal$ = 16						; size = 4
__Pred$ = 20						; size = 1
??$_Sort_unchecked@PAUSCRCWithNumber@CArea@@UCRCNumComp@2@@std@@YAXPAUSCRCWithNumber@CArea@@0HUCRCNumComp@2@@Z PROC ; std::_Sort_unchecked<CArea::SCRCWithNumber *,CArea::CRCNumComp>, COMDAT

; 7537 : _CONSTEXPR20 void _Sort_unchecked(_RanIt _First, _RanIt _Last, _Iter_diff_t<_RanIt> _Ideal, _Pr _Pred) {

  00000	55		 push	 ebp
  00001	8b ec		 mov	 ebp, esp
  00003	83 ec 18	 sub	 esp, 24			; 00000018H
  00006	53		 push	 ebx
  00007	56		 push	 esi

; 7538 :     // order [_First, _Last)
; 7539 :     for (;;) {
; 7540 :         if (_Last - _First <= _ISORT_MAX) { // small

  00008	8b 75 08	 mov	 esi, DWORD PTR __First$[ebp]
  0000b	57		 push	 edi
  0000c	8b 7d 0c	 mov	 edi, DWORD PTR __Last$[ebp]
  0000f	8b c7		 mov	 eax, edi
  00011	2b c6		 sub	 eax, esi
  00013	83 e0 f8	 and	 eax, -8			; fffffff8H
  00016	3d 00 01 00 00	 cmp	 eax, 256		; 00000100H
  0001b	7e 74		 jle	 SHORT $LN67@Sort_unche
  0001d	8b 55 14	 mov	 edx, DWORD PTR __Pred$[ebp]
  00020	8b 5d 10	 mov	 ebx, DWORD PTR __Ideal$[ebp]
$LL2@Sort_unche:

; 7541 :             _Insertion_sort_unchecked(_First, _Last, _Pred);
; 7542 :             return;
; 7543 :         }
; 7544 : 
; 7545 :         if (_Ideal <= 0) { // heap sort if too many divisions

  00023	85 db		 test	 ebx, ebx
  00025	0f 8e ad 00 00
	00		 jle	 $LN68@Sort_unche

; 7546 :             _Make_heap_unchecked(_First, _Last, _Pred);
; 7547 :             _Sort_heap_unchecked(_First, _Last, _Pred);
; 7548 :             return;
; 7549 :         }
; 7550 : 
; 7551 :         // divide and conquer by quicksort
; 7552 :         auto _Mid = _Partition_by_median_guess_unchecked(_First, _Last, _Pred);

  0002b	52		 push	 edx
  0002c	57		 push	 edi
  0002d	8d 45 e8	 lea	 eax, DWORD PTR __Mid$2[ebp]
  00030	56		 push	 esi
  00031	50		 push	 eax
  00032	e8 00 00 00 00	 call	 ??$_Partition_by_median_guess_unchecked@PAUSCRCWithNumber@CArea@@UCRCNumComp@2@@std@@YA?AU?$pair@PAUSCRCWithNumber@CArea@@PAU12@@0@PAUSCRCWithNumber@CArea@@0UCRCNumComp@3@@Z ; std::_Partition_by_median_guess_unchecked<CArea::SCRCWithNumber *,CArea::CRCNumComp>

; 7553 : 
; 7554 :         _Ideal = (_Ideal >> 1) + (_Ideal >> 2); // allow 1.5 log2(N) divisions
; 7555 : 
; 7556 :         if (_Mid.first - _First < _Last - _Mid.second) { // loop on second half

  00037	8b 55 ec	 mov	 edx, DWORD PTR __Mid$2[ebp+4]
  0003a	8b c3		 mov	 eax, ebx
  0003c	c1 f8 02	 sar	 eax, 2
  0003f	8b cf		 mov	 ecx, edi
  00041	d1 fb		 sar	 ebx, 1
  00043	83 c4 10	 add	 esp, 16			; 00000010H
  00046	03 d8		 add	 ebx, eax
  00048	2b ca		 sub	 ecx, edx
  0004a	8b 45 e8	 mov	 eax, DWORD PTR __Mid$2[ebp]
  0004d	83 e1 f8	 and	 ecx, -8			; fffffff8H
  00050	2b c6		 sub	 eax, esi
  00052	83 e0 f8	 and	 eax, -8			; fffffff8H
  00055	3b c1		 cmp	 eax, ecx
  00057	8b 45 14	 mov	 eax, DWORD PTR __Pred$[ebp]
  0005a	50		 push	 eax
  0005b	53		 push	 ebx
  0005c	7d 12		 jge	 SHORT $LN7@Sort_unche

; 7557 :             _Sort_unchecked(_First, _Mid.first, _Ideal, _Pred);

  0005e	8b 45 e8	 mov	 eax, DWORD PTR __Mid$2[ebp]
  00061	50		 push	 eax
  00062	56		 push	 esi
  00063	e8 00 00 00 00	 call	 ??$_Sort_unchecked@PAUSCRCWithNumber@CArea@@UCRCNumComp@2@@std@@YAXPAUSCRCWithNumber@CArea@@0HUCRCNumComp@2@@Z ; std::_Sort_unchecked<CArea::SCRCWithNumber *,CArea::CRCNumComp>

; 7558 :             _First = _Mid.second;

  00068	8b 75 ec	 mov	 esi, DWORD PTR __Mid$2[ebp+4]
  0006b	89 75 08	 mov	 DWORD PTR __First$[ebp], esi

; 7559 :         } else { // loop on first half

  0006e	eb 0d		 jmp	 SHORT $LN91@Sort_unche
$LN7@Sort_unche:

; 7560 :             _Sort_unchecked(_Mid.second, _Last, _Ideal, _Pred);

  00070	57		 push	 edi
  00071	52		 push	 edx
  00072	e8 00 00 00 00	 call	 ??$_Sort_unchecked@PAUSCRCWithNumber@CArea@@UCRCNumComp@2@@std@@YAXPAUSCRCWithNumber@CArea@@0HUCRCNumComp@2@@Z ; std::_Sort_unchecked<CArea::SCRCWithNumber *,CArea::CRCNumComp>

; 7561 :             _Last = _Mid.first;

  00077	8b 7d e8	 mov	 edi, DWORD PTR __Mid$2[ebp]
  0007a	89 7d 0c	 mov	 DWORD PTR __Last$[ebp], edi
$LN91@Sort_unche:

; 7538 :     // order [_First, _Last)
; 7539 :     for (;;) {
; 7540 :         if (_Last - _First <= _ISORT_MAX) { // small

  0007d	8b 55 14	 mov	 edx, DWORD PTR __Pred$[ebp]
  00080	8b c7		 mov	 eax, edi
  00082	2b c6		 sub	 eax, esi
  00084	83 c4 10	 add	 esp, 16			; 00000010H
  00087	83 e0 f8	 and	 eax, -8			; fffffff8H
  0008a	3d 00 01 00 00	 cmp	 eax, 256		; 00000100H
  0008f	7f 92		 jg	 SHORT $LL2@Sort_unche
$LN67@Sort_unche:

; 7412 :     if (_First != _Last) {

  00091	3b f7		 cmp	 esi, edi
  00093	0f 84 a9 01 00
	00		 je	 $LN51@Sort_unche

; 7413 :         for (_BidIt _Mid = _First; ++_Mid != _Last;) { // order next element

  00099	8d 5e 08	 lea	 ebx, DWORD PTR [esi+8]
  0009c	3b df		 cmp	 ebx, edi
  0009e	0f 84 9e 01 00
	00		 je	 $LN51@Sort_unche
$LL11@Sort_unche:

; 7414 :             _BidIt _Hole               = _Mid;
; 7415 :             _Iter_value_t<_BidIt> _Val = _STD move(*_Mid);

  000a4	8b 03		 mov	 eax, DWORD PTR [ebx]
  000a6	8b fb		 mov	 edi, ebx
  000a8	89 45 f8	 mov	 DWORD PTR __Val$2$[ebp], eax
  000ab	8b 43 04	 mov	 eax, DWORD PTR [ebx+4]
  000ae	89 45 fc	 mov	 DWORD PTR __Val$1$[ebp], eax
; File D:\Metin2 Server Files\mainline\SRC_2014\Metin2Client\GameLib\Area.h

; 190  : 				return lhs.dwNumber > rhs.dwNumber;

  000b1	3b 46 04	 cmp	 eax, DWORD PTR [esi+4]
; File C:\Program Files (x86)\Microsoft Visual Studio\2019\Community\VC\Tools\MSVC\14.28.29333\include\algorithm

; 7417 :             if (_DEBUG_LT_PRED(_Pred, _Val, *_First)) { // found new earliest element, move to front

  000b4	0f 86 4f 01 00
	00		 jbe	 $LN18@Sort_unche
; File C:\Program Files (x86)\Microsoft Visual Studio\2019\Community\VC\Tools\MSVC\14.28.29333\include\xutility

; 4696 :             return _Copy_backward_memmove(_First, _Last, _Dest);

  000ba	8d 43 08	 lea	 eax, DWORD PTR [ebx+8]
  000bd	50		 push	 eax
  000be	53		 push	 ebx
  000bf	56		 push	 esi
  000c0	e8 00 00 00 00	 call	 ??$_Copy_backward_memmove@PAUSCRCWithNumber@CArea@@PAU12@@std@@YAPAUSCRCWithNumber@CArea@@PAU12@00@Z ; std::_Copy_backward_memmove<CArea::SCRCWithNumber *,CArea::SCRCWithNumber *>
; File C:\Program Files (x86)\Microsoft Visual Studio\2019\Community\VC\Tools\MSVC\14.28.29333\include\algorithm

; 7419 :                 *_First = _STD move(_Val);

  000c5	8b 4d f8	 mov	 ecx, DWORD PTR __Val$2$[ebp]
; File C:\Program Files (x86)\Microsoft Visual Studio\2019\Community\VC\Tools\MSVC\14.28.29333\include\xutility

; 4696 :             return _Copy_backward_memmove(_First, _Last, _Dest);

  000c8	83 c4 0c	 add	 esp, 12			; 0000000cH
; File C:\Program Files (x86)\Microsoft Visual Studio\2019\Community\VC\Tools\MSVC\14.28.29333\include\algorithm

; 7419 :                 *_First = _STD move(_Val);

  000cb	8b 45 fc	 mov	 eax, DWORD PTR __Val$1$[ebp]
  000ce	89 0e		 mov	 DWORD PTR [esi], ecx
  000d0	89 46 04	 mov	 DWORD PTR [esi+4], eax

; 7420 :             } else { // look for insertion point after first

  000d3	e9 5e 01 00 00	 jmp	 $LN19@Sort_unche
$LN68@Sort_unche:

; 6360 :     _Diff _Bottom = _Last - _First;

  000d8	2b fe		 sub	 edi, esi
  000da	8b cf		 mov	 ecx, edi
  000dc	89 7d 0c	 mov	 DWORD PTR __Last$[ebp], edi
  000df	c1 f9 03	 sar	 ecx, 3

; 6361 :     for (_Diff _Hole = _Bottom >> 1; _Hole > 0;) { // shift for codegen

  000e2	8b d9		 mov	 ebx, ecx
  000e4	89 4d fc	 mov	 DWORD PTR __Bottom$1$[ebp], ecx
  000e7	d1 fb		 sar	 ebx, 1
  000e9	85 db		 test	 ebx, ebx
  000eb	0f 8e bf 00 00
	00		 jle	 $LN31@Sort_unche
  000f1	8d 41 ff	 lea	 eax, DWORD PTR [ecx-1]
  000f4	89 45 f0	 mov	 DWORD PTR tv869[ebp], eax
  000f7	d1 f8		 sar	 eax, 1
  000f9	89 45 08	 mov	 DWORD PTR __Max_sequence_non_leaf$1$[ebp], eax
  000fc	0f 1f 40 00	 npad	 4
$LL30@Sort_unche:

; 6362 :         // reheap top half, bottom to top
; 6363 :         --_Hole;
; 6364 :         _Iter_value_t<_RanIt> _Val = _STD move(*(_First + _Hole));

  00100	8b 44 de f8	 mov	 eax, DWORD PTR [esi+ebx*8-8]
  00104	4b		 dec	 ebx
  00105	89 45 ec	 mov	 DWORD PTR __Val$2$[ebp], eax

; 6365 :         _Pop_heap_hole_by_index(_First, _Hole, _Bottom, _STD move(_Val), _Pred);

  00108	8b d3		 mov	 edx, ebx
  0010a	89 5d f4	 mov	 DWORD PTR __Hole$1$[ebp], ebx

; 6192 :     _Diff _Idx       = _Hole;

  0010d	8b fb		 mov	 edi, ebx

; 6364 :         _Iter_value_t<_RanIt> _Val = _STD move(*(_First + _Hole));

  0010f	8b 44 de 04	 mov	 eax, DWORD PTR [esi+ebx*8+4]
  00113	89 45 f8	 mov	 DWORD PTR __Val$1$[ebp], eax

; 6197 :     while (_Idx < _Max_sequence_non_leaf) { // move _Hole down to larger child

  00116	8b 45 08	 mov	 eax, DWORD PTR __Max_sequence_non_leaf$1$[ebp]
  00119	3b d8		 cmp	 ebx, eax
  0011b	7d 32		 jge	 SHORT $LN36@Sort_unche
  0011d	8b d8		 mov	 ebx, eax
  0011f	90		 npad	 1
$LL35@Sort_unche:

; 6198 :         _Idx = 2 * _Idx + 2;

  00120	8d 0c 3f	 lea	 ecx, DWORD PTR [edi+edi]

; 6199 :         if (_DEBUG_LT_PRED(_Pred, *(_First + _Idx), *(_First + (_Idx - 1)))) {
; 6200 :             --_Idx;
; 6201 :         }
; 6202 :         *(_First + _Hole) = _STD move(*(_First + _Idx));

  00123	8b 44 ce 14	 mov	 eax, DWORD PTR [esi+ecx*8+20]
  00127	39 44 ce 0c	 cmp	 DWORD PTR [esi+ecx*8+12], eax
  0012b	1b c0		 sbb	 eax, eax
  0012d	8d 78 02	 lea	 edi, DWORD PTR [eax+2]
  00130	03 f9		 add	 edi, ecx
  00132	8b 04 fe	 mov	 eax, DWORD PTR [esi+edi*8]
  00135	8b 4c fe 04	 mov	 ecx, DWORD PTR [esi+edi*8+4]
  00139	89 04 d6	 mov	 DWORD PTR [esi+edx*8], eax
  0013c	89 4c d6 04	 mov	 DWORD PTR [esi+edx*8+4], ecx

; 6203 :         _Hole             = _Idx;

  00140	8b d7		 mov	 edx, edi
  00142	3b fb		 cmp	 edi, ebx
  00144	7c da		 jl	 SHORT $LL35@Sort_unche
  00146	8b 5d f4	 mov	 ebx, DWORD PTR __Hole$1$[ebp]
  00149	8b 4d fc	 mov	 ecx, DWORD PTR __Bottom$1$[ebp]
  0014c	8b 45 08	 mov	 eax, DWORD PTR __Max_sequence_non_leaf$1$[ebp]
$LN36@Sort_unche:

; 6204 :     }
; 6205 : 
; 6206 :     if (_Idx == _Max_sequence_non_leaf && _Bottom % 2 == 0) { // only child at bottom, move _Hole down to it

  0014f	3b d0		 cmp	 edx, eax
  00151	75 17		 jne	 SHORT $LN38@Sort_unche
  00153	f6 c1 01	 test	 cl, 1
  00156	75 12		 jne	 SHORT $LN38@Sort_unche

; 6207 :         *(_First + _Hole) = _STD move(*(_First + (_Bottom - 1)));

  00158	8b 44 ce f8	 mov	 eax, DWORD PTR [esi+ecx*8-8]
  0015c	8b 4c ce fc	 mov	 ecx, DWORD PTR [esi+ecx*8-4]
  00160	89 04 d6	 mov	 DWORD PTR [esi+edx*8], eax
  00163	89 4c d6 04	 mov	 DWORD PTR [esi+edx*8+4], ecx

; 6208 :         _Hole             = _Bottom - 1;

  00167	8b 55 f0	 mov	 edx, DWORD PTR tv869[ebp]
$LN38@Sort_unche:

; 6077 :          _Top < _Hole && _DEBUG_LT_PRED(_Pred, *(_First + _Idx), _Val); //

  0016a	3b da		 cmp	 ebx, edx
  0016c	7d 24		 jge	 SHORT $LN90@Sort_unche
  0016e	66 90		 npad	 2
$LL45@Sort_unche:
; File D:\Metin2 Server Files\mainline\SRC_2014\Metin2Client\GameLib\Area.h

; 190  : 				return lhs.dwNumber > rhs.dwNumber;

  00170	8b 45 f8	 mov	 eax, DWORD PTR __Val$1$[ebp]
; File C:\Program Files (x86)\Microsoft Visual Studio\2019\Community\VC\Tools\MSVC\14.28.29333\include\algorithm

; 6076 :     for (_Diff _Idx = (_Hole - 1) >> 1; // shift for codegen

  00173	8d 7a ff	 lea	 edi, DWORD PTR [edx-1]
  00176	d1 ff		 sar	 edi, 1
; File D:\Metin2 Server Files\mainline\SRC_2014\Metin2Client\GameLib\Area.h

; 190  : 				return lhs.dwNumber > rhs.dwNumber;

  00178	39 44 fe 04	 cmp	 DWORD PTR [esi+edi*8+4], eax
; File C:\Program Files (x86)\Microsoft Visual Studio\2019\Community\VC\Tools\MSVC\14.28.29333\include\algorithm

; 6077 :          _Top < _Hole && _DEBUG_LT_PRED(_Pred, *(_First + _Idx), _Val); //

  0017c	76 14		 jbe	 SHORT $LN90@Sort_unche

; 6078 :          _Idx = (_Hole - 1) >> 1) { // shift for codegen
; 6079 :         // move _Hole up to parent
; 6080 :         *(_First + _Hole) = _STD move(*(_First + _Idx));

  0017e	8b 04 fe	 mov	 eax, DWORD PTR [esi+edi*8]
  00181	8b 4c fe 04	 mov	 ecx, DWORD PTR [esi+edi*8+4]
  00185	89 04 d6	 mov	 DWORD PTR [esi+edx*8], eax
  00188	89 4c d6 04	 mov	 DWORD PTR [esi+edx*8+4], ecx

; 6081 :         _Hole             = _Idx;

  0018c	8b d7		 mov	 edx, edi
  0018e	3b df		 cmp	 ebx, edi
  00190	7c de		 jl	 SHORT $LL45@Sort_unche
$LN90@Sort_unche:

; 6082 :     }
; 6083 : 
; 6084 :     *(_First + _Hole) = _STD forward<_Ty>(_Val); // drop _Val into final hole

  00192	8b 45 ec	 mov	 eax, DWORD PTR __Val$2$[ebp]

; 6361 :     for (_Diff _Hole = _Bottom >> 1; _Hole > 0;) { // shift for codegen

  00195	8b 4d fc	 mov	 ecx, DWORD PTR __Bottom$1$[ebp]

; 6084 :     *(_First + _Hole) = _STD forward<_Ty>(_Val); // drop _Val into final hole

  00198	89 04 d6	 mov	 DWORD PTR [esi+edx*8], eax
  0019b	8b 45 f8	 mov	 eax, DWORD PTR __Val$1$[ebp]
  0019e	89 44 d6 04	 mov	 DWORD PTR [esi+edx*8+4], eax

; 6361 :     for (_Diff _Hole = _Bottom >> 1; _Hole > 0;) { // shift for codegen

  001a2	85 db		 test	 ebx, ebx
  001a4	0f 8f 56 ff ff
	ff		 jg	 $LL30@Sort_unche
  001aa	8b 7d 0c	 mov	 edi, DWORD PTR __Last$[ebp]
  001ad	8b 55 14	 mov	 edx, DWORD PTR __Pred$[ebp]
$LN31@Sort_unche:

; 6592 :     for (; _Last - _First >= 2; --_Last) {

  001b0	83 f9 02	 cmp	 ecx, 2
  001b3	0f 8c 89 00 00
	00		 jl	 $LN51@Sort_unche
  001b9	0f 1f 80 00 00
	00 00		 npad	 7
$LL52@Sort_unche:

; 6230 :         _Iter_value_t<_RanIt> _Val = _STD move(*_Last);

  001c0	8b 44 3e f8	 mov	 eax, DWORD PTR [esi+edi-8]
  001c4	8b 4c 3e fc	 mov	 ecx, DWORD PTR [esi+edi-4]
  001c8	89 45 e8	 mov	 DWORD PTR __Val$1[ebp], eax

; 6219 :     *_Dest      = _STD move(*_First);

  001cb	8b 06		 mov	 eax, DWORD PTR [esi]

; 6230 :         _Iter_value_t<_RanIt> _Val = _STD move(*_Last);

  001cd	89 4d ec	 mov	 DWORD PTR __Val$1[ebp+4], ecx

; 6219 :     *_Dest      = _STD move(*_First);

  001d0	8b 4e 04	 mov	 ecx, DWORD PTR [esi+4]
  001d3	89 44 3e f8	 mov	 DWORD PTR [esi+edi-8], eax

; 6220 :     using _Diff = _Iter_diff_t<_RanIt>;
; 6221 :     _Pop_heap_hole_by_index(

  001d7	8d 45 e8	 lea	 eax, DWORD PTR __Val$1[ebp]
  001da	52		 push	 edx
  001db	50		 push	 eax
  001dc	8d 47 f8	 lea	 eax, DWORD PTR [edi-8]
  001df	89 4c 3e fc	 mov	 DWORD PTR [esi+edi-4], ecx
  001e3	c1 f8 03	 sar	 eax, 3
  001e6	50		 push	 eax
  001e7	6a 00		 push	 0
  001e9	56		 push	 esi
  001ea	e8 00 00 00 00	 call	 ??$_Pop_heap_hole_by_index@PAUSCRCWithNumber@CArea@@U12@UCRCNumComp@2@@std@@YAXPAUSCRCWithNumber@CArea@@HH$$QAU12@UCRCNumComp@2@@Z ; std::_Pop_heap_hole_by_index<CArea::SCRCWithNumber *,CArea::SCRCWithNumber,CArea::CRCNumComp>

; 6592 :     for (; _Last - _First >= 2; --_Last) {

  001ef	8b 55 14	 mov	 edx, DWORD PTR __Pred$[ebp]
  001f2	83 ef 08	 sub	 edi, 8
  001f5	8b c7		 mov	 eax, edi

; 6221 :     _Pop_heap_hole_by_index(

  001f7	83 c4 14	 add	 esp, 20			; 00000014H

; 6592 :     for (; _Last - _First >= 2; --_Last) {

  001fa	83 e0 f8	 and	 eax, -8			; fffffff8H
  001fd	83 f8 10	 cmp	 eax, 16			; 00000010H
  00200	7d be		 jge	 SHORT $LL52@Sort_unche

; 7562 :         }
; 7563 :     }
; 7564 : }

  00202	5f		 pop	 edi
  00203	5e		 pop	 esi
  00204	5b		 pop	 ebx
  00205	8b e5		 mov	 esp, ebp
  00207	5d		 pop	 ebp
  00208	c3		 ret	 0
$LN18@Sort_unche:

; 7421 :                 for (_BidIt _Prev = _Hole; _DEBUG_LT_PRED(_Pred, _Val, *--_Prev); _Hole = _Prev) {

  00209	8d 53 f8	 lea	 edx, DWORD PTR [ebx-8]
; File D:\Metin2 Server Files\mainline\SRC_2014\Metin2Client\GameLib\Area.h

; 190  : 				return lhs.dwNumber > rhs.dwNumber;

  0020c	3b 43 fc	 cmp	 eax, DWORD PTR [ebx-4]
; File C:\Program Files (x86)\Microsoft Visual Studio\2019\Community\VC\Tools\MSVC\14.28.29333\include\algorithm

; 7421 :                 for (_BidIt _Prev = _Hole; _DEBUG_LT_PRED(_Pred, _Val, *--_Prev); _Hole = _Prev) {

  0020f	76 1d		 jbe	 SHORT $LN15@Sort_unche
  00211	8b 75 fc	 mov	 esi, DWORD PTR __Val$1$[ebp]
$LL16@Sort_unche:

; 7422 :                     *_Hole = _STD move(*_Prev); // move hole down

  00214	8b 02		 mov	 eax, DWORD PTR [edx]
  00216	8b 4a 04	 mov	 ecx, DWORD PTR [edx+4]
  00219	89 07		 mov	 DWORD PTR [edi], eax
  0021b	89 4f 04	 mov	 DWORD PTR [edi+4], ecx
  0021e	8b fa		 mov	 edi, edx
  00220	83 ea 08	 sub	 edx, 8
; File D:\Metin2 Server Files\mainline\SRC_2014\Metin2Client\GameLib\Area.h

; 190  : 				return lhs.dwNumber > rhs.dwNumber;

  00223	3b 72 04	 cmp	 esi, DWORD PTR [edx+4]
; File C:\Program Files (x86)\Microsoft Visual Studio\2019\Community\VC\Tools\MSVC\14.28.29333\include\algorithm

; 7421 :                 for (_BidIt _Prev = _Hole; _DEBUG_LT_PRED(_Pred, _Val, *--_Prev); _Hole = _Prev) {

  00226	77 ec		 ja	 SHORT $LL16@Sort_unche
  00228	8b 75 08	 mov	 esi, DWORD PTR __First$[ebp]
  0022b	8b 45 fc	 mov	 eax, DWORD PTR __Val$1$[ebp]
$LN15@Sort_unche:

; 7423 :                 }
; 7424 : 
; 7425 :                 *_Hole = _STD move(_Val); // insert element in hole

  0022e	8b 4d f8	 mov	 ecx, DWORD PTR __Val$2$[ebp]
  00231	89 0f		 mov	 DWORD PTR [edi], ecx
  00233	89 47 04	 mov	 DWORD PTR [edi+4], eax
$LN19@Sort_unche:

; 7413 :         for (_BidIt _Mid = _First; ++_Mid != _Last;) { // order next element

  00236	83 c3 08	 add	 ebx, 8
  00239	3b 5d 0c	 cmp	 ebx, DWORD PTR __Last$[ebp]
  0023c	0f 85 62 fe ff
	ff		 jne	 $LL11@Sort_unche
$LN51@Sort_unche:
  00242	5f		 pop	 edi

; 7562 :         }
; 7563 :     }
; 7564 : }

  00243	5e		 pop	 esi
  00244	5b		 pop	 ebx
  00245	8b e5		 mov	 esp, ebp
  00247	5d		 pop	 ebp
  00248	c3		 ret	 0
??$_Sort_unchecked@PAUSCRCWithNumber@CArea@@UCRCNumComp@2@@std@@YAXPAUSCRCWithNumber@CArea@@0HUCRCNumComp@2@@Z ENDP ; std::_Sort_unchecked<CArea::SCRCWithNumber *,CArea::CRCNumComp>
_TEXT	ENDS
; Function compile flags: /Ogtp
; File C:\Program Files (x86)\Microsoft Visual Studio\2019\Community\VC\Tools\MSVC\14.28.29333\include\xmemory
;	COMDAT ??$_Destroy_range@V?$allocator@E@std@@@std@@YAXPAEQAEAAV?$allocator@E@0@@Z
_TEXT	SEGMENT
__First$ = 8						; size = 4
__Last$ = 12						; size = 4
__Al$ = 16						; size = 4
??$_Destroy_range@V?$allocator@E@std@@@std@@YAXPAEQAEAAV?$allocator@E@0@@Z PROC ; std::_Destroy_range<std::allocator<unsigned char> >, COMDAT

; 963  :     // note that this is an optimization for debug mode codegen; in release mode the BE removes all of this
; 964  :     using _Ty = typename _Alloc::value_type;
; 965  :     if _CONSTEXPR_IF (!conjunction_v<is_trivially_destructible<_Ty>, _Uses_default_destroy<_Alloc, _Ty*>>) {
; 966  :         for (; _First != _Last; ++_First) {
; 967  :             allocator_traits<_Alloc>::destroy(_Al, _Unfancy(_First));
; 968  :         }
; 969  :     }
; 970  : }

  00000	c2 00 00	 ret	 0
??$_Destroy_range@V?$allocator@E@std@@@std@@YAXPAEQAEAAV?$allocator@E@0@@Z ENDP ; std::_Destroy_range<std::allocator<unsigned char> >
_TEXT	ENDS
; Function compile flags: /Ogtp
; File C:\Program Files (x86)\Microsoft Visual Studio\2019\Community\VC\Tools\MSVC\14.28.29333\include\xmemory
;	COMDAT ??$_Destroy_range@V?$allocator@PAVCGraphicThingInstance@@@std@@@std@@YAXPAPAVCGraphicThingInstance@@QAPAV1@AAV?$allocator@PAVCGraphicThingInstance@@@0@@Z
_TEXT	SEGMENT
__First$ = 8						; size = 4
__Last$ = 12						; size = 4
__Al$ = 16						; size = 4
??$_Destroy_range@V?$allocator@PAVCGraphicThingInstance@@@std@@@std@@YAXPAPAVCGraphicThingInstance@@QAPAV1@AAV?$allocator@PAVCGraphicThingInstance@@@0@@Z PROC ; std::_Destroy_range<std::allocator<CGraphicThingInstance *> >, COMDAT

; 963  :     // note that this is an optimization for debug mode codegen; in release mode the BE removes all of this
; 964  :     using _Ty = typename _Alloc::value_type;
; 965  :     if _CONSTEXPR_IF (!conjunction_v<is_trivially_destructible<_Ty>, _Uses_default_destroy<_Alloc, _Ty*>>) {
; 966  :         for (; _First != _Last; ++_First) {
; 967  :             allocator_traits<_Alloc>::destroy(_Al, _Unfancy(_First));
; 968  :         }
; 969  :     }
; 970  : }

  00000	c2 00 00	 ret	 0
??$_Destroy_range@V?$allocator@PAVCGraphicThingInstance@@@std@@@std@@YAXPAPAVCGraphicThingInstance@@QAPAV1@AAV?$allocator@PAVCGraphicThingInstance@@@0@@Z ENDP ; std::_Destroy_range<std::allocator<CGraphicThingInstance *> >
_TEXT	ENDS
; Function compile flags: /Ogtp
; File C:\Program Files (x86)\Microsoft Visual Studio\2019\Community\VC\Tools\MSVC\14.28.29333\include\xmemory
;	COMDAT ??$_Destroy_range@V?$allocator@USCRCWithNumber@CArea@@@std@@@std@@YAXPAUSCRCWithNumber@CArea@@QAU12@AAV?$allocator@USCRCWithNumber@CArea@@@0@@Z
_TEXT	SEGMENT
__First$ = 8						; size = 4
__Last$ = 12						; size = 4
__Al$ = 16						; size = 4
??$_Destroy_range@V?$allocator@USCRCWithNumber@CArea@@@std@@@std@@YAXPAUSCRCWithNumber@CArea@@QAU12@AAV?$allocator@USCRCWithNumber@CArea@@@0@@Z PROC ; std::_Destroy_range<std::allocator<CArea::SCRCWithNumber> >, COMDAT

; 963  :     // note that this is an optimization for debug mode codegen; in release mode the BE removes all of this
; 964  :     using _Ty = typename _Alloc::value_type;
; 965  :     if _CONSTEXPR_IF (!conjunction_v<is_trivially_destructible<_Ty>, _Uses_default_destroy<_Alloc, _Ty*>>) {
; 966  :         for (; _First != _Last; ++_First) {
; 967  :             allocator_traits<_Alloc>::destroy(_Al, _Unfancy(_First));
; 968  :         }
; 969  :     }
; 970  : }

  00000	c2 00 00	 ret	 0
??$_Destroy_range@V?$allocator@USCRCWithNumber@CArea@@@std@@@std@@YAXPAUSCRCWithNumber@CArea@@QAU12@AAV?$allocator@USCRCWithNumber@CArea@@@0@@Z ENDP ; std::_Destroy_range<std::allocator<CArea::SCRCWithNumber> >
_TEXT	ENDS
; Function compile flags: /Ogtp
; File C:\Program Files (x86)\Microsoft Visual Studio\2019\Community\VC\Tools\MSVC\14.28.29333\include\xmemory
;	COMDAT ??$_Destroy_range@V?$allocator@U?$pair@MJ@std@@@std@@@std@@YAXPAU?$pair@MJ@0@QAU10@AAV?$allocator@U?$pair@MJ@std@@@0@@Z
_TEXT	SEGMENT
__First$ = 8						; size = 4
__Last$ = 12						; size = 4
__Al$ = 16						; size = 4
??$_Destroy_range@V?$allocator@U?$pair@MJ@std@@@std@@@std@@YAXPAU?$pair@MJ@0@QAU10@AAV?$allocator@U?$pair@MJ@std@@@0@@Z PROC ; std::_Destroy_range<std::allocator<std::pair<float,long> > >, COMDAT

; 963  :     // note that this is an optimization for debug mode codegen; in release mode the BE removes all of this
; 964  :     using _Ty = typename _Alloc::value_type;
; 965  :     if _CONSTEXPR_IF (!conjunction_v<is_trivially_destructible<_Ty>, _Uses_default_destroy<_Alloc, _Ty*>>) {
; 966  :         for (; _First != _Last; ++_First) {
; 967  :             allocator_traits<_Alloc>::destroy(_Al, _Unfancy(_First));
; 968  :         }
; 969  :     }
; 970  : }

  00000	c2 00 00	 ret	 0
??$_Destroy_range@V?$allocator@U?$pair@MJ@std@@@std@@@std@@YAXPAU?$pair@MJ@0@QAU10@AAV?$allocator@U?$pair@MJ@std@@@0@@Z ENDP ; std::_Destroy_range<std::allocator<std::pair<float,long> > >
_TEXT	ENDS
; Function compile flags: /Ogtp
; File C:\Program Files (x86)\Microsoft Visual Studio\2019\Community\VC\Tools\MSVC\14.28.29333\include\xmemory
;	COMDAT ??$_Destroy_range@V?$allocator@UTPatchDrawStruct@CMapOutdoor@@@std@@@std@@YAXPAUTPatchDrawStruct@CMapOutdoor@@QAU12@AAV?$allocator@UTPatchDrawStruct@CMapOutdoor@@@0@@Z
_TEXT	SEGMENT
__First$ = 8						; size = 4
__Last$ = 12						; size = 4
__Al$ = 16						; size = 4
??$_Destroy_range@V?$allocator@UTPatchDrawStruct@CMapOutdoor@@@std@@@std@@YAXPAUTPatchDrawStruct@CMapOutdoor@@QAU12@AAV?$allocator@UTPatchDrawStruct@CMapOutdoor@@@0@@Z PROC ; std::_Destroy_range<std::allocator<CMapOutdoor::TPatchDrawStruct> >, COMDAT

; 963  :     // note that this is an optimization for debug mode codegen; in release mode the BE removes all of this
; 964  :     using _Ty = typename _Alloc::value_type;
; 965  :     if _CONSTEXPR_IF (!conjunction_v<is_trivially_destructible<_Ty>, _Uses_default_destroy<_Alloc, _Ty*>>) {
; 966  :         for (; _First != _Last; ++_First) {
; 967  :             allocator_traits<_Alloc>::destroy(_Al, _Unfancy(_First));
; 968  :         }
; 969  :     }
; 970  : }

  00000	c2 00 00	 ret	 0
??$_Destroy_range@V?$allocator@UTPatchDrawStruct@CMapOutdoor@@@std@@@std@@YAXPAUTPatchDrawStruct@CMapOutdoor@@QAU12@AAV?$allocator@UTPatchDrawStruct@CMapOutdoor@@@0@@Z ENDP ; std::_Destroy_range<std::allocator<CMapOutdoor::TPatchDrawStruct> >
_TEXT	ENDS
; Function compile flags: /Ogtp
; File C:\Program Files (x86)\Microsoft Visual Studio\2019\Community\VC\Tools\MSVC\14.28.29333\include\vector
; File C:\Program Files (x86)\Microsoft Visual Studio\2019\Community\VC\Tools\MSVC\14.28.29333\include\xmemory
; File C:\Program Files (x86)\Microsoft Visual Studio\2019\Community\VC\Tools\MSVC\14.28.29333\include\vector
; File C:\Program Files (x86)\Microsoft Visual Studio\2019\Community\VC\Tools\MSVC\14.28.29333\include\xmemory
; File C:\Program Files (x86)\Microsoft Visual Studio\2019\Community\VC\Tools\MSVC\14.28.29333\include\vector
; File C:\Program Files (x86)\Microsoft Visual Studio\2019\Community\VC\Tools\MSVC\14.28.29333\include\xmemory
; File C:\Program Files (x86)\Microsoft Visual Studio\2019\Community\VC\Tools\MSVC\14.28.29333\include\vector
;	COMDAT ??$_Emplace_reallocate@ABE@?$vector@EV?$allocator@E@std@@@std@@QAEPAEQAEABE@Z
_TEXT	SEGMENT
__Newsize$1$ = -8					; size = 4
tv400 = -4						; size = 4
__Whereoff$1$ = -4					; size = 4
__Whereptr$ = 8						; size = 4
_<_Val_0>$ = 12						; size = 4
??$_Emplace_reallocate@ABE@?$vector@EV?$allocator@E@std@@@std@@QAEPAEQAEABE@Z PROC ; std::vector<unsigned char,std::allocator<unsigned char> >::_Emplace_reallocate<unsigned char const &>, COMDAT
; _this$ = ecx

; 725  :     pointer _Emplace_reallocate(const pointer _Whereptr, _Valty&&... _Val) {

  00000	55		 push	 ebp
  00001	8b ec		 mov	 ebp, esp
  00003	83 ec 08	 sub	 esp, 8

; 726  :         // reallocate and insert by perfectly forwarding _Val at _Whereptr
; 727  :         _Alty& _Al        = _Getal();
; 728  :         auto& _My_data    = _Mypair._Myval2;
; 729  :         pointer& _Myfirst = _My_data._Myfirst;
; 730  :         pointer& _Mylast  = _My_data._Mylast;
; 731  : 
; 732  :         _STL_INTERNAL_CHECK(_Mylast == _My_data._Myend); // check that we have no unused capacity
; 733  : 
; 734  :         const auto _Whereoff = static_cast<size_type>(_Whereptr - _Myfirst);

  00006	8b 45 08	 mov	 eax, DWORD PTR __Whereptr$[ebp]
  00009	53		 push	 ebx
  0000a	56		 push	 esi
  0000b	8b f1		 mov	 esi, ecx
  0000d	57		 push	 edi
  0000e	8b 0e		 mov	 ecx, DWORD PTR [esi]
  00010	2b c1		 sub	 eax, ecx
  00012	89 45 fc	 mov	 DWORD PTR __Whereoff$1$[ebp], eax

; 735  :         const auto _Oldsize  = static_cast<size_type>(_Mylast - _Myfirst);

  00015	8b 46 04	 mov	 eax, DWORD PTR [esi+4]
  00018	2b c1		 sub	 eax, ecx

; 736  : 
; 737  :         if (_Oldsize == max_size()) {

  0001a	3d ff ff ff 7f	 cmp	 eax, 2147483647		; 7fffffffH
  0001f	0f 84 a6 00 00
	00		 je	 $LN34@Emplace_re

; 1494 :         return static_cast<size_type>(_My_data._Myend - _My_data._Myfirst);

  00025	8b 56 08	 mov	 edx, DWORD PTR [esi+8]

; 739  :         }
; 740  : 
; 741  :         const size_type _Newsize     = _Oldsize + 1;

  00028	8d 78 01	 lea	 edi, DWORD PTR [eax+1]

; 1494 :         return static_cast<size_type>(_My_data._Myend - _My_data._Myfirst);

  0002b	2b d1		 sub	 edx, ecx

; 739  :         }
; 740  : 
; 741  :         const size_type _Newsize     = _Oldsize + 1;

  0002d	89 7d f8	 mov	 DWORD PTR __Newsize$1$[ebp], edi

; 1620 :         if (_Oldcapacity > _Max - _Oldcapacity / 2) {

  00030	8b ca		 mov	 ecx, edx
  00032	b8 ff ff ff 7f	 mov	 eax, 2147483647		; 7fffffffH
  00037	d1 e9		 shr	 ecx, 1
  00039	2b c1		 sub	 eax, ecx
  0003b	3b d0		 cmp	 edx, eax
  0003d	76 07		 jbe	 SHORT $LN12@Emplace_re

; 1621 :             return _Max; // geometric growth would overflow

  0003f	bb ff ff ff 7f	 mov	 ebx, 2147483647		; 7fffffffH
  00044	eb 08		 jmp	 SHORT $LN13@Emplace_re
$LN12@Emplace_re:

; 1622 :         }
; 1623 : 
; 1624 :         const size_type _Geometric = _Oldcapacity + _Oldcapacity / 2;

  00046	8d 1c 11	 lea	 ebx, DWORD PTR [ecx+edx]

; 1625 : 
; 1626 :         if (_Geometric < _Newsize) {

  00049	3b df		 cmp	 ebx, edi
  0004b	0f 42 df	 cmovb	 ebx, edi
$LN13@Emplace_re:
; File C:\Program Files (x86)\Microsoft Visual Studio\2019\Community\VC\Tools\MSVC\14.28.29333\include\xmemory

; 814  :         return static_cast<_Ty*>(_Allocate<_New_alignof<_Ty>>(_Get_size_of_n<sizeof(_Ty)>(_Count)));

  0004e	53		 push	 ebx
  0004f	e8 00 00 00 00	 call	 ??$_Allocate@$07U_Default_allocate_traits@std@@$0A@@std@@YAPAXI@Z ; std::_Allocate<8,std::_Default_allocate_traits,0>
; File C:\Program Files (x86)\Microsoft Visual Studio\2019\Community\VC\Tools\MSVC\14.28.29333\include\vector

; 749  :         _Alty_traits::construct(_Al, _Unfancy(_Newvec + _Whereoff), _STD forward<_Valty>(_Val)...);

  00054	8b 4d 0c	 mov	 ecx, DWORD PTR _<_Val_0>$[ebp]
  00057	8b f8		 mov	 edi, eax
  00059	8b 45 fc	 mov	 eax, DWORD PTR __Whereoff$1$[ebp]
; File C:\Program Files (x86)\Microsoft Visual Studio\2019\Community\VC\Tools\MSVC\14.28.29333\include\xmemory

; 814  :         return static_cast<_Ty*>(_Allocate<_New_alignof<_Ty>>(_Get_size_of_n<sizeof(_Ty)>(_Count)));

  0005c	83 c4 04	 add	 esp, 4
; File C:\Program Files (x86)\Microsoft Visual Studio\2019\Community\VC\Tools\MSVC\14.28.29333\include\vector

; 749  :         _Alty_traits::construct(_Al, _Unfancy(_Newvec + _Whereoff), _STD forward<_Valty>(_Val)...);

  0005f	03 c7		 add	 eax, edi
  00061	89 45 fc	 mov	 DWORD PTR tv400[ebp], eax
  00064	8a 09		 mov	 cl, BYTE PTR [ecx]
  00066	88 08		 mov	 BYTE PTR [eax], cl

; 750  :         _Constructed_first = _Newvec + _Whereoff;
; 751  : 
; 752  :         if (_Whereptr == _Mylast) { // at back, provide strong guarantee

  00068	8b 56 04	 mov	 edx, DWORD PTR [esi+4]
  0006b	8b 45 08	 mov	 eax, DWORD PTR __Whereptr$[ebp]
  0006e	8b 0e		 mov	 ecx, DWORD PTR [esi]
  00070	3b c2		 cmp	 eax, edx
  00072	75 04		 jne	 SHORT $LN4@Emplace_re

; 1597 :         _Uninitialized_move(_First, _Last, _Dest, _Getal());

  00074	8b c7		 mov	 eax, edi

; 753  :             _Umove_if_noexcept(_Myfirst, _Mylast, _Newvec);
; 754  :         } else { // provide basic guarantee

  00076	eb 16		 jmp	 SHORT $LN5@Emplace_re
$LN4@Emplace_re:

; 1592 :         return _Uninitialized_move(_First, _Last, _Dest, _Getal());

  00078	56		 push	 esi
  00079	57		 push	 edi
  0007a	50		 push	 eax
  0007b	51		 push	 ecx
  0007c	e8 00 00 00 00	 call	 ??$_Uninitialized_move@PAEV?$allocator@E@std@@@std@@YAPAEQAE0PAEAAV?$allocator@E@0@@Z ; std::_Uninitialized_move<unsigned char *,std::allocator<unsigned char> >

; 755  :             _Umove(_Myfirst, _Whereptr, _Newvec);
; 756  :             _Constructed_first = _Newvec;
; 757  :             _Umove(_Whereptr, _Mylast, _Newvec + _Whereoff + 1);

  00081	8b 45 fc	 mov	 eax, DWORD PTR tv400[ebp]

; 1592 :         return _Uninitialized_move(_First, _Last, _Dest, _Getal());

  00084	83 c4 10	 add	 esp, 16			; 00000010H
  00087	8b 4d 08	 mov	 ecx, DWORD PTR __Whereptr$[ebp]

; 755  :             _Umove(_Myfirst, _Whereptr, _Newvec);
; 756  :             _Constructed_first = _Newvec;
; 757  :             _Umove(_Whereptr, _Mylast, _Newvec + _Whereoff + 1);

  0008a	40		 inc	 eax

; 1592 :         return _Uninitialized_move(_First, _Last, _Dest, _Getal());

  0008b	8b 56 04	 mov	 edx, DWORD PTR [esi+4]
$LN5@Emplace_re:

; 755  :             _Umove(_Myfirst, _Whereptr, _Newvec);
; 756  :             _Constructed_first = _Newvec;
; 757  :             _Umove(_Whereptr, _Mylast, _Newvec + _Whereoff + 1);

  0008e	56		 push	 esi
  0008f	50		 push	 eax
  00090	52		 push	 edx
  00091	51		 push	 ecx
  00092	e8 00 00 00 00	 call	 ??$_Uninitialized_move@PAEV?$allocator@E@std@@@std@@YAPAEQAE0PAEAAV?$allocator@E@0@@Z ; std::_Uninitialized_move<unsigned char *,std::allocator<unsigned char> >

; 1676 :         if (_Myfirst) { // destroy and deallocate old array

  00097	8b 0e		 mov	 ecx, DWORD PTR [esi]

; 755  :             _Umove(_Myfirst, _Whereptr, _Newvec);
; 756  :             _Constructed_first = _Newvec;
; 757  :             _Umove(_Whereptr, _Mylast, _Newvec + _Whereoff + 1);

  00099	83 c4 10	 add	 esp, 16			; 00000010H

; 1676 :         if (_Myfirst) { // destroy and deallocate old array

  0009c	85 c9		 test	 ecx, ecx
  0009e	74 0f		 je	 SHORT $LN28@Emplace_re

; 1677 :             _Destroy(_Myfirst, _Mylast);
; 1678 :             _Getal().deallocate(_Myfirst, static_cast<size_type>(_Myend - _Myfirst));

  000a0	8b 46 08	 mov	 eax, DWORD PTR [esi+8]
  000a3	2b c1		 sub	 eax, ecx
; File C:\Program Files (x86)\Microsoft Visual Studio\2019\Community\VC\Tools\MSVC\14.28.29333\include\xmemory

; 810  :         _Deallocate<_New_alignof<_Ty>>(_Ptr, sizeof(_Ty) * _Count);

  000a5	50		 push	 eax
  000a6	51		 push	 ecx
  000a7	e8 00 00 00 00	 call	 ??$_Deallocate@$07$0A@@std@@YAXPAXI@Z ; std::_Deallocate<8,0>
  000ac	83 c4 08	 add	 esp, 8
$LN28@Emplace_re:
; File C:\Program Files (x86)\Microsoft Visual Studio\2019\Community\VC\Tools\MSVC\14.28.29333\include\vector

; 1682 :         _Mylast  = _Newvec + _Newsize;

  000af	8b 4d f8	 mov	 ecx, DWORD PTR __Newsize$1$[ebp]

; 758  :         }
; 759  :         _CATCH_ALL
; 760  :         _Destroy(_Constructed_first, _Constructed_last);
; 761  :         _Al.deallocate(_Newvec, _Newcapacity);
; 762  :         _RERAISE;
; 763  :         _CATCH_END
; 764  : 
; 765  :         _Change_array(_Newvec, _Newsize, _Newcapacity);
; 766  :         return _Newvec + _Whereoff;

  000b2	8b 45 fc	 mov	 eax, DWORD PTR tv400[ebp]

; 1682 :         _Mylast  = _Newvec + _Newsize;

  000b5	03 cf		 add	 ecx, edi
  000b7	89 3e		 mov	 DWORD PTR [esi], edi
  000b9	89 4e 04	 mov	 DWORD PTR [esi+4], ecx

; 1683 :         _Myend   = _Newvec + _Newcapacity;

  000bc	8d 0c 1f	 lea	 ecx, DWORD PTR [edi+ebx]

; 758  :         }
; 759  :         _CATCH_ALL
; 760  :         _Destroy(_Constructed_first, _Constructed_last);
; 761  :         _Al.deallocate(_Newvec, _Newcapacity);
; 762  :         _RERAISE;
; 763  :         _CATCH_END
; 764  : 
; 765  :         _Change_array(_Newvec, _Newsize, _Newcapacity);
; 766  :         return _Newvec + _Whereoff;

  000bf	5f		 pop	 edi

; 1683 :         _Myend   = _Newvec + _Newcapacity;

  000c0	89 4e 08	 mov	 DWORD PTR [esi+8], ecx

; 758  :         }
; 759  :         _CATCH_ALL
; 760  :         _Destroy(_Constructed_first, _Constructed_last);
; 761  :         _Al.deallocate(_Newvec, _Newcapacity);
; 762  :         _RERAISE;
; 763  :         _CATCH_END
; 764  : 
; 765  :         _Change_array(_Newvec, _Newsize, _Newcapacity);
; 766  :         return _Newvec + _Whereoff;

  000c3	5e		 pop	 esi
  000c4	5b		 pop	 ebx

; 767  :     }

  000c5	8b e5		 mov	 esp, ebp
  000c7	5d		 pop	 ebp
  000c8	c2 08 00	 ret	 8
$LN34@Emplace_re:

; 738  :             _Xlength();

  000cb	e8 00 00 00 00	 call	 ?_Xlength@?$vector@EV?$allocator@E@std@@@std@@CAXXZ ; std::vector<unsigned char,std::allocator<unsigned char> >::_Xlength
$LN32@Emplace_re:
  000d0	cc		 int	 3
??$_Emplace_reallocate@ABE@?$vector@EV?$allocator@E@std@@@std@@QAEPAEQAEABE@Z ENDP ; std::vector<unsigned char,std::allocator<unsigned char> >::_Emplace_reallocate<unsigned char const &>
_TEXT	ENDS
; Function compile flags: /Ogtp
; File C:\Program Files (x86)\Microsoft Visual Studio\2019\Community\VC\Tools\MSVC\14.28.29333\include\vector
; File C:\Program Files (x86)\Microsoft Visual Studio\2019\Community\VC\Tools\MSVC\14.28.29333\include\xmemory
; File C:\Program Files (x86)\Microsoft Visual Studio\2019\Community\VC\Tools\MSVC\14.28.29333\include\vector
; File C:\Program Files (x86)\Microsoft Visual Studio\2019\Community\VC\Tools\MSVC\14.28.29333\include\xmemory
; File C:\Program Files (x86)\Microsoft Visual Studio\2019\Community\VC\Tools\MSVC\14.28.29333\include\vector
; File C:\Program Files (x86)\Microsoft Visual Studio\2019\Community\VC\Tools\MSVC\14.28.29333\include\xmemory
; File C:\Program Files (x86)\Microsoft Visual Studio\2019\Community\VC\Tools\MSVC\14.28.29333\include\vector
; File C:\Program Files (x86)\Microsoft Visual Studio\2019\Community\VC\Tools\MSVC\14.28.29333\include\xmemory
; File C:\Program Files (x86)\Microsoft Visual Studio\2019\Community\VC\Tools\MSVC\14.28.29333\include\vector
; File C:\Program Files (x86)\Microsoft Visual Studio\2019\Community\VC\Tools\MSVC\14.28.29333\include\xmemory
; File C:\Program Files (x86)\Microsoft Visual Studio\2019\Community\VC\Tools\MSVC\14.28.29333\include\vector
; File C:\Program Files (x86)\Microsoft Visual Studio\2019\Community\VC\Tools\MSVC\14.28.29333\include\xmemory
; File C:\Program Files (x86)\Microsoft Visual Studio\2019\Community\VC\Tools\MSVC\14.28.29333\include\vector
;	COMDAT ??$_Emplace_reallocate@U?$pair@MJ@std@@@?$vector@U?$pair@MJ@std@@V?$allocator@U?$pair@MJ@std@@@2@@std@@QAEPAU?$pair@MJ@1@QAU21@$$QAU21@@Z
_TEXT	SEGMENT
tv434 = -12						; size = 4
__Newsize$1$ = -8					; size = 4
tv433 = -4						; size = 4
__Whereptr$ = 8						; size = 4
_<_Val_0>$ = 12						; size = 4
??$_Emplace_reallocate@U?$pair@MJ@std@@@?$vector@U?$pair@MJ@std@@V?$allocator@U?$pair@MJ@std@@@2@@std@@QAEPAU?$pair@MJ@1@QAU21@$$QAU21@@Z PROC ; std::vector<std::pair<float,long>,std::allocator<std::pair<float,long> > >::_Emplace_reallocate<std::pair<float,long> >, COMDAT
; _this$ = ecx

; 725  :     pointer _Emplace_reallocate(const pointer _Whereptr, _Valty&&... _Val) {

  00000	55		 push	 ebp
  00001	8b ec		 mov	 ebp, esp
  00003	83 ec 0c	 sub	 esp, 12			; 0000000cH
  00006	53		 push	 ebx

; 726  :         // reallocate and insert by perfectly forwarding _Val at _Whereptr
; 727  :         _Alty& _Al        = _Getal();
; 728  :         auto& _My_data    = _Mypair._Myval2;
; 729  :         pointer& _Myfirst = _My_data._Myfirst;
; 730  :         pointer& _Mylast  = _My_data._Mylast;
; 731  : 
; 732  :         _STL_INTERNAL_CHECK(_Mylast == _My_data._Myend); // check that we have no unused capacity
; 733  : 
; 734  :         const auto _Whereoff = static_cast<size_type>(_Whereptr - _Myfirst);

  00007	8b 5d 08	 mov	 ebx, DWORD PTR __Whereptr$[ebp]
  0000a	56		 push	 esi
  0000b	8b f1		 mov	 esi, ecx
  0000d	57		 push	 edi
  0000e	8b 16		 mov	 edx, DWORD PTR [esi]
  00010	2b da		 sub	 ebx, edx

; 735  :         const auto _Oldsize  = static_cast<size_type>(_Mylast - _Myfirst);

  00012	8b 46 04	 mov	 eax, DWORD PTR [esi+4]
  00015	2b c2		 sub	 eax, edx
  00017	c1 fb 03	 sar	 ebx, 3
  0001a	c1 f8 03	 sar	 eax, 3

; 736  : 
; 737  :         if (_Oldsize == max_size()) {

  0001d	3d ff ff ff 1f	 cmp	 eax, 536870911		; 1fffffffH
  00022	0f 84 ca 00 00
	00		 je	 $LN39@Emplace_re

; 1494 :         return static_cast<size_type>(_My_data._Myend - _My_data._Myfirst);

  00028	8b 4e 08	 mov	 ecx, DWORD PTR [esi+8]

; 739  :         }
; 740  : 
; 741  :         const size_type _Newsize     = _Oldsize + 1;

  0002b	8d 78 01	 lea	 edi, DWORD PTR [eax+1]

; 1494 :         return static_cast<size_type>(_My_data._Myend - _My_data._Myfirst);

  0002e	2b ca		 sub	 ecx, edx

; 739  :         }
; 740  : 
; 741  :         const size_type _Newsize     = _Oldsize + 1;

  00030	89 7d f8	 mov	 DWORD PTR __Newsize$1$[ebp], edi

; 1494 :         return static_cast<size_type>(_My_data._Myend - _My_data._Myfirst);

  00033	c1 f9 03	 sar	 ecx, 3

; 1620 :         if (_Oldcapacity > _Max - _Oldcapacity / 2) {

  00036	b8 ff ff ff 1f	 mov	 eax, 536870911		; 1fffffffH
  0003b	8b d1		 mov	 edx, ecx
  0003d	d1 ea		 shr	 edx, 1
  0003f	2b c2		 sub	 eax, edx
  00041	3b c8		 cmp	 ecx, eax
  00043	76 40		 jbe	 SHORT $LN12@Emplace_re

; 1621 :             return _Max; // geometric growth would overflow

  00045	b9 ff ff ff 1f	 mov	 ecx, 536870911		; 1fffffffH
$LN20@Emplace_re:
; File C:\Program Files (x86)\Microsoft Visual Studio\2019\Community\VC\Tools\MSVC\14.28.29333\include\xmemory

; 65   :     return _Count * _Ty_size;

  0004a	8d 04 cd 00 00
	00 00		 lea	 eax, DWORD PTR [ecx*8]

; 814  :         return static_cast<_Ty*>(_Allocate<_New_alignof<_Ty>>(_Get_size_of_n<sizeof(_Ty)>(_Count)));

  00051	50		 push	 eax

; 65   :     return _Count * _Ty_size;

  00052	89 45 f4	 mov	 DWORD PTR tv434[ebp], eax

; 814  :         return static_cast<_Ty*>(_Allocate<_New_alignof<_Ty>>(_Get_size_of_n<sizeof(_Ty)>(_Count)));

  00055	e8 00 00 00 00	 call	 ??$_Allocate@$07U_Default_allocate_traits@std@@$0A@@std@@YAPAXI@Z ; std::_Allocate<8,std::_Default_allocate_traits,0>
; File C:\Program Files (x86)\Microsoft Visual Studio\2019\Community\VC\Tools\MSVC\14.28.29333\include\vector

; 749  :         _Alty_traits::construct(_Al, _Unfancy(_Newvec + _Whereoff), _STD forward<_Valty>(_Val)...);

  0005a	8b 4d 0c	 mov	 ecx, DWORD PTR _<_Val_0>$[ebp]
; File C:\Program Files (x86)\Microsoft Visual Studio\2019\Community\VC\Tools\MSVC\14.28.29333\include\xmemory

; 814  :         return static_cast<_Ty*>(_Allocate<_New_alignof<_Ty>>(_Get_size_of_n<sizeof(_Ty)>(_Count)));

  0005d	8b f8		 mov	 edi, eax
; File C:\Program Files (x86)\Microsoft Visual Studio\2019\Community\VC\Tools\MSVC\14.28.29333\include\vector

; 749  :         _Alty_traits::construct(_Al, _Unfancy(_Newvec + _Whereoff), _STD forward<_Valty>(_Val)...);

  0005f	8d 04 df	 lea	 eax, DWORD PTR [edi+ebx*8]
; File C:\Program Files (x86)\Microsoft Visual Studio\2019\Community\VC\Tools\MSVC\14.28.29333\include\xmemory

; 814  :         return static_cast<_Ty*>(_Allocate<_New_alignof<_Ty>>(_Get_size_of_n<sizeof(_Ty)>(_Count)));

  00062	83 c4 04	 add	 esp, 4
; File C:\Program Files (x86)\Microsoft Visual Studio\2019\Community\VC\Tools\MSVC\14.28.29333\include\vector

; 752  :         if (_Whereptr == _Mylast) { // at back, provide strong guarantee

  00065	8b 5d 08	 mov	 ebx, DWORD PTR __Whereptr$[ebp]
  00068	89 45 fc	 mov	 DWORD PTR tv433[ebp], eax
  0006b	8b 11		 mov	 edx, DWORD PTR [ecx]
  0006d	8b 49 04	 mov	 ecx, DWORD PTR [ecx+4]
  00070	89 10		 mov	 DWORD PTR [eax], edx
  00072	89 48 04	 mov	 DWORD PTR [eax+4], ecx
  00075	8b 56 04	 mov	 edx, DWORD PTR [esi+4]
  00078	8b 0e		 mov	 ecx, DWORD PTR [esi]
  0007a	3b da		 cmp	 ebx, edx
  0007c	75 1b		 jne	 SHORT $LN4@Emplace_re

; 753  :             _Umove_if_noexcept(_Myfirst, _Mylast, _Newvec);
; 754  :         } else { // provide basic guarantee

  0007e	8b 5d fc	 mov	 ebx, DWORD PTR tv433[ebp]

; 1597 :         _Uninitialized_move(_First, _Last, _Dest, _Getal());

  00081	8b c7		 mov	 eax, edi

; 753  :             _Umove_if_noexcept(_Myfirst, _Mylast, _Newvec);
; 754  :         } else { // provide basic guarantee

  00083	eb 2b		 jmp	 SHORT $LN5@Emplace_re
$LN12@Emplace_re:

; 1624 :         const size_type _Geometric = _Oldcapacity + _Oldcapacity / 2;

  00085	8d 04 0a	 lea	 eax, DWORD PTR [edx+ecx]
; File C:\Program Files (x86)\Microsoft Visual Studio\2019\Community\VC\Tools\MSVC\14.28.29333\include\xmemory

; 60   :         if (_Count > _Max_possible) {

  00088	8b cf		 mov	 ecx, edi
  0008a	3b c7		 cmp	 eax, edi
  0008c	0f 43 c8	 cmovae	 ecx, eax
  0008f	81 f9 ff ff ff
	1f		 cmp	 ecx, 536870911		; 1fffffffH
  00095	77 60		 ja	 SHORT $LN40@Emplace_re
  00097	eb b1		 jmp	 SHORT $LN20@Emplace_re
$LN4@Emplace_re:
; File C:\Program Files (x86)\Microsoft Visual Studio\2019\Community\VC\Tools\MSVC\14.28.29333\include\vector

; 1592 :         return _Uninitialized_move(_First, _Last, _Dest, _Getal());

  00099	56		 push	 esi
  0009a	57		 push	 edi
  0009b	53		 push	 ebx
  0009c	51		 push	 ecx
  0009d	e8 00 00 00 00	 call	 ??$_Uninitialized_move@PAU?$pair@MJ@std@@V?$allocator@U?$pair@MJ@std@@@2@@std@@YAPAU?$pair@MJ@0@QAU10@0PAU10@AAV?$allocator@U?$pair@MJ@std@@@0@@Z ; std::_Uninitialized_move<std::pair<float,long> *,std::allocator<std::pair<float,long> > >
  000a2	8b 56 04	 mov	 edx, DWORD PTR [esi+4]
  000a5	8b cb		 mov	 ecx, ebx

; 755  :             _Umove(_Myfirst, _Whereptr, _Newvec);
; 756  :             _Constructed_first = _Newvec;
; 757  :             _Umove(_Whereptr, _Mylast, _Newvec + _Whereoff + 1);

  000a7	8b 5d fc	 mov	 ebx, DWORD PTR tv433[ebp]

; 1592 :         return _Uninitialized_move(_First, _Last, _Dest, _Getal());

  000aa	83 c4 10	 add	 esp, 16			; 00000010H

; 755  :             _Umove(_Myfirst, _Whereptr, _Newvec);
; 756  :             _Constructed_first = _Newvec;
; 757  :             _Umove(_Whereptr, _Mylast, _Newvec + _Whereoff + 1);

  000ad	8d 43 08	 lea	 eax, DWORD PTR [ebx+8]
$LN5@Emplace_re:
  000b0	56		 push	 esi
  000b1	50		 push	 eax
  000b2	52		 push	 edx
  000b3	51		 push	 ecx
  000b4	e8 00 00 00 00	 call	 ??$_Uninitialized_move@PAU?$pair@MJ@std@@V?$allocator@U?$pair@MJ@std@@@2@@std@@YAPAU?$pair@MJ@0@QAU10@0PAU10@AAV?$allocator@U?$pair@MJ@std@@@0@@Z ; std::_Uninitialized_move<std::pair<float,long> *,std::allocator<std::pair<float,long> > >

; 1676 :         if (_Myfirst) { // destroy and deallocate old array

  000b9	8b 0e		 mov	 ecx, DWORD PTR [esi]

; 755  :             _Umove(_Myfirst, _Whereptr, _Newvec);
; 756  :             _Constructed_first = _Newvec;
; 757  :             _Umove(_Whereptr, _Mylast, _Newvec + _Whereoff + 1);

  000bb	83 c4 10	 add	 esp, 16			; 00000010H

; 1676 :         if (_Myfirst) { // destroy and deallocate old array

  000be	85 c9		 test	 ecx, ecx
  000c0	74 12		 je	 SHORT $LN33@Emplace_re

; 1677 :             _Destroy(_Myfirst, _Mylast);
; 1678 :             _Getal().deallocate(_Myfirst, static_cast<size_type>(_Myend - _Myfirst));

  000c2	8b 46 08	 mov	 eax, DWORD PTR [esi+8]
  000c5	2b c1		 sub	 eax, ecx
; File C:\Program Files (x86)\Microsoft Visual Studio\2019\Community\VC\Tools\MSVC\14.28.29333\include\xmemory

; 810  :         _Deallocate<_New_alignof<_Ty>>(_Ptr, sizeof(_Ty) * _Count);

  000c7	83 e0 f8	 and	 eax, -8			; fffffff8H
  000ca	50		 push	 eax
  000cb	51		 push	 ecx
  000cc	e8 00 00 00 00	 call	 ??$_Deallocate@$07$0A@@std@@YAXPAXI@Z ; std::_Deallocate<8,0>
  000d1	83 c4 08	 add	 esp, 8
$LN33@Emplace_re:
; File C:\Program Files (x86)\Microsoft Visual Studio\2019\Community\VC\Tools\MSVC\14.28.29333\include\vector

; 1682 :         _Mylast  = _Newvec + _Newsize;

  000d4	8b 45 f8	 mov	 eax, DWORD PTR __Newsize$1$[ebp]
  000d7	89 3e		 mov	 DWORD PTR [esi], edi
  000d9	8d 0c c7	 lea	 ecx, DWORD PTR [edi+eax*8]

; 758  :         }
; 759  :         _CATCH_ALL
; 760  :         _Destroy(_Constructed_first, _Constructed_last);
; 761  :         _Al.deallocate(_Newvec, _Newcapacity);
; 762  :         _RERAISE;
; 763  :         _CATCH_END
; 764  : 
; 765  :         _Change_array(_Newvec, _Newsize, _Newcapacity);
; 766  :         return _Newvec + _Whereoff;

  000dc	8b c3		 mov	 eax, ebx

; 1682 :         _Mylast  = _Newvec + _Newsize;

  000de	89 4e 04	 mov	 DWORD PTR [esi+4], ecx

; 1683 :         _Myend   = _Newvec + _Newcapacity;

  000e1	8b 4d f4	 mov	 ecx, DWORD PTR tv434[ebp]
  000e4	03 cf		 add	 ecx, edi

; 758  :         }
; 759  :         _CATCH_ALL
; 760  :         _Destroy(_Constructed_first, _Constructed_last);
; 761  :         _Al.deallocate(_Newvec, _Newcapacity);
; 762  :         _RERAISE;
; 763  :         _CATCH_END
; 764  : 
; 765  :         _Change_array(_Newvec, _Newsize, _Newcapacity);
; 766  :         return _Newvec + _Whereoff;

  000e6	5f		 pop	 edi

; 1683 :         _Myend   = _Newvec + _Newcapacity;

  000e7	89 4e 08	 mov	 DWORD PTR [esi+8], ecx

; 758  :         }
; 759  :         _CATCH_ALL
; 760  :         _Destroy(_Constructed_first, _Constructed_last);
; 761  :         _Al.deallocate(_Newvec, _Newcapacity);
; 762  :         _RERAISE;
; 763  :         _CATCH_END
; 764  : 
; 765  :         _Change_array(_Newvec, _Newsize, _Newcapacity);
; 766  :         return _Newvec + _Whereoff;

  000ea	5e		 pop	 esi
  000eb	5b		 pop	 ebx

; 767  :     }

  000ec	8b e5		 mov	 esp, ebp
  000ee	5d		 pop	 ebp
  000ef	c2 08 00	 ret	 8
$LN39@Emplace_re:

; 738  :             _Xlength();

  000f2	e8 00 00 00 00	 call	 ?_Xlength@?$vector@U?$pair@MJ@std@@V?$allocator@U?$pair@MJ@std@@@2@@std@@CAXXZ ; std::vector<std::pair<float,long>,std::allocator<std::pair<float,long> > >::_Xlength
$LN40@Emplace_re:
; File C:\Program Files (x86)\Microsoft Visual Studio\2019\Community\VC\Tools\MSVC\14.28.29333\include\xmemory

; 61   :             _Throw_bad_array_new_length(); // multiply overflow

  000f7	e8 00 00 00 00	 call	 ?_Throw_bad_array_new_length@std@@YAXXZ ; std::_Throw_bad_array_new_length
$LN37@Emplace_re:
  000fc	cc		 int	 3
??$_Emplace_reallocate@U?$pair@MJ@std@@@?$vector@U?$pair@MJ@std@@V?$allocator@U?$pair@MJ@std@@@2@@std@@QAEPAU?$pair@MJ@1@QAU21@$$QAU21@@Z ENDP ; std::vector<std::pair<float,long>,std::allocator<std::pair<float,long> > >::_Emplace_reallocate<std::pair<float,long> >
_TEXT	ENDS
; Function compile flags: /Ogtp
; File C:\Program Files (x86)\Microsoft Visual Studio\2019\Community\VC\Tools\MSVC\14.28.29333\include\vector
; File C:\Program Files (x86)\Microsoft Visual Studio\2019\Community\VC\Tools\MSVC\14.28.29333\include\xmemory
; File C:\Program Files (x86)\Microsoft Visual Studio\2019\Community\VC\Tools\MSVC\14.28.29333\include\vector
; File C:\Program Files (x86)\Microsoft Visual Studio\2019\Community\VC\Tools\MSVC\14.28.29333\include\xmemory
; File C:\Program Files (x86)\Microsoft Visual Studio\2019\Community\VC\Tools\MSVC\14.28.29333\include\vector
; File C:\Program Files (x86)\Microsoft Visual Studio\2019\Community\VC\Tools\MSVC\14.28.29333\include\xmemory
; File C:\Program Files (x86)\Microsoft Visual Studio\2019\Community\VC\Tools\MSVC\14.28.29333\include\vector
; File C:\Program Files (x86)\Microsoft Visual Studio\2019\Community\VC\Tools\MSVC\14.28.29333\include\xmemory
; File C:\Program Files (x86)\Microsoft Visual Studio\2019\Community\VC\Tools\MSVC\14.28.29333\include\vector
; File C:\Program Files (x86)\Microsoft Visual Studio\2019\Community\VC\Tools\MSVC\14.28.29333\include\xmemory
; File C:\Program Files (x86)\Microsoft Visual Studio\2019\Community\VC\Tools\MSVC\14.28.29333\include\vector
; File C:\Program Files (x86)\Microsoft Visual Studio\2019\Community\VC\Tools\MSVC\14.28.29333\include\xmemory
; File C:\Program Files (x86)\Microsoft Visual Studio\2019\Community\VC\Tools\MSVC\14.28.29333\include\vector
; File C:\Program Files (x86)\Microsoft Visual Studio\2019\Community\VC\Tools\MSVC\14.28.29333\include\xmemory
; File C:\Program Files (x86)\Microsoft Visual Studio\2019\Community\VC\Tools\MSVC\14.28.29333\include\vector
;	COMDAT ??$_Emplace_reallocate@ABUTPatchDrawStruct@CMapOutdoor@@@?$vector@UTPatchDrawStruct@CMapOutdoor@@V?$allocator@UTPatchDrawStruct@CMapOutdoor@@@std@@@std@@QAEPAUTPatchDrawStruct@CMapOutdoor@@QAU23@ABU23@@Z
_TEXT	SEGMENT
__Newcapacity$1$ = -12					; size = 4
__Newvec$1$ = -8					; size = 4
tv430 = -4						; size = 4
__Whereptr$ = 8						; size = 4
_<_Val_0>$ = 12						; size = 4
??$_Emplace_reallocate@ABUTPatchDrawStruct@CMapOutdoor@@@?$vector@UTPatchDrawStruct@CMapOutdoor@@V?$allocator@UTPatchDrawStruct@CMapOutdoor@@@std@@@std@@QAEPAUTPatchDrawStruct@CMapOutdoor@@QAU23@ABU23@@Z PROC ; std::vector<CMapOutdoor::TPatchDrawStruct,std::allocator<CMapOutdoor::TPatchDrawStruct> >::_Emplace_reallocate<CMapOutdoor::TPatchDrawStruct const &>, COMDAT
; _this$ = ecx

; 725  :     pointer _Emplace_reallocate(const pointer _Whereptr, _Valty&&... _Val) {

  00000	55		 push	 ebp
  00001	8b ec		 mov	 ebp, esp
  00003	83 ec 0c	 sub	 esp, 12			; 0000000cH
  00006	53		 push	 ebx

; 726  :         // reallocate and insert by perfectly forwarding _Val at _Whereptr
; 727  :         _Alty& _Al        = _Getal();
; 728  :         auto& _My_data    = _Mypair._Myval2;
; 729  :         pointer& _Myfirst = _My_data._Myfirst;
; 730  :         pointer& _Mylast  = _My_data._Mylast;
; 731  : 
; 732  :         _STL_INTERNAL_CHECK(_Mylast == _My_data._Myend); // check that we have no unused capacity
; 733  : 
; 734  :         const auto _Whereoff = static_cast<size_type>(_Whereptr - _Myfirst);

  00007	8b 5d 08	 mov	 ebx, DWORD PTR __Whereptr$[ebp]
  0000a	56		 push	 esi
  0000b	8b f1		 mov	 esi, ecx
  0000d	57		 push	 edi
  0000e	8b 16		 mov	 edx, DWORD PTR [esi]
  00010	2b da		 sub	 ebx, edx

; 735  :         const auto _Oldsize  = static_cast<size_type>(_Mylast - _Myfirst);

  00012	8b 46 04	 mov	 eax, DWORD PTR [esi+4]
  00015	2b c2		 sub	 eax, edx
  00017	c1 f8 04	 sar	 eax, 4

; 736  : 
; 737  :         if (_Oldsize == max_size()) {

  0001a	3d ff ff ff 0f	 cmp	 eax, 268435455		; 0fffffffH
  0001f	0f 84 c3 00 00
	00		 je	 $LN41@Emplace_re

; 1494 :         return static_cast<size_type>(_My_data._Myend - _My_data._Myfirst);

  00025	8b 4e 08	 mov	 ecx, DWORD PTR [esi+8]

; 739  :         }
; 740  : 
; 741  :         const size_type _Newsize     = _Oldsize + 1;

  00028	8d 78 01	 lea	 edi, DWORD PTR [eax+1]

; 1494 :         return static_cast<size_type>(_My_data._Myend - _My_data._Myfirst);

  0002b	2b ca		 sub	 ecx, edx

; 1620 :         if (_Oldcapacity > _Max - _Oldcapacity / 2) {

  0002d	b8 ff ff ff 0f	 mov	 eax, 268435455		; 0fffffffH

; 1494 :         return static_cast<size_type>(_My_data._Myend - _My_data._Myfirst);

  00032	c1 f9 04	 sar	 ecx, 4

; 1620 :         if (_Oldcapacity > _Max - _Oldcapacity / 2) {

  00035	8b d1		 mov	 edx, ecx
  00037	d1 ea		 shr	 edx, 1
  00039	2b c2		 sub	 eax, edx
  0003b	3b c8		 cmp	 ecx, eax
  0003d	76 3a		 jbe	 SHORT $LN12@Emplace_re

; 1621 :             return _Max; // geometric growth would overflow

  0003f	b9 ff ff ff 0f	 mov	 ecx, 268435455		; 0fffffffH
$LN20@Emplace_re:
; File C:\Program Files (x86)\Microsoft Visual Studio\2019\Community\VC\Tools\MSVC\14.28.29333\include\xmemory

; 65   :     return _Count * _Ty_size;

  00044	c1 e1 04	 shl	 ecx, 4

; 814  :         return static_cast<_Ty*>(_Allocate<_New_alignof<_Ty>>(_Get_size_of_n<sizeof(_Ty)>(_Count)));

  00047	51		 push	 ecx

; 65   :     return _Count * _Ty_size;

  00048	89 4d f4	 mov	 DWORD PTR __Newcapacity$1$[ebp], ecx

; 814  :         return static_cast<_Ty*>(_Allocate<_New_alignof<_Ty>>(_Get_size_of_n<sizeof(_Ty)>(_Count)));

  0004b	e8 00 00 00 00	 call	 ??$_Allocate@$07U_Default_allocate_traits@std@@$0A@@std@@YAPAXI@Z ; std::_Allocate<8,std::_Default_allocate_traits,0>

; 701  :         ::new (const_cast<void*>(static_cast<const volatile void*>(_Ptr))) _Objty(_STD forward<_Types>(_Args)...);

  00050	8b 4d 0c	 mov	 ecx, DWORD PTR _<_Val_0>$[ebp]
; File C:\Program Files (x86)\Microsoft Visual Studio\2019\Community\VC\Tools\MSVC\14.28.29333\include\vector

; 749  :         _Alty_traits::construct(_Al, _Unfancy(_Newvec + _Whereoff), _STD forward<_Valty>(_Val)...);

  00053	83 e3 f0	 and	 ebx, -16		; fffffff0H
; File C:\Program Files (x86)\Microsoft Visual Studio\2019\Community\VC\Tools\MSVC\14.28.29333\include\xmemory

; 814  :         return static_cast<_Ty*>(_Allocate<_New_alignof<_Ty>>(_Get_size_of_n<sizeof(_Ty)>(_Count)));

  00056	83 c4 04	 add	 esp, 4
  00059	89 45 f8	 mov	 DWORD PTR __Newvec$1$[ebp], eax
; File C:\Program Files (x86)\Microsoft Visual Studio\2019\Community\VC\Tools\MSVC\14.28.29333\include\vector

; 749  :         _Alty_traits::construct(_Al, _Unfancy(_Newvec + _Whereoff), _STD forward<_Valty>(_Val)...);

  0005c	8d 14 03	 lea	 edx, DWORD PTR [ebx+eax]

; 752  :         if (_Whereptr == _Mylast) { // at back, provide strong guarantee

  0005f	8b 5d 08	 mov	 ebx, DWORD PTR __Whereptr$[ebp]
; File C:\Program Files (x86)\Microsoft Visual Studio\2019\Community\VC\Tools\MSVC\14.28.29333\include\xmemory

; 701  :         ::new (const_cast<void*>(static_cast<const volatile void*>(_Ptr))) _Objty(_STD forward<_Types>(_Args)...);

  00062	0f 10 01	 movups	 xmm0, XMMWORD PTR [ecx]
; File C:\Program Files (x86)\Microsoft Visual Studio\2019\Community\VC\Tools\MSVC\14.28.29333\include\vector

; 749  :         _Alty_traits::construct(_Al, _Unfancy(_Newvec + _Whereoff), _STD forward<_Valty>(_Val)...);

  00065	89 55 fc	 mov	 DWORD PTR tv430[ebp], edx
; File C:\Program Files (x86)\Microsoft Visual Studio\2019\Community\VC\Tools\MSVC\14.28.29333\include\xmemory

; 701  :         ::new (const_cast<void*>(static_cast<const volatile void*>(_Ptr))) _Objty(_STD forward<_Types>(_Args)...);

  00068	0f 11 02	 movups	 XMMWORD PTR [edx], xmm0
; File C:\Program Files (x86)\Microsoft Visual Studio\2019\Community\VC\Tools\MSVC\14.28.29333\include\vector

; 752  :         if (_Whereptr == _Mylast) { // at back, provide strong guarantee

  0006b	8b 56 04	 mov	 edx, DWORD PTR [esi+4]
  0006e	8b 0e		 mov	 ecx, DWORD PTR [esi]
  00070	3b da		 cmp	 ebx, edx
  00072	75 19		 jne	 SHORT $LN4@Emplace_re

; 753  :             _Umove_if_noexcept(_Myfirst, _Mylast, _Newvec);
; 754  :         } else { // provide basic guarantee

  00074	8b 5d fc	 mov	 ebx, DWORD PTR tv430[ebp]
  00077	eb 2b		 jmp	 SHORT $LN5@Emplace_re
$LN12@Emplace_re:

; 1624 :         const size_type _Geometric = _Oldcapacity + _Oldcapacity / 2;

  00079	8d 04 0a	 lea	 eax, DWORD PTR [edx+ecx]
; File C:\Program Files (x86)\Microsoft Visual Studio\2019\Community\VC\Tools\MSVC\14.28.29333\include\xmemory

; 60   :         if (_Count > _Max_possible) {

  0007c	8b cf		 mov	 ecx, edi
  0007e	3b c7		 cmp	 eax, edi
  00080	0f 43 c8	 cmovae	 ecx, eax
  00083	81 f9 ff ff ff
	0f		 cmp	 ecx, 268435455		; 0fffffffH
  00089	77 62		 ja	 SHORT $LN42@Emplace_re
  0008b	eb b7		 jmp	 SHORT $LN20@Emplace_re
$LN4@Emplace_re:
; File C:\Program Files (x86)\Microsoft Visual Studio\2019\Community\VC\Tools\MSVC\14.28.29333\include\vector

; 1592 :         return _Uninitialized_move(_First, _Last, _Dest, _Getal());

  0008d	56		 push	 esi
  0008e	50		 push	 eax
  0008f	53		 push	 ebx
  00090	51		 push	 ecx
  00091	e8 00 00 00 00	 call	 ??$_Uninitialized_move@PAUTPatchDrawStruct@CMapOutdoor@@V?$allocator@UTPatchDrawStruct@CMapOutdoor@@@std@@@std@@YAPAUTPatchDrawStruct@CMapOutdoor@@QAU12@0PAU12@AAV?$allocator@UTPatchDrawStruct@CMapOutdoor@@@0@@Z ; std::_Uninitialized_move<CMapOutdoor::TPatchDrawStruct *,std::allocator<CMapOutdoor::TPatchDrawStruct> >
  00096	8b 56 04	 mov	 edx, DWORD PTR [esi+4]
  00099	8b cb		 mov	 ecx, ebx

; 755  :             _Umove(_Myfirst, _Whereptr, _Newvec);
; 756  :             _Constructed_first = _Newvec;
; 757  :             _Umove(_Whereptr, _Mylast, _Newvec + _Whereoff + 1);

  0009b	8b 5d fc	 mov	 ebx, DWORD PTR tv430[ebp]

; 1592 :         return _Uninitialized_move(_First, _Last, _Dest, _Getal());

  0009e	83 c4 10	 add	 esp, 16			; 00000010H

; 755  :             _Umove(_Myfirst, _Whereptr, _Newvec);
; 756  :             _Constructed_first = _Newvec;
; 757  :             _Umove(_Whereptr, _Mylast, _Newvec + _Whereoff + 1);

  000a1	8d 43 10	 lea	 eax, DWORD PTR [ebx+16]
$LN5@Emplace_re:
  000a4	56		 push	 esi
  000a5	50		 push	 eax
  000a6	52		 push	 edx
  000a7	51		 push	 ecx
  000a8	e8 00 00 00 00	 call	 ??$_Uninitialized_move@PAUTPatchDrawStruct@CMapOutdoor@@V?$allocator@UTPatchDrawStruct@CMapOutdoor@@@std@@@std@@YAPAUTPatchDrawStruct@CMapOutdoor@@QAU12@0PAU12@AAV?$allocator@UTPatchDrawStruct@CMapOutdoor@@@0@@Z ; std::_Uninitialized_move<CMapOutdoor::TPatchDrawStruct *,std::allocator<CMapOutdoor::TPatchDrawStruct> >

; 1676 :         if (_Myfirst) { // destroy and deallocate old array

  000ad	8b 0e		 mov	 ecx, DWORD PTR [esi]

; 755  :             _Umove(_Myfirst, _Whereptr, _Newvec);
; 756  :             _Constructed_first = _Newvec;
; 757  :             _Umove(_Whereptr, _Mylast, _Newvec + _Whereoff + 1);

  000af	83 c4 10	 add	 esp, 16			; 00000010H

; 1676 :         if (_Myfirst) { // destroy and deallocate old array

  000b2	85 c9		 test	 ecx, ecx
  000b4	74 12		 je	 SHORT $LN35@Emplace_re

; 1677 :             _Destroy(_Myfirst, _Mylast);
; 1678 :             _Getal().deallocate(_Myfirst, static_cast<size_type>(_Myend - _Myfirst));

  000b6	8b 46 08	 mov	 eax, DWORD PTR [esi+8]
  000b9	2b c1		 sub	 eax, ecx
; File C:\Program Files (x86)\Microsoft Visual Studio\2019\Community\VC\Tools\MSVC\14.28.29333\include\xmemory

; 810  :         _Deallocate<_New_alignof<_Ty>>(_Ptr, sizeof(_Ty) * _Count);

  000bb	83 e0 f0	 and	 eax, -16		; fffffff0H
  000be	50		 push	 eax
  000bf	51		 push	 ecx
  000c0	e8 00 00 00 00	 call	 ??$_Deallocate@$07$0A@@std@@YAXPAXI@Z ; std::_Deallocate<8,0>
  000c5	83 c4 08	 add	 esp, 8
$LN35@Emplace_re:
; File C:\Program Files (x86)\Microsoft Visual Studio\2019\Community\VC\Tools\MSVC\14.28.29333\include\vector

; 1681 :         _Myfirst = _Newvec;

  000c8	8b 45 f8	 mov	 eax, DWORD PTR __Newvec$1$[ebp]

; 1682 :         _Mylast  = _Newvec + _Newsize;
; 1683 :         _Myend   = _Newvec + _Newcapacity;

  000cb	8b 4d f4	 mov	 ecx, DWORD PTR __Newcapacity$1$[ebp]
  000ce	c1 e7 04	 shl	 edi, 4
  000d1	03 f8		 add	 edi, eax
  000d3	89 06		 mov	 DWORD PTR [esi], eax
  000d5	89 7e 04	 mov	 DWORD PTR [esi+4], edi
  000d8	03 c8		 add	 ecx, eax

; 758  :         }
; 759  :         _CATCH_ALL
; 760  :         _Destroy(_Constructed_first, _Constructed_last);
; 761  :         _Al.deallocate(_Newvec, _Newcapacity);
; 762  :         _RERAISE;
; 763  :         _CATCH_END
; 764  : 
; 765  :         _Change_array(_Newvec, _Newsize, _Newcapacity);
; 766  :         return _Newvec + _Whereoff;

  000da	5f		 pop	 edi

; 1683 :         _Myend   = _Newvec + _Newcapacity;

  000db	89 4e 08	 mov	 DWORD PTR [esi+8], ecx

; 758  :         }
; 759  :         _CATCH_ALL
; 760  :         _Destroy(_Constructed_first, _Constructed_last);
; 761  :         _Al.deallocate(_Newvec, _Newcapacity);
; 762  :         _RERAISE;
; 763  :         _CATCH_END
; 764  : 
; 765  :         _Change_array(_Newvec, _Newsize, _Newcapacity);
; 766  :         return _Newvec + _Whereoff;

  000de	8b c3		 mov	 eax, ebx
  000e0	5e		 pop	 esi
  000e1	5b		 pop	 ebx

; 767  :     }

  000e2	8b e5		 mov	 esp, ebp
  000e4	5d		 pop	 ebp
  000e5	c2 08 00	 ret	 8
$LN41@Emplace_re:

; 738  :             _Xlength();

  000e8	e8 00 00 00 00	 call	 ?_Xlength@?$vector@UTPatchDrawStruct@CMapOutdoor@@V?$allocator@UTPatchDrawStruct@CMapOutdoor@@@std@@@std@@CAXXZ ; std::vector<CMapOutdoor::TPatchDrawStruct,std::allocator<CMapOutdoor::TPatchDrawStruct> >::_Xlength
$LN42@Emplace_re:
; File C:\Program Files (x86)\Microsoft Visual Studio\2019\Community\VC\Tools\MSVC\14.28.29333\include\xmemory

; 61   :             _Throw_bad_array_new_length(); // multiply overflow

  000ed	e8 00 00 00 00	 call	 ?_Throw_bad_array_new_length@std@@YAXXZ ; std::_Throw_bad_array_new_length
$LN39@Emplace_re:
  000f2	cc		 int	 3
??$_Emplace_reallocate@ABUTPatchDrawStruct@CMapOutdoor@@@?$vector@UTPatchDrawStruct@CMapOutdoor@@V?$allocator@UTPatchDrawStruct@CMapOutdoor@@@std@@@std@@QAEPAUTPatchDrawStruct@CMapOutdoor@@QAU23@ABU23@@Z ENDP ; std::vector<CMapOutdoor::TPatchDrawStruct,std::allocator<CMapOutdoor::TPatchDrawStruct> >::_Emplace_reallocate<CMapOutdoor::TPatchDrawStruct const &>
_TEXT	ENDS
; Function compile flags: /Ogtp
; File C:\Program Files (x86)\Microsoft Visual Studio\2019\Community\VC\Tools\MSVC\14.28.29333\include\algorithm
; File C:\Program Files (x86)\Microsoft Visual Studio\2019\Community\VC\Tools\MSVC\14.28.29333\include\xutility
; File C:\Program Files (x86)\Microsoft Visual Studio\2019\Community\VC\Tools\MSVC\14.28.29333\include\algorithm
; File C:\Program Files (x86)\Microsoft Visual Studio\2019\Community\VC\Tools\MSVC\14.28.29333\include\xutility
; File C:\Program Files (x86)\Microsoft Visual Studio\2019\Community\VC\Tools\MSVC\14.28.29333\include\algorithm
;	COMDAT ??$stable_sort@V?$_Vector_iterator@V?$_Vector_val@U?$_Simple_types@UTPatchDrawStruct@CMapOutdoor@@@std@@@std@@@std@@UFSortPatchDrawStructWithTerrainNum@CMapOutdoor@@@std@@YAXV?$_Vector_iterator@V?$_Vector_val@U?$_Simple_types@UTPatchDrawStruct@CMapOutdoor@@@std@@@std@@@0@0UFSortPatchDrawStructWithTerrainNum@CMapOutdoor@@@Z
_TEXT	SEGMENT
__Raw$2 = -4128						; size = 8
$T3 = -4124						; size = 1
$T4 = -4124						; size = 1
__Temp_buf$ = -4120					; size = 4104
__$ArrayPad$ = -16					; size = 4
__$EHRec$ = -12						; size = 12
__First$ = 8						; size = 4
__Last$ = 12						; size = 4
__Pred$ = 16						; size = 1
??$stable_sort@V?$_Vector_iterator@V?$_Vector_val@U?$_Simple_types@UTPatchDrawStruct@CMapOutdoor@@@std@@@std@@@std@@UFSortPatchDrawStructWithTerrainNum@CMapOutdoor@@@std@@YAXV?$_Vector_iterator@V?$_Vector_val@U?$_Simple_types@UTPatchDrawStruct@CMapOutdoor@@@std@@@std@@@0@0UFSortPatchDrawStructWithTerrainNum@CMapOutdoor@@@Z PROC ; std::stable_sort<std::_Vector_iterator<std::_Vector_val<std::_Simple_types<CMapOutdoor::TPatchDrawStruct> > >,CMapOutdoor::FSortPatchDrawStructWithTerrainNum>, COMDAT

; 7974 : void stable_sort(const _BidIt _First, const _BidIt _Last, _Pr _Pred) {

  00000	55		 push	 ebp
  00001	8b ec		 mov	 ebp, esp
  00003	6a ff		 push	 -1
  00005	68 00 00 00 00	 push	 __ehhandler$??$stable_sort@V?$_Vector_iterator@V?$_Vector_val@U?$_Simple_types@UTPatchDrawStruct@CMapOutdoor@@@std@@@std@@@std@@UFSortPatchDrawStructWithTerrainNum@CMapOutdoor@@@std@@YAXV?$_Vector_iterator@V?$_Vector_val@U?$_Simple_types@UTPatchDrawStruct@CMapOutdoor@@@std@@@std@@@0@0UFSortPatchDrawStructWithTerrainNum@CMapOutdoor@@@Z
  0000a	64 a1 00 00 00
	00		 mov	 eax, DWORD PTR fs:0
  00010	50		 push	 eax
  00011	b8 14 10 00 00	 mov	 eax, 4116		; 00001014H
  00016	e8 00 00 00 00	 call	 __chkstk
  0001b	a1 00 00 00 00	 mov	 eax, DWORD PTR ___security_cookie
  00020	33 c5		 xor	 eax, ebp
  00022	89 45 f0	 mov	 DWORD PTR __$ArrayPad$[ebp], eax
  00025	53		 push	 ebx
  00026	56		 push	 esi
  00027	57		 push	 edi
  00028	50		 push	 eax
  00029	8d 45 f4	 lea	 eax, DWORD PTR __$EHRec$[ebp]
  0002c	64 a3 00 00 00
	00		 mov	 DWORD PTR fs:0, eax

; 7978 :     const auto _ULast  = _Get_unwrapped(_Last);

  00032	8b 5d 0c	 mov	 ebx, DWORD PTR __Last$[ebp]
; File C:\Program Files (x86)\Microsoft Visual Studio\2019\Community\VC\Tools\MSVC\14.28.29333\include\xutility

; 1794 :         return _Last - _First; // assume the iterator will do debug checking

  00035	8b f3		 mov	 esi, ebx
; File C:\Program Files (x86)\Microsoft Visual Studio\2019\Community\VC\Tools\MSVC\14.28.29333\include\algorithm

; 7977 :     const auto _UFirst = _Get_unwrapped(_First);

  00037	8b 7d 08	 mov	 edi, DWORD PTR __First$[ebp]
; File C:\Program Files (x86)\Microsoft Visual Studio\2019\Community\VC\Tools\MSVC\14.28.29333\include\xutility

; 1794 :         return _Last - _First; // assume the iterator will do debug checking

  0003a	2b f7		 sub	 esi, edi
  0003c	c1 fe 04	 sar	 esi, 4
; File C:\Program Files (x86)\Microsoft Visual Studio\2019\Community\VC\Tools\MSVC\14.28.29333\include\algorithm

; 7980 :     if (_Count <= _ISORT_MAX) {

  0003f	83 fe 20	 cmp	 esi, 32			; 00000020H
  00042	7f 15		 jg	 SHORT $LN2@stable_sor

; 7981 :         _Insertion_sort_unchecked(_UFirst, _ULast, _Pass_fn(_Pred));

  00044	ff b5 e4 ef ff
	ff		 push	 DWORD PTR $T4[ebp]
  0004a	53		 push	 ebx
  0004b	57		 push	 edi
  0004c	e8 00 00 00 00	 call	 ??$_Insertion_sort_unchecked@PAUTPatchDrawStruct@CMapOutdoor@@UFSortPatchDrawStructWithTerrainNum@2@@std@@YAPAUTPatchDrawStruct@CMapOutdoor@@QAU12@0UFSortPatchDrawStructWithTerrainNum@2@@Z ; std::_Insertion_sort_unchecked<CMapOutdoor::TPatchDrawStruct *,CMapOutdoor::FSortPatchDrawStructWithTerrainNum>
  00051	83 c4 0c	 add	 esp, 12			; 0000000cH

; 7982 :         return;

  00054	e9 9c 00 00 00	 jmp	 $LN16@stable_sor
$LN2@stable_sor:

; 7983 :     }
; 7984 : 
; 7985 :     _Optimistic_temporary_buffer<_Iter_value_t<_BidIt>> _Temp_buf{_Count - _Count / 2};

  00059	8b c6		 mov	 eax, esi
  0005b	8b ce		 mov	 ecx, esi
  0005d	99		 cdq
  0005e	2b c2		 sub	 eax, edx
  00060	d1 f8		 sar	 eax, 1
  00062	2b c8		 sub	 ecx, eax

; 49   :     return static_cast<ptrdiff_t>((_STD min)(static_cast<_CT>(PTRDIFF_MAX), static_cast<_CT>(_Value)));

  00064	b8 ff ff ff 7f	 mov	 eax, 2147483647		; 7fffffffH
  00069	3b c8		 cmp	 ecx, eax
  0006b	0f 4c c1	 cmovl	 eax, ecx

; 62   :         if (static_cast<size_t>(_Requested_size) <= _Optimistic_count) { // unconditionally engage stack space

  0006e	81 f9 00 01 00
	00		 cmp	 ecx, 256		; 00000100H
  00074	76 39		 jbe	 SHORT $LN19@stable_sor

; 63   :             _Data     = reinterpret_cast<_Ty*>(&_Stack_space[0]);
; 64   :             _Capacity = static_cast<ptrdiff_t>(_Requested_size); // in bounds due to if condition
; 65   :             return;
; 66   :         }
; 67   : 
; 68   :         const pair<_Ty*, ptrdiff_t> _Raw = _Get_temporary_buffer<_Ty>(_Attempt);

  00076	50		 push	 eax
  00077	8d 85 e0 ef ff
	ff		 lea	 eax, DWORD PTR __Raw$2[ebp]
  0007d	50		 push	 eax
  0007e	e8 00 00 00 00	 call	 ??$_Get_temporary_buffer@UTPatchDrawStruct@CMapOutdoor@@@std@@YA?AU?$pair@PAUTPatchDrawStruct@CMapOutdoor@@H@0@H@Z ; std::_Get_temporary_buffer<CMapOutdoor::TPatchDrawStruct>

; 69   :         if (static_cast<size_t>(_Raw.second) > _Optimistic_count) { // engage heap space

  00083	8b 8d e4 ef ff
	ff		 mov	 ecx, DWORD PTR __Raw$2[ebp+4]
  00089	83 c4 08	 add	 esp, 8
  0008c	81 f9 00 01 00
	00		 cmp	 ecx, 256		; 00000100H
  00092	76 08		 jbe	 SHORT $LN9@stable_sor

; 70   :             _Data     = _Raw.first;

  00094	8b 85 e0 ef ff
	ff		 mov	 eax, DWORD PTR __Raw$2[ebp]

; 71   :             _Capacity = _Raw.second;
; 72   :             return;

  0009a	eb 19		 jmp	 SHORT $LN20@stable_sor
$LN9@stable_sor:

; 73   :         }
; 74   : 
; 75   :         // less heap space than stack space, give up and use stack instead
; 76   :         _Return_temporary_buffer(_Raw.first);

  0009c	ff b5 e0 ef ff
	ff		 push	 DWORD PTR __Raw$2[ebp]
  000a2	e8 00 00 00 00	 call	 ??$_Return_temporary_buffer@UTPatchDrawStruct@CMapOutdoor@@@std@@YAXQAUTPatchDrawStruct@CMapOutdoor@@@Z ; std::_Return_temporary_buffer<CMapOutdoor::TPatchDrawStruct>
  000a7	83 c4 04	 add	 esp, 4

; 77   :         _Data     = reinterpret_cast<_Ty*>(&_Stack_space[0]);
; 78   :         _Capacity = _Optimistic_count;

  000aa	b9 00 01 00 00	 mov	 ecx, 256		; 00000100H
$LN19@stable_sor:

; 7983 :     }
; 7984 : 
; 7985 :     _Optimistic_temporary_buffer<_Iter_value_t<_BidIt>> _Temp_buf{_Count - _Count / 2};

  000af	8d 85 f0 ef ff
	ff		 lea	 eax, DWORD PTR __Temp_buf$[ebp+8]
$LN20@stable_sor:
  000b5	89 85 e8 ef ff
	ff		 mov	 DWORD PTR __Temp_buf$[ebp], eax
  000bb	89 8d ec ef ff
	ff		 mov	 DWORD PTR __Temp_buf$[ebp+4], ecx

; 7986 :     _Stable_sort_unchecked(_UFirst, _ULast, _Count, _Temp_buf._Data, _Temp_buf._Capacity, _Pass_fn(_Pred));

  000c1	ff b5 e4 ef ff
	ff		 push	 DWORD PTR $T3[ebp]
  000c7	c7 45 fc 00 00
	00 00		 mov	 DWORD PTR __$EHRec$[ebp+8], 0
  000ce	51		 push	 ecx
  000cf	50		 push	 eax
  000d0	56		 push	 esi
  000d1	53		 push	 ebx
  000d2	57		 push	 edi
  000d3	e8 00 00 00 00	 call	 ??$_Stable_sort_unchecked@PAUTPatchDrawStruct@CMapOutdoor@@UFSortPatchDrawStructWithTerrainNum@2@@std@@YAXQAUTPatchDrawStruct@CMapOutdoor@@0H0HUFSortPatchDrawStructWithTerrainNum@2@@Z ; std::_Stable_sort_unchecked<CMapOutdoor::TPatchDrawStruct *,CMapOutdoor::FSortPatchDrawStructWithTerrainNum>
  000d8	83 c4 18	 add	 esp, 24			; 00000018H

; 85   :         if (static_cast<size_t>(_Capacity) > _Optimistic_count) {

  000db	81 bd ec ef ff
	ff 00 01 00 00	 cmp	 DWORD PTR __Temp_buf$[ebp+4], 256 ; 00000100H
  000e5	76 0e		 jbe	 SHORT $LN16@stable_sor

; 86   :             _Return_temporary_buffer(_Data);

  000e7	ff b5 e8 ef ff
	ff		 push	 DWORD PTR __Temp_buf$[ebp]
  000ed	e8 00 00 00 00	 call	 ??$_Return_temporary_buffer@UTPatchDrawStruct@CMapOutdoor@@@std@@YAXQAUTPatchDrawStruct@CMapOutdoor@@@Z ; std::_Return_temporary_buffer<CMapOutdoor::TPatchDrawStruct>
  000f2	83 c4 04	 add	 esp, 4
$LN16@stable_sor:

; 7987 : }

  000f5	8b 4d f4	 mov	 ecx, DWORD PTR __$EHRec$[ebp]
  000f8	64 89 0d 00 00
	00 00		 mov	 DWORD PTR fs:0, ecx
  000ff	59		 pop	 ecx
  00100	5f		 pop	 edi
  00101	5e		 pop	 esi
  00102	5b		 pop	 ebx
  00103	8b 4d f0	 mov	 ecx, DWORD PTR __$ArrayPad$[ebp]
  00106	33 cd		 xor	 ecx, ebp
  00108	e8 00 00 00 00	 call	 @__security_check_cookie@4
  0010d	8b e5		 mov	 esp, ebp
  0010f	5d		 pop	 ebp
  00110	c3		 ret	 0
_TEXT	ENDS
;	COMDAT text$x
text$x	SEGMENT
__unwindfunclet$??$stable_sort@V?$_Vector_iterator@V?$_Vector_val@U?$_Simple_types@UTPatchDrawStruct@CMapOutdoor@@@std@@@std@@@std@@UFSortPatchDrawStructWithTerrainNum@CMapOutdoor@@@std@@YAXV?$_Vector_iterator@V?$_Vector_val@U?$_Simple_types@UTPatchDrawStruct@CMapOutdoor@@@std@@@std@@@0@0UFSortPatchDrawStructWithTerrainNum@CMapOutdoor@@@Z$0:
  00000	8d 8d e8 ef ff
	ff		 lea	 ecx, DWORD PTR __Temp_buf$[ebp]
  00006	e9 00 00 00 00	 jmp	 ??1?$_Optimistic_temporary_buffer@UTPatchDrawStruct@CMapOutdoor@@@std@@QAE@XZ ; std::_Optimistic_temporary_buffer<CMapOutdoor::TPatchDrawStruct>::~_Optimistic_temporary_buffer<CMapOutdoor::TPatchDrawStruct>
  0000b	cc		 int	 3
  0000c	cc		 int	 3
  0000d	cc		 int	 3
  0000e	cc		 int	 3
  0000f	cc		 int	 3
__ehhandler$??$stable_sort@V?$_Vector_iterator@V?$_Vector_val@U?$_Simple_types@UTPatchDrawStruct@CMapOutdoor@@@std@@@std@@@std@@UFSortPatchDrawStructWithTerrainNum@CMapOutdoor@@@std@@YAXV?$_Vector_iterator@V?$_Vector_val@U?$_Simple_types@UTPatchDrawStruct@CMapOutdoor@@@std@@@std@@@0@0UFSortPatchDrawStructWithTerrainNum@CMapOutdoor@@@Z:
  00010	90		 npad	 1
  00011	90		 npad	 1
  00012	8b 54 24 08	 mov	 edx, DWORD PTR [esp+8]
  00016	8d 42 0c	 lea	 eax, DWORD PTR [edx+12]
  00019	8b 8a dc ef ff
	ff		 mov	 ecx, DWORD PTR [edx-4132]
  0001f	33 c8		 xor	 ecx, eax
  00021	e8 00 00 00 00	 call	 @__security_check_cookie@4
  00026	8b 4a fc	 mov	 ecx, DWORD PTR [edx-4]
  00029	33 c8		 xor	 ecx, eax
  0002b	e8 00 00 00 00	 call	 @__security_check_cookie@4
  00030	b8 00 00 00 00	 mov	 eax, OFFSET __ehfuncinfo$??$stable_sort@V?$_Vector_iterator@V?$_Vector_val@U?$_Simple_types@UTPatchDrawStruct@CMapOutdoor@@@std@@@std@@@std@@UFSortPatchDrawStructWithTerrainNum@CMapOutdoor@@@std@@YAXV?$_Vector_iterator@V?$_Vector_val@U?$_Simple_types@UTPatchDrawStruct@CMapOutdoor@@@std@@@std@@@0@0UFSortPatchDrawStructWithTerrainNum@CMapOutdoor@@@Z
  00035	e9 00 00 00 00	 jmp	 ___CxxFrameHandler3
text$x	ENDS
??$stable_sort@V?$_Vector_iterator@V?$_Vector_val@U?$_Simple_types@UTPatchDrawStruct@CMapOutdoor@@@std@@@std@@@std@@UFSortPatchDrawStructWithTerrainNum@CMapOutdoor@@@std@@YAXV?$_Vector_iterator@V?$_Vector_val@U?$_Simple_types@UTPatchDrawStruct@CMapOutdoor@@@std@@@std@@@0@0UFSortPatchDrawStructWithTerrainNum@CMapOutdoor@@@Z ENDP ; std::stable_sort<std::_Vector_iterator<std::_Vector_val<std::_Simple_types<CMapOutdoor::TPatchDrawStruct> > >,CMapOutdoor::FSortPatchDrawStructWithTerrainNum>
; Function compile flags: /Ogtp
; File C:\Program Files (x86)\Microsoft Visual Studio\2019\Community\VC\Tools\MSVC\14.28.29333\include\vector
; File C:\Program Files (x86)\Microsoft Visual Studio\2019\Community\VC\Tools\MSVC\14.28.29333\include\xmemory
; File C:\Program Files (x86)\Microsoft Visual Studio\2019\Community\VC\Tools\MSVC\14.28.29333\include\vector
;	COMDAT ??__Fs_kVct_pkBlendThingInstSort@?1??RenderBlendArea@CMapOutdoor@@QAEXXZ@YAXXZ
text$yd	SEGMENT
??__Fs_kVct_pkBlendThingInstSort@?1??RenderBlendArea@CMapOutdoor@@QAEXXZ@YAXXZ PROC ; `CMapOutdoor::RenderBlendArea'::`2'::`dynamic atexit destructor for 's_kVct_pkBlendThingInstSort'', COMDAT

; 1694 :         if (_Myfirst) { // destroy and deallocate old array

  00000	8b 0d 00 00 00
	00		 mov	 ecx, DWORD PTR ?s_kVct_pkBlendThingInstSort@?1??RenderBlendArea@CMapOutdoor@@QAEXXZ@4V?$vector@PAVCGraphicThingInstance@@V?$allocator@PAVCGraphicThingInstance@@@std@@@std@@A
  00006	85 c9		 test	 ecx, ecx
  00008	74 32		 je	 SHORT $LN6@dynamic

; 1695 :             _Destroy(_Myfirst, _Mylast);
; 1696 :             _Getal().deallocate(_Myfirst, static_cast<size_type>(_Myend - _Myfirst));

  0000a	a1 08 00 00 00	 mov	 eax, DWORD PTR ?s_kVct_pkBlendThingInstSort@?1??RenderBlendArea@CMapOutdoor@@QAEXXZ@4V?$vector@PAVCGraphicThingInstance@@V?$allocator@PAVCGraphicThingInstance@@@std@@@std@@A+8
  0000f	2b c1		 sub	 eax, ecx
; File C:\Program Files (x86)\Microsoft Visual Studio\2019\Community\VC\Tools\MSVC\14.28.29333\include\xmemory

; 810  :         _Deallocate<_New_alignof<_Ty>>(_Ptr, sizeof(_Ty) * _Count);

  00011	83 e0 fc	 and	 eax, -4			; fffffffcH
  00014	50		 push	 eax
  00015	51		 push	 ecx
  00016	e8 00 00 00 00	 call	 ??$_Deallocate@$07$0A@@std@@YAXPAXI@Z ; std::_Deallocate<8,0>
  0001b	83 c4 08	 add	 esp, 8
; File C:\Program Files (x86)\Microsoft Visual Studio\2019\Community\VC\Tools\MSVC\14.28.29333\include\vector

; 1698 :             _Myfirst = pointer();

  0001e	c7 05 00 00 00
	00 00 00 00 00	 mov	 DWORD PTR ?s_kVct_pkBlendThingInstSort@?1??RenderBlendArea@CMapOutdoor@@QAEXXZ@4V?$vector@PAVCGraphicThingInstance@@V?$allocator@PAVCGraphicThingInstance@@@std@@@std@@A, 0

; 1699 :             _Mylast  = pointer();

  00028	c7 05 04 00 00
	00 00 00 00 00	 mov	 DWORD PTR ?s_kVct_pkBlendThingInstSort@?1??RenderBlendArea@CMapOutdoor@@QAEXXZ@4V?$vector@PAVCGraphicThingInstance@@V?$allocator@PAVCGraphicThingInstance@@@std@@@std@@A+4, 0

; 1700 :             _Myend   = pointer();

  00032	c7 05 08 00 00
	00 00 00 00 00	 mov	 DWORD PTR ?s_kVct_pkBlendThingInstSort@?1??RenderBlendArea@CMapOutdoor@@QAEXXZ@4V?$vector@PAVCGraphicThingInstance@@V?$allocator@PAVCGraphicThingInstance@@@std@@@std@@A+8, 0
$LN6@dynamic:
  0003c	c3		 ret	 0
??__Fs_kVct_pkBlendThingInstSort@?1??RenderBlendArea@CMapOutdoor@@QAEXXZ@YAXXZ ENDP ; `CMapOutdoor::RenderBlendArea'::`2'::`dynamic atexit destructor for 's_kVct_pkBlendThingInstSort''
text$yd	ENDS
; Function compile flags: /Ogtp
; File C:\Program Files (x86)\Microsoft Visual Studio\2019\Community\VC\Tools\MSVC\14.28.29333\include\vector
; File C:\Program Files (x86)\Microsoft Visual Studio\2019\Community\VC\Tools\MSVC\14.28.29333\include\xmemory
; File C:\Program Files (x86)\Microsoft Visual Studio\2019\Community\VC\Tools\MSVC\14.28.29333\include\vector
;	COMDAT ??__Fs_kVct_pkOpaqueThingInstSort@?CB@??RenderArea@CMapOutdoor@@QAEX_N@Z@YAXXZ
text$yd	SEGMENT
??__Fs_kVct_pkOpaqueThingInstSort@?CB@??RenderArea@CMapOutdoor@@QAEX_N@Z@YAXXZ PROC ; `CMapOutdoor::RenderArea'::`33'::`dynamic atexit destructor for 's_kVct_pkOpaqueThingInstSort'', COMDAT

; 1694 :         if (_Myfirst) { // destroy and deallocate old array

  00000	8b 0d 00 00 00
	00		 mov	 ecx, DWORD PTR ?s_kVct_pkOpaqueThingInstSort@?CB@??RenderArea@CMapOutdoor@@QAEX_N@Z@4V?$vector@PAVCGraphicThingInstance@@V?$allocator@PAVCGraphicThingInstance@@@std@@@std@@A
  00006	85 c9		 test	 ecx, ecx
  00008	74 32		 je	 SHORT $LN6@dynamic

; 1695 :             _Destroy(_Myfirst, _Mylast);
; 1696 :             _Getal().deallocate(_Myfirst, static_cast<size_type>(_Myend - _Myfirst));

  0000a	a1 08 00 00 00	 mov	 eax, DWORD PTR ?s_kVct_pkOpaqueThingInstSort@?CB@??RenderArea@CMapOutdoor@@QAEX_N@Z@4V?$vector@PAVCGraphicThingInstance@@V?$allocator@PAVCGraphicThingInstance@@@std@@@std@@A+8
  0000f	2b c1		 sub	 eax, ecx
; File C:\Program Files (x86)\Microsoft Visual Studio\2019\Community\VC\Tools\MSVC\14.28.29333\include\xmemory

; 810  :         _Deallocate<_New_alignof<_Ty>>(_Ptr, sizeof(_Ty) * _Count);

  00011	83 e0 fc	 and	 eax, -4			; fffffffcH
  00014	50		 push	 eax
  00015	51		 push	 ecx
  00016	e8 00 00 00 00	 call	 ??$_Deallocate@$07$0A@@std@@YAXPAXI@Z ; std::_Deallocate<8,0>
  0001b	83 c4 08	 add	 esp, 8
; File C:\Program Files (x86)\Microsoft Visual Studio\2019\Community\VC\Tools\MSVC\14.28.29333\include\vector

; 1698 :             _Myfirst = pointer();

  0001e	c7 05 00 00 00
	00 00 00 00 00	 mov	 DWORD PTR ?s_kVct_pkOpaqueThingInstSort@?CB@??RenderArea@CMapOutdoor@@QAEX_N@Z@4V?$vector@PAVCGraphicThingInstance@@V?$allocator@PAVCGraphicThingInstance@@@std@@@std@@A, 0

; 1699 :             _Mylast  = pointer();

  00028	c7 05 04 00 00
	00 00 00 00 00	 mov	 DWORD PTR ?s_kVct_pkOpaqueThingInstSort@?CB@??RenderArea@CMapOutdoor@@QAEX_N@Z@4V?$vector@PAVCGraphicThingInstance@@V?$allocator@PAVCGraphicThingInstance@@@std@@@std@@A+4, 0

; 1700 :             _Myend   = pointer();

  00032	c7 05 08 00 00
	00 00 00 00 00	 mov	 DWORD PTR ?s_kVct_pkOpaqueThingInstSort@?CB@??RenderArea@CMapOutdoor@@QAEX_N@Z@4V?$vector@PAVCGraphicThingInstance@@V?$allocator@PAVCGraphicThingInstance@@@std@@@std@@A+8, 0
$LN6@dynamic:
  0003c	c3		 ret	 0
??__Fs_kVct_pkOpaqueThingInstSort@?CB@??RenderArea@CMapOutdoor@@QAEX_N@Z@YAXXZ ENDP ; `CMapOutdoor::RenderArea'::`33'::`dynamic atexit destructor for 's_kVct_pkOpaqueThingInstSort''
text$yd	ENDS
; Function compile flags: /Ogtp
; File C:\Program Files (x86)\Microsoft Visual Studio\2019\Community\VC\Tools\MSVC\14.28.29333\include\vector
; File C:\Program Files (x86)\Microsoft Visual Studio\2019\Community\VC\Tools\MSVC\14.28.29333\include\xmemory
; File C:\Program Files (x86)\Microsoft Visual Studio\2019\Community\VC\Tools\MSVC\14.28.29333\include\vector
;	COMDAT ??__F?m_TerrainNumVector@FSortPatchDrawStructWithTerrainNum@CMapOutdoor@@2V?$vector@EV?$allocator@E@std@@@std@@A@@YAXXZ
text$yd	SEGMENT
??__F?m_TerrainNumVector@FSortPatchDrawStructWithTerrainNum@CMapOutdoor@@2V?$vector@EV?$allocator@E@std@@@std@@A@@YAXXZ PROC ; `dynamic atexit destructor for 'CMapOutdoor::FSortPatchDrawStructWithTerrainNum::m_TerrainNumVector'', COMDAT

; 1694 :         if (_Myfirst) { // destroy and deallocate old array

  00000	8b 0d 00 00 00
	00		 mov	 ecx, DWORD PTR ?m_TerrainNumVector@FSortPatchDrawStructWithTerrainNum@CMapOutdoor@@2V?$vector@EV?$allocator@E@std@@@std@@A
  00006	85 c9		 test	 ecx, ecx
  00008	74 2f		 je	 SHORT $LN6@m_TerrainN

; 1695 :             _Destroy(_Myfirst, _Mylast);
; 1696 :             _Getal().deallocate(_Myfirst, static_cast<size_type>(_Myend - _Myfirst));

  0000a	a1 08 00 00 00	 mov	 eax, DWORD PTR ?m_TerrainNumVector@FSortPatchDrawStructWithTerrainNum@CMapOutdoor@@2V?$vector@EV?$allocator@E@std@@@std@@A+8
  0000f	2b c1		 sub	 eax, ecx
; File C:\Program Files (x86)\Microsoft Visual Studio\2019\Community\VC\Tools\MSVC\14.28.29333\include\xmemory

; 810  :         _Deallocate<_New_alignof<_Ty>>(_Ptr, sizeof(_Ty) * _Count);

  00011	50		 push	 eax
  00012	51		 push	 ecx
  00013	e8 00 00 00 00	 call	 ??$_Deallocate@$07$0A@@std@@YAXPAXI@Z ; std::_Deallocate<8,0>
  00018	83 c4 08	 add	 esp, 8
; File C:\Program Files (x86)\Microsoft Visual Studio\2019\Community\VC\Tools\MSVC\14.28.29333\include\vector

; 1698 :             _Myfirst = pointer();

  0001b	c7 05 00 00 00
	00 00 00 00 00	 mov	 DWORD PTR ?m_TerrainNumVector@FSortPatchDrawStructWithTerrainNum@CMapOutdoor@@2V?$vector@EV?$allocator@E@std@@@std@@A, 0

; 1699 :             _Mylast  = pointer();

  00025	c7 05 04 00 00
	00 00 00 00 00	 mov	 DWORD PTR ?m_TerrainNumVector@FSortPatchDrawStructWithTerrainNum@CMapOutdoor@@2V?$vector@EV?$allocator@E@std@@@std@@A+4, 0

; 1700 :             _Myend   = pointer();

  0002f	c7 05 08 00 00
	00 00 00 00 00	 mov	 DWORD PTR ?m_TerrainNumVector@FSortPatchDrawStructWithTerrainNum@CMapOutdoor@@2V?$vector@EV?$allocator@E@std@@@std@@A+8, 0
$LN6@m_TerrainN:
  00039	c3		 ret	 0
??__F?m_TerrainNumVector@FSortPatchDrawStructWithTerrainNum@CMapOutdoor@@2V?$vector@EV?$allocator@E@std@@@std@@A@@YAXXZ ENDP ; `dynamic atexit destructor for 'CMapOutdoor::FSortPatchDrawStructWithTerrainNum::m_TerrainNumVector''
text$yd	ENDS
; Function compile flags: /Ogtp
; File D:\Metin2 Server Files\mainline\SRC_2014\Metin2Client\GameLib\MapOutdoorRender.cpp
;	COMDAT ??__E?m_TerrainNumVector@FSortPatchDrawStructWithTerrainNum@CMapOutdoor@@2V?$vector@EV?$allocator@E@std@@@std@@A@@YAXXZ
text$di	SEGMENT
??__E?m_TerrainNumVector@FSortPatchDrawStructWithTerrainNum@CMapOutdoor@@2V?$vector@EV?$allocator@E@std@@@std@@A@@YAXXZ PROC ; `dynamic initializer for 'CMapOutdoor::FSortPatchDrawStructWithTerrainNum::m_TerrainNumVector'', COMDAT

; 15   : CMapOutdoor::TTerrainNumVector CMapOutdoor::FSortPatchDrawStructWithTerrainNum::m_TerrainNumVector;

  00000	68 00 00 00 00	 push	 OFFSET ??__F?m_TerrainNumVector@FSortPatchDrawStructWithTerrainNum@CMapOutdoor@@2V?$vector@EV?$allocator@E@std@@@std@@A@@YAXXZ ; `dynamic atexit destructor for 'CMapOutdoor::FSortPatchDrawStructWithTerrainNum::m_TerrainNumVector''
  00005	e8 00 00 00 00	 call	 _atexit
  0000a	59		 pop	 ecx
  0000b	c3		 ret	 0
??__E?m_TerrainNumVector@FSortPatchDrawStructWithTerrainNum@CMapOutdoor@@2V?$vector@EV?$allocator@E@std@@@std@@A@@YAXXZ ENDP ; `dynamic initializer for 'CMapOutdoor::FSortPatchDrawStructWithTerrainNum::m_TerrainNumVector''
text$di	ENDS
; Function compile flags: /Ogtp
; File C:\Program Files (x86)\Microsoft Visual Studio\2019\Community\VC\Tools\MSVC\14.28.29333\include\vector
; File C:\Program Files (x86)\Microsoft Visual Studio\2019\Community\VC\Tools\MSVC\14.28.29333\include\xmemory
; File C:\Program Files (x86)\Microsoft Visual Studio\2019\Community\VC\Tools\MSVC\14.28.29333\include\vector
;	COMDAT ??__Fm_dwRenderedCRCWithNumberVector@@YAXXZ
text$yd	SEGMENT
??__Fm_dwRenderedCRCWithNumberVector@@YAXXZ PROC	; `dynamic atexit destructor for 'm_dwRenderedCRCWithNumberVector'', COMDAT

; 1694 :         if (_Myfirst) { // destroy and deallocate old array

  00000	8b 0d 00 00 00
	00		 mov	 ecx, DWORD PTR ?m_dwRenderedCRCWithNumberVector@@3V?$vector@USCRCWithNumber@CArea@@V?$allocator@USCRCWithNumber@CArea@@@std@@@std@@A
  00006	85 c9		 test	 ecx, ecx
  00008	74 32		 je	 SHORT $LN6@dynamic

; 1695 :             _Destroy(_Myfirst, _Mylast);
; 1696 :             _Getal().deallocate(_Myfirst, static_cast<size_type>(_Myend - _Myfirst));

  0000a	a1 08 00 00 00	 mov	 eax, DWORD PTR ?m_dwRenderedCRCWithNumberVector@@3V?$vector@USCRCWithNumber@CArea@@V?$allocator@USCRCWithNumber@CArea@@@std@@@std@@A+8
  0000f	2b c1		 sub	 eax, ecx
; File C:\Program Files (x86)\Microsoft Visual Studio\2019\Community\VC\Tools\MSVC\14.28.29333\include\xmemory

; 810  :         _Deallocate<_New_alignof<_Ty>>(_Ptr, sizeof(_Ty) * _Count);

  00011	83 e0 f8	 and	 eax, -8			; fffffff8H
  00014	50		 push	 eax
  00015	51		 push	 ecx
  00016	e8 00 00 00 00	 call	 ??$_Deallocate@$07$0A@@std@@YAXPAXI@Z ; std::_Deallocate<8,0>
  0001b	83 c4 08	 add	 esp, 8
; File C:\Program Files (x86)\Microsoft Visual Studio\2019\Community\VC\Tools\MSVC\14.28.29333\include\vector

; 1698 :             _Myfirst = pointer();

  0001e	c7 05 00 00 00
	00 00 00 00 00	 mov	 DWORD PTR ?m_dwRenderedCRCWithNumberVector@@3V?$vector@USCRCWithNumber@CArea@@V?$allocator@USCRCWithNumber@CArea@@@std@@@std@@A, 0

; 1699 :             _Mylast  = pointer();

  00028	c7 05 04 00 00
	00 00 00 00 00	 mov	 DWORD PTR ?m_dwRenderedCRCWithNumberVector@@3V?$vector@USCRCWithNumber@CArea@@V?$allocator@USCRCWithNumber@CArea@@@std@@@std@@A+4, 0

; 1700 :             _Myend   = pointer();

  00032	c7 05 08 00 00
	00 00 00 00 00	 mov	 DWORD PTR ?m_dwRenderedCRCWithNumberVector@@3V?$vector@USCRCWithNumber@CArea@@V?$allocator@USCRCWithNumber@CArea@@@std@@@std@@A+8, 0
$LN6@dynamic:
  0003c	c3		 ret	 0
??__Fm_dwRenderedCRCWithNumberVector@@YAXXZ ENDP	; `dynamic atexit destructor for 'm_dwRenderedCRCWithNumberVector''
text$yd	ENDS
; Function compile flags: /Ogtp
; File D:\Metin2 Server Files\mainline\SRC_2014\Metin2Client\GameLib\MapOutdoorRender.cpp
;	COMDAT ??__Em_dwRenderedCRCWithNumberVector@@YAXXZ
text$di	SEGMENT
??__Em_dwRenderedCRCWithNumberVector@@YAXXZ PROC	; `dynamic initializer for 'm_dwRenderedCRCWithNumberVector'', COMDAT

; 13   : CArea::TCRCWithNumberVector m_dwRenderedCRCWithNumberVector;

  00000	68 00 00 00 00	 push	 OFFSET ??__Fm_dwRenderedCRCWithNumberVector@@YAXXZ ; `dynamic atexit destructor for 'm_dwRenderedCRCWithNumberVector''
  00005	e8 00 00 00 00	 call	 _atexit
  0000a	59		 pop	 ecx
  0000b	c3		 ret	 0
??__Em_dwRenderedCRCWithNumberVector@@YAXXZ ENDP	; `dynamic initializer for 'm_dwRenderedCRCWithNumberVector''
text$di	ENDS
; Function compile flags: /Ogtp
; File D:\Metin2 Server Files\mainline\SRC_2014\Metin2Client\GameLib\MapOutdoorRender.cpp
; File C:\Program Files (x86)\Microsoft Visual Studio\2019\Community\VC\Tools\MSVC\14.28.29333\include\utility
; File D:\Metin2 Server Files\mainline\SRC_2014\Metin2Client\GameLib\MapOutdoorRender.cpp
; File C:\Program Files (x86)\Microsoft Visual Studio\2019\Community\VC\Tools\MSVC\14.28.29333\include\vector
; File C:\Program Files (x86)\Microsoft Visual Studio\2019\Community\VC\Tools\MSVC\14.28.29333\include\utility
; File C:\Program Files (x86)\Microsoft Visual Studio\2019\Community\VC\Tools\MSVC\14.28.29333\include\vector
; File D:\Metin2 Server Files\mainline\SRC_2014\Metin2Client\GameLib\MapOutdoorRender.cpp
; File C:\Program Files (x86)\Microsoft Visual Studio\2019\Community\VC\Tools\MSVC\14.28.29333\include\vector
; File D:\Metin2 Server Files\mainline\SRC_2014\Metin2Client\GameLib\MapOutdoorRender.cpp
;	COMDAT ?__RenderTerrain_AppendPatch@CMapOutdoor@@IAEXABUD3DXVECTOR3@@MJ@Z
_TEXT	SEGMENT
$T1 = -8						; size = 8
_c_rv3Center$ = 8					; size = 4
_fDistance$ = 12					; size = 4
_lPatchNum$ = 16					; size = 4
?__RenderTerrain_AppendPatch@CMapOutdoor@@IAEXABUD3DXVECTOR3@@MJ@Z PROC ; CMapOutdoor::__RenderTerrain_AppendPatch, COMDAT
; _this$ = ecx

; 121  : {

  00000	55		 push	 ebp
  00001	8b ec		 mov	 ebp, esp
  00003	83 ec 08	 sub	 esp, 8
  00006	56		 push	 esi

; 122  : 	assert(NULL!=m_pTerrainPatchProxyList && "CMapOutdoor::__RenderTerrain_AppendPatch");
; 123  : 	if (!m_pTerrainPatchProxyList[lPatchNum].isUsed())

  00007	8b 75 10	 mov	 esi, DWORD PTR _lPatchNum$[ebp]
  0000a	57		 push	 edi
  0000b	8b f9		 mov	 edi, ecx
  0000d	8d 14 f5 00 00
	00 00		 lea	 edx, DWORD PTR [esi*8]
  00014	2b d6		 sub	 edx, esi
  00016	8b 47 64	 mov	 eax, DWORD PTR [edi+100]
  00019	80 7c 90 04 00	 cmp	 BYTE PTR [eax+edx*4+4], 0
  0001e	8d 0c 90	 lea	 ecx, DWORD PTR [eax+edx*4]
  00021	74 41		 je	 SHORT $LN10@RenderTerr

; 124  : 		return;
; 125  : 
; 126  : 	m_pTerrainPatchProxyList[lPatchNum].SetCenterPosition(c_rv3Center);

  00023	ff 75 08	 push	 DWORD PTR _c_rv3Center$[ebp]
  00026	e8 00 00 00 00	 call	 ?SetCenterPosition@CTerrainPatchProxy@@QAEXABUD3DXVECTOR3@@@Z ; CTerrainPatchProxy::SetCenterPosition
; File C:\Program Files (x86)\Microsoft Visual Studio\2019\Community\VC\Tools\MSVC\14.28.29333\include\utility

; 190  :         : first(_STD forward<_Other1>(_Val1)), second(_STD forward<_Other2>(_Val2)) {}

  0002b	f3 0f 10 45 0c	 movss	 xmm0, DWORD PTR _fDistance$[ebp]
; File D:\Metin2 Server Files\mainline\SRC_2014\Metin2Client\GameLib\MapOutdoorRender.cpp

; 127  : 	m_PatchVector.push_back(std::make_pair(fDistance, lPatchNum));

  00030	8d 8f 18 01 00
	00		 lea	 ecx, DWORD PTR [edi+280]
; File C:\Program Files (x86)\Microsoft Visual Studio\2019\Community\VC\Tools\MSVC\14.28.29333\include\vector

; 704  :         if (_Mylast != _My_data._Myend) {

  00036	8b 51 04	 mov	 edx, DWORD PTR [ecx+4]
; File C:\Program Files (x86)\Microsoft Visual Studio\2019\Community\VC\Tools\MSVC\14.28.29333\include\utility

; 190  :         : first(_STD forward<_Other1>(_Val1)), second(_STD forward<_Other2>(_Val2)) {}

  00039	f3 0f 11 45 f8	 movss	 DWORD PTR $T1[ebp], xmm0
  0003e	89 75 fc	 mov	 DWORD PTR $T1[ebp+4], esi
; File C:\Program Files (x86)\Microsoft Visual Studio\2019\Community\VC\Tools\MSVC\14.28.29333\include\vector

; 704  :         if (_Mylast != _My_data._Myend) {

  00041	3b 51 08	 cmp	 edx, DWORD PTR [ecx+8]
  00044	74 14		 je	 SHORT $LN11@RenderTerr

; 687  :         _Alty_traits::construct(_Getal(), _Unfancy(_Mylast), _STD forward<_Valty>(_Val)...);

  00046	8b 45 f8	 mov	 eax, DWORD PTR $T1[ebp]
  00049	89 02		 mov	 DWORD PTR [edx], eax
  0004b	89 72 04	 mov	 DWORD PTR [edx+4], esi

; 688  :         _Orphan_range(_Mylast, _Mylast);
; 689  :         _Ty& _Result = *_Mylast;
; 690  :         ++_Mylast;

  0004e	83 41 04 08	 add	 DWORD PTR [ecx+4], 8
  00052	5f		 pop	 edi
; File D:\Metin2 Server Files\mainline\SRC_2014\Metin2Client\GameLib\MapOutdoorRender.cpp

; 128  : }

  00053	5e		 pop	 esi
  00054	8b e5		 mov	 esp, ebp
  00056	5d		 pop	 ebp
  00057	c2 0c 00	 ret	 12			; 0000000cH
$LN11@RenderTerr:
; File C:\Program Files (x86)\Microsoft Visual Studio\2019\Community\VC\Tools\MSVC\14.28.29333\include\vector

; 708  :         _Ty& _Result = *_Emplace_reallocate(_Mylast, _STD forward<_Valty>(_Val)...);

  0005a	8d 45 f8	 lea	 eax, DWORD PTR $T1[ebp]
  0005d	50		 push	 eax
  0005e	52		 push	 edx
  0005f	e8 00 00 00 00	 call	 ??$_Emplace_reallocate@U?$pair@MJ@std@@@?$vector@U?$pair@MJ@std@@V?$allocator@U?$pair@MJ@std@@@2@@std@@QAEPAU?$pair@MJ@1@QAU21@$$QAU21@@Z ; std::vector<std::pair<float,long>,std::allocator<std::pair<float,long> > >::_Emplace_reallocate<std::pair<float,long> >
$LN10@RenderTerr:
  00064	5f		 pop	 edi
; File D:\Metin2 Server Files\mainline\SRC_2014\Metin2Client\GameLib\MapOutdoorRender.cpp

; 128  : }

  00065	5e		 pop	 esi
  00066	8b e5		 mov	 esp, ebp
  00068	5d		 pop	 ebp
  00069	c2 0c 00	 ret	 12			; 0000000cH
?__RenderTerrain_AppendPatch@CMapOutdoor@@IAEXABUD3DXVECTOR3@@MJ@Z ENDP ; CMapOutdoor::__RenderTerrain_AppendPatch
_TEXT	ENDS
; Function compile flags: /Ogtp
; File D:\Metin2 Server Files\mainline\SRC_2014\Metin2Client\GameLib\MapOutdoorRender.cpp
; File D:\Metin2 Server Files\mainline\SRC_2014\M2Data\include\d3dx8math.inl
; File D:\Metin2 Server Files\mainline\SRC_2014\Metin2Client\GameLib\MapOutdoorRender.cpp
;	COMDAT ?__RenderTerrain_RecurseRenderQuadTree_CheckBoundingCircle@CMapOutdoor@@IAEHABUD3DXVECTOR3@@ABM@Z
_TEXT	SEGMENT
_distance$ = -28					; size = 24
_center$ = -16						; size = 12
__$ArrayPad$ = -4					; size = 4
_c_v3Center$ = 8					; size = 4
_c_fRadius$ = 12					; size = 4
?__RenderTerrain_RecurseRenderQuadTree_CheckBoundingCircle@CMapOutdoor@@IAEHABUD3DXVECTOR3@@ABM@Z PROC ; CMapOutdoor::__RenderTerrain_RecurseRenderQuadTree_CheckBoundingCircle, COMDAT
; _this$ = ecx

; 95   : {

  00000	55		 push	 ebp
  00001	8b ec		 mov	 ebp, esp
  00003	83 ec 1c	 sub	 esp, 28			; 0000001cH
  00006	a1 00 00 00 00	 mov	 eax, DWORD PTR ___security_cookie
  0000b	33 c5		 xor	 eax, ebp
  0000d	89 45 fc	 mov	 DWORD PTR __$ArrayPad$[ebp], eax

; 96   : 	const int count = 6;
; 97   : 
; 98   : 	D3DXVECTOR3 center = c_v3Center;

  00010	8b 45 08	 mov	 eax, DWORD PTR _c_v3Center$[ebp]

; 99   : 	center.y = -center.y;
; 100  : 
; 101  : 	int i;
; 102  : 
; 103  : 	float distance[count];
; 104  : 	for(i = 0; i < count; ++i)

  00013	33 d2		 xor	 edx, edx
  00015	81 c1 24 02 00
	00		 add	 ecx, 548		; 00000224H
  0001b	f3 0f 7e 00	 movq	 xmm0, QWORD PTR [eax]
  0001f	8b 40 08	 mov	 eax, DWORD PTR [eax+8]
  00022	89 45 f8	 mov	 DWORD PTR _center$[ebp+8], eax

; 107  : 		if (distance[i] <= -c_fRadius) 

  00025	8b 45 0c	 mov	 eax, DWORD PTR _c_fRadius$[ebp]
  00028	f3 0f 10 6d f8	 movss	 xmm5, DWORD PTR _center$[ebp+8]
  0002d	66 0f d6 45 f0	 movq	 QWORD PTR _center$[ebp], xmm0
  00032	f3 0f 10 5d f4	 movss	 xmm3, DWORD PTR _center$[ebp+4]
  00037	f3 0f 10 10	 movss	 xmm2, DWORD PTR [eax]
  0003b	0f 57 1d 00 00
	00 00		 xorps	 xmm3, DWORD PTR __xmm@80000000800000008000000080000000
  00042	0f 28 e2	 movaps	 xmm4, xmm2
  00045	0f 57 25 00 00
	00 00		 xorps	 xmm4, DWORD PTR __xmm@80000000800000008000000080000000
  0004c	f3 0f 10 75 f0	 movss	 xmm6, DWORD PTR _center$[ebp]
$LL4@RenderTerr:
; File D:\Metin2 Server Files\mainline\SRC_2014\M2Data\include\d3dx8math.inl

; 1647 :     return pP->a * pV->x + pP->b * pV->y + pP->c * pV->z + pP->d;

  00051	f3 0f 10 41 fc	 movss	 xmm0, DWORD PTR [ecx-4]
  00056	f3 0f 10 49 f8	 movss	 xmm1, DWORD PTR [ecx-8]
  0005b	f3 0f 59 ce	 mulss	 xmm1, xmm6
  0005f	f3 0f 59 c3	 mulss	 xmm0, xmm3
  00063	f3 0f 58 c8	 addss	 xmm1, xmm0
  00067	f3 0f 10 01	 movss	 xmm0, DWORD PTR [ecx]
  0006b	f3 0f 59 c5	 mulss	 xmm0, xmm5
  0006f	f3 0f 58 c8	 addss	 xmm1, xmm0
  00073	f3 0f 58 49 04	 addss	 xmm1, DWORD PTR [ecx+4]
; File D:\Metin2 Server Files\mainline\SRC_2014\Metin2Client\GameLib\MapOutdoorRender.cpp

; 107  : 		if (distance[i] <= -c_fRadius) 

  00078	0f 2f e1	 comiss	 xmm4, xmm1
  0007b	f3 0f 11 4c 95
	e4		 movss	 DWORD PTR _distance$[ebp+edx*4], xmm1
  00081	73 44		 jae	 SHORT $LN15@RenderTerr

; 99   : 	center.y = -center.y;
; 100  : 
; 101  : 	int i;
; 102  : 
; 103  : 	float distance[count];
; 104  : 	for(i = 0; i < count; ++i)

  00083	42		 inc	 edx
  00084	83 c1 10	 add	 ecx, 16			; 00000010H
  00087	83 fa 06	 cmp	 edx, 6
  0008a	7c c5		 jl	 SHORT $LL4@RenderTerr

; 108  : 			return VIEW_NONE;
; 109  : 	}
; 110  : 
; 111  : 	for(i = 0; i < count;++i)

  0008c	33 c0		 xor	 eax, eax
  0008e	66 90		 npad	 2
$LL7@RenderTerr:

; 112  : 	{
; 113  : 		if (distance[i] <= c_fRadius) 

  00090	0f 2f 54 85 e4	 comiss	 xmm2, DWORD PTR _distance$[ebp+eax*4]
  00095	73 1b		 jae	 SHORT $LN16@RenderTerr

; 108  : 			return VIEW_NONE;
; 109  : 	}
; 110  : 
; 111  : 	for(i = 0; i < count;++i)

  00097	40		 inc	 eax
  00098	83 f8 06	 cmp	 eax, 6
  0009b	7c f3		 jl	 SHORT $LL7@RenderTerr

; 115  : 	}
; 116  : 	
; 117  : 	return VIEW_ALL;

  0009d	b8 02 00 00 00	 mov	 eax, 2

; 118  : }

  000a2	8b 4d fc	 mov	 ecx, DWORD PTR __$ArrayPad$[ebp]
  000a5	33 cd		 xor	 ecx, ebp
  000a7	e8 00 00 00 00	 call	 @__security_check_cookie@4
  000ac	8b e5		 mov	 esp, ebp
  000ae	5d		 pop	 ebp
  000af	c2 08 00	 ret	 8
$LN16@RenderTerr:

; 114  : 			return VIEW_PART;

  000b2	b8 01 00 00 00	 mov	 eax, 1

; 118  : }

  000b7	8b 4d fc	 mov	 ecx, DWORD PTR __$ArrayPad$[ebp]
  000ba	33 cd		 xor	 ecx, ebp
  000bc	e8 00 00 00 00	 call	 @__security_check_cookie@4
  000c1	8b e5		 mov	 esp, ebp
  000c3	5d		 pop	 ebp
  000c4	c2 08 00	 ret	 8
$LN15@RenderTerr:
  000c7	8b 4d fc	 mov	 ecx, DWORD PTR __$ArrayPad$[ebp]
  000ca	33 c0		 xor	 eax, eax
  000cc	33 cd		 xor	 ecx, ebp
  000ce	e8 00 00 00 00	 call	 @__security_check_cookie@4
  000d3	8b e5		 mov	 esp, ebp
  000d5	5d		 pop	 ebp
  000d6	c2 08 00	 ret	 8
?__RenderTerrain_RecurseRenderQuadTree_CheckBoundingCircle@CMapOutdoor@@IAEHABUD3DXVECTOR3@@ABM@Z ENDP ; CMapOutdoor::__RenderTerrain_RecurseRenderQuadTree_CheckBoundingCircle
_TEXT	ENDS
; Function compile flags: /Ogtp
; File D:\Metin2 Server Files\mainline\SRC_2014\Metin2Client\GameLib\MapOutdoorRender.cpp
; File C:\Program Files (x86)\Windows Kits\10\Include\10.0.18362.0\ucrt\corecrt_math.h
; File D:\Metin2 Server Files\mainline\SRC_2014\Metin2Client\GameLib\MapOutdoorRender.cpp
;	COMDAT ?__RenderTerrain_RecurseRenderQuadTree@CMapOutdoor@@IAEXPAVCTerrainQuadtreeNode@@_N@Z
_TEXT	SEGMENT
_fDistance$1 = -24					; size = 4
_this$GSCopy$1$ = -20					; size = 4
_v3Center$2 = -16					; size = 12
__$ArrayPad$ = -4					; size = 4
_Node$ = 8						; size = 4
_bCullCheckNeed$ = 12					; size = 1
?__RenderTerrain_RecurseRenderQuadTree@CMapOutdoor@@IAEXPAVCTerrainQuadtreeNode@@_N@Z PROC ; CMapOutdoor::__RenderTerrain_RecurseRenderQuadTree, COMDAT
; _this$ = ecx

; 56   : {

  00000	55		 push	 ebp
  00001	8b ec		 mov	 ebp, esp
  00003	83 ec 18	 sub	 esp, 24			; 00000018H
  00006	a1 00 00 00 00	 mov	 eax, DWORD PTR ___security_cookie
  0000b	33 c5		 xor	 eax, ebp
  0000d	89 45 fc	 mov	 DWORD PTR __$ArrayPad$[ebp], eax
  00010	56		 push	 esi
  00011	8b 75 08	 mov	 esi, DWORD PTR _Node$[ebp]
  00014	57		 push	 edi
  00015	8b 7d 0c	 mov	 edi, DWORD PTR _bCullCheckNeed$[ebp]
  00018	89 4d ec	 mov	 DWORD PTR _this$GSCopy$1$[ebp], ecx
  0001b	0f 1f 44 00 00	 npad	 5
$LL23@RenderTerr:

; 57   : 	if (bCullCheckNeed)

  00020	80 7d 0c 00	 cmp	 BYTE PTR _bCullCheckNeed$[ebp], 0
  00024	74 25		 je	 SHORT $LN2@RenderTerr

; 58   : 	{
; 59   : 		switch (__RenderTerrain_RecurseRenderQuadTree_CheckBoundingCircle(Node->center, Node->radius))

  00026	8d 46 38	 lea	 eax, DWORD PTR [esi+56]
  00029	50		 push	 eax
  0002a	8d 46 2c	 lea	 eax, DWORD PTR [esi+44]
  0002d	50		 push	 eax
  0002e	e8 00 00 00 00	 call	 ?__RenderTerrain_RecurseRenderQuadTree_CheckBoundingCircle@CMapOutdoor@@IAEHABUD3DXVECTOR3@@ABM@Z ; CMapOutdoor::__RenderTerrain_RecurseRenderQuadTree_CheckBoundingCircle
  00033	83 e8 00	 sub	 eax, 0
  00036	0f 84 bc 00 00
	00		 je	 $LN13@RenderTerr
  0003c	8b 4d ec	 mov	 ecx, DWORD PTR _this$GSCopy$1$[ebp]
  0003f	83 e8 02	 sub	 eax, 2
  00042	75 07		 jne	 SHORT $LN2@RenderTerr

; 60   : 		{
; 61   : 			case VIEW_ALL:
; 62   : 				// all child nodes need not cull check
; 63   : 				bCullCheckNeed = false;

  00044	c6 45 0c 00	 mov	 BYTE PTR _bCullCheckNeed$[ebp], 0
  00048	8b 7d 0c	 mov	 edi, DWORD PTR _bCullCheckNeed$[ebp]
$LN2@RenderTerr:

; 64   : 				break;
; 65   : 			case VIEW_PART:
; 66   : 				break;
; 67   : 			case VIEW_NONE:
; 68   : 				// no need to render
; 69   : 				return;
; 70   : 		}
; 71   : 		// if no need cull check more
; 72   : 		// -> bCullCheckNeed = false;
; 73   : 	}
; 74   : 	
; 75   : 	if (Node->Size == 1)

  0004b	83 7e 24 01	 cmp	 DWORD PTR [esi+36], 1
  0004f	74 3c		 je	 SHORT $LN25@RenderTerr

; 80   : 	}
; 81   : 	else
; 82   : 	{
; 83   : 		if (Node->NW_Node != NULL)

  00051	8b 46 14	 mov	 eax, DWORD PTR [esi+20]
  00054	85 c0		 test	 eax, eax
  00056	74 07		 je	 SHORT $LN10@RenderTerr

; 84   : 			__RenderTerrain_RecurseRenderQuadTree(Node->NW_Node, bCullCheckNeed);

  00058	57		 push	 edi
  00059	50		 push	 eax
  0005a	e8 00 00 00 00	 call	 ?__RenderTerrain_RecurseRenderQuadTree@CMapOutdoor@@IAEXPAVCTerrainQuadtreeNode@@_N@Z ; CMapOutdoor::__RenderTerrain_RecurseRenderQuadTree
$LN10@RenderTerr:

; 85   : 		if (Node->NE_Node != NULL)

  0005f	8b 46 18	 mov	 eax, DWORD PTR [esi+24]
  00062	85 c0		 test	 eax, eax
  00064	74 0a		 je	 SHORT $LN11@RenderTerr

; 86   : 			__RenderTerrain_RecurseRenderQuadTree(Node->NE_Node, bCullCheckNeed);

  00066	8b 4d ec	 mov	 ecx, DWORD PTR _this$GSCopy$1$[ebp]
  00069	57		 push	 edi
  0006a	50		 push	 eax
  0006b	e8 00 00 00 00	 call	 ?__RenderTerrain_RecurseRenderQuadTree@CMapOutdoor@@IAEXPAVCTerrainQuadtreeNode@@_N@Z ; CMapOutdoor::__RenderTerrain_RecurseRenderQuadTree
$LN11@RenderTerr:

; 87   : 		if (Node->SW_Node != NULL)

  00070	8b 46 1c	 mov	 eax, DWORD PTR [esi+28]
  00073	85 c0		 test	 eax, eax
  00075	74 0a		 je	 SHORT $LN12@RenderTerr

; 88   : 			__RenderTerrain_RecurseRenderQuadTree(Node->SW_Node, bCullCheckNeed);

  00077	8b 4d ec	 mov	 ecx, DWORD PTR _this$GSCopy$1$[ebp]
  0007a	57		 push	 edi
  0007b	50		 push	 eax
  0007c	e8 00 00 00 00	 call	 ?__RenderTerrain_RecurseRenderQuadTree@CMapOutdoor@@IAEXPAVCTerrainQuadtreeNode@@_N@Z ; CMapOutdoor::__RenderTerrain_RecurseRenderQuadTree
$LN12@RenderTerr:

; 89   : 		if (Node->SE_Node != NULL)

  00081	8b 76 20	 mov	 esi, DWORD PTR [esi+32]
  00084	85 f6		 test	 esi, esi
  00086	74 70		 je	 SHORT $LN13@RenderTerr

; 90   : 			__RenderTerrain_RecurseRenderQuadTree(Node->SE_Node, bCullCheckNeed);

  00088	8b 4d ec	 mov	 ecx, DWORD PTR _this$GSCopy$1$[ebp]
  0008b	eb 93		 jmp	 SHORT $LL23@RenderTerr
$LN25@RenderTerr:

; 76   : 	{
; 77   : 		D3DXVECTOR3 v3Center = Node->center;

  0008d	f3 0f 7e 46 2c	 movq	 xmm0, QWORD PTR [esi+44]

; 78   : 		float fDistance = fMAX(fabs(v3Center.x + m_fXforDistanceCaculation), fabs(-v3Center.y + m_fYforDistanceCaculation));

  00092	83 ec 08	 sub	 esp, 8
  00095	f3 0f 10 91 14
	09 00 00	 movss	 xmm2, DWORD PTR [ecx+2324]
  0009d	f3 0f 10 89 10
	09 00 00	 movss	 xmm1, DWORD PTR [ecx+2320]
  000a5	8b 46 34	 mov	 eax, DWORD PTR [esi+52]
  000a8	66 0f d6 45 f0	 movq	 QWORD PTR _v3Center$2[ebp], xmm0
  000ad	f3 0f 5c 55 f4	 subss	 xmm2, DWORD PTR _v3Center$2[ebp+4]
  000b2	f3 0f 58 4d f0	 addss	 xmm1, DWORD PTR _v3Center$2[ebp]
  000b7	89 45 f8	 mov	 DWORD PTR _v3Center$2[ebp+8], eax
; File C:\Program Files (x86)\Windows Kits\10\Include\10.0.18362.0\ucrt\corecrt_math.h

; 672  :             return (float)fabs(_X);

  000ba	0f 54 15 00 00
	00 00		 andps	 xmm2, DWORD PTR __xmm@7fffffff7fffffff7fffffff7fffffff
  000c1	0f 54 0d 00 00
	00 00		 andps	 xmm1, DWORD PTR __xmm@7fffffff7fffffff7fffffff7fffffff
; File D:\Metin2 Server Files\mainline\SRC_2014\Metin2Client\GameLib\MapOutdoorRender.cpp

; 78   : 		float fDistance = fMAX(fabs(v3Center.x + m_fXforDistanceCaculation), fabs(-v3Center.y + m_fYforDistanceCaculation));

  000c8	f3 0f 11 54 24
	04		 movss	 DWORD PTR [esp+4], xmm2
  000ce	f3 0f 11 0c 24	 movss	 DWORD PTR [esp], xmm1
  000d3	e8 00 00 00 00	 call	 ?fMAX@@YAMMM@Z		; fMAX
  000d8	83 c4 08	 add	 esp, 8

; 79   : 		__RenderTerrain_AppendPatch(v3Center, fDistance, Node->PatchNum);

  000db	8d 45 f0	 lea	 eax, DWORD PTR _v3Center$2[ebp]
  000de	d9 5d e8	 fstp	 DWORD PTR _fDistance$1[ebp]
  000e1	f3 0f 10 45 e8	 movss	 xmm0, DWORD PTR _fDistance$1[ebp]
  000e6	ff 76 28	 push	 DWORD PTR [esi+40]
  000e9	51		 push	 ecx
  000ea	8b 4d ec	 mov	 ecx, DWORD PTR _this$GSCopy$1$[ebp]
  000ed	f3 0f 11 04 24	 movss	 DWORD PTR [esp], xmm0
  000f2	50		 push	 eax
  000f3	e8 00 00 00 00	 call	 ?__RenderTerrain_AppendPatch@CMapOutdoor@@IAEXABUD3DXVECTOR3@@MJ@Z ; CMapOutdoor::__RenderTerrain_AppendPatch
$LN13@RenderTerr:

; 91   : 	}
; 92   : }

  000f8	8b 4d fc	 mov	 ecx, DWORD PTR __$ArrayPad$[ebp]
  000fb	5f		 pop	 edi
  000fc	33 cd		 xor	 ecx, ebp
  000fe	5e		 pop	 esi
  000ff	e8 00 00 00 00	 call	 @__security_check_cookie@4
  00104	8b e5		 mov	 esp, ebp
  00106	5d		 pop	 ebp
  00107	c2 08 00	 ret	 8
?__RenderTerrain_RecurseRenderQuadTree@CMapOutdoor@@IAEXPAVCTerrainQuadtreeNode@@_N@Z ENDP ; CMapOutdoor::__RenderTerrain_RecurseRenderQuadTree
_TEXT	ENDS
; Function compile flags: /Ogtp
; File D:\Metin2 Server Files\mainline\SRC_2014\Metin2Client\GameLib\MapOutdoorRender.cpp
;	COMDAT ?__GetFogDistance@CMapOutdoor@@IAEMXZ
_TEXT	SEGMENT
tv132 = -4						; size = 4
?__GetFogDistance@CMapOutdoor@@IAEMXZ PROC		; CMapOutdoor::__GetFogDistance, COMDAT
; _this$ = ecx

; 741  : {

  00000	55		 push	 ebp
  00001	8b ec		 mov	 ebp, esp
  00003	51		 push	 ecx

; 742  : 	return (float)(CTerrainImpl::CELLSCALE * m_lViewRadius) * 0.75f;

  00004	69 41 68 c8 00
	00 00		 imul	 eax, DWORD PTR [ecx+104], 200
  0000b	66 0f 6e c0	 movd	 xmm0, eax
  0000f	0f 5b c0	 cvtdq2ps xmm0, xmm0
  00012	f3 0f 59 05 00
	00 00 00	 mulss	 xmm0, DWORD PTR __real@3f400000
  0001a	f3 0f 11 45 fc	 movss	 DWORD PTR tv132[ebp], xmm0
  0001f	d9 45 fc	 fld	 DWORD PTR tv132[ebp]

; 743  : }

  00022	8b e5		 mov	 esp, ebp
  00024	5d		 pop	 ebp
  00025	c3		 ret	 0
?__GetFogDistance@CMapOutdoor@@IAEMXZ ENDP		; CMapOutdoor::__GetFogDistance
_TEXT	ENDS
; Function compile flags: /Ogtp
; File D:\Metin2 Server Files\mainline\SRC_2014\Metin2Client\GameLib\MapOutdoorRender.cpp
;	COMDAT ?__GetNoFogDistance@CMapOutdoor@@IAEMXZ
_TEXT	SEGMENT
tv132 = -4						; size = 4
?__GetNoFogDistance@CMapOutdoor@@IAEMXZ PROC		; CMapOutdoor::__GetNoFogDistance, COMDAT
; _this$ = ecx

; 736  : {

  00000	55		 push	 ebp
  00001	8b ec		 mov	 ebp, esp
  00003	51		 push	 ecx

; 737  : 	return (float)(CTerrainImpl::CELLSCALE * m_lViewRadius) * 0.5f;

  00004	69 41 68 c8 00
	00 00		 imul	 eax, DWORD PTR [ecx+104], 200
  0000b	66 0f 6e c0	 movd	 xmm0, eax
  0000f	0f 5b c0	 cvtdq2ps xmm0, xmm0
  00012	f3 0f 59 05 00
	00 00 00	 mulss	 xmm0, DWORD PTR __real@3f000000
  0001a	f3 0f 11 45 fc	 movss	 DWORD PTR tv132[ebp], xmm0
  0001f	d9 45 fc	 fld	 DWORD PTR tv132[ebp]

; 738  : }

  00022	8b e5		 mov	 esp, ebp
  00024	5d		 pop	 ebp
  00025	c3		 ret	 0
?__GetNoFogDistance@CMapOutdoor@@IAEMXZ ENDP		; CMapOutdoor::__GetNoFogDistance
_TEXT	ENDS
; Function compile flags: /Ogtp
; File D:\Metin2 Server Files\mainline\SRC_2014\Metin2Client\GameLib\MapOutdoorRender.cpp
;	COMDAT ?IsVisiblePart@CMapOutdoor@@IAE_NH@Z
_TEXT	SEGMENT
_ePart$ = 8						; size = 4
?IsVisiblePart@CMapOutdoor@@IAE_NH@Z PROC		; CMapOutdoor::IsVisiblePart, COMDAT
; _this$ = ecx

; 159  : {

  00000	55		 push	 ebp
  00001	8b ec		 mov	 ebp, esp
  00003	8b d1		 mov	 edx, ecx

; 160  : 	DWORD dwMask=(1<<ePart);

  00005	b8 01 00 00 00	 mov	 eax, 1
  0000a	8b 4d 08	 mov	 ecx, DWORD PTR _ePart$[ebp]
  0000d	d3 e0		 shl	 eax, cl

; 161  : 	if (dwMask & m_dwVisiblePartFlags)

  0000f	85 82 80 09 00
	00		 test	 eax, DWORD PTR [edx+2432]
  00015	0f 95 c0	 setne	 al

; 162  : 		return true;
; 163  : 
; 164  : 	return false;
; 165  : }

  00018	5d		 pop	 ebp
  00019	c2 04 00	 ret	 4
?IsVisiblePart@CMapOutdoor@@IAE_NH@Z ENDP		; CMapOutdoor::IsVisiblePart
_TEXT	ENDS
; Function compile flags: /Ogtp
; File D:\Metin2 Server Files\mainline\SRC_2014\Metin2Client\GameLib\MapOutdoorRender.cpp
;	COMDAT ?InitializeVisibleParts@CMapOutdoor@@IAEXXZ
_TEXT	SEGMENT
?InitializeVisibleParts@CMapOutdoor@@IAEXXZ PROC	; CMapOutdoor::InitializeVisibleParts, COMDAT
; _this$ = ecx

; 139  : 	m_dwVisiblePartFlags=0xffffffff;

  00000	c7 81 80 09 00
	00 ff ff ff ff	 mov	 DWORD PTR [ecx+2432], -1

; 140  : }

  0000a	c3		 ret	 0
?InitializeVisibleParts@CMapOutdoor@@IAEXXZ ENDP	; CMapOutdoor::InitializeVisibleParts
_TEXT	ENDS
; Function compile flags: /Ogtp
; File D:\Metin2 Server Files\mainline\SRC_2014\Metin2Client\GameLib\MapOutdoorRender.cpp
;	COMDAT ?SelectIndexBuffer@CMapOutdoor@@IAEXEPAGPAW4_D3DPRIMITIVETYPE@@@Z
_TEXT	SEGMENT
_byLODLevel$ = 8					; size = 1
_pwPrimitiveCount$ = 12					; size = 4
_pePrimitiveType$ = 16					; size = 4
?SelectIndexBuffer@CMapOutdoor@@IAEXEPAGPAW4_D3DPRIMITIVETYPE@@@Z PROC ; CMapOutdoor::SelectIndexBuffer, COMDAT
; _this$ = ecx

; 658  : {

  00000	55		 push	 ebp
  00001	8b ec		 mov	 ebp, esp
  00003	8a 45 08	 mov	 al, BYTE PTR _byLODLevel$[ebp]
  00006	53		 push	 ebx
  00007	56		 push	 esi
  00008	0f b6 f0	 movzx	 esi, al
  0000b	57		 push	 edi
  0000c	8b f9		 mov	 edi, ecx
  0000e	0f b7 94 77 d8
	00 00 00	 movzx	 edx, WORD PTR [edi+esi*2+216]

; 659  : #ifdef WORLD_EDITOR
; 660  : 	*pwPrimitiveCount = m_wNumIndices - 2;
; 661  : 	*pePrimitiveType = D3DPT_TRIANGLESTRIP;
; 662  : 	STATEMANAGER.SetIndices(m_IndexBuffer.GetD3DIndexBuffer(), 0);
; 663  : #else
; 664  : 	if (0 == byLODLevel)

  00016	84 c0		 test	 al, al
  00018	75 0d		 jne	 SHORT $LN2@SelectInde

; 665  : 	{
; 666  : 		*pwPrimitiveCount = m_wNumIndices[byLODLevel] - 2;

  0001a	8d 42 fe	 lea	 eax, DWORD PTR [edx-2]

; 667  : 		*pePrimitiveType = D3DPT_TRIANGLESTRIP;

  0001d	bb 05 00 00 00	 mov	 ebx, 5
  00022	0f b7 c8	 movzx	 ecx, ax

; 668  : 	}

  00025	eb 13		 jmp	 SHORT $LN3@SelectInde
$LN2@SelectInde:

; 669  : 	else
; 670  : 	{
; 671  : 		*pwPrimitiveCount =  m_wNumIndices[byLODLevel]/3;
; 672  : 		*pePrimitiveType = D3DPT_TRIANGLELIST;

  00027	8b ca		 mov	 ecx, edx
  00029	b8 ab aa aa aa	 mov	 eax, -1431655765	; aaaaaaabH
  0002e	f7 e1		 mul	 ecx
  00030	bb 04 00 00 00	 mov	 ebx, 4
  00035	d1 ea		 shr	 edx, 1
  00037	0f b7 ca	 movzx	 ecx, dx
$LN3@SelectInde:

; 673  : 	}
; 674  : 	STATEMANAGER.SetIndices(m_IndexBuffer[byLODLevel].GetD3DIndexBuffer(), 0);

  0003a	8b 45 0c	 mov	 eax, DWORD PTR _pwPrimitiveCount$[ebp]
  0003d	6a 00		 push	 0
  0003f	66 89 08	 mov	 WORD PTR [eax], cx
  00042	8b 45 10	 mov	 eax, DWORD PTR _pePrimitiveType$[ebp]
  00045	89 18		 mov	 DWORD PTR [eax], ebx
  00047	8d 04 b5 27 00
	00 00		 lea	 eax, DWORD PTR [esi*4+39]
  0004e	03 c6		 add	 eax, esi
  00050	8d 0c 87	 lea	 ecx, DWORD PTR [edi+eax*4]
  00053	e8 00 00 00 00	 call	 ?GetD3DIndexBuffer@CGraphicIndexBuffer@@QBEPAUIDirect3DIndexBuffer8@@XZ ; CGraphicIndexBuffer::GetD3DIndexBuffer
  00058	8b 0d 00 00 00
	00		 mov	 ecx, DWORD PTR ?ms_singleton@?$CSingleton@VCStateManager@@@@0PAVCStateManager@@A ; CSingleton<CStateManager>::ms_singleton
  0005e	50		 push	 eax
  0005f	e8 00 00 00 00	 call	 ?SetIndices@CStateManager@@QAEXPAUIDirect3DIndexBuffer8@@I@Z ; CStateManager::SetIndices
  00064	5f		 pop	 edi
  00065	5e		 pop	 esi
  00066	5b		 pop	 ebx

; 675  : #endif
; 676  : }

  00067	5d		 pop	 ebp
  00068	c2 0c 00	 ret	 12			; 0000000cH
?SelectIndexBuffer@CMapOutdoor@@IAEXEPAGPAW4_D3DPRIMITIVETYPE@@@Z ENDP ; CMapOutdoor::SelectIndexBuffer
_TEXT	ENDS
; Function compile flags: /Ogtp
; File D:\Metin2 Server Files\mainline\SRC_2014\Metin2Client\GameLib\MapOutdoorRender.cpp
;	COMDAT ?DrawWireFrame@CMapOutdoor@@IAEXJGW4_D3DPRIMITIVETYPE@@@Z
_TEXT	SEGMENT
_patchnum$ = 8						; size = 4
_wPrimitiveCount$ = 12					; size = 2
_ePrimitiveType$ = 16					; size = 4
?DrawWireFrame@CMapOutdoor@@IAEXJGW4_D3DPRIMITIVETYPE@@@Z PROC ; CMapOutdoor::DrawWireFrame, COMDAT
; _this$ = ecx

; 781  : {

  00000	55		 push	 ebp
  00001	8b ec		 mov	 ebp, esp

; 782  : 	assert(NULL!=m_pTerrainPatchProxyList && "CMapOutdoor::DrawWireFrame");
; 783  : 
; 784  : 	CTerrainPatchProxy * pTerrainPatchProxy= &m_pTerrainPatchProxyList[patchnum];

  00003	8b 45 08	 mov	 eax, DWORD PTR _patchnum$[ebp]
  00006	53		 push	 ebx
  00007	8b d9		 mov	 ebx, ecx
  00009	8d 14 c5 00 00
	00 00		 lea	 edx, DWORD PTR [eax*8]
  00010	2b d0		 sub	 edx, eax
  00012	8b 43 64	 mov	 eax, DWORD PTR [ebx+100]

; 785  : 
; 786  : 	if (!pTerrainPatchProxy->isUsed())

  00015	80 7c 90 04 00	 cmp	 BYTE PTR [eax+edx*4+4], 0
  0001a	0f 84 03 01 00
	00		 je	 $LN1@DrawWireFr

; 787  : 		return;
; 788  : 
; 789  : 	long sPatchNum = pTerrainPatchProxy->GetPatchNum();
; 790  : 	if (sPatchNum < 0)

  00020	66 83 7c 90 06
	00		 cmp	 WORD PTR [eax+edx*4+6], 0
  00026	0f 8c f7 00 00
	00		 jl	 $LN1@DrawWireFr

; 791  : 		return;
; 792  : 	BYTE ucTerrainNum = pTerrainPatchProxy->GetTerrainNum();
; 793  : 	if (0xFF == ucTerrainNum)

  0002c	80 7c 90 08 ff	 cmp	 BYTE PTR [eax+edx*4+8], 255 ; 000000ffH
  00031	0f 84 ec 00 00
	00		 je	 $LN1@DrawWireFr

; 794  : 		return;
; 795  : 
; 796  : 	DWORD dwFillMode = STATEMANAGER.GetRenderState(D3DRS_FILLMODE);

  00037	8b 0d 00 00 00
	00		 mov	 ecx, DWORD PTR ?ms_singleton@?$CSingleton@VCStateManager@@@@0PAVCStateManager@@A ; CSingleton<CStateManager>::ms_singleton
  0003d	56		 push	 esi
  0003e	57		 push	 edi
  0003f	6a 08		 push	 8
  00041	e8 00 00 00 00	 call	 ?GetRenderState@CStateManager@@QAEKW4_D3DRENDERSTATETYPE@@@Z ; CStateManager::GetRenderState

; 797  : 	STATEMANAGER.SetRenderState(D3DRS_FILLMODE, D3DFILL_WIREFRAME);

  00046	8b 0d 00 00 00
	00		 mov	 ecx, DWORD PTR ?ms_singleton@?$CSingleton@VCStateManager@@@@0PAVCStateManager@@A ; CSingleton<CStateManager>::ms_singleton
  0004c	8b f8		 mov	 edi, eax
  0004e	6a 02		 push	 2
  00050	6a 08		 push	 8
  00052	e8 00 00 00 00	 call	 ?SetRenderState@CStateManager@@QAEXW4_D3DRENDERSTATETYPE@@K@Z ; CStateManager::SetRenderState

; 798  : 
; 799  : 	DWORD dwFogEnable = STATEMANAGER.GetRenderState(D3DRS_FOGENABLE);

  00057	8b 0d 00 00 00
	00		 mov	 ecx, DWORD PTR ?ms_singleton@?$CSingleton@VCStateManager@@@@0PAVCStateManager@@A ; CSingleton<CStateManager>::ms_singleton
  0005d	6a 1c		 push	 28			; 0000001cH
  0005f	e8 00 00 00 00	 call	 ?GetRenderState@CStateManager@@QAEKW4_D3DRENDERSTATETYPE@@@Z ; CStateManager::GetRenderState

; 800  : 	STATEMANAGER.SetRenderState(D3DRS_FOGENABLE, FALSE);

  00064	8b 0d 00 00 00
	00		 mov	 ecx, DWORD PTR ?ms_singleton@?$CSingleton@VCStateManager@@@@0PAVCStateManager@@A ; CSingleton<CStateManager>::ms_singleton
  0006a	8b f0		 mov	 esi, eax
  0006c	6a 00		 push	 0
  0006e	6a 1c		 push	 28			; 0000001cH
  00070	e8 00 00 00 00	 call	 ?SetRenderState@CStateManager@@QAEXW4_D3DRENDERSTATETYPE@@K@Z ; CStateManager::SetRenderState

; 801  : 	
; 802  : 	STATEMANAGER.SetTexture(0, NULL);

  00075	8b 0d 00 00 00
	00		 mov	 ecx, DWORD PTR ?ms_singleton@?$CSingleton@VCStateManager@@@@0PAVCStateManager@@A ; CSingleton<CStateManager>::ms_singleton
  0007b	6a 00		 push	 0
  0007d	6a 00		 push	 0
  0007f	e8 00 00 00 00	 call	 ?SetTexture@CStateManager@@QAEXKPAUIDirect3DBaseTexture8@@@Z ; CStateManager::SetTexture

; 803  : 	STATEMANAGER.SetTexture(1, NULL);

  00084	8b 0d 00 00 00
	00		 mov	 ecx, DWORD PTR ?ms_singleton@?$CSingleton@VCStateManager@@@@0PAVCStateManager@@A ; CSingleton<CStateManager>::ms_singleton
  0008a	6a 00		 push	 0
  0008c	6a 01		 push	 1
  0008e	e8 00 00 00 00	 call	 ?SetTexture@CStateManager@@QAEXKPAUIDirect3DBaseTexture8@@@Z ; CStateManager::SetTexture

; 804  : 	STATEMANAGER.SetTextureStageState(0, D3DTSS_COLOROP, D3DTOP_DISABLE);

  00093	8b 0d 00 00 00
	00		 mov	 ecx, DWORD PTR ?ms_singleton@?$CSingleton@VCStateManager@@@@0PAVCStateManager@@A ; CSingleton<CStateManager>::ms_singleton
  00099	6a 01		 push	 1
  0009b	6a 01		 push	 1
  0009d	6a 00		 push	 0
  0009f	e8 00 00 00 00	 call	 ?SetTextureStageState@CStateManager@@QAEXKW4_D3DTEXTURESTAGESTATETYPE@@K@Z ; CStateManager::SetTextureStageState

; 805  : 
; 806  : 	STATEMANAGER.DrawIndexedPrimitive(ePrimitiveType, 0, m_iPatchTerrainVertexCount, 0, wPrimitiveCount);

  000a4	0f b7 45 0c	 movzx	 eax, WORD PTR _wPrimitiveCount$[ebp]
  000a8	8b 0d 00 00 00
	00		 mov	 ecx, DWORD PTR ?ms_singleton@?$CSingleton@VCStateManager@@@@0PAVCStateManager@@A ; CSingleton<CStateManager>::ms_singleton
  000ae	50		 push	 eax
  000af	6a 00		 push	 0
  000b1	ff b3 a0 09 00
	00		 push	 DWORD PTR [ebx+2464]
  000b7	6a 00		 push	 0
  000b9	ff 75 10	 push	 DWORD PTR _ePrimitiveType$[ebp]
  000bc	e8 00 00 00 00	 call	 ?DrawIndexedPrimitive@CStateManager@@QAEJW4_D3DPRIMITIVETYPE@@IIII@Z ; CStateManager::DrawIndexedPrimitive

; 807  : 
; 808  : 	STATEMANAGER.SetRenderState(D3DRS_FILLMODE, dwFillMode);

  000c1	8b 0d 00 00 00
	00		 mov	 ecx, DWORD PTR ?ms_singleton@?$CSingleton@VCStateManager@@@@0PAVCStateManager@@A ; CSingleton<CStateManager>::ms_singleton
  000c7	57		 push	 edi
  000c8	6a 08		 push	 8
  000ca	e8 00 00 00 00	 call	 ?SetRenderState@CStateManager@@QAEXW4_D3DRENDERSTATETYPE@@K@Z ; CStateManager::SetRenderState

; 809  : 	STATEMANAGER.SetRenderState(D3DRS_FOGENABLE, dwFogEnable);

  000cf	8b 0d 00 00 00
	00		 mov	 ecx, DWORD PTR ?ms_singleton@?$CSingleton@VCStateManager@@@@0PAVCStateManager@@A ; CSingleton<CStateManager>::ms_singleton
  000d5	56		 push	 esi
  000d6	6a 1c		 push	 28			; 0000001cH
  000d8	e8 00 00 00 00	 call	 ?SetRenderState@CStateManager@@QAEXW4_D3DRENDERSTATETYPE@@K@Z ; CStateManager::SetRenderState

; 810  : 
; 811  :  	STATEMANAGER.SetTextureStageState(0, D3DTSS_COLORARG1, D3DTA_TEXTURE);

  000dd	8b 0d 00 00 00
	00		 mov	 ecx, DWORD PTR ?ms_singleton@?$CSingleton@VCStateManager@@@@0PAVCStateManager@@A ; CSingleton<CStateManager>::ms_singleton
  000e3	6a 02		 push	 2
  000e5	6a 02		 push	 2
  000e7	6a 00		 push	 0
  000e9	e8 00 00 00 00	 call	 ?SetTextureStageState@CStateManager@@QAEXKW4_D3DTEXTURESTAGESTATETYPE@@K@Z ; CStateManager::SetTextureStageState

; 812  : 	STATEMANAGER.SetTextureStageState(0, D3DTSS_COLORARG2, D3DTA_CURRENT);

  000ee	8b 0d 00 00 00
	00		 mov	 ecx, DWORD PTR ?ms_singleton@?$CSingleton@VCStateManager@@@@0PAVCStateManager@@A ; CSingleton<CStateManager>::ms_singleton
  000f4	6a 01		 push	 1
  000f6	6a 03		 push	 3
  000f8	6a 00		 push	 0
  000fa	e8 00 00 00 00	 call	 ?SetTextureStageState@CStateManager@@QAEXKW4_D3DTEXTURESTAGESTATETYPE@@K@Z ; CStateManager::SetTextureStageState

; 813  : 	STATEMANAGER.SetTextureStageState(0, D3DTSS_COLOROP,   D3DTOP_MODULATE);	

  000ff	5f		 pop	 edi
  00100	5e		 pop	 esi
  00101	5b		 pop	 ebx
  00102	c7 45 10 04 00
	00 00		 mov	 DWORD PTR _ePrimitiveType$[ebp], 4
  00109	c7 45 0c 01 00
	00 00		 mov	 DWORD PTR _wPrimitiveCount$[ebp], 1
  00110	c7 45 08 00 00
	00 00		 mov	 DWORD PTR _patchnum$[ebp], 0
  00117	8b 0d 00 00 00
	00		 mov	 ecx, DWORD PTR ?ms_singleton@?$CSingleton@VCStateManager@@@@0PAVCStateManager@@A ; CSingleton<CStateManager>::ms_singleton

; 814  : }

  0011d	5d		 pop	 ebp

; 813  : 	STATEMANAGER.SetTextureStageState(0, D3DTSS_COLOROP,   D3DTOP_MODULATE);	

  0011e	e9 00 00 00 00	 jmp	 ?SetTextureStageState@CStateManager@@QAEXKW4_D3DTEXTURESTAGESTATETYPE@@K@Z ; CStateManager::SetTextureStageState
$LN1@DrawWireFr:
  00123	5b		 pop	 ebx

; 814  : }

  00124	5d		 pop	 ebp
  00125	c2 0c 00	 ret	 12			; 0000000cH
?DrawWireFrame@CMapOutdoor@@IAEXJGW4_D3DPRIMITIVETYPE@@@Z ENDP ; CMapOutdoor::DrawWireFrame
_TEXT	ENDS
; Function compile flags: /Ogtp
; File D:\Metin2 Server Files\mainline\SRC_2014\Metin2Client\GameLib\MapOutdoorRender.cpp
;	COMDAT ?NEW_DrawWireFrame@CMapOutdoor@@IAEXPAVCTerrainPatchProxy@@GW4_D3DPRIMITIVETYPE@@@Z
_TEXT	SEGMENT
_pTerrainPatchProxy$ = 8				; size = 4
_wPrimitiveCount$ = 12					; size = 2
_ePrimitiveType$ = 16					; size = 4
?NEW_DrawWireFrame@CMapOutdoor@@IAEXPAVCTerrainPatchProxy@@GW4_D3DPRIMITIVETYPE@@@Z PROC ; CMapOutdoor::NEW_DrawWireFrame, COMDAT
; _this$ = ecx

; 759  : {

  00000	55		 push	 ebp
  00001	8b ec		 mov	 ebp, esp
  00003	53		 push	 ebx
  00004	56		 push	 esi
  00005	57		 push	 edi
  00006	8b f9		 mov	 edi, ecx

; 760  : 	DWORD dwFillMode = STATEMANAGER.GetRenderState(D3DRS_FILLMODE);

  00008	8b 0d 00 00 00
	00		 mov	 ecx, DWORD PTR ?ms_singleton@?$CSingleton@VCStateManager@@@@0PAVCStateManager@@A ; CSingleton<CStateManager>::ms_singleton
  0000e	6a 08		 push	 8
  00010	e8 00 00 00 00	 call	 ?GetRenderState@CStateManager@@QAEKW4_D3DRENDERSTATETYPE@@@Z ; CStateManager::GetRenderState

; 761  : 	STATEMANAGER.SetRenderState(D3DRS_FILLMODE, D3DFILL_WIREFRAME);

  00015	8b 0d 00 00 00
	00		 mov	 ecx, DWORD PTR ?ms_singleton@?$CSingleton@VCStateManager@@@@0PAVCStateManager@@A ; CSingleton<CStateManager>::ms_singleton
  0001b	8b d8		 mov	 ebx, eax
  0001d	6a 02		 push	 2
  0001f	6a 08		 push	 8
  00021	e8 00 00 00 00	 call	 ?SetRenderState@CStateManager@@QAEXW4_D3DRENDERSTATETYPE@@K@Z ; CStateManager::SetRenderState

; 762  : 	
; 763  : 	DWORD dwFogEnable = STATEMANAGER.GetRenderState(D3DRS_FOGENABLE);

  00026	8b 0d 00 00 00
	00		 mov	 ecx, DWORD PTR ?ms_singleton@?$CSingleton@VCStateManager@@@@0PAVCStateManager@@A ; CSingleton<CStateManager>::ms_singleton
  0002c	6a 1c		 push	 28			; 0000001cH
  0002e	e8 00 00 00 00	 call	 ?GetRenderState@CStateManager@@QAEKW4_D3DRENDERSTATETYPE@@@Z ; CStateManager::GetRenderState

; 764  : 	STATEMANAGER.SetRenderState(D3DRS_FOGENABLE, FALSE);

  00033	8b 0d 00 00 00
	00		 mov	 ecx, DWORD PTR ?ms_singleton@?$CSingleton@VCStateManager@@@@0PAVCStateManager@@A ; CSingleton<CStateManager>::ms_singleton
  00039	8b f0		 mov	 esi, eax
  0003b	6a 00		 push	 0
  0003d	6a 1c		 push	 28			; 0000001cH
  0003f	e8 00 00 00 00	 call	 ?SetRenderState@CStateManager@@QAEXW4_D3DRENDERSTATETYPE@@K@Z ; CStateManager::SetRenderState

; 765  : 	
; 766  : 	STATEMANAGER.SetTexture(0, NULL);

  00044	8b 0d 00 00 00
	00		 mov	 ecx, DWORD PTR ?ms_singleton@?$CSingleton@VCStateManager@@@@0PAVCStateManager@@A ; CSingleton<CStateManager>::ms_singleton
  0004a	6a 00		 push	 0
  0004c	6a 00		 push	 0
  0004e	e8 00 00 00 00	 call	 ?SetTexture@CStateManager@@QAEXKPAUIDirect3DBaseTexture8@@@Z ; CStateManager::SetTexture

; 767  : 	STATEMANAGER.SetTexture(1, NULL);

  00053	8b 0d 00 00 00
	00		 mov	 ecx, DWORD PTR ?ms_singleton@?$CSingleton@VCStateManager@@@@0PAVCStateManager@@A ; CSingleton<CStateManager>::ms_singleton
  00059	6a 00		 push	 0
  0005b	6a 01		 push	 1
  0005d	e8 00 00 00 00	 call	 ?SetTexture@CStateManager@@QAEXKPAUIDirect3DBaseTexture8@@@Z ; CStateManager::SetTexture

; 768  : 	STATEMANAGER.SetTextureStageState(0, D3DTSS_COLOROP, D3DTOP_DISABLE);

  00062	8b 0d 00 00 00
	00		 mov	 ecx, DWORD PTR ?ms_singleton@?$CSingleton@VCStateManager@@@@0PAVCStateManager@@A ; CSingleton<CStateManager>::ms_singleton
  00068	6a 01		 push	 1
  0006a	6a 01		 push	 1
  0006c	6a 00		 push	 0
  0006e	e8 00 00 00 00	 call	 ?SetTextureStageState@CStateManager@@QAEXKW4_D3DTEXTURESTAGESTATETYPE@@K@Z ; CStateManager::SetTextureStageState

; 769  : 	
; 770  : 	STATEMANAGER.DrawIndexedPrimitive(ePrimitiveType, 0, m_iPatchTerrainVertexCount, 0, wPrimitiveCount);

  00073	0f b7 45 0c	 movzx	 eax, WORD PTR _wPrimitiveCount$[ebp]
  00077	8b 0d 00 00 00
	00		 mov	 ecx, DWORD PTR ?ms_singleton@?$CSingleton@VCStateManager@@@@0PAVCStateManager@@A ; CSingleton<CStateManager>::ms_singleton
  0007d	50		 push	 eax
  0007e	6a 00		 push	 0
  00080	ff b7 a0 09 00
	00		 push	 DWORD PTR [edi+2464]
  00086	6a 00		 push	 0
  00088	ff 75 10	 push	 DWORD PTR _ePrimitiveType$[ebp]
  0008b	e8 00 00 00 00	 call	 ?DrawIndexedPrimitive@CStateManager@@QAEJW4_D3DPRIMITIVETYPE@@IIII@Z ; CStateManager::DrawIndexedPrimitive

; 771  : 	
; 772  : 	STATEMANAGER.SetRenderState(D3DRS_FILLMODE, dwFillMode);

  00090	8b 0d 00 00 00
	00		 mov	 ecx, DWORD PTR ?ms_singleton@?$CSingleton@VCStateManager@@@@0PAVCStateManager@@A ; CSingleton<CStateManager>::ms_singleton
  00096	53		 push	 ebx
  00097	6a 08		 push	 8
  00099	e8 00 00 00 00	 call	 ?SetRenderState@CStateManager@@QAEXW4_D3DRENDERSTATETYPE@@K@Z ; CStateManager::SetRenderState

; 773  : 	STATEMANAGER.SetRenderState(D3DRS_FOGENABLE, dwFogEnable);

  0009e	8b 0d 00 00 00
	00		 mov	 ecx, DWORD PTR ?ms_singleton@?$CSingleton@VCStateManager@@@@0PAVCStateManager@@A ; CSingleton<CStateManager>::ms_singleton
  000a4	56		 push	 esi
  000a5	6a 1c		 push	 28			; 0000001cH
  000a7	e8 00 00 00 00	 call	 ?SetRenderState@CStateManager@@QAEXW4_D3DRENDERSTATETYPE@@K@Z ; CStateManager::SetRenderState

; 774  : 	
; 775  : 	STATEMANAGER.SetTextureStageState(0, D3DTSS_COLORARG1, D3DTA_TEXTURE);

  000ac	8b 0d 00 00 00
	00		 mov	 ecx, DWORD PTR ?ms_singleton@?$CSingleton@VCStateManager@@@@0PAVCStateManager@@A ; CSingleton<CStateManager>::ms_singleton
  000b2	6a 02		 push	 2
  000b4	6a 02		 push	 2
  000b6	6a 00		 push	 0
  000b8	e8 00 00 00 00	 call	 ?SetTextureStageState@CStateManager@@QAEXKW4_D3DTEXTURESTAGESTATETYPE@@K@Z ; CStateManager::SetTextureStageState

; 776  : 	STATEMANAGER.SetTextureStageState(0, D3DTSS_COLORARG2, D3DTA_CURRENT);

  000bd	8b 0d 00 00 00
	00		 mov	 ecx, DWORD PTR ?ms_singleton@?$CSingleton@VCStateManager@@@@0PAVCStateManager@@A ; CSingleton<CStateManager>::ms_singleton
  000c3	6a 01		 push	 1
  000c5	6a 03		 push	 3
  000c7	6a 00		 push	 0
  000c9	e8 00 00 00 00	 call	 ?SetTextureStageState@CStateManager@@QAEXKW4_D3DTEXTURESTAGESTATETYPE@@K@Z ; CStateManager::SetTextureStageState

; 777  : 	STATEMANAGER.SetTextureStageState(0, D3DTSS_COLOROP,   D3DTOP_MODULATE);	

  000ce	5f		 pop	 edi
  000cf	5e		 pop	 esi
  000d0	5b		 pop	 ebx
  000d1	c7 45 10 04 00
	00 00		 mov	 DWORD PTR _ePrimitiveType$[ebp], 4
  000d8	c7 45 0c 01 00
	00 00		 mov	 DWORD PTR _wPrimitiveCount$[ebp], 1
  000df	c7 45 08 00 00
	00 00		 mov	 DWORD PTR _pTerrainPatchProxy$[ebp], 0
  000e6	8b 0d 00 00 00
	00		 mov	 ecx, DWORD PTR ?ms_singleton@?$CSingleton@VCStateManager@@@@0PAVCStateManager@@A ; CSingleton<CStateManager>::ms_singleton

; 778  : }

  000ec	5d		 pop	 ebp

; 777  : 	STATEMANAGER.SetTextureStageState(0, D3DTSS_COLOROP,   D3DTOP_MODULATE);	

  000ed	e9 00 00 00 00	 jmp	 ?SetTextureStageState@CStateManager@@QAEXKW4_D3DTEXTURESTAGESTATETYPE@@K@Z ; CStateManager::SetTextureStageState
?NEW_DrawWireFrame@CMapOutdoor@@IAEXPAVCTerrainPatchProxy@@GW4_D3DPRIMITIVETYPE@@@Z ENDP ; CMapOutdoor::NEW_DrawWireFrame
_TEXT	ENDS
; Function compile flags: /Ogtp
; File D:\Metin2 Server Files\mainline\SRC_2014\Metin2Client\GameLib\MapOutdoorRender.cpp
; File C:\Program Files (x86)\Microsoft Visual Studio\2019\Community\VC\Tools\MSVC\14.28.29333\include\vector
; File D:\Metin2 Server Files\mainline\SRC_2014\Metin2Client\GameLib\MapOutdoorRender.cpp
; File C:\Program Files (x86)\Microsoft Visual Studio\2019\Community\VC\Tools\MSVC\14.28.29333\include\vector
; File D:\Metin2 Server Files\mainline\SRC_2014\Metin2Client\GameLib\MapOutdoorRender.cpp
; File C:\Program Files (x86)\Microsoft Visual Studio\2019\Community\VC\Tools\MSVC\14.28.29333\include\vector
; File C:\Program Files (x86)\Microsoft Visual Studio\2019\Community\VC\Tools\MSVC\14.28.29333\include\xmemory
; File C:\Program Files (x86)\Microsoft Visual Studio\2019\Community\VC\Tools\MSVC\14.28.29333\include\vector
; File D:\Metin2 Server Files\mainline\SRC_2014\Metin2Client\GameLib\MapOutdoorRender.cpp
; File D:\Metin2 Server Files\mainline\SRC_2014\Metin2Client\GameLib\MapOutdoor.h
; File D:\Metin2 Server Files\mainline\SRC_2014\Metin2Client\GameLib\MapOutdoorRender.cpp
;	COMDAT ?SetPatchDrawVector@CMapOutdoor@@IAEXXZ
_TEXT	SEGMENT
_aPatchDrawStruct$ = -44				; size = 16
_adistancePatchPair$1 = -28				; size = 8
$T2 = -20						; size = 1
_pTerrain$3 = -20					; size = 4
_pTerrainPatchProxy$1$ = -16				; size = 4
_lPatchNum$1$ = -12					; size = 4
_byTerrainNum$4 = -8					; size = 1
_this$1$ = -4						; size = 4
?SetPatchDrawVector@CMapOutdoor@@IAEXXZ PROC		; CMapOutdoor::SetPatchDrawVector, COMDAT
; _this$ = ecx

; 679  : {

  00000	55		 push	 ebp
  00001	8b ec		 mov	 ebp, esp
  00003	83 ec 2c	 sub	 esp, 44			; 0000002cH

; 680  : 	assert(NULL!=m_pTerrainPatchProxyList && "CMapOutdoor::__SetPatchDrawVector");
; 681  : 
; 682  : 	m_PatchDrawStructVector.clear();

  00006	8b 81 24 01 00
	00		 mov	 eax, DWORD PTR [ecx+292]
  0000c	56		 push	 esi
  0000d	57		 push	 edi
  0000e	8d b9 24 01 00
	00		 lea	 edi, DWORD PTR [ecx+292]
  00014	89 4d fc	 mov	 DWORD PTR _this$1$[ebp], ecx
  00017	89 47 04	 mov	 DWORD PTR [edi+4], eax
; File C:\Program Files (x86)\Microsoft Visual Studio\2019\Community\VC\Tools\MSVC\14.28.29333\include\vector

; 42   :     _Vector_const_iterator(_Tptr _Parg, const _Container_base* _Pvector) noexcept : _Ptr(_Parg) {

  0001a	8b b1 18 01 00
	00		 mov	 esi, DWORD PTR [ecx+280]
  00020	3b b1 1c 01 00
	00		 cmp	 esi, DWORD PTR [ecx+284]
; File D:\Metin2 Server Files\mainline\SRC_2014\Metin2Client\GameLib\MapOutdoorRender.cpp

; 689  : 	while(aDistancePatchVectorIterator != m_PatchVector.end())

  00026	0f 84 9d 00 00
	00		 je	 $LN3@SetPatchDr
  0002c	53		 push	 ebx
  0002d	0f 1f 00	 npad	 3
$LL2@SetPatchDr:

; 690  : 	{
; 691  : 		std::pair<float, long> adistancePatchPair = *aDistancePatchVectorIterator;

  00030	8b 56 04	 mov	 edx, DWORD PTR [esi+4]
  00033	8b 06		 mov	 eax, DWORD PTR [esi]
  00035	89 45 e4	 mov	 DWORD PTR _adistancePatchPair$1[ebp], eax

; 692  : 
; 693  : 		CTerrainPatchProxy * pTerrainPatchProxy = &m_pTerrainPatchProxyList[adistancePatchPair.second];

  00038	8d 0c d5 00 00
	00 00		 lea	 ecx, DWORD PTR [edx*8]
  0003f	2b ca		 sub	 ecx, edx
  00041	8b 55 fc	 mov	 edx, DWORD PTR _this$1$[ebp]
  00044	8b 42 64	 mov	 eax, DWORD PTR [edx+100]

; 694  : 
; 695  : 		if (!pTerrainPatchProxy->isUsed())

  00047	80 7c 88 04 00	 cmp	 BYTE PTR [eax+ecx*4+4], 0
  0004c	8d 04 88	 lea	 eax, DWORD PTR [eax+ecx*4]
  0004f	89 45 f0	 mov	 DWORD PTR _pTerrainPatchProxy$1$[ebp], eax
  00052	74 62		 je	 SHORT $LN47@SetPatchDr

; 696  : 		{
; 697  : 			++aDistancePatchVectorIterator;
; 698  : 			continue;
; 699  : 		}
; 700  : 
; 701  : 		long lPatchNum = pTerrainPatchProxy->GetPatchNum();

  00054	0f bf 48 06	 movsx	 ecx, WORD PTR [eax+6]
  00058	89 4d f4	 mov	 DWORD PTR _lPatchNum$1$[ebp], ecx

; 702  : 		if (lPatchNum < 0)

  0005b	85 c9		 test	 ecx, ecx
  0005d	78 57		 js	 SHORT $LN47@SetPatchDr

; 703  : 		{
; 704  : 			++aDistancePatchVectorIterator;
; 705  : 			continue;
; 706  : 		}
; 707  : 
; 708  : 		BYTE byTerrainNum = pTerrainPatchProxy->GetTerrainNum();

  0005f	8a 58 08	 mov	 bl, BYTE PTR [eax+8]
  00062	88 5d f8	 mov	 BYTE PTR _byTerrainNum$4[ebp], bl

; 709  : 		if (0xFF == byTerrainNum)

  00065	80 fb ff	 cmp	 bl, 255			; 000000ffH
  00068	74 4c		 je	 SHORT $LN47@SetPatchDr

; 710  : 		{
; 711  : 			++aDistancePatchVectorIterator;
; 712  : 			continue;
; 713  : 		}
; 714  : 
; 715  : 		CTerrain * pTerrain;
; 716  : 		if (!GetTerrainPointer(byTerrainNum, &pTerrain))

  0006a	8d 45 ec	 lea	 eax, DWORD PTR _pTerrain$3[ebp]
  0006d	8b ca		 mov	 ecx, edx
  0006f	50		 push	 eax
  00070	ff 75 f8	 push	 DWORD PTR _byTerrainNum$4[ebp]
  00073	e8 00 00 00 00	 call	 ?GetTerrainPointer@CMapOutdoor@@QAEHEPAPAVCTerrain@@@Z ; CMapOutdoor::GetTerrainPointer
  00078	85 c0		 test	 eax, eax
  0007a	74 3a		 je	 SHORT $LN47@SetPatchDr

; 724  : 		aPatchDrawStruct.lPatchNum				= lPatchNum;

  0007c	8b 45 f4	 mov	 eax, DWORD PTR _lPatchNum$1$[ebp]
  0007f	f3 0f 10 45 e4	 movss	 xmm0, DWORD PTR _adistancePatchPair$1[ebp]
  00084	89 45 dc	 mov	 DWORD PTR _aPatchDrawStruct$[ebp+8], eax

; 725  : 		aPatchDrawStruct.pTerrainPatchProxy		= pTerrainPatchProxy;

  00087	8b 45 f0	 mov	 eax, DWORD PTR _pTerrainPatchProxy$1$[ebp]
  0008a	89 45 e0	 mov	 DWORD PTR _aPatchDrawStruct$[ebp+12], eax
; File C:\Program Files (x86)\Microsoft Visual Studio\2019\Community\VC\Tools\MSVC\14.28.29333\include\vector

; 704  :         if (_Mylast != _My_data._Myend) {

  0008d	8b 47 04	 mov	 eax, DWORD PTR [edi+4]
; File D:\Metin2 Server Files\mainline\SRC_2014\Metin2Client\GameLib\MapOutdoorRender.cpp

; 722  : 		aPatchDrawStruct.fDistance				= adistancePatchPair.first;

  00090	f3 0f 11 45 d4	 movss	 DWORD PTR _aPatchDrawStruct$[ebp], xmm0

; 723  : 		aPatchDrawStruct.byTerrainNum			= byTerrainNum;

  00095	88 5d d8	 mov	 BYTE PTR _aPatchDrawStruct$[ebp+4], bl
; File C:\Program Files (x86)\Microsoft Visual Studio\2019\Community\VC\Tools\MSVC\14.28.29333\include\vector

; 704  :         if (_Mylast != _My_data._Myend) {

  00098	3b 47 08	 cmp	 eax, DWORD PTR [edi+8]
  0009b	74 0d		 je	 SHORT $LN48@SetPatchDr
; File C:\Program Files (x86)\Microsoft Visual Studio\2019\Community\VC\Tools\MSVC\14.28.29333\include\xmemory

; 701  :         ::new (const_cast<void*>(static_cast<const volatile void*>(_Ptr))) _Objty(_STD forward<_Types>(_Args)...);

  0009d	0f 10 45 d4	 movups	 xmm0, XMMWORD PTR _aPatchDrawStruct$[ebp]
  000a1	0f 11 00	 movups	 XMMWORD PTR [eax], xmm0
; File C:\Program Files (x86)\Microsoft Visual Studio\2019\Community\VC\Tools\MSVC\14.28.29333\include\vector

; 690  :         ++_Mylast;

  000a4	83 47 04 10	 add	 DWORD PTR [edi+4], 16	; 00000010H

; 705  :             return _Emplace_back_with_unused_capacity(_STD forward<_Valty>(_Val)...);

  000a8	eb 0c		 jmp	 SHORT $LN47@SetPatchDr
$LN48@SetPatchDr:

; 706  :         }
; 707  : 
; 708  :         _Ty& _Result = *_Emplace_reallocate(_Mylast, _STD forward<_Valty>(_Val)...);

  000aa	8d 4d d4	 lea	 ecx, DWORD PTR _aPatchDrawStruct$[ebp]
  000ad	51		 push	 ecx
  000ae	50		 push	 eax
  000af	8b cf		 mov	 ecx, edi
  000b1	e8 00 00 00 00	 call	 ??$_Emplace_reallocate@ABUTPatchDrawStruct@CMapOutdoor@@@?$vector@UTPatchDrawStruct@CMapOutdoor@@V?$allocator@UTPatchDrawStruct@CMapOutdoor@@@std@@@std@@QAEPAUTPatchDrawStruct@CMapOutdoor@@QAU23@ABU23@@Z ; std::vector<CMapOutdoor::TPatchDrawStruct,std::allocator<CMapOutdoor::TPatchDrawStruct> >::_Emplace_reallocate<CMapOutdoor::TPatchDrawStruct const &>
$LN47@SetPatchDr:

; 149  :         return _Ptr == _Right._Ptr;

  000b6	8b 4d fc	 mov	 ecx, DWORD PTR _this$1$[ebp]

; 1421 :         return iterator(_My_data._Mylast, _STD addressof(_My_data));

  000b9	83 c6 08	 add	 esi, 8

; 149  :         return _Ptr == _Right._Ptr;

  000bc	3b b1 1c 01 00
	00		 cmp	 esi, DWORD PTR [ecx+284]
; File D:\Metin2 Server Files\mainline\SRC_2014\Metin2Client\GameLib\MapOutdoorRender.cpp

; 689  : 	while(aDistancePatchVectorIterator != m_PatchVector.end())

  000c2	0f 85 68 ff ff
	ff		 jne	 $LL2@SetPatchDr
  000c8	5b		 pop	 ebx
$LN3@SetPatchDr:

; 732  : 	std::stable_sort(m_PatchDrawStructVector.begin(), m_PatchDrawStructVector.end(), FSortPatchDrawStructWithTerrainNum());

  000c9	ff 75 ec	 push	 DWORD PTR $T2[ebp]
; File D:\Metin2 Server Files\mainline\SRC_2014\Metin2Client\GameLib\MapOutdoor.h

; 355  : 				m_TerrainNumVector.clear();

  000cc	a1 00 00 00 00	 mov	 eax, DWORD PTR ?m_TerrainNumVector@FSortPatchDrawStructWithTerrainNum@CMapOutdoor@@2V?$vector@EV?$allocator@E@std@@@std@@A
  000d1	a3 04 00 00 00	 mov	 DWORD PTR ?m_TerrainNumVector@FSortPatchDrawStructWithTerrainNum@CMapOutdoor@@2V?$vector@EV?$allocator@E@std@@@std@@A+4, eax
; File D:\Metin2 Server Files\mainline\SRC_2014\Metin2Client\GameLib\MapOutdoorRender.cpp

; 732  : 	std::stable_sort(m_PatchDrawStructVector.begin(), m_PatchDrawStructVector.end(), FSortPatchDrawStructWithTerrainNum());

  000d6	ff b1 28 01 00
	00		 push	 DWORD PTR [ecx+296]
  000dc	ff 37		 push	 DWORD PTR [edi]
  000de	e8 00 00 00 00	 call	 ??$stable_sort@V?$_Vector_iterator@V?$_Vector_val@U?$_Simple_types@UTPatchDrawStruct@CMapOutdoor@@@std@@@std@@@std@@UFSortPatchDrawStructWithTerrainNum@CMapOutdoor@@@std@@YAXV?$_Vector_iterator@V?$_Vector_val@U?$_Simple_types@UTPatchDrawStruct@CMapOutdoor@@@std@@@std@@@0@0UFSortPatchDrawStructWithTerrainNum@CMapOutdoor@@@Z ; std::stable_sort<std::_Vector_iterator<std::_Vector_val<std::_Simple_types<CMapOutdoor::TPatchDrawStruct> > >,CMapOutdoor::FSortPatchDrawStructWithTerrainNum>
  000e3	83 c4 0c	 add	 esp, 12			; 0000000cH
  000e6	5f		 pop	 edi
  000e7	5e		 pop	 esi

; 733  : }

  000e8	8b e5		 mov	 esp, ebp
  000ea	5d		 pop	 ebp
  000eb	c3		 ret	 0
?SetPatchDrawVector@CMapOutdoor@@IAEXXZ ENDP		; CMapOutdoor::SetPatchDrawVector
_TEXT	ENDS
; Function compile flags: /Ogtp
; File C:\Program Files (x86)\Microsoft Visual Studio\2019\Community\VC\Tools\MSVC\14.28.29333\include\vector
;	COMDAT ?_Xlength@?$vector@UTPatchDrawStruct@CMapOutdoor@@V?$allocator@UTPatchDrawStruct@CMapOutdoor@@@std@@@std@@CAXXZ
_TEXT	SEGMENT
?_Xlength@?$vector@UTPatchDrawStruct@CMapOutdoor@@V?$allocator@UTPatchDrawStruct@CMapOutdoor@@@std@@@std@@CAXXZ PROC ; std::vector<CMapOutdoor::TPatchDrawStruct,std::allocator<CMapOutdoor::TPatchDrawStruct> >::_Xlength, COMDAT

; 1705 :         _Xlength_error("vector too long");

  00000	68 00 00 00 00	 push	 OFFSET ??_C@_0BA@FOIKENOD@vector?5too?5long@
  00005	e8 00 00 00 00	 call	 ?_Xlength_error@std@@YAXPBD@Z ; std::_Xlength_error
$LN3@Xlength:
  0000a	cc		 int	 3
?_Xlength@?$vector@UTPatchDrawStruct@CMapOutdoor@@V?$allocator@UTPatchDrawStruct@CMapOutdoor@@@std@@@std@@CAXXZ ENDP ; std::vector<CMapOutdoor::TPatchDrawStruct,std::allocator<CMapOutdoor::TPatchDrawStruct> >::_Xlength
_TEXT	ENDS
; Function compile flags: /Ogtp
; File C:\Program Files (x86)\Microsoft Visual Studio\2019\Community\VC\Tools\MSVC\14.28.29333\include\vector
;	COMDAT ?_Xlength@?$vector@U?$pair@MJ@std@@V?$allocator@U?$pair@MJ@std@@@2@@std@@CAXXZ
_TEXT	SEGMENT
?_Xlength@?$vector@U?$pair@MJ@std@@V?$allocator@U?$pair@MJ@std@@@2@@std@@CAXXZ PROC ; std::vector<std::pair<float,long>,std::allocator<std::pair<float,long> > >::_Xlength, COMDAT

; 1705 :         _Xlength_error("vector too long");

  00000	68 00 00 00 00	 push	 OFFSET ??_C@_0BA@FOIKENOD@vector?5too?5long@
  00005	e8 00 00 00 00	 call	 ?_Xlength_error@std@@YAXPBD@Z ; std::_Xlength_error
$LN3@Xlength:
  0000a	cc		 int	 3
?_Xlength@?$vector@U?$pair@MJ@std@@V?$allocator@U?$pair@MJ@std@@@2@@std@@CAXXZ ENDP ; std::vector<std::pair<float,long>,std::allocator<std::pair<float,long> > >::_Xlength
_TEXT	ENDS
; Function compile flags: /Ogtp
; File D:\Metin2 Server Files\mainline\SRC_2014\Metin2Client\GameLib\MapOutdoorRender.cpp
;	COMDAT ?RenderTree@CMapOutdoor@@QAEXXZ
_TEXT	SEGMENT
?RenderTree@CMapOutdoor@@QAEXXZ PROC			; CMapOutdoor::RenderTree, COMDAT
; _this$ = ecx

; 238  : 	if (IsVisiblePart(PART_TREE))

  00000	6a 04		 push	 4
  00002	e8 00 00 00 00	 call	 ?IsVisiblePart@CMapOutdoor@@IAE_NH@Z ; CMapOutdoor::IsVisiblePart
  00007	84 c0		 test	 al, al
  00009	74 0d		 je	 SHORT $LN2@RenderTree

; 239  : 		CSpeedTreeForestDirectX8::Instance().Render();

  0000b	8b 0d 00 00 00
	00		 mov	 ecx, DWORD PTR ?ms_singleton@?$CSingleton@VCSpeedTreeForestDirectX8@@@@0PAVCSpeedTreeForestDirectX8@@A ; CSingleton<CSpeedTreeForestDirectX8>::ms_singleton
  00011	6a 0f		 push	 15			; 0000000fH
  00013	8b 01		 mov	 eax, DWORD PTR [ecx]
  00015	ff 50 08	 call	 DWORD PTR [eax+8]
$LN2@RenderTree:

; 240  : }

  00018	c3		 ret	 0
?RenderTree@CMapOutdoor@@QAEXXZ ENDP			; CMapOutdoor::RenderTree
_TEXT	ENDS
; Function compile flags: /Ogtp
; File D:\Metin2 Server Files\mainline\SRC_2014\Metin2Client\GameLib\MapOutdoorRender.cpp
; File C:\Program Files (x86)\Microsoft Visual Studio\2019\Community\VC\Tools\MSVC\14.28.29333\include\vector
; File D:\Metin2 Server Files\mainline\SRC_2014\Metin2Client\GameLib\MapOutdoorRender.cpp
; File C:\Program Files (x86)\Microsoft Visual Studio\2019\Community\VC\Tools\MSVC\14.28.29333\include\vector
; File C:\Program Files (x86)\Microsoft Visual Studio\2019\Community\VC\Tools\MSVC\14.28.29333\include\algorithm
; File C:\Program Files (x86)\Microsoft Visual Studio\2019\Community\VC\Tools\MSVC\14.28.29333\include\vector
; File C:\Program Files (x86)\Microsoft Visual Studio\2019\Community\VC\Tools\MSVC\14.28.29333\include\algorithm
; File D:\Metin2 Server Files\mainline\SRC_2014\Metin2Client\GameLib\MapOutdoorRender.cpp
; File C:\Program Files (x86)\Microsoft Visual Studio\2019\Community\VC\Tools\MSVC\14.28.29333\include\algorithm
; File D:\Metin2 Server Files\mainline\SRC_2014\Metin2Client\GameLib\MapOutdoorRender.cpp
;	COMDAT ?RenderPCBlocker@CMapOutdoor@@QAEXXZ
_TEXT	SEGMENT
tv422 = -4						; size = 4
?RenderPCBlocker@CMapOutdoor@@QAEXXZ PROC		; CMapOutdoor::RenderPCBlocker, COMDAT
; _this$ = ecx

; 612  : {

  00000	55		 push	 ebp
  00001	8b ec		 mov	 ebp, esp
  00003	51		 push	 ecx
  00004	56		 push	 esi
  00005	8b f1		 mov	 esi, ecx
; File C:\Program Files (x86)\Microsoft Visual Studio\2019\Community\VC\Tools\MSVC\14.28.29333\include\vector

; 1484 :         return static_cast<size_type>(_My_data._Mylast - _My_data._Myfirst);

  00007	8b 86 1c 0a 00
	00		 mov	 eax, DWORD PTR [esi+2588]
  0000d	2b 86 18 0a 00
	00		 sub	 eax, DWORD PTR [esi+2584]
; File D:\Metin2 Server Files\mainline\SRC_2014\Metin2Client\GameLib\MapOutdoorRender.cpp

; 615  : 	if (m_PCBlockerVector.size() != 0)

  00013	a9 fc ff ff ff	 test	 eax, -4			; fffffffcH
  00018	0f 84 7f 02 00
	00		 je	 $LN2@RenderPCBl

; 616  : 	{
; 617  : 		STATEMANAGER.SetTexture(0, NULL);

  0001e	8b 0d 00 00 00
	00		 mov	 ecx, DWORD PTR ?ms_singleton@?$CSingleton@VCStateManager@@@@0PAVCStateManager@@A ; CSingleton<CStateManager>::ms_singleton
  00024	6a 00		 push	 0
  00026	6a 00		 push	 0
  00028	e8 00 00 00 00	 call	 ?SetTexture@CStateManager@@QAEXKPAUIDirect3DBaseTexture8@@@Z ; CStateManager::SetTexture

; 618  : 		STATEMANAGER.SetTextureStageState(0, D3DTSS_COLORARG1,	D3DTA_TEXTURE);

  0002d	8b 0d 00 00 00
	00		 mov	 ecx, DWORD PTR ?ms_singleton@?$CSingleton@VCStateManager@@@@0PAVCStateManager@@A ; CSingleton<CStateManager>::ms_singleton
  00033	6a 02		 push	 2
  00035	6a 02		 push	 2
  00037	6a 00		 push	 0
  00039	e8 00 00 00 00	 call	 ?SetTextureStageState@CStateManager@@QAEXKW4_D3DTEXTURESTAGESTATETYPE@@K@Z ; CStateManager::SetTextureStageState

; 619  : 		STATEMANAGER.SetTextureStageState(0, D3DTSS_COLORARG2,	D3DTA_CURRENT);

  0003e	8b 0d 00 00 00
	00		 mov	 ecx, DWORD PTR ?ms_singleton@?$CSingleton@VCStateManager@@@@0PAVCStateManager@@A ; CSingleton<CStateManager>::ms_singleton
  00044	6a 01		 push	 1
  00046	6a 03		 push	 3
  00048	6a 00		 push	 0
  0004a	e8 00 00 00 00	 call	 ?SetTextureStageState@CStateManager@@QAEXKW4_D3DTEXTURESTAGESTATETYPE@@K@Z ; CStateManager::SetTextureStageState

; 620  : 		STATEMANAGER.SetTextureStageState(0, D3DTSS_COLOROP,	D3DTOP_MODULATE);

  0004f	8b 0d 00 00 00
	00		 mov	 ecx, DWORD PTR ?ms_singleton@?$CSingleton@VCStateManager@@@@0PAVCStateManager@@A ; CSingleton<CStateManager>::ms_singleton
  00055	6a 04		 push	 4
  00057	6a 01		 push	 1
  00059	6a 00		 push	 0
  0005b	e8 00 00 00 00	 call	 ?SetTextureStageState@CStateManager@@QAEXKW4_D3DTEXTURESTAGESTATETYPE@@K@Z ; CStateManager::SetTextureStageState

; 621  : 		STATEMANAGER.SetTextureStageState(0, D3DTSS_ALPHAARG1,	D3DTA_TEXTURE);

  00060	8b 0d 00 00 00
	00		 mov	 ecx, DWORD PTR ?ms_singleton@?$CSingleton@VCStateManager@@@@0PAVCStateManager@@A ; CSingleton<CStateManager>::ms_singleton
  00066	6a 02		 push	 2
  00068	6a 05		 push	 5
  0006a	6a 00		 push	 0
  0006c	e8 00 00 00 00	 call	 ?SetTextureStageState@CStateManager@@QAEXKW4_D3DTEXTURESTAGESTATETYPE@@K@Z ; CStateManager::SetTextureStageState

; 622  : 		STATEMANAGER.SetTextureStageState(0, D3DTSS_ALPHAOP,	D3DTOP_SELECTARG1);

  00071	8b 0d 00 00 00
	00		 mov	 ecx, DWORD PTR ?ms_singleton@?$CSingleton@VCStateManager@@@@0PAVCStateManager@@A ; CSingleton<CStateManager>::ms_singleton
  00077	6a 02		 push	 2
  00079	6a 04		 push	 4
  0007b	6a 00		 push	 0
  0007d	e8 00 00 00 00	 call	 ?SetTextureStageState@CStateManager@@QAEXKW4_D3DTEXTURESTAGESTATETYPE@@K@Z ; CStateManager::SetTextureStageState

; 623  : 		STATEMANAGER.SetTextureStageState(1, D3DTSS_COLOROP,	D3DTOP_SELECTARG1);

  00082	8b 0d 00 00 00
	00		 mov	 ecx, DWORD PTR ?ms_singleton@?$CSingleton@VCStateManager@@@@0PAVCStateManager@@A ; CSingleton<CStateManager>::ms_singleton
  00088	6a 02		 push	 2
  0008a	6a 01		 push	 1
  0008c	6a 01		 push	 1
  0008e	e8 00 00 00 00	 call	 ?SetTextureStageState@CStateManager@@QAEXKW4_D3DTEXTURESTAGESTATETYPE@@K@Z ; CStateManager::SetTextureStageState

; 624  : 		STATEMANAGER.SetTextureStageState(1, D3DTSS_ALPHAOP,	D3DTOP_DISABLE);

  00093	8b 0d 00 00 00
	00		 mov	 ecx, DWORD PTR ?ms_singleton@?$CSingleton@VCStateManager@@@@0PAVCStateManager@@A ; CSingleton<CStateManager>::ms_singleton
  00099	6a 01		 push	 1
  0009b	6a 04		 push	 4
  0009d	6a 01		 push	 1
  0009f	e8 00 00 00 00	 call	 ?SetTextureStageState@CStateManager@@QAEXKW4_D3DTEXTURESTAGESTATETYPE@@K@Z ; CStateManager::SetTextureStageState

; 625  : 
; 626  : 		STATEMANAGER.SaveRenderState(D3DRS_ALPHABLENDENABLE, TRUE);

  000a4	8b 0d 00 00 00
	00		 mov	 ecx, DWORD PTR ?ms_singleton@?$CSingleton@VCStateManager@@@@0PAVCStateManager@@A ; CSingleton<CStateManager>::ms_singleton
  000aa	6a 01		 push	 1
  000ac	6a 1b		 push	 27			; 0000001bH
  000ae	e8 00 00 00 00	 call	 ?SaveRenderState@CStateManager@@QAEXW4_D3DRENDERSTATETYPE@@K@Z ; CStateManager::SaveRenderState

; 627  : 		STATEMANAGER.SaveTextureStageState(1, D3DTSS_TEXCOORDINDEX, D3DTSS_TCI_CAMERASPACEPOSITION);

  000b3	8b 0d 00 00 00
	00		 mov	 ecx, DWORD PTR ?ms_singleton@?$CSingleton@VCStateManager@@@@0PAVCStateManager@@A ; CSingleton<CStateManager>::ms_singleton
  000b9	68 00 00 02 00	 push	 131072			; 00020000H
  000be	6a 0b		 push	 11			; 0000000bH
  000c0	6a 01		 push	 1
  000c2	e8 00 00 00 00	 call	 ?SaveTextureStageState@CStateManager@@QAEXKW4_D3DTEXTURESTAGESTATETYPE@@K@Z ; CStateManager::SaveTextureStageState

; 628  : 		STATEMANAGER.SaveTextureStageState(1, D3DTSS_TEXTURETRANSFORMFLAGS, D3DTTFF_COUNT2);

  000c7	8b 0d 00 00 00
	00		 mov	 ecx, DWORD PTR ?ms_singleton@?$CSingleton@VCStateManager@@@@0PAVCStateManager@@A ; CSingleton<CStateManager>::ms_singleton
  000cd	6a 02		 push	 2
  000cf	6a 18		 push	 24			; 00000018H
  000d1	6a 01		 push	 1
  000d3	e8 00 00 00 00	 call	 ?SaveTextureStageState@CStateManager@@QAEXKW4_D3DTEXTURESTAGESTATETYPE@@K@Z ; CStateManager::SaveTextureStageState

; 629  : 		STATEMANAGER.SetTextureStageState(1, D3DTSS_COLORARG1, D3DTA_CURRENT);

  000d8	8b 0d 00 00 00
	00		 mov	 ecx, DWORD PTR ?ms_singleton@?$CSingleton@VCStateManager@@@@0PAVCStateManager@@A ; CSingleton<CStateManager>::ms_singleton
  000de	6a 01		 push	 1
  000e0	6a 02		 push	 2
  000e2	6a 01		 push	 1
  000e4	e8 00 00 00 00	 call	 ?SetTextureStageState@CStateManager@@QAEXKW4_D3DTEXTURESTAGESTATETYPE@@K@Z ; CStateManager::SetTextureStageState

; 630  : 		STATEMANAGER.SetTextureStageState(1, D3DTSS_COLOROP, D3DTOP_SELECTARG1);

  000e9	8b 0d 00 00 00
	00		 mov	 ecx, DWORD PTR ?ms_singleton@?$CSingleton@VCStateManager@@@@0PAVCStateManager@@A ; CSingleton<CStateManager>::ms_singleton
  000ef	6a 02		 push	 2
  000f1	6a 01		 push	 1
  000f3	6a 01		 push	 1
  000f5	e8 00 00 00 00	 call	 ?SetTextureStageState@CStateManager@@QAEXKW4_D3DTEXTURESTAGESTATETYPE@@K@Z ; CStateManager::SetTextureStageState

; 631  : 		STATEMANAGER.SetTextureStageState(1, D3DTSS_ALPHAARG1, D3DTA_TEXTURE);

  000fa	8b 0d 00 00 00
	00		 mov	 ecx, DWORD PTR ?ms_singleton@?$CSingleton@VCStateManager@@@@0PAVCStateManager@@A ; CSingleton<CStateManager>::ms_singleton
  00100	6a 02		 push	 2
  00102	6a 05		 push	 5
  00104	6a 01		 push	 1
  00106	e8 00 00 00 00	 call	 ?SetTextureStageState@CStateManager@@QAEXKW4_D3DTEXTURESTAGESTATETYPE@@K@Z ; CStateManager::SetTextureStageState

; 632  : 		STATEMANAGER.SetTextureStageState(1, D3DTSS_ALPHAOP, D3DTOP_SELECTARG1);

  0010b	8b 0d 00 00 00
	00		 mov	 ecx, DWORD PTR ?ms_singleton@?$CSingleton@VCStateManager@@@@0PAVCStateManager@@A ; CSingleton<CStateManager>::ms_singleton
  00111	6a 02		 push	 2
  00113	6a 04		 push	 4
  00115	6a 01		 push	 1
  00117	e8 00 00 00 00	 call	 ?SetTextureStageState@CStateManager@@QAEXKW4_D3DTEXTURESTAGESTATETYPE@@K@Z ; CStateManager::SetTextureStageState

; 633  : 		STATEMANAGER.SaveTextureStageState(1, D3DTSS_ADDRESSU,	D3DTADDRESS_CLAMP);

  0011c	8b 0d 00 00 00
	00		 mov	 ecx, DWORD PTR ?ms_singleton@?$CSingleton@VCStateManager@@@@0PAVCStateManager@@A ; CSingleton<CStateManager>::ms_singleton
  00122	6a 03		 push	 3
  00124	6a 0d		 push	 13			; 0000000dH
  00126	6a 01		 push	 1
  00128	e8 00 00 00 00	 call	 ?SaveTextureStageState@CStateManager@@QAEXKW4_D3DTEXTURESTAGESTATETYPE@@K@Z ; CStateManager::SaveTextureStageState

; 634  : 		STATEMANAGER.SaveTextureStageState(1, D3DTSS_ADDRESSV,	D3DTADDRESS_CLAMP);	

  0012d	6a 03		 push	 3
  0012f	6a 0e		 push	 14			; 0000000eH
  00131	6a 01		 push	 1
  00133	8b 0d 00 00 00
	00		 mov	 ecx, DWORD PTR ?ms_singleton@?$CSingleton@VCStateManager@@@@0PAVCStateManager@@A ; CSingleton<CStateManager>::ms_singleton
  00139	e8 00 00 00 00	 call	 ?SaveTextureStageState@CStateManager@@QAEXKW4_D3DTEXTURESTAGESTATETYPE@@K@Z ; CStateManager::SaveTextureStageState

; 635  : 
; 636  : 		STATEMANAGER.SaveTransform(D3DTS_TEXTURE1, &m_matBuildingTransparent);

  0013e	8b 0d 00 00 00
	00		 mov	 ecx, DWORD PTR ?ms_singleton@?$CSingleton@VCStateManager@@@@0PAVCStateManager@@A ; CSingleton<CStateManager>::ms_singleton
  00144	8d 86 2c 0e 00
	00		 lea	 eax, DWORD PTR [esi+3628]
  0014a	50		 push	 eax
  0014b	6a 11		 push	 17			; 00000011H
  0014d	e8 00 00 00 00	 call	 ?SaveTransform@CStateManager@@QAEXW4_D3DTRANSFORMSTATETYPE@@PBU_D3DMATRIX@@@Z ; CStateManager::SaveTransform

; 637  : 		STATEMANAGER.SetTexture(1, m_BuildingTransparentImageInstance.GetTexturePointer()->GetD3DTexture());

  00152	8d 8e 0c 0e 00
	00		 lea	 ecx, DWORD PTR [esi+3596]
  00158	e8 00 00 00 00	 call	 ?GetTexturePointer@CGraphicImageInstance@@QAEPAVCGraphicTexture@@XZ ; CGraphicImageInstance::GetTexturePointer
  0015d	8b c8		 mov	 ecx, eax
  0015f	e8 00 00 00 00	 call	 ?GetD3DTexture@CGraphicTexture@@QBEPAUIDirect3DTexture8@@XZ ; CGraphicTexture::GetD3DTexture
  00164	8b 0d 00 00 00
	00		 mov	 ecx, DWORD PTR ?ms_singleton@?$CSingleton@VCStateManager@@@@0PAVCStateManager@@A ; CSingleton<CStateManager>::ms_singleton
  0016a	50		 push	 eax
  0016b	6a 01		 push	 1
  0016d	e8 00 00 00 00	 call	 ?SetTexture@CStateManager@@QAEXKPAUIDirect3DBaseTexture8@@@Z ; CStateManager::SetTexture
; File C:\Program Files (x86)\Microsoft Visual Studio\2019\Community\VC\Tools\MSVC\14.28.29333\include\vector

; 42   :     _Vector_const_iterator(_Tptr _Parg, const _Container_base* _Pvector) noexcept : _Ptr(_Parg) {

  00172	8b 86 1c 0a 00
	00		 mov	 eax, DWORD PTR [esi+2588]
; File C:\Program Files (x86)\Microsoft Visual Studio\2019\Community\VC\Tools\MSVC\14.28.29333\include\algorithm

; 307  :     for (; _UFirst != _ULast; ++_UFirst) {

  00178	8b b6 18 0a 00
	00		 mov	 esi, DWORD PTR [esi+2584]
; File C:\Program Files (x86)\Microsoft Visual Studio\2019\Community\VC\Tools\MSVC\14.28.29333\include\vector

; 42   :     _Vector_const_iterator(_Tptr _Parg, const _Container_base* _Pvector) noexcept : _Ptr(_Parg) {

  0017e	89 45 fc	 mov	 DWORD PTR tv422[ebp], eax
; File C:\Program Files (x86)\Microsoft Visual Studio\2019\Community\VC\Tools\MSVC\14.28.29333\include\algorithm

; 307  :     for (; _UFirst != _ULast; ++_UFirst) {

  00181	3b f0		 cmp	 esi, eax
  00183	74 6f		 je	 SHORT $LN20@RenderPCBl
  00185	53		 push	 ebx
  00186	57		 push	 edi
$LL21@RenderPCBl:

; 308  :         _Func(*_UFirst);

  00187	8b 1e		 mov	 ebx, DWORD PTR [esi]
; File D:\Metin2 Server Files\mainline\SRC_2014\Metin2Client\GameLib\MapOutdoorRender.cpp

; 321  : 		pInstance->Show();

  00189	8b cb		 mov	 ecx, ebx
  0018b	e8 00 00 00 00	 call	 ?Show@CGraphicObjectInstance@@QAEXXZ ; CGraphicObjectInstance::Show

; 322  : 		CGraphicThingInstance* pThingInstance = dynamic_cast <CGraphicThingInstance*> (pInstance);

  00190	6a 00		 push	 0
  00192	68 00 00 00 00	 push	 OFFSET ??_R0?AVCGraphicThingInstance@@@8
  00197	68 00 00 00 00	 push	 OFFSET ??_R0?AVCGraphicObjectInstance@@@8
  0019c	6a 00		 push	 0
  0019e	53		 push	 ebx
  0019f	e8 00 00 00 00	 call	 ___RTDynamicCast
  001a4	8b f8		 mov	 edi, eax
  001a6	83 c4 14	 add	 esp, 20			; 00000014H

; 323  : 		if (pThingInstance != NULL)

  001a9	85 ff		 test	 edi, edi
  001ab	74 25		 je	 SHORT $LN25@RenderPCBl

; 324  : 		{
; 325  : 			if (pThingInstance->HaveBlendThing())

  001ad	8b cf		 mov	 ecx, edi
  001af	e8 00 00 00 00	 call	 ?HaveBlendThing@CGraphicThingInstance@@QAE_NXZ ; CGraphicThingInstance::HaveBlendThing
  001b4	84 c0		 test	 al, al
  001b6	74 1a		 je	 SHORT $LN25@RenderPCBl

; 326  : 			{
; 327  : 				STATEMANAGER.SetTextureStageState(1, D3DTSS_ALPHAOP,   D3DTOP_DISABLE);

  001b8	8b 0d 00 00 00
	00		 mov	 ecx, DWORD PTR ?ms_singleton@?$CSingleton@VCStateManager@@@@0PAVCStateManager@@A ; CSingleton<CStateManager>::ms_singleton
  001be	6a 01		 push	 1
  001c0	6a 04		 push	 4
  001c2	6a 01		 push	 1
  001c4	e8 00 00 00 00	 call	 ?SetTextureStageState@CStateManager@@QAEXKW4_D3DTEXTURESTAGESTATETYPE@@K@Z ; CStateManager::SetTextureStageState

; 328  : 				pThingInstance->BlendRender();

  001c9	8b cf		 mov	 ecx, edi
  001cb	e8 00 00 00 00	 call	 ?BlendRender@CGraphicObjectInstance@@QAEXXZ ; CGraphicObjectInstance::BlendRender

; 329  : 				return;

  001d0	eb 18		 jmp	 SHORT $LN19@RenderPCBl
$LN25@RenderPCBl:

; 330  : 			}
; 331  : 		}
; 332  : 		STATEMANAGER.SetTextureStageState(1, D3DTSS_ALPHAOP, D3DTOP_SELECTARG1);

  001d2	8b 0d 00 00 00
	00		 mov	 ecx, DWORD PTR ?ms_singleton@?$CSingleton@VCStateManager@@@@0PAVCStateManager@@A ; CSingleton<CStateManager>::ms_singleton
  001d8	6a 02		 push	 2
  001da	6a 04		 push	 4
  001dc	6a 01		 push	 1
  001de	e8 00 00 00 00	 call	 ?SetTextureStageState@CStateManager@@QAEXKW4_D3DTEXTURESTAGESTATETYPE@@K@Z ; CStateManager::SetTextureStageState

; 333  : 
; 334  : 		pInstance->RenderPCBlocker();

  001e3	8b cb		 mov	 ecx, ebx
  001e5	e8 00 00 00 00	 call	 ?RenderPCBlocker@CGraphicObjectInstance@@QAEXXZ ; CGraphicObjectInstance::RenderPCBlocker
$LN19@RenderPCBl:
; File C:\Program Files (x86)\Microsoft Visual Studio\2019\Community\VC\Tools\MSVC\14.28.29333\include\algorithm

; 307  :     for (; _UFirst != _ULast; ++_UFirst) {

  001ea	83 c6 04	 add	 esi, 4
  001ed	3b 75 fc	 cmp	 esi, DWORD PTR tv422[ebp]
  001f0	75 95		 jne	 SHORT $LL21@RenderPCBl
  001f2	5f		 pop	 edi
  001f3	5b		 pop	 ebx
$LN20@RenderPCBl:
; File D:\Metin2 Server Files\mainline\SRC_2014\Metin2Client\GameLib\MapOutdoorRender.cpp

; 641  : 		STATEMANAGER.SetTexture(1, NULL);

  001f4	8b 0d 00 00 00
	00		 mov	 ecx, DWORD PTR ?ms_singleton@?$CSingleton@VCStateManager@@@@0PAVCStateManager@@A ; CSingleton<CStateManager>::ms_singleton
  001fa	6a 00		 push	 0
  001fc	6a 01		 push	 1
  001fe	e8 00 00 00 00	 call	 ?SetTexture@CStateManager@@QAEXKPAUIDirect3DBaseTexture8@@@Z ; CStateManager::SetTexture

; 642  : 		STATEMANAGER.RestoreTransform(D3DTS_TEXTURE1);

  00203	8b 0d 00 00 00
	00		 mov	 ecx, DWORD PTR ?ms_singleton@?$CSingleton@VCStateManager@@@@0PAVCStateManager@@A ; CSingleton<CStateManager>::ms_singleton
  00209	6a 11		 push	 17			; 00000011H
  0020b	e8 00 00 00 00	 call	 ?RestoreTransform@CStateManager@@QAEXW4_D3DTRANSFORMSTATETYPE@@@Z ; CStateManager::RestoreTransform

; 643  : 
; 644  : 		STATEMANAGER.RestoreTextureStageState(1, D3DTSS_TEXCOORDINDEX);

  00210	8b 0d 00 00 00
	00		 mov	 ecx, DWORD PTR ?ms_singleton@?$CSingleton@VCStateManager@@@@0PAVCStateManager@@A ; CSingleton<CStateManager>::ms_singleton
  00216	6a 0b		 push	 11			; 0000000bH
  00218	6a 01		 push	 1
  0021a	e8 00 00 00 00	 call	 ?RestoreTextureStageState@CStateManager@@QAEXKW4_D3DTEXTURESTAGESTATETYPE@@@Z ; CStateManager::RestoreTextureStageState

; 645  : 		STATEMANAGER.RestoreTextureStageState(1, D3DTSS_TEXTURETRANSFORMFLAGS);

  0021f	8b 0d 00 00 00
	00		 mov	 ecx, DWORD PTR ?ms_singleton@?$CSingleton@VCStateManager@@@@0PAVCStateManager@@A ; CSingleton<CStateManager>::ms_singleton
  00225	6a 18		 push	 24			; 00000018H
  00227	6a 01		 push	 1
  00229	e8 00 00 00 00	 call	 ?RestoreTextureStageState@CStateManager@@QAEXKW4_D3DTEXTURESTAGESTATETYPE@@@Z ; CStateManager::RestoreTextureStageState

; 646  : 		STATEMANAGER.SetTextureStageState(1, D3DTSS_COLORARG1, D3DTA_TEXTURE);

  0022e	8b 0d 00 00 00
	00		 mov	 ecx, DWORD PTR ?ms_singleton@?$CSingleton@VCStateManager@@@@0PAVCStateManager@@A ; CSingleton<CStateManager>::ms_singleton
  00234	6a 02		 push	 2
  00236	6a 02		 push	 2
  00238	6a 01		 push	 1
  0023a	e8 00 00 00 00	 call	 ?SetTextureStageState@CStateManager@@QAEXKW4_D3DTEXTURESTAGESTATETYPE@@K@Z ; CStateManager::SetTextureStageState

; 647  : 		STATEMANAGER.SetTextureStageState(1, D3DTSS_COLOROP, D3DTOP_DISABLE);

  0023f	8b 0d 00 00 00
	00		 mov	 ecx, DWORD PTR ?ms_singleton@?$CSingleton@VCStateManager@@@@0PAVCStateManager@@A ; CSingleton<CStateManager>::ms_singleton
  00245	6a 01		 push	 1
  00247	6a 01		 push	 1
  00249	6a 01		 push	 1
  0024b	e8 00 00 00 00	 call	 ?SetTextureStageState@CStateManager@@QAEXKW4_D3DTEXTURESTAGESTATETYPE@@K@Z ; CStateManager::SetTextureStageState

; 648  : 		STATEMANAGER.SetTextureStageState(1, D3DTSS_ALPHAARG1, D3DTA_TEXTURE);

  00250	8b 0d 00 00 00
	00		 mov	 ecx, DWORD PTR ?ms_singleton@?$CSingleton@VCStateManager@@@@0PAVCStateManager@@A ; CSingleton<CStateManager>::ms_singleton
  00256	6a 02		 push	 2
  00258	6a 05		 push	 5
  0025a	6a 01		 push	 1
  0025c	e8 00 00 00 00	 call	 ?SetTextureStageState@CStateManager@@QAEXKW4_D3DTEXTURESTAGESTATETYPE@@K@Z ; CStateManager::SetTextureStageState

; 649  : 		STATEMANAGER.SetTextureStageState(1, D3DTSS_ALPHAOP, D3DTOP_DISABLE);

  00261	8b 0d 00 00 00
	00		 mov	 ecx, DWORD PTR ?ms_singleton@?$CSingleton@VCStateManager@@@@0PAVCStateManager@@A ; CSingleton<CStateManager>::ms_singleton
  00267	6a 01		 push	 1
  00269	6a 04		 push	 4
  0026b	6a 01		 push	 1
  0026d	e8 00 00 00 00	 call	 ?SetTextureStageState@CStateManager@@QAEXKW4_D3DTEXTURESTAGESTATETYPE@@K@Z ; CStateManager::SetTextureStageState

; 650  : 		STATEMANAGER.RestoreTextureStageState(1, D3DTSS_ADDRESSU);

  00272	8b 0d 00 00 00
	00		 mov	 ecx, DWORD PTR ?ms_singleton@?$CSingleton@VCStateManager@@@@0PAVCStateManager@@A ; CSingleton<CStateManager>::ms_singleton
  00278	6a 0d		 push	 13			; 0000000dH
  0027a	6a 01		 push	 1
  0027c	e8 00 00 00 00	 call	 ?RestoreTextureStageState@CStateManager@@QAEXKW4_D3DTEXTURESTAGESTATETYPE@@@Z ; CStateManager::RestoreTextureStageState

; 651  : 		STATEMANAGER.RestoreTextureStageState(1, D3DTSS_ADDRESSV);

  00281	8b 0d 00 00 00
	00		 mov	 ecx, DWORD PTR ?ms_singleton@?$CSingleton@VCStateManager@@@@0PAVCStateManager@@A ; CSingleton<CStateManager>::ms_singleton
  00287	6a 0e		 push	 14			; 0000000eH
  00289	6a 01		 push	 1
  0028b	e8 00 00 00 00	 call	 ?RestoreTextureStageState@CStateManager@@QAEXKW4_D3DTEXTURESTAGESTATETYPE@@@Z ; CStateManager::RestoreTextureStageState

; 652  : 		STATEMANAGER.RestoreRenderState(D3DRS_ALPHABLENDENABLE);

  00290	8b 0d 00 00 00
	00		 mov	 ecx, DWORD PTR ?ms_singleton@?$CSingleton@VCStateManager@@@@0PAVCStateManager@@A ; CSingleton<CStateManager>::ms_singleton
  00296	6a 1b		 push	 27			; 0000001bH
  00298	e8 00 00 00 00	 call	 ?RestoreRenderState@CStateManager@@QAEXW4_D3DRENDERSTATETYPE@@@Z ; CStateManager::RestoreRenderState
$LN2@RenderPCBl:
  0029d	5e		 pop	 esi

; 653  : 	}
; 654  : #endif
; 655  : }

  0029e	8b e5		 mov	 esp, ebp
  002a0	5d		 pop	 ebp
  002a1	c3		 ret	 0
?RenderPCBlocker@CMapOutdoor@@QAEXXZ ENDP		; CMapOutdoor::RenderPCBlocker
_TEXT	ENDS
; Function compile flags: /Ogtp
; File D:\Metin2 Server Files\mainline\SRC_2014\Metin2Client\GameLib\MapOutdoorRender.cpp
;	COMDAT ?RenderEffect@CMapOutdoor@@QAEXXZ
_TEXT	SEGMENT
_pArea$1 = -4						; size = 4
?RenderEffect@CMapOutdoor@@QAEXXZ PROC			; CMapOutdoor::RenderEffect, COMDAT
; _this$ = ecx

; 339  : {

  00000	55		 push	 ebp
  00001	8b ec		 mov	 ebp, esp
  00003	51		 push	 ecx
  00004	57		 push	 edi

; 340  : 	if (!IsVisiblePart(PART_OBJECT))

  00005	6a 01		 push	 1
  00007	8b f9		 mov	 edi, ecx
  00009	e8 00 00 00 00	 call	 ?IsVisiblePart@CMapOutdoor@@IAE_NH@Z ; CMapOutdoor::IsVisiblePart
  0000e	84 c0		 test	 al, al
  00010	74 22		 je	 SHORT $LN3@RenderEffe

; 341  : 		return;
; 342  : 	for (int i = 0; i < AROUND_AREA_NUM; ++i)

  00012	56		 push	 esi
  00013	33 f6		 xor	 esi, esi
$LL4@RenderEffe:

; 343  : 	{
; 344  : 		CArea * pArea;
; 345  : 		if (GetAreaPointer(i, &pArea))

  00015	8d 45 fc	 lea	 eax, DWORD PTR _pArea$1[ebp]
  00018	8b cf		 mov	 ecx, edi
  0001a	50		 push	 eax
  0001b	56		 push	 esi
  0001c	e8 00 00 00 00	 call	 ?GetAreaPointer@CMapOutdoor@@QAEHEPAPAVCArea@@@Z ; CMapOutdoor::GetAreaPointer
  00021	85 c0		 test	 eax, eax
  00023	74 08		 je	 SHORT $LN2@RenderEffe

; 346  : 		{
; 347  : 			pArea->RenderEffect();

  00025	8b 4d fc	 mov	 ecx, DWORD PTR _pArea$1[ebp]
  00028	e8 00 00 00 00	 call	 ?RenderEffect@CArea@@QAEXXZ ; CArea::RenderEffect
$LN2@RenderEffe:

; 341  : 		return;
; 342  : 	for (int i = 0; i < AROUND_AREA_NUM; ++i)

  0002d	46		 inc	 esi
  0002e	83 fe 09	 cmp	 esi, 9
  00031	7c e2		 jl	 SHORT $LL4@RenderEffe
  00033	5e		 pop	 esi
$LN3@RenderEffe:
  00034	5f		 pop	 edi

; 348  : 		}
; 349  : 	}
; 350  : }

  00035	8b e5		 mov	 esp, ebp
  00037	5d		 pop	 ebp
  00038	c3		 ret	 0
?RenderEffect@CMapOutdoor@@QAEXXZ ENDP			; CMapOutdoor::RenderEffect
_TEXT	ENDS
; Function compile flags: /Ogtp
; File D:\Metin2 Server Files\mainline\SRC_2014\Metin2Client\GameLib\MapOutdoorRender.cpp
;	COMDAT ?RenderDungeon@CMapOutdoor@@QAEXXZ
_TEXT	SEGMENT
_pArea$1 = -4						; size = 4
?RenderDungeon@CMapOutdoor@@QAEXXZ PROC			; CMapOutdoor::RenderDungeon, COMDAT
; _this$ = ecx

; 601  : {

  00000	55		 push	 ebp
  00001	8b ec		 mov	 ebp, esp
  00003	51		 push	 ecx
  00004	56		 push	 esi
  00005	57		 push	 edi
  00006	8b f9		 mov	 edi, ecx

; 602  : 	for (int i = 0; i < AROUND_AREA_NUM; ++i)

  00008	33 f6		 xor	 esi, esi
  0000a	66 0f 1f 44 00
	00		 npad	 6
$LL4@RenderDung:

; 603  : 	{
; 604  : 		CArea * pArea;
; 605  : 		if (!GetAreaPointer(i, &pArea))

  00010	8d 45 fc	 lea	 eax, DWORD PTR _pArea$1[ebp]
  00013	8b cf		 mov	 ecx, edi
  00015	50		 push	 eax
  00016	56		 push	 esi
  00017	e8 00 00 00 00	 call	 ?GetAreaPointer@CMapOutdoor@@QAEHEPAPAVCArea@@@Z ; CMapOutdoor::GetAreaPointer
  0001c	85 c0		 test	 eax, eax
  0001e	74 08		 je	 SHORT $LN2@RenderDung

; 606  : 			continue;
; 607  : 		pArea->RenderDungeon();

  00020	8b 4d fc	 mov	 ecx, DWORD PTR _pArea$1[ebp]
  00023	e8 00 00 00 00	 call	 ?RenderDungeon@CArea@@QAEXXZ ; CArea::RenderDungeon
$LN2@RenderDung:

; 602  : 	for (int i = 0; i < AROUND_AREA_NUM; ++i)

  00028	46		 inc	 esi
  00029	83 fe 09	 cmp	 esi, 9
  0002c	7c e2		 jl	 SHORT $LL4@RenderDung

; 608  : 	}
; 609  : }

  0002e	5f		 pop	 edi
  0002f	5e		 pop	 esi
  00030	8b e5		 mov	 esp, ebp
  00032	5d		 pop	 ebp
  00033	c3		 ret	 0
?RenderDungeon@CMapOutdoor@@QAEXXZ ENDP			; CMapOutdoor::RenderDungeon
_TEXT	ENDS
; Function compile flags: /Ogtp
; File D:\Metin2 Server Files\mainline\SRC_2014\Metin2Client\GameLib\MapOutdoorRender.cpp
; File C:\Program Files (x86)\Microsoft Visual Studio\2019\Community\VC\Tools\MSVC\14.28.29333\include\vector
; File D:\Metin2 Server Files\mainline\SRC_2014\Metin2Client\GameLib\MapOutdoorRender.cpp
; File C:\Program Files (x86)\Microsoft Visual Studio\2019\Community\VC\Tools\MSVC\14.28.29333\include\algorithm
; File D:\Metin2 Server Files\mainline\SRC_2014\Metin2Client\GameLib\MapOutdoorRender.cpp
; File C:\Program Files (x86)\Microsoft Visual Studio\2019\Community\VC\Tools\MSVC\14.28.29333\include\algorithm
; File D:\Metin2 Server Files\mainline\SRC_2014\Metin2Client\GameLib\MapOutdoorRender.cpp
; File C:\Program Files (x86)\Microsoft Visual Studio\2019\Community\VC\Tools\MSVC\14.28.29333\include\algorithm
; File D:\Metin2 Server Files\mainline\SRC_2014\Metin2Client\GameLib\MapOutdoorRender.cpp
; File C:\Program Files (x86)\Microsoft Visual Studio\2019\Community\VC\Tools\MSVC\14.28.29333\include\algorithm
; File D:\Metin2 Server Files\mainline\SRC_2014\Metin2Client\GameLib\MapOutdoorRender.cpp
;	COMDAT ?RenderBlendArea@CMapOutdoor@@QAEXXZ
_TEXT	SEGMENT
$T1 = -4						; size = 1
_pArea$2 = -4						; size = 4
?RenderBlendArea@CMapOutdoor@@QAEXXZ PROC		; CMapOutdoor::RenderBlendArea, COMDAT
; _this$ = ecx

; 527  : {

  00000	55		 push	 ebp
  00001	8b ec		 mov	 ebp, esp
  00003	51		 push	 ecx
  00004	57		 push	 edi

; 528  : 	if (!IsVisiblePart(PART_OBJECT))

  00005	6a 01		 push	 1
  00007	8b f9		 mov	 edi, ecx
  00009	e8 00 00 00 00	 call	 ?IsVisiblePart@CMapOutdoor@@IAE_NH@Z ; CMapOutdoor::IsVisiblePart
  0000e	84 c0		 test	 al, al
  00010	0f 84 90 01 00
	00		 je	 $LN8@RenderBlen

; 529  : 		return;
; 530  : 
; 531  : 	static std::vector<CGraphicThingInstance*> s_kVct_pkBlendThingInstSort;

  00016	64 a1 00 00 00
	00		 mov	 eax, DWORD PTR fs:__tls_array
  0001c	8b 15 00 00 00
	00		 mov	 edx, DWORD PTR __tls_index
  00022	8b 0c 90	 mov	 ecx, DWORD PTR [eax+edx*4]
  00025	a1 00 00 00 00	 mov	 eax, DWORD PTR ?$TSS0@?1??RenderBlendArea@CMapOutdoor@@QAEXXZ@4HA
  0002a	3b 81 00 00 00
	00		 cmp	 eax, DWORD PTR __Init_thread_epoch[ecx]
  00030	0f 8f 75 01 00
	00		 jg	 $LN61@RenderBlen
$LN2@RenderBlen:

; 532  : 	s_kVct_pkBlendThingInstSort.clear();

  00036	a1 00 00 00 00	 mov	 eax, DWORD PTR ?s_kVct_pkBlendThingInstSort@?1??RenderBlendArea@CMapOutdoor@@QAEXXZ@4V?$vector@PAVCGraphicThingInstance@@V?$allocator@PAVCGraphicThingInstance@@@std@@@std@@A
  0003b	56		 push	 esi
  0003c	a3 04 00 00 00	 mov	 DWORD PTR ?s_kVct_pkBlendThingInstSort@?1??RenderBlendArea@CMapOutdoor@@QAEXXZ@4V?$vector@PAVCGraphicThingInstance@@V?$allocator@PAVCGraphicThingInstance@@@std@@@std@@A+4, eax

; 533  : 
; 534  : 	for (int i = 0; i < AROUND_AREA_NUM; ++i)

  00041	33 f6		 xor	 esi, esi
$LL5@RenderBlen:

; 535  : 	{
; 536  : 		CArea * pArea;
; 537  : 		if (GetAreaPointer(i, &pArea))

  00043	8d 45 fc	 lea	 eax, DWORD PTR _pArea$2[ebp]
  00046	8b cf		 mov	 ecx, edi
  00048	50		 push	 eax
  00049	56		 push	 esi
  0004a	e8 00 00 00 00	 call	 ?GetAreaPointer@CMapOutdoor@@QAEHEPAPAVCArea@@@Z ; CMapOutdoor::GetAreaPointer
  0004f	85 c0		 test	 eax, eax
  00051	74 0d		 je	 SHORT $LN3@RenderBlen

; 538  : 		{
; 539  : 			pArea->CollectBlendRenderingObject(s_kVct_pkBlendThingInstSort);

  00053	8b 4d fc	 mov	 ecx, DWORD PTR _pArea$2[ebp]
  00056	68 00 00 00 00	 push	 OFFSET ?s_kVct_pkBlendThingInstSort@?1??RenderBlendArea@CMapOutdoor@@QAEXXZ@4V?$vector@PAVCGraphicThingInstance@@V?$allocator@PAVCGraphicThingInstance@@@std@@@std@@A
  0005b	e8 00 00 00 00	 call	 ?CollectBlendRenderingObject@CArea@@QAEXAAV?$vector@PAVCGraphicThingInstance@@V?$allocator@PAVCGraphicThingInstance@@@std@@@std@@@Z ; CArea::CollectBlendRenderingObject
$LN3@RenderBlen:

; 533  : 
; 534  : 	for (int i = 0; i < AROUND_AREA_NUM; ++i)

  00060	46		 inc	 esi
  00061	83 fe 09	 cmp	 esi, 9
  00064	7c dd		 jl	 SHORT $LL5@RenderBlen
; File C:\Program Files (x86)\Microsoft Visual Studio\2019\Community\VC\Tools\MSVC\14.28.29333\include\vector

; 1484 :         return static_cast<size_type>(_My_data._Mylast - _My_data._Myfirst);

  00066	8b 0d 04 00 00
	00		 mov	 ecx, DWORD PTR ?s_kVct_pkBlendThingInstSort@?1??RenderBlendArea@CMapOutdoor@@QAEXXZ@4V?$vector@PAVCGraphicThingInstance@@V?$allocator@PAVCGraphicThingInstance@@@std@@@std@@A+4
  0006c	8b c1		 mov	 eax, ecx
  0006e	8b 15 00 00 00
	00		 mov	 edx, DWORD PTR ?s_kVct_pkBlendThingInstSort@?1??RenderBlendArea@CMapOutdoor@@QAEXXZ@4V?$vector@PAVCGraphicThingInstance@@V?$allocator@PAVCGraphicThingInstance@@@std@@@std@@A
  00074	2b c2		 sub	 eax, edx
  00076	c1 f8 02	 sar	 eax, 2
; File D:\Metin2 Server Files\mainline\SRC_2014\Metin2Client\GameLib\MapOutdoorRender.cpp

; 543  : 	if (s_kVct_pkBlendThingInstSort.size() != 0)

  00079	85 c0		 test	 eax, eax
  0007b	0f 84 24 01 00
	00		 je	 $LN59@RenderBlen
; File C:\Program Files (x86)\Microsoft Visual Studio\2019\Community\VC\Tools\MSVC\14.28.29333\include\algorithm

; 7571 :     _Sort_unchecked(_UFirst, _ULast, _ULast - _UFirst, _Pass_fn(_Pred));

  00081	ff 75 fc	 push	 DWORD PTR $T1[ebp]
  00084	50		 push	 eax
  00085	51		 push	 ecx
  00086	52		 push	 edx
  00087	e8 00 00 00 00	 call	 ??$_Sort_unchecked@PAPAVCGraphicThingInstance@@UCMapOutdoor_LessThingInstancePtrRenderOrder@@@std@@YAXPAPAVCGraphicThingInstance@@0HUCMapOutdoor_LessThingInstancePtrRenderOrder@@@Z ; std::_Sort_unchecked<CGraphicThingInstance * *,CMapOutdoor_LessThingInstancePtrRenderOrder>
; File D:\Metin2 Server Files\mainline\SRC_2014\Metin2Client\GameLib\MapOutdoorRender.cpp

; 579  : 		STATEMANAGER.SaveRenderState(D3DRS_ZWRITEENABLE, TRUE);

  0008c	8b 0d 00 00 00
	00		 mov	 ecx, DWORD PTR ?ms_singleton@?$CSingleton@VCStateManager@@@@0PAVCStateManager@@A ; CSingleton<CStateManager>::ms_singleton
; File C:\Program Files (x86)\Microsoft Visual Studio\2019\Community\VC\Tools\MSVC\14.28.29333\include\algorithm

; 7571 :     _Sort_unchecked(_UFirst, _ULast, _ULast - _UFirst, _Pass_fn(_Pred));

  00092	83 c4 10	 add	 esp, 16			; 00000010H
; File D:\Metin2 Server Files\mainline\SRC_2014\Metin2Client\GameLib\MapOutdoorRender.cpp

; 579  : 		STATEMANAGER.SaveRenderState(D3DRS_ZWRITEENABLE, TRUE);

  00095	6a 01		 push	 1
  00097	6a 0e		 push	 14			; 0000000eH
  00099	e8 00 00 00 00	 call	 ?SaveRenderState@CStateManager@@QAEXW4_D3DRENDERSTATETYPE@@K@Z ; CStateManager::SaveRenderState

; 580  : 		STATEMANAGER.SaveRenderState(D3DRS_ALPHABLENDENABLE, TRUE);

  0009e	8b 0d 00 00 00
	00		 mov	 ecx, DWORD PTR ?ms_singleton@?$CSingleton@VCStateManager@@@@0PAVCStateManager@@A ; CSingleton<CStateManager>::ms_singleton
  000a4	6a 01		 push	 1
  000a6	6a 1b		 push	 27			; 0000001bH
  000a8	e8 00 00 00 00	 call	 ?SaveRenderState@CStateManager@@QAEXW4_D3DRENDERSTATETYPE@@K@Z ; CStateManager::SaveRenderState

; 581  : 		STATEMANAGER.SaveRenderState(D3DRS_SRCBLEND, D3DBLEND_SRCALPHA);

  000ad	8b 0d 00 00 00
	00		 mov	 ecx, DWORD PTR ?ms_singleton@?$CSingleton@VCStateManager@@@@0PAVCStateManager@@A ; CSingleton<CStateManager>::ms_singleton
  000b3	6a 05		 push	 5
  000b5	6a 13		 push	 19			; 00000013H
  000b7	e8 00 00 00 00	 call	 ?SaveRenderState@CStateManager@@QAEXW4_D3DRENDERSTATETYPE@@K@Z ; CStateManager::SaveRenderState

; 582  : 		STATEMANAGER.SaveRenderState(D3DRS_DESTBLEND, D3DBLEND_INVSRCALPHA);

  000bc	8b 0d 00 00 00
	00		 mov	 ecx, DWORD PTR ?ms_singleton@?$CSingleton@VCStateManager@@@@0PAVCStateManager@@A ; CSingleton<CStateManager>::ms_singleton
  000c2	6a 06		 push	 6
  000c4	6a 14		 push	 20			; 00000014H
  000c6	e8 00 00 00 00	 call	 ?SaveRenderState@CStateManager@@QAEXW4_D3DRENDERSTATETYPE@@K@Z ; CStateManager::SaveRenderState

; 583  : 		STATEMANAGER.SetTextureStageState(0, D3DTSS_ALPHAARG1, D3DTA_TEXTURE);

  000cb	8b 0d 00 00 00
	00		 mov	 ecx, DWORD PTR ?ms_singleton@?$CSingleton@VCStateManager@@@@0PAVCStateManager@@A ; CSingleton<CStateManager>::ms_singleton
  000d1	6a 02		 push	 2
  000d3	6a 05		 push	 5
  000d5	6a 00		 push	 0
  000d7	e8 00 00 00 00	 call	 ?SetTextureStageState@CStateManager@@QAEXKW4_D3DTEXTURESTAGESTATETYPE@@K@Z ; CStateManager::SetTextureStageState

; 584  : 		STATEMANAGER.SetTextureStageState(0, D3DTSS_ALPHAOP, D3DTOP_SELECTARG1);

  000dc	8b 0d 00 00 00
	00		 mov	 ecx, DWORD PTR ?ms_singleton@?$CSingleton@VCStateManager@@@@0PAVCStateManager@@A ; CSingleton<CStateManager>::ms_singleton
  000e2	6a 02		 push	 2
  000e4	6a 04		 push	 4
  000e6	6a 00		 push	 0
  000e8	e8 00 00 00 00	 call	 ?SetTextureStageState@CStateManager@@QAEXKW4_D3DTEXTURESTAGESTATETYPE@@K@Z ; CStateManager::SetTextureStageState

; 585  : 		STATEMANAGER.SetTextureStageState(0, D3DTSS_COLORARG1, D3DTA_TEXTURE);

  000ed	8b 0d 00 00 00
	00		 mov	 ecx, DWORD PTR ?ms_singleton@?$CSingleton@VCStateManager@@@@0PAVCStateManager@@A ; CSingleton<CStateManager>::ms_singleton
  000f3	6a 02		 push	 2
  000f5	6a 02		 push	 2
  000f7	6a 00		 push	 0
  000f9	e8 00 00 00 00	 call	 ?SetTextureStageState@CStateManager@@QAEXKW4_D3DTEXTURESTAGESTATETYPE@@K@Z ; CStateManager::SetTextureStageState

; 586  : 		STATEMANAGER.SetTextureStageState(0, D3DTSS_COLORARG2, D3DTA_DIFFUSE);

  000fe	8b 0d 00 00 00
	00		 mov	 ecx, DWORD PTR ?ms_singleton@?$CSingleton@VCStateManager@@@@0PAVCStateManager@@A ; CSingleton<CStateManager>::ms_singleton
  00104	6a 00		 push	 0
  00106	6a 03		 push	 3
  00108	6a 00		 push	 0
  0010a	e8 00 00 00 00	 call	 ?SetTextureStageState@CStateManager@@QAEXKW4_D3DTEXTURESTAGESTATETYPE@@K@Z ; CStateManager::SetTextureStageState

; 587  : 		STATEMANAGER.SetTextureStageState(1, D3DTSS_COLORARG1, D3DTA_TEXTURE);

  0010f	8b 0d 00 00 00
	00		 mov	 ecx, DWORD PTR ?ms_singleton@?$CSingleton@VCStateManager@@@@0PAVCStateManager@@A ; CSingleton<CStateManager>::ms_singleton
  00115	6a 02		 push	 2
  00117	6a 02		 push	 2
  00119	6a 01		 push	 1
  0011b	e8 00 00 00 00	 call	 ?SetTextureStageState@CStateManager@@QAEXKW4_D3DTEXTURESTAGESTATETYPE@@K@Z ; CStateManager::SetTextureStageState

; 588  : 		STATEMANAGER.SetTextureStageState(1, D3DTSS_COLORARG2, D3DTA_CURRENT);

  00120	8b 0d 00 00 00
	00		 mov	 ecx, DWORD PTR ?ms_singleton@?$CSingleton@VCStateManager@@@@0PAVCStateManager@@A ; CSingleton<CStateManager>::ms_singleton
  00126	6a 01		 push	 1
  00128	6a 03		 push	 3
  0012a	6a 01		 push	 1
  0012c	e8 00 00 00 00	 call	 ?SetTextureStageState@CStateManager@@QAEXKW4_D3DTEXTURESTAGESTATETYPE@@K@Z ; CStateManager::SetTextureStageState

; 589  : 		STATEMANAGER.SetTextureStageState(1, D3DTSS_COLOROP,   D3DTOP_SELECTARG1);

  00131	8b 0d 00 00 00
	00		 mov	 ecx, DWORD PTR ?ms_singleton@?$CSingleton@VCStateManager@@@@0PAVCStateManager@@A ; CSingleton<CStateManager>::ms_singleton
  00137	6a 02		 push	 2
  00139	6a 01		 push	 1
  0013b	6a 01		 push	 1
  0013d	e8 00 00 00 00	 call	 ?SetTextureStageState@CStateManager@@QAEXKW4_D3DTEXTURESTAGESTATETYPE@@K@Z ; CStateManager::SetTextureStageState

; 590  : 		STATEMANAGER.SetTextureStageState(1, D3DTSS_ALPHAOP,   D3DTOP_DISABLE);

  00142	8b 0d 00 00 00
	00		 mov	 ecx, DWORD PTR ?ms_singleton@?$CSingleton@VCStateManager@@@@0PAVCStateManager@@A ; CSingleton<CStateManager>::ms_singleton
  00148	6a 01		 push	 1
  0014a	6a 04		 push	 4
  0014c	6a 01		 push	 1
  0014e	e8 00 00 00 00	 call	 ?SetTextureStageState@CStateManager@@QAEXKW4_D3DTEXTURESTAGESTATETYPE@@K@Z ; CStateManager::SetTextureStageState
; File C:\Program Files (x86)\Microsoft Visual Studio\2019\Community\VC\Tools\MSVC\14.28.29333\include\algorithm

; 306  :     const auto _ULast = _Get_unwrapped(_Last);

  00153	8b 3d 04 00 00
	00		 mov	 edi, DWORD PTR ?s_kVct_pkBlendThingInstSort@?1??RenderBlendArea@CMapOutdoor@@QAEXXZ@4V?$vector@PAVCGraphicThingInstance@@V?$allocator@PAVCGraphicThingInstance@@@std@@@std@@A+4

; 307  :     for (; _UFirst != _ULast; ++_UFirst) {

  00159	8b 35 00 00 00
	00		 mov	 esi, DWORD PTR ?s_kVct_pkBlendThingInstSort@?1??RenderBlendArea@CMapOutdoor@@QAEXXZ@4V?$vector@PAVCGraphicThingInstance@@V?$allocator@PAVCGraphicThingInstance@@@std@@@std@@A
  0015f	3b f7		 cmp	 esi, edi
  00161	74 0e		 je	 SHORT $LN46@RenderBlen
$LL47@RenderBlen:
; File D:\Metin2 Server Files\mainline\SRC_2014\Metin2Client\GameLib\MapOutdoorRender.cpp

; 377  : 		pkThingInst->BlendRender();

  00163	8b 0e		 mov	 ecx, DWORD PTR [esi]
  00165	e8 00 00 00 00	 call	 ?BlendRender@CGraphicObjectInstance@@QAEXXZ ; CGraphicObjectInstance::BlendRender
; File C:\Program Files (x86)\Microsoft Visual Studio\2019\Community\VC\Tools\MSVC\14.28.29333\include\algorithm

; 307  :     for (; _UFirst != _ULast; ++_UFirst) {

  0016a	83 c6 04	 add	 esi, 4
  0016d	3b f7		 cmp	 esi, edi
  0016f	75 f2		 jne	 SHORT $LL47@RenderBlen
$LN46@RenderBlen:
; File D:\Metin2 Server Files\mainline\SRC_2014\Metin2Client\GameLib\MapOutdoorRender.cpp

; 594  : 		STATEMANAGER.RestoreRenderState(D3DRS_ALPHABLENDENABLE);

  00171	8b 0d 00 00 00
	00		 mov	 ecx, DWORD PTR ?ms_singleton@?$CSingleton@VCStateManager@@@@0PAVCStateManager@@A ; CSingleton<CStateManager>::ms_singleton
  00177	6a 1b		 push	 27			; 0000001bH
  00179	e8 00 00 00 00	 call	 ?RestoreRenderState@CStateManager@@QAEXW4_D3DRENDERSTATETYPE@@@Z ; CStateManager::RestoreRenderState

; 595  : 		STATEMANAGER.RestoreRenderState(D3DRS_SRCBLEND);

  0017e	8b 0d 00 00 00
	00		 mov	 ecx, DWORD PTR ?ms_singleton@?$CSingleton@VCStateManager@@@@0PAVCStateManager@@A ; CSingleton<CStateManager>::ms_singleton
  00184	6a 13		 push	 19			; 00000013H
  00186	e8 00 00 00 00	 call	 ?RestoreRenderState@CStateManager@@QAEXW4_D3DRENDERSTATETYPE@@@Z ; CStateManager::RestoreRenderState

; 596  : 		STATEMANAGER.RestoreRenderState(D3DRS_DESTBLEND);

  0018b	8b 0d 00 00 00
	00		 mov	 ecx, DWORD PTR ?ms_singleton@?$CSingleton@VCStateManager@@@@0PAVCStateManager@@A ; CSingleton<CStateManager>::ms_singleton
  00191	6a 14		 push	 20			; 00000014H
  00193	e8 00 00 00 00	 call	 ?RestoreRenderState@CStateManager@@QAEXW4_D3DRENDERSTATETYPE@@@Z ; CStateManager::RestoreRenderState

; 597  : 		STATEMANAGER.RestoreRenderState(D3DRS_ZWRITEENABLE);

  00198	8b 0d 00 00 00
	00		 mov	 ecx, DWORD PTR ?ms_singleton@?$CSingleton@VCStateManager@@@@0PAVCStateManager@@A ; CSingleton<CStateManager>::ms_singleton
  0019e	6a 0e		 push	 14			; 0000000eH
  001a0	e8 00 00 00 00	 call	 ?RestoreRenderState@CStateManager@@QAEXW4_D3DRENDERSTATETYPE@@@Z ; CStateManager::RestoreRenderState
$LN59@RenderBlen:
  001a5	5e		 pop	 esi
$LN8@RenderBlen:
  001a6	5f		 pop	 edi

; 598  : 	}
; 599  : }

  001a7	8b e5		 mov	 esp, ebp
  001a9	5d		 pop	 ebp
  001aa	c3		 ret	 0
$LN61@RenderBlen:

; 529  : 		return;
; 530  : 
; 531  : 	static std::vector<CGraphicThingInstance*> s_kVct_pkBlendThingInstSort;

  001ab	68 00 00 00 00	 push	 OFFSET ?$TSS0@?1??RenderBlendArea@CMapOutdoor@@QAEXXZ@4HA
  001b0	e8 00 00 00 00	 call	 __Init_thread_header
  001b5	83 c4 04	 add	 esp, 4
  001b8	83 3d 00 00 00
	00 ff		 cmp	 DWORD PTR ?$TSS0@?1??RenderBlendArea@CMapOutdoor@@QAEXXZ@4HA, -1
  001bf	0f 85 71 fe ff
	ff		 jne	 $LN2@RenderBlen
  001c5	68 00 00 00 00	 push	 OFFSET ??__Fs_kVct_pkBlendThingInstSort@?1??RenderBlendArea@CMapOutdoor@@QAEXXZ@YAXXZ ; `CMapOutdoor::RenderBlendArea'::`2'::`dynamic atexit destructor for 's_kVct_pkBlendThingInstSort''
  001ca	e8 00 00 00 00	 call	 _atexit
  001cf	68 00 00 00 00	 push	 OFFSET ?$TSS0@?1??RenderBlendArea@CMapOutdoor@@QAEXXZ@4HA
  001d4	e8 00 00 00 00	 call	 __Init_thread_footer
  001d9	83 c4 08	 add	 esp, 8
  001dc	e9 55 fe ff ff	 jmp	 $LN2@RenderBlen
?RenderBlendArea@CMapOutdoor@@QAEXXZ ENDP		; CMapOutdoor::RenderBlendArea
_TEXT	ENDS
; Function compile flags: /Ogtp
; File D:\Metin2 Server Files\mainline\SRC_2014\Metin2Client\GameLib\MapOutdoorRender.cpp
; File C:\Program Files (x86)\Microsoft Visual Studio\2019\Community\VC\Tools\MSVC\14.28.29333\include\algorithm
; File C:\Program Files (x86)\Microsoft Visual Studio\2019\Community\VC\Tools\MSVC\14.28.29333\include\vector
; File C:\Program Files (x86)\Microsoft Visual Studio\2019\Community\VC\Tools\MSVC\14.28.29333\include\algorithm
; File D:\Metin2 Server Files\mainline\SRC_2014\Metin2Client\GameLib\MapOutdoorRender.cpp
; File C:\Program Files (x86)\Microsoft Visual Studio\2019\Community\VC\Tools\MSVC\14.28.29333\include\algorithm
; File D:\Metin2 Server Files\mainline\SRC_2014\Metin2Client\GameLib\MapOutdoorRender.cpp
; File C:\Program Files (x86)\Microsoft Visual Studio\2019\Community\VC\Tools\MSVC\14.28.29333\include\vector
; File C:\Program Files (x86)\Microsoft Visual Studio\2019\Community\VC\Tools\MSVC\14.28.29333\include\algorithm
; File D:\Metin2 Server Files\mainline\SRC_2014\Metin2Client\GameLib\MapOutdoorRender.cpp
; File C:\Program Files (x86)\Microsoft Visual Studio\2019\Community\VC\Tools\MSVC\14.28.29333\include\algorithm
; File D:\Metin2 Server Files\mainline\SRC_2014\Metin2Client\GameLib\MapOutdoorRender.cpp
; File D:\Metin2 Server Files\mainline\SRC_2014\M2Data\include\d3dx8math.inl
; File D:\Metin2 Server Files\mainline\SRC_2014\Metin2Client\GameLib\MapOutdoorRender.cpp
; File D:\Metin2 Server Files\mainline\SRC_2014\M2Data\include\d3dx8math.inl
; File D:\Metin2 Server Files\mainline\SRC_2014\Metin2Client\GameLib\MapOutdoorRender.cpp
; File C:\Program Files (x86)\Microsoft Visual Studio\2019\Community\VC\Tools\MSVC\14.28.29333\include\algorithm
; File D:\Metin2 Server Files\mainline\SRC_2014\Metin2Client\GameLib\MapOutdoorRender.cpp
; File C:\Program Files (x86)\Microsoft Visual Studio\2019\Community\VC\Tools\MSVC\14.28.29333\include\algorithm
; File D:\Metin2 Server Files\mainline\SRC_2014\Metin2Client\GameLib\MapOutdoorRender.cpp
; File C:\Program Files (x86)\Microsoft Visual Studio\2019\Community\VC\Tools\MSVC\14.28.29333\include\vector
; File C:\Program Files (x86)\Microsoft Visual Studio\2019\Community\VC\Tools\MSVC\14.28.29333\include\algorithm
; File D:\Metin2 Server Files\mainline\SRC_2014\Metin2Client\eterBase\Stl.h
; File C:\Program Files (x86)\Microsoft Visual Studio\2019\Community\VC\Tools\MSVC\14.28.29333\include\algorithm
; File D:\Metin2 Server Files\mainline\SRC_2014\Metin2Client\GameLib\MapOutdoorRender.cpp
;	COMDAT ?RenderArea@CMapOutdoor@@QAEX_N@Z
_TEXT	SEGMENT
tv1630 = -8						; size = 4
_dwG$1$ = -8						; size = 4
$T1 = -8						; size = 1
_pArea$2 = -8						; size = 4
_pArea$3 = -8						; size = 4
_dwR$1$ = -4						; size = 4
_this$1$ = -4						; size = 4
_bRenderAmbience$ = 8					; size = 1
?RenderArea@CMapOutdoor@@QAEX_N@Z PROC			; CMapOutdoor::RenderArea, COMDAT
; _this$ = ecx

; 382  : {

  00000	55		 push	 ebp
  00001	8b ec		 mov	 ebp, esp
  00003	83 ec 08	 sub	 esp, 8
  00006	57		 push	 edi
  00007	8b f9		 mov	 edi, ecx

; 383  : 	if (!IsVisiblePart(PART_OBJECT))

  00009	6a 01		 push	 1
  0000b	89 7d fc	 mov	 DWORD PTR _this$1$[ebp], edi
  0000e	e8 00 00 00 00	 call	 ?IsVisiblePart@CMapOutdoor@@IAE_NH@Z ; CMapOutdoor::IsVisiblePart
  00013	84 c0		 test	 al, al
  00015	0f 84 35 04 00
	00		 je	 $LN216@RenderArea

; 384  : 		return;
; 385  : 
; 386  : 	m_dwRenderedCRCNum = 0;

  0001b	c7 87 b0 09 00
	00 00 00 00 00	 mov	 DWORD PTR [edi+2480], 0

; 387  : 	m_dwRenderedGraphicThingInstanceNum = 0;

  00025	c7 87 b4 09 00
	00 00 00 00 00	 mov	 DWORD PTR [edi+2484], 0

; 388  : 	m_dwRenderedCRCWithNumberVector.clear();

  0002f	a1 00 00 00 00	 mov	 eax, DWORD PTR ?m_dwRenderedCRCWithNumberVector@@3V?$vector@USCRCWithNumber@CArea@@V?$allocator@USCRCWithNumber@CArea@@@std@@@std@@A
  00034	56		 push	 esi
  00035	a3 04 00 00 00	 mov	 DWORD PTR ?m_dwRenderedCRCWithNumberVector@@3V?$vector@USCRCWithNumber@CArea@@V?$allocator@USCRCWithNumber@CArea@@@std@@@std@@A+4, eax

; 389  : 
; 390  : 	// NOTE - 20041201.levites.  
; 391  : 	for (int j = 0; j < AROUND_AREA_NUM; ++j)

  0003a	33 f6		 xor	 esi, esi
  0003c	0f 1f 40 00	 npad	 4
$LL4@RenderArea:

; 392  : 	{
; 393  : 		CArea * pArea;
; 394  : 		if (GetAreaPointer(j, &pArea))

  00040	8d 45 f8	 lea	 eax, DWORD PTR _pArea$3[ebp]
  00043	8b cf		 mov	 ecx, edi
  00045	50		 push	 eax
  00046	56		 push	 esi
  00047	e8 00 00 00 00	 call	 ?GetAreaPointer@CMapOutdoor@@QAEHEPAPAVCArea@@@Z ; CMapOutdoor::GetAreaPointer
  0004c	85 c0		 test	 eax, eax
  0004e	74 08		 je	 SHORT $LN2@RenderArea

; 395  : 		{
; 396  : 			pArea->RenderDungeon();

  00050	8b 4d f8	 mov	 ecx, DWORD PTR _pArea$3[ebp]
  00053	e8 00 00 00 00	 call	 ?RenderDungeon@CArea@@QAEXXZ ; CArea::RenderDungeon
$LN2@RenderArea:

; 389  : 
; 390  : 	// NOTE - 20041201.levites.  
; 391  : 	for (int j = 0; j < AROUND_AREA_NUM; ++j)

  00058	46		 inc	 esi
  00059	83 fe 09	 cmp	 esi, 9
  0005c	7c e2		 jl	 SHORT $LL4@RenderArea
; File C:\Program Files (x86)\Microsoft Visual Studio\2019\Community\VC\Tools\MSVC\14.28.29333\include\algorithm

; 307  :     for (; _UFirst != _ULast; ++_UFirst) {

  0005e	8b b7 18 0a 00
	00		 mov	 esi, DWORD PTR [edi+2584]
; File C:\Program Files (x86)\Microsoft Visual Studio\2019\Community\VC\Tools\MSVC\14.28.29333\include\vector

; 42   :     _Vector_const_iterator(_Tptr _Parg, const _Container_base* _Pvector) noexcept : _Ptr(_Parg) {

  00064	53		 push	 ebx
  00065	8b 9f 1c 0a 00
	00		 mov	 ebx, DWORD PTR [edi+2588]
; File C:\Program Files (x86)\Microsoft Visual Studio\2019\Community\VC\Tools\MSVC\14.28.29333\include\algorithm

; 307  :     for (; _UFirst != _ULast; ++_UFirst) {

  0006b	3b f3		 cmp	 esi, ebx
  0006d	74 0f		 je	 SHORT $LN41@RenderArea
  0006f	90		 npad	 1
$LL42@RenderArea:
; File D:\Metin2 Server Files\mainline\SRC_2014\Metin2Client\GameLib\MapOutdoorRender.cpp

; 313  : 		pInstance->Hide();

  00070	8b 0e		 mov	 ecx, DWORD PTR [esi]
  00072	e8 00 00 00 00	 call	 ?Hide@CGraphicObjectInstance@@QAEXXZ ; CGraphicObjectInstance::Hide
; File C:\Program Files (x86)\Microsoft Visual Studio\2019\Community\VC\Tools\MSVC\14.28.29333\include\algorithm

; 307  :     for (; _UFirst != _ULast; ++_UFirst) {

  00077	83 c6 04	 add	 esi, 4
  0007a	3b f3		 cmp	 esi, ebx
  0007c	75 f2		 jne	 SHORT $LL42@RenderArea
$LN41@RenderArea:
; File D:\Metin2 Server Files\mainline\SRC_2014\Metin2Client\GameLib\MapOutdoorRender.cpp

; 405  : 	if (m_bDrawShadow && m_bDrawChrShadow)

  0007e	80 bf 31 01 00
	00 00		 cmp	 BYTE PTR [edi+305], 0
  00085	0f 84 e1 02 00
	00		 je	 $LN18@RenderArea
  0008b	80 bf 32 01 00
	00 00		 cmp	 BYTE PTR [edi+306], 0
  00092	0f 84 d4 02 00
	00		 je	 $LN18@RenderArea

; 406  : 	{
; 407  : 		if (mc_pEnvironmentData != NULL)

  00098	83 7f 3c 00	 cmp	 DWORD PTR [edi+60], 0
  0009c	74 0f		 je	 SHORT $LN17@RenderArea

; 408  : 			STATEMANAGER.SetRenderState(D3DRS_FOGCOLOR, 0xFFFFFFFF);

  0009e	8b 0d 00 00 00
	00		 mov	 ecx, DWORD PTR ?ms_singleton@?$CSingleton@VCStateManager@@@@0PAVCStateManager@@A ; CSingleton<CStateManager>::ms_singleton
  000a4	6a ff		 push	 -1
  000a6	6a 22		 push	 34			; 00000022H
  000a8	e8 00 00 00 00	 call	 ?SetRenderState@CStateManager@@QAEXW4_D3DRENDERSTATETYPE@@K@Z ; CStateManager::SetRenderState
$LN17@RenderArea:

; 409  : 
; 410  : 		STATEMANAGER.SetTextureStageState(0, D3DTSS_COLORARG1, D3DTA_TEXTURE);

  000ad	8b 0d 00 00 00
	00		 mov	 ecx, DWORD PTR ?ms_singleton@?$CSingleton@VCStateManager@@@@0PAVCStateManager@@A ; CSingleton<CStateManager>::ms_singleton
  000b3	6a 02		 push	 2
  000b5	6a 02		 push	 2
  000b7	6a 00		 push	 0
  000b9	e8 00 00 00 00	 call	 ?SetTextureStageState@CStateManager@@QAEXKW4_D3DTEXTURESTAGESTATETYPE@@K@Z ; CStateManager::SetTextureStageState

; 411  : 		STATEMANAGER.SetTextureStageState(0, D3DTSS_COLORARG2, D3DTA_DIFFUSE);

  000be	8b 0d 00 00 00
	00		 mov	 ecx, DWORD PTR ?ms_singleton@?$CSingleton@VCStateManager@@@@0PAVCStateManager@@A ; CSingleton<CStateManager>::ms_singleton
  000c4	6a 00		 push	 0
  000c6	6a 03		 push	 3
  000c8	6a 00		 push	 0
  000ca	e8 00 00 00 00	 call	 ?SetTextureStageState@CStateManager@@QAEXKW4_D3DTEXTURESTAGESTATETYPE@@K@Z ; CStateManager::SetTextureStageState

; 412  : 		STATEMANAGER.SetTextureStageState(0, D3DTSS_COLOROP, D3DTOP_MODULATE);

  000cf	8b 0d 00 00 00
	00		 mov	 ecx, DWORD PTR ?ms_singleton@?$CSingleton@VCStateManager@@@@0PAVCStateManager@@A ; CSingleton<CStateManager>::ms_singleton
  000d5	6a 04		 push	 4
  000d7	6a 01		 push	 1
  000d9	6a 00		 push	 0
  000db	e8 00 00 00 00	 call	 ?SetTextureStageState@CStateManager@@QAEXKW4_D3DTEXTURESTAGESTATETYPE@@K@Z ; CStateManager::SetTextureStageState

; 413  : 		STATEMANAGER.SetTextureStageState(0, D3DTSS_ALPHAOP, D3DTOP_DISABLE);

  000e0	8b 0d 00 00 00
	00		 mov	 ecx, DWORD PTR ?ms_singleton@?$CSingleton@VCStateManager@@@@0PAVCStateManager@@A ; CSingleton<CStateManager>::ms_singleton
  000e6	6a 01		 push	 1
  000e8	6a 04		 push	 4
  000ea	6a 00		 push	 0
  000ec	e8 00 00 00 00	 call	 ?SetTextureStageState@CStateManager@@QAEXKW4_D3DTEXTURESTAGESTATETYPE@@K@Z ; CStateManager::SetTextureStageState

; 414  : 		STATEMANAGER.SaveTextureStageState(1, D3DTSS_TEXCOORDINDEX, D3DTSS_TCI_CAMERASPACEPOSITION);

  000f1	8b 0d 00 00 00
	00		 mov	 ecx, DWORD PTR ?ms_singleton@?$CSingleton@VCStateManager@@@@0PAVCStateManager@@A ; CSingleton<CStateManager>::ms_singleton
  000f7	68 00 00 02 00	 push	 131072			; 00020000H
  000fc	6a 0b		 push	 11			; 0000000bH
  000fe	6a 01		 push	 1
  00100	e8 00 00 00 00	 call	 ?SaveTextureStageState@CStateManager@@QAEXKW4_D3DTEXTURESTAGESTATETYPE@@K@Z ; CStateManager::SaveTextureStageState

; 415  : 		STATEMANAGER.SaveTextureStageState(1, D3DTSS_TEXTURETRANSFORMFLAGS, D3DTTFF_COUNT2);

  00105	8b 0d 00 00 00
	00		 mov	 ecx, DWORD PTR ?ms_singleton@?$CSingleton@VCStateManager@@@@0PAVCStateManager@@A ; CSingleton<CStateManager>::ms_singleton
  0010b	6a 02		 push	 2
  0010d	6a 18		 push	 24			; 00000018H
  0010f	6a 01		 push	 1
  00111	e8 00 00 00 00	 call	 ?SaveTextureStageState@CStateManager@@QAEXKW4_D3DTEXTURESTAGESTATETYPE@@K@Z ; CStateManager::SaveTextureStageState

; 416  : 
; 417  : 		// Transform
; 418  : 		STATEMANAGER.SaveTransform(D3DTS_TEXTURE1, &m_matDynamicShadow);

  00116	8b 0d 00 00 00
	00		 mov	 ecx, DWORD PTR ?ms_singleton@?$CSingleton@VCStateManager@@@@0PAVCStateManager@@A ; CSingleton<CStateManager>::ms_singleton
  0011c	8d 87 48 08 00
	00		 lea	 eax, DWORD PTR [edi+2120]
  00122	50		 push	 eax
  00123	6a 11		 push	 17			; 00000011H
  00125	e8 00 00 00 00	 call	 ?SaveTransform@CStateManager@@QAEXW4_D3DTRANSFORMSTATETYPE@@PBU_D3DMATRIX@@@Z ; CStateManager::SaveTransform

; 419  : 		STATEMANAGER.SetTexture(1, m_lpCharacterShadowMapTexture);

  0012a	ff b7 d4 01 00
	00		 push	 DWORD PTR [edi+468]
  00130	8b 0d 00 00 00
	00		 mov	 ecx, DWORD PTR ?ms_singleton@?$CSingleton@VCStateManager@@@@0PAVCStateManager@@A ; CSingleton<CStateManager>::ms_singleton
  00136	6a 01		 push	 1
  00138	e8 00 00 00 00	 call	 ?SetTexture@CStateManager@@QAEXKPAUIDirect3DBaseTexture8@@@Z ; CStateManager::SetTexture

; 420  : 
; 421  : 		STATEMANAGER.SetTextureStageState(1, D3DTSS_COLORARG1, D3DTA_TEXTURE);

  0013d	8b 0d 00 00 00
	00		 mov	 ecx, DWORD PTR ?ms_singleton@?$CSingleton@VCStateManager@@@@0PAVCStateManager@@A ; CSingleton<CStateManager>::ms_singleton
  00143	6a 02		 push	 2
  00145	6a 02		 push	 2
  00147	6a 01		 push	 1
  00149	e8 00 00 00 00	 call	 ?SetTextureStageState@CStateManager@@QAEXKW4_D3DTEXTURESTAGESTATETYPE@@K@Z ; CStateManager::SetTextureStageState

; 422  : 		STATEMANAGER.SetTextureStageState(1, D3DTSS_COLORARG2, D3DTA_CURRENT);

  0014e	8b 0d 00 00 00
	00		 mov	 ecx, DWORD PTR ?ms_singleton@?$CSingleton@VCStateManager@@@@0PAVCStateManager@@A ; CSingleton<CStateManager>::ms_singleton
  00154	6a 01		 push	 1
  00156	6a 03		 push	 3
  00158	6a 01		 push	 1
  0015a	e8 00 00 00 00	 call	 ?SetTextureStageState@CStateManager@@QAEXKW4_D3DTEXTURESTAGESTATETYPE@@K@Z ; CStateManager::SetTextureStageState

; 423  : 		STATEMANAGER.SetTextureStageState(1, D3DTSS_COLOROP,   D3DTOP_MODULATE);

  0015f	8b 0d 00 00 00
	00		 mov	 ecx, DWORD PTR ?ms_singleton@?$CSingleton@VCStateManager@@@@0PAVCStateManager@@A ; CSingleton<CStateManager>::ms_singleton
  00165	6a 04		 push	 4
  00167	6a 01		 push	 1
  00169	6a 01		 push	 1
  0016b	e8 00 00 00 00	 call	 ?SetTextureStageState@CStateManager@@QAEXKW4_D3DTEXTURESTAGESTATETYPE@@K@Z ; CStateManager::SetTextureStageState

; 424  : 		STATEMANAGER.SetTextureStageState(1, D3DTSS_ALPHAOP,   D3DTOP_DISABLE);

  00170	8b 0d 00 00 00
	00		 mov	 ecx, DWORD PTR ?ms_singleton@?$CSingleton@VCStateManager@@@@0PAVCStateManager@@A ; CSingleton<CStateManager>::ms_singleton
  00176	6a 01		 push	 1
  00178	6a 04		 push	 4
  0017a	6a 01		 push	 1
  0017c	e8 00 00 00 00	 call	 ?SetTextureStageState@CStateManager@@QAEXKW4_D3DTEXTURESTAGESTATETYPE@@K@Z ; CStateManager::SetTextureStageState

; 425  : 		STATEMANAGER.SaveTextureStageState(1, D3DTSS_ADDRESSU, D3DTADDRESS_BORDER);

  00181	8b 0d 00 00 00
	00		 mov	 ecx, DWORD PTR ?ms_singleton@?$CSingleton@VCStateManager@@@@0PAVCStateManager@@A ; CSingleton<CStateManager>::ms_singleton
  00187	6a 04		 push	 4
  00189	6a 0d		 push	 13			; 0000000dH
  0018b	6a 01		 push	 1
  0018d	e8 00 00 00 00	 call	 ?SaveTextureStageState@CStateManager@@QAEXKW4_D3DTEXTURESTAGESTATETYPE@@K@Z ; CStateManager::SaveTextureStageState

; 426  : 		STATEMANAGER.SaveTextureStageState(1, D3DTSS_ADDRESSV, D3DTADDRESS_BORDER);

  00192	8b 0d 00 00 00
	00		 mov	 ecx, DWORD PTR ?ms_singleton@?$CSingleton@VCStateManager@@@@0PAVCStateManager@@A ; CSingleton<CStateManager>::ms_singleton
  00198	6a 04		 push	 4
  0019a	6a 0e		 push	 14			; 0000000eH
  0019c	6a 01		 push	 1
  0019e	e8 00 00 00 00	 call	 ?SaveTextureStageState@CStateManager@@QAEXKW4_D3DTEXTURESTAGESTATETYPE@@K@Z ; CStateManager::SaveTextureStageState

; 427  : 		STATEMANAGER.SaveTextureStageState(1, D3DTSS_BORDERCOLOR, 0xFFFFFFFF);

  001a3	8b 0d 00 00 00
	00		 mov	 ecx, DWORD PTR ?ms_singleton@?$CSingleton@VCStateManager@@@@0PAVCStateManager@@A ; CSingleton<CStateManager>::ms_singleton
  001a9	6a ff		 push	 -1
  001ab	6a 0f		 push	 15			; 0000000fH
  001ad	6a 01		 push	 1
  001af	e8 00 00 00 00	 call	 ?SaveTextureStageState@CStateManager@@QAEXKW4_D3DTEXTURESTAGESTATETYPE@@K@Z ; CStateManager::SaveTextureStageState
; File C:\Program Files (x86)\Microsoft Visual Studio\2019\Community\VC\Tools\MSVC\14.28.29333\include\vector

; 42   :     _Vector_const_iterator(_Tptr _Parg, const _Container_base* _Pvector) noexcept : _Ptr(_Parg) {

  001b4	8b 87 10 0a 00
	00		 mov	 eax, DWORD PTR [edi+2576]
; File C:\Program Files (x86)\Microsoft Visual Studio\2019\Community\VC\Tools\MSVC\14.28.29333\include\algorithm

; 307  :     for (; _UFirst != _ULast; ++_UFirst) {

  001ba	8b 9f 0c 0a 00
	00		 mov	 ebx, DWORD PTR [edi+2572]
  001c0	3b d8		 cmp	 ebx, eax
  001c2	74 1c		 je	 SHORT $LN60@RenderArea
  001c4	8b f8		 mov	 edi, eax
$LL61@RenderArea:

; 308  :         _Func(*_UFirst);

  001c6	8b 33		 mov	 esi, DWORD PTR [ebx]
; File D:\Metin2 Server Files\mainline\SRC_2014\Metin2Client\GameLib\MapOutdoorRender.cpp

; 304  : 		pInstance->RenderShadow();

  001c8	8b ce		 mov	 ecx, esi
  001ca	e8 00 00 00 00	 call	 ?RenderShadow@CGraphicObjectInstance@@QAEXXZ ; CGraphicObjectInstance::RenderShadow

; 305  : 		pInstance->Hide();

  001cf	8b ce		 mov	 ecx, esi
  001d1	e8 00 00 00 00	 call	 ?Hide@CGraphicObjectInstance@@QAEXXZ ; CGraphicObjectInstance::Hide
; File C:\Program Files (x86)\Microsoft Visual Studio\2019\Community\VC\Tools\MSVC\14.28.29333\include\algorithm

; 307  :     for (; _UFirst != _ULast; ++_UFirst) {

  001d6	83 c3 04	 add	 ebx, 4
  001d9	3b df		 cmp	 ebx, edi
  001db	75 e9		 jne	 SHORT $LL61@RenderArea
  001dd	8b 7d fc	 mov	 edi, DWORD PTR _this$1$[ebp]
$LN60@RenderArea:
; File D:\Metin2 Server Files\mainline\SRC_2014\Metin2Client\GameLib\MapOutdoorRender.cpp

; 431  : 		STATEMANAGER.RestoreTextureStageState(1, D3DTSS_TEXCOORDINDEX);

  001e0	8b 0d 00 00 00
	00		 mov	 ecx, DWORD PTR ?ms_singleton@?$CSingleton@VCStateManager@@@@0PAVCStateManager@@A ; CSingleton<CStateManager>::ms_singleton
  001e6	6a 0b		 push	 11			; 0000000bH
  001e8	6a 01		 push	 1
  001ea	e8 00 00 00 00	 call	 ?RestoreTextureStageState@CStateManager@@QAEXKW4_D3DTEXTURESTAGESTATETYPE@@@Z ; CStateManager::RestoreTextureStageState

; 432  : 		STATEMANAGER.RestoreTextureStageState(1, D3DTSS_TEXTURETRANSFORMFLAGS);

  001ef	8b 0d 00 00 00
	00		 mov	 ecx, DWORD PTR ?ms_singleton@?$CSingleton@VCStateManager@@@@0PAVCStateManager@@A ; CSingleton<CStateManager>::ms_singleton
  001f5	6a 18		 push	 24			; 00000018H
  001f7	6a 01		 push	 1
  001f9	e8 00 00 00 00	 call	 ?RestoreTextureStageState@CStateManager@@QAEXKW4_D3DTEXTURESTAGESTATETYPE@@@Z ; CStateManager::RestoreTextureStageState

; 433  : 		STATEMANAGER.RestoreTextureStageState(1, D3DTSS_ADDRESSU);

  001fe	8b 0d 00 00 00
	00		 mov	 ecx, DWORD PTR ?ms_singleton@?$CSingleton@VCStateManager@@@@0PAVCStateManager@@A ; CSingleton<CStateManager>::ms_singleton
  00204	6a 0d		 push	 13			; 0000000dH
  00206	6a 01		 push	 1
  00208	e8 00 00 00 00	 call	 ?RestoreTextureStageState@CStateManager@@QAEXKW4_D3DTEXTURESTAGESTATETYPE@@@Z ; CStateManager::RestoreTextureStageState

; 434  : 		STATEMANAGER.RestoreTextureStageState(1, D3DTSS_ADDRESSV);

  0020d	8b 0d 00 00 00
	00		 mov	 ecx, DWORD PTR ?ms_singleton@?$CSingleton@VCStateManager@@@@0PAVCStateManager@@A ; CSingleton<CStateManager>::ms_singleton
  00213	6a 0e		 push	 14			; 0000000eH
  00215	6a 01		 push	 1
  00217	e8 00 00 00 00	 call	 ?RestoreTextureStageState@CStateManager@@QAEXKW4_D3DTEXTURESTAGESTATETYPE@@@Z ; CStateManager::RestoreTextureStageState

; 435  : 		STATEMANAGER.RestoreTextureStageState(1, D3DTSS_BORDERCOLOR);

  0021c	8b 0d 00 00 00
	00		 mov	 ecx, DWORD PTR ?ms_singleton@?$CSingleton@VCStateManager@@@@0PAVCStateManager@@A ; CSingleton<CStateManager>::ms_singleton
  00222	6a 0f		 push	 15			; 0000000fH
  00224	6a 01		 push	 1
  00226	e8 00 00 00 00	 call	 ?RestoreTextureStageState@CStateManager@@QAEXKW4_D3DTEXTURESTAGESTATETYPE@@@Z ; CStateManager::RestoreTextureStageState

; 436  : 
; 437  : 		STATEMANAGER.RestoreTransform(D3DTS_TEXTURE1);

  0022b	8b 0d 00 00 00
	00		 mov	 ecx, DWORD PTR ?ms_singleton@?$CSingleton@VCStateManager@@@@0PAVCStateManager@@A ; CSingleton<CStateManager>::ms_singleton
  00231	6a 11		 push	 17			; 00000011H
  00233	e8 00 00 00 00	 call	 ?RestoreTransform@CStateManager@@QAEXW4_D3DTRANSFORMSTATETYPE@@@Z ; CStateManager::RestoreTransform

; 438  : 
; 439  : 		if (mc_pEnvironmentData != NULL)

  00238	8b 77 3c	 mov	 esi, DWORD PTR [edi+60]
  0023b	85 f6		 test	 esi, esi
  0023d	0f 84 29 01 00
	00		 je	 $LN18@RenderArea
; File D:\Metin2 Server Files\mainline\SRC_2014\M2Data\include\d3dx8math.inl

; 931  :     DWORD dwR = r >= 1.0f ? 0xff : r <= 0.0f ? 0x00 : (DWORD) (r * 255.0f + 0.5f);

  00243	f3 0f 10 86 2c
	01 00 00	 movss	 xmm0, DWORD PTR [esi+300]
  0024b	0f 57 c9	 xorps	 xmm1, xmm1
  0024e	0f 2f 05 00 00
	00 00		 comiss	 xmm0, DWORD PTR __real@3f800000
  00255	f3 0f 10 1d 00
	00 00 00	 movss	 xmm3, DWORD PTR __real@437f0000
  0025d	f3 0f 10 25 00
	00 00 00	 movss	 xmm4, DWORD PTR __real@3f000000
  00265	72 09		 jb	 SHORT $LN69@RenderArea
  00267	c7 45 fc ff 00
	00 00		 mov	 DWORD PTR _dwR$1$[ebp], 255 ; 000000ffH
  0026e	eb 31		 jmp	 SHORT $LN68@RenderArea
$LN69@RenderArea:
  00270	0f 2f c8	 comiss	 xmm1, xmm0
  00273	72 09		 jb	 SHORT $LN67@RenderArea
  00275	c7 45 fc 00 00
	00 00		 mov	 DWORD PTR _dwR$1$[ebp], 0
  0027c	eb 23		 jmp	 SHORT $LN68@RenderArea
$LN67@RenderArea:
  0027e	f3 0f 59 c3	 mulss	 xmm0, xmm3
  00282	f3 0f 58 c4	 addss	 xmm0, xmm4
  00286	e8 00 00 00 00	 call	 __ftoui3
  0028b	f3 0f 10 1d 00
	00 00 00	 movss	 xmm3, DWORD PTR __real@437f0000
  00293	0f 57 c9	 xorps	 xmm1, xmm1
  00296	f3 0f 10 25 00
	00 00 00	 movss	 xmm4, DWORD PTR __real@3f000000
  0029e	89 45 fc	 mov	 DWORD PTR _dwR$1$[ebp], eax
$LN68@RenderArea:

; 932  :     DWORD dwG = g >= 1.0f ? 0xff : g <= 0.0f ? 0x00 : (DWORD) (g * 255.0f + 0.5f);

  002a1	f3 0f 10 86 30
	01 00 00	 movss	 xmm0, DWORD PTR [esi+304]
  002a9	0f 2f 05 00 00
	00 00		 comiss	 xmm0, DWORD PTR __real@3f800000
  002b0	72 09		 jb	 SHORT $LN73@RenderArea
  002b2	c7 45 f8 ff 00
	00 00		 mov	 DWORD PTR _dwG$1$[ebp], 255 ; 000000ffH
  002b9	eb 1e		 jmp	 SHORT $LN72@RenderArea
$LN73@RenderArea:
  002bb	0f 2f c8	 comiss	 xmm1, xmm0
  002be	72 09		 jb	 SHORT $LN71@RenderArea
  002c0	c7 45 f8 00 00
	00 00		 mov	 DWORD PTR _dwG$1$[ebp], 0
  002c7	eb 10		 jmp	 SHORT $LN72@RenderArea
$LN71@RenderArea:
  002c9	f3 0f 59 c3	 mulss	 xmm0, xmm3
  002cd	f3 0f 58 c4	 addss	 xmm0, xmm4
  002d1	e8 00 00 00 00	 call	 __ftoui3
  002d6	89 45 f8	 mov	 DWORD PTR _dwG$1$[ebp], eax
$LN72@RenderArea:

; 933  :     DWORD dwB = b >= 1.0f ? 0xff : b <= 0.0f ? 0x00 : (DWORD) (b * 255.0f + 0.5f);

  002d9	f3 0f 10 86 34
	01 00 00	 movss	 xmm0, DWORD PTR [esi+308]
  002e1	0f 57 c9	 xorps	 xmm1, xmm1
  002e4	0f 2f 05 00 00
	00 00		 comiss	 xmm0, DWORD PTR __real@3f800000
  002eb	72 07		 jb	 SHORT $LN77@RenderArea
  002ed	bb ff 00 00 00	 mov	 ebx, 255		; 000000ffH
  002f2	eb 23		 jmp	 SHORT $LN76@RenderArea
$LN77@RenderArea:
  002f4	0f 2f c8	 comiss	 xmm1, xmm0
  002f7	72 04		 jb	 SHORT $LN75@RenderArea
  002f9	33 db		 xor	 ebx, ebx
  002fb	eb 1a		 jmp	 SHORT $LN76@RenderArea
$LN75@RenderArea:
  002fd	f3 0f 59 05 00
	00 00 00	 mulss	 xmm0, DWORD PTR __real@437f0000
  00305	f3 0f 58 05 00
	00 00 00	 addss	 xmm0, DWORD PTR __real@3f000000
  0030d	e8 00 00 00 00	 call	 __ftoui3
  00312	8b d8		 mov	 ebx, eax
  00314	0f 57 c9	 xorps	 xmm1, xmm1
$LN76@RenderArea:

; 934  :     DWORD dwA = a >= 1.0f ? 0xff : a <= 0.0f ? 0x00 : (DWORD) (a * 255.0f + 0.5f);

  00317	f3 0f 10 86 38
	01 00 00	 movss	 xmm0, DWORD PTR [esi+312]
  0031f	0f 2f 05 00 00
	00 00		 comiss	 xmm0, DWORD PTR __real@3f800000
  00326	72 07		 jb	 SHORT $LN81@RenderArea
  00328	b8 ff 00 00 00	 mov	 eax, 255		; 000000ffH
  0032d	eb 1e		 jmp	 SHORT $LN80@RenderArea
$LN81@RenderArea:
  0032f	0f 2f c8	 comiss	 xmm1, xmm0
  00332	72 04		 jb	 SHORT $LN79@RenderArea
  00334	33 c0		 xor	 eax, eax
  00336	eb 15		 jmp	 SHORT $LN80@RenderArea
$LN79@RenderArea:
  00338	f3 0f 59 05 00
	00 00 00	 mulss	 xmm0, DWORD PTR __real@437f0000
  00340	f3 0f 58 05 00
	00 00 00	 addss	 xmm0, DWORD PTR __real@3f000000
  00348	e8 00 00 00 00	 call	 __ftoui3
$LN80@RenderArea:
; File D:\Metin2 Server Files\mainline\SRC_2014\Metin2Client\GameLib\MapOutdoorRender.cpp

; 440  : 			STATEMANAGER.SetRenderState(D3DRS_FOGCOLOR, mc_pEnvironmentData->FogColor);

  0034d	8b 0d 00 00 00
	00		 mov	 ecx, DWORD PTR ?ms_singleton@?$CSingleton@VCStateManager@@@@0PAVCStateManager@@A ; CSingleton<CStateManager>::ms_singleton
; File D:\Metin2 Server Files\mainline\SRC_2014\M2Data\include\d3dx8math.inl

; 936  :     return (dwA << 24) | (dwR << 16) | (dwG << 8) | dwB;

  00353	c1 e0 08	 shl	 eax, 8
  00356	0b 45 fc	 or	 eax, DWORD PTR _dwR$1$[ebp]
  00359	c1 e0 08	 shl	 eax, 8
  0035c	0b 45 f8	 or	 eax, DWORD PTR _dwG$1$[ebp]
  0035f	c1 e0 08	 shl	 eax, 8
  00362	0b c3		 or	 eax, ebx
; File D:\Metin2 Server Files\mainline\SRC_2014\Metin2Client\GameLib\MapOutdoorRender.cpp

; 440  : 			STATEMANAGER.SetRenderState(D3DRS_FOGCOLOR, mc_pEnvironmentData->FogColor);

  00364	50		 push	 eax
  00365	6a 22		 push	 34			; 00000022H
  00367	e8 00 00 00 00	 call	 ?SetRenderState@CStateManager@@QAEXW4_D3DRENDERSTATETYPE@@K@Z ; CStateManager::SetRenderState
$LN18@RenderArea:

; 441  : 	}
; 442  : #endif
; 443  : 
; 444  : 	STATEMANAGER.SaveRenderState(D3DRS_ZWRITEENABLE, TRUE);

  0036c	8b 0d 00 00 00
	00		 mov	 ecx, DWORD PTR ?ms_singleton@?$CSingleton@VCStateManager@@@@0PAVCStateManager@@A ; CSingleton<CStateManager>::ms_singleton
  00372	6a 01		 push	 1
  00374	6a 0e		 push	 14			; 0000000eH
  00376	e8 00 00 00 00	 call	 ?SaveRenderState@CStateManager@@QAEXW4_D3DRENDERSTATETYPE@@K@Z ; CStateManager::SaveRenderState

; 445  : 
; 446  : 	bool m_isDisableSortRendering=false;
; 447  : 
; 448  : 	if (m_isDisableSortRendering)
; 449  : 	{
; 450  : 		for (int i = 0; i < AROUND_AREA_NUM; ++i)
; 451  : 		{
; 452  : 			CArea * pArea;
; 453  : 			if (GetAreaPointer(i, &pArea))
; 454  : 			{
; 455  : 				pArea->Render();
; 456  : 
; 457  : 				m_dwRenderedCRCNum += pArea->DEBUG_GetRenderedCRCNum();
; 458  : 				m_dwRenderedGraphicThingInstanceNum += pArea->DEBUG_GetRenderedGrapphicThingInstanceNum();
; 459  : 
; 460  : 				CArea::TCRCWithNumberVector & rCRCWithNumberVector = pArea->DEBUG_GetRenderedCRCWithNumVector();
; 461  : 
; 462  : 				CArea::TCRCWithNumberVector::iterator aIterator = rCRCWithNumberVector.begin();
; 463  : 				while (aIterator != rCRCWithNumberVector.end())
; 464  : 				{
; 465  : 					DWORD dwCRC = (*aIterator++).dwCRC;
; 466  : 
; 467  : 					CArea::TCRCWithNumberVector::iterator aCRCWithNumberVectorIterator = 
; 468  : 						std::find_if(m_dwRenderedCRCWithNumberVector.begin(), m_dwRenderedCRCWithNumberVector.end(), CArea::FFindIfCRC(dwCRC));
; 469  : 
; 470  : 					if ( m_dwRenderedCRCWithNumberVector.end() == aCRCWithNumberVectorIterator)
; 471  : 					{
; 472  : 						CArea::TCRCWithNumber aCRCWithNumber;
; 473  : 						aCRCWithNumber.dwCRC = dwCRC;
; 474  : 						aCRCWithNumber.dwNumber = 1;
; 475  : 						m_dwRenderedCRCWithNumberVector.push_back(aCRCWithNumber);
; 476  : 					}
; 477  : 					else
; 478  : 					{
; 479  : 						CArea::TCRCWithNumber & rCRCWithNumber = *aCRCWithNumberVectorIterator;
; 480  : 						rCRCWithNumber.dwNumber += 1;
; 481  : 					}
; 482  : 				}
; 483  : 	#ifdef WORLD_EDITOR
; 484  : 				if (bRenderAmbience)
; 485  : 					pArea->RenderAmbience();
; 486  : 	#endif
; 487  : 			}
; 488  : 		}
; 489  : 	
; 490  : 		std::sort(m_dwRenderedCRCWithNumberVector.begin(), m_dwRenderedCRCWithNumberVector.end(), CArea::CRCNumComp());
; 491  : 	}
; 492  : 	else
; 493  : 	{
; 494  : 		static std::vector<CGraphicThingInstance*> s_kVct_pkOpaqueThingInstSort;

  0037b	64 a1 00 00 00
	00		 mov	 eax, DWORD PTR fs:__tls_array
  00381	8b 0d 00 00 00
	00		 mov	 ecx, DWORD PTR __tls_index
  00387	8b 0c 88	 mov	 ecx, DWORD PTR [eax+ecx*4]
  0038a	a1 00 00 00 00	 mov	 eax, DWORD PTR ?$TSS0@?CB@??RenderArea@CMapOutdoor@@QAEX_N@Z@4HA
  0038f	3b 81 00 00 00
	00		 cmp	 eax, DWORD PTR __Init_thread_epoch[ecx]
  00395	0f 8f bc 00 00
	00		 jg	 $LN260@RenderArea
$LN10@RenderArea:

; 495  : 		s_kVct_pkOpaqueThingInstSort.clear();

  0039b	a1 00 00 00 00	 mov	 eax, DWORD PTR ?s_kVct_pkOpaqueThingInstSort@?CB@??RenderArea@CMapOutdoor@@QAEX_N@Z@4V?$vector@PAVCGraphicThingInstance@@V?$allocator@PAVCGraphicThingInstance@@@std@@@std@@A

; 496  : 
; 497  : 		for (int i = 0; i < AROUND_AREA_NUM; ++i)

  003a0	33 f6		 xor	 esi, esi
  003a2	a3 04 00 00 00	 mov	 DWORD PTR ?s_kVct_pkOpaqueThingInstSort@?CB@??RenderArea@CMapOutdoor@@QAEX_N@Z@4V?$vector@PAVCGraphicThingInstance@@V?$allocator@PAVCGraphicThingInstance@@@std@@@std@@A+4, eax
$LL13@RenderArea:

; 498  : 		{
; 499  : 			CArea * pArea;
; 500  : 			if (GetAreaPointer(i, &pArea))

  003a7	8d 45 f8	 lea	 eax, DWORD PTR _pArea$2[ebp]
  003aa	8b cf		 mov	 ecx, edi
  003ac	50		 push	 eax
  003ad	56		 push	 esi
  003ae	e8 00 00 00 00	 call	 ?GetAreaPointer@CMapOutdoor@@QAEHEPAPAVCArea@@@Z ; CMapOutdoor::GetAreaPointer
  003b3	85 c0		 test	 eax, eax
  003b5	74 0d		 je	 SHORT $LN11@RenderArea

; 501  : 			{
; 502  : 				pArea->CollectRenderingObject(s_kVct_pkOpaqueThingInstSort);

  003b7	8b 4d f8	 mov	 ecx, DWORD PTR _pArea$2[ebp]
  003ba	68 00 00 00 00	 push	 OFFSET ?s_kVct_pkOpaqueThingInstSort@?CB@??RenderArea@CMapOutdoor@@QAEX_N@Z@4V?$vector@PAVCGraphicThingInstance@@V?$allocator@PAVCGraphicThingInstance@@@std@@@std@@A
  003bf	e8 00 00 00 00	 call	 ?CollectRenderingObject@CArea@@QAEXAAV?$vector@PAVCGraphicThingInstance@@V?$allocator@PAVCGraphicThingInstance@@@std@@@std@@@Z ; CArea::CollectRenderingObject
$LN11@RenderArea:

; 496  : 
; 497  : 		for (int i = 0; i < AROUND_AREA_NUM; ++i)

  003c4	46		 inc	 esi
  003c5	83 fe 09	 cmp	 esi, 9
  003c8	7c dd		 jl	 SHORT $LL13@RenderArea
; File C:\Program Files (x86)\Microsoft Visual Studio\2019\Community\VC\Tools\MSVC\14.28.29333\include\algorithm

; 7571 :     _Sort_unchecked(_UFirst, _ULast, _ULast - _UFirst, _Pass_fn(_Pred));

  003ca	8b 15 04 00 00
	00		 mov	 edx, DWORD PTR ?s_kVct_pkOpaqueThingInstSort@?CB@??RenderArea@CMapOutdoor@@QAEX_N@Z@4V?$vector@PAVCGraphicThingInstance@@V?$allocator@PAVCGraphicThingInstance@@@std@@@std@@A+4
  003d0	8b c2		 mov	 eax, edx
  003d2	8b 0d 00 00 00
	00		 mov	 ecx, DWORD PTR ?s_kVct_pkOpaqueThingInstSort@?CB@??RenderArea@CMapOutdoor@@QAEX_N@Z@4V?$vector@PAVCGraphicThingInstance@@V?$allocator@PAVCGraphicThingInstance@@@std@@@std@@A
  003d8	2b c1		 sub	 eax, ecx
  003da	ff 75 f8	 push	 DWORD PTR $T1[ebp]
  003dd	c1 f8 02	 sar	 eax, 2
  003e0	50		 push	 eax
  003e1	52		 push	 edx
  003e2	51		 push	 ecx
  003e3	e8 00 00 00 00	 call	 ??$_Sort_unchecked@PAPAVCGraphicThingInstance@@UCMapOutdoor_LessThingInstancePtrRenderOrder@@@std@@YAXPAPAVCGraphicThingInstance@@0HUCMapOutdoor_LessThingInstancePtrRenderOrder@@@Z ; std::_Sort_unchecked<CGraphicThingInstance * *,CMapOutdoor_LessThingInstancePtrRenderOrder>

; 306  :     const auto _ULast = _Get_unwrapped(_Last);

  003e8	8b 1d 04 00 00
	00		 mov	 ebx, DWORD PTR ?s_kVct_pkOpaqueThingInstSort@?CB@??RenderArea@CMapOutdoor@@QAEX_N@Z@4V?$vector@PAVCGraphicThingInstance@@V?$allocator@PAVCGraphicThingInstance@@@std@@@std@@A+4

; 7571 :     _Sort_unchecked(_UFirst, _ULast, _ULast - _UFirst, _Pass_fn(_Pred));

  003ee	83 c4 10	 add	 esp, 16			; 00000010H

; 307  :     for (; _UFirst != _ULast; ++_UFirst) {

  003f1	8b 35 00 00 00
	00		 mov	 esi, DWORD PTR ?s_kVct_pkOpaqueThingInstSort@?CB@??RenderArea@CMapOutdoor@@QAEX_N@Z@4V?$vector@PAVCGraphicThingInstance@@V?$allocator@PAVCGraphicThingInstance@@@std@@@std@@A
  003f7	3b f3		 cmp	 esi, ebx
  003f9	74 13		 je	 SHORT $LN193@RenderArea
  003fb	0f 1f 44 00 00	 npad	 5
$LL194@RenderArea:
; File D:\Metin2 Server Files\mainline\SRC_2014\Metin2Client\GameLib\MapOutdoorRender.cpp

; 370  : 		pkThingInst->Render();

  00400	8b 0e		 mov	 ecx, DWORD PTR [esi]
  00402	e8 00 00 00 00	 call	 ?Render@CGraphicObjectInstance@@QAE_NXZ ; CGraphicObjectInstance::Render
; File C:\Program Files (x86)\Microsoft Visual Studio\2019\Community\VC\Tools\MSVC\14.28.29333\include\algorithm

; 307  :     for (; _UFirst != _ULast; ++_UFirst) {

  00407	83 c6 04	 add	 esi, 4
  0040a	3b f3		 cmp	 esi, ebx
  0040c	75 f2		 jne	 SHORT $LL194@RenderArea
$LN193@RenderArea:
; File D:\Metin2 Server Files\mainline\SRC_2014\Metin2Client\GameLib\MapOutdoorRender.cpp

; 515  : 	STATEMANAGER.RestoreRenderState(D3DRS_ZWRITEENABLE);

  0040e	8b 0d 00 00 00
	00		 mov	 ecx, DWORD PTR ?ms_singleton@?$CSingleton@VCStateManager@@@@0PAVCStateManager@@A ; CSingleton<CStateManager>::ms_singleton
  00414	6a 0e		 push	 14			; 0000000eH
  00416	e8 00 00 00 00	 call	 ?RestoreRenderState@CStateManager@@QAEXW4_D3DRENDERSTATETYPE@@@Z ; CStateManager::RestoreRenderState

; 516  : 
; 517  : #ifndef WORLD_EDITOR
; 518  : 	// Shadow Receiver
; 519  : 	if (m_bDrawShadow && m_bDrawChrShadow)

  0041b	80 bf 31 01 00
	00 00		 cmp	 BYTE PTR [edi+305], 0
  00422	74 2a		 je	 SHORT $LN258@RenderArea
  00424	80 bf 32 01 00
	00 00		 cmp	 BYTE PTR [edi+306], 0
  0042b	74 21		 je	 SHORT $LN258@RenderArea
; File C:\Program Files (x86)\Microsoft Visual Studio\2019\Community\VC\Tools\MSVC\14.28.29333\include\vector

; 42   :     _Vector_const_iterator(_Tptr _Parg, const _Container_base* _Pvector) noexcept : _Ptr(_Parg) {

  0042d	8b 9f 10 0a 00
	00		 mov	 ebx, DWORD PTR [edi+2576]
; File C:\Program Files (x86)\Microsoft Visual Studio\2019\Community\VC\Tools\MSVC\14.28.29333\include\algorithm

; 307  :     for (; _UFirst != _ULast; ++_UFirst) {

  00433	8b b7 0c 0a 00
	00		 mov	 esi, DWORD PTR [edi+2572]
  00439	3b f3		 cmp	 esi, ebx
  0043b	74 11		 je	 SHORT $LN258@RenderArea
  0043d	0f 1f 00	 npad	 3
$LL217@RenderArea:
; File D:\Metin2 Server Files\mainline\SRC_2014\Metin2Client\eterBase\Stl.h

; 41   : 		{((_P->*_Ptr)()); }

  00440	8b 0e		 mov	 ecx, DWORD PTR [esi]
  00442	e8 00 00 00 00	 call	 ?Show@CGraphicObjectInstance@@QAEXXZ ; CGraphicObjectInstance::Show
; File C:\Program Files (x86)\Microsoft Visual Studio\2019\Community\VC\Tools\MSVC\14.28.29333\include\algorithm

; 307  :     for (; _UFirst != _ULast; ++_UFirst) {

  00447	83 c6 04	 add	 esi, 4
  0044a	3b f3		 cmp	 esi, ebx
  0044c	75 f2		 jne	 SHORT $LL217@RenderArea
$LN258@RenderArea:
  0044e	5b		 pop	 ebx
  0044f	5e		 pop	 esi
$LN216@RenderArea:
  00450	5f		 pop	 edi
; File D:\Metin2 Server Files\mainline\SRC_2014\Metin2Client\GameLib\MapOutdoorRender.cpp

; 524  : }

  00451	8b e5		 mov	 esp, ebp
  00453	5d		 pop	 ebp
  00454	c2 04 00	 ret	 4
$LN260@RenderArea:

; 445  : 
; 446  : 	bool m_isDisableSortRendering=false;
; 447  : 
; 448  : 	if (m_isDisableSortRendering)
; 449  : 	{
; 450  : 		for (int i = 0; i < AROUND_AREA_NUM; ++i)
; 451  : 		{
; 452  : 			CArea * pArea;
; 453  : 			if (GetAreaPointer(i, &pArea))
; 454  : 			{
; 455  : 				pArea->Render();
; 456  : 
; 457  : 				m_dwRenderedCRCNum += pArea->DEBUG_GetRenderedCRCNum();
; 458  : 				m_dwRenderedGraphicThingInstanceNum += pArea->DEBUG_GetRenderedGrapphicThingInstanceNum();
; 459  : 
; 460  : 				CArea::TCRCWithNumberVector & rCRCWithNumberVector = pArea->DEBUG_GetRenderedCRCWithNumVector();
; 461  : 
; 462  : 				CArea::TCRCWithNumberVector::iterator aIterator = rCRCWithNumberVector.begin();
; 463  : 				while (aIterator != rCRCWithNumberVector.end())
; 464  : 				{
; 465  : 					DWORD dwCRC = (*aIterator++).dwCRC;
; 466  : 
; 467  : 					CArea::TCRCWithNumberVector::iterator aCRCWithNumberVectorIterator = 
; 468  : 						std::find_if(m_dwRenderedCRCWithNumberVector.begin(), m_dwRenderedCRCWithNumberVector.end(), CArea::FFindIfCRC(dwCRC));
; 469  : 
; 470  : 					if ( m_dwRenderedCRCWithNumberVector.end() == aCRCWithNumberVectorIterator)
; 471  : 					{
; 472  : 						CArea::TCRCWithNumber aCRCWithNumber;
; 473  : 						aCRCWithNumber.dwCRC = dwCRC;
; 474  : 						aCRCWithNumber.dwNumber = 1;
; 475  : 						m_dwRenderedCRCWithNumberVector.push_back(aCRCWithNumber);
; 476  : 					}
; 477  : 					else
; 478  : 					{
; 479  : 						CArea::TCRCWithNumber & rCRCWithNumber = *aCRCWithNumberVectorIterator;
; 480  : 						rCRCWithNumber.dwNumber += 1;
; 481  : 					}
; 482  : 				}
; 483  : 	#ifdef WORLD_EDITOR
; 484  : 				if (bRenderAmbience)
; 485  : 					pArea->RenderAmbience();
; 486  : 	#endif
; 487  : 			}
; 488  : 		}
; 489  : 	
; 490  : 		std::sort(m_dwRenderedCRCWithNumberVector.begin(), m_dwRenderedCRCWithNumberVector.end(), CArea::CRCNumComp());
; 491  : 	}
; 492  : 	else
; 493  : 	{
; 494  : 		static std::vector<CGraphicThingInstance*> s_kVct_pkOpaqueThingInstSort;

  00457	68 00 00 00 00	 push	 OFFSET ?$TSS0@?CB@??RenderArea@CMapOutdoor@@QAEX_N@Z@4HA
  0045c	e8 00 00 00 00	 call	 __Init_thread_header
  00461	83 c4 04	 add	 esp, 4
  00464	83 3d 00 00 00
	00 ff		 cmp	 DWORD PTR ?$TSS0@?CB@??RenderArea@CMapOutdoor@@QAEX_N@Z@4HA, -1
  0046b	0f 85 2a ff ff
	ff		 jne	 $LN10@RenderArea
  00471	68 00 00 00 00	 push	 OFFSET ??__Fs_kVct_pkOpaqueThingInstSort@?CB@??RenderArea@CMapOutdoor@@QAEX_N@Z@YAXXZ ; `CMapOutdoor::RenderArea'::`33'::`dynamic atexit destructor for 's_kVct_pkOpaqueThingInstSort''
  00476	e8 00 00 00 00	 call	 _atexit
  0047b	68 00 00 00 00	 push	 OFFSET ?$TSS0@?CB@??RenderArea@CMapOutdoor@@QAEX_N@Z@4HA
  00480	e8 00 00 00 00	 call	 __Init_thread_footer
  00485	83 c4 08	 add	 esp, 8
  00488	e9 0e ff ff ff	 jmp	 $LN10@RenderArea
?RenderArea@CMapOutdoor@@QAEX_N@Z ENDP			; CMapOutdoor::RenderArea
_TEXT	ENDS
; Function compile flags: /Ogtp
; File D:\Metin2 Server Files\mainline\SRC_2014\Metin2Client\GameLib\MapOutdoorRender.cpp
; File D:\Metin2 Server Files\mainline\SRC_2014\M2Data\include\d3dx8math.inl
; File D:\Metin2 Server Files\mainline\SRC_2014\Metin2Client\GameLib\MapOutdoorRender.cpp
; File C:\Program Files (x86)\Microsoft Visual Studio\2019\Community\VC\Tools\MSVC\14.28.29333\include\vector
; File C:\Program Files (x86)\Microsoft Visual Studio\2019\Community\VC\Tools\MSVC\14.28.29333\include\algorithm
; File C:\Program Files (x86)\Microsoft Visual Studio\2019\Community\VC\Tools\MSVC\14.28.29333\include\vector
; File C:\Program Files (x86)\Microsoft Visual Studio\2019\Community\VC\Tools\MSVC\14.28.29333\include\algorithm
; File D:\Metin2 Server Files\mainline\SRC_2014\Metin2Client\GameLib\MapOutdoorRender.cpp
;	COMDAT ?RenderTerrain@CMapOutdoor@@QAEXXZ
_TEXT	SEGMENT
_v3Eye$ = -84						; size = 12
$T1 = -72						; size = 1
$T2 = -68						; size = 64
__$ArrayPad$ = -4					; size = 4
?RenderTerrain@CMapOutdoor@@QAEXXZ PROC			; CMapOutdoor::RenderTerrain, COMDAT
; _this$ = ecx

; 18   : {

  00000	55		 push	 ebp
  00001	8b ec		 mov	 ebp, esp
  00003	83 ec 54	 sub	 esp, 84			; 00000054H
  00006	a1 00 00 00 00	 mov	 eax, DWORD PTR ___security_cookie
  0000b	33 c5		 xor	 eax, ebp
  0000d	89 45 fc	 mov	 DWORD PTR __$ArrayPad$[ebp], eax
  00010	57		 push	 edi

; 19   : 	if (!IsVisiblePart(PART_TERRAIN))

  00011	6a 00		 push	 0
  00013	8b f9		 mov	 edi, ecx
  00015	e8 00 00 00 00	 call	 ?IsVisiblePart@CMapOutdoor@@IAE_NH@Z ; CMapOutdoor::IsVisiblePart
  0001a	84 c0		 test	 al, al
  0001c	0f 84 e3 00 00
	00		 je	 $LN7@RenderTerr

; 20   : 		return;
; 21   : 
; 22   : 	if (!m_bSettingTerrainVisible)

  00022	80 bf ac 13 00
	00 00		 cmp	 BYTE PTR [edi+5036], 0
  00029	0f 84 d6 00 00
	00		 je	 $LN7@RenderTerr

; 23   : 		return;
; 24   : 
; 25   : 	// Inserted by levites
; 26   : 	if (!m_pTerrainPatchProxyList)

  0002f	83 7f 64 00	 cmp	 DWORD PTR [edi+100], 0
  00033	0f 84 cc 00 00
	00		 je	 $LN7@RenderTerr

; 27   : 		return;
; 28   : 
; 29   : 	CCamera * pCamera = CCameraManager::Instance().GetCurrentCamera();

  00039	8b 0d 00 00 00
	00		 mov	 ecx, DWORD PTR ?ms_singleton@?$CSingleton@VCCameraManager@@@@0PAVCCameraManager@@A ; CSingleton<CCameraManager>::ms_singleton
  0003f	56		 push	 esi
  00040	e8 00 00 00 00	 call	 ?GetCurrentCamera@CCameraManager@@QAEPAVCCamera@@XZ ; CCameraManager::GetCurrentCamera
  00045	8b f0		 mov	 esi, eax

; 30   : 	if (!pCamera)

  00047	85 f6		 test	 esi, esi
  00049	0f 84 b5 00 00
	00		 je	 $LN27@RenderTerr
; File D:\Metin2 Server Files\mainline\SRC_2014\M2Data\include\d3dx8math.inl

; 580  :     D3DXMatrixMultiply(&matT, this, &mat);

  0004f	68 00 00 00 00	 push	 OFFSET ?ms_matProj@CGraphicBase@@1UD3DXMATRIX@@A ; CGraphicBase::ms_matProj
  00054	68 00 00 00 00	 push	 OFFSET ?ms_matView@CGraphicBase@@1UD3DXMATRIX@@A ; CGraphicBase::ms_matView
  00059	8d 45 bc	 lea	 eax, DWORD PTR $T2[ebp]
  0005c	50		 push	 eax
  0005d	e8 00 00 00 00	 call	 _D3DXMatrixMultiply@12
; File D:\Metin2 Server Files\mainline\SRC_2014\Metin2Client\GameLib\MapOutdoorRender.cpp

; 33   : 	BuildViewFrustum(ms_matView * ms_matProj);

  00062	8d 45 bc	 lea	 eax, DWORD PTR $T2[ebp]
  00065	8b cf		 mov	 ecx, edi
  00067	50		 push	 eax
  00068	e8 00 00 00 00	 call	 ?BuildViewFrustum@CMapOutdoor@@IAEXAAUD3DXMATRIX@@@Z ; CMapOutdoor::BuildViewFrustum

; 34   : 
; 35   : 	D3DXVECTOR3 v3Eye = pCamera->GetEye();

  0006d	f3 0f 7e 46 30	 movq	 xmm0, QWORD PTR [esi+48]

; 36   : 	m_fXforDistanceCaculation = -v3Eye.x;
; 37   : 	m_fYforDistanceCaculation = -v3Eye.y;
; 38   : 	
; 39   : 	//////////////////////////////////////////////////////////////////////////
; 40   : 	// Push
; 41   : 	m_PatchVector.clear();
; 42   : 	
; 43   : 	__RenderTerrain_RecurseRenderQuadTree(m_pRootNode);

  00072	8b cf		 mov	 ecx, edi
  00074	8b 87 18 01 00
	00		 mov	 eax, DWORD PTR [edi+280]
  0007a	66 0f d6 45 ac	 movq	 QWORD PTR _v3Eye$[ebp], xmm0
  0007f	f3 0f 10 45 ac	 movss	 xmm0, DWORD PTR _v3Eye$[ebp]
  00084	0f 57 05 00 00
	00 00		 xorps	 xmm0, DWORD PTR __xmm@80000000800000008000000080000000
  0008b	f3 0f 11 87 10
	09 00 00	 movss	 DWORD PTR [edi+2320], xmm0
  00093	f3 0f 10 45 b0	 movss	 xmm0, DWORD PTR _v3Eye$[ebp+4]
  00098	0f 57 05 00 00
	00 00		 xorps	 xmm0, DWORD PTR __xmm@80000000800000008000000080000000
  0009f	6a 01		 push	 1
  000a1	ff b7 14 01 00
	00		 push	 DWORD PTR [edi+276]
  000a7	f3 0f 11 87 14
	09 00 00	 movss	 DWORD PTR [edi+2324], xmm0
  000af	89 87 1c 01 00
	00		 mov	 DWORD PTR [edi+284], eax
  000b5	e8 00 00 00 00	 call	 ?__RenderTerrain_RecurseRenderQuadTree@CMapOutdoor@@IAEXPAVCTerrainQuadtreeNode@@_N@Z ; CMapOutdoor::__RenderTerrain_RecurseRenderQuadTree
; File C:\Program Files (x86)\Microsoft Visual Studio\2019\Community\VC\Tools\MSVC\14.28.29333\include\vector

; 42   :     _Vector_const_iterator(_Tptr _Parg, const _Container_base* _Pvector) noexcept : _Ptr(_Parg) {

  000ba	8b 97 1c 01 00
	00		 mov	 edx, DWORD PTR [edi+284]
; File C:\Program Files (x86)\Microsoft Visual Studio\2019\Community\VC\Tools\MSVC\14.28.29333\include\algorithm

; 7571 :     _Sort_unchecked(_UFirst, _ULast, _ULast - _UFirst, _Pass_fn(_Pred));

  000c0	8b c2		 mov	 eax, edx
; File C:\Program Files (x86)\Microsoft Visual Studio\2019\Community\VC\Tools\MSVC\14.28.29333\include\vector

; 42   :     _Vector_const_iterator(_Tptr _Parg, const _Container_base* _Pvector) noexcept : _Ptr(_Parg) {

  000c2	8b b7 18 01 00
	00		 mov	 esi, DWORD PTR [edi+280]
; File C:\Program Files (x86)\Microsoft Visual Studio\2019\Community\VC\Tools\MSVC\14.28.29333\include\algorithm

; 7571 :     _Sort_unchecked(_UFirst, _ULast, _ULast - _UFirst, _Pass_fn(_Pred));

  000c8	2b c6		 sub	 eax, esi
  000ca	c6 45 b8 00	 mov	 BYTE PTR $T1[ebp], 0
  000ce	ff 75 b8	 push	 DWORD PTR $T1[ebp]
  000d1	c1 f8 03	 sar	 eax, 3
  000d4	50		 push	 eax
  000d5	52		 push	 edx
  000d6	56		 push	 esi
  000d7	e8 00 00 00 00	 call	 ??$_Sort_unchecked@PAU?$pair@MJ@std@@U?$less@X@2@@std@@YAXPAU?$pair@MJ@0@0HU?$less@X@0@@Z ; std::_Sort_unchecked<std::pair<float,long> *,std::less<void> >
  000dc	83 c4 10	 add	 esp, 16			; 00000010H
; File D:\Metin2 Server Files\mainline\SRC_2014\Metin2Client\GameLib\MapOutdoorRender.cpp

; 49   : 	if (CTerrainPatch::SOFTWARE_TRANSFORM_PATCH_ENABLE)

  000df	8b cf		 mov	 ecx, edi
  000e1	80 3d 00 00 00
	00 00		 cmp	 BYTE PTR ?SOFTWARE_TRANSFORM_PATCH_ENABLE@CTerrainPatch@@2_NA, 0 ; CTerrainPatch::SOFTWARE_TRANSFORM_PATCH_ENABLE
  000e8	74 15		 je	 SHORT $LN6@RenderTerr

; 50   : 		__RenderTerrain_RenderSoftwareTransformPatch();

  000ea	e8 00 00 00 00	 call	 ?__RenderTerrain_RenderSoftwareTransformPatch@CMapOutdoor@@IAEXXZ ; CMapOutdoor::__RenderTerrain_RenderSoftwareTransformPatch
  000ef	5e		 pop	 esi
  000f0	5f		 pop	 edi

; 53   : }

  000f1	8b 4d fc	 mov	 ecx, DWORD PTR __$ArrayPad$[ebp]
  000f4	33 cd		 xor	 ecx, ebp
  000f6	e8 00 00 00 00	 call	 @__security_check_cookie@4
  000fb	8b e5		 mov	 esp, ebp
  000fd	5d		 pop	 ebp
  000fe	c3		 ret	 0
$LN6@RenderTerr:

; 51   : 	else
; 52   : 		__RenderTerrain_RenderHardwareTransformPatch();

  000ff	e8 00 00 00 00	 call	 ?__RenderTerrain_RenderHardwareTransformPatch@CMapOutdoor@@IAEXXZ ; CMapOutdoor::__RenderTerrain_RenderHardwareTransformPatch
$LN27@RenderTerr:
  00104	5e		 pop	 esi
$LN7@RenderTerr:

; 53   : }

  00105	8b 4d fc	 mov	 ecx, DWORD PTR __$ArrayPad$[ebp]
  00108	33 cd		 xor	 ecx, ebp
  0010a	5f		 pop	 edi
  0010b	e8 00 00 00 00	 call	 @__security_check_cookie@4
  00110	8b e5		 mov	 esp, ebp
  00112	5d		 pop	 ebp
  00113	c3		 ret	 0
?RenderTerrain@CMapOutdoor@@QAEXXZ ENDP			; CMapOutdoor::RenderTerrain
_TEXT	ENDS
; Function compile flags: /Ogtp
; File D:\Metin2 Server Files\mainline\SRC_2014\Metin2Client\GameLib\MapOutdoorRender.cpp
;	COMDAT ?RenderScreenFiltering@CMapOutdoor@@QAEXXZ
_TEXT	SEGMENT
?RenderScreenFiltering@CMapOutdoor@@QAEXXZ PROC		; CMapOutdoor::RenderScreenFiltering, COMDAT
; _this$ = ecx

; 221  : 	m_ScreenFilter.Render();

  00000	81 c1 2c 07 00
	00		 add	 ecx, 1836		; 0000072cH
  00006	e9 00 00 00 00	 jmp	 ?Render@CScreenFilter@@QAEXXZ ; CScreenFilter::Render
?RenderScreenFiltering@CMapOutdoor@@QAEXXZ ENDP		; CMapOutdoor::RenderScreenFiltering
_TEXT	ENDS
; Function compile flags: /Ogtp
; File D:\Metin2 Server Files\mainline\SRC_2014\Metin2Client\GameLib\MapOutdoorRender.cpp
;	COMDAT ?RenderAfterLensFlare@CMapOutdoor@@QAEXXZ
_TEXT	SEGMENT
?RenderAfterLensFlare@CMapOutdoor@@QAEXXZ PROC		; CMapOutdoor::RenderAfterLensFlare, COMDAT
; _this$ = ecx

; 204  : {

  00000	56		 push	 esi

; 205  : 	m_LensFlare.AdjustBrightness();

  00001	8d b1 b8 06 00
	00		 lea	 esi, DWORD PTR [ecx+1720]
  00007	8b ce		 mov	 ecx, esi
  00009	e8 00 00 00 00	 call	 ?AdjustBrightness@CLensFlare@@QAEXXZ ; CLensFlare::AdjustBrightness

; 206  : 	m_LensFlare.DrawFlare();

  0000e	8b ce		 mov	 ecx, esi
  00010	5e		 pop	 esi
  00011	e9 00 00 00 00	 jmp	 ?DrawFlare@CLensFlare@@QAEXXZ ; CLensFlare::DrawFlare
?RenderAfterLensFlare@CMapOutdoor@@QAEXXZ ENDP		; CMapOutdoor::RenderAfterLensFlare
_TEXT	ENDS
; Function compile flags: /Ogtp
; File D:\Metin2 Server Files\mainline\SRC_2014\Metin2Client\GameLib\MapOutdoorRender.cpp
; File D:\Metin2 Server Files\mainline\SRC_2014\M2Data\include\d3dx8math.inl
; File D:\Metin2 Server Files\mainline\SRC_2014\Metin2Client\GameLib\MapOutdoorRender.cpp
; File D:\Metin2 Server Files\mainline\SRC_2014\M2Data\include\d3dx8math.inl
; File D:\Metin2 Server Files\mainline\SRC_2014\Metin2Client\GameLib\MapOutdoorRender.cpp
; File D:\Metin2 Server Files\mainline\SRC_2014\M2Data\include\d3dx8math.inl
; File D:\Metin2 Server Files\mainline\SRC_2014\Metin2Client\GameLib\MapOutdoorRender.cpp
;	COMDAT ?RenderBeforeLensFlare@CMapOutdoor@@QAEXXZ
_TEXT	SEGMENT
$T1 = -16						; size = 12
__$ArrayPad$ = -4					; size = 4
?RenderBeforeLensFlare@CMapOutdoor@@QAEXXZ PROC		; CMapOutdoor::RenderBeforeLensFlare, COMDAT
; _this$ = ecx

; 191  : {

  00000	55		 push	 ebp
  00001	8b ec		 mov	 ebp, esp
  00003	83 ec 10	 sub	 esp, 16			; 00000010H
  00006	a1 00 00 00 00	 mov	 eax, DWORD PTR ___security_cookie
  0000b	33 c5		 xor	 eax, ebp
  0000d	89 45 fc	 mov	 DWORD PTR __$ArrayPad$[ebp], eax
  00010	56		 push	 esi
  00011	8b f1		 mov	 esi, ecx
  00013	57		 push	 edi

; 192  : 	m_LensFlare.DrawBeforeFlare();	

  00014	8d 8e b8 06 00
	00		 lea	 ecx, DWORD PTR [esi+1720]
  0001a	e8 00 00 00 00	 call	 ?DrawBeforeFlare@CLensFlare@@QAEXXZ ; CLensFlare::DrawBeforeFlare

; 193  : 
; 194  : 	if (!mc_pEnvironmentData)

  0001f	8b 46 3c	 mov	 eax, DWORD PTR [esi+60]
  00022	85 c0		 test	 eax, eax
  00024	75 1d		 jne	 SHORT $LN2@RenderBefo

; 195  : 	{
; 196  : 		TraceError("CMapOutdoor::RenderBeforeLensFlare mc_pEnvironmentData is NULL");

  00026	68 00 00 00 00	 push	 OFFSET ??_C@_0DP@MKJEJLFD@CMapOutdoor?3?3RenderBeforeLensFl@
  0002b	e8 00 00 00 00	 call	 ?TraceError@@YAXPBDZZ	; TraceError
  00030	83 c4 04	 add	 esp, 4
  00033	5f		 pop	 edi

; 201  : }

  00034	5e		 pop	 esi
  00035	8b 4d fc	 mov	 ecx, DWORD PTR __$ArrayPad$[ebp]
  00038	33 cd		 xor	 ecx, ebp
  0003a	e8 00 00 00 00	 call	 @__security_check_cookie@4
  0003f	8b e5		 mov	 esp, ebp
  00041	5d		 pop	 ebp
  00042	c3		 ret	 0
$LN2@RenderBefo:
; File D:\Metin2 Server Files\mainline\SRC_2014\M2Data\include\d3dx8math.inl

; 172  :     x = v.x;

  00043	f3 0f 10 40 48	 movss	 xmm0, DWORD PTR [eax+72]
; File D:\Metin2 Server Files\mainline\SRC_2014\Metin2Client\GameLib\MapOutdoorRender.cpp

; 200  : 	m_LensFlare.Compute(mc_pEnvironmentData->DirLights[ENV_DIRLIGHT_BACKGROUND].Direction);

  00048	8d 8e b8 06 00
	00		 lea	 ecx, DWORD PTR [esi+1720]
; File D:\Metin2 Server Files\mainline\SRC_2014\M2Data\include\d3dx8math.inl

; 172  :     x = v.x;

  0004e	f3 0f 11 45 f0	 movss	 DWORD PTR $T1[ebp], xmm0

; 173  :     y = v.y;

  00053	f3 0f 10 40 4c	 movss	 xmm0, DWORD PTR [eax+76]
  00058	f3 0f 11 45 f4	 movss	 DWORD PTR $T1[ebp+4], xmm0

; 174  :     z = v.z;

  0005d	f3 0f 10 40 50	 movss	 xmm0, DWORD PTR [eax+80]
; File D:\Metin2 Server Files\mainline\SRC_2014\Metin2Client\GameLib\MapOutdoorRender.cpp

; 200  : 	m_LensFlare.Compute(mc_pEnvironmentData->DirLights[ENV_DIRLIGHT_BACKGROUND].Direction);

  00062	8d 45 f0	 lea	 eax, DWORD PTR $T1[ebp]
  00065	50		 push	 eax
; File D:\Metin2 Server Files\mainline\SRC_2014\M2Data\include\d3dx8math.inl

; 174  :     z = v.z;

  00066	f3 0f 11 45 f8	 movss	 DWORD PTR $T1[ebp+8], xmm0
; File D:\Metin2 Server Files\mainline\SRC_2014\Metin2Client\GameLib\MapOutdoorRender.cpp

; 200  : 	m_LensFlare.Compute(mc_pEnvironmentData->DirLights[ENV_DIRLIGHT_BACKGROUND].Direction);

  0006b	e8 00 00 00 00	 call	 ?Compute@CLensFlare@@QAEXABUD3DXVECTOR3@@@Z ; CLensFlare::Compute

; 201  : }

  00070	8b 4d fc	 mov	 ecx, DWORD PTR __$ArrayPad$[ebp]
  00073	5f		 pop	 edi
  00074	33 cd		 xor	 ecx, ebp
  00076	5e		 pop	 esi
  00077	e8 00 00 00 00	 call	 @__security_check_cookie@4
  0007c	8b e5		 mov	 esp, ebp
  0007e	5d		 pop	 ebp
  0007f	c3		 ret	 0
?RenderBeforeLensFlare@CMapOutdoor@@QAEXXZ ENDP		; CMapOutdoor::RenderBeforeLensFlare
_TEXT	ENDS
; Function compile flags: /Ogtp
; File D:\Metin2 Server Files\mainline\SRC_2014\Metin2Client\GameLib\MapOutdoorRender.cpp
;	COMDAT ?RenderCloud@CMapOutdoor@@QAEXXZ
_TEXT	SEGMENT
?RenderCloud@CMapOutdoor@@QAEXXZ PROC			; CMapOutdoor::RenderCloud, COMDAT
; _this$ = ecx

; 231  : {

  00000	56		 push	 esi

; 232  : 	if (IsVisiblePart(PART_CLOUD))

  00001	6a 02		 push	 2
  00003	8b f1		 mov	 esi, ecx
  00005	e8 00 00 00 00	 call	 ?IsVisiblePart@CMapOutdoor@@IAE_NH@Z ; CMapOutdoor::IsVisiblePart
  0000a	84 c0		 test	 al, al
  0000c	74 0c		 je	 SHORT $LN2@RenderClou

; 233  : 		m_SkyBox.RenderCloud();

  0000e	8d 8e 38 03 00
	00		 lea	 ecx, DWORD PTR [esi+824]
  00014	5e		 pop	 esi
  00015	e9 00 00 00 00	 jmp	 ?RenderCloud@CSkyBox@@QAEXXZ ; CSkyBox::RenderCloud
$LN2@RenderClou:
  0001a	5e		 pop	 esi

; 234  : }

  0001b	c3		 ret	 0
?RenderCloud@CMapOutdoor@@QAEXXZ ENDP			; CMapOutdoor::RenderCloud
_TEXT	ENDS
; Function compile flags: /Ogtp
; File D:\Metin2 Server Files\mainline\SRC_2014\Metin2Client\GameLib\MapOutdoorRender.cpp
;	COMDAT ?RenderSky@CMapOutdoor@@QAEXXZ
_TEXT	SEGMENT
?RenderSky@CMapOutdoor@@QAEXXZ PROC			; CMapOutdoor::RenderSky, COMDAT
; _this$ = ecx

; 225  : {

  00000	56		 push	 esi

; 226  : 	if (IsVisiblePart(PART_SKY))

  00001	6a 05		 push	 5
  00003	8b f1		 mov	 esi, ecx
  00005	e8 00 00 00 00	 call	 ?IsVisiblePart@CMapOutdoor@@IAE_NH@Z ; CMapOutdoor::IsVisiblePart
  0000a	84 c0		 test	 al, al
  0000c	74 10		 je	 SHORT $LN2@RenderSky

; 227  : 		m_SkyBox.Render();

  0000e	8b 86 38 03 00
	00		 mov	 eax, DWORD PTR [esi+824]
  00014	8d 8e 38 03 00
	00		 lea	 ecx, DWORD PTR [esi+824]
  0001a	5e		 pop	 esi
  0001b	ff 60 08	 jmp	 DWORD PTR [eax+8]
$LN2@RenderSky:
  0001e	5e		 pop	 esi

; 228  : }

  0001f	c3		 ret	 0
?RenderSky@CMapOutdoor@@QAEXXZ ENDP			; CMapOutdoor::RenderSky
_TEXT	ENDS
; Function compile flags: /Ogtp
; File D:\Metin2 Server Files\mainline\SRC_2014\Metin2Client\GameLib\MapOutdoorRender.cpp
;	COMDAT ?RenderCollision@CMapOutdoor@@QAEXXZ
_TEXT	SEGMENT
_pArea$1 = -4						; size = 4
?RenderCollision@CMapOutdoor@@QAEXXZ PROC		; CMapOutdoor::RenderCollision, COMDAT
; _this$ = ecx

; 210  : {

  00000	55		 push	 ebp
  00001	8b ec		 mov	 ebp, esp
  00003	51		 push	 ecx
  00004	56		 push	 esi
  00005	57		 push	 edi
  00006	8b f9		 mov	 edi, ecx

; 211  : 	for (int i = 0; i < AROUND_AREA_NUM; ++i)

  00008	33 f6		 xor	 esi, esi
  0000a	66 0f 1f 44 00
	00		 npad	 6
$LL4@RenderColl:

; 212  : 	{
; 213  : 		CArea * pArea;
; 214  : 		if (GetAreaPointer(i, &pArea))

  00010	8d 45 fc	 lea	 eax, DWORD PTR _pArea$1[ebp]
  00013	8b cf		 mov	 ecx, edi
  00015	50		 push	 eax
  00016	56		 push	 esi
  00017	e8 00 00 00 00	 call	 ?GetAreaPointer@CMapOutdoor@@QAEHEPAPAVCArea@@@Z ; CMapOutdoor::GetAreaPointer
  0001c	85 c0		 test	 eax, eax
  0001e	74 08		 je	 SHORT $LN2@RenderColl

; 215  : 			pArea->RenderCollision();

  00020	8b 4d fc	 mov	 ecx, DWORD PTR _pArea$1[ebp]
  00023	e8 00 00 00 00	 call	 ?RenderCollision@CArea@@QAEXXZ ; CArea::RenderCollision
$LN2@RenderColl:

; 211  : 	for (int i = 0; i < AROUND_AREA_NUM; ++i)

  00028	46		 inc	 esi
  00029	83 fe 09	 cmp	 esi, 9
  0002c	7c e2		 jl	 SHORT $LL4@RenderColl

; 216  : 	}
; 217  : }

  0002e	5f		 pop	 edi
  0002f	5e		 pop	 esi
  00030	8b e5		 mov	 esp, ebp
  00032	5d		 pop	 ebp
  00033	c3		 ret	 0
?RenderCollision@CMapOutdoor@@QAEXXZ ENDP		; CMapOutdoor::RenderCollision
_TEXT	ENDS
; Function compile flags: /Ogtp
; File D:\Metin2 Server Files\mainline\SRC_2014\Metin2Client\GameLib\MapOutdoorRender.cpp
; File D:\Metin2 Server Files\mainline\SRC_2014\Metin2Client\GameLib\AreaTerrain.h
; File D:\Metin2 Server Files\mainline\SRC_2014\Metin2Client\GameLib\MapOutdoorRender.cpp
;	COMDAT ?DrawPatchAttr@CMapOutdoor@@QAEXJ@Z
_TEXT	SEGMENT
_ucTerrainNum$ = -76					; size = 1
_pTerrain$ = -72					; size = 4
_matTexTransform$ = -68					; size = 64
__$ArrayPad$ = -4					; size = 4
_patchnum$ = 8						; size = 4
?DrawPatchAttr@CMapOutdoor@@QAEXJ@Z PROC		; CMapOutdoor::DrawPatchAttr, COMDAT
; _this$ = ecx

; 917  : {

  00000	55		 push	 ebp
  00001	8b ec		 mov	 ebp, esp
  00003	83 ec 4c	 sub	 esp, 76			; 0000004cH
  00006	a1 00 00 00 00	 mov	 eax, DWORD PTR ___security_cookie
  0000b	33 c5		 xor	 eax, ebp
  0000d	89 45 fc	 mov	 DWORD PTR __$ArrayPad$[ebp], eax
  00010	8b 45 08	 mov	 eax, DWORD PTR _patchnum$[ebp]
  00013	56		 push	 esi
  00014	57		 push	 edi
  00015	8b f9		 mov	 edi, ecx

; 918  : 	CTerrainPatchProxy * pTerrainPatchProxy = &m_pTerrainPatchProxyList[patchnum];

  00017	8d 14 c5 00 00
	00 00		 lea	 edx, DWORD PTR [eax*8]
  0001e	2b d0		 sub	 edx, eax
  00020	8b 47 64	 mov	 eax, DWORD PTR [edi+100]

; 919  : 	if (!pTerrainPatchProxy->isUsed())

  00023	80 7c 90 04 00	 cmp	 BYTE PTR [eax+edx*4+4], 0
  00028	8d 34 90	 lea	 esi, DWORD PTR [eax+edx*4]
  0002b	0f 84 13 01 00
	00		 je	 $LN1@DrawPatchA

; 920  : 		return;
; 921  : 
; 922  : 	long sPatchNum = pTerrainPatchProxy->GetPatchNum();
; 923  : 	if (sPatchNum < 0)

  00031	66 83 7e 06 00	 cmp	 WORD PTR [esi+6], 0
  00036	0f 8c 08 01 00
	00		 jl	 $LN1@DrawPatchA

; 924  : 		return;
; 925  : 
; 926  : 	BYTE ucTerrainNum = pTerrainPatchProxy->GetTerrainNum();

  0003c	8a 46 08	 mov	 al, BYTE PTR [esi+8]
  0003f	88 45 b4	 mov	 BYTE PTR _ucTerrainNum$[ebp], al

; 927  : 	if (0xFF == ucTerrainNum)

  00042	3c ff		 cmp	 al, 255			; 000000ffH
  00044	0f 84 fa 00 00
	00		 je	 $LN1@DrawPatchA

; 928  : 		return;
; 929  : 
; 930  : 	// Deal with this material buffer
; 931  : 	CTerrain * pTerrain;
; 932  : 	if (!GetTerrainPointer(ucTerrainNum, &pTerrain))

  0004a	8d 45 b8	 lea	 eax, DWORD PTR _pTerrain$[ebp]
  0004d	50		 push	 eax
  0004e	ff 75 b4	 push	 DWORD PTR _ucTerrainNum$[ebp]
  00051	e8 00 00 00 00	 call	 ?GetTerrainPointer@CMapOutdoor@@QAEHEPAPAVCTerrain@@@Z ; CMapOutdoor::GetTerrainPointer
  00056	85 c0		 test	 eax, eax
  00058	0f 84 e6 00 00
	00		 je	 $LN1@DrawPatchA

; 933  : 		return;
; 934  : 
; 935  : 	if (!pTerrain->IsMarked())

  0005e	8b 45 b8	 mov	 eax, DWORD PTR _pTerrain$[ebp]
  00061	83 b8 d8 c1 06
	00 00		 cmp	 DWORD PTR [eax+442840], 0
  00068	0f 84 d6 00 00
	00		 je	 $LN1@DrawPatchA
; File D:\Metin2 Server Files\mainline\SRC_2014\Metin2Client\GameLib\AreaTerrain.h

; 93   : 			*usCoordY = m_wY;

  0006e	0f b7 88 6e a5
	06 00		 movzx	 ecx, WORD PTR [eax+435566]
; File D:\Metin2 Server Files\mainline\SRC_2014\Metin2Client\GameLib\MapOutdoorRender.cpp

; 941  : 	m_matWorldForCommonUse._41 = -(float) (wCoordX * CTerrainImpl::XSIZE * CTerrainImpl::CELLSCALE);

  00075	0f b7 80 6c a5
	06 00		 movzx	 eax, WORD PTR [eax+435564]
  0007c	69 c0 00 9c ff
	ff		 imul	 eax, eax, -25600
  00082	66 0f 6e c0	 movd	 xmm0, eax

; 942  : 	m_matWorldForCommonUse._42 = (float) (wCoordY * CTerrainImpl::YSIZE * CTerrainImpl::CELLSCALE);

  00086	8b c1		 mov	 eax, ecx
  00088	69 c0 00 64 00
	00		 imul	 eax, eax, 25600
  0008e	0f 5b c0	 cvtdq2ps xmm0, xmm0
  00091	f3 0f 11 87 78
	07 00 00	 movss	 DWORD PTR [edi+1912], xmm0
  00099	66 0f 6e c0	 movd	 xmm0, eax

; 943  : 
; 944  : 	D3DXMATRIX matTexTransform, matTexTransformTemp;
; 945  : 	D3DXMatrixMultiply(&matTexTransform, &m_matViewInverse, &m_matWorldForCommonUse);

  0009d	8d 87 48 07 00
	00		 lea	 eax, DWORD PTR [edi+1864]
  000a3	50		 push	 eax
  000a4	0f 5b c0	 cvtdq2ps xmm0, xmm0
  000a7	8d 87 88 07 00
	00		 lea	 eax, DWORD PTR [edi+1928]
  000ad	50		 push	 eax
  000ae	8d 45 bc	 lea	 eax, DWORD PTR _matTexTransform$[ebp]
  000b1	50		 push	 eax
  000b2	f3 0f 11 87 7c
	07 00 00	 movss	 DWORD PTR [edi+1916], xmm0
  000ba	e8 00 00 00 00	 call	 _D3DXMatrixMultiply@12

; 946  : 	D3DXMatrixMultiply(&matTexTransform, &matTexTransform, &m_matStaticShadow);

  000bf	8d 87 08 08 00
	00		 lea	 eax, DWORD PTR [edi+2056]
  000c5	50		 push	 eax
  000c6	8d 45 bc	 lea	 eax, DWORD PTR _matTexTransform$[ebp]
  000c9	50		 push	 eax
  000ca	50		 push	 eax
  000cb	e8 00 00 00 00	 call	 _D3DXMatrixMultiply@12

; 947  : 	STATEMANAGER.SetTransform(D3DTS_TEXTURE1, &matTexTransform);

  000d0	8b 0d 00 00 00
	00		 mov	 ecx, DWORD PTR ?ms_singleton@?$CSingleton@VCStateManager@@@@0PAVCStateManager@@A ; CSingleton<CStateManager>::ms_singleton
  000d6	8d 45 bc	 lea	 eax, DWORD PTR _matTexTransform$[ebp]
  000d9	50		 push	 eax
  000da	6a 11		 push	 17			; 00000011H
  000dc	e8 00 00 00 00	 call	 ?SetTransform@CStateManager@@QAEXW4_D3DTRANSFORMSTATETYPE@@PBU_D3DMATRIX@@@Z ; CStateManager::SetTransform

; 948  : 
; 949  : 	TTerrainSplatPatch & rAttrSplatPatch = pTerrain->GetMarkedSplatPatch();
; 950  :  	STATEMANAGER.SetTexture(1, rAttrSplatPatch.Splats[0].pd3dTexture);

  000e1	8b 45 b8	 mov	 eax, DWORD PTR _pTerrain$[ebp]
  000e4	8b 0d 00 00 00
	00		 mov	 ecx, DWORD PTR ?ms_singleton@?$CSingleton@VCStateManager@@@@0PAVCStateManager@@A ; CSingleton<CStateManager>::ms_singleton
  000ea	ff b0 e4 c5 07
	00		 push	 DWORD PTR [eax+509412]
  000f0	6a 01		 push	 1
  000f2	e8 00 00 00 00	 call	 ?SetTexture@CStateManager@@QAEXKPAUIDirect3DBaseTexture8@@@Z ; CStateManager::SetTexture

; 951  : 
; 952  : 	STATEMANAGER.SetVertexShader(D3DFVF_XYZ | D3DFVF_NORMAL);

  000f7	8b 0d 00 00 00
	00		 mov	 ecx, DWORD PTR ?ms_singleton@?$CSingleton@VCStateManager@@@@0PAVCStateManager@@A ; CSingleton<CStateManager>::ms_singleton
  000fd	6a 12		 push	 18			; 00000012H
  000ff	e8 00 00 00 00	 call	 ?SetVertexShader@CStateManager@@QAEXK@Z ; CStateManager::SetVertexShader

; 953  : 	STATEMANAGER.SetStreamSource(0, pTerrainPatchProxy->HardwareTransformPatch_GetVertexBufferPtr()->GetD3DVertexBuffer(), m_iPatchTerrainVertexSize);

  00104	ff b7 a8 09 00
	00		 push	 DWORD PTR [edi+2472]
  0010a	8b ce		 mov	 ecx, esi
  0010c	e8 00 00 00 00	 call	 ?HardwareTransformPatch_GetVertexBufferPtr@CTerrainPatchProxy@@QAEPAVCGraphicVertexBuffer@@XZ ; CTerrainPatchProxy::HardwareTransformPatch_GetVertexBufferPtr
  00111	8b 0d 00 00 00
	00		 mov	 ecx, DWORD PTR ?ms_singleton@?$CSingleton@VCStateManager@@@@0PAVCStateManager@@A ; CSingleton<CStateManager>::ms_singleton
  00117	8b 40 04	 mov	 eax, DWORD PTR [eax+4]
  0011a	50		 push	 eax
  0011b	6a 00		 push	 0
  0011d	e8 00 00 00 00	 call	 ?SetStreamSource@CStateManager@@QAEXIPAUIDirect3DVertexBuffer8@@I@Z ; CStateManager::SetStreamSource

; 954  : 
; 955  : #ifdef WORLD_EDITOR
; 956  : 	STATEMANAGER.DrawIndexedPrimitive(D3DPT_TRIANGLESTRIP, 0, m_iPatchTerrainVertexCount, 0, m_wNumIndices - 2);
; 957  : #else
; 958  : 	STATEMANAGER.DrawIndexedPrimitive(D3DPT_TRIANGLESTRIP, 0, m_iPatchTerrainVertexCount, 0, m_wNumIndices[0] - 2);

  00122	0f b7 87 d8 00
	00 00		 movzx	 eax, WORD PTR [edi+216]
  00129	8b 0d 00 00 00
	00		 mov	 ecx, DWORD PTR ?ms_singleton@?$CSingleton@VCStateManager@@@@0PAVCStateManager@@A ; CSingleton<CStateManager>::ms_singleton
  0012f	83 e8 02	 sub	 eax, 2
  00132	50		 push	 eax
  00133	6a 00		 push	 0
  00135	ff b7 a0 09 00
	00		 push	 DWORD PTR [edi+2464]
  0013b	6a 00		 push	 0
  0013d	6a 05		 push	 5
  0013f	e8 00 00 00 00	 call	 ?DrawIndexedPrimitive@CStateManager@@QAEJW4_D3DPRIMITIVETYPE@@IIII@Z ; CStateManager::DrawIndexedPrimitive
$LN1@DrawPatchA:

; 959  : #endif
; 960  : }

  00144	8b 4d fc	 mov	 ecx, DWORD PTR __$ArrayPad$[ebp]
  00147	5f		 pop	 edi
  00148	33 cd		 xor	 ecx, ebp
  0014a	5e		 pop	 esi
  0014b	e8 00 00 00 00	 call	 @__security_check_cookie@4
  00150	8b e5		 mov	 esp, ebp
  00152	5d		 pop	 ebp
  00153	c2 04 00	 ret	 4
?DrawPatchAttr@CMapOutdoor@@QAEXJ@Z ENDP		; CMapOutdoor::DrawPatchAttr
_TEXT	ENDS
; Function compile flags: /Ogtp
; File D:\Metin2 Server Files\mainline\SRC_2014\Metin2Client\GameLib\MapOutdoorRender.cpp
;	COMDAT ?RecurseRenderAttr@CMapOutdoor@@QAEXPAVCTerrainQuadtreeNode@@_N@Z
_TEXT	SEGMENT
_Node$ = 8						; size = 4
_bCullEnable$ = 12					; size = 1
?RecurseRenderAttr@CMapOutdoor@@QAEXPAVCTerrainQuadtreeNode@@_N@Z PROC ; CMapOutdoor::RecurseRenderAttr, COMDAT
; _this$ = ecx

; 890  : {

  00000	55		 push	 ebp
  00001	8b ec		 mov	 ebp, esp
  00003	53		 push	 ebx
  00004	8b 5d 0c	 mov	 ebx, DWORD PTR _bCullEnable$[ebp]
  00007	56		 push	 esi
  00008	8b 75 08	 mov	 esi, DWORD PTR _Node$[ebp]
  0000b	57		 push	 edi
  0000c	8b f9		 mov	 edi, ecx
  0000e	66 90		 npad	 2
$LL11@RecurseRen:

; 891  : 	if (bCullEnable)

  00010	84 db		 test	 bl, bl
  00012	74 13		 je	 SHORT $LN3@RecurseRen

; 892  : 	{
; 893  : 		if (__RenderTerrain_RecurseRenderQuadTree_CheckBoundingCircle(Node->center, Node->radius)==VIEW_NONE)

  00014	8d 46 38	 lea	 eax, DWORD PTR [esi+56]
  00017	8b cf		 mov	 ecx, edi
  00019	50		 push	 eax
  0001a	8d 46 2c	 lea	 eax, DWORD PTR [esi+44]
  0001d	50		 push	 eax
  0001e	e8 00 00 00 00	 call	 ?__RenderTerrain_RecurseRenderQuadTree_CheckBoundingCircle@CMapOutdoor@@IAEHABUD3DXVECTOR3@@ABM@Z ; CMapOutdoor::__RenderTerrain_RecurseRenderQuadTree_CheckBoundingCircle
  00023	85 c0		 test	 eax, eax
  00025	74 4e		 je	 SHORT $LN9@RecurseRen
$LN3@RecurseRen:

; 894  : 			return;
; 895  : 	}
; 896  : 
; 897  : 	{
; 898  : 		if (Node->Size == 1)

  00027	83 7e 24 01	 cmp	 DWORD PTR [esi+36], 1
  0002b	74 3e		 je	 SHORT $LN14@RecurseRen

; 901  : 		}
; 902  : 		else
; 903  : 		{
; 904  : 			if (Node->NW_Node != NULL)

  0002d	8b 46 14	 mov	 eax, DWORD PTR [esi+20]
  00030	85 c0		 test	 eax, eax
  00032	74 09		 je	 SHORT $LN6@RecurseRen

; 905  : 				RecurseRenderAttr(Node->NW_Node, bCullEnable);

  00034	53		 push	 ebx
  00035	50		 push	 eax
  00036	8b cf		 mov	 ecx, edi
  00038	e8 00 00 00 00	 call	 ?RecurseRenderAttr@CMapOutdoor@@QAEXPAVCTerrainQuadtreeNode@@_N@Z ; CMapOutdoor::RecurseRenderAttr
$LN6@RecurseRen:

; 906  : 			if (Node->NE_Node != NULL)

  0003d	8b 46 18	 mov	 eax, DWORD PTR [esi+24]
  00040	85 c0		 test	 eax, eax
  00042	74 09		 je	 SHORT $LN7@RecurseRen

; 907  : 				RecurseRenderAttr(Node->NE_Node, bCullEnable);

  00044	53		 push	 ebx
  00045	50		 push	 eax
  00046	8b cf		 mov	 ecx, edi
  00048	e8 00 00 00 00	 call	 ?RecurseRenderAttr@CMapOutdoor@@QAEXPAVCTerrainQuadtreeNode@@_N@Z ; CMapOutdoor::RecurseRenderAttr
$LN7@RecurseRen:

; 908  : 			if (Node->SW_Node != NULL)

  0004d	8b 46 1c	 mov	 eax, DWORD PTR [esi+28]
  00050	85 c0		 test	 eax, eax
  00052	74 09		 je	 SHORT $LN8@RecurseRen

; 909  : 				RecurseRenderAttr(Node->SW_Node, bCullEnable);

  00054	53		 push	 ebx
  00055	50		 push	 eax
  00056	8b cf		 mov	 ecx, edi
  00058	e8 00 00 00 00	 call	 ?RecurseRenderAttr@CMapOutdoor@@QAEXPAVCTerrainQuadtreeNode@@_N@Z ; CMapOutdoor::RecurseRenderAttr
$LN8@RecurseRen:

; 910  : 			if (Node->SE_Node != NULL)

  0005d	8b 76 20	 mov	 esi, DWORD PTR [esi+32]
  00060	85 f6		 test	 esi, esi
  00062	75 ac		 jne	 SHORT $LL11@RecurseRen

; 911  : 				RecurseRenderAttr(Node->SE_Node, bCullEnable);
; 912  : 		}
; 913  :  	}
; 914  : }

  00064	5f		 pop	 edi
  00065	5e		 pop	 esi
  00066	5b		 pop	 ebx
  00067	5d		 pop	 ebp
  00068	c2 08 00	 ret	 8
$LN14@RecurseRen:

; 899  : 		{
; 900  : 			DrawPatchAttr(Node->PatchNum);

  0006b	ff 76 28	 push	 DWORD PTR [esi+40]
  0006e	8b cf		 mov	 ecx, edi
  00070	e8 00 00 00 00	 call	 ?DrawPatchAttr@CMapOutdoor@@QAEXJ@Z ; CMapOutdoor::DrawPatchAttr
$LN9@RecurseRen:

; 911  : 				RecurseRenderAttr(Node->SE_Node, bCullEnable);
; 912  : 		}
; 913  :  	}
; 914  : }

  00075	5f		 pop	 edi
  00076	5e		 pop	 esi
  00077	5b		 pop	 ebx
  00078	5d		 pop	 ebp
  00079	c2 08 00	 ret	 8
?RecurseRenderAttr@CMapOutdoor@@QAEXPAVCTerrainQuadtreeNode@@_N@Z ENDP ; CMapOutdoor::RecurseRenderAttr
_TEXT	ENDS
; Function compile flags: /Ogtp
; File D:\Metin2 Server Files\mainline\SRC_2014\Metin2Client\GameLib\MapOutdoorRender.cpp
; File C:\Program Files (x86)\Windows Kits\10\Include\10.0.18362.0\ucrt\corecrt_math.h
; File D:\Metin2 Server Files\mainline\SRC_2014\Metin2Client\GameLib\MapOutdoorRender.cpp
; File D:\Metin2 Server Files\mainline\SRC_2014\M2Data\include\d3dx8math.inl
; File D:\Metin2 Server Files\mainline\SRC_2014\Metin2Client\GameLib\MapOutdoorRender.cpp
; File D:\Metin2 Server Files\mainline\SRC_2014\M2Data\include\d3dx8math.inl
; File D:\Metin2 Server Files\mainline\SRC_2014\Metin2Client\GameLib\MapOutdoorRender.cpp
;	COMDAT ?RenderMarkedArea@CMapOutdoor@@QAEXXZ
_TEXT	SEGMENT
_eType$ = -76						; size = 4
_wPrimitiveCount$ = -72					; size = 2
_matTexTransform$ = -68					; size = 64
__$ArrayPad$ = -4					; size = 4
?RenderMarkedArea@CMapOutdoor@@QAEXXZ PROC		; CMapOutdoor::RenderMarkedArea, COMDAT
; _this$ = ecx

; 818  : {

  00000	55		 push	 ebp
  00001	8b ec		 mov	 ebp, esp
  00003	83 ec 4c	 sub	 esp, 76			; 0000004cH
  00006	a1 00 00 00 00	 mov	 eax, DWORD PTR ___security_cookie
  0000b	33 c5		 xor	 eax, ebp
  0000d	89 45 fc	 mov	 DWORD PTR __$ArrayPad$[ebp], eax
  00010	56		 push	 esi
  00011	8b f1		 mov	 esi, ecx

; 819  : 	if (!m_pTerrainPatchProxyList)

  00013	83 7e 64 00	 cmp	 DWORD PTR [esi+100], 0
  00017	0f 84 e7 03 00
	00		 je	 $LN1@RenderMark

; 820  : 		return;
; 821  : 
; 822  : 	m_matWorldForCommonUse._41 = 0.0f;
; 823  : 	m_matWorldForCommonUse._42 = 0.0f;
; 824  : 	STATEMANAGER.SetTransform(D3DTS_WORLD, &m_matWorldForCommonUse);

  0001d	8d 86 48 07 00
	00		 lea	 eax, DWORD PTR [esi+1864]
  00023	c7 86 78 07 00
	00 00 00 00 00	 mov	 DWORD PTR [esi+1912], 0
  0002d	50		 push	 eax
  0002e	c7 86 7c 07 00
	00 00 00 00 00	 mov	 DWORD PTR [esi+1916], 0
  00038	8b 0d 00 00 00
	00		 mov	 ecx, DWORD PTR ?ms_singleton@?$CSingleton@VCStateManager@@@@0PAVCStateManager@@A ; CSingleton<CStateManager>::ms_singleton
  0003e	68 00 01 00 00	 push	 256			; 00000100H
  00043	e8 00 00 00 00	 call	 ?SetTransform@CStateManager@@QAEXW4_D3DTRANSFORMSTATETYPE@@PBU_D3DMATRIX@@@Z ; CStateManager::SetTransform

; 825  : 
; 826  : 	WORD wPrimitiveCount;
; 827  : 	D3DPRIMITIVETYPE eType;
; 828  : 	SelectIndexBuffer(0, &wPrimitiveCount, &eType);

  00048	8d 45 b4	 lea	 eax, DWORD PTR _eType$[ebp]
  0004b	8b ce		 mov	 ecx, esi
  0004d	50		 push	 eax
  0004e	8d 45 b8	 lea	 eax, DWORD PTR _wPrimitiveCount$[ebp]
  00051	50		 push	 eax
  00052	6a 00		 push	 0
  00054	e8 00 00 00 00	 call	 ?SelectIndexBuffer@CMapOutdoor@@IAEXEPAGPAW4_D3DPRIMITIVETYPE@@@Z ; CMapOutdoor::SelectIndexBuffer

; 829  : 
; 830  : 	D3DXMATRIX matTexTransform, matTexTransformTemp;
; 831  : 
; 832  : 	D3DXMatrixScaling(&matTexTransform, m_fTerrainTexCoordBase * 32.0f, -m_fTerrainTexCoordBase * 32.0f, 0.0f);

  00059	f3 0f 10 96 08
	09 00 00	 movss	 xmm2, DWORD PTR [esi+2312]
  00061	8d 45 bc	 lea	 eax, DWORD PTR _matTexTransform$[ebp]
  00064	0f 28 c2	 movaps	 xmm0, xmm2
  00067	83 ec 0c	 sub	 esp, 12			; 0000000cH
  0006a	0f 57 05 00 00
	00 00		 xorps	 xmm0, DWORD PTR __xmm@80000000800000008000000080000000
  00071	f3 0f 59 05 00
	00 00 00	 mulss	 xmm0, DWORD PTR __real@42000000
  00079	f3 0f 59 15 00
	00 00 00	 mulss	 xmm2, DWORD PTR __real@42000000
  00081	c7 44 24 08 00
	00 00 00	 mov	 DWORD PTR [esp+8], 0
  00089	f3 0f 11 44 24
	04		 movss	 DWORD PTR [esp+4], xmm0
  0008f	f3 0f 11 14 24	 movss	 DWORD PTR [esp], xmm2
  00094	50		 push	 eax
  00095	e8 00 00 00 00	 call	 _D3DXMatrixScaling@16

; 833  : 	D3DXMatrixMultiply(&matTexTransform, &m_matViewInverse, &matTexTransform);

  0009a	8d 45 bc	 lea	 eax, DWORD PTR _matTexTransform$[ebp]
  0009d	50		 push	 eax
  0009e	8d 86 88 07 00
	00		 lea	 eax, DWORD PTR [esi+1928]
  000a4	50		 push	 eax
  000a5	8d 45 bc	 lea	 eax, DWORD PTR _matTexTransform$[ebp]
  000a8	50		 push	 eax
  000a9	e8 00 00 00 00	 call	 _D3DXMatrixMultiply@12

; 834  : 	STATEMANAGER.SaveTransform(D3DTS_TEXTURE0, &matTexTransform);

  000ae	8b 0d 00 00 00
	00		 mov	 ecx, DWORD PTR ?ms_singleton@?$CSingleton@VCStateManager@@@@0PAVCStateManager@@A ; CSingleton<CStateManager>::ms_singleton
  000b4	8d 45 bc	 lea	 eax, DWORD PTR _matTexTransform$[ebp]
  000b7	50		 push	 eax
  000b8	6a 10		 push	 16			; 00000010H
  000ba	e8 00 00 00 00	 call	 ?SaveTransform@CStateManager@@QAEXW4_D3DTRANSFORMSTATETYPE@@PBU_D3DMATRIX@@@Z ; CStateManager::SaveTransform

; 835  : 	STATEMANAGER.SaveTransform(D3DTS_TEXTURE1, &matTexTransform);

  000bf	8b 0d 00 00 00
	00		 mov	 ecx, DWORD PTR ?ms_singleton@?$CSingleton@VCStateManager@@@@0PAVCStateManager@@A ; CSingleton<CStateManager>::ms_singleton
  000c5	8d 45 bc	 lea	 eax, DWORD PTR _matTexTransform$[ebp]
  000c8	50		 push	 eax
  000c9	6a 11		 push	 17			; 00000011H
  000cb	e8 00 00 00 00	 call	 ?SaveTransform@CStateManager@@QAEXW4_D3DTRANSFORMSTATETYPE@@PBU_D3DMATRIX@@@Z ; CStateManager::SaveTransform

; 836  : 
; 837  : 	STATEMANAGER.SaveRenderState(D3DRS_ALPHABLENDENABLE, TRUE);

  000d0	8b 0d 00 00 00
	00		 mov	 ecx, DWORD PTR ?ms_singleton@?$CSingleton@VCStateManager@@@@0PAVCStateManager@@A ; CSingleton<CStateManager>::ms_singleton
  000d6	6a 01		 push	 1
  000d8	6a 1b		 push	 27			; 0000001bH
  000da	e8 00 00 00 00	 call	 ?SaveRenderState@CStateManager@@QAEXW4_D3DRENDERSTATETYPE@@K@Z ; CStateManager::SaveRenderState

; 838  : 	STATEMANAGER.SaveRenderState(D3DRS_SRCBLEND, D3DBLEND_SRCALPHA);

  000df	8b 0d 00 00 00
	00		 mov	 ecx, DWORD PTR ?ms_singleton@?$CSingleton@VCStateManager@@@@0PAVCStateManager@@A ; CSingleton<CStateManager>::ms_singleton
  000e5	6a 05		 push	 5
  000e7	6a 13		 push	 19			; 00000013H
  000e9	e8 00 00 00 00	 call	 ?SaveRenderState@CStateManager@@QAEXW4_D3DRENDERSTATETYPE@@K@Z ; CStateManager::SaveRenderState

; 839  : 	STATEMANAGER.SaveRenderState(D3DRS_DESTBLEND, D3DBLEND_INVSRCALPHA);

  000ee	8b 0d 00 00 00
	00		 mov	 ecx, DWORD PTR ?ms_singleton@?$CSingleton@VCStateManager@@@@0PAVCStateManager@@A ; CSingleton<CStateManager>::ms_singleton
  000f4	6a 06		 push	 6
  000f6	6a 14		 push	 20			; 00000014H
  000f8	e8 00 00 00 00	 call	 ?SaveRenderState@CStateManager@@QAEXW4_D3DRENDERSTATETYPE@@K@Z ; CStateManager::SaveRenderState

; 840  : 
; 841  : 	static long lStartTime = timeGetTime();

  000fd	64 a1 00 00 00
	00		 mov	 eax, DWORD PTR fs:__tls_array
  00103	8b 0d 00 00 00
	00		 mov	 ecx, DWORD PTR __tls_index
  00109	8b 0c 88	 mov	 ecx, DWORD PTR [eax+ecx*4]
  0010c	a1 00 00 00 00	 mov	 eax, DWORD PTR ?$TSS0@?1??RenderMarkedArea@CMapOutdoor@@QAEXXZ@4HA
  00111	3b 81 00 00 00
	00		 cmp	 eax, DWORD PTR __Init_thread_epoch[ecx]
  00117	0f 8f f6 02 00
	00		 jg	 $LN31@RenderMark
$LN2@RenderMark:

; 842  : 	float fTime = float((timeGetTime() - lStartTime)%3000) / 3000.0f;

  0011d	ff 15 00 00 00
	00		 call	 DWORD PTR __imp__timeGetTime@0
  00123	2b 05 00 00 00
	00		 sub	 eax, DWORD PTR ?lStartTime@?1??RenderMarkedArea@CMapOutdoor@@QAEXXZ@4JA
  00129	33 d2		 xor	 edx, edx
  0012b	b9 b8 0b 00 00	 mov	 ecx, 3000		; 00000bb8H

; 843  : 	float fAlpha = fabs(fTime - 0.5f) / 2.0f + 0.1f;

  00130	f3 0f 10 0d 00
	00 00 00	 movss	 xmm1, DWORD PTR __real@3f000000
  00138	f7 f1		 div	 ecx
  0013a	0f 57 c0	 xorps	 xmm0, xmm0
  0013d	f2 0f 2a c2	 cvtsi2sd xmm0, edx
  00141	c1 ea 1f	 shr	 edx, 31			; 0000001fH
  00144	f2 0f 58 04 d5
	00 00 00 00	 addsd	 xmm0, QWORD PTR __xmm@41f00000000000000000000000000000[edx*8]
  0014d	66 0f 5a c0	 cvtpd2ps xmm0, xmm0
  00151	f3 0f 5e 05 00
	00 00 00	 divss	 xmm0, DWORD PTR __real@453b8000
  00159	f3 0f 5c c1	 subss	 xmm0, xmm1
; File C:\Program Files (x86)\Windows Kits\10\Include\10.0.18362.0\ucrt\corecrt_math.h

; 672  :             return (float)fabs(_X);

  0015d	0f 54 05 00 00
	00 00		 andps	 xmm0, DWORD PTR __xmm@7fffffff7fffffff7fffffff7fffffff
; File D:\Metin2 Server Files\mainline\SRC_2014\Metin2Client\GameLib\MapOutdoorRender.cpp

; 843  : 	float fAlpha = fabs(fTime - 0.5f) / 2.0f + 0.1f;

  00164	f3 0f 59 c1	 mulss	 xmm0, xmm1
  00168	f3 0f 58 05 00
	00 00 00	 addss	 xmm0, DWORD PTR __real@3dcccccd
; File D:\Metin2 Server Files\mainline\SRC_2014\M2Data\include\d3dx8math.inl

; 934  :     DWORD dwA = a >= 1.0f ? 0xff : a <= 0.0f ? 0x00 : (DWORD) (a * 255.0f + 0.5f);

  00170	0f 2f 05 00 00
	00 00		 comiss	 xmm0, DWORD PTR __real@3f800000
  00177	72 07		 jb	 SHORT $LN27@RenderMark
  00179	b8 ff 00 00 00	 mov	 eax, 255		; 000000ffH
  0017e	eb 1d		 jmp	 SHORT $LN26@RenderMark
$LN27@RenderMark:
  00180	0f 57 d2	 xorps	 xmm2, xmm2
  00183	0f 2f d0	 comiss	 xmm2, xmm0
  00186	72 04		 jb	 SHORT $LN25@RenderMark
  00188	33 c0		 xor	 eax, eax
  0018a	eb 11		 jmp	 SHORT $LN26@RenderMark
$LN25@RenderMark:
  0018c	f3 0f 59 05 00
	00 00 00	 mulss	 xmm0, DWORD PTR __real@437f0000
  00194	f3 0f 58 c1	 addss	 xmm0, xmm1
  00198	e8 00 00 00 00	 call	 __ftoui3
$LN26@RenderMark:
; File D:\Metin2 Server Files\mainline\SRC_2014\Metin2Client\GameLib\MapOutdoorRender.cpp

; 844  : 	STATEMANAGER.SetRenderState(D3DRS_TEXTUREFACTOR, D3DXCOLOR(1.0f, 1.0f, 1.0f, fAlpha));

  0019d	8b 0d 00 00 00
	00		 mov	 ecx, DWORD PTR ?ms_singleton@?$CSingleton@VCStateManager@@@@0PAVCStateManager@@A ; CSingleton<CStateManager>::ms_singleton
; File D:\Metin2 Server Files\mainline\SRC_2014\M2Data\include\d3dx8math.inl

; 936  :     return (dwA << 24) | (dwR << 16) | (dwG << 8) | dwB;

  001a3	c1 e0 18	 shl	 eax, 24			; 00000018H
  001a6	0d ff ff ff 00	 or	 eax, 16777215		; 00ffffffH
; File D:\Metin2 Server Files\mainline\SRC_2014\Metin2Client\GameLib\MapOutdoorRender.cpp

; 844  : 	STATEMANAGER.SetRenderState(D3DRS_TEXTUREFACTOR, D3DXCOLOR(1.0f, 1.0f, 1.0f, fAlpha));

  001ab	50		 push	 eax
  001ac	6a 3c		 push	 60			; 0000003cH
  001ae	e8 00 00 00 00	 call	 ?SetRenderState@CStateManager@@QAEXW4_D3DRENDERSTATETYPE@@K@Z ; CStateManager::SetRenderState

; 845  : 	STATEMANAGER.SetTextureStageState(0, D3DTSS_COLORARG1, D3DTA_TEXTURE);

  001b3	8b 0d 00 00 00
	00		 mov	 ecx, DWORD PTR ?ms_singleton@?$CSingleton@VCStateManager@@@@0PAVCStateManager@@A ; CSingleton<CStateManager>::ms_singleton
  001b9	6a 02		 push	 2
  001bb	6a 02		 push	 2
  001bd	6a 00		 push	 0
  001bf	e8 00 00 00 00	 call	 ?SetTextureStageState@CStateManager@@QAEXKW4_D3DTEXTURESTAGESTATETYPE@@K@Z ; CStateManager::SetTextureStageState

; 846  : 	STATEMANAGER.SetTextureStageState(0, D3DTSS_COLORARG2, D3DTA_TFACTOR);

  001c4	8b 0d 00 00 00
	00		 mov	 ecx, DWORD PTR ?ms_singleton@?$CSingleton@VCStateManager@@@@0PAVCStateManager@@A ; CSingleton<CStateManager>::ms_singleton
  001ca	6a 03		 push	 3
  001cc	6a 03		 push	 3
  001ce	6a 00		 push	 0
  001d0	e8 00 00 00 00	 call	 ?SetTextureStageState@CStateManager@@QAEXKW4_D3DTEXTURESTAGESTATETYPE@@K@Z ; CStateManager::SetTextureStageState

; 847  : 	STATEMANAGER.SetTextureStageState(0, D3DTSS_COLOROP, D3DTOP_SELECTARG2);

  001d5	8b 0d 00 00 00
	00		 mov	 ecx, DWORD PTR ?ms_singleton@?$CSingleton@VCStateManager@@@@0PAVCStateManager@@A ; CSingleton<CStateManager>::ms_singleton
  001db	6a 03		 push	 3
  001dd	6a 01		 push	 1
  001df	6a 00		 push	 0
  001e1	e8 00 00 00 00	 call	 ?SetTextureStageState@CStateManager@@QAEXKW4_D3DTEXTURESTAGESTATETYPE@@K@Z ; CStateManager::SetTextureStageState

; 848  : 	STATEMANAGER.SetTextureStageState(0, D3DTSS_ALPHAARG1, D3DTA_TEXTURE);

  001e6	8b 0d 00 00 00
	00		 mov	 ecx, DWORD PTR ?ms_singleton@?$CSingleton@VCStateManager@@@@0PAVCStateManager@@A ; CSingleton<CStateManager>::ms_singleton
  001ec	6a 02		 push	 2
  001ee	6a 05		 push	 5
  001f0	6a 00		 push	 0
  001f2	e8 00 00 00 00	 call	 ?SetTextureStageState@CStateManager@@QAEXKW4_D3DTEXTURESTAGESTATETYPE@@K@Z ; CStateManager::SetTextureStageState

; 849  : 	STATEMANAGER.SetTextureStageState(0, D3DTSS_ALPHAARG2, D3DTA_TFACTOR);

  001f7	8b 0d 00 00 00
	00		 mov	 ecx, DWORD PTR ?ms_singleton@?$CSingleton@VCStateManager@@@@0PAVCStateManager@@A ; CSingleton<CStateManager>::ms_singleton
  001fd	6a 03		 push	 3
  001ff	6a 06		 push	 6
  00201	6a 00		 push	 0
  00203	e8 00 00 00 00	 call	 ?SetTextureStageState@CStateManager@@QAEXKW4_D3DTEXTURESTAGESTATETYPE@@K@Z ; CStateManager::SetTextureStageState

; 850  : 	STATEMANAGER.SetTextureStageState(0, D3DTSS_ALPHAOP, D3DTOP_SELECTARG2);

  00208	8b 0d 00 00 00
	00		 mov	 ecx, DWORD PTR ?ms_singleton@?$CSingleton@VCStateManager@@@@0PAVCStateManager@@A ; CSingleton<CStateManager>::ms_singleton
  0020e	6a 03		 push	 3
  00210	6a 04		 push	 4
  00212	6a 00		 push	 0
  00214	e8 00 00 00 00	 call	 ?SetTextureStageState@CStateManager@@QAEXKW4_D3DTEXTURESTAGESTATETYPE@@K@Z ; CStateManager::SetTextureStageState

; 851  : 	STATEMANAGER.SaveTextureStageState(0, D3DTSS_TEXCOORDINDEX, D3DTSS_TCI_CAMERASPACEPOSITION);

  00219	8b 0d 00 00 00
	00		 mov	 ecx, DWORD PTR ?ms_singleton@?$CSingleton@VCStateManager@@@@0PAVCStateManager@@A ; CSingleton<CStateManager>::ms_singleton
  0021f	68 00 00 02 00	 push	 131072			; 00020000H
  00224	6a 0b		 push	 11			; 0000000bH
  00226	6a 00		 push	 0
  00228	e8 00 00 00 00	 call	 ?SaveTextureStageState@CStateManager@@QAEXKW4_D3DTEXTURESTAGESTATETYPE@@K@Z ; CStateManager::SaveTextureStageState

; 852  : 	STATEMANAGER.SaveTextureStageState(0, D3DTSS_TEXTURETRANSFORMFLAGS, D3DTTFF_COUNT2);

  0022d	8b 0d 00 00 00
	00		 mov	 ecx, DWORD PTR ?ms_singleton@?$CSingleton@VCStateManager@@@@0PAVCStateManager@@A ; CSingleton<CStateManager>::ms_singleton
  00233	6a 02		 push	 2
  00235	6a 18		 push	 24			; 00000018H
  00237	6a 00		 push	 0
  00239	e8 00 00 00 00	 call	 ?SaveTextureStageState@CStateManager@@QAEXKW4_D3DTEXTURESTAGESTATETYPE@@K@Z ; CStateManager::SaveTextureStageState

; 853  : 
; 854  : 	STATEMANAGER.SetTextureStageState(1, D3DTSS_COLORARG1, D3DTA_CURRENT);

  0023e	8b 0d 00 00 00
	00		 mov	 ecx, DWORD PTR ?ms_singleton@?$CSingleton@VCStateManager@@@@0PAVCStateManager@@A ; CSingleton<CStateManager>::ms_singleton
  00244	6a 01		 push	 1
  00246	6a 02		 push	 2
  00248	6a 01		 push	 1
  0024a	e8 00 00 00 00	 call	 ?SetTextureStageState@CStateManager@@QAEXKW4_D3DTEXTURESTAGESTATETYPE@@K@Z ; CStateManager::SetTextureStageState

; 855  : 	STATEMANAGER.SetTextureStageState(1, D3DTSS_COLOROP, D3DTOP_SELECTARG1);

  0024f	8b 0d 00 00 00
	00		 mov	 ecx, DWORD PTR ?ms_singleton@?$CSingleton@VCStateManager@@@@0PAVCStateManager@@A ; CSingleton<CStateManager>::ms_singleton
  00255	6a 02		 push	 2
  00257	6a 01		 push	 1
  00259	6a 01		 push	 1
  0025b	e8 00 00 00 00	 call	 ?SetTextureStageState@CStateManager@@QAEXKW4_D3DTEXTURESTAGESTATETYPE@@K@Z ; CStateManager::SetTextureStageState

; 856  : 	STATEMANAGER.SetTextureStageState(1, D3DTSS_ALPHAARG1, D3DTA_TEXTURE);

  00260	8b 0d 00 00 00
	00		 mov	 ecx, DWORD PTR ?ms_singleton@?$CSingleton@VCStateManager@@@@0PAVCStateManager@@A ; CSingleton<CStateManager>::ms_singleton
  00266	6a 02		 push	 2
  00268	6a 05		 push	 5
  0026a	6a 01		 push	 1
  0026c	e8 00 00 00 00	 call	 ?SetTextureStageState@CStateManager@@QAEXKW4_D3DTEXTURESTAGESTATETYPE@@K@Z ; CStateManager::SetTextureStageState

; 857  : 	STATEMANAGER.SetTextureStageState(1, D3DTSS_ALPHAARG2, D3DTA_CURRENT);

  00271	8b 0d 00 00 00
	00		 mov	 ecx, DWORD PTR ?ms_singleton@?$CSingleton@VCStateManager@@@@0PAVCStateManager@@A ; CSingleton<CStateManager>::ms_singleton
  00277	6a 01		 push	 1
  00279	6a 06		 push	 6
  0027b	6a 01		 push	 1
  0027d	e8 00 00 00 00	 call	 ?SetTextureStageState@CStateManager@@QAEXKW4_D3DTEXTURESTAGESTATETYPE@@K@Z ; CStateManager::SetTextureStageState

; 858  : 	STATEMANAGER.SetTextureStageState(1, D3DTSS_ALPHAOP, D3DTOP_MODULATE);

  00282	8b 0d 00 00 00
	00		 mov	 ecx, DWORD PTR ?ms_singleton@?$CSingleton@VCStateManager@@@@0PAVCStateManager@@A ; CSingleton<CStateManager>::ms_singleton
  00288	6a 04		 push	 4
  0028a	6a 04		 push	 4
  0028c	6a 01		 push	 1
  0028e	e8 00 00 00 00	 call	 ?SetTextureStageState@CStateManager@@QAEXKW4_D3DTEXTURESTAGESTATETYPE@@K@Z ; CStateManager::SetTextureStageState

; 859  : 	STATEMANAGER.SaveTextureStageState(1, D3DTSS_TEXCOORDINDEX, D3DTSS_TCI_CAMERASPACEPOSITION);

  00293	8b 0d 00 00 00
	00		 mov	 ecx, DWORD PTR ?ms_singleton@?$CSingleton@VCStateManager@@@@0PAVCStateManager@@A ; CSingleton<CStateManager>::ms_singleton
  00299	68 00 00 02 00	 push	 131072			; 00020000H
  0029e	6a 0b		 push	 11			; 0000000bH
  002a0	6a 01		 push	 1
  002a2	e8 00 00 00 00	 call	 ?SaveTextureStageState@CStateManager@@QAEXKW4_D3DTEXTURESTAGESTATETYPE@@K@Z ; CStateManager::SaveTextureStageState

; 860  : 	STATEMANAGER.SaveTextureStageState(1, D3DTSS_TEXTURETRANSFORMFLAGS, D3DTTFF_COUNT2);

  002a7	8b 0d 00 00 00
	00		 mov	 ecx, DWORD PTR ?ms_singleton@?$CSingleton@VCStateManager@@@@0PAVCStateManager@@A ; CSingleton<CStateManager>::ms_singleton
  002ad	6a 02		 push	 2
  002af	6a 18		 push	 24			; 00000018H
  002b1	6a 01		 push	 1
  002b3	e8 00 00 00 00	 call	 ?SaveTextureStageState@CStateManager@@QAEXKW4_D3DTEXTURESTAGESTATETYPE@@K@Z ; CStateManager::SaveTextureStageState

; 861  : 	STATEMANAGER.SaveTextureStageState(1, D3DTSS_MINFILTER,	D3DTEXF_POINT);

  002b8	8b 0d 00 00 00
	00		 mov	 ecx, DWORD PTR ?ms_singleton@?$CSingleton@VCStateManager@@@@0PAVCStateManager@@A ; CSingleton<CStateManager>::ms_singleton
  002be	6a 01		 push	 1
  002c0	6a 11		 push	 17			; 00000011H
  002c2	6a 01		 push	 1
  002c4	e8 00 00 00 00	 call	 ?SaveTextureStageState@CStateManager@@QAEXKW4_D3DTEXTURESTAGESTATETYPE@@K@Z ; CStateManager::SaveTextureStageState

; 862  : 	STATEMANAGER.SaveTextureStageState(1, D3DTSS_MAGFILTER,	D3DTEXF_POINT);

  002c9	8b 0d 00 00 00
	00		 mov	 ecx, DWORD PTR ?ms_singleton@?$CSingleton@VCStateManager@@@@0PAVCStateManager@@A ; CSingleton<CStateManager>::ms_singleton
  002cf	6a 01		 push	 1
  002d1	6a 10		 push	 16			; 00000010H
  002d3	6a 01		 push	 1
  002d5	e8 00 00 00 00	 call	 ?SaveTextureStageState@CStateManager@@QAEXKW4_D3DTEXTURESTAGESTATETYPE@@K@Z ; CStateManager::SaveTextureStageState

; 863  : 	STATEMANAGER.SaveTextureStageState(1, D3DTSS_MIPFILTER,	D3DTEXF_POINT);

  002da	8b 0d 00 00 00
	00		 mov	 ecx, DWORD PTR ?ms_singleton@?$CSingleton@VCStateManager@@@@0PAVCStateManager@@A ; CSingleton<CStateManager>::ms_singleton
  002e0	6a 01		 push	 1
  002e2	6a 12		 push	 18			; 00000012H
  002e4	6a 01		 push	 1
  002e6	e8 00 00 00 00	 call	 ?SaveTextureStageState@CStateManager@@QAEXKW4_D3DTEXTURESTAGESTATETYPE@@K@Z ; CStateManager::SaveTextureStageState

; 864  : 	STATEMANAGER.SaveTextureStageState(1, D3DTSS_ADDRESSU,	D3DTADDRESS_CLAMP);

  002eb	8b 0d 00 00 00
	00		 mov	 ecx, DWORD PTR ?ms_singleton@?$CSingleton@VCStateManager@@@@0PAVCStateManager@@A ; CSingleton<CStateManager>::ms_singleton
  002f1	6a 03		 push	 3
  002f3	6a 0d		 push	 13			; 0000000dH
  002f5	6a 01		 push	 1
  002f7	e8 00 00 00 00	 call	 ?SaveTextureStageState@CStateManager@@QAEXKW4_D3DTEXTURESTAGESTATETYPE@@K@Z ; CStateManager::SaveTextureStageState

; 865  : 	STATEMANAGER.SaveTextureStageState(1, D3DTSS_ADDRESSV,	D3DTADDRESS_CLAMP);

  002fc	8b 0d 00 00 00
	00		 mov	 ecx, DWORD PTR ?ms_singleton@?$CSingleton@VCStateManager@@@@0PAVCStateManager@@A ; CSingleton<CStateManager>::ms_singleton
  00302	6a 03		 push	 3
  00304	6a 0e		 push	 14			; 0000000eH
  00306	6a 01		 push	 1
  00308	e8 00 00 00 00	 call	 ?SaveTextureStageState@CStateManager@@QAEXKW4_D3DTEXTURESTAGESTATETYPE@@K@Z ; CStateManager::SaveTextureStageState

; 866  : 
; 867  : 	STATEMANAGER.SetTexture(0, m_attrImageInstance.GetTexturePointer()->GetD3DTexture());

  0030d	8d 8e ec 0d 00
	00		 lea	 ecx, DWORD PTR [esi+3564]
  00313	e8 00 00 00 00	 call	 ?GetTexturePointer@CGraphicImageInstance@@QAEPAVCGraphicTexture@@XZ ; CGraphicImageInstance::GetTexturePointer
  00318	8b c8		 mov	 ecx, eax
  0031a	e8 00 00 00 00	 call	 ?GetD3DTexture@CGraphicTexture@@QBEPAUIDirect3DTexture8@@XZ ; CGraphicTexture::GetD3DTexture
  0031f	8b 0d 00 00 00
	00		 mov	 ecx, DWORD PTR ?ms_singleton@?$CSingleton@VCStateManager@@@@0PAVCStateManager@@A ; CSingleton<CStateManager>::ms_singleton
  00325	50		 push	 eax
  00326	6a 00		 push	 0
  00328	e8 00 00 00 00	 call	 ?SetTexture@CStateManager@@QAEXKPAUIDirect3DBaseTexture8@@@Z ; CStateManager::SetTexture

; 868  : 
; 869  : 	RecurseRenderAttr(m_pRootNode);

  0032d	6a 01		 push	 1
  0032f	ff b6 14 01 00
	00		 push	 DWORD PTR [esi+276]
  00335	8b ce		 mov	 ecx, esi
  00337	e8 00 00 00 00	 call	 ?RecurseRenderAttr@CMapOutdoor@@QAEXPAVCTerrainQuadtreeNode@@_N@Z ; CMapOutdoor::RecurseRenderAttr

; 870  : 
; 871  : 	STATEMANAGER.RestoreTextureStageState(0, D3DTSS_TEXCOORDINDEX);

  0033c	8b 0d 00 00 00
	00		 mov	 ecx, DWORD PTR ?ms_singleton@?$CSingleton@VCStateManager@@@@0PAVCStateManager@@A ; CSingleton<CStateManager>::ms_singleton
  00342	6a 0b		 push	 11			; 0000000bH
  00344	6a 00		 push	 0
  00346	e8 00 00 00 00	 call	 ?RestoreTextureStageState@CStateManager@@QAEXKW4_D3DTEXTURESTAGESTATETYPE@@@Z ; CStateManager::RestoreTextureStageState

; 872  : 	STATEMANAGER.RestoreTextureStageState(0, D3DTSS_TEXTURETRANSFORMFLAGS);

  0034b	8b 0d 00 00 00
	00		 mov	 ecx, DWORD PTR ?ms_singleton@?$CSingleton@VCStateManager@@@@0PAVCStateManager@@A ; CSingleton<CStateManager>::ms_singleton
  00351	6a 18		 push	 24			; 00000018H
  00353	6a 00		 push	 0
  00355	e8 00 00 00 00	 call	 ?RestoreTextureStageState@CStateManager@@QAEXKW4_D3DTEXTURESTAGESTATETYPE@@@Z ; CStateManager::RestoreTextureStageState

; 873  : 	STATEMANAGER.RestoreTextureStageState(1, D3DTSS_TEXCOORDINDEX);

  0035a	8b 0d 00 00 00
	00		 mov	 ecx, DWORD PTR ?ms_singleton@?$CSingleton@VCStateManager@@@@0PAVCStateManager@@A ; CSingleton<CStateManager>::ms_singleton
  00360	6a 0b		 push	 11			; 0000000bH
  00362	6a 01		 push	 1
  00364	e8 00 00 00 00	 call	 ?RestoreTextureStageState@CStateManager@@QAEXKW4_D3DTEXTURESTAGESTATETYPE@@@Z ; CStateManager::RestoreTextureStageState

; 874  : 	STATEMANAGER.RestoreTextureStageState(1, D3DTSS_TEXTURETRANSFORMFLAGS);

  00369	8b 0d 00 00 00
	00		 mov	 ecx, DWORD PTR ?ms_singleton@?$CSingleton@VCStateManager@@@@0PAVCStateManager@@A ; CSingleton<CStateManager>::ms_singleton
  0036f	6a 18		 push	 24			; 00000018H
  00371	6a 01		 push	 1
  00373	e8 00 00 00 00	 call	 ?RestoreTextureStageState@CStateManager@@QAEXKW4_D3DTEXTURESTAGESTATETYPE@@@Z ; CStateManager::RestoreTextureStageState

; 875  : 	STATEMANAGER.RestoreTextureStageState(1, D3DTSS_MINFILTER);

  00378	8b 0d 00 00 00
	00		 mov	 ecx, DWORD PTR ?ms_singleton@?$CSingleton@VCStateManager@@@@0PAVCStateManager@@A ; CSingleton<CStateManager>::ms_singleton
  0037e	6a 11		 push	 17			; 00000011H
  00380	6a 01		 push	 1
  00382	e8 00 00 00 00	 call	 ?RestoreTextureStageState@CStateManager@@QAEXKW4_D3DTEXTURESTAGESTATETYPE@@@Z ; CStateManager::RestoreTextureStageState

; 876  : 	STATEMANAGER.RestoreTextureStageState(1, D3DTSS_MAGFILTER);

  00387	8b 0d 00 00 00
	00		 mov	 ecx, DWORD PTR ?ms_singleton@?$CSingleton@VCStateManager@@@@0PAVCStateManager@@A ; CSingleton<CStateManager>::ms_singleton
  0038d	6a 10		 push	 16			; 00000010H
  0038f	6a 01		 push	 1
  00391	e8 00 00 00 00	 call	 ?RestoreTextureStageState@CStateManager@@QAEXKW4_D3DTEXTURESTAGESTATETYPE@@@Z ; CStateManager::RestoreTextureStageState

; 877  : 	STATEMANAGER.RestoreTextureStageState(1, D3DTSS_MIPFILTER);

  00396	8b 0d 00 00 00
	00		 mov	 ecx, DWORD PTR ?ms_singleton@?$CSingleton@VCStateManager@@@@0PAVCStateManager@@A ; CSingleton<CStateManager>::ms_singleton
  0039c	6a 12		 push	 18			; 00000012H
  0039e	6a 01		 push	 1
  003a0	e8 00 00 00 00	 call	 ?RestoreTextureStageState@CStateManager@@QAEXKW4_D3DTEXTURESTAGESTATETYPE@@@Z ; CStateManager::RestoreTextureStageState

; 878  : 	STATEMANAGER.RestoreTextureStageState(1, D3DTSS_ADDRESSU);

  003a5	8b 0d 00 00 00
	00		 mov	 ecx, DWORD PTR ?ms_singleton@?$CSingleton@VCStateManager@@@@0PAVCStateManager@@A ; CSingleton<CStateManager>::ms_singleton
  003ab	6a 0d		 push	 13			; 0000000dH
  003ad	6a 01		 push	 1
  003af	e8 00 00 00 00	 call	 ?RestoreTextureStageState@CStateManager@@QAEXKW4_D3DTEXTURESTAGESTATETYPE@@@Z ; CStateManager::RestoreTextureStageState

; 879  : 	STATEMANAGER.RestoreTextureStageState(1, D3DTSS_ADDRESSV);

  003b4	8b 0d 00 00 00
	00		 mov	 ecx, DWORD PTR ?ms_singleton@?$CSingleton@VCStateManager@@@@0PAVCStateManager@@A ; CSingleton<CStateManager>::ms_singleton
  003ba	6a 0e		 push	 14			; 0000000eH
  003bc	6a 01		 push	 1
  003be	e8 00 00 00 00	 call	 ?RestoreTextureStageState@CStateManager@@QAEXKW4_D3DTEXTURESTAGESTATETYPE@@@Z ; CStateManager::RestoreTextureStageState

; 880  : 
; 881  : 	STATEMANAGER.RestoreTransform(D3DTS_TEXTURE0);

  003c3	8b 0d 00 00 00
	00		 mov	 ecx, DWORD PTR ?ms_singleton@?$CSingleton@VCStateManager@@@@0PAVCStateManager@@A ; CSingleton<CStateManager>::ms_singleton
  003c9	6a 10		 push	 16			; 00000010H
  003cb	e8 00 00 00 00	 call	 ?RestoreTransform@CStateManager@@QAEXW4_D3DTRANSFORMSTATETYPE@@@Z ; CStateManager::RestoreTransform

; 882  : 	STATEMANAGER.RestoreTransform(D3DTS_TEXTURE1);

  003d0	8b 0d 00 00 00
	00		 mov	 ecx, DWORD PTR ?ms_singleton@?$CSingleton@VCStateManager@@@@0PAVCStateManager@@A ; CSingleton<CStateManager>::ms_singleton
  003d6	6a 11		 push	 17			; 00000011H
  003d8	e8 00 00 00 00	 call	 ?RestoreTransform@CStateManager@@QAEXW4_D3DTRANSFORMSTATETYPE@@@Z ; CStateManager::RestoreTransform

; 883  : 
; 884  : 	STATEMANAGER.RestoreRenderState(D3DRS_ALPHABLENDENABLE);

  003dd	8b 0d 00 00 00
	00		 mov	 ecx, DWORD PTR ?ms_singleton@?$CSingleton@VCStateManager@@@@0PAVCStateManager@@A ; CSingleton<CStateManager>::ms_singleton
  003e3	6a 1b		 push	 27			; 0000001bH
  003e5	e8 00 00 00 00	 call	 ?RestoreRenderState@CStateManager@@QAEXW4_D3DRENDERSTATETYPE@@@Z ; CStateManager::RestoreRenderState

; 885  : 	STATEMANAGER.RestoreRenderState(D3DRS_SRCBLEND);

  003ea	8b 0d 00 00 00
	00		 mov	 ecx, DWORD PTR ?ms_singleton@?$CSingleton@VCStateManager@@@@0PAVCStateManager@@A ; CSingleton<CStateManager>::ms_singleton
  003f0	6a 13		 push	 19			; 00000013H
  003f2	e8 00 00 00 00	 call	 ?RestoreRenderState@CStateManager@@QAEXW4_D3DRENDERSTATETYPE@@@Z ; CStateManager::RestoreRenderState

; 886  : 	STATEMANAGER.RestoreRenderState(D3DRS_DESTBLEND);

  003f7	8b 0d 00 00 00
	00		 mov	 ecx, DWORD PTR ?ms_singleton@?$CSingleton@VCStateManager@@@@0PAVCStateManager@@A ; CSingleton<CStateManager>::ms_singleton
  003fd	6a 14		 push	 20			; 00000014H
  003ff	e8 00 00 00 00	 call	 ?RestoreRenderState@CStateManager@@QAEXW4_D3DRENDERSTATETYPE@@@Z ; CStateManager::RestoreRenderState
$LN1@RenderMark:

; 887  : }

  00404	8b 4d fc	 mov	 ecx, DWORD PTR __$ArrayPad$[ebp]
  00407	33 cd		 xor	 ecx, ebp
  00409	5e		 pop	 esi
  0040a	e8 00 00 00 00	 call	 @__security_check_cookie@4
  0040f	8b e5		 mov	 esp, ebp
  00411	5d		 pop	 ebp
  00412	c3		 ret	 0
$LN31@RenderMark:

; 840  : 
; 841  : 	static long lStartTime = timeGetTime();

  00413	68 00 00 00 00	 push	 OFFSET ?$TSS0@?1??RenderMarkedArea@CMapOutdoor@@QAEXXZ@4HA
  00418	e8 00 00 00 00	 call	 __Init_thread_header
  0041d	83 c4 04	 add	 esp, 4
  00420	83 3d 00 00 00
	00 ff		 cmp	 DWORD PTR ?$TSS0@?1??RenderMarkedArea@CMapOutdoor@@QAEXXZ@4HA, -1
  00427	0f 85 f0 fc ff
	ff		 jne	 $LN2@RenderMark
  0042d	ff 15 00 00 00
	00		 call	 DWORD PTR __imp__timeGetTime@0
  00433	68 00 00 00 00	 push	 OFFSET ?$TSS0@?1??RenderMarkedArea@CMapOutdoor@@QAEXXZ@4HA
  00438	a3 00 00 00 00	 mov	 DWORD PTR ?lStartTime@?1??RenderMarkedArea@CMapOutdoor@@QAEXXZ@4JA, eax
  0043d	e8 00 00 00 00	 call	 __Init_thread_footer
  00442	83 c4 04	 add	 esp, 4
  00445	e9 d3 fc ff ff	 jmp	 $LN2@RenderMark
?RenderMarkedArea@CMapOutdoor@@QAEXXZ ENDP		; CMapOutdoor::RenderMarkedArea
_TEXT	ENDS
; Function compile flags: /Ogtp
; File D:\Metin2 Server Files\mainline\SRC_2014\Metin2Client\GameLib\MapOutdoorRender.cpp
;	COMDAT ?ApplyLight@CMapOutdoor@@UAEXKABU_D3DLIGHT8@@@Z
_TEXT	SEGMENT
_dwVersion$ = 8						; size = 4
_c_rkLight$ = 12					; size = 4
?ApplyLight@CMapOutdoor@@UAEXKABU_D3DLIGHT8@@@Z PROC	; CMapOutdoor::ApplyLight, COMDAT
; _this$ = ecx

; 131  : {

  00000	55		 push	 ebp
  00001	8b ec		 mov	 ebp, esp

; 132  : 	m_kSTPD.m_dwLightVersion=dwVersion;

  00003	8b 45 08	 mov	 eax, DWORD PTR _dwVersion$[ebp]
  00006	89 81 08 0a 00
	00		 mov	 DWORD PTR [ecx+2568], eax

; 133  : 	STATEMANAGER.SetLight(0, &c_rkLight);

  0000c	c7 45 08 00 00
	00 00		 mov	 DWORD PTR _dwVersion$[ebp], 0
  00013	8b 0d 00 00 00
	00		 mov	 ecx, DWORD PTR ?ms_singleton@?$CSingleton@VCStateManager@@@@0PAVCStateManager@@A ; CSingleton<CStateManager>::ms_singleton

; 134  : }

  00019	5d		 pop	 ebp

; 133  : 	STATEMANAGER.SetLight(0, &c_rkLight);

  0001a	e9 00 00 00 00	 jmp	 ?SetLight@CStateManager@@QAEXKPBU_D3DLIGHT8@@@Z ; CStateManager::SetLight
?ApplyLight@CMapOutdoor@@UAEXKABU_D3DLIGHT8@@@Z ENDP	; CMapOutdoor::ApplyLight
_TEXT	ENDS
; Function compile flags: /Ogtp
; File D:\Metin2 Server Files\mainline\SRC_2014\Metin2Client\GameLib\MapOutdoorRender.cpp
;	COMDAT ?GetRenderedGraphicThingInstanceNum@CMapOutdoor@@QAEAAV?$vector@USCRCWithNumber@CArea@@V?$allocator@USCRCWithNumber@CArea@@@std@@@std@@PAK0@Z
_TEXT	SEGMENT
_pdwGraphicThingInstanceNum$ = 8			; size = 4
_pdwCRCNum$ = 12					; size = 4
?GetRenderedGraphicThingInstanceNum@CMapOutdoor@@QAEAAV?$vector@USCRCWithNumber@CArea@@V?$allocator@USCRCWithNumber@CArea@@@std@@@std@@PAK0@Z PROC ; CMapOutdoor::GetRenderedGraphicThingInstanceNum, COMDAT
; _this$ = ecx

; 183  : {

  00000	55		 push	 ebp
  00001	8b ec		 mov	 ebp, esp

; 184  : 	*pdwGraphicThingInstanceNum = m_dwRenderedGraphicThingInstanceNum;

  00003	8b 45 08	 mov	 eax, DWORD PTR _pdwGraphicThingInstanceNum$[ebp]
  00006	8b 91 b4 09 00
	00		 mov	 edx, DWORD PTR [ecx+2484]
  0000c	89 10		 mov	 DWORD PTR [eax], edx

; 185  : 	*pdwCRCNum = m_dwRenderedCRCNum;

  0000e	8b 45 0c	 mov	 eax, DWORD PTR _pdwCRCNum$[ebp]
  00011	8b 89 b0 09 00
	00		 mov	 ecx, DWORD PTR [ecx+2480]
  00017	89 08		 mov	 DWORD PTR [eax], ecx

; 186  : 
; 187  : 	return m_dwRenderedCRCWithNumberVector;

  00019	b8 00 00 00 00	 mov	 eax, OFFSET ?m_dwRenderedCRCWithNumberVector@@3V?$vector@USCRCWithNumber@CArea@@V?$allocator@USCRCWithNumber@CArea@@@std@@@std@@A ; m_dwRenderedCRCWithNumberVector

; 188  : }

  0001e	5d		 pop	 ebp
  0001f	c2 08 00	 ret	 8
?GetRenderedGraphicThingInstanceNum@CMapOutdoor@@QAEAAV?$vector@USCRCWithNumber@CArea@@V?$allocator@USCRCWithNumber@CArea@@@std@@@std@@PAK0@Z ENDP ; CMapOutdoor::GetRenderedGraphicThingInstanceNum
_TEXT	ENDS
; Function compile flags: /Ogtp
; File D:\Metin2 Server Files\mainline\SRC_2014\Metin2Client\GameLib\MapOutdoorRender.cpp
;	COMDAT ?GetRenderedSplatNum@CMapOutdoor@@QAEAAV?$vector@HV?$allocator@H@std@@@std@@PAH0PAM@Z
_TEXT	SEGMENT
_piPatch$ = 8						; size = 4
_piSplat$ = 12						; size = 4
_pfSplatRatio$ = 16					; size = 4
?GetRenderedSplatNum@CMapOutdoor@@QAEAAV?$vector@HV?$allocator@H@std@@@std@@PAH0PAM@Z PROC ; CMapOutdoor::GetRenderedSplatNum, COMDAT
; _this$ = ecx

; 174  : {	

  00000	55		 push	 ebp
  00001	8b ec		 mov	 ebp, esp

; 175  : 	*piPatch = m_iRenderedPatchNum;

  00003	8b 45 08	 mov	 eax, DWORD PTR _piPatch$[ebp]
  00006	8b 91 8c 09 00
	00		 mov	 edx, DWORD PTR [ecx+2444]
  0000c	89 10		 mov	 DWORD PTR [eax], edx

; 176  : 	*piSplat = m_iRenderedSplatNum;

  0000e	8b 45 0c	 mov	 eax, DWORD PTR _piSplat$[ebp]
  00011	8b 91 88 09 00
	00		 mov	 edx, DWORD PTR [ecx+2440]
  00017	89 10		 mov	 DWORD PTR [eax], edx
  00019	66 0f 6e 89 84
	09 00 00	 movd	 xmm1, DWORD PTR [ecx+2436]
  00021	66 0f 6e 81 8c
	09 00 00	 movd	 xmm0, DWORD PTR [ecx+2444]

; 177  : 	*pfSplatRatio = m_iRenderedSplatNumSqSum/float(m_iRenderedPatchNum);

  00029	0f 5b c9	 cvtdq2ps xmm1, xmm1
  0002c	8b 45 10	 mov	 eax, DWORD PTR _pfSplatRatio$[ebp]
  0002f	0f 5b c0	 cvtdq2ps xmm0, xmm0
  00032	f3 0f 5e c8	 divss	 xmm1, xmm0
  00036	f3 0f 11 08	 movss	 DWORD PTR [eax], xmm1

; 178  : 
; 179  : 	return m_RenderedTextureNumVector;

  0003a	8d 81 90 09 00
	00		 lea	 eax, DWORD PTR [ecx+2448]

; 180  : }

  00040	5d		 pop	 ebp
  00041	c2 0c 00	 ret	 12			; 0000000cH
?GetRenderedSplatNum@CMapOutdoor@@QAEAAV?$vector@HV?$allocator@H@std@@@std@@PAH0PAM@Z ENDP ; CMapOutdoor::GetRenderedSplatNum
_TEXT	ENDS
; Function compile flags: /Ogtp
; File D:\Metin2 Server Files\mainline\SRC_2014\Metin2Client\GameLib\MapOutdoorRender.cpp
;	COMDAT ?SetSplatLimit@CMapOutdoor@@QAEXH@Z
_TEXT	SEGMENT
_iSplatNum$ = 8						; size = 4
?SetSplatLimit@CMapOutdoor@@QAEXH@Z PROC		; CMapOutdoor::SetSplatLimit, COMDAT
; _this$ = ecx

; 169  : {

  00000	55		 push	 ebp
  00001	8b ec		 mov	 ebp, esp

; 170  : 	m_iSplatLimit = iSplatNum;

  00003	8b 45 08	 mov	 eax, DWORD PTR _iSplatNum$[ebp]
  00006	89 81 9c 09 00
	00		 mov	 DWORD PTR [ecx+2460], eax

; 171  : }

  0000c	5d		 pop	 ebp
  0000d	c2 04 00	 ret	 4
?SetSplatLimit@CMapOutdoor@@QAEXH@Z ENDP		; CMapOutdoor::SetSplatLimit
_TEXT	ENDS
; Function compile flags: /Ogtp
; File D:\Metin2 Server Files\mainline\SRC_2014\Metin2Client\GameLib\MapOutdoorRender.cpp
;	COMDAT ?SetVisiblePart@CMapOutdoor@@QAEXH_N@Z
_TEXT	SEGMENT
_ePart$ = 8						; size = 4
_isVisible$ = 12					; size = 1
?SetVisiblePart@CMapOutdoor@@QAEXH_N@Z PROC		; CMapOutdoor::SetVisiblePart, COMDAT
; _this$ = ecx

; 144  : {

  00000	55		 push	 ebp
  00001	8b ec		 mov	 ebp, esp
  00003	56		 push	 esi
  00004	8b f1		 mov	 esi, ecx

; 145  : 	DWORD dwMask=(1<<ePart);

  00006	b8 01 00 00 00	 mov	 eax, 1
  0000b	8b 4d 08	 mov	 ecx, DWORD PTR _ePart$[ebp]
  0000e	d3 e0		 shl	 eax, cl

; 146  : 	if (isVisible)

  00010	80 7d 0c 00	 cmp	 BYTE PTR _isVisible$[ebp], 0
  00014	8b 96 80 09 00
	00		 mov	 edx, DWORD PTR [esi+2432]
  0001a	74 0d		 je	 SHORT $LN2@SetVisible

; 147  : 	{
; 148  : 		m_dwVisiblePartFlags|=dwMask;

  0001c	0b d0		 or	 edx, eax

; 154  : 	}
; 155  : }

  0001e	89 96 80 09 00
	00		 mov	 DWORD PTR [esi+2432], edx
  00024	5e		 pop	 esi
  00025	5d		 pop	 ebp
  00026	c2 08 00	 ret	 8
$LN2@SetVisible:

; 149  : 	}	
; 150  : 	else
; 151  : 	{
; 152  : 		DWORD dwReverseMask=~dwMask;

  00029	f7 d0		 not	 eax

; 153  : 		m_dwVisiblePartFlags&=dwReverseMask;

  0002b	23 c2		 and	 eax, edx

; 154  : 	}
; 155  : }

  0002d	89 86 80 09 00
	00		 mov	 DWORD PTR [esi+2432], eax
  00033	5e		 pop	 esi
  00034	5d		 pop	 ebp
  00035	c2 08 00	 ret	 8
?SetVisiblePart@CMapOutdoor@@QAEXH_N@Z ENDP		; CMapOutdoor::SetVisiblePart
_TEXT	ENDS
; Function compile flags: /Ogtp
; File D:\Metin2 Server Files\mainline\SRC_2014\Metin2Client\GameLib\MapOutdoorRender.cpp
; File D:\Metin2 Server Files\mainline\SRC_2014\M2Data\include\d3dx8math.inl
; File D:\Metin2 Server Files\mainline\SRC_2014\Metin2Client\GameLib\MapOutdoorRender.cpp
; File D:\Metin2 Server Files\mainline\SRC_2014\M2Data\include\d3dx8math.inl
; File D:\Metin2 Server Files\mainline\SRC_2014\Metin2Client\GameLib\MapOutdoorRender.cpp
; File D:\Metin2 Server Files\mainline\SRC_2014\M2Data\include\d3dx8math.inl
; File D:\Metin2 Server Files\mainline\SRC_2014\Metin2Client\GameLib\MapOutdoorRender.cpp
; File D:\Metin2 Server Files\mainline\SRC_2014\M2Data\include\d3dx8math.inl
; File D:\Metin2 Server Files\mainline\SRC_2014\Metin2Client\GameLib\MapOutdoorRender.cpp
; File D:\Metin2 Server Files\mainline\SRC_2014\M2Data\include\d3dx8math.inl
; File D:\Metin2 Server Files\mainline\SRC_2014\Metin2Client\GameLib\MapOutdoorRender.cpp
; File D:\Metin2 Server Files\mainline\SRC_2014\M2Data\include\d3dx8math.inl
; File D:\Metin2 Server Files\mainline\SRC_2014\Metin2Client\GameLib\MapOutdoorRender.cpp
; File D:\Metin2 Server Files\mainline\SRC_2014\M2Data\include\d3dx8math.inl
; File D:\Metin2 Server Files\mainline\SRC_2014\Metin2Client\GameLib\MapOutdoorRender.cpp
;	COMDAT ?SetInverseViewAndDynamicShaodwMatrices@CMapOutdoor@@QAEXXZ
_TEXT	SEGMENT
$T1 = -168						; size = 64
$T2 = -104						; size = 64
_v3LightEye$ = -40					; size = 12
$T3 = -28						; size = 12
_v3Target$ = -16					; size = 12
__$ArrayPad$ = -4					; size = 4
?SetInverseViewAndDynamicShaodwMatrices@CMapOutdoor@@QAEXXZ PROC ; CMapOutdoor::SetInverseViewAndDynamicShaodwMatrices, COMDAT
; _this$ = ecx

; 243  : {

  00000	55		 push	 ebp
  00001	8b ec		 mov	 ebp, esp
  00003	81 ec a8 00 00
	00		 sub	 esp, 168		; 000000a8H
  00009	a1 00 00 00 00	 mov	 eax, DWORD PTR ___security_cookie
  0000e	33 c5		 xor	 eax, ebp
  00010	89 45 fc	 mov	 DWORD PTR __$ArrayPad$[ebp], eax
  00013	53		 push	 ebx
  00014	8b d9		 mov	 ebx, ecx

; 244  : 	CCamera * pCamera = CCameraManager::Instance().GetCurrentCamera();

  00016	8b 0d 00 00 00
	00		 mov	 ecx, DWORD PTR ?ms_singleton@?$CSingleton@VCCameraManager@@@@0PAVCCameraManager@@A ; CSingleton<CCameraManager>::ms_singleton
  0001c	e8 00 00 00 00	 call	 ?GetCurrentCamera@CCameraManager@@QAEPAVCCamera@@XZ ; CCameraManager::GetCurrentCamera

; 245  : 
; 246  : 	if (!pCamera)

  00021	85 c0		 test	 eax, eax
  00023	0f 84 fd 00 00
	00		 je	 $LN1@SetInverse

; 249  : 	m_matViewInverse = pCamera->GetInverseViewMatrix();

  00029	0f 10 80 ac 00
	00 00		 movups	 xmm0, XMMWORD PTR [eax+172]
  00030	56		 push	 esi
  00031	57		 push	 edi
  00032	0f 11 83 88 07
	00 00		 movups	 XMMWORD PTR [ebx+1928], xmm0
  00039	8d bb 88 07 00
	00		 lea	 edi, DWORD PTR [ebx+1928]
; File D:\Metin2 Server Files\mainline\SRC_2014\M2Data\include\d3dx8math.inl

; 180  :     x = fx;

  0003f	c7 45 e4 00 00
	00 00		 mov	 DWORD PTR $T3[ebp], 0
; File D:\Metin2 Server Files\mainline\SRC_2014\Metin2Client\GameLib\MapOutdoorRender.cpp

; 249  : 	m_matViewInverse = pCamera->GetInverseViewMatrix();

  00046	0f 10 80 bc 00
	00 00		 movups	 xmm0, XMMWORD PTR [eax+188]

; 257  : 	D3DXMatrixLookAtRH(&m_matLightView, &v3LightEye, &v3Target, &D3DXVECTOR3(0.0f, 0.0f, 1.0f));

  0004d	8d b3 c8 08 00
	00		 lea	 esi, DWORD PTR [ebx+2248]
; File D:\Metin2 Server Files\mainline\SRC_2014\M2Data\include\d3dx8math.inl

; 181  :     y = fy;

  00053	c7 45 e8 00 00
	00 00		 mov	 DWORD PTR $T3[ebp+4], 0

; 182  :     z = fz;

  0005a	c7 45 ec 00 00
	80 3f		 mov	 DWORD PTR $T3[ebp+8], 1065353216 ; 3f800000H
; File D:\Metin2 Server Files\mainline\SRC_2014\Metin2Client\GameLib\MapOutdoorRender.cpp

; 249  : 	m_matViewInverse = pCamera->GetInverseViewMatrix();

  00061	0f 11 47 10	 movups	 XMMWORD PTR [edi+16], xmm0
  00065	0f 10 80 cc 00
	00 00		 movups	 xmm0, XMMWORD PTR [eax+204]
  0006c	0f 11 47 20	 movups	 XMMWORD PTR [edi+32], xmm0
  00070	0f 10 80 dc 00
	00 00		 movups	 xmm0, XMMWORD PTR [eax+220]
  00077	0f 11 47 30	 movups	 XMMWORD PTR [edi+48], xmm0

; 250  : 	
; 251  : 	D3DXVECTOR3 v3Target = pCamera->GetTarget();

  0007b	f3 0f 7e 40 3c	 movq	 xmm0, QWORD PTR [eax+60]
  00080	66 0f d6 45 f0	 movq	 QWORD PTR _v3Target$[ebp], xmm0

; 253  : 	D3DXVECTOR3 v3LightEye(v3Target.x - 1.732f * 1250.0f,

  00085	f3 0f 10 45 f0	 movss	 xmm0, DWORD PTR _v3Target$[ebp]
  0008a	f3 0f 5c 05 00
	00 00 00	 subss	 xmm0, DWORD PTR __real@45075000
  00092	8b 40 44	 mov	 eax, DWORD PTR [eax+68]
  00095	89 45 f8	 mov	 DWORD PTR _v3Target$[ebp+8], eax

; 257  : 	D3DXMatrixLookAtRH(&m_matLightView, &v3LightEye, &v3Target, &D3DXVECTOR3(0.0f, 0.0f, 1.0f));

  00098	8d 45 e4	 lea	 eax, DWORD PTR $T3[ebp]
  0009b	50		 push	 eax
  0009c	8d 45 f0	 lea	 eax, DWORD PTR _v3Target$[ebp]
; File D:\Metin2 Server Files\mainline\SRC_2014\M2Data\include\d3dx8math.inl

; 180  :     x = fx;

  0009f	f3 0f 11 45 d8	 movss	 DWORD PTR _v3LightEye$[ebp], xmm0
; File D:\Metin2 Server Files\mainline\SRC_2014\Metin2Client\GameLib\MapOutdoorRender.cpp

; 253  : 	D3DXVECTOR3 v3LightEye(v3Target.x - 1.732f * 1250.0f,

  000a4	f3 0f 10 45 f4	 movss	 xmm0, DWORD PTR _v3Target$[ebp+4]
  000a9	f3 0f 5c 05 00
	00 00 00	 subss	 xmm0, DWORD PTR __real@449c4000

; 257  : 	D3DXMatrixLookAtRH(&m_matLightView, &v3LightEye, &v3Target, &D3DXVECTOR3(0.0f, 0.0f, 1.0f));

  000b1	50		 push	 eax
  000b2	8d 45 d8	 lea	 eax, DWORD PTR _v3LightEye$[ebp]
  000b5	50		 push	 eax
  000b6	56		 push	 esi
; File D:\Metin2 Server Files\mainline\SRC_2014\M2Data\include\d3dx8math.inl

; 181  :     y = fy;

  000b7	f3 0f 11 45 dc	 movss	 DWORD PTR _v3LightEye$[ebp+4], xmm0
; File D:\Metin2 Server Files\mainline\SRC_2014\Metin2Client\GameLib\MapOutdoorRender.cpp

; 253  : 	D3DXVECTOR3 v3LightEye(v3Target.x - 1.732f * 1250.0f,

  000bc	f3 0f 10 45 f8	 movss	 xmm0, DWORD PTR _v3Target$[ebp+8]
  000c1	f3 0f 58 05 00
	00 00 00	 addss	 xmm0, DWORD PTR __real@45875000
; File D:\Metin2 Server Files\mainline\SRC_2014\M2Data\include\d3dx8math.inl

; 182  :     z = fz;

  000c9	f3 0f 11 45 e0	 movss	 DWORD PTR _v3LightEye$[ebp+8], xmm0
; File D:\Metin2 Server Files\mainline\SRC_2014\Metin2Client\GameLib\MapOutdoorRender.cpp

; 257  : 	D3DXMatrixLookAtRH(&m_matLightView, &v3LightEye, &v3Target, &D3DXVECTOR3(0.0f, 0.0f, 1.0f));

  000ce	e8 00 00 00 00	 call	 _D3DXMatrixLookAtRH@16
; File D:\Metin2 Server Files\mainline\SRC_2014\M2Data\include\d3dx8math.inl

; 580  :     D3DXMatrixMultiply(&matT, this, &mat);

  000d3	56		 push	 esi
  000d4	57		 push	 edi
  000d5	8d 85 58 ff ff
	ff		 lea	 eax, DWORD PTR $T1[ebp]
  000db	50		 push	 eax
  000dc	e8 00 00 00 00	 call	 _D3DXMatrixMultiply@12
; File D:\Metin2 Server Files\mainline\SRC_2014\Metin2Client\GameLib\MapOutdoorRender.cpp

; 258  : 	m_matDynamicShadow = m_matViewInverse * m_matLightView * m_matDynamicShadowScale;

  000e1	8d 83 88 08 00
	00		 lea	 eax, DWORD PTR [ebx+2184]
; File D:\Metin2 Server Files\mainline\SRC_2014\M2Data\include\d3dx8math.inl

; 580  :     D3DXMatrixMultiply(&matT, this, &mat);

  000e7	50		 push	 eax
  000e8	8d 85 58 ff ff
	ff		 lea	 eax, DWORD PTR $T1[ebp]
  000ee	50		 push	 eax
  000ef	8d 45 98	 lea	 eax, DWORD PTR $T2[ebp]
  000f2	50		 push	 eax
  000f3	e8 00 00 00 00	 call	 _D3DXMatrixMultiply@12
; File D:\Metin2 Server Files\mainline\SRC_2014\Metin2Client\GameLib\MapOutdoorRender.cpp

; 258  : 	m_matDynamicShadow = m_matViewInverse * m_matLightView * m_matDynamicShadowScale;

  000f8	0f 10 45 98	 movups	 xmm0, XMMWORD PTR $T2[ebp]
  000fc	5f		 pop	 edi
  000fd	5e		 pop	 esi
  000fe	0f 11 83 48 08
	00 00		 movups	 XMMWORD PTR [ebx+2120], xmm0
  00105	0f 10 45 a8	 movups	 xmm0, XMMWORD PTR $T2[ebp+16]
  00109	0f 11 83 58 08
	00 00		 movups	 XMMWORD PTR [ebx+2136], xmm0
  00110	0f 10 45 b8	 movups	 xmm0, XMMWORD PTR $T2[ebp+32]
  00114	0f 11 83 68 08
	00 00		 movups	 XMMWORD PTR [ebx+2152], xmm0
  0011b	0f 10 45 c8	 movups	 xmm0, XMMWORD PTR $T2[ebp+48]
  0011f	0f 11 83 78 08
	00 00		 movups	 XMMWORD PTR [ebx+2168], xmm0
$LN1@SetInverse:

; 259  : }

  00126	8b 4d fc	 mov	 ecx, DWORD PTR __$ArrayPad$[ebp]
  00129	33 cd		 xor	 ecx, ebp
  0012b	5b		 pop	 ebx
  0012c	e8 00 00 00 00	 call	 @__security_check_cookie@4
  00131	8b e5		 mov	 esp, ebp
  00133	5d		 pop	 ebp
  00134	c3		 ret	 0
?SetInverseViewAndDynamicShaodwMatrices@CMapOutdoor@@QAEXXZ ENDP ; CMapOutdoor::SetInverseViewAndDynamicShaodwMatrices
_TEXT	ENDS
; Function compile flags: /Ogtp
; File D:\Metin2 Server Files\mainline\SRC_2014\Metin2Client\GameLib\MapOutdoorRender.cpp
;	COMDAT ?OnRender@CMapOutdoor@@MAEXXZ
_TEXT	SEGMENT
?OnRender@CMapOutdoor@@MAEXXZ PROC			; CMapOutdoor::OnRender, COMDAT
; _this$ = ecx

; 262  : {

  00000	56		 push	 esi
  00001	8b f1		 mov	 esi, ecx

; 263  : #ifdef __PERFORMANCE_CHECKER__
; 264  : 	DWORD t1=ELTimer_GetMSec();
; 265  : 	SetInverseViewAndDynamicShaodwMatrices();
; 266  : 
; 267  : 	SetBlendOperation();
; 268  : 	DWORD t2=ELTimer_GetMSec();
; 269  : 	RenderArea();
; 270  : 	DWORD t3=ELTimer_GetMSec();
; 271  : 	if (!m_bEnableTerrainOnlyForHeight)
; 272  : 		RenderTerrain();
; 273  : 	DWORD t4=ELTimer_GetMSec();
; 274  : 	RenderTree();
; 275  : 	DWORD t5=ELTimer_GetMSec();
; 276  : 	DWORD tEnd=ELTimer_GetMSec();
; 277  : 
; 278  : 	if (tEnd-t1<7)
; 279  : 		return;
; 280  : 
; 281  : 	static FILE* fp=fopen("perf_map_render.txt", "w");
; 282  :  	fprintf(fp, "MAP.Total %d (Time %d)\n", tEnd-t1, ELTimer_GetMSec());
; 283  : 	fprintf(fp, "MAP.ENV %d\n", t2-t1);
; 284  : 	fprintf(fp, "MAP.OBJ %d\n", t3-t2);
; 285  : 	fprintf(fp, "MAP.TRN %d\n", t4-t3);
; 286  : 	fprintf(fp, "MAP.TRE %d\n", t5-t4);
; 287  : 
; 288  : #else
; 289  : 	SetInverseViewAndDynamicShaodwMatrices();

  00003	e8 00 00 00 00	 call	 ?SetInverseViewAndDynamicShaodwMatrices@CMapOutdoor@@QAEXXZ ; CMapOutdoor::SetInverseViewAndDynamicShaodwMatrices

; 290  : 
; 291  : 	SetBlendOperation();

  00008	8b ce		 mov	 ecx, esi
  0000a	e8 00 00 00 00	 call	 ?SetBlendOperation@CScreen@@QAEXXZ ; CScreen::SetBlendOperation

; 292  : 	RenderArea();

  0000f	6a 01		 push	 1
  00011	8b ce		 mov	 ecx, esi
  00013	e8 00 00 00 00	 call	 ?RenderArea@CMapOutdoor@@QAEX_N@Z ; CMapOutdoor::RenderArea

; 293  : 	RenderTree();

  00018	8b ce		 mov	 ecx, esi
  0001a	e8 00 00 00 00	 call	 ?RenderTree@CMapOutdoor@@QAEXXZ ; CMapOutdoor::RenderTree

; 294  : 	if (!m_bEnableTerrainOnlyForHeight)

  0001f	80 be b6 0e 00
	00 00		 cmp	 BYTE PTR [esi+3766], 0
  00026	75 07		 jne	 SHORT $LN2@OnRender

; 295  : 		RenderTerrain();

  00028	8b ce		 mov	 ecx, esi
  0002a	e8 00 00 00 00	 call	 ?RenderTerrain@CMapOutdoor@@QAEXXZ ; CMapOutdoor::RenderTerrain
$LN2@OnRender:

; 296  : 	RenderBlendArea();

  0002f	8b ce		 mov	 ecx, esi
  00031	5e		 pop	 esi
  00032	e9 00 00 00 00	 jmp	 ?RenderBlendArea@CMapOutdoor@@QAEXXZ ; CMapOutdoor::RenderBlendArea
?OnRender@CMapOutdoor@@MAEXXZ ENDP			; CMapOutdoor::OnRender
_TEXT	ENDS
; Function compile flags: /Ogtp
; File C:\Program Files (x86)\Microsoft Visual Studio\2019\Community\VC\Tools\MSVC\14.28.29333\include\xmemory
;	COMDAT ??$_Allocate_manually_vector_aligned@U_Default_allocate_traits@std@@@std@@YAPAXI@Z
_TEXT	SEGMENT
__Bytes$ = 8						; size = 4
??$_Allocate_manually_vector_aligned@U_Default_allocate_traits@std@@@std@@YAPAXI@Z PROC ; std::_Allocate_manually_vector_aligned<std::_Default_allocate_traits>, COMDAT

; 113  : __declspec(allocator) void* _Allocate_manually_vector_aligned(const size_t _Bytes) {

  00000	55		 push	 ebp
  00001	8b ec		 mov	 ebp, esp

; 114  :     // allocate _Bytes manually aligned to at least _Big_allocation_alignment
; 115  :     const size_t _Block_size = _Non_user_size + _Bytes;

  00003	8b 45 08	 mov	 eax, DWORD PTR __Bytes$[ebp]
  00006	8d 48 23	 lea	 ecx, DWORD PTR [eax+35]

; 116  :     if (_Block_size <= _Bytes) {

  00009	3b c8		 cmp	 ecx, eax
  0000b	0f 86 00 00 00
	00		 jbe	 ?_Throw_bad_array_new_length@std@@YAXXZ ; std::_Throw_bad_array_new_length

; 77   :         return ::operator new(_Bytes);

  00011	51		 push	 ecx
  00012	e8 00 00 00 00	 call	 ??2@YAPAXI@Z		; operator new

; 117  :         _Throw_bad_array_new_length(); // add overflow
; 118  :     }
; 119  : 
; 120  :     const uintptr_t _Ptr_container = reinterpret_cast<uintptr_t>(_Traits::_Allocate(_Block_size));

  00017	8b c8		 mov	 ecx, eax

; 77   :         return ::operator new(_Bytes);

  00019	83 c4 04	 add	 esp, 4

; 121  :     _STL_VERIFY(_Ptr_container != 0, "invalid argument"); // validate even in release since we're doing p[-1]

  0001c	85 c9		 test	 ecx, ecx
  0001e	74 0b		 je	 SHORT $LN7@Allocate_m

; 122  :     void* const _Ptr = reinterpret_cast<void*>((_Ptr_container + _Non_user_size) & ~(_Big_allocation_alignment - 1));

  00020	8d 41 23	 lea	 eax, DWORD PTR [ecx+35]
  00023	83 e0 e0	 and	 eax, -32		; ffffffe0H

; 123  :     static_cast<uintptr_t*>(_Ptr)[-1] = _Ptr_container;

  00026	89 48 fc	 mov	 DWORD PTR [eax-4], ecx

; 124  : 
; 125  : #ifdef _DEBUG
; 126  :     static_cast<uintptr_t*>(_Ptr)[-2] = _Big_allocation_sentinel;
; 127  : #endif // _DEBUG
; 128  :     return _Ptr;
; 129  : }

  00029	5d		 pop	 ebp
  0002a	c3		 ret	 0
$LN7@Allocate_m:

; 121  :     _STL_VERIFY(_Ptr_container != 0, "invalid argument"); // validate even in release since we're doing p[-1]

  0002b	e9 00 00 00 00	 jmp	 __invalid_parameter_noinfo_noreturn
??$_Allocate_manually_vector_aligned@U_Default_allocate_traits@std@@@std@@YAPAXI@Z ENDP ; std::_Allocate_manually_vector_aligned<std::_Default_allocate_traits>
_TEXT	ENDS
; Function compile flags: /Ogtp
; File C:\Program Files (x86)\Microsoft Visual Studio\2019\Community\VC\Tools\MSVC\14.28.29333\include\xmemory
;	COMDAT ??$_Allocate@$07U_Default_allocate_traits@std@@$0A@@std@@YAPAXI@Z
_TEXT	SEGMENT
__Bytes$ = 8						; size = 4
??$_Allocate@$07U_Default_allocate_traits@std@@$0A@@std@@YAPAXI@Z PROC ; std::_Allocate<8,std::_Default_allocate_traits,0>, COMDAT

; 197  : __declspec(allocator) void* _Allocate(const size_t _Bytes) {

  00000	55		 push	 ebp
  00001	8b ec		 mov	 ebp, esp

; 198  :     // allocate _Bytes when !_HAS_ALIGNED_NEW || _Align <= __STDCPP_DEFAULT_NEW_ALIGNMENT__
; 199  : #if defined(_M_IX86) || defined(_M_X64)
; 200  :     if (_Bytes >= _Big_allocation_threshold) { // boost the alignment of big allocations to help autovectorization

  00003	8b 45 08	 mov	 eax, DWORD PTR __Bytes$[ebp]
  00006	3d 00 10 00 00	 cmp	 eax, 4096		; 00001000H
  0000b	72 09		 jb	 SHORT $LN2@Allocate

; 201  :         return _Allocate_manually_vector_aligned<_Traits>(_Bytes);

  0000d	89 45 08	 mov	 DWORD PTR __Bytes$[ebp], eax

; 210  : }

  00010	5d		 pop	 ebp

; 201  :         return _Allocate_manually_vector_aligned<_Traits>(_Bytes);

  00011	e9 00 00 00 00	 jmp	 ??$_Allocate_manually_vector_aligned@U_Default_allocate_traits@std@@@std@@YAPAXI@Z ; std::_Allocate_manually_vector_aligned<std::_Default_allocate_traits>
$LN2@Allocate:

; 202  :     }
; 203  : #endif // defined(_M_IX86) || defined(_M_X64)
; 204  : 
; 205  :     if (_Bytes != 0) {

  00016	85 c0		 test	 eax, eax
  00018	74 09		 je	 SHORT $LN3@Allocate

; 77   :         return ::operator new(_Bytes);

  0001a	89 45 08	 mov	 DWORD PTR __Bytes$[ebp], eax

; 210  : }

  0001d	5d		 pop	 ebp

; 77   :         return ::operator new(_Bytes);

  0001e	e9 00 00 00 00	 jmp	 ??2@YAPAXI@Z		; operator new
$LN3@Allocate:

; 206  :         return _Traits::_Allocate(_Bytes);
; 207  :     }
; 208  : 
; 209  :     return nullptr;

  00023	33 c0		 xor	 eax, eax

; 210  : }

  00025	5d		 pop	 ebp
  00026	c3		 ret	 0
??$_Allocate@$07U_Default_allocate_traits@std@@$0A@@std@@YAPAXI@Z ENDP ; std::_Allocate<8,std::_Default_allocate_traits,0>
_TEXT	ENDS
; Function compile flags: /Ogtp
; File C:\Program Files (x86)\Microsoft Visual Studio\2019\Community\VC\Tools\MSVC\14.28.29333\include\xmemory
;	COMDAT ??$_Deallocate@$07$0A@@std@@YAXPAXI@Z
_TEXT	SEGMENT
__Ptr$ = 8						; size = 4
__Bytes$ = 12						; size = 4
??$_Deallocate@$07$0A@@std@@YAXPAXI@Z PROC		; std::_Deallocate<8,0>, COMDAT

; 213  : void _Deallocate(void* _Ptr, size_t _Bytes) noexcept {

  00000	55		 push	 ebp
  00001	8b ec		 mov	 ebp, esp

; 214  :     // deallocate storage allocated by _Allocate when !_HAS_ALIGNED_NEW || _Align <= __STDCPP_DEFAULT_NEW_ALIGNMENT__
; 215  : #if defined(_M_IX86) || defined(_M_X64)
; 216  :     if (_Bytes >= _Big_allocation_threshold) { // boost the alignment of big allocations to help autovectorization

  00003	8b 4d 0c	 mov	 ecx, DWORD PTR __Bytes$[ebp]
  00006	81 f9 00 10 00
	00		 cmp	 ecx, 4096		; 00001000H
  0000c	72 18		 jb	 SHORT $LN15@Deallocate

; 137  :     const uintptr_t _Ptr_container   = _Ptr_user[-1];

  0000e	8b 45 08	 mov	 eax, DWORD PTR __Ptr$[ebp]
  00011	83 c1 23	 add	 ecx, 35			; 00000023H
  00014	8b 50 fc	 mov	 edx, DWORD PTR [eax-4]

; 138  : 
; 139  :     // If the following asserts, it likely means that we are performing
; 140  :     // an aligned delete on memory coming from an unaligned allocation.
; 141  :     _STL_ASSERT(_Ptr_user[-2] == _Big_allocation_sentinel, "invalid argument");
; 142  : 
; 143  :     // Extra paranoia on aligned allocation/deallocation; ensure _Ptr_container is
; 144  :     // in range [_Min_back_shift, _Non_user_size]
; 145  : #ifdef _DEBUG
; 146  :     constexpr uintptr_t _Min_back_shift = 2 * sizeof(void*);
; 147  : #else // ^^^ _DEBUG ^^^ // vvv !_DEBUG vvv
; 148  :     constexpr uintptr_t _Min_back_shift = sizeof(void*);
; 149  : #endif // _DEBUG
; 150  :     const uintptr_t _Back_shift = reinterpret_cast<uintptr_t>(_Ptr) - _Ptr_container;

  00017	2b c2		 sub	 eax, edx

; 151  :     _STL_VERIFY(_Back_shift >= _Min_back_shift && _Back_shift <= _Non_user_size, "invalid argument");

  00019	83 c0 fc	 add	 eax, -4			; fffffffcH
  0001c	83 f8 1f	 cmp	 eax, 31			; 0000001fH
  0001f	76 08		 jbe	 SHORT $LN13@Deallocate
  00021	e9 00 00 00 00	 jmp	 __invalid_parameter_noinfo_noreturn
$LN15@Deallocate:

; 214  :     // deallocate storage allocated by _Allocate when !_HAS_ALIGNED_NEW || _Align <= __STDCPP_DEFAULT_NEW_ALIGNMENT__
; 215  : #if defined(_M_IX86) || defined(_M_X64)
; 216  :     if (_Bytes >= _Big_allocation_threshold) { // boost the alignment of big allocations to help autovectorization

  00026	8b 55 08	 mov	 edx, DWORD PTR __Ptr$[ebp]
$LN13@Deallocate:

; 217  :         _Adjust_manually_vector_aligned(_Ptr, _Bytes);
; 218  :     }
; 219  : #endif // defined(_M_IX86) || defined(_M_X64)
; 220  : 
; 221  :     ::operator delete(_Ptr, _Bytes);

  00029	89 4d 0c	 mov	 DWORD PTR __Bytes$[ebp], ecx
  0002c	89 55 08	 mov	 DWORD PTR __Ptr$[ebp], edx

; 222  : }

  0002f	5d		 pop	 ebp

; 217  :         _Adjust_manually_vector_aligned(_Ptr, _Bytes);
; 218  :     }
; 219  : #endif // defined(_M_IX86) || defined(_M_X64)
; 220  : 
; 221  :     ::operator delete(_Ptr, _Bytes);

  00030	e9 00 00 00 00	 jmp	 ??3@YAXPAXI@Z		; operator delete
??$_Deallocate@$07$0A@@std@@YAXPAXI@Z ENDP		; std::_Deallocate<8,0>
_TEXT	ENDS
; Function compile flags: /Ogtp
; File C:\Program Files (x86)\Microsoft Visual Studio\2019\Community\VC\Tools\MSVC\14.28.29333\include\vector
;	COMDAT ?_Xlength@?$vector@EV?$allocator@E@std@@@std@@CAXXZ
_TEXT	SEGMENT
?_Xlength@?$vector@EV?$allocator@E@std@@@std@@CAXXZ PROC ; std::vector<unsigned char,std::allocator<unsigned char> >::_Xlength, COMDAT

; 1705 :         _Xlength_error("vector too long");

  00000	68 00 00 00 00	 push	 OFFSET ??_C@_0BA@FOIKENOD@vector?5too?5long@
  00005	e8 00 00 00 00	 call	 ?_Xlength_error@std@@YAXPBD@Z ; std::_Xlength_error
$LN3@Xlength:
  0000a	cc		 int	 3
?_Xlength@?$vector@EV?$allocator@E@std@@@std@@CAXXZ ENDP ; std::vector<unsigned char,std::allocator<unsigned char> >::_Xlength
_TEXT	ENDS
; Function compile flags: /Ogtp
; File D:\Metin2 Server Files\mainline\SRC_2014\M2Data\include\d3dx8math.h
;	COMDAT ??0D3DXMATRIX@@QAE@XZ
_TEXT	SEGMENT
??0D3DXMATRIX@@QAE@XZ PROC				; D3DXMATRIX::D3DXMATRIX, COMDAT
; _this$ = ecx

; 177  :     D3DXMATRIX() {};

  00000	8b c1		 mov	 eax, ecx
  00002	c3		 ret	 0
??0D3DXMATRIX@@QAE@XZ ENDP				; D3DXMATRIX::D3DXMATRIX
_TEXT	ENDS
; Function compile flags: /Ogtp
; File C:\Program Files (x86)\Microsoft Visual Studio\2019\Community\VC\Tools\MSVC\14.28.29333\include\exception
;	COMDAT ?_Throw_bad_array_new_length@std@@YAXXZ
_TEXT	SEGMENT
$T1 = -12						; size = 12
?_Throw_bad_array_new_length@std@@YAXXZ PROC		; std::_Throw_bad_array_new_length, COMDAT

; 320  : [[noreturn]] inline void _Throw_bad_array_new_length() {

  00000	55		 push	 ebp
  00001	8b ec		 mov	 ebp, esp
  00003	83 ec 0c	 sub	 esp, 12			; 0000000cH

; 321  :     _THROW(bad_array_new_length{});

  00006	8d 4d f4	 lea	 ecx, DWORD PTR $T1[ebp]
  00009	e8 00 00 00 00	 call	 ??0bad_array_new_length@std@@QAE@XZ ; std::bad_array_new_length::bad_array_new_length
  0000e	68 00 00 00 00	 push	 OFFSET __TI3?AVbad_array_new_length@std@@
  00013	8d 45 f4	 lea	 eax, DWORD PTR $T1[ebp]
  00016	50		 push	 eax
  00017	e8 00 00 00 00	 call	 __CxxThrowException@8
$LN3@Throw_bad_:
  0001c	cc		 int	 3
?_Throw_bad_array_new_length@std@@YAXXZ ENDP		; std::_Throw_bad_array_new_length
_TEXT	ENDS
; Function compile flags: /Ogtp
; File C:\Program Files (x86)\Microsoft Visual Studio\2019\Community\VC\Tools\MSVC\14.28.29333\include\vcruntime_exception.h
;	COMDAT ??_Gbad_array_new_length@std@@UAEPAXI@Z
_TEXT	SEGMENT
___flags$ = 8						; size = 4
??_Gbad_array_new_length@std@@UAEPAXI@Z PROC		; std::bad_array_new_length::`scalar deleting destructor', COMDAT
; _this$ = ecx
  00000	55		 push	 ebp
  00001	8b ec		 mov	 ebp, esp

; 89   :     {

  00003	56		 push	 esi
  00004	8b f1		 mov	 esi, ecx

; 90   :         __std_exception_destroy(&_Data);

  00006	8d 46 04	 lea	 eax, DWORD PTR [esi+4]
  00009	c7 06 00 00 00
	00		 mov	 DWORD PTR [esi], OFFSET ??_7exception@std@@6B@
  0000f	50		 push	 eax
  00010	e8 00 00 00 00	 call	 ___std_exception_destroy
  00015	83 c4 04	 add	 esp, 4
  00018	f6 45 08 01	 test	 BYTE PTR ___flags$[ebp], 1
  0001c	74 0b		 je	 SHORT $LN12@scalar
  0001e	6a 0c		 push	 12			; 0000000cH
  00020	56		 push	 esi
  00021	e8 00 00 00 00	 call	 ??3@YAXPAXI@Z		; operator delete
  00026	83 c4 08	 add	 esp, 8
$LN12@scalar:
  00029	8b c6		 mov	 eax, esi
  0002b	5e		 pop	 esi
  0002c	5d		 pop	 ebp
  0002d	c2 04 00	 ret	 4
??_Gbad_array_new_length@std@@UAEPAXI@Z ENDP		; std::bad_array_new_length::`scalar deleting destructor'
_TEXT	ENDS
; Function compile flags: /Ogtp
; File C:\Program Files (x86)\Microsoft Visual Studio\2019\Community\VC\Tools\MSVC\14.28.29333\include\vcruntime_exception.h
;	COMDAT ??0bad_array_new_length@std@@QAE@ABV01@@Z
_TEXT	SEGMENT
___that$ = 8						; size = 4
??0bad_array_new_length@std@@QAE@ABV01@@Z PROC		; std::bad_array_new_length::bad_array_new_length, COMDAT
; _this$ = ecx
  00000	55		 push	 ebp
  00001	8b ec		 mov	 ebp, esp

; 72   :     {

  00003	56		 push	 esi
  00004	8b f1		 mov	 esi, ecx
  00006	0f 57 c0	 xorps	 xmm0, xmm0

; 71   :         : _Data()

  00009	8d 46 04	 lea	 eax, DWORD PTR [esi+4]

; 73   :         __std_exception_copy(&_Other._Data, &_Data);

  0000c	50		 push	 eax
  0000d	c7 06 00 00 00
	00		 mov	 DWORD PTR [esi], OFFSET ??_7exception@std@@6B@
  00013	66 0f d6 00	 movq	 QWORD PTR [eax], xmm0
  00017	8b 45 08	 mov	 eax, DWORD PTR ___that$[ebp]
  0001a	83 c0 04	 add	 eax, 4
  0001d	50		 push	 eax
  0001e	e8 00 00 00 00	 call	 ___std_exception_copy
  00023	83 c4 08	 add	 esp, 8
  00026	c7 06 00 00 00
	00		 mov	 DWORD PTR [esi], OFFSET ??_7bad_array_new_length@std@@6B@
  0002c	8b c6		 mov	 eax, esi
  0002e	5e		 pop	 esi
  0002f	5d		 pop	 ebp
  00030	c2 04 00	 ret	 4
??0bad_array_new_length@std@@QAE@ABV01@@Z ENDP		; std::bad_array_new_length::bad_array_new_length
_TEXT	ENDS
; Function compile flags: /Ogtp
; File C:\Program Files (x86)\Microsoft Visual Studio\2019\Community\VC\Tools\MSVC\14.28.29333\include\vcruntime_exception.h
;	COMDAT ??1bad_array_new_length@std@@UAE@XZ
_TEXT	SEGMENT
??1bad_array_new_length@std@@UAE@XZ PROC		; std::bad_array_new_length::~bad_array_new_length, COMDAT
; _this$ = ecx

; 90   :         __std_exception_destroy(&_Data);

  00000	8d 41 04	 lea	 eax, DWORD PTR [ecx+4]
  00003	c7 01 00 00 00
	00		 mov	 DWORD PTR [ecx], OFFSET ??_7exception@std@@6B@
  00009	50		 push	 eax
  0000a	e8 00 00 00 00	 call	 ___std_exception_destroy
  0000f	59		 pop	 ecx
  00010	c3		 ret	 0
??1bad_array_new_length@std@@UAE@XZ ENDP		; std::bad_array_new_length::~bad_array_new_length
_TEXT	ENDS
; Function compile flags: /Ogtp
; File C:\Program Files (x86)\Microsoft Visual Studio\2019\Community\VC\Tools\MSVC\14.28.29333\include\vcruntime_exception.h
;	COMDAT ??0bad_array_new_length@std@@QAE@XZ
_TEXT	SEGMENT
??0bad_array_new_length@std@@QAE@XZ PROC		; std::bad_array_new_length::bad_array_new_length, COMDAT
; _this$ = ecx

; 141  :     {

  00000	0f 57 c0	 xorps	 xmm0, xmm0

; 142  :     }

  00003	8b c1		 mov	 eax, ecx

; 65   :         : _Data()

  00005	66 0f d6 41 04	 movq	 QWORD PTR [ecx+4], xmm0

; 66   :     {
; 67   :         _Data._What = _Message;

  0000a	c7 41 04 00 00
	00 00		 mov	 DWORD PTR [ecx+4], OFFSET ??_C@_0BF@KINCDENJ@bad?5array?5new?5length@

; 141  :     {

  00011	c7 01 00 00 00
	00		 mov	 DWORD PTR [ecx], OFFSET ??_7bad_array_new_length@std@@6B@

; 142  :     }

  00017	c3		 ret	 0
??0bad_array_new_length@std@@QAE@XZ ENDP		; std::bad_array_new_length::bad_array_new_length
_TEXT	ENDS
; Function compile flags: /Ogtp
; File C:\Program Files (x86)\Microsoft Visual Studio\2019\Community\VC\Tools\MSVC\14.28.29333\include\vcruntime_exception.h
;	COMDAT ??_Gbad_alloc@std@@UAEPAXI@Z
_TEXT	SEGMENT
___flags$ = 8						; size = 4
??_Gbad_alloc@std@@UAEPAXI@Z PROC			; std::bad_alloc::`scalar deleting destructor', COMDAT
; _this$ = ecx
  00000	55		 push	 ebp
  00001	8b ec		 mov	 ebp, esp

; 89   :     {

  00003	56		 push	 esi
  00004	8b f1		 mov	 esi, ecx

; 90   :         __std_exception_destroy(&_Data);

  00006	8d 46 04	 lea	 eax, DWORD PTR [esi+4]
  00009	c7 06 00 00 00
	00		 mov	 DWORD PTR [esi], OFFSET ??_7exception@std@@6B@
  0000f	50		 push	 eax
  00010	e8 00 00 00 00	 call	 ___std_exception_destroy
  00015	83 c4 04	 add	 esp, 4
  00018	f6 45 08 01	 test	 BYTE PTR ___flags$[ebp], 1
  0001c	74 0b		 je	 SHORT $LN9@scalar
  0001e	6a 0c		 push	 12			; 0000000cH
  00020	56		 push	 esi
  00021	e8 00 00 00 00	 call	 ??3@YAXPAXI@Z		; operator delete
  00026	83 c4 08	 add	 esp, 8
$LN9@scalar:
  00029	8b c6		 mov	 eax, esi
  0002b	5e		 pop	 esi
  0002c	5d		 pop	 ebp
  0002d	c2 04 00	 ret	 4
??_Gbad_alloc@std@@UAEPAXI@Z ENDP			; std::bad_alloc::`scalar deleting destructor'
_TEXT	ENDS
; Function compile flags: /Ogtp
; File C:\Program Files (x86)\Microsoft Visual Studio\2019\Community\VC\Tools\MSVC\14.28.29333\include\vcruntime_exception.h
;	COMDAT ??0bad_alloc@std@@QAE@ABV01@@Z
_TEXT	SEGMENT
___that$ = 8						; size = 4
??0bad_alloc@std@@QAE@ABV01@@Z PROC			; std::bad_alloc::bad_alloc, COMDAT
; _this$ = ecx
  00000	55		 push	 ebp
  00001	8b ec		 mov	 ebp, esp

; 72   :     {

  00003	56		 push	 esi
  00004	8b f1		 mov	 esi, ecx
  00006	0f 57 c0	 xorps	 xmm0, xmm0

; 71   :         : _Data()

  00009	8d 46 04	 lea	 eax, DWORD PTR [esi+4]

; 73   :         __std_exception_copy(&_Other._Data, &_Data);

  0000c	50		 push	 eax
  0000d	c7 06 00 00 00
	00		 mov	 DWORD PTR [esi], OFFSET ??_7exception@std@@6B@
  00013	66 0f d6 00	 movq	 QWORD PTR [eax], xmm0
  00017	8b 45 08	 mov	 eax, DWORD PTR ___that$[ebp]
  0001a	83 c0 04	 add	 eax, 4
  0001d	50		 push	 eax
  0001e	e8 00 00 00 00	 call	 ___std_exception_copy
  00023	83 c4 08	 add	 esp, 8
  00026	c7 06 00 00 00
	00		 mov	 DWORD PTR [esi], OFFSET ??_7bad_alloc@std@@6B@
  0002c	8b c6		 mov	 eax, esi
  0002e	5e		 pop	 esi
  0002f	5d		 pop	 ebp
  00030	c2 04 00	 ret	 4
??0bad_alloc@std@@QAE@ABV01@@Z ENDP			; std::bad_alloc::bad_alloc
_TEXT	ENDS
; Function compile flags: /Ogtp
; File C:\Program Files (x86)\Microsoft Visual Studio\2019\Community\VC\Tools\MSVC\14.28.29333\include\vcruntime_exception.h
;	COMDAT ??_Gexception@std@@UAEPAXI@Z
_TEXT	SEGMENT
___flags$ = 8						; size = 4
??_Gexception@std@@UAEPAXI@Z PROC			; std::exception::`scalar deleting destructor', COMDAT
; _this$ = ecx
  00000	55		 push	 ebp
  00001	8b ec		 mov	 ebp, esp

; 89   :     {

  00003	56		 push	 esi
  00004	8b f1		 mov	 esi, ecx

; 90   :         __std_exception_destroy(&_Data);

  00006	8d 46 04	 lea	 eax, DWORD PTR [esi+4]
  00009	c7 06 00 00 00
	00		 mov	 DWORD PTR [esi], OFFSET ??_7exception@std@@6B@
  0000f	50		 push	 eax
  00010	e8 00 00 00 00	 call	 ___std_exception_destroy
  00015	83 c4 04	 add	 esp, 4
  00018	f6 45 08 01	 test	 BYTE PTR ___flags$[ebp], 1
  0001c	74 0b		 je	 SHORT $LN6@scalar
  0001e	6a 0c		 push	 12			; 0000000cH
  00020	56		 push	 esi
  00021	e8 00 00 00 00	 call	 ??3@YAXPAXI@Z		; operator delete
  00026	83 c4 08	 add	 esp, 8
$LN6@scalar:
  00029	8b c6		 mov	 eax, esi
  0002b	5e		 pop	 esi
  0002c	5d		 pop	 ebp
  0002d	c2 04 00	 ret	 4
??_Gexception@std@@UAEPAXI@Z ENDP			; std::exception::`scalar deleting destructor'
_TEXT	ENDS
; Function compile flags: /Ogtp
; File C:\Program Files (x86)\Microsoft Visual Studio\2019\Community\VC\Tools\MSVC\14.28.29333\include\vcruntime_exception.h
;	COMDAT ?what@exception@std@@UBEPBDXZ
_TEXT	SEGMENT
?what@exception@std@@UBEPBDXZ PROC			; std::exception::what, COMDAT
; _this$ = ecx

; 95   :         return _Data._What ? _Data._What : "Unknown exception";

  00000	8b 49 04	 mov	 ecx, DWORD PTR [ecx+4]
  00003	b8 00 00 00 00	 mov	 eax, OFFSET ??_C@_0BC@EOODALEL@Unknown?5exception@
  00008	85 c9		 test	 ecx, ecx
  0000a	0f 45 c1	 cmovne	 eax, ecx

; 96   :     }

  0000d	c3		 ret	 0
?what@exception@std@@UBEPBDXZ ENDP			; std::exception::what
_TEXT	ENDS
; Function compile flags: /Ogtp
; File C:\Program Files (x86)\Microsoft Visual Studio\2019\Community\VC\Tools\MSVC\14.28.29333\include\vcruntime_exception.h
;	COMDAT ??1exception@std@@UAE@XZ
_TEXT	SEGMENT
??1exception@std@@UAE@XZ PROC				; std::exception::~exception, COMDAT
; _this$ = ecx

; 90   :         __std_exception_destroy(&_Data);

  00000	8d 41 04	 lea	 eax, DWORD PTR [ecx+4]
  00003	c7 01 00 00 00
	00		 mov	 DWORD PTR [ecx], OFFSET ??_7exception@std@@6B@
  00009	50		 push	 eax
  0000a	e8 00 00 00 00	 call	 ___std_exception_destroy
  0000f	59		 pop	 ecx

; 91   :     }

  00010	c3		 ret	 0
??1exception@std@@UAE@XZ ENDP				; std::exception::~exception
_TEXT	ENDS
; Function compile flags: /Ogtp
; File C:\Program Files (x86)\Microsoft Visual Studio\2019\Community\VC\Tools\MSVC\14.28.29333\include\vcruntime_exception.h
;	COMDAT ??0exception@std@@QAE@ABV01@@Z
_TEXT	SEGMENT
__Other$ = 8						; size = 4
??0exception@std@@QAE@ABV01@@Z PROC			; std::exception::exception, COMDAT
; _this$ = ecx

; 72   :     {

  00000	55		 push	 ebp
  00001	8b ec		 mov	 ebp, esp
  00003	56		 push	 esi
  00004	8b f1		 mov	 esi, ecx
  00006	0f 57 c0	 xorps	 xmm0, xmm0
  00009	8d 46 04	 lea	 eax, DWORD PTR [esi+4]

; 73   :         __std_exception_copy(&_Other._Data, &_Data);

  0000c	50		 push	 eax
  0000d	c7 06 00 00 00
	00		 mov	 DWORD PTR [esi], OFFSET ??_7exception@std@@6B@
  00013	66 0f d6 00	 movq	 QWORD PTR [eax], xmm0
  00017	8b 45 08	 mov	 eax, DWORD PTR __Other$[ebp]
  0001a	83 c0 04	 add	 eax, 4
  0001d	50		 push	 eax
  0001e	e8 00 00 00 00	 call	 ___std_exception_copy
  00023	83 c4 08	 add	 esp, 8

; 74   :     }

  00026	8b c6		 mov	 eax, esi
  00028	5e		 pop	 esi
  00029	5d		 pop	 ebp
  0002a	c2 04 00	 ret	 4
??0exception@std@@QAE@ABV01@@Z ENDP			; std::exception::exception
_TEXT	ENDS
; Function compile flags: /Ogtp
;	COMDAT ??_H@YGXPAXIIP6EPAX0@Z@Z
_TEXT	SEGMENT
___t$ = 8						; size = 4
___s$ = 12						; size = 4
___n$ = 16						; size = 4
___f$ = 20						; size = 4
??_H@YGXPAXIIP6EPAX0@Z@Z PROC				; `vector constructor iterator', COMDAT
  00000	55		 push	 ebp
  00001	8b ec		 mov	 ebp, esp
  00003	56		 push	 esi
  00004	8b 75 10	 mov	 esi, DWORD PTR ___n$[ebp]
  00007	85 f6		 test	 esi, esi
  00009	74 16		 je	 SHORT $LN6@vector
  0000b	53		 push	 ebx
  0000c	8b 5d 14	 mov	 ebx, DWORD PTR ___f$[ebp]
  0000f	57		 push	 edi
  00010	8b 7d 08	 mov	 edi, DWORD PTR ___t$[ebp]
$LL2@vector:
  00013	8b cf		 mov	 ecx, edi
  00015	ff d3		 call	 ebx
  00017	03 7d 0c	 add	 edi, DWORD PTR ___s$[ebp]
  0001a	83 ee 01	 sub	 esi, 1
  0001d	75 f4		 jne	 SHORT $LL2@vector
  0001f	5f		 pop	 edi
  00020	5b		 pop	 ebx
$LN6@vector:
  00021	5e		 pop	 esi
  00022	5d		 pop	 ebp
  00023	c2 10 00	 ret	 16			; 00000010H
??_H@YGXPAXIIP6EPAX0@Z@Z ENDP				; `vector constructor iterator'
_TEXT	ENDS
END
