; Listing generated by Microsoft (R) Optimizing Compiler Version 19.28.29335.0 

	TITLE	D:\Metin2 Server Files\mainline\SRC_2014\Metin2Client\GameLib\RaceDataFile.cpp
	.686P
	.XMM
	include listing.inc
	.model	flat

INCLUDELIB LIBCMT
INCLUDELIB OLDNAMES

PUBLIC	??_7?$CDynamicPoolEx@VCRotationDecorator@NEffectUpdateDecorator@@@@6B@ ; CDynamicPoolEx<NEffectUpdateDecorator::CRotationDecorator>::`vftable'
PUBLIC	??_G?$CDynamicPoolEx@VCRotationDecorator@NEffectUpdateDecorator@@@@UAEPAXI@Z ; CDynamicPoolEx<NEffectUpdateDecorator::CRotationDecorator>::`scalar deleting destructor'
PUBLIC	??_7?$CDynamicPoolEx@VCGravityDecorator@NEffectUpdateDecorator@@@@6B@ ; CDynamicPoolEx<NEffectUpdateDecorator::CGravityDecorator>::`vftable'
PUBLIC	??_G?$CDynamicPoolEx@VCGravityDecorator@NEffectUpdateDecorator@@@@UAEPAXI@Z ; CDynamicPoolEx<NEffectUpdateDecorator::CGravityDecorator>::`scalar deleting destructor'
PUBLIC	??_7?$CDynamicPoolEx@VCAirResistanceDecorator@NEffectUpdateDecorator@@@@6B@ ; CDynamicPoolEx<NEffectUpdateDecorator::CAirResistanceDecorator>::`vftable'
PUBLIC	??_G?$CDynamicPoolEx@VCAirResistanceDecorator@NEffectUpdateDecorator@@@@UAEPAXI@Z ; CDynamicPoolEx<NEffectUpdateDecorator::CAirResistanceDecorator>::`scalar deleting destructor'
PUBLIC	??_7?$CDynamicPoolEx@VCTextureAnimationRandomDecorator@NEffectUpdateDecorator@@@@6B@ ; CDynamicPoolEx<NEffectUpdateDecorator::CTextureAnimationRandomDecorator>::`vftable'
PUBLIC	??_G?$CDynamicPoolEx@VCTextureAnimationRandomDecorator@NEffectUpdateDecorator@@@@UAEPAXI@Z ; CDynamicPoolEx<NEffectUpdateDecorator::CTextureAnimationRandomDecorator>::`scalar deleting destructor'
PUBLIC	??_7?$CDynamicPoolEx@VCTextureAnimationCCWDecorator@NEffectUpdateDecorator@@@@6B@ ; CDynamicPoolEx<NEffectUpdateDecorator::CTextureAnimationCCWDecorator>::`vftable'
PUBLIC	??_G?$CDynamicPoolEx@VCTextureAnimationCCWDecorator@NEffectUpdateDecorator@@@@UAEPAXI@Z ; CDynamicPoolEx<NEffectUpdateDecorator::CTextureAnimationCCWDecorator>::`scalar deleting destructor'
PUBLIC	??_7?$CDynamicPoolEx@VCTextureAnimationCWDecorator@NEffectUpdateDecorator@@@@6B@ ; CDynamicPoolEx<NEffectUpdateDecorator::CTextureAnimationCWDecorator>::`vftable'
PUBLIC	??_G?$CDynamicPoolEx@VCTextureAnimationCWDecorator@NEffectUpdateDecorator@@@@UAEPAXI@Z ; CDynamicPoolEx<NEffectUpdateDecorator::CTextureAnimationCWDecorator>::`scalar deleting destructor'
PUBLIC	??_R4?$CDynamicPoolEx@VCHeaderDecorator@NEffectUpdateDecorator@@@@6B@ ; CDynamicPoolEx<NEffectUpdateDecorator::CHeaderDecorator>::`RTTI Complete Object Locator'
PUBLIC	??_R0?AV?$CDynamicPoolEx@VCHeaderDecorator@NEffectUpdateDecorator@@@@@8 ; CDynamicPoolEx<NEffectUpdateDecorator::CHeaderDecorator> `RTTI Type Descriptor'
PUBLIC	??_R3?$CDynamicPoolEx@VCHeaderDecorator@NEffectUpdateDecorator@@@@8 ; CDynamicPoolEx<NEffectUpdateDecorator::CHeaderDecorator>::`RTTI Class Hierarchy Descriptor'
PUBLIC	??_R2?$CDynamicPoolEx@VCHeaderDecorator@NEffectUpdateDecorator@@@@8 ; CDynamicPoolEx<NEffectUpdateDecorator::CHeaderDecorator>::`RTTI Base Class Array'
PUBLIC	??_R1A@?0A@EA@?$CDynamicPoolEx@VCHeaderDecorator@NEffectUpdateDecorator@@@@8 ; CDynamicPoolEx<NEffectUpdateDecorator::CHeaderDecorator>::`RTTI Base Class Descriptor at (0,-1,0,64)'
PUBLIC	??_R4?$CDynamicPoolEx@VCNullDecorator@NEffectUpdateDecorator@@@@6B@ ; CDynamicPoolEx<NEffectUpdateDecorator::CNullDecorator>::`RTTI Complete Object Locator'
PUBLIC	??_R0?AV?$CDynamicPoolEx@VCNullDecorator@NEffectUpdateDecorator@@@@@8 ; CDynamicPoolEx<NEffectUpdateDecorator::CNullDecorator> `RTTI Type Descriptor'
PUBLIC	??_R3?$CDynamicPoolEx@VCNullDecorator@NEffectUpdateDecorator@@@@8 ; CDynamicPoolEx<NEffectUpdateDecorator::CNullDecorator>::`RTTI Class Hierarchy Descriptor'
PUBLIC	??_R2?$CDynamicPoolEx@VCNullDecorator@NEffectUpdateDecorator@@@@8 ; CDynamicPoolEx<NEffectUpdateDecorator::CNullDecorator>::`RTTI Base Class Array'
PUBLIC	??_R1A@?0A@EA@?$CDynamicPoolEx@VCNullDecorator@NEffectUpdateDecorator@@@@8 ; CDynamicPoolEx<NEffectUpdateDecorator::CNullDecorator>::`RTTI Base Class Descriptor at (0,-1,0,64)'
PUBLIC	??_R4?$CDynamicPoolEx@VCTextureAnimationCWDecorator@NEffectUpdateDecorator@@@@6B@ ; CDynamicPoolEx<NEffectUpdateDecorator::CTextureAnimationCWDecorator>::`RTTI Complete Object Locator'
PUBLIC	??_R0?AV?$CDynamicPoolEx@VCTextureAnimationCWDecorator@NEffectUpdateDecorator@@@@@8 ; CDynamicPoolEx<NEffectUpdateDecorator::CTextureAnimationCWDecorator> `RTTI Type Descriptor'
PUBLIC	??_R3?$CDynamicPoolEx@VCTextureAnimationCWDecorator@NEffectUpdateDecorator@@@@8 ; CDynamicPoolEx<NEffectUpdateDecorator::CTextureAnimationCWDecorator>::`RTTI Class Hierarchy Descriptor'
PUBLIC	??_R2?$CDynamicPoolEx@VCTextureAnimationCWDecorator@NEffectUpdateDecorator@@@@8 ; CDynamicPoolEx<NEffectUpdateDecorator::CTextureAnimationCWDecorator>::`RTTI Base Class Array'
PUBLIC	??_R1A@?0A@EA@?$CDynamicPoolEx@VCTextureAnimationCWDecorator@NEffectUpdateDecorator@@@@8 ; CDynamicPoolEx<NEffectUpdateDecorator::CTextureAnimationCWDecorator>::`RTTI Base Class Descriptor at (0,-1,0,64)'
PUBLIC	??_R4?$CDynamicPoolEx@VCTextureAnimationCCWDecorator@NEffectUpdateDecorator@@@@6B@ ; CDynamicPoolEx<NEffectUpdateDecorator::CTextureAnimationCCWDecorator>::`RTTI Complete Object Locator'
PUBLIC	??_R0?AV?$CDynamicPoolEx@VCTextureAnimationCCWDecorator@NEffectUpdateDecorator@@@@@8 ; CDynamicPoolEx<NEffectUpdateDecorator::CTextureAnimationCCWDecorator> `RTTI Type Descriptor'
PUBLIC	??_R3?$CDynamicPoolEx@VCTextureAnimationCCWDecorator@NEffectUpdateDecorator@@@@8 ; CDynamicPoolEx<NEffectUpdateDecorator::CTextureAnimationCCWDecorator>::`RTTI Class Hierarchy Descriptor'
PUBLIC	??_R2?$CDynamicPoolEx@VCTextureAnimationCCWDecorator@NEffectUpdateDecorator@@@@8 ; CDynamicPoolEx<NEffectUpdateDecorator::CTextureAnimationCCWDecorator>::`RTTI Base Class Array'
PUBLIC	??_R1A@?0A@EA@?$CDynamicPoolEx@VCTextureAnimationCCWDecorator@NEffectUpdateDecorator@@@@8 ; CDynamicPoolEx<NEffectUpdateDecorator::CTextureAnimationCCWDecorator>::`RTTI Base Class Descriptor at (0,-1,0,64)'
PUBLIC	??_R4?$CDynamicPoolEx@VCTextureAnimationRandomDecorator@NEffectUpdateDecorator@@@@6B@ ; CDynamicPoolEx<NEffectUpdateDecorator::CTextureAnimationRandomDecorator>::`RTTI Complete Object Locator'
PUBLIC	??_R0?AV?$CDynamicPoolEx@VCTextureAnimationRandomDecorator@NEffectUpdateDecorator@@@@@8 ; CDynamicPoolEx<NEffectUpdateDecorator::CTextureAnimationRandomDecorator> `RTTI Type Descriptor'
PUBLIC	??_R3?$CDynamicPoolEx@VCTextureAnimationRandomDecorator@NEffectUpdateDecorator@@@@8 ; CDynamicPoolEx<NEffectUpdateDecorator::CTextureAnimationRandomDecorator>::`RTTI Class Hierarchy Descriptor'
PUBLIC	??_R2?$CDynamicPoolEx@VCTextureAnimationRandomDecorator@NEffectUpdateDecorator@@@@8 ; CDynamicPoolEx<NEffectUpdateDecorator::CTextureAnimationRandomDecorator>::`RTTI Base Class Array'
PUBLIC	??_R1A@?0A@EA@?$CDynamicPoolEx@VCTextureAnimationRandomDecorator@NEffectUpdateDecorator@@@@8 ; CDynamicPoolEx<NEffectUpdateDecorator::CTextureAnimationRandomDecorator>::`RTTI Base Class Descriptor at (0,-1,0,64)'
PUBLIC	??_R4?$CDynamicPoolEx@VCAirResistanceDecorator@NEffectUpdateDecorator@@@@6B@ ; CDynamicPoolEx<NEffectUpdateDecorator::CAirResistanceDecorator>::`RTTI Complete Object Locator'
PUBLIC	??_R0?AV?$CDynamicPoolEx@VCAirResistanceDecorator@NEffectUpdateDecorator@@@@@8 ; CDynamicPoolEx<NEffectUpdateDecorator::CAirResistanceDecorator> `RTTI Type Descriptor'
PUBLIC	??_R3?$CDynamicPoolEx@VCAirResistanceDecorator@NEffectUpdateDecorator@@@@8 ; CDynamicPoolEx<NEffectUpdateDecorator::CAirResistanceDecorator>::`RTTI Class Hierarchy Descriptor'
PUBLIC	??_R2?$CDynamicPoolEx@VCAirResistanceDecorator@NEffectUpdateDecorator@@@@8 ; CDynamicPoolEx<NEffectUpdateDecorator::CAirResistanceDecorator>::`RTTI Base Class Array'
PUBLIC	??_R1A@?0A@EA@?$CDynamicPoolEx@VCAirResistanceDecorator@NEffectUpdateDecorator@@@@8 ; CDynamicPoolEx<NEffectUpdateDecorator::CAirResistanceDecorator>::`RTTI Base Class Descriptor at (0,-1,0,64)'
PUBLIC	??_R4?$CDynamicPoolEx@VCGravityDecorator@NEffectUpdateDecorator@@@@6B@ ; CDynamicPoolEx<NEffectUpdateDecorator::CGravityDecorator>::`RTTI Complete Object Locator'
PUBLIC	??_R0?AV?$CDynamicPoolEx@VCGravityDecorator@NEffectUpdateDecorator@@@@@8 ; CDynamicPoolEx<NEffectUpdateDecorator::CGravityDecorator> `RTTI Type Descriptor'
PUBLIC	??_R3?$CDynamicPoolEx@VCGravityDecorator@NEffectUpdateDecorator@@@@8 ; CDynamicPoolEx<NEffectUpdateDecorator::CGravityDecorator>::`RTTI Class Hierarchy Descriptor'
PUBLIC	??_R2?$CDynamicPoolEx@VCGravityDecorator@NEffectUpdateDecorator@@@@8 ; CDynamicPoolEx<NEffectUpdateDecorator::CGravityDecorator>::`RTTI Base Class Array'
PUBLIC	??_R1A@?0A@EA@?$CDynamicPoolEx@VCGravityDecorator@NEffectUpdateDecorator@@@@8 ; CDynamicPoolEx<NEffectUpdateDecorator::CGravityDecorator>::`RTTI Base Class Descriptor at (0,-1,0,64)'
PUBLIC	??_R4?$CDynamicPoolEx@VCRotationDecorator@NEffectUpdateDecorator@@@@6B@ ; CDynamicPoolEx<NEffectUpdateDecorator::CRotationDecorator>::`RTTI Complete Object Locator'
PUBLIC	??_R0?AV?$CDynamicPoolEx@VCRotationDecorator@NEffectUpdateDecorator@@@@@8 ; CDynamicPoolEx<NEffectUpdateDecorator::CRotationDecorator> `RTTI Type Descriptor'
PUBLIC	??_R3?$CDynamicPoolEx@VCRotationDecorator@NEffectUpdateDecorator@@@@8 ; CDynamicPoolEx<NEffectUpdateDecorator::CRotationDecorator>::`RTTI Class Hierarchy Descriptor'
PUBLIC	??_R2?$CDynamicPoolEx@VCRotationDecorator@NEffectUpdateDecorator@@@@8 ; CDynamicPoolEx<NEffectUpdateDecorator::CRotationDecorator>::`RTTI Base Class Array'
PUBLIC	??_R1A@?0A@EA@?$CDynamicPoolEx@VCRotationDecorator@NEffectUpdateDecorator@@@@8 ; CDynamicPoolEx<NEffectUpdateDecorator::CRotationDecorator>::`RTTI Base Class Descriptor at (0,-1,0,64)'
PUBLIC	??_7?$CDynamicPoolEx@VCNullDecorator@NEffectUpdateDecorator@@@@6B@ ; CDynamicPoolEx<NEffectUpdateDecorator::CNullDecorator>::`vftable'
PUBLIC	??_G?$CDynamicPoolEx@VCNullDecorator@NEffectUpdateDecorator@@@@UAEPAXI@Z ; CDynamicPoolEx<NEffectUpdateDecorator::CNullDecorator>::`scalar deleting destructor'
PUBLIC	??_7?$CDynamicPoolEx@VCHeaderDecorator@NEffectUpdateDecorator@@@@6B@ ; CDynamicPoolEx<NEffectUpdateDecorator::CHeaderDecorator>::`vftable'
PUBLIC	??_G?$CDynamicPoolEx@VCHeaderDecorator@NEffectUpdateDecorator@@@@UAEPAXI@Z ; CDynamicPoolEx<NEffectUpdateDecorator::CHeaderDecorator>::`scalar deleting destructor'
EXTRN	??_7type_info@@6B@:QWORD			; type_info::`vftable'
EXTRN	??_E?$CDynamicPoolEx@VCRotationDecorator@NEffectUpdateDecorator@@@@UAEPAXI@Z:PROC ; CDynamicPoolEx<NEffectUpdateDecorator::CRotationDecorator>::`vector deleting destructor'
EXTRN	??_E?$CDynamicPoolEx@VCGravityDecorator@NEffectUpdateDecorator@@@@UAEPAXI@Z:PROC ; CDynamicPoolEx<NEffectUpdateDecorator::CGravityDecorator>::`vector deleting destructor'
EXTRN	??_E?$CDynamicPoolEx@VCAirResistanceDecorator@NEffectUpdateDecorator@@@@UAEPAXI@Z:PROC ; CDynamicPoolEx<NEffectUpdateDecorator::CAirResistanceDecorator>::`vector deleting destructor'
EXTRN	??_E?$CDynamicPoolEx@VCTextureAnimationRandomDecorator@NEffectUpdateDecorator@@@@UAEPAXI@Z:PROC ; CDynamicPoolEx<NEffectUpdateDecorator::CTextureAnimationRandomDecorator>::`vector deleting destructor'
EXTRN	??_E?$CDynamicPoolEx@VCTextureAnimationCCWDecorator@NEffectUpdateDecorator@@@@UAEPAXI@Z:PROC ; CDynamicPoolEx<NEffectUpdateDecorator::CTextureAnimationCCWDecorator>::`vector deleting destructor'
EXTRN	??_E?$CDynamicPoolEx@VCTextureAnimationCWDecorator@NEffectUpdateDecorator@@@@UAEPAXI@Z:PROC ; CDynamicPoolEx<NEffectUpdateDecorator::CTextureAnimationCWDecorator>::`vector deleting destructor'
EXTRN	??_E?$CDynamicPoolEx@VCNullDecorator@NEffectUpdateDecorator@@@@UAEPAXI@Z:PROC ; CDynamicPoolEx<NEffectUpdateDecorator::CNullDecorator>::`vector deleting destructor'
EXTRN	??_E?$CDynamicPoolEx@VCHeaderDecorator@NEffectUpdateDecorator@@@@UAEPAXI@Z:PROC ; CDynamicPoolEx<NEffectUpdateDecorator::CHeaderDecorator>::`vector deleting destructor'
;	COMDAT ??_7?$CDynamicPoolEx@VCHeaderDecorator@NEffectUpdateDecorator@@@@6B@
CONST	SEGMENT
??_7?$CDynamicPoolEx@VCHeaderDecorator@NEffectUpdateDecorator@@@@6B@ DD FLAT:??_R4?$CDynamicPoolEx@VCHeaderDecorator@NEffectUpdateDecorator@@@@6B@ ; CDynamicPoolEx<NEffectUpdateDecorator::CHeaderDecorator>::`vftable'
	DD	FLAT:??_E?$CDynamicPoolEx@VCHeaderDecorator@NEffectUpdateDecorator@@@@UAEPAXI@Z
CONST	ENDS
;	COMDAT ??_7?$CDynamicPoolEx@VCNullDecorator@NEffectUpdateDecorator@@@@6B@
CONST	SEGMENT
??_7?$CDynamicPoolEx@VCNullDecorator@NEffectUpdateDecorator@@@@6B@ DD FLAT:??_R4?$CDynamicPoolEx@VCNullDecorator@NEffectUpdateDecorator@@@@6B@ ; CDynamicPoolEx<NEffectUpdateDecorator::CNullDecorator>::`vftable'
	DD	FLAT:??_E?$CDynamicPoolEx@VCNullDecorator@NEffectUpdateDecorator@@@@UAEPAXI@Z
CONST	ENDS
;	COMDAT ??_R1A@?0A@EA@?$CDynamicPoolEx@VCRotationDecorator@NEffectUpdateDecorator@@@@8
rdata$r	SEGMENT
??_R1A@?0A@EA@?$CDynamicPoolEx@VCRotationDecorator@NEffectUpdateDecorator@@@@8 DD FLAT:??_R0?AV?$CDynamicPoolEx@VCRotationDecorator@NEffectUpdateDecorator@@@@@8 ; CDynamicPoolEx<NEffectUpdateDecorator::CRotationDecorator>::`RTTI Base Class Descriptor at (0,-1,0,64)'
	DD	00H
	DD	00H
	DD	0ffffffffH
	DD	00H
	DD	040H
	DD	FLAT:??_R3?$CDynamicPoolEx@VCRotationDecorator@NEffectUpdateDecorator@@@@8
rdata$r	ENDS
;	COMDAT ??_R2?$CDynamicPoolEx@VCRotationDecorator@NEffectUpdateDecorator@@@@8
rdata$r	SEGMENT
??_R2?$CDynamicPoolEx@VCRotationDecorator@NEffectUpdateDecorator@@@@8 DD FLAT:??_R1A@?0A@EA@?$CDynamicPoolEx@VCRotationDecorator@NEffectUpdateDecorator@@@@8 ; CDynamicPoolEx<NEffectUpdateDecorator::CRotationDecorator>::`RTTI Base Class Array'
rdata$r	ENDS
;	COMDAT ??_R3?$CDynamicPoolEx@VCRotationDecorator@NEffectUpdateDecorator@@@@8
rdata$r	SEGMENT
??_R3?$CDynamicPoolEx@VCRotationDecorator@NEffectUpdateDecorator@@@@8 DD 00H ; CDynamicPoolEx<NEffectUpdateDecorator::CRotationDecorator>::`RTTI Class Hierarchy Descriptor'
	DD	00H
	DD	01H
	DD	FLAT:??_R2?$CDynamicPoolEx@VCRotationDecorator@NEffectUpdateDecorator@@@@8
rdata$r	ENDS
;	COMDAT ??_R0?AV?$CDynamicPoolEx@VCRotationDecorator@NEffectUpdateDecorator@@@@@8
data$rs	SEGMENT
??_R0?AV?$CDynamicPoolEx@VCRotationDecorator@NEffectUpdateDecorator@@@@@8 DD FLAT:??_7type_info@@6B@ ; CDynamicPoolEx<NEffectUpdateDecorator::CRotationDecorator> `RTTI Type Descriptor'
	DD	00H
	DB	'.?AV?$CDynamicPoolEx@VCRotationDecorator@NEffectUpdateDe'
	DB	'corator@@@@', 00H
data$rs	ENDS
;	COMDAT ??_R4?$CDynamicPoolEx@VCRotationDecorator@NEffectUpdateDecorator@@@@6B@
rdata$r	SEGMENT
??_R4?$CDynamicPoolEx@VCRotationDecorator@NEffectUpdateDecorator@@@@6B@ DD 00H ; CDynamicPoolEx<NEffectUpdateDecorator::CRotationDecorator>::`RTTI Complete Object Locator'
	DD	00H
	DD	00H
	DD	FLAT:??_R0?AV?$CDynamicPoolEx@VCRotationDecorator@NEffectUpdateDecorator@@@@@8
	DD	FLAT:??_R3?$CDynamicPoolEx@VCRotationDecorator@NEffectUpdateDecorator@@@@8
rdata$r	ENDS
;	COMDAT ??_R1A@?0A@EA@?$CDynamicPoolEx@VCGravityDecorator@NEffectUpdateDecorator@@@@8
rdata$r	SEGMENT
??_R1A@?0A@EA@?$CDynamicPoolEx@VCGravityDecorator@NEffectUpdateDecorator@@@@8 DD FLAT:??_R0?AV?$CDynamicPoolEx@VCGravityDecorator@NEffectUpdateDecorator@@@@@8 ; CDynamicPoolEx<NEffectUpdateDecorator::CGravityDecorator>::`RTTI Base Class Descriptor at (0,-1,0,64)'
	DD	00H
	DD	00H
	DD	0ffffffffH
	DD	00H
	DD	040H
	DD	FLAT:??_R3?$CDynamicPoolEx@VCGravityDecorator@NEffectUpdateDecorator@@@@8
rdata$r	ENDS
;	COMDAT ??_R2?$CDynamicPoolEx@VCGravityDecorator@NEffectUpdateDecorator@@@@8
rdata$r	SEGMENT
??_R2?$CDynamicPoolEx@VCGravityDecorator@NEffectUpdateDecorator@@@@8 DD FLAT:??_R1A@?0A@EA@?$CDynamicPoolEx@VCGravityDecorator@NEffectUpdateDecorator@@@@8 ; CDynamicPoolEx<NEffectUpdateDecorator::CGravityDecorator>::`RTTI Base Class Array'
rdata$r	ENDS
;	COMDAT ??_R3?$CDynamicPoolEx@VCGravityDecorator@NEffectUpdateDecorator@@@@8
rdata$r	SEGMENT
??_R3?$CDynamicPoolEx@VCGravityDecorator@NEffectUpdateDecorator@@@@8 DD 00H ; CDynamicPoolEx<NEffectUpdateDecorator::CGravityDecorator>::`RTTI Class Hierarchy Descriptor'
	DD	00H
	DD	01H
	DD	FLAT:??_R2?$CDynamicPoolEx@VCGravityDecorator@NEffectUpdateDecorator@@@@8
rdata$r	ENDS
;	COMDAT ??_R0?AV?$CDynamicPoolEx@VCGravityDecorator@NEffectUpdateDecorator@@@@@8
data$rs	SEGMENT
??_R0?AV?$CDynamicPoolEx@VCGravityDecorator@NEffectUpdateDecorator@@@@@8 DD FLAT:??_7type_info@@6B@ ; CDynamicPoolEx<NEffectUpdateDecorator::CGravityDecorator> `RTTI Type Descriptor'
	DD	00H
	DB	'.?AV?$CDynamicPoolEx@VCGravityDecorator@NEffectUpdateDec'
	DB	'orator@@@@', 00H
data$rs	ENDS
;	COMDAT ??_R4?$CDynamicPoolEx@VCGravityDecorator@NEffectUpdateDecorator@@@@6B@
rdata$r	SEGMENT
??_R4?$CDynamicPoolEx@VCGravityDecorator@NEffectUpdateDecorator@@@@6B@ DD 00H ; CDynamicPoolEx<NEffectUpdateDecorator::CGravityDecorator>::`RTTI Complete Object Locator'
	DD	00H
	DD	00H
	DD	FLAT:??_R0?AV?$CDynamicPoolEx@VCGravityDecorator@NEffectUpdateDecorator@@@@@8
	DD	FLAT:??_R3?$CDynamicPoolEx@VCGravityDecorator@NEffectUpdateDecorator@@@@8
rdata$r	ENDS
;	COMDAT ??_R1A@?0A@EA@?$CDynamicPoolEx@VCAirResistanceDecorator@NEffectUpdateDecorator@@@@8
rdata$r	SEGMENT
??_R1A@?0A@EA@?$CDynamicPoolEx@VCAirResistanceDecorator@NEffectUpdateDecorator@@@@8 DD FLAT:??_R0?AV?$CDynamicPoolEx@VCAirResistanceDecorator@NEffectUpdateDecorator@@@@@8 ; CDynamicPoolEx<NEffectUpdateDecorator::CAirResistanceDecorator>::`RTTI Base Class Descriptor at (0,-1,0,64)'
	DD	00H
	DD	00H
	DD	0ffffffffH
	DD	00H
	DD	040H
	DD	FLAT:??_R3?$CDynamicPoolEx@VCAirResistanceDecorator@NEffectUpdateDecorator@@@@8
rdata$r	ENDS
;	COMDAT ??_R2?$CDynamicPoolEx@VCAirResistanceDecorator@NEffectUpdateDecorator@@@@8
rdata$r	SEGMENT
??_R2?$CDynamicPoolEx@VCAirResistanceDecorator@NEffectUpdateDecorator@@@@8 DD FLAT:??_R1A@?0A@EA@?$CDynamicPoolEx@VCAirResistanceDecorator@NEffectUpdateDecorator@@@@8 ; CDynamicPoolEx<NEffectUpdateDecorator::CAirResistanceDecorator>::`RTTI Base Class Array'
rdata$r	ENDS
;	COMDAT ??_R3?$CDynamicPoolEx@VCAirResistanceDecorator@NEffectUpdateDecorator@@@@8
rdata$r	SEGMENT
??_R3?$CDynamicPoolEx@VCAirResistanceDecorator@NEffectUpdateDecorator@@@@8 DD 00H ; CDynamicPoolEx<NEffectUpdateDecorator::CAirResistanceDecorator>::`RTTI Class Hierarchy Descriptor'
	DD	00H
	DD	01H
	DD	FLAT:??_R2?$CDynamicPoolEx@VCAirResistanceDecorator@NEffectUpdateDecorator@@@@8
rdata$r	ENDS
;	COMDAT ??_R0?AV?$CDynamicPoolEx@VCAirResistanceDecorator@NEffectUpdateDecorator@@@@@8
data$rs	SEGMENT
??_R0?AV?$CDynamicPoolEx@VCAirResistanceDecorator@NEffectUpdateDecorator@@@@@8 DD FLAT:??_7type_info@@6B@ ; CDynamicPoolEx<NEffectUpdateDecorator::CAirResistanceDecorator> `RTTI Type Descriptor'
	DD	00H
	DB	'.?AV?$CDynamicPoolEx@VCAirResistanceDecorator@NEffectUpd'
	DB	'ateDecorator@@@@', 00H
data$rs	ENDS
;	COMDAT ??_R4?$CDynamicPoolEx@VCAirResistanceDecorator@NEffectUpdateDecorator@@@@6B@
rdata$r	SEGMENT
??_R4?$CDynamicPoolEx@VCAirResistanceDecorator@NEffectUpdateDecorator@@@@6B@ DD 00H ; CDynamicPoolEx<NEffectUpdateDecorator::CAirResistanceDecorator>::`RTTI Complete Object Locator'
	DD	00H
	DD	00H
	DD	FLAT:??_R0?AV?$CDynamicPoolEx@VCAirResistanceDecorator@NEffectUpdateDecorator@@@@@8
	DD	FLAT:??_R3?$CDynamicPoolEx@VCAirResistanceDecorator@NEffectUpdateDecorator@@@@8
rdata$r	ENDS
;	COMDAT ??_R1A@?0A@EA@?$CDynamicPoolEx@VCTextureAnimationRandomDecorator@NEffectUpdateDecorator@@@@8
rdata$r	SEGMENT
??_R1A@?0A@EA@?$CDynamicPoolEx@VCTextureAnimationRandomDecorator@NEffectUpdateDecorator@@@@8 DD FLAT:??_R0?AV?$CDynamicPoolEx@VCTextureAnimationRandomDecorator@NEffectUpdateDecorator@@@@@8 ; CDynamicPoolEx<NEffectUpdateDecorator::CTextureAnimationRandomDecorator>::`RTTI Base Class Descriptor at (0,-1,0,64)'
	DD	00H
	DD	00H
	DD	0ffffffffH
	DD	00H
	DD	040H
	DD	FLAT:??_R3?$CDynamicPoolEx@VCTextureAnimationRandomDecorator@NEffectUpdateDecorator@@@@8
rdata$r	ENDS
;	COMDAT ??_R2?$CDynamicPoolEx@VCTextureAnimationRandomDecorator@NEffectUpdateDecorator@@@@8
rdata$r	SEGMENT
??_R2?$CDynamicPoolEx@VCTextureAnimationRandomDecorator@NEffectUpdateDecorator@@@@8 DD FLAT:??_R1A@?0A@EA@?$CDynamicPoolEx@VCTextureAnimationRandomDecorator@NEffectUpdateDecorator@@@@8 ; CDynamicPoolEx<NEffectUpdateDecorator::CTextureAnimationRandomDecorator>::`RTTI Base Class Array'
rdata$r	ENDS
;	COMDAT ??_R3?$CDynamicPoolEx@VCTextureAnimationRandomDecorator@NEffectUpdateDecorator@@@@8
rdata$r	SEGMENT
??_R3?$CDynamicPoolEx@VCTextureAnimationRandomDecorator@NEffectUpdateDecorator@@@@8 DD 00H ; CDynamicPoolEx<NEffectUpdateDecorator::CTextureAnimationRandomDecorator>::`RTTI Class Hierarchy Descriptor'
	DD	00H
	DD	01H
	DD	FLAT:??_R2?$CDynamicPoolEx@VCTextureAnimationRandomDecorator@NEffectUpdateDecorator@@@@8
rdata$r	ENDS
;	COMDAT ??_R0?AV?$CDynamicPoolEx@VCTextureAnimationRandomDecorator@NEffectUpdateDecorator@@@@@8
data$rs	SEGMENT
??_R0?AV?$CDynamicPoolEx@VCTextureAnimationRandomDecorator@NEffectUpdateDecorator@@@@@8 DD FLAT:??_7type_info@@6B@ ; CDynamicPoolEx<NEffectUpdateDecorator::CTextureAnimationRandomDecorator> `RTTI Type Descriptor'
	DD	00H
	DB	'.?AV?$CDynamicPoolEx@VCTextureAnimationRandomDecorator@N'
	DB	'EffectUpdateDecorator@@@@', 00H
data$rs	ENDS
;	COMDAT ??_R4?$CDynamicPoolEx@VCTextureAnimationRandomDecorator@NEffectUpdateDecorator@@@@6B@
rdata$r	SEGMENT
??_R4?$CDynamicPoolEx@VCTextureAnimationRandomDecorator@NEffectUpdateDecorator@@@@6B@ DD 00H ; CDynamicPoolEx<NEffectUpdateDecorator::CTextureAnimationRandomDecorator>::`RTTI Complete Object Locator'
	DD	00H
	DD	00H
	DD	FLAT:??_R0?AV?$CDynamicPoolEx@VCTextureAnimationRandomDecorator@NEffectUpdateDecorator@@@@@8
	DD	FLAT:??_R3?$CDynamicPoolEx@VCTextureAnimationRandomDecorator@NEffectUpdateDecorator@@@@8
rdata$r	ENDS
;	COMDAT ??_R1A@?0A@EA@?$CDynamicPoolEx@VCTextureAnimationCCWDecorator@NEffectUpdateDecorator@@@@8
rdata$r	SEGMENT
??_R1A@?0A@EA@?$CDynamicPoolEx@VCTextureAnimationCCWDecorator@NEffectUpdateDecorator@@@@8 DD FLAT:??_R0?AV?$CDynamicPoolEx@VCTextureAnimationCCWDecorator@NEffectUpdateDecorator@@@@@8 ; CDynamicPoolEx<NEffectUpdateDecorator::CTextureAnimationCCWDecorator>::`RTTI Base Class Descriptor at (0,-1,0,64)'
	DD	00H
	DD	00H
	DD	0ffffffffH
	DD	00H
	DD	040H
	DD	FLAT:??_R3?$CDynamicPoolEx@VCTextureAnimationCCWDecorator@NEffectUpdateDecorator@@@@8
rdata$r	ENDS
;	COMDAT ??_R2?$CDynamicPoolEx@VCTextureAnimationCCWDecorator@NEffectUpdateDecorator@@@@8
rdata$r	SEGMENT
??_R2?$CDynamicPoolEx@VCTextureAnimationCCWDecorator@NEffectUpdateDecorator@@@@8 DD FLAT:??_R1A@?0A@EA@?$CDynamicPoolEx@VCTextureAnimationCCWDecorator@NEffectUpdateDecorator@@@@8 ; CDynamicPoolEx<NEffectUpdateDecorator::CTextureAnimationCCWDecorator>::`RTTI Base Class Array'
rdata$r	ENDS
;	COMDAT ??_R3?$CDynamicPoolEx@VCTextureAnimationCCWDecorator@NEffectUpdateDecorator@@@@8
rdata$r	SEGMENT
??_R3?$CDynamicPoolEx@VCTextureAnimationCCWDecorator@NEffectUpdateDecorator@@@@8 DD 00H ; CDynamicPoolEx<NEffectUpdateDecorator::CTextureAnimationCCWDecorator>::`RTTI Class Hierarchy Descriptor'
	DD	00H
	DD	01H
	DD	FLAT:??_R2?$CDynamicPoolEx@VCTextureAnimationCCWDecorator@NEffectUpdateDecorator@@@@8
rdata$r	ENDS
;	COMDAT ??_R0?AV?$CDynamicPoolEx@VCTextureAnimationCCWDecorator@NEffectUpdateDecorator@@@@@8
data$rs	SEGMENT
??_R0?AV?$CDynamicPoolEx@VCTextureAnimationCCWDecorator@NEffectUpdateDecorator@@@@@8 DD FLAT:??_7type_info@@6B@ ; CDynamicPoolEx<NEffectUpdateDecorator::CTextureAnimationCCWDecorator> `RTTI Type Descriptor'
	DD	00H
	DB	'.?AV?$CDynamicPoolEx@VCTextureAnimationCCWDecorator@NEff'
	DB	'ectUpdateDecorator@@@@', 00H
data$rs	ENDS
;	COMDAT ??_R4?$CDynamicPoolEx@VCTextureAnimationCCWDecorator@NEffectUpdateDecorator@@@@6B@
rdata$r	SEGMENT
??_R4?$CDynamicPoolEx@VCTextureAnimationCCWDecorator@NEffectUpdateDecorator@@@@6B@ DD 00H ; CDynamicPoolEx<NEffectUpdateDecorator::CTextureAnimationCCWDecorator>::`RTTI Complete Object Locator'
	DD	00H
	DD	00H
	DD	FLAT:??_R0?AV?$CDynamicPoolEx@VCTextureAnimationCCWDecorator@NEffectUpdateDecorator@@@@@8
	DD	FLAT:??_R3?$CDynamicPoolEx@VCTextureAnimationCCWDecorator@NEffectUpdateDecorator@@@@8
rdata$r	ENDS
;	COMDAT ??_R1A@?0A@EA@?$CDynamicPoolEx@VCTextureAnimationCWDecorator@NEffectUpdateDecorator@@@@8
rdata$r	SEGMENT
??_R1A@?0A@EA@?$CDynamicPoolEx@VCTextureAnimationCWDecorator@NEffectUpdateDecorator@@@@8 DD FLAT:??_R0?AV?$CDynamicPoolEx@VCTextureAnimationCWDecorator@NEffectUpdateDecorator@@@@@8 ; CDynamicPoolEx<NEffectUpdateDecorator::CTextureAnimationCWDecorator>::`RTTI Base Class Descriptor at (0,-1,0,64)'
	DD	00H
	DD	00H
	DD	0ffffffffH
	DD	00H
	DD	040H
	DD	FLAT:??_R3?$CDynamicPoolEx@VCTextureAnimationCWDecorator@NEffectUpdateDecorator@@@@8
rdata$r	ENDS
;	COMDAT ??_R2?$CDynamicPoolEx@VCTextureAnimationCWDecorator@NEffectUpdateDecorator@@@@8
rdata$r	SEGMENT
??_R2?$CDynamicPoolEx@VCTextureAnimationCWDecorator@NEffectUpdateDecorator@@@@8 DD FLAT:??_R1A@?0A@EA@?$CDynamicPoolEx@VCTextureAnimationCWDecorator@NEffectUpdateDecorator@@@@8 ; CDynamicPoolEx<NEffectUpdateDecorator::CTextureAnimationCWDecorator>::`RTTI Base Class Array'
rdata$r	ENDS
;	COMDAT ??_R3?$CDynamicPoolEx@VCTextureAnimationCWDecorator@NEffectUpdateDecorator@@@@8
rdata$r	SEGMENT
??_R3?$CDynamicPoolEx@VCTextureAnimationCWDecorator@NEffectUpdateDecorator@@@@8 DD 00H ; CDynamicPoolEx<NEffectUpdateDecorator::CTextureAnimationCWDecorator>::`RTTI Class Hierarchy Descriptor'
	DD	00H
	DD	01H
	DD	FLAT:??_R2?$CDynamicPoolEx@VCTextureAnimationCWDecorator@NEffectUpdateDecorator@@@@8
rdata$r	ENDS
;	COMDAT ??_R0?AV?$CDynamicPoolEx@VCTextureAnimationCWDecorator@NEffectUpdateDecorator@@@@@8
data$rs	SEGMENT
??_R0?AV?$CDynamicPoolEx@VCTextureAnimationCWDecorator@NEffectUpdateDecorator@@@@@8 DD FLAT:??_7type_info@@6B@ ; CDynamicPoolEx<NEffectUpdateDecorator::CTextureAnimationCWDecorator> `RTTI Type Descriptor'
	DD	00H
	DB	'.?AV?$CDynamicPoolEx@VCTextureAnimationCWDecorator@NEffe'
	DB	'ctUpdateDecorator@@@@', 00H
data$rs	ENDS
;	COMDAT ??_R4?$CDynamicPoolEx@VCTextureAnimationCWDecorator@NEffectUpdateDecorator@@@@6B@
rdata$r	SEGMENT
??_R4?$CDynamicPoolEx@VCTextureAnimationCWDecorator@NEffectUpdateDecorator@@@@6B@ DD 00H ; CDynamicPoolEx<NEffectUpdateDecorator::CTextureAnimationCWDecorator>::`RTTI Complete Object Locator'
	DD	00H
	DD	00H
	DD	FLAT:??_R0?AV?$CDynamicPoolEx@VCTextureAnimationCWDecorator@NEffectUpdateDecorator@@@@@8
	DD	FLAT:??_R3?$CDynamicPoolEx@VCTextureAnimationCWDecorator@NEffectUpdateDecorator@@@@8
rdata$r	ENDS
;	COMDAT ??_R1A@?0A@EA@?$CDynamicPoolEx@VCNullDecorator@NEffectUpdateDecorator@@@@8
rdata$r	SEGMENT
??_R1A@?0A@EA@?$CDynamicPoolEx@VCNullDecorator@NEffectUpdateDecorator@@@@8 DD FLAT:??_R0?AV?$CDynamicPoolEx@VCNullDecorator@NEffectUpdateDecorator@@@@@8 ; CDynamicPoolEx<NEffectUpdateDecorator::CNullDecorator>::`RTTI Base Class Descriptor at (0,-1,0,64)'
	DD	00H
	DD	00H
	DD	0ffffffffH
	DD	00H
	DD	040H
	DD	FLAT:??_R3?$CDynamicPoolEx@VCNullDecorator@NEffectUpdateDecorator@@@@8
rdata$r	ENDS
;	COMDAT ??_R2?$CDynamicPoolEx@VCNullDecorator@NEffectUpdateDecorator@@@@8
rdata$r	SEGMENT
??_R2?$CDynamicPoolEx@VCNullDecorator@NEffectUpdateDecorator@@@@8 DD FLAT:??_R1A@?0A@EA@?$CDynamicPoolEx@VCNullDecorator@NEffectUpdateDecorator@@@@8 ; CDynamicPoolEx<NEffectUpdateDecorator::CNullDecorator>::`RTTI Base Class Array'
rdata$r	ENDS
;	COMDAT ??_R3?$CDynamicPoolEx@VCNullDecorator@NEffectUpdateDecorator@@@@8
rdata$r	SEGMENT
??_R3?$CDynamicPoolEx@VCNullDecorator@NEffectUpdateDecorator@@@@8 DD 00H ; CDynamicPoolEx<NEffectUpdateDecorator::CNullDecorator>::`RTTI Class Hierarchy Descriptor'
	DD	00H
	DD	01H
	DD	FLAT:??_R2?$CDynamicPoolEx@VCNullDecorator@NEffectUpdateDecorator@@@@8
rdata$r	ENDS
;	COMDAT ??_R0?AV?$CDynamicPoolEx@VCNullDecorator@NEffectUpdateDecorator@@@@@8
data$rs	SEGMENT
??_R0?AV?$CDynamicPoolEx@VCNullDecorator@NEffectUpdateDecorator@@@@@8 DD FLAT:??_7type_info@@6B@ ; CDynamicPoolEx<NEffectUpdateDecorator::CNullDecorator> `RTTI Type Descriptor'
	DD	00H
	DB	'.?AV?$CDynamicPoolEx@VCNullDecorator@NEffectUpdateDecora'
	DB	'tor@@@@', 00H
data$rs	ENDS
;	COMDAT ??_R4?$CDynamicPoolEx@VCNullDecorator@NEffectUpdateDecorator@@@@6B@
rdata$r	SEGMENT
??_R4?$CDynamicPoolEx@VCNullDecorator@NEffectUpdateDecorator@@@@6B@ DD 00H ; CDynamicPoolEx<NEffectUpdateDecorator::CNullDecorator>::`RTTI Complete Object Locator'
	DD	00H
	DD	00H
	DD	FLAT:??_R0?AV?$CDynamicPoolEx@VCNullDecorator@NEffectUpdateDecorator@@@@@8
	DD	FLAT:??_R3?$CDynamicPoolEx@VCNullDecorator@NEffectUpdateDecorator@@@@8
rdata$r	ENDS
;	COMDAT ??_R1A@?0A@EA@?$CDynamicPoolEx@VCHeaderDecorator@NEffectUpdateDecorator@@@@8
rdata$r	SEGMENT
??_R1A@?0A@EA@?$CDynamicPoolEx@VCHeaderDecorator@NEffectUpdateDecorator@@@@8 DD FLAT:??_R0?AV?$CDynamicPoolEx@VCHeaderDecorator@NEffectUpdateDecorator@@@@@8 ; CDynamicPoolEx<NEffectUpdateDecorator::CHeaderDecorator>::`RTTI Base Class Descriptor at (0,-1,0,64)'
	DD	00H
	DD	00H
	DD	0ffffffffH
	DD	00H
	DD	040H
	DD	FLAT:??_R3?$CDynamicPoolEx@VCHeaderDecorator@NEffectUpdateDecorator@@@@8
rdata$r	ENDS
;	COMDAT ??_R2?$CDynamicPoolEx@VCHeaderDecorator@NEffectUpdateDecorator@@@@8
rdata$r	SEGMENT
??_R2?$CDynamicPoolEx@VCHeaderDecorator@NEffectUpdateDecorator@@@@8 DD FLAT:??_R1A@?0A@EA@?$CDynamicPoolEx@VCHeaderDecorator@NEffectUpdateDecorator@@@@8 ; CDynamicPoolEx<NEffectUpdateDecorator::CHeaderDecorator>::`RTTI Base Class Array'
rdata$r	ENDS
;	COMDAT ??_R3?$CDynamicPoolEx@VCHeaderDecorator@NEffectUpdateDecorator@@@@8
rdata$r	SEGMENT
??_R3?$CDynamicPoolEx@VCHeaderDecorator@NEffectUpdateDecorator@@@@8 DD 00H ; CDynamicPoolEx<NEffectUpdateDecorator::CHeaderDecorator>::`RTTI Class Hierarchy Descriptor'
	DD	00H
	DD	01H
	DD	FLAT:??_R2?$CDynamicPoolEx@VCHeaderDecorator@NEffectUpdateDecorator@@@@8
rdata$r	ENDS
;	COMDAT ??_R0?AV?$CDynamicPoolEx@VCHeaderDecorator@NEffectUpdateDecorator@@@@@8
data$rs	SEGMENT
??_R0?AV?$CDynamicPoolEx@VCHeaderDecorator@NEffectUpdateDecorator@@@@@8 DD FLAT:??_7type_info@@6B@ ; CDynamicPoolEx<NEffectUpdateDecorator::CHeaderDecorator> `RTTI Type Descriptor'
	DD	00H
	DB	'.?AV?$CDynamicPoolEx@VCHeaderDecorator@NEffectUpdateDeco'
	DB	'rator@@@@', 00H
data$rs	ENDS
;	COMDAT ??_R4?$CDynamicPoolEx@VCHeaderDecorator@NEffectUpdateDecorator@@@@6B@
rdata$r	SEGMENT
??_R4?$CDynamicPoolEx@VCHeaderDecorator@NEffectUpdateDecorator@@@@6B@ DD 00H ; CDynamicPoolEx<NEffectUpdateDecorator::CHeaderDecorator>::`RTTI Complete Object Locator'
	DD	00H
	DD	00H
	DD	FLAT:??_R0?AV?$CDynamicPoolEx@VCHeaderDecorator@NEffectUpdateDecorator@@@@@8
	DD	FLAT:??_R3?$CDynamicPoolEx@VCHeaderDecorator@NEffectUpdateDecorator@@@@8
rdata$r	ENDS
;	COMDAT ??_7?$CDynamicPoolEx@VCTextureAnimationCWDecorator@NEffectUpdateDecorator@@@@6B@
CONST	SEGMENT
??_7?$CDynamicPoolEx@VCTextureAnimationCWDecorator@NEffectUpdateDecorator@@@@6B@ DD FLAT:??_R4?$CDynamicPoolEx@VCTextureAnimationCWDecorator@NEffectUpdateDecorator@@@@6B@ ; CDynamicPoolEx<NEffectUpdateDecorator::CTextureAnimationCWDecorator>::`vftable'
	DD	FLAT:??_E?$CDynamicPoolEx@VCTextureAnimationCWDecorator@NEffectUpdateDecorator@@@@UAEPAXI@Z
CONST	ENDS
;	COMDAT ??_7?$CDynamicPoolEx@VCTextureAnimationCCWDecorator@NEffectUpdateDecorator@@@@6B@
CONST	SEGMENT
??_7?$CDynamicPoolEx@VCTextureAnimationCCWDecorator@NEffectUpdateDecorator@@@@6B@ DD FLAT:??_R4?$CDynamicPoolEx@VCTextureAnimationCCWDecorator@NEffectUpdateDecorator@@@@6B@ ; CDynamicPoolEx<NEffectUpdateDecorator::CTextureAnimationCCWDecorator>::`vftable'
	DD	FLAT:??_E?$CDynamicPoolEx@VCTextureAnimationCCWDecorator@NEffectUpdateDecorator@@@@UAEPAXI@Z
CONST	ENDS
;	COMDAT ??_7?$CDynamicPoolEx@VCTextureAnimationRandomDecorator@NEffectUpdateDecorator@@@@6B@
CONST	SEGMENT
??_7?$CDynamicPoolEx@VCTextureAnimationRandomDecorator@NEffectUpdateDecorator@@@@6B@ DD FLAT:??_R4?$CDynamicPoolEx@VCTextureAnimationRandomDecorator@NEffectUpdateDecorator@@@@6B@ ; CDynamicPoolEx<NEffectUpdateDecorator::CTextureAnimationRandomDecorator>::`vftable'
	DD	FLAT:??_E?$CDynamicPoolEx@VCTextureAnimationRandomDecorator@NEffectUpdateDecorator@@@@UAEPAXI@Z
CONST	ENDS
;	COMDAT ??_7?$CDynamicPoolEx@VCAirResistanceDecorator@NEffectUpdateDecorator@@@@6B@
CONST	SEGMENT
??_7?$CDynamicPoolEx@VCAirResistanceDecorator@NEffectUpdateDecorator@@@@6B@ DD FLAT:??_R4?$CDynamicPoolEx@VCAirResistanceDecorator@NEffectUpdateDecorator@@@@6B@ ; CDynamicPoolEx<NEffectUpdateDecorator::CAirResistanceDecorator>::`vftable'
	DD	FLAT:??_E?$CDynamicPoolEx@VCAirResistanceDecorator@NEffectUpdateDecorator@@@@UAEPAXI@Z
CONST	ENDS
;	COMDAT ??_7?$CDynamicPoolEx@VCGravityDecorator@NEffectUpdateDecorator@@@@6B@
CONST	SEGMENT
??_7?$CDynamicPoolEx@VCGravityDecorator@NEffectUpdateDecorator@@@@6B@ DD FLAT:??_R4?$CDynamicPoolEx@VCGravityDecorator@NEffectUpdateDecorator@@@@6B@ ; CDynamicPoolEx<NEffectUpdateDecorator::CGravityDecorator>::`vftable'
	DD	FLAT:??_E?$CDynamicPoolEx@VCGravityDecorator@NEffectUpdateDecorator@@@@UAEPAXI@Z
CONST	ENDS
;	COMDAT ??_7?$CDynamicPoolEx@VCRotationDecorator@NEffectUpdateDecorator@@@@6B@
CONST	SEGMENT
??_7?$CDynamicPoolEx@VCRotationDecorator@NEffectUpdateDecorator@@@@6B@ DD FLAT:??_R4?$CDynamicPoolEx@VCRotationDecorator@NEffectUpdateDecorator@@@@6B@ ; CDynamicPoolEx<NEffectUpdateDecorator::CRotationDecorator>::`vftable'
	DD	FLAT:??_E?$CDynamicPoolEx@VCRotationDecorator@NEffectUpdateDecorator@@@@UAEPAXI@Z
CONST	ENDS
PUBLIC	??_H@YGXPAXIIP6EPAX0@Z@Z			; `vector constructor iterator'
PUBLIC	?__empty_global_delete@@YAXPAX@Z		; __empty_global_delete
PUBLIC	?__empty_global_delete@@YAXPAXI@Z		; __empty_global_delete
PUBLIC	??0exception@std@@QAE@ABV01@@Z			; std::exception::exception
PUBLIC	??1exception@std@@UAE@XZ			; std::exception::~exception
PUBLIC	?what@exception@std@@UBEPBDXZ			; std::exception::what
PUBLIC	??_Gexception@std@@UAEPAXI@Z			; std::exception::`scalar deleting destructor'
PUBLIC	??0bad_alloc@std@@QAE@ABV01@@Z			; std::bad_alloc::bad_alloc
PUBLIC	??_Gbad_alloc@std@@UAEPAXI@Z			; std::bad_alloc::`scalar deleting destructor'
PUBLIC	??0bad_array_new_length@std@@QAE@XZ		; std::bad_array_new_length::bad_array_new_length
PUBLIC	??1bad_array_new_length@std@@UAE@XZ		; std::bad_array_new_length::~bad_array_new_length
PUBLIC	??0bad_array_new_length@std@@QAE@ABV01@@Z	; std::bad_array_new_length::bad_array_new_length
PUBLIC	??_Gbad_array_new_length@std@@UAEPAXI@Z		; std::bad_array_new_length::`scalar deleting destructor'
PUBLIC	?_Throw_bad_array_new_length@std@@YAXXZ		; std::_Throw_bad_array_new_length
PUBLIC	?_Xlen_string@std@@YAXXZ			; std::_Xlen_string
PUBLIC	?_Xran@?$_String_val@U?$_Simple_types@D@std@@@std@@SAXXZ ; std::_String_val<std::_Simple_types<char> >::_Xran
PUBLIC	??1?$basic_string@DU?$char_traits@D@std@@V?$allocator@D@2@@std@@QAE@XZ ; std::basic_string<char,std::char_traits<char>,std::allocator<char> >::~basic_string<char,std::char_traits<char>,std::allocator<char> >
PUBLIC	?assign@?$basic_string@DU?$char_traits@D@std@@V?$allocator@D@2@@std@@QAEAAV12@QBDI@Z ; std::basic_string<char,std::char_traits<char>,std::allocator<char> >::assign
PUBLIC	?_Xrange@?$vector@V?$basic_string@DU?$char_traits@D@std@@V?$allocator@D@2@@std@@V?$allocator@V?$basic_string@DU?$char_traits@D@std@@V?$allocator@D@2@@std@@@2@@std@@CAXXZ ; std::vector<std::basic_string<char,std::char_traits<char>,std::allocator<char> >,std::allocator<std::basic_string<char,std::char_traits<char>,std::allocator<char> > > >::_Xrange
PUBLIC	??$_Destroy_in_place@PAD@std@@YAXAAPAD@Z	; std::_Destroy_in_place<char *>
PUBLIC	??$_Construct_in_place@PADABQAD@std@@YAXAAPADABQAD@Z ; std::_Construct_in_place<char *,char * const &>
PUBLIC	??$_Deallocate@$07$0A@@std@@YAXPAXI@Z		; std::_Deallocate<8,0>
PUBLIC	??$_Allocate@$07U_Default_allocate_traits@std@@$0A@@std@@YAPAXI@Z ; std::_Allocate<8,std::_Default_allocate_traits,0>
PUBLIC	??$_Allocate_manually_vector_aligned@U_Default_allocate_traits@std@@@std@@YAPAXI@Z ; std::_Allocate_manually_vector_aligned<std::_Default_allocate_traits>
PUBLIC	?LoadRaceData@CRaceData@@QAEHPBD@Z		; CRaceData::LoadRaceData
PUBLIC	??$?HDU?$char_traits@D@std@@V?$allocator@D@1@@std@@YA?AV?$basic_string@DU?$char_traits@D@std@@V?$allocator@D@2@@0@ABV10@0@Z ; std::operator+<char,std::char_traits<char>,std::allocator<char> >
PUBLIC	??1?$CDynamicPoolEx@VCRotationDecorator@NEffectUpdateDecorator@@@@UAE@XZ ; CDynamicPoolEx<NEffectUpdateDecorator::CRotationDecorator>::~CDynamicPoolEx<NEffectUpdateDecorator::CRotationDecorator>
PUBLIC	?Delete@?$CDynamicPoolEx@VCRotationDecorator@NEffectUpdateDecorator@@@@KAXPAVCRotationDecorator@NEffectUpdateDecorator@@@Z ; CDynamicPoolEx<NEffectUpdateDecorator::CRotationDecorator>::Delete
PUBLIC	??1?$CDynamicPoolEx@VCGravityDecorator@NEffectUpdateDecorator@@@@UAE@XZ ; CDynamicPoolEx<NEffectUpdateDecorator::CGravityDecorator>::~CDynamicPoolEx<NEffectUpdateDecorator::CGravityDecorator>
PUBLIC	?Delete@?$CDynamicPoolEx@VCGravityDecorator@NEffectUpdateDecorator@@@@KAXPAVCGravityDecorator@NEffectUpdateDecorator@@@Z ; CDynamicPoolEx<NEffectUpdateDecorator::CGravityDecorator>::Delete
PUBLIC	??1?$CDynamicPoolEx@VCAirResistanceDecorator@NEffectUpdateDecorator@@@@UAE@XZ ; CDynamicPoolEx<NEffectUpdateDecorator::CAirResistanceDecorator>::~CDynamicPoolEx<NEffectUpdateDecorator::CAirResistanceDecorator>
PUBLIC	?Delete@?$CDynamicPoolEx@VCAirResistanceDecorator@NEffectUpdateDecorator@@@@KAXPAVCAirResistanceDecorator@NEffectUpdateDecorator@@@Z ; CDynamicPoolEx<NEffectUpdateDecorator::CAirResistanceDecorator>::Delete
PUBLIC	??1?$CDynamicPoolEx@VCTextureAnimationRandomDecorator@NEffectUpdateDecorator@@@@UAE@XZ ; CDynamicPoolEx<NEffectUpdateDecorator::CTextureAnimationRandomDecorator>::~CDynamicPoolEx<NEffectUpdateDecorator::CTextureAnimationRandomDecorator>
PUBLIC	?Delete@?$CDynamicPoolEx@VCTextureAnimationRandomDecorator@NEffectUpdateDecorator@@@@KAXPAVCTextureAnimationRandomDecorator@NEffectUpdateDecorator@@@Z ; CDynamicPoolEx<NEffectUpdateDecorator::CTextureAnimationRandomDecorator>::Delete
PUBLIC	??1?$CDynamicPoolEx@VCTextureAnimationCCWDecorator@NEffectUpdateDecorator@@@@UAE@XZ ; CDynamicPoolEx<NEffectUpdateDecorator::CTextureAnimationCCWDecorator>::~CDynamicPoolEx<NEffectUpdateDecorator::CTextureAnimationCCWDecorator>
PUBLIC	?Delete@?$CDynamicPoolEx@VCTextureAnimationCCWDecorator@NEffectUpdateDecorator@@@@KAXPAVCTextureAnimationCCWDecorator@NEffectUpdateDecorator@@@Z ; CDynamicPoolEx<NEffectUpdateDecorator::CTextureAnimationCCWDecorator>::Delete
PUBLIC	??1?$CDynamicPoolEx@VCTextureAnimationCWDecorator@NEffectUpdateDecorator@@@@UAE@XZ ; CDynamicPoolEx<NEffectUpdateDecorator::CTextureAnimationCWDecorator>::~CDynamicPoolEx<NEffectUpdateDecorator::CTextureAnimationCWDecorator>
PUBLIC	?Delete@?$CDynamicPoolEx@VCTextureAnimationCWDecorator@NEffectUpdateDecorator@@@@KAXPAVCTextureAnimationCWDecorator@NEffectUpdateDecorator@@@Z ; CDynamicPoolEx<NEffectUpdateDecorator::CTextureAnimationCWDecorator>::Delete
PUBLIC	??1?$CDynamicPoolEx@VCNullDecorator@NEffectUpdateDecorator@@@@UAE@XZ ; CDynamicPoolEx<NEffectUpdateDecorator::CNullDecorator>::~CDynamicPoolEx<NEffectUpdateDecorator::CNullDecorator>
PUBLIC	?Delete@?$CDynamicPoolEx@VCNullDecorator@NEffectUpdateDecorator@@@@KAXPAVCNullDecorator@NEffectUpdateDecorator@@@Z ; CDynamicPoolEx<NEffectUpdateDecorator::CNullDecorator>::Delete
PUBLIC	??1?$CDynamicPoolEx@VCHeaderDecorator@NEffectUpdateDecorator@@@@UAE@XZ ; CDynamicPoolEx<NEffectUpdateDecorator::CHeaderDecorator>::~CDynamicPoolEx<NEffectUpdateDecorator::CHeaderDecorator>
PUBLIC	?Delete@?$CDynamicPoolEx@VCHeaderDecorator@NEffectUpdateDecorator@@@@KAXPAVCHeaderDecorator@NEffectUpdateDecorator@@@Z ; CDynamicPoolEx<NEffectUpdateDecorator::CHeaderDecorator>::Delete
PUBLIC	??$_Destroy_range@V?$allocator@PAVCHeaderDecorator@NEffectUpdateDecorator@@@std@@@std@@YAXPAPAVCHeaderDecorator@NEffectUpdateDecorator@@QAPAV12@AAV?$allocator@PAVCHeaderDecorator@NEffectUpdateDecorator@@@0@@Z ; std::_Destroy_range<std::allocator<NEffectUpdateDecorator::CHeaderDecorator *> >
PUBLIC	??$_Destroy_range@V?$allocator@PAVCNullDecorator@NEffectUpdateDecorator@@@std@@@std@@YAXPAPAVCNullDecorator@NEffectUpdateDecorator@@QAPAV12@AAV?$allocator@PAVCNullDecorator@NEffectUpdateDecorator@@@0@@Z ; std::_Destroy_range<std::allocator<NEffectUpdateDecorator::CNullDecorator *> >
PUBLIC	??$_Destroy_range@V?$allocator@PAVCTextureAnimationCWDecorator@NEffectUpdateDecorator@@@std@@@std@@YAXPAPAVCTextureAnimationCWDecorator@NEffectUpdateDecorator@@QAPAV12@AAV?$allocator@PAVCTextureAnimationCWDecorator@NEffectUpdateDecorator@@@0@@Z ; std::_Destroy_range<std::allocator<NEffectUpdateDecorator::CTextureAnimationCWDecorator *> >
PUBLIC	??$_Destroy_range@V?$allocator@PAVCTextureAnimationCCWDecorator@NEffectUpdateDecorator@@@std@@@std@@YAXPAPAVCTextureAnimationCCWDecorator@NEffectUpdateDecorator@@QAPAV12@AAV?$allocator@PAVCTextureAnimationCCWDecorator@NEffectUpdateDecorator@@@0@@Z ; std::_Destroy_range<std::allocator<NEffectUpdateDecorator::CTextureAnimationCCWDecorator *> >
PUBLIC	??$_Destroy_range@V?$allocator@PAVCTextureAnimationRandomDecorator@NEffectUpdateDecorator@@@std@@@std@@YAXPAPAVCTextureAnimationRandomDecorator@NEffectUpdateDecorator@@QAPAV12@AAV?$allocator@PAVCTextureAnimationRandomDecorator@NEffectUpdateDecorator@@@0@@Z ; std::_Destroy_range<std::allocator<NEffectUpdateDecorator::CTextureAnimationRandomDecorator *> >
PUBLIC	??$_Destroy_range@V?$allocator@PAVCAirResistanceDecorator@NEffectUpdateDecorator@@@std@@@std@@YAXPAPAVCAirResistanceDecorator@NEffectUpdateDecorator@@QAPAV12@AAV?$allocator@PAVCAirResistanceDecorator@NEffectUpdateDecorator@@@0@@Z ; std::_Destroy_range<std::allocator<NEffectUpdateDecorator::CAirResistanceDecorator *> >
PUBLIC	??$_Destroy_range@V?$allocator@PAVCGravityDecorator@NEffectUpdateDecorator@@@std@@@std@@YAXPAPAVCGravityDecorator@NEffectUpdateDecorator@@QAPAV12@AAV?$allocator@PAVCGravityDecorator@NEffectUpdateDecorator@@@0@@Z ; std::_Destroy_range<std::allocator<NEffectUpdateDecorator::CGravityDecorator *> >
PUBLIC	??$_Destroy_range@V?$allocator@PAVCRotationDecorator@NEffectUpdateDecorator@@@std@@@std@@YAXPAPAVCRotationDecorator@NEffectUpdateDecorator@@QAPAV12@AAV?$allocator@PAVCRotationDecorator@NEffectUpdateDecorator@@@0@@Z ; std::_Destroy_range<std::allocator<NEffectUpdateDecorator::CRotationDecorator *> >
PUBLIC	??_7exception@std@@6B@				; std::exception::`vftable'
PUBLIC	??_C@_0BC@EOODALEL@Unknown?5exception@		; `string'
PUBLIC	??_7bad_alloc@std@@6B@				; std::bad_alloc::`vftable'
PUBLIC	??_7bad_array_new_length@std@@6B@		; std::bad_array_new_length::`vftable'
PUBLIC	??_C@_0BF@KINCDENJ@bad?5array?5new?5length@	; `string'
PUBLIC	__TI3?AVbad_array_new_length@std@@
PUBLIC	__CTA3?AVbad_array_new_length@std@@
PUBLIC	??_R0?AVbad_array_new_length@std@@@8		; std::bad_array_new_length `RTTI Type Descriptor'
PUBLIC	__CT??_R0?AVbad_array_new_length@std@@@8??0bad_array_new_length@std@@QAE@ABV01@@Z12
PUBLIC	??_R0?AVbad_alloc@std@@@8			; std::bad_alloc `RTTI Type Descriptor'
PUBLIC	__CT??_R0?AVbad_alloc@std@@@8??0bad_alloc@std@@QAE@ABV01@@Z12
PUBLIC	??_R0?AVexception@std@@@8			; std::exception `RTTI Type Descriptor'
PUBLIC	__CT??_R0?AVexception@std@@@8??0exception@std@@QAE@ABV01@@Z12
PUBLIC	??_C@_0BA@JFNIOLAK@string?5too?5long@		; `string'
PUBLIC	??_C@_0BI@CFPLBAOH@invalid?5string?5position@	; `string'
PUBLIC	??_R4exception@std@@6B@				; std::exception::`RTTI Complete Object Locator'
PUBLIC	??_R3exception@std@@8				; std::exception::`RTTI Class Hierarchy Descriptor'
PUBLIC	??_R2exception@std@@8				; std::exception::`RTTI Base Class Array'
PUBLIC	??_R1A@?0A@EA@exception@std@@8			; std::exception::`RTTI Base Class Descriptor at (0,-1,0,64)'
PUBLIC	??_R4bad_alloc@std@@6B@				; std::bad_alloc::`RTTI Complete Object Locator'
PUBLIC	??_R3bad_alloc@std@@8				; std::bad_alloc::`RTTI Class Hierarchy Descriptor'
PUBLIC	??_R2bad_alloc@std@@8				; std::bad_alloc::`RTTI Base Class Array'
PUBLIC	??_R1A@?0A@EA@bad_alloc@std@@8			; std::bad_alloc::`RTTI Base Class Descriptor at (0,-1,0,64)'
PUBLIC	??_R4bad_array_new_length@std@@6B@		; std::bad_array_new_length::`RTTI Complete Object Locator'
PUBLIC	??_R3bad_array_new_length@std@@8		; std::bad_array_new_length::`RTTI Class Hierarchy Descriptor'
PUBLIC	??_R2bad_array_new_length@std@@8		; std::bad_array_new_length::`RTTI Base Class Array'
PUBLIC	??_R1A@?0A@EA@bad_array_new_length@std@@8	; std::bad_array_new_length::`RTTI Base Class Descriptor at (0,-1,0,64)'
PUBLIC	?ms_kPool@?$CPooledObject@VCHeaderDecorator@NEffectUpdateDecorator@@@@1V?$CDynamicPoolEx@VCHeaderDecorator@NEffectUpdateDecorator@@@@A ; CPooledObject<NEffectUpdateDecorator::CHeaderDecorator>::ms_kPool
PUBLIC	?ms_kPool@?$CPooledObject@VCNullDecorator@NEffectUpdateDecorator@@@@1V?$CDynamicPoolEx@VCNullDecorator@NEffectUpdateDecorator@@@@A ; CPooledObject<NEffectUpdateDecorator::CNullDecorator>::ms_kPool
PUBLIC	?ms_kPool@?$CPooledObject@VCTextureAnimationCWDecorator@NEffectUpdateDecorator@@@@1V?$CDynamicPoolEx@VCTextureAnimationCWDecorator@NEffectUpdateDecorator@@@@A ; CPooledObject<NEffectUpdateDecorator::CTextureAnimationCWDecorator>::ms_kPool
PUBLIC	?ms_kPool@?$CPooledObject@VCTextureAnimationCCWDecorator@NEffectUpdateDecorator@@@@1V?$CDynamicPoolEx@VCTextureAnimationCCWDecorator@NEffectUpdateDecorator@@@@A ; CPooledObject<NEffectUpdateDecorator::CTextureAnimationCCWDecorator>::ms_kPool
PUBLIC	?ms_kPool@?$CPooledObject@VCTextureAnimationRandomDecorator@NEffectUpdateDecorator@@@@1V?$CDynamicPoolEx@VCTextureAnimationRandomDecorator@NEffectUpdateDecorator@@@@A ; CPooledObject<NEffectUpdateDecorator::CTextureAnimationRandomDecorator>::ms_kPool
PUBLIC	?ms_kPool@?$CPooledObject@VCAirResistanceDecorator@NEffectUpdateDecorator@@@@1V?$CDynamicPoolEx@VCAirResistanceDecorator@NEffectUpdateDecorator@@@@A ; CPooledObject<NEffectUpdateDecorator::CAirResistanceDecorator>::ms_kPool
PUBLIC	?ms_kPool@?$CPooledObject@VCGravityDecorator@NEffectUpdateDecorator@@@@1V?$CDynamicPoolEx@VCGravityDecorator@NEffectUpdateDecorator@@@@A ; CPooledObject<NEffectUpdateDecorator::CGravityDecorator>::ms_kPool
PUBLIC	?ms_kPool@?$CPooledObject@VCRotationDecorator@NEffectUpdateDecorator@@@@1V?$CDynamicPoolEx@VCRotationDecorator@NEffectUpdateDecorator@@@@A ; CPooledObject<NEffectUpdateDecorator::CRotationDecorator>::ms_kPool
PUBLIC	?ms_singleton@?$CSingleton@VCEffectManager@@@@0PAVCEffectManager@@A ; CSingleton<CEffectManager>::ms_singleton
PUBLIC	??_C@_0BC@NDOIOPFI@basemodelfilename@		; `string'
PUBLIC	??_C@_0N@FNBFCAFH@treefilename@			; `string'
PUBLIC	??_C@_0BC@KCFLFBNM@attributefilename@		; `string'
PUBLIC	??_C@_0O@OKJLKLAI@smokebonename@		; `string'
PUBLIC	??_C@_0BD@HKKNCHKI@motionlistfilename@		; `string'
PUBLIC	??_C@_0O@OGIHOCKK@smokefilename@		; `string'
PUBLIC	??_C@_0CA@DLOGAHGG@SmokeFileName?5ArgCount?$FL?$CFd?$FN?$CF2?$DN?$DN0@ ; `string'
PUBLIC	??_C@_0CI@MHBPKAGN@SmokeFileName?5SmokeNum?$FL?$CFd?$FN?5OUT?5@ ; `string'
PUBLIC	??_C@_0CF@GEINCGMO@CRaceData?3?3RegisterEffect2?$CI?$CFs?$CJ?5@ ; `string'
PUBLIC	??_C@_09IOJGLPMI@shapedata@			; `string'
PUBLIC	??_C@_08PEIJGPHF@pathname@			; `string'
PUBLIC	??_C@_0P@BDBLEP@shapedatacount@			; `string'
PUBLIC	??_C@_0M@GCDLCIFI@specialpath@			; `string'
PUBLIC	??_C@_0L@BLAJFEIP@shapeindex@			; `string'
PUBLIC	??_C@_05NCCFOPHA@model@				; `string'
PUBLIC	??_C@_0M@NFFHMNPF@local_model@			; `string'
PUBLIC	??_C@_0BB@OAFGNDMP@local_sourceskin@		; `string'
PUBLIC	??_C@_0BB@CMMEEAHN@local_targetskin@		; `string'
PUBLIC	??_C@_0L@ILFPKBGB@sourceskin@			; `string'
PUBLIC	??_C@_0L@EHMNDCND@targetskin@			; `string'
PUBLIC	??_C@_0M@NHEOFKBO@sourceskin2@			; `string'
PUBLIC	??_C@_0M@PCONBKCN@targetskin2@			; `string'
PUBLIC	??_C@_08HKPOBGLF@hairdata@			; `string'
PUBLIC	??_C@_0O@HCGNHJP@hairdatacount@			; `string'
PUBLIC	??_C@_09DFEJDBKH@hairindex@			; `string'
PUBLIC	??_C@_0O@OPEMPJIC@attachingdata@		; `string'
PUBLIC	??_C@_0BJ@DHFDPMIM@invalid?5vector?5subscript@	; `string'
EXTRN	??2@YAPAXI@Z:PROC				; operator new
EXTRN	??3@YAXPAX@Z:PROC				; operator delete
EXTRN	??3@YAXPAXI@Z:PROC				; operator delete
EXTRN	_atexit:PROC
EXTRN	__invalid_parameter_noinfo_noreturn:PROC
EXTRN	_tolower:PROC
EXTRN	__atoi64:PROC
EXTRN	___std_exception_copy:PROC
EXTRN	___std_exception_destroy:PROC
EXTRN	??_Eexception@std@@UAEPAXI@Z:PROC		; std::exception::`vector deleting destructor'
EXTRN	??_Ebad_alloc@std@@UAEPAXI@Z:PROC		; std::bad_alloc::`vector deleting destructor'
EXTRN	??_Ebad_array_new_length@std@@UAEPAXI@Z:PROC	; std::bad_array_new_length::`vector deleting destructor'
EXTRN	?_Xlength_error@std@@YAXPBD@Z:PROC		; std::_Xlength_error
EXTRN	?_Xout_of_range@std@@YAXPBD@Z:PROC		; std::_Xout_of_range
EXTRN	?TraceError@@YAXPBDZZ:PROC			; TraceError
EXTRN	??0CTextFileLoader@@QAE@XZ:PROC			; CTextFileLoader::CTextFileLoader
EXTRN	??1CTextFileLoader@@UAE@XZ:PROC			; CTextFileLoader::~CTextFileLoader
EXTRN	?Load@CTextFileLoader@@QAE_NPBD@Z:PROC		; CTextFileLoader::Load
EXTRN	?SetTop@CTextFileLoader@@QAEXXZ:PROC		; CTextFileLoader::SetTop
EXTRN	?SetChildNode@CTextFileLoader@@QAEHPBD@Z:PROC	; CTextFileLoader::SetChildNode
EXTRN	?SetChildNode@CTextFileLoader@@QAEHABV?$basic_string@DU?$char_traits@D@std@@V?$allocator@D@2@@std@@K@Z:PROC ; CTextFileLoader::SetChildNode
EXTRN	?SetParentNode@CTextFileLoader@@QAEHXZ:PROC	; CTextFileLoader::SetParentNode
EXTRN	?GetTokenVector@CTextFileLoader@@QAEHABV?$basic_string@DU?$char_traits@D@std@@V?$allocator@D@2@@std@@PAPAV?$vector@V?$basic_string@DU?$char_traits@D@std@@V?$allocator@D@2@@std@@V?$allocator@V?$basic_string@DU?$char_traits@D@std@@V?$allocator@D@2@@std@@@2@@3@@Z:PROC ; CTextFileLoader::GetTokenVector
EXTRN	?GetTokenDoubleWord@CTextFileLoader@@QAEHABV?$basic_string@DU?$char_traits@D@std@@V?$allocator@D@2@@std@@PAK@Z:PROC ; CTextFileLoader::GetTokenDoubleWord
EXTRN	?GetTokenString@CTextFileLoader@@QAEHABV?$basic_string@DU?$char_traits@D@std@@V?$allocator@D@2@@std@@PAV23@@Z:PROC ; CTextFileLoader::GetTokenString
EXTRN	?LoadAttachingData@NRaceData@@YAHAAVCTextFileLoader@@PAV?$vector@USAttachingData@NRaceData@@V?$allocator@USAttachingData@NRaceData@@@std@@@std@@@Z:PROC ; NRaceData::LoadAttachingData
EXTRN	?SetShapeModel@CRaceData@@QAEXIPBD@Z:PROC	; CRaceData::SetShapeModel
EXTRN	?AppendShapeSkin@CRaceData@@QAEXIIPBD0@Z:PROC	; CRaceData::AppendShapeSkin
EXTRN	?SetHairSkin@CRaceData@@QAEXIIPBD00@Z:PROC	; CRaceData::SetHairSkin
EXTRN	?RegisterEffect2@CEffectManager@@QAEHPBDPAK_N@Z:PROC ; CEffectManager::RegisterEffect2
EXTRN	@__security_check_cookie@4:PROC
EXTRN	__CxxThrowException@8:PROC
EXTRN	___CxxFrameHandler3:PROC
EXTRN	_memcpy:PROC
EXTRN	_memmove:PROC
EXTRN	___security_cookie:DWORD
;	COMDAT ?ms_singleton@?$CSingleton@VCEffectManager@@@@0PAVCEffectManager@@A
_BSS	SEGMENT
?ms_singleton@?$CSingleton@VCEffectManager@@@@0PAVCEffectManager@@A DD 01H DUP (?) ; CSingleton<CEffectManager>::ms_singleton
_BSS	ENDS
;	COMDAT CRT$XCU
CRT$XCU	SEGMENT
??ms_kPool$initializer$@?$CPooledObject@VCHeaderDecorator@NEffectUpdateDecorator@@@@1P6AXXZA@@3P6AXXZA DD FLAT:??__E?ms_kPool@?$CPooledObject@VCHeaderDecorator@NEffectUpdateDecorator@@@@1V?$CDynamicPoolEx@VCHeaderDecorator@NEffectUpdateDecorator@@@@A@@YAXXZ ; ??ms_kPool$initializer$@?$CPooledObject@VCHeaderDecorator@NEffectUpdateDecorator@@@@1P6AXXZA@@3P6AXXZA
CRT$XCU	ENDS
;	COMDAT ??_C@_0BJ@DHFDPMIM@invalid?5vector?5subscript@
CONST	SEGMENT
??_C@_0BJ@DHFDPMIM@invalid?5vector?5subscript@ DB 'invalid vector subscri'
	DB	'pt', 00H					; `string'
CONST	ENDS
;	COMDAT ??_C@_0O@OPEMPJIC@attachingdata@
CONST	SEGMENT
??_C@_0O@OPEMPJIC@attachingdata@ DB 'attachingdata', 00H ; `string'
CONST	ENDS
;	COMDAT ??_C@_09DFEJDBKH@hairindex@
CONST	SEGMENT
??_C@_09DFEJDBKH@hairindex@ DB 'hairindex', 00H		; `string'
CONST	ENDS
;	COMDAT ??_C@_0O@HCGNHJP@hairdatacount@
CONST	SEGMENT
??_C@_0O@HCGNHJP@hairdatacount@ DB 'hairdatacount', 00H	; `string'
CONST	ENDS
;	COMDAT ??_C@_08HKPOBGLF@hairdata@
CONST	SEGMENT
??_C@_08HKPOBGLF@hairdata@ DB 'hairdata', 00H		; `string'
CONST	ENDS
;	COMDAT ??_C@_0M@PCONBKCN@targetskin2@
CONST	SEGMENT
??_C@_0M@PCONBKCN@targetskin2@ DB 'targetskin2', 00H	; `string'
CONST	ENDS
;	COMDAT ??_C@_0M@NHEOFKBO@sourceskin2@
CONST	SEGMENT
??_C@_0M@NHEOFKBO@sourceskin2@ DB 'sourceskin2', 00H	; `string'
CONST	ENDS
;	COMDAT ??_C@_0L@EHMNDCND@targetskin@
CONST	SEGMENT
??_C@_0L@EHMNDCND@targetskin@ DB 'targetskin', 00H	; `string'
CONST	ENDS
;	COMDAT ??_C@_0L@ILFPKBGB@sourceskin@
CONST	SEGMENT
??_C@_0L@ILFPKBGB@sourceskin@ DB 'sourceskin', 00H	; `string'
CONST	ENDS
;	COMDAT ??_C@_0BB@CMMEEAHN@local_targetskin@
CONST	SEGMENT
??_C@_0BB@CMMEEAHN@local_targetskin@ DB 'local_targetskin', 00H ; `string'
CONST	ENDS
;	COMDAT ??_C@_0BB@OAFGNDMP@local_sourceskin@
CONST	SEGMENT
??_C@_0BB@OAFGNDMP@local_sourceskin@ DB 'local_sourceskin', 00H ; `string'
CONST	ENDS
;	COMDAT ??_C@_0M@NFFHMNPF@local_model@
CONST	SEGMENT
??_C@_0M@NFFHMNPF@local_model@ DB 'local_model', 00H	; `string'
CONST	ENDS
;	COMDAT ??_C@_05NCCFOPHA@model@
CONST	SEGMENT
??_C@_05NCCFOPHA@model@ DB 'model', 00H			; `string'
CONST	ENDS
;	COMDAT ??_C@_0L@BLAJFEIP@shapeindex@
CONST	SEGMENT
??_C@_0L@BLAJFEIP@shapeindex@ DB 'shapeindex', 00H	; `string'
CONST	ENDS
;	COMDAT ??_C@_0M@GCDLCIFI@specialpath@
CONST	SEGMENT
??_C@_0M@GCDLCIFI@specialpath@ DB 'specialpath', 00H	; `string'
CONST	ENDS
;	COMDAT ??_C@_0P@BDBLEP@shapedatacount@
CONST	SEGMENT
??_C@_0P@BDBLEP@shapedatacount@ DB 'shapedatacount', 00H ; `string'
CONST	ENDS
;	COMDAT ??_C@_08PEIJGPHF@pathname@
CONST	SEGMENT
??_C@_08PEIJGPHF@pathname@ DB 'pathname', 00H		; `string'
CONST	ENDS
;	COMDAT ??_C@_09IOJGLPMI@shapedata@
CONST	SEGMENT
??_C@_09IOJGLPMI@shapedata@ DB 'shapedata', 00H		; `string'
CONST	ENDS
;	COMDAT ??_C@_0CF@GEINCGMO@CRaceData?3?3RegisterEffect2?$CI?$CFs?$CJ?5@
CONST	SEGMENT
??_C@_0CF@GEINCGMO@CRaceData?3?3RegisterEffect2?$CI?$CFs?$CJ?5@ DB 'CRace'
	DB	'Data::RegisterEffect2(%s) ERROR', 00H	; `string'
CONST	ENDS
;	COMDAT ??_C@_0CI@MHBPKAGN@SmokeFileName?5SmokeNum?$FL?$CFd?$FN?5OUT?5@
CONST	SEGMENT
??_C@_0CI@MHBPKAGN@SmokeFileName?5SmokeNum?$FL?$CFd?$FN?5OUT?5@ DB 'Smoke'
	DB	'FileName SmokeNum[%d] OUT OF RANGE', 00H	; `string'
CONST	ENDS
;	COMDAT ??_C@_0CA@DLOGAHGG@SmokeFileName?5ArgCount?$FL?$CFd?$FN?$CF2?$DN?$DN0@
CONST	SEGMENT
??_C@_0CA@DLOGAHGG@SmokeFileName?5ArgCount?$FL?$CFd?$FN?$CF2?$DN?$DN0@ DB 'S'
	DB	'mokeFileName ArgCount[%d]%2==0', 00H	; `string'
CONST	ENDS
;	COMDAT ??_C@_0O@OGIHOCKK@smokefilename@
CONST	SEGMENT
??_C@_0O@OGIHOCKK@smokefilename@ DB 'smokefilename', 00H ; `string'
CONST	ENDS
;	COMDAT ??_C@_0BD@HKKNCHKI@motionlistfilename@
CONST	SEGMENT
??_C@_0BD@HKKNCHKI@motionlistfilename@ DB 'motionlistfilename', 00H ; `string'
CONST	ENDS
;	COMDAT ??_C@_0O@OKJLKLAI@smokebonename@
CONST	SEGMENT
??_C@_0O@OKJLKLAI@smokebonename@ DB 'smokebonename', 00H ; `string'
CONST	ENDS
;	COMDAT ??_C@_0BC@KCFLFBNM@attributefilename@
CONST	SEGMENT
??_C@_0BC@KCFLFBNM@attributefilename@ DB 'attributefilename', 00H ; `string'
CONST	ENDS
;	COMDAT ??_C@_0N@FNBFCAFH@treefilename@
CONST	SEGMENT
??_C@_0N@FNBFCAFH@treefilename@ DB 'treefilename', 00H	; `string'
CONST	ENDS
;	COMDAT ??_C@_0BC@NDOIOPFI@basemodelfilename@
CONST	SEGMENT
??_C@_0BC@NDOIOPFI@basemodelfilename@ DB 'basemodelfilename', 00H ; `string'
CONST	ENDS
;	COMDAT ?ms_kPool@?$CPooledObject@VCRotationDecorator@NEffectUpdateDecorator@@@@1V?$CDynamicPoolEx@VCRotationDecorator@NEffectUpdateDecorator@@@@A
_DATA	SEGMENT
?ms_kPool@?$CPooledObject@VCRotationDecorator@NEffectUpdateDecorator@@@@1V?$CDynamicPoolEx@VCRotationDecorator@NEffectUpdateDecorator@@@@A DD FLAT:??_7?$CDynamicPoolEx@VCRotationDecorator@NEffectUpdateDecorator@@@@6B@ ; CPooledObject<NEffectUpdateDecorator::CRotationDecorator>::ms_kPool
	DD	00H
	DD	00H
	DD	00H
	DD	00H
	DD	00H
	DD	00H
	DD	00H
	DD	00H
_DATA	ENDS
;	COMDAT ?ms_kPool@?$CPooledObject@VCGravityDecorator@NEffectUpdateDecorator@@@@1V?$CDynamicPoolEx@VCGravityDecorator@NEffectUpdateDecorator@@@@A
_DATA	SEGMENT
?ms_kPool@?$CPooledObject@VCGravityDecorator@NEffectUpdateDecorator@@@@1V?$CDynamicPoolEx@VCGravityDecorator@NEffectUpdateDecorator@@@@A DD FLAT:??_7?$CDynamicPoolEx@VCGravityDecorator@NEffectUpdateDecorator@@@@6B@ ; CPooledObject<NEffectUpdateDecorator::CGravityDecorator>::ms_kPool
	DD	00H
	DD	00H
	DD	00H
	DD	00H
	DD	00H
	DD	00H
	DD	00H
	DD	00H
_DATA	ENDS
;	COMDAT ?ms_kPool@?$CPooledObject@VCAirResistanceDecorator@NEffectUpdateDecorator@@@@1V?$CDynamicPoolEx@VCAirResistanceDecorator@NEffectUpdateDecorator@@@@A
_DATA	SEGMENT
?ms_kPool@?$CPooledObject@VCAirResistanceDecorator@NEffectUpdateDecorator@@@@1V?$CDynamicPoolEx@VCAirResistanceDecorator@NEffectUpdateDecorator@@@@A DD FLAT:??_7?$CDynamicPoolEx@VCAirResistanceDecorator@NEffectUpdateDecorator@@@@6B@ ; CPooledObject<NEffectUpdateDecorator::CAirResistanceDecorator>::ms_kPool
	DD	00H
	DD	00H
	DD	00H
	DD	00H
	DD	00H
	DD	00H
	DD	00H
	DD	00H
_DATA	ENDS
;	COMDAT ?ms_kPool@?$CPooledObject@VCTextureAnimationRandomDecorator@NEffectUpdateDecorator@@@@1V?$CDynamicPoolEx@VCTextureAnimationRandomDecorator@NEffectUpdateDecorator@@@@A
_DATA	SEGMENT
?ms_kPool@?$CPooledObject@VCTextureAnimationRandomDecorator@NEffectUpdateDecorator@@@@1V?$CDynamicPoolEx@VCTextureAnimationRandomDecorator@NEffectUpdateDecorator@@@@A DD FLAT:??_7?$CDynamicPoolEx@VCTextureAnimationRandomDecorator@NEffectUpdateDecorator@@@@6B@ ; CPooledObject<NEffectUpdateDecorator::CTextureAnimationRandomDecorator>::ms_kPool
	DD	00H
	DD	00H
	DD	00H
	DD	00H
	DD	00H
	DD	00H
	DD	00H
	DD	00H
_DATA	ENDS
;	COMDAT ?ms_kPool@?$CPooledObject@VCTextureAnimationCCWDecorator@NEffectUpdateDecorator@@@@1V?$CDynamicPoolEx@VCTextureAnimationCCWDecorator@NEffectUpdateDecorator@@@@A
_DATA	SEGMENT
?ms_kPool@?$CPooledObject@VCTextureAnimationCCWDecorator@NEffectUpdateDecorator@@@@1V?$CDynamicPoolEx@VCTextureAnimationCCWDecorator@NEffectUpdateDecorator@@@@A DD FLAT:??_7?$CDynamicPoolEx@VCTextureAnimationCCWDecorator@NEffectUpdateDecorator@@@@6B@ ; CPooledObject<NEffectUpdateDecorator::CTextureAnimationCCWDecorator>::ms_kPool
	DD	00H
	DD	00H
	DD	00H
	DD	00H
	DD	00H
	DD	00H
	DD	00H
	DD	00H
_DATA	ENDS
;	COMDAT ?ms_kPool@?$CPooledObject@VCTextureAnimationCWDecorator@NEffectUpdateDecorator@@@@1V?$CDynamicPoolEx@VCTextureAnimationCWDecorator@NEffectUpdateDecorator@@@@A
_DATA	SEGMENT
?ms_kPool@?$CPooledObject@VCTextureAnimationCWDecorator@NEffectUpdateDecorator@@@@1V?$CDynamicPoolEx@VCTextureAnimationCWDecorator@NEffectUpdateDecorator@@@@A DD FLAT:??_7?$CDynamicPoolEx@VCTextureAnimationCWDecorator@NEffectUpdateDecorator@@@@6B@ ; CPooledObject<NEffectUpdateDecorator::CTextureAnimationCWDecorator>::ms_kPool
	DD	00H
	DD	00H
	DD	00H
	DD	00H
	DD	00H
	DD	00H
	DD	00H
	DD	00H
_DATA	ENDS
;	COMDAT ?ms_kPool@?$CPooledObject@VCNullDecorator@NEffectUpdateDecorator@@@@1V?$CDynamicPoolEx@VCNullDecorator@NEffectUpdateDecorator@@@@A
_DATA	SEGMENT
?ms_kPool@?$CPooledObject@VCNullDecorator@NEffectUpdateDecorator@@@@1V?$CDynamicPoolEx@VCNullDecorator@NEffectUpdateDecorator@@@@A DD FLAT:??_7?$CDynamicPoolEx@VCNullDecorator@NEffectUpdateDecorator@@@@6B@ ; CPooledObject<NEffectUpdateDecorator::CNullDecorator>::ms_kPool
	DD	00H
	DD	00H
	DD	00H
	DD	00H
	DD	00H
	DD	00H
	DD	00H
	DD	00H
_DATA	ENDS
;	COMDAT ?ms_kPool@?$CPooledObject@VCHeaderDecorator@NEffectUpdateDecorator@@@@1V?$CDynamicPoolEx@VCHeaderDecorator@NEffectUpdateDecorator@@@@A
_DATA	SEGMENT
?ms_kPool@?$CPooledObject@VCHeaderDecorator@NEffectUpdateDecorator@@@@1V?$CDynamicPoolEx@VCHeaderDecorator@NEffectUpdateDecorator@@@@A DD FLAT:??_7?$CDynamicPoolEx@VCHeaderDecorator@NEffectUpdateDecorator@@@@6B@ ; CPooledObject<NEffectUpdateDecorator::CHeaderDecorator>::ms_kPool
	DD	00H
	DD	00H
	DD	00H
	DD	00H
	DD	00H
	DD	00H
	DD	00H
	DD	00H
_DATA	ENDS
;	COMDAT ??_R1A@?0A@EA@bad_array_new_length@std@@8
rdata$r	SEGMENT
??_R1A@?0A@EA@bad_array_new_length@std@@8 DD FLAT:??_R0?AVbad_array_new_length@std@@@8 ; std::bad_array_new_length::`RTTI Base Class Descriptor at (0,-1,0,64)'
	DD	02H
	DD	00H
	DD	0ffffffffH
	DD	00H
	DD	040H
	DD	FLAT:??_R3bad_array_new_length@std@@8
rdata$r	ENDS
;	COMDAT ??_R2bad_array_new_length@std@@8
rdata$r	SEGMENT
??_R2bad_array_new_length@std@@8 DD FLAT:??_R1A@?0A@EA@bad_array_new_length@std@@8 ; std::bad_array_new_length::`RTTI Base Class Array'
	DD	FLAT:??_R1A@?0A@EA@bad_alloc@std@@8
	DD	FLAT:??_R1A@?0A@EA@exception@std@@8
rdata$r	ENDS
;	COMDAT ??_R3bad_array_new_length@std@@8
rdata$r	SEGMENT
??_R3bad_array_new_length@std@@8 DD 00H			; std::bad_array_new_length::`RTTI Class Hierarchy Descriptor'
	DD	00H
	DD	03H
	DD	FLAT:??_R2bad_array_new_length@std@@8
rdata$r	ENDS
;	COMDAT ??_R4bad_array_new_length@std@@6B@
rdata$r	SEGMENT
??_R4bad_array_new_length@std@@6B@ DD 00H		; std::bad_array_new_length::`RTTI Complete Object Locator'
	DD	00H
	DD	00H
	DD	FLAT:??_R0?AVbad_array_new_length@std@@@8
	DD	FLAT:??_R3bad_array_new_length@std@@8
rdata$r	ENDS
;	COMDAT ??_R1A@?0A@EA@bad_alloc@std@@8
rdata$r	SEGMENT
??_R1A@?0A@EA@bad_alloc@std@@8 DD FLAT:??_R0?AVbad_alloc@std@@@8 ; std::bad_alloc::`RTTI Base Class Descriptor at (0,-1,0,64)'
	DD	01H
	DD	00H
	DD	0ffffffffH
	DD	00H
	DD	040H
	DD	FLAT:??_R3bad_alloc@std@@8
rdata$r	ENDS
;	COMDAT ??_R2bad_alloc@std@@8
rdata$r	SEGMENT
??_R2bad_alloc@std@@8 DD FLAT:??_R1A@?0A@EA@bad_alloc@std@@8 ; std::bad_alloc::`RTTI Base Class Array'
	DD	FLAT:??_R1A@?0A@EA@exception@std@@8
rdata$r	ENDS
;	COMDAT ??_R3bad_alloc@std@@8
rdata$r	SEGMENT
??_R3bad_alloc@std@@8 DD 00H				; std::bad_alloc::`RTTI Class Hierarchy Descriptor'
	DD	00H
	DD	02H
	DD	FLAT:??_R2bad_alloc@std@@8
rdata$r	ENDS
;	COMDAT ??_R4bad_alloc@std@@6B@
rdata$r	SEGMENT
??_R4bad_alloc@std@@6B@ DD 00H				; std::bad_alloc::`RTTI Complete Object Locator'
	DD	00H
	DD	00H
	DD	FLAT:??_R0?AVbad_alloc@std@@@8
	DD	FLAT:??_R3bad_alloc@std@@8
rdata$r	ENDS
;	COMDAT ??_R1A@?0A@EA@exception@std@@8
rdata$r	SEGMENT
??_R1A@?0A@EA@exception@std@@8 DD FLAT:??_R0?AVexception@std@@@8 ; std::exception::`RTTI Base Class Descriptor at (0,-1,0,64)'
	DD	00H
	DD	00H
	DD	0ffffffffH
	DD	00H
	DD	040H
	DD	FLAT:??_R3exception@std@@8
rdata$r	ENDS
;	COMDAT ??_R2exception@std@@8
rdata$r	SEGMENT
??_R2exception@std@@8 DD FLAT:??_R1A@?0A@EA@exception@std@@8 ; std::exception::`RTTI Base Class Array'
rdata$r	ENDS
;	COMDAT ??_R3exception@std@@8
rdata$r	SEGMENT
??_R3exception@std@@8 DD 00H				; std::exception::`RTTI Class Hierarchy Descriptor'
	DD	00H
	DD	01H
	DD	FLAT:??_R2exception@std@@8
rdata$r	ENDS
;	COMDAT ??_R4exception@std@@6B@
rdata$r	SEGMENT
??_R4exception@std@@6B@ DD 00H				; std::exception::`RTTI Complete Object Locator'
	DD	00H
	DD	00H
	DD	FLAT:??_R0?AVexception@std@@@8
	DD	FLAT:??_R3exception@std@@8
rdata$r	ENDS
;	COMDAT ??_C@_0BI@CFPLBAOH@invalid?5string?5position@
CONST	SEGMENT
??_C@_0BI@CFPLBAOH@invalid?5string?5position@ DB 'invalid string position'
	DB	00H						; `string'
CONST	ENDS
;	COMDAT ??_C@_0BA@JFNIOLAK@string?5too?5long@
CONST	SEGMENT
??_C@_0BA@JFNIOLAK@string?5too?5long@ DB 'string too long', 00H ; `string'
CONST	ENDS
;	COMDAT __CT??_R0?AVexception@std@@@8??0exception@std@@QAE@ABV01@@Z12
xdata$x	SEGMENT
__CT??_R0?AVexception@std@@@8??0exception@std@@QAE@ABV01@@Z12 DD 00H
	DD	FLAT:??_R0?AVexception@std@@@8
	DD	00H
	DD	0ffffffffH
	ORG $+4
	DD	0cH
	DD	FLAT:??0exception@std@@QAE@ABV01@@Z
xdata$x	ENDS
;	COMDAT ??_R0?AVexception@std@@@8
data$r	SEGMENT
??_R0?AVexception@std@@@8 DD FLAT:??_7type_info@@6B@	; std::exception `RTTI Type Descriptor'
	DD	00H
	DB	'.?AVexception@std@@', 00H
data$r	ENDS
;	COMDAT __CT??_R0?AVbad_alloc@std@@@8??0bad_alloc@std@@QAE@ABV01@@Z12
xdata$x	SEGMENT
__CT??_R0?AVbad_alloc@std@@@8??0bad_alloc@std@@QAE@ABV01@@Z12 DD 010H
	DD	FLAT:??_R0?AVbad_alloc@std@@@8
	DD	00H
	DD	0ffffffffH
	ORG $+4
	DD	0cH
	DD	FLAT:??0bad_alloc@std@@QAE@ABV01@@Z
xdata$x	ENDS
;	COMDAT ??_R0?AVbad_alloc@std@@@8
data$r	SEGMENT
??_R0?AVbad_alloc@std@@@8 DD FLAT:??_7type_info@@6B@	; std::bad_alloc `RTTI Type Descriptor'
	DD	00H
	DB	'.?AVbad_alloc@std@@', 00H
data$r	ENDS
;	COMDAT __CT??_R0?AVbad_array_new_length@std@@@8??0bad_array_new_length@std@@QAE@ABV01@@Z12
xdata$x	SEGMENT
__CT??_R0?AVbad_array_new_length@std@@@8??0bad_array_new_length@std@@QAE@ABV01@@Z12 DD 00H
	DD	FLAT:??_R0?AVbad_array_new_length@std@@@8
	DD	00H
	DD	0ffffffffH
	ORG $+4
	DD	0cH
	DD	FLAT:??0bad_array_new_length@std@@QAE@ABV01@@Z
xdata$x	ENDS
;	COMDAT ??_R0?AVbad_array_new_length@std@@@8
data$r	SEGMENT
??_R0?AVbad_array_new_length@std@@@8 DD FLAT:??_7type_info@@6B@ ; std::bad_array_new_length `RTTI Type Descriptor'
	DD	00H
	DB	'.?AVbad_array_new_length@std@@', 00H
data$r	ENDS
;	COMDAT __CTA3?AVbad_array_new_length@std@@
xdata$x	SEGMENT
__CTA3?AVbad_array_new_length@std@@ DD 03H
	DD	FLAT:__CT??_R0?AVbad_array_new_length@std@@@8??0bad_array_new_length@std@@QAE@ABV01@@Z12
	DD	FLAT:__CT??_R0?AVbad_alloc@std@@@8??0bad_alloc@std@@QAE@ABV01@@Z12
	DD	FLAT:__CT??_R0?AVexception@std@@@8??0exception@std@@QAE@ABV01@@Z12
xdata$x	ENDS
;	COMDAT __TI3?AVbad_array_new_length@std@@
xdata$x	SEGMENT
__TI3?AVbad_array_new_length@std@@ DD 00H
	DD	FLAT:??1bad_array_new_length@std@@UAE@XZ
	DD	00H
	DD	FLAT:__CTA3?AVbad_array_new_length@std@@
xdata$x	ENDS
;	COMDAT ??_C@_0BF@KINCDENJ@bad?5array?5new?5length@
CONST	SEGMENT
??_C@_0BF@KINCDENJ@bad?5array?5new?5length@ DB 'bad array new length', 00H ; `string'
CONST	ENDS
;	COMDAT ??_7bad_array_new_length@std@@6B@
CONST	SEGMENT
??_7bad_array_new_length@std@@6B@ DD FLAT:??_R4bad_array_new_length@std@@6B@ ; std::bad_array_new_length::`vftable'
	DD	FLAT:??_Ebad_array_new_length@std@@UAEPAXI@Z
	DD	FLAT:?what@exception@std@@UBEPBDXZ
CONST	ENDS
;	COMDAT ??_7bad_alloc@std@@6B@
CONST	SEGMENT
??_7bad_alloc@std@@6B@ DD FLAT:??_R4bad_alloc@std@@6B@	; std::bad_alloc::`vftable'
	DD	FLAT:??_Ebad_alloc@std@@UAEPAXI@Z
	DD	FLAT:?what@exception@std@@UBEPBDXZ
CONST	ENDS
;	COMDAT ??_C@_0BC@EOODALEL@Unknown?5exception@
CONST	SEGMENT
??_C@_0BC@EOODALEL@Unknown?5exception@ DB 'Unknown exception', 00H ; `string'
CONST	ENDS
;	COMDAT ??_7exception@std@@6B@
CONST	SEGMENT
??_7exception@std@@6B@ DD FLAT:??_R4exception@std@@6B@	; std::exception::`vftable'
	DD	FLAT:??_Eexception@std@@UAEPAXI@Z
	DD	FLAT:?what@exception@std@@UBEPBDXZ
CONST	ENDS
;	COMDAT xdata$x
xdata$x	SEGMENT
__ehfuncinfo$?LoadRaceData@CRaceData@@QAEHPBD@Z DD 019930522H
	DD	02cH
	DD	FLAT:__unwindtable$?LoadRaceData@CRaceData@@QAEHPBD@Z
	DD	2 DUP(00H)
	DD	2 DUP(00H)
	DD	00H
	DD	01H
__unwindtable$?LoadRaceData@CRaceData@@QAEHPBD@Z DD 0ffffffffH
	DD	FLAT:__unwindfunclet$?LoadRaceData@CRaceData@@QAEHPBD@Z$0
	DD	00H
	DD	FLAT:__unwindfunclet$?LoadRaceData@CRaceData@@QAEHPBD@Z$1
	DD	00H
	DD	FLAT:__unwindfunclet$?LoadRaceData@CRaceData@@QAEHPBD@Z$2
	DD	00H
	DD	FLAT:__unwindfunclet$?LoadRaceData@CRaceData@@QAEHPBD@Z$3
	DD	00H
	DD	FLAT:__unwindfunclet$?LoadRaceData@CRaceData@@QAEHPBD@Z$4
	DD	00H
	DD	FLAT:__unwindfunclet$?LoadRaceData@CRaceData@@QAEHPBD@Z$5
	DD	00H
	DD	FLAT:__unwindfunclet$?LoadRaceData@CRaceData@@QAEHPBD@Z$6
	DD	00H
	DD	FLAT:__unwindfunclet$?LoadRaceData@CRaceData@@QAEHPBD@Z$7
	DD	07H
	DD	FLAT:__unwindfunclet$?LoadRaceData@CRaceData@@QAEHPBD@Z$8
	DD	08H
	DD	FLAT:__unwindfunclet$?LoadRaceData@CRaceData@@QAEHPBD@Z$9
	DD	07H
	DD	FLAT:__unwindfunclet$?LoadRaceData@CRaceData@@QAEHPBD@Z$10
	DD	07H
	DD	FLAT:__unwindfunclet$?LoadRaceData@CRaceData@@QAEHPBD@Z$11
	DD	07H
	DD	FLAT:__unwindfunclet$?LoadRaceData@CRaceData@@QAEHPBD@Z$12
	DD	07H
	DD	FLAT:__unwindfunclet$?LoadRaceData@CRaceData@@QAEHPBD@Z$13
	DD	0dH
	DD	FLAT:__unwindfunclet$?LoadRaceData@CRaceData@@QAEHPBD@Z$14
	DD	0dH
	DD	FLAT:__unwindfunclet$?LoadRaceData@CRaceData@@QAEHPBD@Z$15
	DD	0dH
	DD	FLAT:__unwindfunclet$?LoadRaceData@CRaceData@@QAEHPBD@Z$16
	DD	0dH
	DD	FLAT:__unwindfunclet$?LoadRaceData@CRaceData@@QAEHPBD@Z$17
	DD	011H
	DD	FLAT:__unwindfunclet$?LoadRaceData@CRaceData@@QAEHPBD@Z$18
	DD	012H
	DD	FLAT:__unwindfunclet$?LoadRaceData@CRaceData@@QAEHPBD@Z$19
	DD	013H
	DD	FLAT:__unwindfunclet$?LoadRaceData@CRaceData@@QAEHPBD@Z$20
	DD	012H
	DD	FLAT:__unwindfunclet$?LoadRaceData@CRaceData@@QAEHPBD@Z$21
	DD	015H
	DD	FLAT:__unwindfunclet$?LoadRaceData@CRaceData@@QAEHPBD@Z$22
	DD	012H
	DD	FLAT:__unwindfunclet$?LoadRaceData@CRaceData@@QAEHPBD@Z$23
	DD	017H
	DD	FLAT:__unwindfunclet$?LoadRaceData@CRaceData@@QAEHPBD@Z$24
	DD	012H
	DD	FLAT:__unwindfunclet$?LoadRaceData@CRaceData@@QAEHPBD@Z$25
	DD	019H
	DD	FLAT:__unwindfunclet$?LoadRaceData@CRaceData@@QAEHPBD@Z$26
	DD	012H
	DD	FLAT:__unwindfunclet$?LoadRaceData@CRaceData@@QAEHPBD@Z$27
	DD	01bH
	DD	FLAT:__unwindfunclet$?LoadRaceData@CRaceData@@QAEHPBD@Z$28
	DD	00H
	DD	FLAT:__unwindfunclet$?LoadRaceData@CRaceData@@QAEHPBD@Z$29
	DD	01dH
	DD	FLAT:__unwindfunclet$?LoadRaceData@CRaceData@@QAEHPBD@Z$30
	DD	01eH
	DD	FLAT:__unwindfunclet$?LoadRaceData@CRaceData@@QAEHPBD@Z$31
	DD	01dH
	DD	FLAT:__unwindfunclet$?LoadRaceData@CRaceData@@QAEHPBD@Z$32
	DD	01dH
	DD	FLAT:__unwindfunclet$?LoadRaceData@CRaceData@@QAEHPBD@Z$33
	DD	01dH
	DD	FLAT:__unwindfunclet$?LoadRaceData@CRaceData@@QAEHPBD@Z$34
	DD	01dH
	DD	FLAT:__unwindfunclet$?LoadRaceData@CRaceData@@QAEHPBD@Z$35
	DD	023H
	DD	FLAT:__unwindfunclet$?LoadRaceData@CRaceData@@QAEHPBD@Z$36
	DD	024H
	DD	FLAT:__unwindfunclet$?LoadRaceData@CRaceData@@QAEHPBD@Z$37
	DD	025H
	DD	FLAT:__unwindfunclet$?LoadRaceData@CRaceData@@QAEHPBD@Z$38
	DD	026H
	DD	FLAT:__unwindfunclet$?LoadRaceData@CRaceData@@QAEHPBD@Z$39
	DD	027H
	DD	FLAT:__unwindfunclet$?LoadRaceData@CRaceData@@QAEHPBD@Z$40
	DD	025H
	DD	FLAT:__unwindfunclet$?LoadRaceData@CRaceData@@QAEHPBD@Z$41
	DD	029H
	DD	FLAT:__unwindfunclet$?LoadRaceData@CRaceData@@QAEHPBD@Z$42
	DD	02aH
	DD	FLAT:__unwindfunclet$?LoadRaceData@CRaceData@@QAEHPBD@Z$43
xdata$x	ENDS
;	COMDAT CRT$XCU
CRT$XCU	SEGMENT
??ms_kPool$initializer$@?$CPooledObject@VCNullDecorator@NEffectUpdateDecorator@@@@1P6AXXZA@@3P6AXXZA DD FLAT:??__E?ms_kPool@?$CPooledObject@VCNullDecorator@NEffectUpdateDecorator@@@@1V?$CDynamicPoolEx@VCNullDecorator@NEffectUpdateDecorator@@@@A@@YAXXZ ; ??ms_kPool$initializer$@?$CPooledObject@VCNullDecorator@NEffectUpdateDecorator@@@@1P6AXXZA@@3P6AXXZA
CRT$XCU	ENDS
;	COMDAT CRT$XCU
CRT$XCU	SEGMENT
??ms_kPool$initializer$@?$CPooledObject@VCTextureAnimationCWDecorator@NEffectUpdateDecorator@@@@1P6AXXZA@@3P6AXXZA DD FLAT:??__E?ms_kPool@?$CPooledObject@VCTextureAnimationCWDecorator@NEffectUpdateDecorator@@@@1V?$CDynamicPoolEx@VCTextureAnimationCWDecorator@NEffectUpdateDecorator@@@@A@@YAXXZ ; ??ms_kPool$initializer$@?$CPooledObject@VCTextureAnimationCWDecorator@NEffectUpdateDecorator@@@@1P6AXXZA@@3P6AXXZA
CRT$XCU	ENDS
;	COMDAT CRT$XCU
CRT$XCU	SEGMENT
??ms_kPool$initializer$@?$CPooledObject@VCTextureAnimationCCWDecorator@NEffectUpdateDecorator@@@@1P6AXXZA@@3P6AXXZA DD FLAT:??__E?ms_kPool@?$CPooledObject@VCTextureAnimationCCWDecorator@NEffectUpdateDecorator@@@@1V?$CDynamicPoolEx@VCTextureAnimationCCWDecorator@NEffectUpdateDecorator@@@@A@@YAXXZ ; ??ms_kPool$initializer$@?$CPooledObject@VCTextureAnimationCCWDecorator@NEffectUpdateDecorator@@@@1P6AXXZA@@3P6AXXZA
CRT$XCU	ENDS
;	COMDAT CRT$XCU
CRT$XCU	SEGMENT
??ms_kPool$initializer$@?$CPooledObject@VCTextureAnimationRandomDecorator@NEffectUpdateDecorator@@@@1P6AXXZA@@3P6AXXZA DD FLAT:??__E?ms_kPool@?$CPooledObject@VCTextureAnimationRandomDecorator@NEffectUpdateDecorator@@@@1V?$CDynamicPoolEx@VCTextureAnimationRandomDecorator@NEffectUpdateDecorator@@@@A@@YAXXZ ; ??ms_kPool$initializer$@?$CPooledObject@VCTextureAnimationRandomDecorator@NEffectUpdateDecorator@@@@1P6AXXZA@@3P6AXXZA
CRT$XCU	ENDS
;	COMDAT CRT$XCU
CRT$XCU	SEGMENT
??ms_kPool$initializer$@?$CPooledObject@VCAirResistanceDecorator@NEffectUpdateDecorator@@@@1P6AXXZA@@3P6AXXZA DD FLAT:??__E?ms_kPool@?$CPooledObject@VCAirResistanceDecorator@NEffectUpdateDecorator@@@@1V?$CDynamicPoolEx@VCAirResistanceDecorator@NEffectUpdateDecorator@@@@A@@YAXXZ ; ??ms_kPool$initializer$@?$CPooledObject@VCAirResistanceDecorator@NEffectUpdateDecorator@@@@1P6AXXZA@@3P6AXXZA
CRT$XCU	ENDS
;	COMDAT CRT$XCU
CRT$XCU	SEGMENT
??ms_kPool$initializer$@?$CPooledObject@VCGravityDecorator@NEffectUpdateDecorator@@@@1P6AXXZA@@3P6AXXZA DD FLAT:??__E?ms_kPool@?$CPooledObject@VCGravityDecorator@NEffectUpdateDecorator@@@@1V?$CDynamicPoolEx@VCGravityDecorator@NEffectUpdateDecorator@@@@A@@YAXXZ ; ??ms_kPool$initializer$@?$CPooledObject@VCGravityDecorator@NEffectUpdateDecorator@@@@1P6AXXZA@@3P6AXXZA
CRT$XCU	ENDS
;	COMDAT CRT$XCU
CRT$XCU	SEGMENT
??ms_kPool$initializer$@?$CPooledObject@VCRotationDecorator@NEffectUpdateDecorator@@@@1P6AXXZA@@3P6AXXZA DD FLAT:??__E?ms_kPool@?$CPooledObject@VCRotationDecorator@NEffectUpdateDecorator@@@@1V?$CDynamicPoolEx@VCRotationDecorator@NEffectUpdateDecorator@@@@A@@YAXXZ ; ??ms_kPool$initializer$@?$CPooledObject@VCRotationDecorator@NEffectUpdateDecorator@@@@1P6AXXZA@@3P6AXXZA
CRT$XCU	ENDS
; Function compile flags: /Ogtp
;	COMDAT ??__F?ms_kPool@?$CPooledObject@VCRotationDecorator@NEffectUpdateDecorator@@@@1V?$CDynamicPoolEx@VCRotationDecorator@NEffectUpdateDecorator@@@@A@@YAXXZ
text$yd	SEGMENT
??__F?ms_kPool@?$CPooledObject@VCRotationDecorator@NEffectUpdateDecorator@@@@1V?$CDynamicPoolEx@VCRotationDecorator@NEffectUpdateDecorator@@@@A@@YAXXZ PROC ; `dynamic atexit destructor for 'CPooledObject<NEffectUpdateDecorator::CRotationDecorator>::ms_kPool'', COMDAT
  00000	b9 00 00 00 00	 mov	 ecx, OFFSET ?ms_kPool@?$CPooledObject@VCRotationDecorator@NEffectUpdateDecorator@@@@1V?$CDynamicPoolEx@VCRotationDecorator@NEffectUpdateDecorator@@@@A ; CPooledObject<NEffectUpdateDecorator::CRotationDecorator>::ms_kPool
  00005	e9 00 00 00 00	 jmp	 ??1?$CDynamicPoolEx@VCRotationDecorator@NEffectUpdateDecorator@@@@UAE@XZ ; CDynamicPoolEx<NEffectUpdateDecorator::CRotationDecorator>::~CDynamicPoolEx<NEffectUpdateDecorator::CRotationDecorator>
??__F?ms_kPool@?$CPooledObject@VCRotationDecorator@NEffectUpdateDecorator@@@@1V?$CDynamicPoolEx@VCRotationDecorator@NEffectUpdateDecorator@@@@A@@YAXXZ ENDP ; `dynamic atexit destructor for 'CPooledObject<NEffectUpdateDecorator::CRotationDecorator>::ms_kPool''
text$yd	ENDS
; Function compile flags: /Ogtp
; File D:\Metin2 Server Files\mainline\SRC_2014\Metin2Client\eterLib\Pool.h
;	COMDAT ??__E?ms_kPool@?$CPooledObject@VCRotationDecorator@NEffectUpdateDecorator@@@@1V?$CDynamicPoolEx@VCRotationDecorator@NEffectUpdateDecorator@@@@A@@YAXXZ
text$di	SEGMENT
??__E?ms_kPool@?$CPooledObject@VCRotationDecorator@NEffectUpdateDecorator@@@@1V?$CDynamicPoolEx@VCRotationDecorator@NEffectUpdateDecorator@@@@A@@YAXXZ PROC ; `dynamic initializer for 'CPooledObject<NEffectUpdateDecorator::CRotationDecorator>::ms_kPool'', COMDAT

; 272  : template <class T> CDynamicPoolEx<T> CPooledObject<T>::ms_kPool;

  00000	68 00 00 00 00	 push	 OFFSET ??__F?ms_kPool@?$CPooledObject@VCRotationDecorator@NEffectUpdateDecorator@@@@1V?$CDynamicPoolEx@VCRotationDecorator@NEffectUpdateDecorator@@@@A@@YAXXZ ; `dynamic atexit destructor for 'CPooledObject<NEffectUpdateDecorator::CRotationDecorator>::ms_kPool''
  00005	e8 00 00 00 00	 call	 _atexit
  0000a	59		 pop	 ecx
  0000b	c3		 ret	 0
??__E?ms_kPool@?$CPooledObject@VCRotationDecorator@NEffectUpdateDecorator@@@@1V?$CDynamicPoolEx@VCRotationDecorator@NEffectUpdateDecorator@@@@A@@YAXXZ ENDP ; `dynamic initializer for 'CPooledObject<NEffectUpdateDecorator::CRotationDecorator>::ms_kPool''
text$di	ENDS
; Function compile flags: /Ogtp
;	COMDAT ??__F?ms_kPool@?$CPooledObject@VCGravityDecorator@NEffectUpdateDecorator@@@@1V?$CDynamicPoolEx@VCGravityDecorator@NEffectUpdateDecorator@@@@A@@YAXXZ
text$yd	SEGMENT
??__F?ms_kPool@?$CPooledObject@VCGravityDecorator@NEffectUpdateDecorator@@@@1V?$CDynamicPoolEx@VCGravityDecorator@NEffectUpdateDecorator@@@@A@@YAXXZ PROC ; `dynamic atexit destructor for 'CPooledObject<NEffectUpdateDecorator::CGravityDecorator>::ms_kPool'', COMDAT
  00000	b9 00 00 00 00	 mov	 ecx, OFFSET ?ms_kPool@?$CPooledObject@VCGravityDecorator@NEffectUpdateDecorator@@@@1V?$CDynamicPoolEx@VCGravityDecorator@NEffectUpdateDecorator@@@@A ; CPooledObject<NEffectUpdateDecorator::CGravityDecorator>::ms_kPool
  00005	e9 00 00 00 00	 jmp	 ??1?$CDynamicPoolEx@VCGravityDecorator@NEffectUpdateDecorator@@@@UAE@XZ ; CDynamicPoolEx<NEffectUpdateDecorator::CGravityDecorator>::~CDynamicPoolEx<NEffectUpdateDecorator::CGravityDecorator>
??__F?ms_kPool@?$CPooledObject@VCGravityDecorator@NEffectUpdateDecorator@@@@1V?$CDynamicPoolEx@VCGravityDecorator@NEffectUpdateDecorator@@@@A@@YAXXZ ENDP ; `dynamic atexit destructor for 'CPooledObject<NEffectUpdateDecorator::CGravityDecorator>::ms_kPool''
text$yd	ENDS
; Function compile flags: /Ogtp
; File D:\Metin2 Server Files\mainline\SRC_2014\Metin2Client\eterLib\Pool.h
;	COMDAT ??__E?ms_kPool@?$CPooledObject@VCGravityDecorator@NEffectUpdateDecorator@@@@1V?$CDynamicPoolEx@VCGravityDecorator@NEffectUpdateDecorator@@@@A@@YAXXZ
text$di	SEGMENT
??__E?ms_kPool@?$CPooledObject@VCGravityDecorator@NEffectUpdateDecorator@@@@1V?$CDynamicPoolEx@VCGravityDecorator@NEffectUpdateDecorator@@@@A@@YAXXZ PROC ; `dynamic initializer for 'CPooledObject<NEffectUpdateDecorator::CGravityDecorator>::ms_kPool'', COMDAT

; 272  : template <class T> CDynamicPoolEx<T> CPooledObject<T>::ms_kPool;

  00000	68 00 00 00 00	 push	 OFFSET ??__F?ms_kPool@?$CPooledObject@VCGravityDecorator@NEffectUpdateDecorator@@@@1V?$CDynamicPoolEx@VCGravityDecorator@NEffectUpdateDecorator@@@@A@@YAXXZ ; `dynamic atexit destructor for 'CPooledObject<NEffectUpdateDecorator::CGravityDecorator>::ms_kPool''
  00005	e8 00 00 00 00	 call	 _atexit
  0000a	59		 pop	 ecx
  0000b	c3		 ret	 0
??__E?ms_kPool@?$CPooledObject@VCGravityDecorator@NEffectUpdateDecorator@@@@1V?$CDynamicPoolEx@VCGravityDecorator@NEffectUpdateDecorator@@@@A@@YAXXZ ENDP ; `dynamic initializer for 'CPooledObject<NEffectUpdateDecorator::CGravityDecorator>::ms_kPool''
text$di	ENDS
; Function compile flags: /Ogtp
;	COMDAT ??__F?ms_kPool@?$CPooledObject@VCAirResistanceDecorator@NEffectUpdateDecorator@@@@1V?$CDynamicPoolEx@VCAirResistanceDecorator@NEffectUpdateDecorator@@@@A@@YAXXZ
text$yd	SEGMENT
??__F?ms_kPool@?$CPooledObject@VCAirResistanceDecorator@NEffectUpdateDecorator@@@@1V?$CDynamicPoolEx@VCAirResistanceDecorator@NEffectUpdateDecorator@@@@A@@YAXXZ PROC ; `dynamic atexit destructor for 'CPooledObject<NEffectUpdateDecorator::CAirResistanceDecorator>::ms_kPool'', COMDAT
  00000	b9 00 00 00 00	 mov	 ecx, OFFSET ?ms_kPool@?$CPooledObject@VCAirResistanceDecorator@NEffectUpdateDecorator@@@@1V?$CDynamicPoolEx@VCAirResistanceDecorator@NEffectUpdateDecorator@@@@A ; CPooledObject<NEffectUpdateDecorator::CAirResistanceDecorator>::ms_kPool
  00005	e9 00 00 00 00	 jmp	 ??1?$CDynamicPoolEx@VCAirResistanceDecorator@NEffectUpdateDecorator@@@@UAE@XZ ; CDynamicPoolEx<NEffectUpdateDecorator::CAirResistanceDecorator>::~CDynamicPoolEx<NEffectUpdateDecorator::CAirResistanceDecorator>
??__F?ms_kPool@?$CPooledObject@VCAirResistanceDecorator@NEffectUpdateDecorator@@@@1V?$CDynamicPoolEx@VCAirResistanceDecorator@NEffectUpdateDecorator@@@@A@@YAXXZ ENDP ; `dynamic atexit destructor for 'CPooledObject<NEffectUpdateDecorator::CAirResistanceDecorator>::ms_kPool''
text$yd	ENDS
; Function compile flags: /Ogtp
; File D:\Metin2 Server Files\mainline\SRC_2014\Metin2Client\eterLib\Pool.h
;	COMDAT ??__E?ms_kPool@?$CPooledObject@VCAirResistanceDecorator@NEffectUpdateDecorator@@@@1V?$CDynamicPoolEx@VCAirResistanceDecorator@NEffectUpdateDecorator@@@@A@@YAXXZ
text$di	SEGMENT
??__E?ms_kPool@?$CPooledObject@VCAirResistanceDecorator@NEffectUpdateDecorator@@@@1V?$CDynamicPoolEx@VCAirResistanceDecorator@NEffectUpdateDecorator@@@@A@@YAXXZ PROC ; `dynamic initializer for 'CPooledObject<NEffectUpdateDecorator::CAirResistanceDecorator>::ms_kPool'', COMDAT

; 272  : template <class T> CDynamicPoolEx<T> CPooledObject<T>::ms_kPool;

  00000	68 00 00 00 00	 push	 OFFSET ??__F?ms_kPool@?$CPooledObject@VCAirResistanceDecorator@NEffectUpdateDecorator@@@@1V?$CDynamicPoolEx@VCAirResistanceDecorator@NEffectUpdateDecorator@@@@A@@YAXXZ ; `dynamic atexit destructor for 'CPooledObject<NEffectUpdateDecorator::CAirResistanceDecorator>::ms_kPool''
  00005	e8 00 00 00 00	 call	 _atexit
  0000a	59		 pop	 ecx
  0000b	c3		 ret	 0
??__E?ms_kPool@?$CPooledObject@VCAirResistanceDecorator@NEffectUpdateDecorator@@@@1V?$CDynamicPoolEx@VCAirResistanceDecorator@NEffectUpdateDecorator@@@@A@@YAXXZ ENDP ; `dynamic initializer for 'CPooledObject<NEffectUpdateDecorator::CAirResistanceDecorator>::ms_kPool''
text$di	ENDS
; Function compile flags: /Ogtp
;	COMDAT ??__F?ms_kPool@?$CPooledObject@VCTextureAnimationRandomDecorator@NEffectUpdateDecorator@@@@1V?$CDynamicPoolEx@VCTextureAnimationRandomDecorator@NEffectUpdateDecorator@@@@A@@YAXXZ
text$yd	SEGMENT
??__F?ms_kPool@?$CPooledObject@VCTextureAnimationRandomDecorator@NEffectUpdateDecorator@@@@1V?$CDynamicPoolEx@VCTextureAnimationRandomDecorator@NEffectUpdateDecorator@@@@A@@YAXXZ PROC ; `dynamic atexit destructor for 'CPooledObject<NEffectUpdateDecorator::CTextureAnimationRandomDecorator>::ms_kPool'', COMDAT
  00000	b9 00 00 00 00	 mov	 ecx, OFFSET ?ms_kPool@?$CPooledObject@VCTextureAnimationRandomDecorator@NEffectUpdateDecorator@@@@1V?$CDynamicPoolEx@VCTextureAnimationRandomDecorator@NEffectUpdateDecorator@@@@A ; CPooledObject<NEffectUpdateDecorator::CTextureAnimationRandomDecorator>::ms_kPool
  00005	e9 00 00 00 00	 jmp	 ??1?$CDynamicPoolEx@VCTextureAnimationRandomDecorator@NEffectUpdateDecorator@@@@UAE@XZ ; CDynamicPoolEx<NEffectUpdateDecorator::CTextureAnimationRandomDecorator>::~CDynamicPoolEx<NEffectUpdateDecorator::CTextureAnimationRandomDecorator>
??__F?ms_kPool@?$CPooledObject@VCTextureAnimationRandomDecorator@NEffectUpdateDecorator@@@@1V?$CDynamicPoolEx@VCTextureAnimationRandomDecorator@NEffectUpdateDecorator@@@@A@@YAXXZ ENDP ; `dynamic atexit destructor for 'CPooledObject<NEffectUpdateDecorator::CTextureAnimationRandomDecorator>::ms_kPool''
text$yd	ENDS
; Function compile flags: /Ogtp
; File D:\Metin2 Server Files\mainline\SRC_2014\Metin2Client\eterLib\Pool.h
;	COMDAT ??__E?ms_kPool@?$CPooledObject@VCTextureAnimationRandomDecorator@NEffectUpdateDecorator@@@@1V?$CDynamicPoolEx@VCTextureAnimationRandomDecorator@NEffectUpdateDecorator@@@@A@@YAXXZ
text$di	SEGMENT
??__E?ms_kPool@?$CPooledObject@VCTextureAnimationRandomDecorator@NEffectUpdateDecorator@@@@1V?$CDynamicPoolEx@VCTextureAnimationRandomDecorator@NEffectUpdateDecorator@@@@A@@YAXXZ PROC ; `dynamic initializer for 'CPooledObject<NEffectUpdateDecorator::CTextureAnimationRandomDecorator>::ms_kPool'', COMDAT

; 272  : template <class T> CDynamicPoolEx<T> CPooledObject<T>::ms_kPool;

  00000	68 00 00 00 00	 push	 OFFSET ??__F?ms_kPool@?$CPooledObject@VCTextureAnimationRandomDecorator@NEffectUpdateDecorator@@@@1V?$CDynamicPoolEx@VCTextureAnimationRandomDecorator@NEffectUpdateDecorator@@@@A@@YAXXZ ; `dynamic atexit destructor for 'CPooledObject<NEffectUpdateDecorator::CTextureAnimationRandomDecorator>::ms_kPool''
  00005	e8 00 00 00 00	 call	 _atexit
  0000a	59		 pop	 ecx
  0000b	c3		 ret	 0
??__E?ms_kPool@?$CPooledObject@VCTextureAnimationRandomDecorator@NEffectUpdateDecorator@@@@1V?$CDynamicPoolEx@VCTextureAnimationRandomDecorator@NEffectUpdateDecorator@@@@A@@YAXXZ ENDP ; `dynamic initializer for 'CPooledObject<NEffectUpdateDecorator::CTextureAnimationRandomDecorator>::ms_kPool''
text$di	ENDS
; Function compile flags: /Ogtp
;	COMDAT ??__F?ms_kPool@?$CPooledObject@VCTextureAnimationCCWDecorator@NEffectUpdateDecorator@@@@1V?$CDynamicPoolEx@VCTextureAnimationCCWDecorator@NEffectUpdateDecorator@@@@A@@YAXXZ
text$yd	SEGMENT
??__F?ms_kPool@?$CPooledObject@VCTextureAnimationCCWDecorator@NEffectUpdateDecorator@@@@1V?$CDynamicPoolEx@VCTextureAnimationCCWDecorator@NEffectUpdateDecorator@@@@A@@YAXXZ PROC ; `dynamic atexit destructor for 'CPooledObject<NEffectUpdateDecorator::CTextureAnimationCCWDecorator>::ms_kPool'', COMDAT
  00000	b9 00 00 00 00	 mov	 ecx, OFFSET ?ms_kPool@?$CPooledObject@VCTextureAnimationCCWDecorator@NEffectUpdateDecorator@@@@1V?$CDynamicPoolEx@VCTextureAnimationCCWDecorator@NEffectUpdateDecorator@@@@A ; CPooledObject<NEffectUpdateDecorator::CTextureAnimationCCWDecorator>::ms_kPool
  00005	e9 00 00 00 00	 jmp	 ??1?$CDynamicPoolEx@VCTextureAnimationCCWDecorator@NEffectUpdateDecorator@@@@UAE@XZ ; CDynamicPoolEx<NEffectUpdateDecorator::CTextureAnimationCCWDecorator>::~CDynamicPoolEx<NEffectUpdateDecorator::CTextureAnimationCCWDecorator>
??__F?ms_kPool@?$CPooledObject@VCTextureAnimationCCWDecorator@NEffectUpdateDecorator@@@@1V?$CDynamicPoolEx@VCTextureAnimationCCWDecorator@NEffectUpdateDecorator@@@@A@@YAXXZ ENDP ; `dynamic atexit destructor for 'CPooledObject<NEffectUpdateDecorator::CTextureAnimationCCWDecorator>::ms_kPool''
text$yd	ENDS
; Function compile flags: /Ogtp
; File D:\Metin2 Server Files\mainline\SRC_2014\Metin2Client\eterLib\Pool.h
;	COMDAT ??__E?ms_kPool@?$CPooledObject@VCTextureAnimationCCWDecorator@NEffectUpdateDecorator@@@@1V?$CDynamicPoolEx@VCTextureAnimationCCWDecorator@NEffectUpdateDecorator@@@@A@@YAXXZ
text$di	SEGMENT
??__E?ms_kPool@?$CPooledObject@VCTextureAnimationCCWDecorator@NEffectUpdateDecorator@@@@1V?$CDynamicPoolEx@VCTextureAnimationCCWDecorator@NEffectUpdateDecorator@@@@A@@YAXXZ PROC ; `dynamic initializer for 'CPooledObject<NEffectUpdateDecorator::CTextureAnimationCCWDecorator>::ms_kPool'', COMDAT

; 272  : template <class T> CDynamicPoolEx<T> CPooledObject<T>::ms_kPool;

  00000	68 00 00 00 00	 push	 OFFSET ??__F?ms_kPool@?$CPooledObject@VCTextureAnimationCCWDecorator@NEffectUpdateDecorator@@@@1V?$CDynamicPoolEx@VCTextureAnimationCCWDecorator@NEffectUpdateDecorator@@@@A@@YAXXZ ; `dynamic atexit destructor for 'CPooledObject<NEffectUpdateDecorator::CTextureAnimationCCWDecorator>::ms_kPool''
  00005	e8 00 00 00 00	 call	 _atexit
  0000a	59		 pop	 ecx
  0000b	c3		 ret	 0
??__E?ms_kPool@?$CPooledObject@VCTextureAnimationCCWDecorator@NEffectUpdateDecorator@@@@1V?$CDynamicPoolEx@VCTextureAnimationCCWDecorator@NEffectUpdateDecorator@@@@A@@YAXXZ ENDP ; `dynamic initializer for 'CPooledObject<NEffectUpdateDecorator::CTextureAnimationCCWDecorator>::ms_kPool''
text$di	ENDS
; Function compile flags: /Ogtp
;	COMDAT ??__F?ms_kPool@?$CPooledObject@VCTextureAnimationCWDecorator@NEffectUpdateDecorator@@@@1V?$CDynamicPoolEx@VCTextureAnimationCWDecorator@NEffectUpdateDecorator@@@@A@@YAXXZ
text$yd	SEGMENT
??__F?ms_kPool@?$CPooledObject@VCTextureAnimationCWDecorator@NEffectUpdateDecorator@@@@1V?$CDynamicPoolEx@VCTextureAnimationCWDecorator@NEffectUpdateDecorator@@@@A@@YAXXZ PROC ; `dynamic atexit destructor for 'CPooledObject<NEffectUpdateDecorator::CTextureAnimationCWDecorator>::ms_kPool'', COMDAT
  00000	b9 00 00 00 00	 mov	 ecx, OFFSET ?ms_kPool@?$CPooledObject@VCTextureAnimationCWDecorator@NEffectUpdateDecorator@@@@1V?$CDynamicPoolEx@VCTextureAnimationCWDecorator@NEffectUpdateDecorator@@@@A ; CPooledObject<NEffectUpdateDecorator::CTextureAnimationCWDecorator>::ms_kPool
  00005	e9 00 00 00 00	 jmp	 ??1?$CDynamicPoolEx@VCTextureAnimationCWDecorator@NEffectUpdateDecorator@@@@UAE@XZ ; CDynamicPoolEx<NEffectUpdateDecorator::CTextureAnimationCWDecorator>::~CDynamicPoolEx<NEffectUpdateDecorator::CTextureAnimationCWDecorator>
??__F?ms_kPool@?$CPooledObject@VCTextureAnimationCWDecorator@NEffectUpdateDecorator@@@@1V?$CDynamicPoolEx@VCTextureAnimationCWDecorator@NEffectUpdateDecorator@@@@A@@YAXXZ ENDP ; `dynamic atexit destructor for 'CPooledObject<NEffectUpdateDecorator::CTextureAnimationCWDecorator>::ms_kPool''
text$yd	ENDS
; Function compile flags: /Ogtp
; File D:\Metin2 Server Files\mainline\SRC_2014\Metin2Client\eterLib\Pool.h
;	COMDAT ??__E?ms_kPool@?$CPooledObject@VCTextureAnimationCWDecorator@NEffectUpdateDecorator@@@@1V?$CDynamicPoolEx@VCTextureAnimationCWDecorator@NEffectUpdateDecorator@@@@A@@YAXXZ
text$di	SEGMENT
??__E?ms_kPool@?$CPooledObject@VCTextureAnimationCWDecorator@NEffectUpdateDecorator@@@@1V?$CDynamicPoolEx@VCTextureAnimationCWDecorator@NEffectUpdateDecorator@@@@A@@YAXXZ PROC ; `dynamic initializer for 'CPooledObject<NEffectUpdateDecorator::CTextureAnimationCWDecorator>::ms_kPool'', COMDAT

; 272  : template <class T> CDynamicPoolEx<T> CPooledObject<T>::ms_kPool;

  00000	68 00 00 00 00	 push	 OFFSET ??__F?ms_kPool@?$CPooledObject@VCTextureAnimationCWDecorator@NEffectUpdateDecorator@@@@1V?$CDynamicPoolEx@VCTextureAnimationCWDecorator@NEffectUpdateDecorator@@@@A@@YAXXZ ; `dynamic atexit destructor for 'CPooledObject<NEffectUpdateDecorator::CTextureAnimationCWDecorator>::ms_kPool''
  00005	e8 00 00 00 00	 call	 _atexit
  0000a	59		 pop	 ecx
  0000b	c3		 ret	 0
??__E?ms_kPool@?$CPooledObject@VCTextureAnimationCWDecorator@NEffectUpdateDecorator@@@@1V?$CDynamicPoolEx@VCTextureAnimationCWDecorator@NEffectUpdateDecorator@@@@A@@YAXXZ ENDP ; `dynamic initializer for 'CPooledObject<NEffectUpdateDecorator::CTextureAnimationCWDecorator>::ms_kPool''
text$di	ENDS
; Function compile flags: /Ogtp
;	COMDAT ??__F?ms_kPool@?$CPooledObject@VCNullDecorator@NEffectUpdateDecorator@@@@1V?$CDynamicPoolEx@VCNullDecorator@NEffectUpdateDecorator@@@@A@@YAXXZ
text$yd	SEGMENT
??__F?ms_kPool@?$CPooledObject@VCNullDecorator@NEffectUpdateDecorator@@@@1V?$CDynamicPoolEx@VCNullDecorator@NEffectUpdateDecorator@@@@A@@YAXXZ PROC ; `dynamic atexit destructor for 'CPooledObject<NEffectUpdateDecorator::CNullDecorator>::ms_kPool'', COMDAT
  00000	b9 00 00 00 00	 mov	 ecx, OFFSET ?ms_kPool@?$CPooledObject@VCNullDecorator@NEffectUpdateDecorator@@@@1V?$CDynamicPoolEx@VCNullDecorator@NEffectUpdateDecorator@@@@A ; CPooledObject<NEffectUpdateDecorator::CNullDecorator>::ms_kPool
  00005	e9 00 00 00 00	 jmp	 ??1?$CDynamicPoolEx@VCNullDecorator@NEffectUpdateDecorator@@@@UAE@XZ ; CDynamicPoolEx<NEffectUpdateDecorator::CNullDecorator>::~CDynamicPoolEx<NEffectUpdateDecorator::CNullDecorator>
??__F?ms_kPool@?$CPooledObject@VCNullDecorator@NEffectUpdateDecorator@@@@1V?$CDynamicPoolEx@VCNullDecorator@NEffectUpdateDecorator@@@@A@@YAXXZ ENDP ; `dynamic atexit destructor for 'CPooledObject<NEffectUpdateDecorator::CNullDecorator>::ms_kPool''
text$yd	ENDS
; Function compile flags: /Ogtp
; File D:\Metin2 Server Files\mainline\SRC_2014\Metin2Client\eterLib\Pool.h
;	COMDAT ??__E?ms_kPool@?$CPooledObject@VCNullDecorator@NEffectUpdateDecorator@@@@1V?$CDynamicPoolEx@VCNullDecorator@NEffectUpdateDecorator@@@@A@@YAXXZ
text$di	SEGMENT
??__E?ms_kPool@?$CPooledObject@VCNullDecorator@NEffectUpdateDecorator@@@@1V?$CDynamicPoolEx@VCNullDecorator@NEffectUpdateDecorator@@@@A@@YAXXZ PROC ; `dynamic initializer for 'CPooledObject<NEffectUpdateDecorator::CNullDecorator>::ms_kPool'', COMDAT

; 272  : template <class T> CDynamicPoolEx<T> CPooledObject<T>::ms_kPool;

  00000	68 00 00 00 00	 push	 OFFSET ??__F?ms_kPool@?$CPooledObject@VCNullDecorator@NEffectUpdateDecorator@@@@1V?$CDynamicPoolEx@VCNullDecorator@NEffectUpdateDecorator@@@@A@@YAXXZ ; `dynamic atexit destructor for 'CPooledObject<NEffectUpdateDecorator::CNullDecorator>::ms_kPool''
  00005	e8 00 00 00 00	 call	 _atexit
  0000a	59		 pop	 ecx
  0000b	c3		 ret	 0
??__E?ms_kPool@?$CPooledObject@VCNullDecorator@NEffectUpdateDecorator@@@@1V?$CDynamicPoolEx@VCNullDecorator@NEffectUpdateDecorator@@@@A@@YAXXZ ENDP ; `dynamic initializer for 'CPooledObject<NEffectUpdateDecorator::CNullDecorator>::ms_kPool''
text$di	ENDS
; Function compile flags: /Ogtp
;	COMDAT ??__F?ms_kPool@?$CPooledObject@VCHeaderDecorator@NEffectUpdateDecorator@@@@1V?$CDynamicPoolEx@VCHeaderDecorator@NEffectUpdateDecorator@@@@A@@YAXXZ
text$yd	SEGMENT
??__F?ms_kPool@?$CPooledObject@VCHeaderDecorator@NEffectUpdateDecorator@@@@1V?$CDynamicPoolEx@VCHeaderDecorator@NEffectUpdateDecorator@@@@A@@YAXXZ PROC ; `dynamic atexit destructor for 'CPooledObject<NEffectUpdateDecorator::CHeaderDecorator>::ms_kPool'', COMDAT
  00000	b9 00 00 00 00	 mov	 ecx, OFFSET ?ms_kPool@?$CPooledObject@VCHeaderDecorator@NEffectUpdateDecorator@@@@1V?$CDynamicPoolEx@VCHeaderDecorator@NEffectUpdateDecorator@@@@A ; CPooledObject<NEffectUpdateDecorator::CHeaderDecorator>::ms_kPool
  00005	e9 00 00 00 00	 jmp	 ??1?$CDynamicPoolEx@VCHeaderDecorator@NEffectUpdateDecorator@@@@UAE@XZ ; CDynamicPoolEx<NEffectUpdateDecorator::CHeaderDecorator>::~CDynamicPoolEx<NEffectUpdateDecorator::CHeaderDecorator>
??__F?ms_kPool@?$CPooledObject@VCHeaderDecorator@NEffectUpdateDecorator@@@@1V?$CDynamicPoolEx@VCHeaderDecorator@NEffectUpdateDecorator@@@@A@@YAXXZ ENDP ; `dynamic atexit destructor for 'CPooledObject<NEffectUpdateDecorator::CHeaderDecorator>::ms_kPool''
text$yd	ENDS
; Function compile flags: /Ogtp
; File D:\Metin2 Server Files\mainline\SRC_2014\Metin2Client\eterLib\Pool.h
;	COMDAT ??__E?ms_kPool@?$CPooledObject@VCHeaderDecorator@NEffectUpdateDecorator@@@@1V?$CDynamicPoolEx@VCHeaderDecorator@NEffectUpdateDecorator@@@@A@@YAXXZ
text$di	SEGMENT
??__E?ms_kPool@?$CPooledObject@VCHeaderDecorator@NEffectUpdateDecorator@@@@1V?$CDynamicPoolEx@VCHeaderDecorator@NEffectUpdateDecorator@@@@A@@YAXXZ PROC ; `dynamic initializer for 'CPooledObject<NEffectUpdateDecorator::CHeaderDecorator>::ms_kPool'', COMDAT

; 272  : template <class T> CDynamicPoolEx<T> CPooledObject<T>::ms_kPool;

  00000	68 00 00 00 00	 push	 OFFSET ??__F?ms_kPool@?$CPooledObject@VCHeaderDecorator@NEffectUpdateDecorator@@@@1V?$CDynamicPoolEx@VCHeaderDecorator@NEffectUpdateDecorator@@@@A@@YAXXZ ; `dynamic atexit destructor for 'CPooledObject<NEffectUpdateDecorator::CHeaderDecorator>::ms_kPool''
  00005	e8 00 00 00 00	 call	 _atexit
  0000a	59		 pop	 ecx
  0000b	c3		 ret	 0
??__E?ms_kPool@?$CPooledObject@VCHeaderDecorator@NEffectUpdateDecorator@@@@1V?$CDynamicPoolEx@VCHeaderDecorator@NEffectUpdateDecorator@@@@A@@YAXXZ ENDP ; `dynamic initializer for 'CPooledObject<NEffectUpdateDecorator::CHeaderDecorator>::ms_kPool''
text$di	ENDS
; Function compile flags: /Ogtp
; File C:\Program Files (x86)\Microsoft Visual Studio\2019\Community\VC\Tools\MSVC\14.28.29333\include\xmemory
;	COMDAT ??$_Destroy_range@V?$allocator@PAVCRotationDecorator@NEffectUpdateDecorator@@@std@@@std@@YAXPAPAVCRotationDecorator@NEffectUpdateDecorator@@QAPAV12@AAV?$allocator@PAVCRotationDecorator@NEffectUpdateDecorator@@@0@@Z
_TEXT	SEGMENT
__First$ = 8						; size = 4
__Last$ = 12						; size = 4
__Al$ = 16						; size = 4
??$_Destroy_range@V?$allocator@PAVCRotationDecorator@NEffectUpdateDecorator@@@std@@@std@@YAXPAPAVCRotationDecorator@NEffectUpdateDecorator@@QAPAV12@AAV?$allocator@PAVCRotationDecorator@NEffectUpdateDecorator@@@0@@Z PROC ; std::_Destroy_range<std::allocator<NEffectUpdateDecorator::CRotationDecorator *> >, COMDAT

; 963  :     // note that this is an optimization for debug mode codegen; in release mode the BE removes all of this
; 964  :     using _Ty = typename _Alloc::value_type;
; 965  :     if _CONSTEXPR_IF (!conjunction_v<is_trivially_destructible<_Ty>, _Uses_default_destroy<_Alloc, _Ty*>>) {
; 966  :         for (; _First != _Last; ++_First) {
; 967  :             allocator_traits<_Alloc>::destroy(_Al, _Unfancy(_First));
; 968  :         }
; 969  :     }
; 970  : }

  00000	c2 00 00	 ret	 0
??$_Destroy_range@V?$allocator@PAVCRotationDecorator@NEffectUpdateDecorator@@@std@@@std@@YAXPAPAVCRotationDecorator@NEffectUpdateDecorator@@QAPAV12@AAV?$allocator@PAVCRotationDecorator@NEffectUpdateDecorator@@@0@@Z ENDP ; std::_Destroy_range<std::allocator<NEffectUpdateDecorator::CRotationDecorator *> >
_TEXT	ENDS
; Function compile flags: /Ogtp
; File C:\Program Files (x86)\Microsoft Visual Studio\2019\Community\VC\Tools\MSVC\14.28.29333\include\xmemory
;	COMDAT ??$_Destroy_range@V?$allocator@PAVCGravityDecorator@NEffectUpdateDecorator@@@std@@@std@@YAXPAPAVCGravityDecorator@NEffectUpdateDecorator@@QAPAV12@AAV?$allocator@PAVCGravityDecorator@NEffectUpdateDecorator@@@0@@Z
_TEXT	SEGMENT
__First$ = 8						; size = 4
__Last$ = 12						; size = 4
__Al$ = 16						; size = 4
??$_Destroy_range@V?$allocator@PAVCGravityDecorator@NEffectUpdateDecorator@@@std@@@std@@YAXPAPAVCGravityDecorator@NEffectUpdateDecorator@@QAPAV12@AAV?$allocator@PAVCGravityDecorator@NEffectUpdateDecorator@@@0@@Z PROC ; std::_Destroy_range<std::allocator<NEffectUpdateDecorator::CGravityDecorator *> >, COMDAT

; 963  :     // note that this is an optimization for debug mode codegen; in release mode the BE removes all of this
; 964  :     using _Ty = typename _Alloc::value_type;
; 965  :     if _CONSTEXPR_IF (!conjunction_v<is_trivially_destructible<_Ty>, _Uses_default_destroy<_Alloc, _Ty*>>) {
; 966  :         for (; _First != _Last; ++_First) {
; 967  :             allocator_traits<_Alloc>::destroy(_Al, _Unfancy(_First));
; 968  :         }
; 969  :     }
; 970  : }

  00000	c2 00 00	 ret	 0
??$_Destroy_range@V?$allocator@PAVCGravityDecorator@NEffectUpdateDecorator@@@std@@@std@@YAXPAPAVCGravityDecorator@NEffectUpdateDecorator@@QAPAV12@AAV?$allocator@PAVCGravityDecorator@NEffectUpdateDecorator@@@0@@Z ENDP ; std::_Destroy_range<std::allocator<NEffectUpdateDecorator::CGravityDecorator *> >
_TEXT	ENDS
; Function compile flags: /Ogtp
; File C:\Program Files (x86)\Microsoft Visual Studio\2019\Community\VC\Tools\MSVC\14.28.29333\include\xmemory
;	COMDAT ??$_Destroy_range@V?$allocator@PAVCAirResistanceDecorator@NEffectUpdateDecorator@@@std@@@std@@YAXPAPAVCAirResistanceDecorator@NEffectUpdateDecorator@@QAPAV12@AAV?$allocator@PAVCAirResistanceDecorator@NEffectUpdateDecorator@@@0@@Z
_TEXT	SEGMENT
__First$ = 8						; size = 4
__Last$ = 12						; size = 4
__Al$ = 16						; size = 4
??$_Destroy_range@V?$allocator@PAVCAirResistanceDecorator@NEffectUpdateDecorator@@@std@@@std@@YAXPAPAVCAirResistanceDecorator@NEffectUpdateDecorator@@QAPAV12@AAV?$allocator@PAVCAirResistanceDecorator@NEffectUpdateDecorator@@@0@@Z PROC ; std::_Destroy_range<std::allocator<NEffectUpdateDecorator::CAirResistanceDecorator *> >, COMDAT

; 963  :     // note that this is an optimization for debug mode codegen; in release mode the BE removes all of this
; 964  :     using _Ty = typename _Alloc::value_type;
; 965  :     if _CONSTEXPR_IF (!conjunction_v<is_trivially_destructible<_Ty>, _Uses_default_destroy<_Alloc, _Ty*>>) {
; 966  :         for (; _First != _Last; ++_First) {
; 967  :             allocator_traits<_Alloc>::destroy(_Al, _Unfancy(_First));
; 968  :         }
; 969  :     }
; 970  : }

  00000	c2 00 00	 ret	 0
??$_Destroy_range@V?$allocator@PAVCAirResistanceDecorator@NEffectUpdateDecorator@@@std@@@std@@YAXPAPAVCAirResistanceDecorator@NEffectUpdateDecorator@@QAPAV12@AAV?$allocator@PAVCAirResistanceDecorator@NEffectUpdateDecorator@@@0@@Z ENDP ; std::_Destroy_range<std::allocator<NEffectUpdateDecorator::CAirResistanceDecorator *> >
_TEXT	ENDS
; Function compile flags: /Ogtp
; File C:\Program Files (x86)\Microsoft Visual Studio\2019\Community\VC\Tools\MSVC\14.28.29333\include\xmemory
;	COMDAT ??$_Destroy_range@V?$allocator@PAVCTextureAnimationRandomDecorator@NEffectUpdateDecorator@@@std@@@std@@YAXPAPAVCTextureAnimationRandomDecorator@NEffectUpdateDecorator@@QAPAV12@AAV?$allocator@PAVCTextureAnimationRandomDecorator@NEffectUpdateDecorator@@@0@@Z
_TEXT	SEGMENT
__First$ = 8						; size = 4
__Last$ = 12						; size = 4
__Al$ = 16						; size = 4
??$_Destroy_range@V?$allocator@PAVCTextureAnimationRandomDecorator@NEffectUpdateDecorator@@@std@@@std@@YAXPAPAVCTextureAnimationRandomDecorator@NEffectUpdateDecorator@@QAPAV12@AAV?$allocator@PAVCTextureAnimationRandomDecorator@NEffectUpdateDecorator@@@0@@Z PROC ; std::_Destroy_range<std::allocator<NEffectUpdateDecorator::CTextureAnimationRandomDecorator *> >, COMDAT

; 963  :     // note that this is an optimization for debug mode codegen; in release mode the BE removes all of this
; 964  :     using _Ty = typename _Alloc::value_type;
; 965  :     if _CONSTEXPR_IF (!conjunction_v<is_trivially_destructible<_Ty>, _Uses_default_destroy<_Alloc, _Ty*>>) {
; 966  :         for (; _First != _Last; ++_First) {
; 967  :             allocator_traits<_Alloc>::destroy(_Al, _Unfancy(_First));
; 968  :         }
; 969  :     }
; 970  : }

  00000	c2 00 00	 ret	 0
??$_Destroy_range@V?$allocator@PAVCTextureAnimationRandomDecorator@NEffectUpdateDecorator@@@std@@@std@@YAXPAPAVCTextureAnimationRandomDecorator@NEffectUpdateDecorator@@QAPAV12@AAV?$allocator@PAVCTextureAnimationRandomDecorator@NEffectUpdateDecorator@@@0@@Z ENDP ; std::_Destroy_range<std::allocator<NEffectUpdateDecorator::CTextureAnimationRandomDecorator *> >
_TEXT	ENDS
; Function compile flags: /Ogtp
; File C:\Program Files (x86)\Microsoft Visual Studio\2019\Community\VC\Tools\MSVC\14.28.29333\include\xmemory
;	COMDAT ??$_Destroy_range@V?$allocator@PAVCTextureAnimationCCWDecorator@NEffectUpdateDecorator@@@std@@@std@@YAXPAPAVCTextureAnimationCCWDecorator@NEffectUpdateDecorator@@QAPAV12@AAV?$allocator@PAVCTextureAnimationCCWDecorator@NEffectUpdateDecorator@@@0@@Z
_TEXT	SEGMENT
__First$ = 8						; size = 4
__Last$ = 12						; size = 4
__Al$ = 16						; size = 4
??$_Destroy_range@V?$allocator@PAVCTextureAnimationCCWDecorator@NEffectUpdateDecorator@@@std@@@std@@YAXPAPAVCTextureAnimationCCWDecorator@NEffectUpdateDecorator@@QAPAV12@AAV?$allocator@PAVCTextureAnimationCCWDecorator@NEffectUpdateDecorator@@@0@@Z PROC ; std::_Destroy_range<std::allocator<NEffectUpdateDecorator::CTextureAnimationCCWDecorator *> >, COMDAT

; 963  :     // note that this is an optimization for debug mode codegen; in release mode the BE removes all of this
; 964  :     using _Ty = typename _Alloc::value_type;
; 965  :     if _CONSTEXPR_IF (!conjunction_v<is_trivially_destructible<_Ty>, _Uses_default_destroy<_Alloc, _Ty*>>) {
; 966  :         for (; _First != _Last; ++_First) {
; 967  :             allocator_traits<_Alloc>::destroy(_Al, _Unfancy(_First));
; 968  :         }
; 969  :     }
; 970  : }

  00000	c2 00 00	 ret	 0
??$_Destroy_range@V?$allocator@PAVCTextureAnimationCCWDecorator@NEffectUpdateDecorator@@@std@@@std@@YAXPAPAVCTextureAnimationCCWDecorator@NEffectUpdateDecorator@@QAPAV12@AAV?$allocator@PAVCTextureAnimationCCWDecorator@NEffectUpdateDecorator@@@0@@Z ENDP ; std::_Destroy_range<std::allocator<NEffectUpdateDecorator::CTextureAnimationCCWDecorator *> >
_TEXT	ENDS
; Function compile flags: /Ogtp
; File C:\Program Files (x86)\Microsoft Visual Studio\2019\Community\VC\Tools\MSVC\14.28.29333\include\xmemory
;	COMDAT ??$_Destroy_range@V?$allocator@PAVCTextureAnimationCWDecorator@NEffectUpdateDecorator@@@std@@@std@@YAXPAPAVCTextureAnimationCWDecorator@NEffectUpdateDecorator@@QAPAV12@AAV?$allocator@PAVCTextureAnimationCWDecorator@NEffectUpdateDecorator@@@0@@Z
_TEXT	SEGMENT
__First$ = 8						; size = 4
__Last$ = 12						; size = 4
__Al$ = 16						; size = 4
??$_Destroy_range@V?$allocator@PAVCTextureAnimationCWDecorator@NEffectUpdateDecorator@@@std@@@std@@YAXPAPAVCTextureAnimationCWDecorator@NEffectUpdateDecorator@@QAPAV12@AAV?$allocator@PAVCTextureAnimationCWDecorator@NEffectUpdateDecorator@@@0@@Z PROC ; std::_Destroy_range<std::allocator<NEffectUpdateDecorator::CTextureAnimationCWDecorator *> >, COMDAT

; 963  :     // note that this is an optimization for debug mode codegen; in release mode the BE removes all of this
; 964  :     using _Ty = typename _Alloc::value_type;
; 965  :     if _CONSTEXPR_IF (!conjunction_v<is_trivially_destructible<_Ty>, _Uses_default_destroy<_Alloc, _Ty*>>) {
; 966  :         for (; _First != _Last; ++_First) {
; 967  :             allocator_traits<_Alloc>::destroy(_Al, _Unfancy(_First));
; 968  :         }
; 969  :     }
; 970  : }

  00000	c2 00 00	 ret	 0
??$_Destroy_range@V?$allocator@PAVCTextureAnimationCWDecorator@NEffectUpdateDecorator@@@std@@@std@@YAXPAPAVCTextureAnimationCWDecorator@NEffectUpdateDecorator@@QAPAV12@AAV?$allocator@PAVCTextureAnimationCWDecorator@NEffectUpdateDecorator@@@0@@Z ENDP ; std::_Destroy_range<std::allocator<NEffectUpdateDecorator::CTextureAnimationCWDecorator *> >
_TEXT	ENDS
; Function compile flags: /Ogtp
; File C:\Program Files (x86)\Microsoft Visual Studio\2019\Community\VC\Tools\MSVC\14.28.29333\include\xmemory
;	COMDAT ??$_Destroy_range@V?$allocator@PAVCNullDecorator@NEffectUpdateDecorator@@@std@@@std@@YAXPAPAVCNullDecorator@NEffectUpdateDecorator@@QAPAV12@AAV?$allocator@PAVCNullDecorator@NEffectUpdateDecorator@@@0@@Z
_TEXT	SEGMENT
__First$ = 8						; size = 4
__Last$ = 12						; size = 4
__Al$ = 16						; size = 4
??$_Destroy_range@V?$allocator@PAVCNullDecorator@NEffectUpdateDecorator@@@std@@@std@@YAXPAPAVCNullDecorator@NEffectUpdateDecorator@@QAPAV12@AAV?$allocator@PAVCNullDecorator@NEffectUpdateDecorator@@@0@@Z PROC ; std::_Destroy_range<std::allocator<NEffectUpdateDecorator::CNullDecorator *> >, COMDAT

; 963  :     // note that this is an optimization for debug mode codegen; in release mode the BE removes all of this
; 964  :     using _Ty = typename _Alloc::value_type;
; 965  :     if _CONSTEXPR_IF (!conjunction_v<is_trivially_destructible<_Ty>, _Uses_default_destroy<_Alloc, _Ty*>>) {
; 966  :         for (; _First != _Last; ++_First) {
; 967  :             allocator_traits<_Alloc>::destroy(_Al, _Unfancy(_First));
; 968  :         }
; 969  :     }
; 970  : }

  00000	c2 00 00	 ret	 0
??$_Destroy_range@V?$allocator@PAVCNullDecorator@NEffectUpdateDecorator@@@std@@@std@@YAXPAPAVCNullDecorator@NEffectUpdateDecorator@@QAPAV12@AAV?$allocator@PAVCNullDecorator@NEffectUpdateDecorator@@@0@@Z ENDP ; std::_Destroy_range<std::allocator<NEffectUpdateDecorator::CNullDecorator *> >
_TEXT	ENDS
; Function compile flags: /Ogtp
; File C:\Program Files (x86)\Microsoft Visual Studio\2019\Community\VC\Tools\MSVC\14.28.29333\include\xmemory
;	COMDAT ??$_Destroy_range@V?$allocator@PAVCHeaderDecorator@NEffectUpdateDecorator@@@std@@@std@@YAXPAPAVCHeaderDecorator@NEffectUpdateDecorator@@QAPAV12@AAV?$allocator@PAVCHeaderDecorator@NEffectUpdateDecorator@@@0@@Z
_TEXT	SEGMENT
__First$ = 8						; size = 4
__Last$ = 12						; size = 4
__Al$ = 16						; size = 4
??$_Destroy_range@V?$allocator@PAVCHeaderDecorator@NEffectUpdateDecorator@@@std@@@std@@YAXPAPAVCHeaderDecorator@NEffectUpdateDecorator@@QAPAV12@AAV?$allocator@PAVCHeaderDecorator@NEffectUpdateDecorator@@@0@@Z PROC ; std::_Destroy_range<std::allocator<NEffectUpdateDecorator::CHeaderDecorator *> >, COMDAT

; 963  :     // note that this is an optimization for debug mode codegen; in release mode the BE removes all of this
; 964  :     using _Ty = typename _Alloc::value_type;
; 965  :     if _CONSTEXPR_IF (!conjunction_v<is_trivially_destructible<_Ty>, _Uses_default_destroy<_Alloc, _Ty*>>) {
; 966  :         for (; _First != _Last; ++_First) {
; 967  :             allocator_traits<_Alloc>::destroy(_Al, _Unfancy(_First));
; 968  :         }
; 969  :     }
; 970  : }

  00000	c2 00 00	 ret	 0
??$_Destroy_range@V?$allocator@PAVCHeaderDecorator@NEffectUpdateDecorator@@@std@@@std@@YAXPAPAVCHeaderDecorator@NEffectUpdateDecorator@@QAPAV12@AAV?$allocator@PAVCHeaderDecorator@NEffectUpdateDecorator@@@0@@Z ENDP ; std::_Destroy_range<std::allocator<NEffectUpdateDecorator::CHeaderDecorator *> >
_TEXT	ENDS
; Function compile flags: /Ogtp
;	COMDAT ??_G?$CDynamicPoolEx@VCHeaderDecorator@NEffectUpdateDecorator@@@@UAEPAXI@Z
_TEXT	SEGMENT
___flags$ = 8						; size = 4
??_G?$CDynamicPoolEx@VCHeaderDecorator@NEffectUpdateDecorator@@@@UAEPAXI@Z PROC ; CDynamicPoolEx<NEffectUpdateDecorator::CHeaderDecorator>::`scalar deleting destructor', COMDAT
; _this$ = ecx
  00000	55		 push	 ebp
  00001	8b ec		 mov	 ebp, esp
  00003	56		 push	 esi
  00004	8b f1		 mov	 esi, ecx
  00006	e8 00 00 00 00	 call	 ??1?$CDynamicPoolEx@VCHeaderDecorator@NEffectUpdateDecorator@@@@UAE@XZ ; CDynamicPoolEx<NEffectUpdateDecorator::CHeaderDecorator>::~CDynamicPoolEx<NEffectUpdateDecorator::CHeaderDecorator>
  0000b	f6 45 08 01	 test	 BYTE PTR ___flags$[ebp], 1
  0000f	74 0b		 je	 SHORT $LN4@scalar
  00011	6a 24		 push	 36			; 00000024H
  00013	56		 push	 esi
  00014	e8 00 00 00 00	 call	 ??3@YAXPAXI@Z		; operator delete
  00019	83 c4 08	 add	 esp, 8
$LN4@scalar:
  0001c	8b c6		 mov	 eax, esi
  0001e	5e		 pop	 esi
  0001f	5d		 pop	 ebp
  00020	c2 04 00	 ret	 4
??_G?$CDynamicPoolEx@VCHeaderDecorator@NEffectUpdateDecorator@@@@UAEPAXI@Z ENDP ; CDynamicPoolEx<NEffectUpdateDecorator::CHeaderDecorator>::`scalar deleting destructor'
_TEXT	ENDS
; Function compile flags: /Ogtp
; File D:\Metin2 Server Files\mainline\SRC_2014\Metin2Client\eterLib\Pool.h
;	COMDAT ?Delete@?$CDynamicPoolEx@VCHeaderDecorator@NEffectUpdateDecorator@@@@KAXPAVCHeaderDecorator@NEffectUpdateDecorator@@@Z
_TEXT	SEGMENT
_pkData$ = 8						; size = 4
?Delete@?$CDynamicPoolEx@VCHeaderDecorator@NEffectUpdateDecorator@@@@KAXPAVCHeaderDecorator@NEffectUpdateDecorator@@@Z PROC ; CDynamicPoolEx<NEffectUpdateDecorator::CHeaderDecorator>::Delete, COMDAT

; 224  : 			::operator delete(pkData);

  00000	e9 00 00 00 00	 jmp	 ??3@YAXPAX@Z		; operator delete
?Delete@?$CDynamicPoolEx@VCHeaderDecorator@NEffectUpdateDecorator@@@@KAXPAVCHeaderDecorator@NEffectUpdateDecorator@@@Z ENDP ; CDynamicPoolEx<NEffectUpdateDecorator::CHeaderDecorator>::Delete
_TEXT	ENDS
; Function compile flags: /Ogtp
; File D:\Metin2 Server Files\mainline\SRC_2014\Metin2Client\eterLib\Pool.h
; File C:\Program Files (x86)\Microsoft Visual Studio\2019\Community\VC\Tools\MSVC\14.28.29333\include\vector
; File C:\Program Files (x86)\Microsoft Visual Studio\2019\Community\VC\Tools\MSVC\14.28.29333\include\algorithm
; File D:\Metin2 Server Files\mainline\SRC_2014\Metin2Client\eterLib\Pool.h
; File C:\Program Files (x86)\Microsoft Visual Studio\2019\Community\VC\Tools\MSVC\14.28.29333\include\algorithm
; File D:\Metin2 Server Files\mainline\SRC_2014\Metin2Client\eterLib\Pool.h
; File C:\Program Files (x86)\Microsoft Visual Studio\2019\Community\VC\Tools\MSVC\14.28.29333\include\algorithm
; File D:\Metin2 Server Files\mainline\SRC_2014\Metin2Client\eterLib\Pool.h
; File C:\Program Files (x86)\Microsoft Visual Studio\2019\Community\VC\Tools\MSVC\14.28.29333\include\vector
; File C:\Program Files (x86)\Microsoft Visual Studio\2019\Community\VC\Tools\MSVC\14.28.29333\include\xmemory
; File C:\Program Files (x86)\Microsoft Visual Studio\2019\Community\VC\Tools\MSVC\14.28.29333\include\vector
; File C:\Program Files (x86)\Microsoft Visual Studio\2019\Community\VC\Tools\MSVC\14.28.29333\include\xmemory
; File C:\Program Files (x86)\Microsoft Visual Studio\2019\Community\VC\Tools\MSVC\14.28.29333\include\vector
; File C:\Program Files (x86)\Microsoft Visual Studio\2019\Community\VC\Tools\MSVC\14.28.29333\include\xmemory
; File C:\Program Files (x86)\Microsoft Visual Studio\2019\Community\VC\Tools\MSVC\14.28.29333\include\vector
; File C:\Program Files (x86)\Microsoft Visual Studio\2019\Community\VC\Tools\MSVC\14.28.29333\include\xmemory
; File C:\Program Files (x86)\Microsoft Visual Studio\2019\Community\VC\Tools\MSVC\14.28.29333\include\vector
; File D:\Metin2 Server Files\mainline\SRC_2014\Metin2Client\eterLib\Pool.h
;	COMDAT ??1?$CDynamicPoolEx@VCHeaderDecorator@NEffectUpdateDecorator@@@@UAE@XZ
_TEXT	SEGMENT
??1?$CDynamicPoolEx@VCHeaderDecorator@NEffectUpdateDecorator@@@@UAE@XZ PROC ; CDynamicPoolEx<NEffectUpdateDecorator::CHeaderDecorator>::~CDynamicPoolEx<NEffectUpdateDecorator::CHeaderDecorator>, COMDAT
; _this$ = ecx

; 132  : 		{

  00000	53		 push	 ebx
  00001	56		 push	 esi
  00002	57		 push	 edi
  00003	8b f9		 mov	 edi, ecx
  00005	c7 07 00 00 00
	00		 mov	 DWORD PTR [edi], OFFSET ??_7?$CDynamicPoolEx@VCHeaderDecorator@NEffectUpdateDecorator@@@@6B@
; File C:\Program Files (x86)\Microsoft Visual Studio\2019\Community\VC\Tools\MSVC\14.28.29333\include\vector

; 42   :     _Vector_const_iterator(_Tptr _Parg, const _Container_base* _Pvector) noexcept : _Ptr(_Parg) {

  0000b	8b 5f 08	 mov	 ebx, DWORD PTR [edi+8]
  0000e	8b 77 04	 mov	 esi, DWORD PTR [edi+4]
; File C:\Program Files (x86)\Microsoft Visual Studio\2019\Community\VC\Tools\MSVC\14.28.29333\include\algorithm

; 307  :     for (; _UFirst != _ULast; ++_UFirst) {

  00011	3b f3		 cmp	 esi, ebx
  00013	74 14		 je	 SHORT $LN19@CDynamicPo
$LL20@CDynamicPo:
; File D:\Metin2 Server Files\mainline\SRC_2014\Metin2Client\eterLib\Pool.h

; 224  : 			::operator delete(pkData);

  00015	ff 36		 push	 DWORD PTR [esi]
  00017	e8 00 00 00 00	 call	 ??3@YAXPAX@Z		; operator delete
; File C:\Program Files (x86)\Microsoft Visual Studio\2019\Community\VC\Tools\MSVC\14.28.29333\include\algorithm

; 307  :     for (; _UFirst != _ULast; ++_UFirst) {

  0001c	83 c6 04	 add	 esi, 4
; File D:\Metin2 Server Files\mainline\SRC_2014\Metin2Client\eterLib\Pool.h

; 224  : 			::operator delete(pkData);

  0001f	83 c4 04	 add	 esp, 4
; File C:\Program Files (x86)\Microsoft Visual Studio\2019\Community\VC\Tools\MSVC\14.28.29333\include\algorithm

; 307  :     for (; _UFirst != _ULast; ++_UFirst) {

  00022	3b f3		 cmp	 esi, ebx
  00024	75 ef		 jne	 SHORT $LL20@CDynamicPo
  00026	8b 77 04	 mov	 esi, DWORD PTR [edi+4]
$LN19@CDynamicPo:
; File D:\Metin2 Server Files\mainline\SRC_2014\Metin2Client\eterLib\Pool.h

; 162  : 			m_kVct_pkFree.clear();

  00029	8b 4f 10	 mov	 ecx, DWORD PTR [edi+16]
  0002c	89 77 08	 mov	 DWORD PTR [edi+8], esi
  0002f	89 4f 14	 mov	 DWORD PTR [edi+20], ecx
; File C:\Program Files (x86)\Microsoft Visual Studio\2019\Community\VC\Tools\MSVC\14.28.29333\include\vector

; 1694 :         if (_Myfirst) { // destroy and deallocate old array

  00032	85 c9		 test	 ecx, ecx
  00034	74 27		 je	 SHORT $LN27@CDynamicPo

; 1695 :             _Destroy(_Myfirst, _Mylast);
; 1696 :             _Getal().deallocate(_Myfirst, static_cast<size_type>(_Myend - _Myfirst));

  00036	8b 47 18	 mov	 eax, DWORD PTR [edi+24]
  00039	2b c1		 sub	 eax, ecx
; File C:\Program Files (x86)\Microsoft Visual Studio\2019\Community\VC\Tools\MSVC\14.28.29333\include\xmemory

; 810  :         _Deallocate<_New_alignof<_Ty>>(_Ptr, sizeof(_Ty) * _Count);

  0003b	83 e0 fc	 and	 eax, -4			; fffffffcH
  0003e	50		 push	 eax
  0003f	51		 push	 ecx
  00040	e8 00 00 00 00	 call	 ??$_Deallocate@$07$0A@@std@@YAXPAXI@Z ; std::_Deallocate<8,0>
; File C:\Program Files (x86)\Microsoft Visual Studio\2019\Community\VC\Tools\MSVC\14.28.29333\include\vector

; 1698 :             _Myfirst = pointer();

  00045	c7 47 10 00 00
	00 00		 mov	 DWORD PTR [edi+16], 0
; File C:\Program Files (x86)\Microsoft Visual Studio\2019\Community\VC\Tools\MSVC\14.28.29333\include\xmemory

; 810  :         _Deallocate<_New_alignof<_Ty>>(_Ptr, sizeof(_Ty) * _Count);

  0004c	83 c4 08	 add	 esp, 8
; File C:\Program Files (x86)\Microsoft Visual Studio\2019\Community\VC\Tools\MSVC\14.28.29333\include\vector

; 1699 :             _Mylast  = pointer();

  0004f	c7 47 14 00 00
	00 00		 mov	 DWORD PTR [edi+20], 0

; 1700 :             _Myend   = pointer();

  00056	c7 47 18 00 00
	00 00		 mov	 DWORD PTR [edi+24], 0
$LN27@CDynamicPo:

; 1694 :         if (_Myfirst) { // destroy and deallocate old array

  0005d	8b 4f 04	 mov	 ecx, DWORD PTR [edi+4]
  00060	85 c9		 test	 ecx, ecx
  00062	74 27		 je	 SHORT $LN34@CDynamicPo

; 1695 :             _Destroy(_Myfirst, _Mylast);
; 1696 :             _Getal().deallocate(_Myfirst, static_cast<size_type>(_Myend - _Myfirst));

  00064	8b 47 0c	 mov	 eax, DWORD PTR [edi+12]
  00067	2b c1		 sub	 eax, ecx
; File C:\Program Files (x86)\Microsoft Visual Studio\2019\Community\VC\Tools\MSVC\14.28.29333\include\xmemory

; 810  :         _Deallocate<_New_alignof<_Ty>>(_Ptr, sizeof(_Ty) * _Count);

  00069	83 e0 fc	 and	 eax, -4			; fffffffcH
  0006c	50		 push	 eax
  0006d	51		 push	 ecx
  0006e	e8 00 00 00 00	 call	 ??$_Deallocate@$07$0A@@std@@YAXPAXI@Z ; std::_Deallocate<8,0>
; File C:\Program Files (x86)\Microsoft Visual Studio\2019\Community\VC\Tools\MSVC\14.28.29333\include\vector

; 1698 :             _Myfirst = pointer();

  00073	c7 47 04 00 00
	00 00		 mov	 DWORD PTR [edi+4], 0
; File C:\Program Files (x86)\Microsoft Visual Studio\2019\Community\VC\Tools\MSVC\14.28.29333\include\xmemory

; 810  :         _Deallocate<_New_alignof<_Ty>>(_Ptr, sizeof(_Ty) * _Count);

  0007a	83 c4 08	 add	 esp, 8
; File C:\Program Files (x86)\Microsoft Visual Studio\2019\Community\VC\Tools\MSVC\14.28.29333\include\vector

; 1699 :             _Mylast  = pointer();

  0007d	c7 47 08 00 00
	00 00		 mov	 DWORD PTR [edi+8], 0

; 1700 :             _Myend   = pointer();

  00084	c7 47 0c 00 00
	00 00		 mov	 DWORD PTR [edi+12], 0
$LN34@CDynamicPo:
  0008b	5f		 pop	 edi
; File D:\Metin2 Server Files\mainline\SRC_2014\Metin2Client\eterLib\Pool.h

; 142  : 		}

  0008c	5e		 pop	 esi
  0008d	5b		 pop	 ebx
  0008e	c3		 ret	 0
??1?$CDynamicPoolEx@VCHeaderDecorator@NEffectUpdateDecorator@@@@UAE@XZ ENDP ; CDynamicPoolEx<NEffectUpdateDecorator::CHeaderDecorator>::~CDynamicPoolEx<NEffectUpdateDecorator::CHeaderDecorator>
_TEXT	ENDS
; Function compile flags: /Ogtp
;	COMDAT ??_G?$CDynamicPoolEx@VCNullDecorator@NEffectUpdateDecorator@@@@UAEPAXI@Z
_TEXT	SEGMENT
___flags$ = 8						; size = 4
??_G?$CDynamicPoolEx@VCNullDecorator@NEffectUpdateDecorator@@@@UAEPAXI@Z PROC ; CDynamicPoolEx<NEffectUpdateDecorator::CNullDecorator>::`scalar deleting destructor', COMDAT
; _this$ = ecx
  00000	55		 push	 ebp
  00001	8b ec		 mov	 ebp, esp
  00003	56		 push	 esi
  00004	8b f1		 mov	 esi, ecx
  00006	e8 00 00 00 00	 call	 ??1?$CDynamicPoolEx@VCNullDecorator@NEffectUpdateDecorator@@@@UAE@XZ ; CDynamicPoolEx<NEffectUpdateDecorator::CNullDecorator>::~CDynamicPoolEx<NEffectUpdateDecorator::CNullDecorator>
  0000b	f6 45 08 01	 test	 BYTE PTR ___flags$[ebp], 1
  0000f	74 0b		 je	 SHORT $LN4@scalar
  00011	6a 24		 push	 36			; 00000024H
  00013	56		 push	 esi
  00014	e8 00 00 00 00	 call	 ??3@YAXPAXI@Z		; operator delete
  00019	83 c4 08	 add	 esp, 8
$LN4@scalar:
  0001c	8b c6		 mov	 eax, esi
  0001e	5e		 pop	 esi
  0001f	5d		 pop	 ebp
  00020	c2 04 00	 ret	 4
??_G?$CDynamicPoolEx@VCNullDecorator@NEffectUpdateDecorator@@@@UAEPAXI@Z ENDP ; CDynamicPoolEx<NEffectUpdateDecorator::CNullDecorator>::`scalar deleting destructor'
_TEXT	ENDS
; Function compile flags: /Ogtp
; File D:\Metin2 Server Files\mainline\SRC_2014\Metin2Client\eterLib\Pool.h
;	COMDAT ?Delete@?$CDynamicPoolEx@VCNullDecorator@NEffectUpdateDecorator@@@@KAXPAVCNullDecorator@NEffectUpdateDecorator@@@Z
_TEXT	SEGMENT
_pkData$ = 8						; size = 4
?Delete@?$CDynamicPoolEx@VCNullDecorator@NEffectUpdateDecorator@@@@KAXPAVCNullDecorator@NEffectUpdateDecorator@@@Z PROC ; CDynamicPoolEx<NEffectUpdateDecorator::CNullDecorator>::Delete, COMDAT

; 224  : 			::operator delete(pkData);

  00000	e9 00 00 00 00	 jmp	 ??3@YAXPAX@Z		; operator delete
?Delete@?$CDynamicPoolEx@VCNullDecorator@NEffectUpdateDecorator@@@@KAXPAVCNullDecorator@NEffectUpdateDecorator@@@Z ENDP ; CDynamicPoolEx<NEffectUpdateDecorator::CNullDecorator>::Delete
_TEXT	ENDS
; Function compile flags: /Ogtp
; File D:\Metin2 Server Files\mainline\SRC_2014\Metin2Client\eterLib\Pool.h
; File C:\Program Files (x86)\Microsoft Visual Studio\2019\Community\VC\Tools\MSVC\14.28.29333\include\vector
; File C:\Program Files (x86)\Microsoft Visual Studio\2019\Community\VC\Tools\MSVC\14.28.29333\include\algorithm
; File D:\Metin2 Server Files\mainline\SRC_2014\Metin2Client\eterLib\Pool.h
; File C:\Program Files (x86)\Microsoft Visual Studio\2019\Community\VC\Tools\MSVC\14.28.29333\include\algorithm
; File D:\Metin2 Server Files\mainline\SRC_2014\Metin2Client\eterLib\Pool.h
; File C:\Program Files (x86)\Microsoft Visual Studio\2019\Community\VC\Tools\MSVC\14.28.29333\include\algorithm
; File D:\Metin2 Server Files\mainline\SRC_2014\Metin2Client\eterLib\Pool.h
; File C:\Program Files (x86)\Microsoft Visual Studio\2019\Community\VC\Tools\MSVC\14.28.29333\include\vector
; File C:\Program Files (x86)\Microsoft Visual Studio\2019\Community\VC\Tools\MSVC\14.28.29333\include\xmemory
; File C:\Program Files (x86)\Microsoft Visual Studio\2019\Community\VC\Tools\MSVC\14.28.29333\include\vector
; File C:\Program Files (x86)\Microsoft Visual Studio\2019\Community\VC\Tools\MSVC\14.28.29333\include\xmemory
; File C:\Program Files (x86)\Microsoft Visual Studio\2019\Community\VC\Tools\MSVC\14.28.29333\include\vector
; File C:\Program Files (x86)\Microsoft Visual Studio\2019\Community\VC\Tools\MSVC\14.28.29333\include\xmemory
; File C:\Program Files (x86)\Microsoft Visual Studio\2019\Community\VC\Tools\MSVC\14.28.29333\include\vector
; File C:\Program Files (x86)\Microsoft Visual Studio\2019\Community\VC\Tools\MSVC\14.28.29333\include\xmemory
; File C:\Program Files (x86)\Microsoft Visual Studio\2019\Community\VC\Tools\MSVC\14.28.29333\include\vector
; File D:\Metin2 Server Files\mainline\SRC_2014\Metin2Client\eterLib\Pool.h
;	COMDAT ??1?$CDynamicPoolEx@VCNullDecorator@NEffectUpdateDecorator@@@@UAE@XZ
_TEXT	SEGMENT
??1?$CDynamicPoolEx@VCNullDecorator@NEffectUpdateDecorator@@@@UAE@XZ PROC ; CDynamicPoolEx<NEffectUpdateDecorator::CNullDecorator>::~CDynamicPoolEx<NEffectUpdateDecorator::CNullDecorator>, COMDAT
; _this$ = ecx

; 132  : 		{

  00000	53		 push	 ebx
  00001	56		 push	 esi
  00002	57		 push	 edi
  00003	8b f9		 mov	 edi, ecx
  00005	c7 07 00 00 00
	00		 mov	 DWORD PTR [edi], OFFSET ??_7?$CDynamicPoolEx@VCNullDecorator@NEffectUpdateDecorator@@@@6B@
; File C:\Program Files (x86)\Microsoft Visual Studio\2019\Community\VC\Tools\MSVC\14.28.29333\include\vector

; 42   :     _Vector_const_iterator(_Tptr _Parg, const _Container_base* _Pvector) noexcept : _Ptr(_Parg) {

  0000b	8b 5f 08	 mov	 ebx, DWORD PTR [edi+8]
  0000e	8b 77 04	 mov	 esi, DWORD PTR [edi+4]
; File C:\Program Files (x86)\Microsoft Visual Studio\2019\Community\VC\Tools\MSVC\14.28.29333\include\algorithm

; 307  :     for (; _UFirst != _ULast; ++_UFirst) {

  00011	3b f3		 cmp	 esi, ebx
  00013	74 14		 je	 SHORT $LN19@CDynamicPo
$LL20@CDynamicPo:
; File D:\Metin2 Server Files\mainline\SRC_2014\Metin2Client\eterLib\Pool.h

; 224  : 			::operator delete(pkData);

  00015	ff 36		 push	 DWORD PTR [esi]
  00017	e8 00 00 00 00	 call	 ??3@YAXPAX@Z		; operator delete
; File C:\Program Files (x86)\Microsoft Visual Studio\2019\Community\VC\Tools\MSVC\14.28.29333\include\algorithm

; 307  :     for (; _UFirst != _ULast; ++_UFirst) {

  0001c	83 c6 04	 add	 esi, 4
; File D:\Metin2 Server Files\mainline\SRC_2014\Metin2Client\eterLib\Pool.h

; 224  : 			::operator delete(pkData);

  0001f	83 c4 04	 add	 esp, 4
; File C:\Program Files (x86)\Microsoft Visual Studio\2019\Community\VC\Tools\MSVC\14.28.29333\include\algorithm

; 307  :     for (; _UFirst != _ULast; ++_UFirst) {

  00022	3b f3		 cmp	 esi, ebx
  00024	75 ef		 jne	 SHORT $LL20@CDynamicPo
  00026	8b 77 04	 mov	 esi, DWORD PTR [edi+4]
$LN19@CDynamicPo:
; File D:\Metin2 Server Files\mainline\SRC_2014\Metin2Client\eterLib\Pool.h

; 162  : 			m_kVct_pkFree.clear();

  00029	8b 4f 10	 mov	 ecx, DWORD PTR [edi+16]
  0002c	89 77 08	 mov	 DWORD PTR [edi+8], esi
  0002f	89 4f 14	 mov	 DWORD PTR [edi+20], ecx
; File C:\Program Files (x86)\Microsoft Visual Studio\2019\Community\VC\Tools\MSVC\14.28.29333\include\vector

; 1694 :         if (_Myfirst) { // destroy and deallocate old array

  00032	85 c9		 test	 ecx, ecx
  00034	74 27		 je	 SHORT $LN27@CDynamicPo

; 1695 :             _Destroy(_Myfirst, _Mylast);
; 1696 :             _Getal().deallocate(_Myfirst, static_cast<size_type>(_Myend - _Myfirst));

  00036	8b 47 18	 mov	 eax, DWORD PTR [edi+24]
  00039	2b c1		 sub	 eax, ecx
; File C:\Program Files (x86)\Microsoft Visual Studio\2019\Community\VC\Tools\MSVC\14.28.29333\include\xmemory

; 810  :         _Deallocate<_New_alignof<_Ty>>(_Ptr, sizeof(_Ty) * _Count);

  0003b	83 e0 fc	 and	 eax, -4			; fffffffcH
  0003e	50		 push	 eax
  0003f	51		 push	 ecx
  00040	e8 00 00 00 00	 call	 ??$_Deallocate@$07$0A@@std@@YAXPAXI@Z ; std::_Deallocate<8,0>
; File C:\Program Files (x86)\Microsoft Visual Studio\2019\Community\VC\Tools\MSVC\14.28.29333\include\vector

; 1698 :             _Myfirst = pointer();

  00045	c7 47 10 00 00
	00 00		 mov	 DWORD PTR [edi+16], 0
; File C:\Program Files (x86)\Microsoft Visual Studio\2019\Community\VC\Tools\MSVC\14.28.29333\include\xmemory

; 810  :         _Deallocate<_New_alignof<_Ty>>(_Ptr, sizeof(_Ty) * _Count);

  0004c	83 c4 08	 add	 esp, 8
; File C:\Program Files (x86)\Microsoft Visual Studio\2019\Community\VC\Tools\MSVC\14.28.29333\include\vector

; 1699 :             _Mylast  = pointer();

  0004f	c7 47 14 00 00
	00 00		 mov	 DWORD PTR [edi+20], 0

; 1700 :             _Myend   = pointer();

  00056	c7 47 18 00 00
	00 00		 mov	 DWORD PTR [edi+24], 0
$LN27@CDynamicPo:

; 1694 :         if (_Myfirst) { // destroy and deallocate old array

  0005d	8b 4f 04	 mov	 ecx, DWORD PTR [edi+4]
  00060	85 c9		 test	 ecx, ecx
  00062	74 27		 je	 SHORT $LN34@CDynamicPo

; 1695 :             _Destroy(_Myfirst, _Mylast);
; 1696 :             _Getal().deallocate(_Myfirst, static_cast<size_type>(_Myend - _Myfirst));

  00064	8b 47 0c	 mov	 eax, DWORD PTR [edi+12]
  00067	2b c1		 sub	 eax, ecx
; File C:\Program Files (x86)\Microsoft Visual Studio\2019\Community\VC\Tools\MSVC\14.28.29333\include\xmemory

; 810  :         _Deallocate<_New_alignof<_Ty>>(_Ptr, sizeof(_Ty) * _Count);

  00069	83 e0 fc	 and	 eax, -4			; fffffffcH
  0006c	50		 push	 eax
  0006d	51		 push	 ecx
  0006e	e8 00 00 00 00	 call	 ??$_Deallocate@$07$0A@@std@@YAXPAXI@Z ; std::_Deallocate<8,0>
; File C:\Program Files (x86)\Microsoft Visual Studio\2019\Community\VC\Tools\MSVC\14.28.29333\include\vector

; 1698 :             _Myfirst = pointer();

  00073	c7 47 04 00 00
	00 00		 mov	 DWORD PTR [edi+4], 0
; File C:\Program Files (x86)\Microsoft Visual Studio\2019\Community\VC\Tools\MSVC\14.28.29333\include\xmemory

; 810  :         _Deallocate<_New_alignof<_Ty>>(_Ptr, sizeof(_Ty) * _Count);

  0007a	83 c4 08	 add	 esp, 8
; File C:\Program Files (x86)\Microsoft Visual Studio\2019\Community\VC\Tools\MSVC\14.28.29333\include\vector

; 1699 :             _Mylast  = pointer();

  0007d	c7 47 08 00 00
	00 00		 mov	 DWORD PTR [edi+8], 0

; 1700 :             _Myend   = pointer();

  00084	c7 47 0c 00 00
	00 00		 mov	 DWORD PTR [edi+12], 0
$LN34@CDynamicPo:
  0008b	5f		 pop	 edi
; File D:\Metin2 Server Files\mainline\SRC_2014\Metin2Client\eterLib\Pool.h

; 142  : 		}

  0008c	5e		 pop	 esi
  0008d	5b		 pop	 ebx
  0008e	c3		 ret	 0
??1?$CDynamicPoolEx@VCNullDecorator@NEffectUpdateDecorator@@@@UAE@XZ ENDP ; CDynamicPoolEx<NEffectUpdateDecorator::CNullDecorator>::~CDynamicPoolEx<NEffectUpdateDecorator::CNullDecorator>
_TEXT	ENDS
; Function compile flags: /Ogtp
;	COMDAT ??_G?$CDynamicPoolEx@VCTextureAnimationCWDecorator@NEffectUpdateDecorator@@@@UAEPAXI@Z
_TEXT	SEGMENT
___flags$ = 8						; size = 4
??_G?$CDynamicPoolEx@VCTextureAnimationCWDecorator@NEffectUpdateDecorator@@@@UAEPAXI@Z PROC ; CDynamicPoolEx<NEffectUpdateDecorator::CTextureAnimationCWDecorator>::`scalar deleting destructor', COMDAT
; _this$ = ecx
  00000	55		 push	 ebp
  00001	8b ec		 mov	 ebp, esp
  00003	56		 push	 esi
  00004	8b f1		 mov	 esi, ecx
  00006	e8 00 00 00 00	 call	 ??1?$CDynamicPoolEx@VCTextureAnimationCWDecorator@NEffectUpdateDecorator@@@@UAE@XZ ; CDynamicPoolEx<NEffectUpdateDecorator::CTextureAnimationCWDecorator>::~CDynamicPoolEx<NEffectUpdateDecorator::CTextureAnimationCWDecorator>
  0000b	f6 45 08 01	 test	 BYTE PTR ___flags$[ebp], 1
  0000f	74 0b		 je	 SHORT $LN4@scalar
  00011	6a 24		 push	 36			; 00000024H
  00013	56		 push	 esi
  00014	e8 00 00 00 00	 call	 ??3@YAXPAXI@Z		; operator delete
  00019	83 c4 08	 add	 esp, 8
$LN4@scalar:
  0001c	8b c6		 mov	 eax, esi
  0001e	5e		 pop	 esi
  0001f	5d		 pop	 ebp
  00020	c2 04 00	 ret	 4
??_G?$CDynamicPoolEx@VCTextureAnimationCWDecorator@NEffectUpdateDecorator@@@@UAEPAXI@Z ENDP ; CDynamicPoolEx<NEffectUpdateDecorator::CTextureAnimationCWDecorator>::`scalar deleting destructor'
_TEXT	ENDS
; Function compile flags: /Ogtp
; File D:\Metin2 Server Files\mainline\SRC_2014\Metin2Client\eterLib\Pool.h
;	COMDAT ?Delete@?$CDynamicPoolEx@VCTextureAnimationCWDecorator@NEffectUpdateDecorator@@@@KAXPAVCTextureAnimationCWDecorator@NEffectUpdateDecorator@@@Z
_TEXT	SEGMENT
_pkData$ = 8						; size = 4
?Delete@?$CDynamicPoolEx@VCTextureAnimationCWDecorator@NEffectUpdateDecorator@@@@KAXPAVCTextureAnimationCWDecorator@NEffectUpdateDecorator@@@Z PROC ; CDynamicPoolEx<NEffectUpdateDecorator::CTextureAnimationCWDecorator>::Delete, COMDAT

; 224  : 			::operator delete(pkData);

  00000	e9 00 00 00 00	 jmp	 ??3@YAXPAX@Z		; operator delete
?Delete@?$CDynamicPoolEx@VCTextureAnimationCWDecorator@NEffectUpdateDecorator@@@@KAXPAVCTextureAnimationCWDecorator@NEffectUpdateDecorator@@@Z ENDP ; CDynamicPoolEx<NEffectUpdateDecorator::CTextureAnimationCWDecorator>::Delete
_TEXT	ENDS
; Function compile flags: /Ogtp
; File D:\Metin2 Server Files\mainline\SRC_2014\Metin2Client\eterLib\Pool.h
; File C:\Program Files (x86)\Microsoft Visual Studio\2019\Community\VC\Tools\MSVC\14.28.29333\include\vector
; File C:\Program Files (x86)\Microsoft Visual Studio\2019\Community\VC\Tools\MSVC\14.28.29333\include\algorithm
; File D:\Metin2 Server Files\mainline\SRC_2014\Metin2Client\eterLib\Pool.h
; File C:\Program Files (x86)\Microsoft Visual Studio\2019\Community\VC\Tools\MSVC\14.28.29333\include\algorithm
; File D:\Metin2 Server Files\mainline\SRC_2014\Metin2Client\eterLib\Pool.h
; File C:\Program Files (x86)\Microsoft Visual Studio\2019\Community\VC\Tools\MSVC\14.28.29333\include\algorithm
; File D:\Metin2 Server Files\mainline\SRC_2014\Metin2Client\eterLib\Pool.h
; File C:\Program Files (x86)\Microsoft Visual Studio\2019\Community\VC\Tools\MSVC\14.28.29333\include\vector
; File C:\Program Files (x86)\Microsoft Visual Studio\2019\Community\VC\Tools\MSVC\14.28.29333\include\xmemory
; File C:\Program Files (x86)\Microsoft Visual Studio\2019\Community\VC\Tools\MSVC\14.28.29333\include\vector
; File C:\Program Files (x86)\Microsoft Visual Studio\2019\Community\VC\Tools\MSVC\14.28.29333\include\xmemory
; File C:\Program Files (x86)\Microsoft Visual Studio\2019\Community\VC\Tools\MSVC\14.28.29333\include\vector
; File C:\Program Files (x86)\Microsoft Visual Studio\2019\Community\VC\Tools\MSVC\14.28.29333\include\xmemory
; File C:\Program Files (x86)\Microsoft Visual Studio\2019\Community\VC\Tools\MSVC\14.28.29333\include\vector
; File C:\Program Files (x86)\Microsoft Visual Studio\2019\Community\VC\Tools\MSVC\14.28.29333\include\xmemory
; File C:\Program Files (x86)\Microsoft Visual Studio\2019\Community\VC\Tools\MSVC\14.28.29333\include\vector
; File D:\Metin2 Server Files\mainline\SRC_2014\Metin2Client\eterLib\Pool.h
;	COMDAT ??1?$CDynamicPoolEx@VCTextureAnimationCWDecorator@NEffectUpdateDecorator@@@@UAE@XZ
_TEXT	SEGMENT
??1?$CDynamicPoolEx@VCTextureAnimationCWDecorator@NEffectUpdateDecorator@@@@UAE@XZ PROC ; CDynamicPoolEx<NEffectUpdateDecorator::CTextureAnimationCWDecorator>::~CDynamicPoolEx<NEffectUpdateDecorator::CTextureAnimationCWDecorator>, COMDAT
; _this$ = ecx

; 132  : 		{

  00000	53		 push	 ebx
  00001	56		 push	 esi
  00002	57		 push	 edi
  00003	8b f9		 mov	 edi, ecx
  00005	c7 07 00 00 00
	00		 mov	 DWORD PTR [edi], OFFSET ??_7?$CDynamicPoolEx@VCTextureAnimationCWDecorator@NEffectUpdateDecorator@@@@6B@
; File C:\Program Files (x86)\Microsoft Visual Studio\2019\Community\VC\Tools\MSVC\14.28.29333\include\vector

; 42   :     _Vector_const_iterator(_Tptr _Parg, const _Container_base* _Pvector) noexcept : _Ptr(_Parg) {

  0000b	8b 5f 08	 mov	 ebx, DWORD PTR [edi+8]
  0000e	8b 77 04	 mov	 esi, DWORD PTR [edi+4]
; File C:\Program Files (x86)\Microsoft Visual Studio\2019\Community\VC\Tools\MSVC\14.28.29333\include\algorithm

; 307  :     for (; _UFirst != _ULast; ++_UFirst) {

  00011	3b f3		 cmp	 esi, ebx
  00013	74 14		 je	 SHORT $LN19@CDynamicPo
$LL20@CDynamicPo:
; File D:\Metin2 Server Files\mainline\SRC_2014\Metin2Client\eterLib\Pool.h

; 224  : 			::operator delete(pkData);

  00015	ff 36		 push	 DWORD PTR [esi]
  00017	e8 00 00 00 00	 call	 ??3@YAXPAX@Z		; operator delete
; File C:\Program Files (x86)\Microsoft Visual Studio\2019\Community\VC\Tools\MSVC\14.28.29333\include\algorithm

; 307  :     for (; _UFirst != _ULast; ++_UFirst) {

  0001c	83 c6 04	 add	 esi, 4
; File D:\Metin2 Server Files\mainline\SRC_2014\Metin2Client\eterLib\Pool.h

; 224  : 			::operator delete(pkData);

  0001f	83 c4 04	 add	 esp, 4
; File C:\Program Files (x86)\Microsoft Visual Studio\2019\Community\VC\Tools\MSVC\14.28.29333\include\algorithm

; 307  :     for (; _UFirst != _ULast; ++_UFirst) {

  00022	3b f3		 cmp	 esi, ebx
  00024	75 ef		 jne	 SHORT $LL20@CDynamicPo
  00026	8b 77 04	 mov	 esi, DWORD PTR [edi+4]
$LN19@CDynamicPo:
; File D:\Metin2 Server Files\mainline\SRC_2014\Metin2Client\eterLib\Pool.h

; 162  : 			m_kVct_pkFree.clear();

  00029	8b 4f 10	 mov	 ecx, DWORD PTR [edi+16]
  0002c	89 77 08	 mov	 DWORD PTR [edi+8], esi
  0002f	89 4f 14	 mov	 DWORD PTR [edi+20], ecx
; File C:\Program Files (x86)\Microsoft Visual Studio\2019\Community\VC\Tools\MSVC\14.28.29333\include\vector

; 1694 :         if (_Myfirst) { // destroy and deallocate old array

  00032	85 c9		 test	 ecx, ecx
  00034	74 27		 je	 SHORT $LN27@CDynamicPo

; 1695 :             _Destroy(_Myfirst, _Mylast);
; 1696 :             _Getal().deallocate(_Myfirst, static_cast<size_type>(_Myend - _Myfirst));

  00036	8b 47 18	 mov	 eax, DWORD PTR [edi+24]
  00039	2b c1		 sub	 eax, ecx
; File C:\Program Files (x86)\Microsoft Visual Studio\2019\Community\VC\Tools\MSVC\14.28.29333\include\xmemory

; 810  :         _Deallocate<_New_alignof<_Ty>>(_Ptr, sizeof(_Ty) * _Count);

  0003b	83 e0 fc	 and	 eax, -4			; fffffffcH
  0003e	50		 push	 eax
  0003f	51		 push	 ecx
  00040	e8 00 00 00 00	 call	 ??$_Deallocate@$07$0A@@std@@YAXPAXI@Z ; std::_Deallocate<8,0>
; File C:\Program Files (x86)\Microsoft Visual Studio\2019\Community\VC\Tools\MSVC\14.28.29333\include\vector

; 1698 :             _Myfirst = pointer();

  00045	c7 47 10 00 00
	00 00		 mov	 DWORD PTR [edi+16], 0
; File C:\Program Files (x86)\Microsoft Visual Studio\2019\Community\VC\Tools\MSVC\14.28.29333\include\xmemory

; 810  :         _Deallocate<_New_alignof<_Ty>>(_Ptr, sizeof(_Ty) * _Count);

  0004c	83 c4 08	 add	 esp, 8
; File C:\Program Files (x86)\Microsoft Visual Studio\2019\Community\VC\Tools\MSVC\14.28.29333\include\vector

; 1699 :             _Mylast  = pointer();

  0004f	c7 47 14 00 00
	00 00		 mov	 DWORD PTR [edi+20], 0

; 1700 :             _Myend   = pointer();

  00056	c7 47 18 00 00
	00 00		 mov	 DWORD PTR [edi+24], 0
$LN27@CDynamicPo:

; 1694 :         if (_Myfirst) { // destroy and deallocate old array

  0005d	8b 4f 04	 mov	 ecx, DWORD PTR [edi+4]
  00060	85 c9		 test	 ecx, ecx
  00062	74 27		 je	 SHORT $LN34@CDynamicPo

; 1695 :             _Destroy(_Myfirst, _Mylast);
; 1696 :             _Getal().deallocate(_Myfirst, static_cast<size_type>(_Myend - _Myfirst));

  00064	8b 47 0c	 mov	 eax, DWORD PTR [edi+12]
  00067	2b c1		 sub	 eax, ecx
; File C:\Program Files (x86)\Microsoft Visual Studio\2019\Community\VC\Tools\MSVC\14.28.29333\include\xmemory

; 810  :         _Deallocate<_New_alignof<_Ty>>(_Ptr, sizeof(_Ty) * _Count);

  00069	83 e0 fc	 and	 eax, -4			; fffffffcH
  0006c	50		 push	 eax
  0006d	51		 push	 ecx
  0006e	e8 00 00 00 00	 call	 ??$_Deallocate@$07$0A@@std@@YAXPAXI@Z ; std::_Deallocate<8,0>
; File C:\Program Files (x86)\Microsoft Visual Studio\2019\Community\VC\Tools\MSVC\14.28.29333\include\vector

; 1698 :             _Myfirst = pointer();

  00073	c7 47 04 00 00
	00 00		 mov	 DWORD PTR [edi+4], 0
; File C:\Program Files (x86)\Microsoft Visual Studio\2019\Community\VC\Tools\MSVC\14.28.29333\include\xmemory

; 810  :         _Deallocate<_New_alignof<_Ty>>(_Ptr, sizeof(_Ty) * _Count);

  0007a	83 c4 08	 add	 esp, 8
; File C:\Program Files (x86)\Microsoft Visual Studio\2019\Community\VC\Tools\MSVC\14.28.29333\include\vector

; 1699 :             _Mylast  = pointer();

  0007d	c7 47 08 00 00
	00 00		 mov	 DWORD PTR [edi+8], 0

; 1700 :             _Myend   = pointer();

  00084	c7 47 0c 00 00
	00 00		 mov	 DWORD PTR [edi+12], 0
$LN34@CDynamicPo:
  0008b	5f		 pop	 edi
; File D:\Metin2 Server Files\mainline\SRC_2014\Metin2Client\eterLib\Pool.h

; 142  : 		}

  0008c	5e		 pop	 esi
  0008d	5b		 pop	 ebx
  0008e	c3		 ret	 0
??1?$CDynamicPoolEx@VCTextureAnimationCWDecorator@NEffectUpdateDecorator@@@@UAE@XZ ENDP ; CDynamicPoolEx<NEffectUpdateDecorator::CTextureAnimationCWDecorator>::~CDynamicPoolEx<NEffectUpdateDecorator::CTextureAnimationCWDecorator>
_TEXT	ENDS
; Function compile flags: /Ogtp
;	COMDAT ??_G?$CDynamicPoolEx@VCTextureAnimationCCWDecorator@NEffectUpdateDecorator@@@@UAEPAXI@Z
_TEXT	SEGMENT
___flags$ = 8						; size = 4
??_G?$CDynamicPoolEx@VCTextureAnimationCCWDecorator@NEffectUpdateDecorator@@@@UAEPAXI@Z PROC ; CDynamicPoolEx<NEffectUpdateDecorator::CTextureAnimationCCWDecorator>::`scalar deleting destructor', COMDAT
; _this$ = ecx
  00000	55		 push	 ebp
  00001	8b ec		 mov	 ebp, esp
  00003	56		 push	 esi
  00004	8b f1		 mov	 esi, ecx
  00006	e8 00 00 00 00	 call	 ??1?$CDynamicPoolEx@VCTextureAnimationCCWDecorator@NEffectUpdateDecorator@@@@UAE@XZ ; CDynamicPoolEx<NEffectUpdateDecorator::CTextureAnimationCCWDecorator>::~CDynamicPoolEx<NEffectUpdateDecorator::CTextureAnimationCCWDecorator>
  0000b	f6 45 08 01	 test	 BYTE PTR ___flags$[ebp], 1
  0000f	74 0b		 je	 SHORT $LN4@scalar
  00011	6a 24		 push	 36			; 00000024H
  00013	56		 push	 esi
  00014	e8 00 00 00 00	 call	 ??3@YAXPAXI@Z		; operator delete
  00019	83 c4 08	 add	 esp, 8
$LN4@scalar:
  0001c	8b c6		 mov	 eax, esi
  0001e	5e		 pop	 esi
  0001f	5d		 pop	 ebp
  00020	c2 04 00	 ret	 4
??_G?$CDynamicPoolEx@VCTextureAnimationCCWDecorator@NEffectUpdateDecorator@@@@UAEPAXI@Z ENDP ; CDynamicPoolEx<NEffectUpdateDecorator::CTextureAnimationCCWDecorator>::`scalar deleting destructor'
_TEXT	ENDS
; Function compile flags: /Ogtp
; File D:\Metin2 Server Files\mainline\SRC_2014\Metin2Client\eterLib\Pool.h
;	COMDAT ?Delete@?$CDynamicPoolEx@VCTextureAnimationCCWDecorator@NEffectUpdateDecorator@@@@KAXPAVCTextureAnimationCCWDecorator@NEffectUpdateDecorator@@@Z
_TEXT	SEGMENT
_pkData$ = 8						; size = 4
?Delete@?$CDynamicPoolEx@VCTextureAnimationCCWDecorator@NEffectUpdateDecorator@@@@KAXPAVCTextureAnimationCCWDecorator@NEffectUpdateDecorator@@@Z PROC ; CDynamicPoolEx<NEffectUpdateDecorator::CTextureAnimationCCWDecorator>::Delete, COMDAT

; 224  : 			::operator delete(pkData);

  00000	e9 00 00 00 00	 jmp	 ??3@YAXPAX@Z		; operator delete
?Delete@?$CDynamicPoolEx@VCTextureAnimationCCWDecorator@NEffectUpdateDecorator@@@@KAXPAVCTextureAnimationCCWDecorator@NEffectUpdateDecorator@@@Z ENDP ; CDynamicPoolEx<NEffectUpdateDecorator::CTextureAnimationCCWDecorator>::Delete
_TEXT	ENDS
; Function compile flags: /Ogtp
; File D:\Metin2 Server Files\mainline\SRC_2014\Metin2Client\eterLib\Pool.h
; File C:\Program Files (x86)\Microsoft Visual Studio\2019\Community\VC\Tools\MSVC\14.28.29333\include\vector
; File C:\Program Files (x86)\Microsoft Visual Studio\2019\Community\VC\Tools\MSVC\14.28.29333\include\algorithm
; File D:\Metin2 Server Files\mainline\SRC_2014\Metin2Client\eterLib\Pool.h
; File C:\Program Files (x86)\Microsoft Visual Studio\2019\Community\VC\Tools\MSVC\14.28.29333\include\algorithm
; File D:\Metin2 Server Files\mainline\SRC_2014\Metin2Client\eterLib\Pool.h
; File C:\Program Files (x86)\Microsoft Visual Studio\2019\Community\VC\Tools\MSVC\14.28.29333\include\algorithm
; File D:\Metin2 Server Files\mainline\SRC_2014\Metin2Client\eterLib\Pool.h
; File C:\Program Files (x86)\Microsoft Visual Studio\2019\Community\VC\Tools\MSVC\14.28.29333\include\vector
; File C:\Program Files (x86)\Microsoft Visual Studio\2019\Community\VC\Tools\MSVC\14.28.29333\include\xmemory
; File C:\Program Files (x86)\Microsoft Visual Studio\2019\Community\VC\Tools\MSVC\14.28.29333\include\vector
; File C:\Program Files (x86)\Microsoft Visual Studio\2019\Community\VC\Tools\MSVC\14.28.29333\include\xmemory
; File C:\Program Files (x86)\Microsoft Visual Studio\2019\Community\VC\Tools\MSVC\14.28.29333\include\vector
; File C:\Program Files (x86)\Microsoft Visual Studio\2019\Community\VC\Tools\MSVC\14.28.29333\include\xmemory
; File C:\Program Files (x86)\Microsoft Visual Studio\2019\Community\VC\Tools\MSVC\14.28.29333\include\vector
; File C:\Program Files (x86)\Microsoft Visual Studio\2019\Community\VC\Tools\MSVC\14.28.29333\include\xmemory
; File C:\Program Files (x86)\Microsoft Visual Studio\2019\Community\VC\Tools\MSVC\14.28.29333\include\vector
; File D:\Metin2 Server Files\mainline\SRC_2014\Metin2Client\eterLib\Pool.h
;	COMDAT ??1?$CDynamicPoolEx@VCTextureAnimationCCWDecorator@NEffectUpdateDecorator@@@@UAE@XZ
_TEXT	SEGMENT
??1?$CDynamicPoolEx@VCTextureAnimationCCWDecorator@NEffectUpdateDecorator@@@@UAE@XZ PROC ; CDynamicPoolEx<NEffectUpdateDecorator::CTextureAnimationCCWDecorator>::~CDynamicPoolEx<NEffectUpdateDecorator::CTextureAnimationCCWDecorator>, COMDAT
; _this$ = ecx

; 132  : 		{

  00000	53		 push	 ebx
  00001	56		 push	 esi
  00002	57		 push	 edi
  00003	8b f9		 mov	 edi, ecx
  00005	c7 07 00 00 00
	00		 mov	 DWORD PTR [edi], OFFSET ??_7?$CDynamicPoolEx@VCTextureAnimationCCWDecorator@NEffectUpdateDecorator@@@@6B@
; File C:\Program Files (x86)\Microsoft Visual Studio\2019\Community\VC\Tools\MSVC\14.28.29333\include\vector

; 42   :     _Vector_const_iterator(_Tptr _Parg, const _Container_base* _Pvector) noexcept : _Ptr(_Parg) {

  0000b	8b 5f 08	 mov	 ebx, DWORD PTR [edi+8]
  0000e	8b 77 04	 mov	 esi, DWORD PTR [edi+4]
; File C:\Program Files (x86)\Microsoft Visual Studio\2019\Community\VC\Tools\MSVC\14.28.29333\include\algorithm

; 307  :     for (; _UFirst != _ULast; ++_UFirst) {

  00011	3b f3		 cmp	 esi, ebx
  00013	74 14		 je	 SHORT $LN19@CDynamicPo
$LL20@CDynamicPo:
; File D:\Metin2 Server Files\mainline\SRC_2014\Metin2Client\eterLib\Pool.h

; 224  : 			::operator delete(pkData);

  00015	ff 36		 push	 DWORD PTR [esi]
  00017	e8 00 00 00 00	 call	 ??3@YAXPAX@Z		; operator delete
; File C:\Program Files (x86)\Microsoft Visual Studio\2019\Community\VC\Tools\MSVC\14.28.29333\include\algorithm

; 307  :     for (; _UFirst != _ULast; ++_UFirst) {

  0001c	83 c6 04	 add	 esi, 4
; File D:\Metin2 Server Files\mainline\SRC_2014\Metin2Client\eterLib\Pool.h

; 224  : 			::operator delete(pkData);

  0001f	83 c4 04	 add	 esp, 4
; File C:\Program Files (x86)\Microsoft Visual Studio\2019\Community\VC\Tools\MSVC\14.28.29333\include\algorithm

; 307  :     for (; _UFirst != _ULast; ++_UFirst) {

  00022	3b f3		 cmp	 esi, ebx
  00024	75 ef		 jne	 SHORT $LL20@CDynamicPo
  00026	8b 77 04	 mov	 esi, DWORD PTR [edi+4]
$LN19@CDynamicPo:
; File D:\Metin2 Server Files\mainline\SRC_2014\Metin2Client\eterLib\Pool.h

; 162  : 			m_kVct_pkFree.clear();

  00029	8b 4f 10	 mov	 ecx, DWORD PTR [edi+16]
  0002c	89 77 08	 mov	 DWORD PTR [edi+8], esi
  0002f	89 4f 14	 mov	 DWORD PTR [edi+20], ecx
; File C:\Program Files (x86)\Microsoft Visual Studio\2019\Community\VC\Tools\MSVC\14.28.29333\include\vector

; 1694 :         if (_Myfirst) { // destroy and deallocate old array

  00032	85 c9		 test	 ecx, ecx
  00034	74 27		 je	 SHORT $LN27@CDynamicPo

; 1695 :             _Destroy(_Myfirst, _Mylast);
; 1696 :             _Getal().deallocate(_Myfirst, static_cast<size_type>(_Myend - _Myfirst));

  00036	8b 47 18	 mov	 eax, DWORD PTR [edi+24]
  00039	2b c1		 sub	 eax, ecx
; File C:\Program Files (x86)\Microsoft Visual Studio\2019\Community\VC\Tools\MSVC\14.28.29333\include\xmemory

; 810  :         _Deallocate<_New_alignof<_Ty>>(_Ptr, sizeof(_Ty) * _Count);

  0003b	83 e0 fc	 and	 eax, -4			; fffffffcH
  0003e	50		 push	 eax
  0003f	51		 push	 ecx
  00040	e8 00 00 00 00	 call	 ??$_Deallocate@$07$0A@@std@@YAXPAXI@Z ; std::_Deallocate<8,0>
; File C:\Program Files (x86)\Microsoft Visual Studio\2019\Community\VC\Tools\MSVC\14.28.29333\include\vector

; 1698 :             _Myfirst = pointer();

  00045	c7 47 10 00 00
	00 00		 mov	 DWORD PTR [edi+16], 0
; File C:\Program Files (x86)\Microsoft Visual Studio\2019\Community\VC\Tools\MSVC\14.28.29333\include\xmemory

; 810  :         _Deallocate<_New_alignof<_Ty>>(_Ptr, sizeof(_Ty) * _Count);

  0004c	83 c4 08	 add	 esp, 8
; File C:\Program Files (x86)\Microsoft Visual Studio\2019\Community\VC\Tools\MSVC\14.28.29333\include\vector

; 1699 :             _Mylast  = pointer();

  0004f	c7 47 14 00 00
	00 00		 mov	 DWORD PTR [edi+20], 0

; 1700 :             _Myend   = pointer();

  00056	c7 47 18 00 00
	00 00		 mov	 DWORD PTR [edi+24], 0
$LN27@CDynamicPo:

; 1694 :         if (_Myfirst) { // destroy and deallocate old array

  0005d	8b 4f 04	 mov	 ecx, DWORD PTR [edi+4]
  00060	85 c9		 test	 ecx, ecx
  00062	74 27		 je	 SHORT $LN34@CDynamicPo

; 1695 :             _Destroy(_Myfirst, _Mylast);
; 1696 :             _Getal().deallocate(_Myfirst, static_cast<size_type>(_Myend - _Myfirst));

  00064	8b 47 0c	 mov	 eax, DWORD PTR [edi+12]
  00067	2b c1		 sub	 eax, ecx
; File C:\Program Files (x86)\Microsoft Visual Studio\2019\Community\VC\Tools\MSVC\14.28.29333\include\xmemory

; 810  :         _Deallocate<_New_alignof<_Ty>>(_Ptr, sizeof(_Ty) * _Count);

  00069	83 e0 fc	 and	 eax, -4			; fffffffcH
  0006c	50		 push	 eax
  0006d	51		 push	 ecx
  0006e	e8 00 00 00 00	 call	 ??$_Deallocate@$07$0A@@std@@YAXPAXI@Z ; std::_Deallocate<8,0>
; File C:\Program Files (x86)\Microsoft Visual Studio\2019\Community\VC\Tools\MSVC\14.28.29333\include\vector

; 1698 :             _Myfirst = pointer();

  00073	c7 47 04 00 00
	00 00		 mov	 DWORD PTR [edi+4], 0
; File C:\Program Files (x86)\Microsoft Visual Studio\2019\Community\VC\Tools\MSVC\14.28.29333\include\xmemory

; 810  :         _Deallocate<_New_alignof<_Ty>>(_Ptr, sizeof(_Ty) * _Count);

  0007a	83 c4 08	 add	 esp, 8
; File C:\Program Files (x86)\Microsoft Visual Studio\2019\Community\VC\Tools\MSVC\14.28.29333\include\vector

; 1699 :             _Mylast  = pointer();

  0007d	c7 47 08 00 00
	00 00		 mov	 DWORD PTR [edi+8], 0

; 1700 :             _Myend   = pointer();

  00084	c7 47 0c 00 00
	00 00		 mov	 DWORD PTR [edi+12], 0
$LN34@CDynamicPo:
  0008b	5f		 pop	 edi
; File D:\Metin2 Server Files\mainline\SRC_2014\Metin2Client\eterLib\Pool.h

; 142  : 		}

  0008c	5e		 pop	 esi
  0008d	5b		 pop	 ebx
  0008e	c3		 ret	 0
??1?$CDynamicPoolEx@VCTextureAnimationCCWDecorator@NEffectUpdateDecorator@@@@UAE@XZ ENDP ; CDynamicPoolEx<NEffectUpdateDecorator::CTextureAnimationCCWDecorator>::~CDynamicPoolEx<NEffectUpdateDecorator::CTextureAnimationCCWDecorator>
_TEXT	ENDS
; Function compile flags: /Ogtp
;	COMDAT ??_G?$CDynamicPoolEx@VCTextureAnimationRandomDecorator@NEffectUpdateDecorator@@@@UAEPAXI@Z
_TEXT	SEGMENT
___flags$ = 8						; size = 4
??_G?$CDynamicPoolEx@VCTextureAnimationRandomDecorator@NEffectUpdateDecorator@@@@UAEPAXI@Z PROC ; CDynamicPoolEx<NEffectUpdateDecorator::CTextureAnimationRandomDecorator>::`scalar deleting destructor', COMDAT
; _this$ = ecx
  00000	55		 push	 ebp
  00001	8b ec		 mov	 ebp, esp
  00003	56		 push	 esi
  00004	8b f1		 mov	 esi, ecx
  00006	e8 00 00 00 00	 call	 ??1?$CDynamicPoolEx@VCTextureAnimationRandomDecorator@NEffectUpdateDecorator@@@@UAE@XZ ; CDynamicPoolEx<NEffectUpdateDecorator::CTextureAnimationRandomDecorator>::~CDynamicPoolEx<NEffectUpdateDecorator::CTextureAnimationRandomDecorator>
  0000b	f6 45 08 01	 test	 BYTE PTR ___flags$[ebp], 1
  0000f	74 0b		 je	 SHORT $LN4@scalar
  00011	6a 24		 push	 36			; 00000024H
  00013	56		 push	 esi
  00014	e8 00 00 00 00	 call	 ??3@YAXPAXI@Z		; operator delete
  00019	83 c4 08	 add	 esp, 8
$LN4@scalar:
  0001c	8b c6		 mov	 eax, esi
  0001e	5e		 pop	 esi
  0001f	5d		 pop	 ebp
  00020	c2 04 00	 ret	 4
??_G?$CDynamicPoolEx@VCTextureAnimationRandomDecorator@NEffectUpdateDecorator@@@@UAEPAXI@Z ENDP ; CDynamicPoolEx<NEffectUpdateDecorator::CTextureAnimationRandomDecorator>::`scalar deleting destructor'
_TEXT	ENDS
; Function compile flags: /Ogtp
; File D:\Metin2 Server Files\mainline\SRC_2014\Metin2Client\eterLib\Pool.h
;	COMDAT ?Delete@?$CDynamicPoolEx@VCTextureAnimationRandomDecorator@NEffectUpdateDecorator@@@@KAXPAVCTextureAnimationRandomDecorator@NEffectUpdateDecorator@@@Z
_TEXT	SEGMENT
_pkData$ = 8						; size = 4
?Delete@?$CDynamicPoolEx@VCTextureAnimationRandomDecorator@NEffectUpdateDecorator@@@@KAXPAVCTextureAnimationRandomDecorator@NEffectUpdateDecorator@@@Z PROC ; CDynamicPoolEx<NEffectUpdateDecorator::CTextureAnimationRandomDecorator>::Delete, COMDAT

; 224  : 			::operator delete(pkData);

  00000	e9 00 00 00 00	 jmp	 ??3@YAXPAX@Z		; operator delete
?Delete@?$CDynamicPoolEx@VCTextureAnimationRandomDecorator@NEffectUpdateDecorator@@@@KAXPAVCTextureAnimationRandomDecorator@NEffectUpdateDecorator@@@Z ENDP ; CDynamicPoolEx<NEffectUpdateDecorator::CTextureAnimationRandomDecorator>::Delete
_TEXT	ENDS
; Function compile flags: /Ogtp
; File D:\Metin2 Server Files\mainline\SRC_2014\Metin2Client\eterLib\Pool.h
; File C:\Program Files (x86)\Microsoft Visual Studio\2019\Community\VC\Tools\MSVC\14.28.29333\include\vector
; File C:\Program Files (x86)\Microsoft Visual Studio\2019\Community\VC\Tools\MSVC\14.28.29333\include\algorithm
; File D:\Metin2 Server Files\mainline\SRC_2014\Metin2Client\eterLib\Pool.h
; File C:\Program Files (x86)\Microsoft Visual Studio\2019\Community\VC\Tools\MSVC\14.28.29333\include\algorithm
; File D:\Metin2 Server Files\mainline\SRC_2014\Metin2Client\eterLib\Pool.h
; File C:\Program Files (x86)\Microsoft Visual Studio\2019\Community\VC\Tools\MSVC\14.28.29333\include\algorithm
; File D:\Metin2 Server Files\mainline\SRC_2014\Metin2Client\eterLib\Pool.h
; File C:\Program Files (x86)\Microsoft Visual Studio\2019\Community\VC\Tools\MSVC\14.28.29333\include\vector
; File C:\Program Files (x86)\Microsoft Visual Studio\2019\Community\VC\Tools\MSVC\14.28.29333\include\xmemory
; File C:\Program Files (x86)\Microsoft Visual Studio\2019\Community\VC\Tools\MSVC\14.28.29333\include\vector
; File C:\Program Files (x86)\Microsoft Visual Studio\2019\Community\VC\Tools\MSVC\14.28.29333\include\xmemory
; File C:\Program Files (x86)\Microsoft Visual Studio\2019\Community\VC\Tools\MSVC\14.28.29333\include\vector
; File C:\Program Files (x86)\Microsoft Visual Studio\2019\Community\VC\Tools\MSVC\14.28.29333\include\xmemory
; File C:\Program Files (x86)\Microsoft Visual Studio\2019\Community\VC\Tools\MSVC\14.28.29333\include\vector
; File C:\Program Files (x86)\Microsoft Visual Studio\2019\Community\VC\Tools\MSVC\14.28.29333\include\xmemory
; File C:\Program Files (x86)\Microsoft Visual Studio\2019\Community\VC\Tools\MSVC\14.28.29333\include\vector
; File D:\Metin2 Server Files\mainline\SRC_2014\Metin2Client\eterLib\Pool.h
;	COMDAT ??1?$CDynamicPoolEx@VCTextureAnimationRandomDecorator@NEffectUpdateDecorator@@@@UAE@XZ
_TEXT	SEGMENT
??1?$CDynamicPoolEx@VCTextureAnimationRandomDecorator@NEffectUpdateDecorator@@@@UAE@XZ PROC ; CDynamicPoolEx<NEffectUpdateDecorator::CTextureAnimationRandomDecorator>::~CDynamicPoolEx<NEffectUpdateDecorator::CTextureAnimationRandomDecorator>, COMDAT
; _this$ = ecx

; 132  : 		{

  00000	53		 push	 ebx
  00001	56		 push	 esi
  00002	57		 push	 edi
  00003	8b f9		 mov	 edi, ecx
  00005	c7 07 00 00 00
	00		 mov	 DWORD PTR [edi], OFFSET ??_7?$CDynamicPoolEx@VCTextureAnimationRandomDecorator@NEffectUpdateDecorator@@@@6B@
; File C:\Program Files (x86)\Microsoft Visual Studio\2019\Community\VC\Tools\MSVC\14.28.29333\include\vector

; 42   :     _Vector_const_iterator(_Tptr _Parg, const _Container_base* _Pvector) noexcept : _Ptr(_Parg) {

  0000b	8b 5f 08	 mov	 ebx, DWORD PTR [edi+8]
  0000e	8b 77 04	 mov	 esi, DWORD PTR [edi+4]
; File C:\Program Files (x86)\Microsoft Visual Studio\2019\Community\VC\Tools\MSVC\14.28.29333\include\algorithm

; 307  :     for (; _UFirst != _ULast; ++_UFirst) {

  00011	3b f3		 cmp	 esi, ebx
  00013	74 14		 je	 SHORT $LN19@CDynamicPo
$LL20@CDynamicPo:
; File D:\Metin2 Server Files\mainline\SRC_2014\Metin2Client\eterLib\Pool.h

; 224  : 			::operator delete(pkData);

  00015	ff 36		 push	 DWORD PTR [esi]
  00017	e8 00 00 00 00	 call	 ??3@YAXPAX@Z		; operator delete
; File C:\Program Files (x86)\Microsoft Visual Studio\2019\Community\VC\Tools\MSVC\14.28.29333\include\algorithm

; 307  :     for (; _UFirst != _ULast; ++_UFirst) {

  0001c	83 c6 04	 add	 esi, 4
; File D:\Metin2 Server Files\mainline\SRC_2014\Metin2Client\eterLib\Pool.h

; 224  : 			::operator delete(pkData);

  0001f	83 c4 04	 add	 esp, 4
; File C:\Program Files (x86)\Microsoft Visual Studio\2019\Community\VC\Tools\MSVC\14.28.29333\include\algorithm

; 307  :     for (; _UFirst != _ULast; ++_UFirst) {

  00022	3b f3		 cmp	 esi, ebx
  00024	75 ef		 jne	 SHORT $LL20@CDynamicPo
  00026	8b 77 04	 mov	 esi, DWORD PTR [edi+4]
$LN19@CDynamicPo:
; File D:\Metin2 Server Files\mainline\SRC_2014\Metin2Client\eterLib\Pool.h

; 162  : 			m_kVct_pkFree.clear();

  00029	8b 4f 10	 mov	 ecx, DWORD PTR [edi+16]
  0002c	89 77 08	 mov	 DWORD PTR [edi+8], esi
  0002f	89 4f 14	 mov	 DWORD PTR [edi+20], ecx
; File C:\Program Files (x86)\Microsoft Visual Studio\2019\Community\VC\Tools\MSVC\14.28.29333\include\vector

; 1694 :         if (_Myfirst) { // destroy and deallocate old array

  00032	85 c9		 test	 ecx, ecx
  00034	74 27		 je	 SHORT $LN27@CDynamicPo

; 1695 :             _Destroy(_Myfirst, _Mylast);
; 1696 :             _Getal().deallocate(_Myfirst, static_cast<size_type>(_Myend - _Myfirst));

  00036	8b 47 18	 mov	 eax, DWORD PTR [edi+24]
  00039	2b c1		 sub	 eax, ecx
; File C:\Program Files (x86)\Microsoft Visual Studio\2019\Community\VC\Tools\MSVC\14.28.29333\include\xmemory

; 810  :         _Deallocate<_New_alignof<_Ty>>(_Ptr, sizeof(_Ty) * _Count);

  0003b	83 e0 fc	 and	 eax, -4			; fffffffcH
  0003e	50		 push	 eax
  0003f	51		 push	 ecx
  00040	e8 00 00 00 00	 call	 ??$_Deallocate@$07$0A@@std@@YAXPAXI@Z ; std::_Deallocate<8,0>
; File C:\Program Files (x86)\Microsoft Visual Studio\2019\Community\VC\Tools\MSVC\14.28.29333\include\vector

; 1698 :             _Myfirst = pointer();

  00045	c7 47 10 00 00
	00 00		 mov	 DWORD PTR [edi+16], 0
; File C:\Program Files (x86)\Microsoft Visual Studio\2019\Community\VC\Tools\MSVC\14.28.29333\include\xmemory

; 810  :         _Deallocate<_New_alignof<_Ty>>(_Ptr, sizeof(_Ty) * _Count);

  0004c	83 c4 08	 add	 esp, 8
; File C:\Program Files (x86)\Microsoft Visual Studio\2019\Community\VC\Tools\MSVC\14.28.29333\include\vector

; 1699 :             _Mylast  = pointer();

  0004f	c7 47 14 00 00
	00 00		 mov	 DWORD PTR [edi+20], 0

; 1700 :             _Myend   = pointer();

  00056	c7 47 18 00 00
	00 00		 mov	 DWORD PTR [edi+24], 0
$LN27@CDynamicPo:

; 1694 :         if (_Myfirst) { // destroy and deallocate old array

  0005d	8b 4f 04	 mov	 ecx, DWORD PTR [edi+4]
  00060	85 c9		 test	 ecx, ecx
  00062	74 27		 je	 SHORT $LN34@CDynamicPo

; 1695 :             _Destroy(_Myfirst, _Mylast);
; 1696 :             _Getal().deallocate(_Myfirst, static_cast<size_type>(_Myend - _Myfirst));

  00064	8b 47 0c	 mov	 eax, DWORD PTR [edi+12]
  00067	2b c1		 sub	 eax, ecx
; File C:\Program Files (x86)\Microsoft Visual Studio\2019\Community\VC\Tools\MSVC\14.28.29333\include\xmemory

; 810  :         _Deallocate<_New_alignof<_Ty>>(_Ptr, sizeof(_Ty) * _Count);

  00069	83 e0 fc	 and	 eax, -4			; fffffffcH
  0006c	50		 push	 eax
  0006d	51		 push	 ecx
  0006e	e8 00 00 00 00	 call	 ??$_Deallocate@$07$0A@@std@@YAXPAXI@Z ; std::_Deallocate<8,0>
; File C:\Program Files (x86)\Microsoft Visual Studio\2019\Community\VC\Tools\MSVC\14.28.29333\include\vector

; 1698 :             _Myfirst = pointer();

  00073	c7 47 04 00 00
	00 00		 mov	 DWORD PTR [edi+4], 0
; File C:\Program Files (x86)\Microsoft Visual Studio\2019\Community\VC\Tools\MSVC\14.28.29333\include\xmemory

; 810  :         _Deallocate<_New_alignof<_Ty>>(_Ptr, sizeof(_Ty) * _Count);

  0007a	83 c4 08	 add	 esp, 8
; File C:\Program Files (x86)\Microsoft Visual Studio\2019\Community\VC\Tools\MSVC\14.28.29333\include\vector

; 1699 :             _Mylast  = pointer();

  0007d	c7 47 08 00 00
	00 00		 mov	 DWORD PTR [edi+8], 0

; 1700 :             _Myend   = pointer();

  00084	c7 47 0c 00 00
	00 00		 mov	 DWORD PTR [edi+12], 0
$LN34@CDynamicPo:
  0008b	5f		 pop	 edi
; File D:\Metin2 Server Files\mainline\SRC_2014\Metin2Client\eterLib\Pool.h

; 142  : 		}

  0008c	5e		 pop	 esi
  0008d	5b		 pop	 ebx
  0008e	c3		 ret	 0
??1?$CDynamicPoolEx@VCTextureAnimationRandomDecorator@NEffectUpdateDecorator@@@@UAE@XZ ENDP ; CDynamicPoolEx<NEffectUpdateDecorator::CTextureAnimationRandomDecorator>::~CDynamicPoolEx<NEffectUpdateDecorator::CTextureAnimationRandomDecorator>
_TEXT	ENDS
; Function compile flags: /Ogtp
;	COMDAT ??_G?$CDynamicPoolEx@VCAirResistanceDecorator@NEffectUpdateDecorator@@@@UAEPAXI@Z
_TEXT	SEGMENT
___flags$ = 8						; size = 4
??_G?$CDynamicPoolEx@VCAirResistanceDecorator@NEffectUpdateDecorator@@@@UAEPAXI@Z PROC ; CDynamicPoolEx<NEffectUpdateDecorator::CAirResistanceDecorator>::`scalar deleting destructor', COMDAT
; _this$ = ecx
  00000	55		 push	 ebp
  00001	8b ec		 mov	 ebp, esp
  00003	56		 push	 esi
  00004	8b f1		 mov	 esi, ecx
  00006	e8 00 00 00 00	 call	 ??1?$CDynamicPoolEx@VCAirResistanceDecorator@NEffectUpdateDecorator@@@@UAE@XZ ; CDynamicPoolEx<NEffectUpdateDecorator::CAirResistanceDecorator>::~CDynamicPoolEx<NEffectUpdateDecorator::CAirResistanceDecorator>
  0000b	f6 45 08 01	 test	 BYTE PTR ___flags$[ebp], 1
  0000f	74 0b		 je	 SHORT $LN4@scalar
  00011	6a 24		 push	 36			; 00000024H
  00013	56		 push	 esi
  00014	e8 00 00 00 00	 call	 ??3@YAXPAXI@Z		; operator delete
  00019	83 c4 08	 add	 esp, 8
$LN4@scalar:
  0001c	8b c6		 mov	 eax, esi
  0001e	5e		 pop	 esi
  0001f	5d		 pop	 ebp
  00020	c2 04 00	 ret	 4
??_G?$CDynamicPoolEx@VCAirResistanceDecorator@NEffectUpdateDecorator@@@@UAEPAXI@Z ENDP ; CDynamicPoolEx<NEffectUpdateDecorator::CAirResistanceDecorator>::`scalar deleting destructor'
_TEXT	ENDS
; Function compile flags: /Ogtp
; File D:\Metin2 Server Files\mainline\SRC_2014\Metin2Client\eterLib\Pool.h
;	COMDAT ?Delete@?$CDynamicPoolEx@VCAirResistanceDecorator@NEffectUpdateDecorator@@@@KAXPAVCAirResistanceDecorator@NEffectUpdateDecorator@@@Z
_TEXT	SEGMENT
_pkData$ = 8						; size = 4
?Delete@?$CDynamicPoolEx@VCAirResistanceDecorator@NEffectUpdateDecorator@@@@KAXPAVCAirResistanceDecorator@NEffectUpdateDecorator@@@Z PROC ; CDynamicPoolEx<NEffectUpdateDecorator::CAirResistanceDecorator>::Delete, COMDAT

; 224  : 			::operator delete(pkData);

  00000	e9 00 00 00 00	 jmp	 ??3@YAXPAX@Z		; operator delete
?Delete@?$CDynamicPoolEx@VCAirResistanceDecorator@NEffectUpdateDecorator@@@@KAXPAVCAirResistanceDecorator@NEffectUpdateDecorator@@@Z ENDP ; CDynamicPoolEx<NEffectUpdateDecorator::CAirResistanceDecorator>::Delete
_TEXT	ENDS
; Function compile flags: /Ogtp
; File D:\Metin2 Server Files\mainline\SRC_2014\Metin2Client\eterLib\Pool.h
; File C:\Program Files (x86)\Microsoft Visual Studio\2019\Community\VC\Tools\MSVC\14.28.29333\include\vector
; File C:\Program Files (x86)\Microsoft Visual Studio\2019\Community\VC\Tools\MSVC\14.28.29333\include\algorithm
; File D:\Metin2 Server Files\mainline\SRC_2014\Metin2Client\eterLib\Pool.h
; File C:\Program Files (x86)\Microsoft Visual Studio\2019\Community\VC\Tools\MSVC\14.28.29333\include\algorithm
; File D:\Metin2 Server Files\mainline\SRC_2014\Metin2Client\eterLib\Pool.h
; File C:\Program Files (x86)\Microsoft Visual Studio\2019\Community\VC\Tools\MSVC\14.28.29333\include\algorithm
; File D:\Metin2 Server Files\mainline\SRC_2014\Metin2Client\eterLib\Pool.h
; File C:\Program Files (x86)\Microsoft Visual Studio\2019\Community\VC\Tools\MSVC\14.28.29333\include\vector
; File C:\Program Files (x86)\Microsoft Visual Studio\2019\Community\VC\Tools\MSVC\14.28.29333\include\xmemory
; File C:\Program Files (x86)\Microsoft Visual Studio\2019\Community\VC\Tools\MSVC\14.28.29333\include\vector
; File C:\Program Files (x86)\Microsoft Visual Studio\2019\Community\VC\Tools\MSVC\14.28.29333\include\xmemory
; File C:\Program Files (x86)\Microsoft Visual Studio\2019\Community\VC\Tools\MSVC\14.28.29333\include\vector
; File C:\Program Files (x86)\Microsoft Visual Studio\2019\Community\VC\Tools\MSVC\14.28.29333\include\xmemory
; File C:\Program Files (x86)\Microsoft Visual Studio\2019\Community\VC\Tools\MSVC\14.28.29333\include\vector
; File C:\Program Files (x86)\Microsoft Visual Studio\2019\Community\VC\Tools\MSVC\14.28.29333\include\xmemory
; File C:\Program Files (x86)\Microsoft Visual Studio\2019\Community\VC\Tools\MSVC\14.28.29333\include\vector
; File D:\Metin2 Server Files\mainline\SRC_2014\Metin2Client\eterLib\Pool.h
;	COMDAT ??1?$CDynamicPoolEx@VCAirResistanceDecorator@NEffectUpdateDecorator@@@@UAE@XZ
_TEXT	SEGMENT
??1?$CDynamicPoolEx@VCAirResistanceDecorator@NEffectUpdateDecorator@@@@UAE@XZ PROC ; CDynamicPoolEx<NEffectUpdateDecorator::CAirResistanceDecorator>::~CDynamicPoolEx<NEffectUpdateDecorator::CAirResistanceDecorator>, COMDAT
; _this$ = ecx

; 132  : 		{

  00000	53		 push	 ebx
  00001	56		 push	 esi
  00002	57		 push	 edi
  00003	8b f9		 mov	 edi, ecx
  00005	c7 07 00 00 00
	00		 mov	 DWORD PTR [edi], OFFSET ??_7?$CDynamicPoolEx@VCAirResistanceDecorator@NEffectUpdateDecorator@@@@6B@
; File C:\Program Files (x86)\Microsoft Visual Studio\2019\Community\VC\Tools\MSVC\14.28.29333\include\vector

; 42   :     _Vector_const_iterator(_Tptr _Parg, const _Container_base* _Pvector) noexcept : _Ptr(_Parg) {

  0000b	8b 5f 08	 mov	 ebx, DWORD PTR [edi+8]
  0000e	8b 77 04	 mov	 esi, DWORD PTR [edi+4]
; File C:\Program Files (x86)\Microsoft Visual Studio\2019\Community\VC\Tools\MSVC\14.28.29333\include\algorithm

; 307  :     for (; _UFirst != _ULast; ++_UFirst) {

  00011	3b f3		 cmp	 esi, ebx
  00013	74 14		 je	 SHORT $LN19@CDynamicPo
$LL20@CDynamicPo:
; File D:\Metin2 Server Files\mainline\SRC_2014\Metin2Client\eterLib\Pool.h

; 224  : 			::operator delete(pkData);

  00015	ff 36		 push	 DWORD PTR [esi]
  00017	e8 00 00 00 00	 call	 ??3@YAXPAX@Z		; operator delete
; File C:\Program Files (x86)\Microsoft Visual Studio\2019\Community\VC\Tools\MSVC\14.28.29333\include\algorithm

; 307  :     for (; _UFirst != _ULast; ++_UFirst) {

  0001c	83 c6 04	 add	 esi, 4
; File D:\Metin2 Server Files\mainline\SRC_2014\Metin2Client\eterLib\Pool.h

; 224  : 			::operator delete(pkData);

  0001f	83 c4 04	 add	 esp, 4
; File C:\Program Files (x86)\Microsoft Visual Studio\2019\Community\VC\Tools\MSVC\14.28.29333\include\algorithm

; 307  :     for (; _UFirst != _ULast; ++_UFirst) {

  00022	3b f3		 cmp	 esi, ebx
  00024	75 ef		 jne	 SHORT $LL20@CDynamicPo
  00026	8b 77 04	 mov	 esi, DWORD PTR [edi+4]
$LN19@CDynamicPo:
; File D:\Metin2 Server Files\mainline\SRC_2014\Metin2Client\eterLib\Pool.h

; 162  : 			m_kVct_pkFree.clear();

  00029	8b 4f 10	 mov	 ecx, DWORD PTR [edi+16]
  0002c	89 77 08	 mov	 DWORD PTR [edi+8], esi
  0002f	89 4f 14	 mov	 DWORD PTR [edi+20], ecx
; File C:\Program Files (x86)\Microsoft Visual Studio\2019\Community\VC\Tools\MSVC\14.28.29333\include\vector

; 1694 :         if (_Myfirst) { // destroy and deallocate old array

  00032	85 c9		 test	 ecx, ecx
  00034	74 27		 je	 SHORT $LN27@CDynamicPo

; 1695 :             _Destroy(_Myfirst, _Mylast);
; 1696 :             _Getal().deallocate(_Myfirst, static_cast<size_type>(_Myend - _Myfirst));

  00036	8b 47 18	 mov	 eax, DWORD PTR [edi+24]
  00039	2b c1		 sub	 eax, ecx
; File C:\Program Files (x86)\Microsoft Visual Studio\2019\Community\VC\Tools\MSVC\14.28.29333\include\xmemory

; 810  :         _Deallocate<_New_alignof<_Ty>>(_Ptr, sizeof(_Ty) * _Count);

  0003b	83 e0 fc	 and	 eax, -4			; fffffffcH
  0003e	50		 push	 eax
  0003f	51		 push	 ecx
  00040	e8 00 00 00 00	 call	 ??$_Deallocate@$07$0A@@std@@YAXPAXI@Z ; std::_Deallocate<8,0>
; File C:\Program Files (x86)\Microsoft Visual Studio\2019\Community\VC\Tools\MSVC\14.28.29333\include\vector

; 1698 :             _Myfirst = pointer();

  00045	c7 47 10 00 00
	00 00		 mov	 DWORD PTR [edi+16], 0
; File C:\Program Files (x86)\Microsoft Visual Studio\2019\Community\VC\Tools\MSVC\14.28.29333\include\xmemory

; 810  :         _Deallocate<_New_alignof<_Ty>>(_Ptr, sizeof(_Ty) * _Count);

  0004c	83 c4 08	 add	 esp, 8
; File C:\Program Files (x86)\Microsoft Visual Studio\2019\Community\VC\Tools\MSVC\14.28.29333\include\vector

; 1699 :             _Mylast  = pointer();

  0004f	c7 47 14 00 00
	00 00		 mov	 DWORD PTR [edi+20], 0

; 1700 :             _Myend   = pointer();

  00056	c7 47 18 00 00
	00 00		 mov	 DWORD PTR [edi+24], 0
$LN27@CDynamicPo:

; 1694 :         if (_Myfirst) { // destroy and deallocate old array

  0005d	8b 4f 04	 mov	 ecx, DWORD PTR [edi+4]
  00060	85 c9		 test	 ecx, ecx
  00062	74 27		 je	 SHORT $LN34@CDynamicPo

; 1695 :             _Destroy(_Myfirst, _Mylast);
; 1696 :             _Getal().deallocate(_Myfirst, static_cast<size_type>(_Myend - _Myfirst));

  00064	8b 47 0c	 mov	 eax, DWORD PTR [edi+12]
  00067	2b c1		 sub	 eax, ecx
; File C:\Program Files (x86)\Microsoft Visual Studio\2019\Community\VC\Tools\MSVC\14.28.29333\include\xmemory

; 810  :         _Deallocate<_New_alignof<_Ty>>(_Ptr, sizeof(_Ty) * _Count);

  00069	83 e0 fc	 and	 eax, -4			; fffffffcH
  0006c	50		 push	 eax
  0006d	51		 push	 ecx
  0006e	e8 00 00 00 00	 call	 ??$_Deallocate@$07$0A@@std@@YAXPAXI@Z ; std::_Deallocate<8,0>
; File C:\Program Files (x86)\Microsoft Visual Studio\2019\Community\VC\Tools\MSVC\14.28.29333\include\vector

; 1698 :             _Myfirst = pointer();

  00073	c7 47 04 00 00
	00 00		 mov	 DWORD PTR [edi+4], 0
; File C:\Program Files (x86)\Microsoft Visual Studio\2019\Community\VC\Tools\MSVC\14.28.29333\include\xmemory

; 810  :         _Deallocate<_New_alignof<_Ty>>(_Ptr, sizeof(_Ty) * _Count);

  0007a	83 c4 08	 add	 esp, 8
; File C:\Program Files (x86)\Microsoft Visual Studio\2019\Community\VC\Tools\MSVC\14.28.29333\include\vector

; 1699 :             _Mylast  = pointer();

  0007d	c7 47 08 00 00
	00 00		 mov	 DWORD PTR [edi+8], 0

; 1700 :             _Myend   = pointer();

  00084	c7 47 0c 00 00
	00 00		 mov	 DWORD PTR [edi+12], 0
$LN34@CDynamicPo:
  0008b	5f		 pop	 edi
; File D:\Metin2 Server Files\mainline\SRC_2014\Metin2Client\eterLib\Pool.h

; 142  : 		}

  0008c	5e		 pop	 esi
  0008d	5b		 pop	 ebx
  0008e	c3		 ret	 0
??1?$CDynamicPoolEx@VCAirResistanceDecorator@NEffectUpdateDecorator@@@@UAE@XZ ENDP ; CDynamicPoolEx<NEffectUpdateDecorator::CAirResistanceDecorator>::~CDynamicPoolEx<NEffectUpdateDecorator::CAirResistanceDecorator>
_TEXT	ENDS
; Function compile flags: /Ogtp
;	COMDAT ??_G?$CDynamicPoolEx@VCGravityDecorator@NEffectUpdateDecorator@@@@UAEPAXI@Z
_TEXT	SEGMENT
___flags$ = 8						; size = 4
??_G?$CDynamicPoolEx@VCGravityDecorator@NEffectUpdateDecorator@@@@UAEPAXI@Z PROC ; CDynamicPoolEx<NEffectUpdateDecorator::CGravityDecorator>::`scalar deleting destructor', COMDAT
; _this$ = ecx
  00000	55		 push	 ebp
  00001	8b ec		 mov	 ebp, esp
  00003	56		 push	 esi
  00004	8b f1		 mov	 esi, ecx
  00006	e8 00 00 00 00	 call	 ??1?$CDynamicPoolEx@VCGravityDecorator@NEffectUpdateDecorator@@@@UAE@XZ ; CDynamicPoolEx<NEffectUpdateDecorator::CGravityDecorator>::~CDynamicPoolEx<NEffectUpdateDecorator::CGravityDecorator>
  0000b	f6 45 08 01	 test	 BYTE PTR ___flags$[ebp], 1
  0000f	74 0b		 je	 SHORT $LN4@scalar
  00011	6a 24		 push	 36			; 00000024H
  00013	56		 push	 esi
  00014	e8 00 00 00 00	 call	 ??3@YAXPAXI@Z		; operator delete
  00019	83 c4 08	 add	 esp, 8
$LN4@scalar:
  0001c	8b c6		 mov	 eax, esi
  0001e	5e		 pop	 esi
  0001f	5d		 pop	 ebp
  00020	c2 04 00	 ret	 4
??_G?$CDynamicPoolEx@VCGravityDecorator@NEffectUpdateDecorator@@@@UAEPAXI@Z ENDP ; CDynamicPoolEx<NEffectUpdateDecorator::CGravityDecorator>::`scalar deleting destructor'
_TEXT	ENDS
; Function compile flags: /Ogtp
; File D:\Metin2 Server Files\mainline\SRC_2014\Metin2Client\eterLib\Pool.h
;	COMDAT ?Delete@?$CDynamicPoolEx@VCGravityDecorator@NEffectUpdateDecorator@@@@KAXPAVCGravityDecorator@NEffectUpdateDecorator@@@Z
_TEXT	SEGMENT
_pkData$ = 8						; size = 4
?Delete@?$CDynamicPoolEx@VCGravityDecorator@NEffectUpdateDecorator@@@@KAXPAVCGravityDecorator@NEffectUpdateDecorator@@@Z PROC ; CDynamicPoolEx<NEffectUpdateDecorator::CGravityDecorator>::Delete, COMDAT

; 224  : 			::operator delete(pkData);

  00000	e9 00 00 00 00	 jmp	 ??3@YAXPAX@Z		; operator delete
?Delete@?$CDynamicPoolEx@VCGravityDecorator@NEffectUpdateDecorator@@@@KAXPAVCGravityDecorator@NEffectUpdateDecorator@@@Z ENDP ; CDynamicPoolEx<NEffectUpdateDecorator::CGravityDecorator>::Delete
_TEXT	ENDS
; Function compile flags: /Ogtp
; File D:\Metin2 Server Files\mainline\SRC_2014\Metin2Client\eterLib\Pool.h
; File C:\Program Files (x86)\Microsoft Visual Studio\2019\Community\VC\Tools\MSVC\14.28.29333\include\vector
; File C:\Program Files (x86)\Microsoft Visual Studio\2019\Community\VC\Tools\MSVC\14.28.29333\include\algorithm
; File D:\Metin2 Server Files\mainline\SRC_2014\Metin2Client\eterLib\Pool.h
; File C:\Program Files (x86)\Microsoft Visual Studio\2019\Community\VC\Tools\MSVC\14.28.29333\include\algorithm
; File D:\Metin2 Server Files\mainline\SRC_2014\Metin2Client\eterLib\Pool.h
; File C:\Program Files (x86)\Microsoft Visual Studio\2019\Community\VC\Tools\MSVC\14.28.29333\include\algorithm
; File D:\Metin2 Server Files\mainline\SRC_2014\Metin2Client\eterLib\Pool.h
; File C:\Program Files (x86)\Microsoft Visual Studio\2019\Community\VC\Tools\MSVC\14.28.29333\include\vector
; File C:\Program Files (x86)\Microsoft Visual Studio\2019\Community\VC\Tools\MSVC\14.28.29333\include\xmemory
; File C:\Program Files (x86)\Microsoft Visual Studio\2019\Community\VC\Tools\MSVC\14.28.29333\include\vector
; File C:\Program Files (x86)\Microsoft Visual Studio\2019\Community\VC\Tools\MSVC\14.28.29333\include\xmemory
; File C:\Program Files (x86)\Microsoft Visual Studio\2019\Community\VC\Tools\MSVC\14.28.29333\include\vector
; File C:\Program Files (x86)\Microsoft Visual Studio\2019\Community\VC\Tools\MSVC\14.28.29333\include\xmemory
; File C:\Program Files (x86)\Microsoft Visual Studio\2019\Community\VC\Tools\MSVC\14.28.29333\include\vector
; File C:\Program Files (x86)\Microsoft Visual Studio\2019\Community\VC\Tools\MSVC\14.28.29333\include\xmemory
; File C:\Program Files (x86)\Microsoft Visual Studio\2019\Community\VC\Tools\MSVC\14.28.29333\include\vector
; File D:\Metin2 Server Files\mainline\SRC_2014\Metin2Client\eterLib\Pool.h
;	COMDAT ??1?$CDynamicPoolEx@VCGravityDecorator@NEffectUpdateDecorator@@@@UAE@XZ
_TEXT	SEGMENT
??1?$CDynamicPoolEx@VCGravityDecorator@NEffectUpdateDecorator@@@@UAE@XZ PROC ; CDynamicPoolEx<NEffectUpdateDecorator::CGravityDecorator>::~CDynamicPoolEx<NEffectUpdateDecorator::CGravityDecorator>, COMDAT
; _this$ = ecx

; 132  : 		{

  00000	53		 push	 ebx
  00001	56		 push	 esi
  00002	57		 push	 edi
  00003	8b f9		 mov	 edi, ecx
  00005	c7 07 00 00 00
	00		 mov	 DWORD PTR [edi], OFFSET ??_7?$CDynamicPoolEx@VCGravityDecorator@NEffectUpdateDecorator@@@@6B@
; File C:\Program Files (x86)\Microsoft Visual Studio\2019\Community\VC\Tools\MSVC\14.28.29333\include\vector

; 42   :     _Vector_const_iterator(_Tptr _Parg, const _Container_base* _Pvector) noexcept : _Ptr(_Parg) {

  0000b	8b 5f 08	 mov	 ebx, DWORD PTR [edi+8]
  0000e	8b 77 04	 mov	 esi, DWORD PTR [edi+4]
; File C:\Program Files (x86)\Microsoft Visual Studio\2019\Community\VC\Tools\MSVC\14.28.29333\include\algorithm

; 307  :     for (; _UFirst != _ULast; ++_UFirst) {

  00011	3b f3		 cmp	 esi, ebx
  00013	74 14		 je	 SHORT $LN19@CDynamicPo
$LL20@CDynamicPo:
; File D:\Metin2 Server Files\mainline\SRC_2014\Metin2Client\eterLib\Pool.h

; 224  : 			::operator delete(pkData);

  00015	ff 36		 push	 DWORD PTR [esi]
  00017	e8 00 00 00 00	 call	 ??3@YAXPAX@Z		; operator delete
; File C:\Program Files (x86)\Microsoft Visual Studio\2019\Community\VC\Tools\MSVC\14.28.29333\include\algorithm

; 307  :     for (; _UFirst != _ULast; ++_UFirst) {

  0001c	83 c6 04	 add	 esi, 4
; File D:\Metin2 Server Files\mainline\SRC_2014\Metin2Client\eterLib\Pool.h

; 224  : 			::operator delete(pkData);

  0001f	83 c4 04	 add	 esp, 4
; File C:\Program Files (x86)\Microsoft Visual Studio\2019\Community\VC\Tools\MSVC\14.28.29333\include\algorithm

; 307  :     for (; _UFirst != _ULast; ++_UFirst) {

  00022	3b f3		 cmp	 esi, ebx
  00024	75 ef		 jne	 SHORT $LL20@CDynamicPo
  00026	8b 77 04	 mov	 esi, DWORD PTR [edi+4]
$LN19@CDynamicPo:
; File D:\Metin2 Server Files\mainline\SRC_2014\Metin2Client\eterLib\Pool.h

; 162  : 			m_kVct_pkFree.clear();

  00029	8b 4f 10	 mov	 ecx, DWORD PTR [edi+16]
  0002c	89 77 08	 mov	 DWORD PTR [edi+8], esi
  0002f	89 4f 14	 mov	 DWORD PTR [edi+20], ecx
; File C:\Program Files (x86)\Microsoft Visual Studio\2019\Community\VC\Tools\MSVC\14.28.29333\include\vector

; 1694 :         if (_Myfirst) { // destroy and deallocate old array

  00032	85 c9		 test	 ecx, ecx
  00034	74 27		 je	 SHORT $LN27@CDynamicPo

; 1695 :             _Destroy(_Myfirst, _Mylast);
; 1696 :             _Getal().deallocate(_Myfirst, static_cast<size_type>(_Myend - _Myfirst));

  00036	8b 47 18	 mov	 eax, DWORD PTR [edi+24]
  00039	2b c1		 sub	 eax, ecx
; File C:\Program Files (x86)\Microsoft Visual Studio\2019\Community\VC\Tools\MSVC\14.28.29333\include\xmemory

; 810  :         _Deallocate<_New_alignof<_Ty>>(_Ptr, sizeof(_Ty) * _Count);

  0003b	83 e0 fc	 and	 eax, -4			; fffffffcH
  0003e	50		 push	 eax
  0003f	51		 push	 ecx
  00040	e8 00 00 00 00	 call	 ??$_Deallocate@$07$0A@@std@@YAXPAXI@Z ; std::_Deallocate<8,0>
; File C:\Program Files (x86)\Microsoft Visual Studio\2019\Community\VC\Tools\MSVC\14.28.29333\include\vector

; 1698 :             _Myfirst = pointer();

  00045	c7 47 10 00 00
	00 00		 mov	 DWORD PTR [edi+16], 0
; File C:\Program Files (x86)\Microsoft Visual Studio\2019\Community\VC\Tools\MSVC\14.28.29333\include\xmemory

; 810  :         _Deallocate<_New_alignof<_Ty>>(_Ptr, sizeof(_Ty) * _Count);

  0004c	83 c4 08	 add	 esp, 8
; File C:\Program Files (x86)\Microsoft Visual Studio\2019\Community\VC\Tools\MSVC\14.28.29333\include\vector

; 1699 :             _Mylast  = pointer();

  0004f	c7 47 14 00 00
	00 00		 mov	 DWORD PTR [edi+20], 0

; 1700 :             _Myend   = pointer();

  00056	c7 47 18 00 00
	00 00		 mov	 DWORD PTR [edi+24], 0
$LN27@CDynamicPo:

; 1694 :         if (_Myfirst) { // destroy and deallocate old array

  0005d	8b 4f 04	 mov	 ecx, DWORD PTR [edi+4]
  00060	85 c9		 test	 ecx, ecx
  00062	74 27		 je	 SHORT $LN34@CDynamicPo

; 1695 :             _Destroy(_Myfirst, _Mylast);
; 1696 :             _Getal().deallocate(_Myfirst, static_cast<size_type>(_Myend - _Myfirst));

  00064	8b 47 0c	 mov	 eax, DWORD PTR [edi+12]
  00067	2b c1		 sub	 eax, ecx
; File C:\Program Files (x86)\Microsoft Visual Studio\2019\Community\VC\Tools\MSVC\14.28.29333\include\xmemory

; 810  :         _Deallocate<_New_alignof<_Ty>>(_Ptr, sizeof(_Ty) * _Count);

  00069	83 e0 fc	 and	 eax, -4			; fffffffcH
  0006c	50		 push	 eax
  0006d	51		 push	 ecx
  0006e	e8 00 00 00 00	 call	 ??$_Deallocate@$07$0A@@std@@YAXPAXI@Z ; std::_Deallocate<8,0>
; File C:\Program Files (x86)\Microsoft Visual Studio\2019\Community\VC\Tools\MSVC\14.28.29333\include\vector

; 1698 :             _Myfirst = pointer();

  00073	c7 47 04 00 00
	00 00		 mov	 DWORD PTR [edi+4], 0
; File C:\Program Files (x86)\Microsoft Visual Studio\2019\Community\VC\Tools\MSVC\14.28.29333\include\xmemory

; 810  :         _Deallocate<_New_alignof<_Ty>>(_Ptr, sizeof(_Ty) * _Count);

  0007a	83 c4 08	 add	 esp, 8
; File C:\Program Files (x86)\Microsoft Visual Studio\2019\Community\VC\Tools\MSVC\14.28.29333\include\vector

; 1699 :             _Mylast  = pointer();

  0007d	c7 47 08 00 00
	00 00		 mov	 DWORD PTR [edi+8], 0

; 1700 :             _Myend   = pointer();

  00084	c7 47 0c 00 00
	00 00		 mov	 DWORD PTR [edi+12], 0
$LN34@CDynamicPo:
  0008b	5f		 pop	 edi
; File D:\Metin2 Server Files\mainline\SRC_2014\Metin2Client\eterLib\Pool.h

; 142  : 		}

  0008c	5e		 pop	 esi
  0008d	5b		 pop	 ebx
  0008e	c3		 ret	 0
??1?$CDynamicPoolEx@VCGravityDecorator@NEffectUpdateDecorator@@@@UAE@XZ ENDP ; CDynamicPoolEx<NEffectUpdateDecorator::CGravityDecorator>::~CDynamicPoolEx<NEffectUpdateDecorator::CGravityDecorator>
_TEXT	ENDS
; Function compile flags: /Ogtp
;	COMDAT ??_G?$CDynamicPoolEx@VCRotationDecorator@NEffectUpdateDecorator@@@@UAEPAXI@Z
_TEXT	SEGMENT
___flags$ = 8						; size = 4
??_G?$CDynamicPoolEx@VCRotationDecorator@NEffectUpdateDecorator@@@@UAEPAXI@Z PROC ; CDynamicPoolEx<NEffectUpdateDecorator::CRotationDecorator>::`scalar deleting destructor', COMDAT
; _this$ = ecx
  00000	55		 push	 ebp
  00001	8b ec		 mov	 ebp, esp
  00003	56		 push	 esi
  00004	8b f1		 mov	 esi, ecx
  00006	e8 00 00 00 00	 call	 ??1?$CDynamicPoolEx@VCRotationDecorator@NEffectUpdateDecorator@@@@UAE@XZ ; CDynamicPoolEx<NEffectUpdateDecorator::CRotationDecorator>::~CDynamicPoolEx<NEffectUpdateDecorator::CRotationDecorator>
  0000b	f6 45 08 01	 test	 BYTE PTR ___flags$[ebp], 1
  0000f	74 0b		 je	 SHORT $LN4@scalar
  00011	6a 24		 push	 36			; 00000024H
  00013	56		 push	 esi
  00014	e8 00 00 00 00	 call	 ??3@YAXPAXI@Z		; operator delete
  00019	83 c4 08	 add	 esp, 8
$LN4@scalar:
  0001c	8b c6		 mov	 eax, esi
  0001e	5e		 pop	 esi
  0001f	5d		 pop	 ebp
  00020	c2 04 00	 ret	 4
??_G?$CDynamicPoolEx@VCRotationDecorator@NEffectUpdateDecorator@@@@UAEPAXI@Z ENDP ; CDynamicPoolEx<NEffectUpdateDecorator::CRotationDecorator>::`scalar deleting destructor'
_TEXT	ENDS
; Function compile flags: /Ogtp
; File D:\Metin2 Server Files\mainline\SRC_2014\Metin2Client\eterLib\Pool.h
;	COMDAT ?Delete@?$CDynamicPoolEx@VCRotationDecorator@NEffectUpdateDecorator@@@@KAXPAVCRotationDecorator@NEffectUpdateDecorator@@@Z
_TEXT	SEGMENT
_pkData$ = 8						; size = 4
?Delete@?$CDynamicPoolEx@VCRotationDecorator@NEffectUpdateDecorator@@@@KAXPAVCRotationDecorator@NEffectUpdateDecorator@@@Z PROC ; CDynamicPoolEx<NEffectUpdateDecorator::CRotationDecorator>::Delete, COMDAT

; 224  : 			::operator delete(pkData);

  00000	e9 00 00 00 00	 jmp	 ??3@YAXPAX@Z		; operator delete
?Delete@?$CDynamicPoolEx@VCRotationDecorator@NEffectUpdateDecorator@@@@KAXPAVCRotationDecorator@NEffectUpdateDecorator@@@Z ENDP ; CDynamicPoolEx<NEffectUpdateDecorator::CRotationDecorator>::Delete
_TEXT	ENDS
; Function compile flags: /Ogtp
; File D:\Metin2 Server Files\mainline\SRC_2014\Metin2Client\eterLib\Pool.h
; File C:\Program Files (x86)\Microsoft Visual Studio\2019\Community\VC\Tools\MSVC\14.28.29333\include\vector
; File C:\Program Files (x86)\Microsoft Visual Studio\2019\Community\VC\Tools\MSVC\14.28.29333\include\algorithm
; File D:\Metin2 Server Files\mainline\SRC_2014\Metin2Client\eterLib\Pool.h
; File C:\Program Files (x86)\Microsoft Visual Studio\2019\Community\VC\Tools\MSVC\14.28.29333\include\algorithm
; File D:\Metin2 Server Files\mainline\SRC_2014\Metin2Client\eterLib\Pool.h
; File C:\Program Files (x86)\Microsoft Visual Studio\2019\Community\VC\Tools\MSVC\14.28.29333\include\algorithm
; File D:\Metin2 Server Files\mainline\SRC_2014\Metin2Client\eterLib\Pool.h
; File C:\Program Files (x86)\Microsoft Visual Studio\2019\Community\VC\Tools\MSVC\14.28.29333\include\vector
; File C:\Program Files (x86)\Microsoft Visual Studio\2019\Community\VC\Tools\MSVC\14.28.29333\include\xmemory
; File C:\Program Files (x86)\Microsoft Visual Studio\2019\Community\VC\Tools\MSVC\14.28.29333\include\vector
; File C:\Program Files (x86)\Microsoft Visual Studio\2019\Community\VC\Tools\MSVC\14.28.29333\include\xmemory
; File C:\Program Files (x86)\Microsoft Visual Studio\2019\Community\VC\Tools\MSVC\14.28.29333\include\vector
; File C:\Program Files (x86)\Microsoft Visual Studio\2019\Community\VC\Tools\MSVC\14.28.29333\include\xmemory
; File C:\Program Files (x86)\Microsoft Visual Studio\2019\Community\VC\Tools\MSVC\14.28.29333\include\vector
; File C:\Program Files (x86)\Microsoft Visual Studio\2019\Community\VC\Tools\MSVC\14.28.29333\include\xmemory
; File C:\Program Files (x86)\Microsoft Visual Studio\2019\Community\VC\Tools\MSVC\14.28.29333\include\vector
; File D:\Metin2 Server Files\mainline\SRC_2014\Metin2Client\eterLib\Pool.h
;	COMDAT ??1?$CDynamicPoolEx@VCRotationDecorator@NEffectUpdateDecorator@@@@UAE@XZ
_TEXT	SEGMENT
??1?$CDynamicPoolEx@VCRotationDecorator@NEffectUpdateDecorator@@@@UAE@XZ PROC ; CDynamicPoolEx<NEffectUpdateDecorator::CRotationDecorator>::~CDynamicPoolEx<NEffectUpdateDecorator::CRotationDecorator>, COMDAT
; _this$ = ecx

; 132  : 		{

  00000	53		 push	 ebx
  00001	56		 push	 esi
  00002	57		 push	 edi
  00003	8b f9		 mov	 edi, ecx
  00005	c7 07 00 00 00
	00		 mov	 DWORD PTR [edi], OFFSET ??_7?$CDynamicPoolEx@VCRotationDecorator@NEffectUpdateDecorator@@@@6B@
; File C:\Program Files (x86)\Microsoft Visual Studio\2019\Community\VC\Tools\MSVC\14.28.29333\include\vector

; 42   :     _Vector_const_iterator(_Tptr _Parg, const _Container_base* _Pvector) noexcept : _Ptr(_Parg) {

  0000b	8b 5f 08	 mov	 ebx, DWORD PTR [edi+8]
  0000e	8b 77 04	 mov	 esi, DWORD PTR [edi+4]
; File C:\Program Files (x86)\Microsoft Visual Studio\2019\Community\VC\Tools\MSVC\14.28.29333\include\algorithm

; 307  :     for (; _UFirst != _ULast; ++_UFirst) {

  00011	3b f3		 cmp	 esi, ebx
  00013	74 14		 je	 SHORT $LN19@CDynamicPo
$LL20@CDynamicPo:
; File D:\Metin2 Server Files\mainline\SRC_2014\Metin2Client\eterLib\Pool.h

; 224  : 			::operator delete(pkData);

  00015	ff 36		 push	 DWORD PTR [esi]
  00017	e8 00 00 00 00	 call	 ??3@YAXPAX@Z		; operator delete
; File C:\Program Files (x86)\Microsoft Visual Studio\2019\Community\VC\Tools\MSVC\14.28.29333\include\algorithm

; 307  :     for (; _UFirst != _ULast; ++_UFirst) {

  0001c	83 c6 04	 add	 esi, 4
; File D:\Metin2 Server Files\mainline\SRC_2014\Metin2Client\eterLib\Pool.h

; 224  : 			::operator delete(pkData);

  0001f	83 c4 04	 add	 esp, 4
; File C:\Program Files (x86)\Microsoft Visual Studio\2019\Community\VC\Tools\MSVC\14.28.29333\include\algorithm

; 307  :     for (; _UFirst != _ULast; ++_UFirst) {

  00022	3b f3		 cmp	 esi, ebx
  00024	75 ef		 jne	 SHORT $LL20@CDynamicPo
  00026	8b 77 04	 mov	 esi, DWORD PTR [edi+4]
$LN19@CDynamicPo:
; File D:\Metin2 Server Files\mainline\SRC_2014\Metin2Client\eterLib\Pool.h

; 162  : 			m_kVct_pkFree.clear();

  00029	8b 4f 10	 mov	 ecx, DWORD PTR [edi+16]
  0002c	89 77 08	 mov	 DWORD PTR [edi+8], esi
  0002f	89 4f 14	 mov	 DWORD PTR [edi+20], ecx
; File C:\Program Files (x86)\Microsoft Visual Studio\2019\Community\VC\Tools\MSVC\14.28.29333\include\vector

; 1694 :         if (_Myfirst) { // destroy and deallocate old array

  00032	85 c9		 test	 ecx, ecx
  00034	74 27		 je	 SHORT $LN27@CDynamicPo

; 1695 :             _Destroy(_Myfirst, _Mylast);
; 1696 :             _Getal().deallocate(_Myfirst, static_cast<size_type>(_Myend - _Myfirst));

  00036	8b 47 18	 mov	 eax, DWORD PTR [edi+24]
  00039	2b c1		 sub	 eax, ecx
; File C:\Program Files (x86)\Microsoft Visual Studio\2019\Community\VC\Tools\MSVC\14.28.29333\include\xmemory

; 810  :         _Deallocate<_New_alignof<_Ty>>(_Ptr, sizeof(_Ty) * _Count);

  0003b	83 e0 fc	 and	 eax, -4			; fffffffcH
  0003e	50		 push	 eax
  0003f	51		 push	 ecx
  00040	e8 00 00 00 00	 call	 ??$_Deallocate@$07$0A@@std@@YAXPAXI@Z ; std::_Deallocate<8,0>
; File C:\Program Files (x86)\Microsoft Visual Studio\2019\Community\VC\Tools\MSVC\14.28.29333\include\vector

; 1698 :             _Myfirst = pointer();

  00045	c7 47 10 00 00
	00 00		 mov	 DWORD PTR [edi+16], 0
; File C:\Program Files (x86)\Microsoft Visual Studio\2019\Community\VC\Tools\MSVC\14.28.29333\include\xmemory

; 810  :         _Deallocate<_New_alignof<_Ty>>(_Ptr, sizeof(_Ty) * _Count);

  0004c	83 c4 08	 add	 esp, 8
; File C:\Program Files (x86)\Microsoft Visual Studio\2019\Community\VC\Tools\MSVC\14.28.29333\include\vector

; 1699 :             _Mylast  = pointer();

  0004f	c7 47 14 00 00
	00 00		 mov	 DWORD PTR [edi+20], 0

; 1700 :             _Myend   = pointer();

  00056	c7 47 18 00 00
	00 00		 mov	 DWORD PTR [edi+24], 0
$LN27@CDynamicPo:

; 1694 :         if (_Myfirst) { // destroy and deallocate old array

  0005d	8b 4f 04	 mov	 ecx, DWORD PTR [edi+4]
  00060	85 c9		 test	 ecx, ecx
  00062	74 27		 je	 SHORT $LN34@CDynamicPo

; 1695 :             _Destroy(_Myfirst, _Mylast);
; 1696 :             _Getal().deallocate(_Myfirst, static_cast<size_type>(_Myend - _Myfirst));

  00064	8b 47 0c	 mov	 eax, DWORD PTR [edi+12]
  00067	2b c1		 sub	 eax, ecx
; File C:\Program Files (x86)\Microsoft Visual Studio\2019\Community\VC\Tools\MSVC\14.28.29333\include\xmemory

; 810  :         _Deallocate<_New_alignof<_Ty>>(_Ptr, sizeof(_Ty) * _Count);

  00069	83 e0 fc	 and	 eax, -4			; fffffffcH
  0006c	50		 push	 eax
  0006d	51		 push	 ecx
  0006e	e8 00 00 00 00	 call	 ??$_Deallocate@$07$0A@@std@@YAXPAXI@Z ; std::_Deallocate<8,0>
; File C:\Program Files (x86)\Microsoft Visual Studio\2019\Community\VC\Tools\MSVC\14.28.29333\include\vector

; 1698 :             _Myfirst = pointer();

  00073	c7 47 04 00 00
	00 00		 mov	 DWORD PTR [edi+4], 0
; File C:\Program Files (x86)\Microsoft Visual Studio\2019\Community\VC\Tools\MSVC\14.28.29333\include\xmemory

; 810  :         _Deallocate<_New_alignof<_Ty>>(_Ptr, sizeof(_Ty) * _Count);

  0007a	83 c4 08	 add	 esp, 8
; File C:\Program Files (x86)\Microsoft Visual Studio\2019\Community\VC\Tools\MSVC\14.28.29333\include\vector

; 1699 :             _Mylast  = pointer();

  0007d	c7 47 08 00 00
	00 00		 mov	 DWORD PTR [edi+8], 0

; 1700 :             _Myend   = pointer();

  00084	c7 47 0c 00 00
	00 00		 mov	 DWORD PTR [edi+12], 0
$LN34@CDynamicPo:
  0008b	5f		 pop	 edi
; File D:\Metin2 Server Files\mainline\SRC_2014\Metin2Client\eterLib\Pool.h

; 142  : 		}

  0008c	5e		 pop	 esi
  0008d	5b		 pop	 ebx
  0008e	c3		 ret	 0
??1?$CDynamicPoolEx@VCRotationDecorator@NEffectUpdateDecorator@@@@UAE@XZ ENDP ; CDynamicPoolEx<NEffectUpdateDecorator::CRotationDecorator>::~CDynamicPoolEx<NEffectUpdateDecorator::CRotationDecorator>
_TEXT	ENDS
; Function compile flags: /Ogtp
; File C:\Program Files (x86)\Microsoft Visual Studio\2019\Community\VC\Tools\MSVC\14.28.29333\include\xstring
; File C:\Program Files (x86)\Microsoft Visual Studio\2019\Community\VC\Tools\MSVC\14.28.29333\include\utility
; File C:\Program Files (x86)\Microsoft Visual Studio\2019\Community\VC\Tools\MSVC\14.28.29333\include\xstring
; File C:\Program Files (x86)\Microsoft Visual Studio\2019\Community\VC\Tools\MSVC\14.28.29333\include\xmemory
; File C:\Program Files (x86)\Microsoft Visual Studio\2019\Community\VC\Tools\MSVC\14.28.29333\include\xstring
;	COMDAT ??$?HDU?$char_traits@D@std@@V?$allocator@D@1@@std@@YA?AV?$basic_string@DU?$char_traits@D@std@@V?$allocator@D@2@@0@ABV10@0@Z
_TEXT	SEGMENT
__Right_size$1$ = -12					; size = 4
__Fancyptr$1 = -8					; size = 4
__Left_size$1$ = -4					; size = 4
___$ReturnUdt$ = 8					; size = 4
__Ptr$1$ = 12						; size = 4
__Left$ = 12						; size = 4
__New_size$1$ = 16					; size = 4
__Right$ = 16						; size = 4
??$?HDU?$char_traits@D@std@@V?$allocator@D@1@@std@@YA?AV?$basic_string@DU?$char_traits@D@std@@V?$allocator@D@2@@0@ABV10@0@Z PROC ; std::operator+<char,std::char_traits<char>,std::allocator<char> >, COMDAT

; 4444 :     const basic_string<_Elem, _Traits, _Alloc>& _Left, const basic_string<_Elem, _Traits, _Alloc>& _Right) {

  00000	55		 push	 ebp
  00001	8b ec		 mov	 ebp, esp
  00003	83 ec 0c	 sub	 esp, 12			; 0000000cH
  00006	53		 push	 ebx

; 4445 :     const auto _Left_size  = _Left.size();
; 4446 :     const auto _Right_size = _Right.size();

  00007	8b 5d 10	 mov	 ebx, DWORD PTR __Right$[ebp]

; 4447 :     if (_Left.max_size() - _Left_size < _Right_size) {

  0000a	b8 ff ff ff 7f	 mov	 eax, 2147483647		; 7fffffffH
  0000f	56		 push	 esi
  00010	57		 push	 edi
  00011	8b 7d 0c	 mov	 edi, DWORD PTR __Left$[ebp]
  00014	8b 53 10	 mov	 edx, DWORD PTR [ebx+16]
  00017	89 55 f4	 mov	 DWORD PTR __Right_size$1$[ebp], edx
  0001a	8b 4f 10	 mov	 ecx, DWORD PTR [edi+16]
  0001d	2b c1		 sub	 eax, ecx
  0001f	89 4d fc	 mov	 DWORD PTR __Left_size$1$[ebp], ecx
  00022	3b c2		 cmp	 eax, edx
  00024	0f 82 ab 00 00
	00		 jb	 $LN43@operator

; 2227 :         return _BUF_SIZE <= _Myres;

  0002a	83 7f 14 10	 cmp	 DWORD PTR [edi+20], 16	; 00000010H

; 2219 :         if (_Large_string_engaged()) {

  0002e	72 02		 jb	 SHORT $LN9@operator

; 2220 :             _Result = _Unfancy(_Bx._Ptr);

  00030	8b 3f		 mov	 edi, DWORD PTR [edi]
$LN9@operator:

; 2227 :         return _BUF_SIZE <= _Myres;

  00032	83 7b 14 10	 cmp	 DWORD PTR [ebx+20], 16	; 00000010H

; 2219 :         if (_Large_string_engaged()) {

  00036	72 02		 jb	 SHORT $LN16@operator

; 2220 :             _Result = _Unfancy(_Bx._Ptr);

  00038	8b 1b		 mov	 ebx, DWORD PTR [ebx]
$LN16@operator:

; 2198 :     _String_val() noexcept : _Bx(), _Mysize(0), _Myres(0) {}

  0003a	8b 45 08	 mov	 eax, DWORD PTR ___$ReturnUdt$[ebp]

; 2525 :         const auto _New_size    = static_cast<size_type>(_Left_size + _Right_size);

  0003d	03 d1		 add	 edx, ecx

; 2526 :         size_type _New_capacity = _BUF_SIZE - 1;

  0003f	be 0f 00 00 00	 mov	 esi, 15			; 0000000fH
  00044	89 55 10	 mov	 DWORD PTR __New_size$1$[ebp], edx

; 2527 :         auto& _My_data          = _Mypair._Myval2;
; 2528 :         _Elem* _Ptr             = _My_data._Bx._Buf;

  00047	89 45 0c	 mov	 DWORD PTR __Ptr$1$[ebp], eax

; 2198 :     _String_val() noexcept : _Bx(), _Mysize(0), _Myres(0) {}

  0004a	c7 40 10 00 00
	00 00		 mov	 DWORD PTR [eax+16], 0
  00051	c7 40 14 00 00
	00 00		 mov	 DWORD PTR [eax+20], 0

; 2531 :         if (_New_capacity < _New_size) {

  00058	3b d6		 cmp	 edx, esi
  0005a	76 45		 jbe	 SHORT $LN21@operator

; 4285 :         const size_type _Masked = _Requested | _ALLOC_MASK;

  0005c	8b f2		 mov	 esi, edx
  0005e	83 ce 0f	 or	 esi, 15			; 0000000fH
  00061	81 fe ff ff ff
	7f		 cmp	 esi, 2147483647		; 7fffffffH

; 4286 :         if (_Masked > _Max) { // the mask overflows, settle for max_size()

  00067	76 07		 jbe	 SHORT $LN30@operator

; 4287 :             return _Max;

  00069	be ff ff ff 7f	 mov	 esi, 2147483647		; 7fffffffH
  0006e	eb 0a		 jmp	 SHORT $LN29@operator
$LN30@operator:
; File C:\Program Files (x86)\Microsoft Visual Studio\2019\Community\VC\Tools\MSVC\14.28.29333\include\utility

; 44   :     return _Left < _Right ? _Right : _Left;

  00070	b8 16 00 00 00	 mov	 eax, 22			; 00000016H
  00075	3b f0		 cmp	 esi, eax
  00077	0f 42 f0	 cmovb	 esi, eax
$LN29@operator:
; File C:\Program Files (x86)\Microsoft Visual Studio\2019\Community\VC\Tools\MSVC\14.28.29333\include\xstring

; 2533 :             const pointer _Fancyptr = _Getal().allocate(_New_capacity + 1); // throws

  0007a	8d 46 01	 lea	 eax, DWORD PTR [esi+1]
; File C:\Program Files (x86)\Microsoft Visual Studio\2019\Community\VC\Tools\MSVC\14.28.29333\include\xmemory

; 814  :         return static_cast<_Ty*>(_Allocate<_New_alignof<_Ty>>(_Get_size_of_n<sizeof(_Ty)>(_Count)));

  0007d	50		 push	 eax
  0007e	e8 00 00 00 00	 call	 ??$_Allocate@$07U_Default_allocate_traits@std@@$0A@@std@@YAPAXI@Z ; std::_Allocate<8,std::_Default_allocate_traits,0>
; File C:\Program Files (x86)\Microsoft Visual Studio\2019\Community\VC\Tools\MSVC\14.28.29333\include\xstring

; 2533 :             const pointer _Fancyptr = _Getal().allocate(_New_capacity + 1); // throws

  00083	89 45 0c	 mov	 DWORD PTR __Ptr$1$[ebp], eax
  00086	89 45 f8	 mov	 DWORD PTR __Fancyptr$1[ebp], eax

; 2534 :             _Ptr                    = _Unfancy(_Fancyptr);
; 2535 :             _Construct_in_place(_My_data._Bx._Ptr, _Fancyptr);

  00089	8d 45 f8	 lea	 eax, DWORD PTR __Fancyptr$1[ebp]
  0008c	50		 push	 eax
  0008d	ff 75 08	 push	 DWORD PTR ___$ReturnUdt$[ebp]
  00090	e8 00 00 00 00	 call	 ??$_Construct_in_place@PADABQAD@std@@YAXAAPADABQAD@Z ; std::_Construct_in_place<char *,char * const &>
  00095	8b 45 08	 mov	 eax, DWORD PTR ___$ReturnUdt$[ebp]
  00098	83 c4 0c	 add	 esp, 12			; 0000000cH
  0009b	8b 4d fc	 mov	 ecx, DWORD PTR __Left_size$1$[ebp]
  0009e	8b 55 10	 mov	 edx, DWORD PTR __New_size$1$[ebp]
$LN21@operator:

; 62   :         _CSTD memcpy(_First1, _First2, _Count * sizeof(_Elem));

  000a1	51		 push	 ecx

; 2539 :         _My_data._Myres  = _New_capacity;

  000a2	89 70 14	 mov	 DWORD PTR [eax+20], esi

; 62   :         _CSTD memcpy(_First1, _First2, _Count * sizeof(_Elem));

  000a5	8b 75 0c	 mov	 esi, DWORD PTR __Ptr$1$[ebp]
  000a8	57		 push	 edi
  000a9	56		 push	 esi

; 2538 :         _My_data._Mysize = _New_size;

  000aa	89 50 10	 mov	 DWORD PTR [eax+16], edx

; 62   :         _CSTD memcpy(_First1, _First2, _Count * sizeof(_Elem));

  000ad	e8 00 00 00 00	 call	 _memcpy
  000b2	ff 75 f4	 push	 DWORD PTR __Right_size$1$[ebp]

; 2541 :         _Traits::copy(_Ptr + static_cast<ptrdiff_t>(_Left_size), _Right_ptr, _Right_size);

  000b5	8b 4d fc	 mov	 ecx, DWORD PTR __Left_size$1$[ebp]
  000b8	03 ce		 add	 ecx, esi

; 62   :         _CSTD memcpy(_First1, _First2, _Count * sizeof(_Elem));

  000ba	53		 push	 ebx
  000bb	51		 push	 ecx
  000bc	e8 00 00 00 00	 call	 _memcpy

; 2542 :         _Traits::assign(_Ptr[_New_size], _Elem());

  000c1	8b 45 10	 mov	 eax, DWORD PTR __New_size$1$[ebp]

; 62   :         _CSTD memcpy(_First1, _First2, _Count * sizeof(_Elem));

  000c4	83 c4 18	 add	 esp, 24			; 00000018H

; 4449 :     }
; 4450 : 
; 4451 :     return {_String_constructor_concat_tag{}, _Left, _Left.c_str(), _Left_size, _Right.c_str(), _Right_size};

  000c7	5f		 pop	 edi

; 2542 :         _Traits::assign(_Ptr[_New_size], _Elem());

  000c8	c6 04 06 00	 mov	 BYTE PTR [esi+eax], 0

; 4449 :     }
; 4450 : 
; 4451 :     return {_String_constructor_concat_tag{}, _Left, _Left.c_str(), _Left_size, _Right.c_str(), _Right_size};

  000cc	8b 45 08	 mov	 eax, DWORD PTR ___$ReturnUdt$[ebp]
  000cf	5e		 pop	 esi
  000d0	5b		 pop	 ebx

; 4452 : }

  000d1	8b e5		 mov	 esp, ebp
  000d3	5d		 pop	 ebp
  000d4	c3		 ret	 0
$LN43@operator:

; 4448 :         _Xlen_string();

  000d5	e8 00 00 00 00	 call	 ?_Xlen_string@std@@YAXXZ ; std::_Xlen_string
$LN41@operator:
  000da	cc		 int	 3
??$?HDU?$char_traits@D@std@@V?$allocator@D@1@@std@@YA?AV?$basic_string@DU?$char_traits@D@std@@V?$allocator@D@2@@0@ABV10@0@Z ENDP ; std::operator+<char,std::char_traits<char>,std::allocator<char> >
_TEXT	ENDS
; Function compile flags: /Ogtp
; File D:\Metin2 Server Files\mainline\SRC_2014\Metin2Client\GameLib\RaceDataFile.cpp
; File C:\Program Files (x86)\Microsoft Visual Studio\2019\Community\VC\Tools\MSVC\14.28.29333\include\xmemory
; File C:\Program Files (x86)\Microsoft Visual Studio\2019\Community\VC\Tools\MSVC\14.28.29333\include\xstring
; File C:\Program Files (x86)\Microsoft Visual Studio\2019\Community\VC\Tools\MSVC\14.28.29333\include\xmemory
; File C:\Program Files (x86)\Microsoft Visual Studio\2019\Community\VC\Tools\MSVC\14.28.29333\include\xstring
; File D:\Metin2 Server Files\mainline\SRC_2014\Metin2Client\GameLib\RaceDataFile.cpp
; File C:\Program Files (x86)\Microsoft Visual Studio\2019\Community\VC\Tools\MSVC\14.28.29333\include\xstring
; File C:\Program Files (x86)\Microsoft Visual Studio\2019\Community\VC\Tools\MSVC\14.28.29333\include\xmemory
; File C:\Program Files (x86)\Microsoft Visual Studio\2019\Community\VC\Tools\MSVC\14.28.29333\include\xstring
; File D:\Metin2 Server Files\mainline\SRC_2014\Metin2Client\GameLib\RaceDataFile.cpp
; File C:\Program Files (x86)\Microsoft Visual Studio\2019\Community\VC\Tools\MSVC\14.28.29333\include\xstring
; File D:\Metin2 Server Files\mainline\SRC_2014\Metin2Client\GameLib\RaceDataFile.cpp
; File C:\Program Files (x86)\Microsoft Visual Studio\2019\Community\VC\Tools\MSVC\14.28.29333\include\xstring
; File C:\Program Files (x86)\Microsoft Visual Studio\2019\Community\VC\Tools\MSVC\14.28.29333\include\xmemory
; File C:\Program Files (x86)\Microsoft Visual Studio\2019\Community\VC\Tools\MSVC\14.28.29333\include\xstring
; File C:\Program Files (x86)\Microsoft Visual Studio\2019\Community\VC\Tools\MSVC\14.28.29333\include\xmemory
; File C:\Program Files (x86)\Microsoft Visual Studio\2019\Community\VC\Tools\MSVC\14.28.29333\include\xstring
; File D:\Metin2 Server Files\mainline\SRC_2014\Metin2Client\GameLib\RaceDataFile.cpp
; File C:\Program Files (x86)\Microsoft Visual Studio\2019\Community\VC\Tools\MSVC\14.28.29333\include\xstring
; File C:\Program Files (x86)\Microsoft Visual Studio\2019\Community\VC\Tools\MSVC\14.28.29333\include\xmemory
; File C:\Program Files (x86)\Microsoft Visual Studio\2019\Community\VC\Tools\MSVC\14.28.29333\include\xstring
; File D:\Metin2 Server Files\mainline\SRC_2014\Metin2Client\GameLib\RaceDataFile.cpp
; File C:\Program Files (x86)\Microsoft Visual Studio\2019\Community\VC\Tools\MSVC\14.28.29333\include\xstring
; File D:\Metin2 Server Files\mainline\SRC_2014\Metin2Client\GameLib\RaceDataFile.cpp
; File C:\Program Files (x86)\Microsoft Visual Studio\2019\Community\VC\Tools\MSVC\14.28.29333\include\xstring
; File C:\Program Files (x86)\Microsoft Visual Studio\2019\Community\VC\Tools\MSVC\14.28.29333\include\xmemory
; File C:\Program Files (x86)\Microsoft Visual Studio\2019\Community\VC\Tools\MSVC\14.28.29333\include\xstring
; File C:\Program Files (x86)\Microsoft Visual Studio\2019\Community\VC\Tools\MSVC\14.28.29333\include\xmemory
; File C:\Program Files (x86)\Microsoft Visual Studio\2019\Community\VC\Tools\MSVC\14.28.29333\include\xstring
; File D:\Metin2 Server Files\mainline\SRC_2014\Metin2Client\GameLib\RaceDataFile.cpp
; File C:\Program Files (x86)\Microsoft Visual Studio\2019\Community\VC\Tools\MSVC\14.28.29333\include\xstring
; File D:\Metin2 Server Files\mainline\SRC_2014\Metin2Client\GameLib\RaceDataFile.cpp
; File C:\Program Files (x86)\Microsoft Visual Studio\2019\Community\VC\Tools\MSVC\14.28.29333\include\xstring
; File C:\Program Files (x86)\Microsoft Visual Studio\2019\Community\VC\Tools\MSVC\14.28.29333\include\xmemory
; File D:\Metin2 Server Files\mainline\SRC_2014\Metin2Client\GameLib\RaceDataFile.cpp
; File D:\Metin2 Server Files\mainline\SRC_2014\Metin2Client\eterBase\filename.h
; File C:\Program Files (x86)\Microsoft Visual Studio\2019\Community\VC\Tools\MSVC\14.28.29333\include\xstring
; File D:\Metin2 Server Files\mainline\SRC_2014\Metin2Client\eterBase\filename.h
; File C:\Program Files (x86)\Microsoft Visual Studio\2019\Community\VC\Tools\MSVC\14.28.29333\include\xstring
; File D:\Metin2 Server Files\mainline\SRC_2014\Metin2Client\eterBase\filename.h
; File C:\Program Files (x86)\Microsoft Visual Studio\2019\Community\VC\Tools\MSVC\14.28.29333\include\xstring
; File D:\Metin2 Server Files\mainline\SRC_2014\Metin2Client\eterBase\filename.h
; File C:\Program Files (x86)\Microsoft Visual Studio\2019\Community\VC\Tools\MSVC\14.28.29333\include\xstring
; File D:\Metin2 Server Files\mainline\SRC_2014\Metin2Client\GameLib\RaceDataFile.cpp
; File C:\Program Files (x86)\Microsoft Visual Studio\2019\Community\VC\Tools\MSVC\14.28.29333\include\xstring
; File D:\Metin2 Server Files\mainline\SRC_2014\Metin2Client\GameLib\RaceDataFile.cpp
; File C:\Program Files (x86)\Microsoft Visual Studio\2019\Community\VC\Tools\MSVC\14.28.29333\include\xstring
; File C:\Program Files (x86)\Microsoft Visual Studio\2019\Community\VC\Tools\MSVC\14.28.29333\include\xmemory
; File D:\Metin2 Server Files\mainline\SRC_2014\Metin2Client\GameLib\RaceDataFile.cpp
; File C:\Program Files (x86)\Microsoft Visual Studio\2019\Community\VC\Tools\MSVC\14.28.29333\include\vector
; File D:\Metin2 Server Files\mainline\SRC_2014\Metin2Client\GameLib\RaceDataFile.cpp
; File C:\Program Files (x86)\Microsoft Visual Studio\2019\Community\VC\Tools\MSVC\14.28.29333\include\vector
; File C:\Program Files (x86)\Microsoft Visual Studio\2019\Community\VC\Tools\MSVC\14.28.29333\include\xstring
; File D:\Metin2 Server Files\mainline\SRC_2014\Metin2Client\GameLib\RaceDataFile.cpp
; File C:\Program Files (x86)\Microsoft Visual Studio\2019\Community\VC\Tools\MSVC\14.28.29333\include\vector
; File D:\Metin2 Server Files\mainline\SRC_2014\Metin2Client\GameLib\RaceDataFile.cpp
; File C:\Program Files (x86)\Microsoft Visual Studio\2019\Community\VC\Tools\MSVC\14.28.29333\include\vector
; File D:\Metin2 Server Files\mainline\SRC_2014\Metin2Client\GameLib\RaceDataFile.cpp
; File C:\Program Files (x86)\Microsoft Visual Studio\2019\Community\VC\Tools\MSVC\14.28.29333\include\xstring
; File D:\Metin2 Server Files\mainline\SRC_2014\Metin2Client\GameLib\RaceDataFile.cpp
; File C:\Program Files (x86)\Microsoft Visual Studio\2019\Community\VC\Tools\MSVC\14.28.29333\include\xstring
; File D:\Metin2 Server Files\mainline\SRC_2014\Metin2Client\GameLib\RaceDataFile.cpp
; File C:\Program Files (x86)\Microsoft Visual Studio\2019\Community\VC\Tools\MSVC\14.28.29333\include\xstring
; File D:\Metin2 Server Files\mainline\SRC_2014\Metin2Client\GameLib\RaceDataFile.cpp
; File C:\Program Files (x86)\Microsoft Visual Studio\2019\Community\VC\Tools\MSVC\14.28.29333\include\xstring
; File D:\Metin2 Server Files\mainline\SRC_2014\Metin2Client\GameLib\RaceDataFile.cpp
; File C:\Program Files (x86)\Microsoft Visual Studio\2019\Community\VC\Tools\MSVC\14.28.29333\include\xstring
; File D:\Metin2 Server Files\mainline\SRC_2014\Metin2Client\GameLib\RaceDataFile.cpp
; File C:\Program Files (x86)\Microsoft Visual Studio\2019\Community\VC\Tools\MSVC\14.28.29333\include\xstring
; File D:\Metin2 Server Files\mainline\SRC_2014\Metin2Client\GameLib\RaceDataFile.cpp
; File C:\Program Files (x86)\Microsoft Visual Studio\2019\Community\VC\Tools\MSVC\14.28.29333\include\xstring
; File D:\Metin2 Server Files\mainline\SRC_2014\Metin2Client\GameLib\RaceDataFile.cpp
; File C:\Program Files (x86)\Microsoft Visual Studio\2019\Community\VC\Tools\MSVC\14.28.29333\include\xstring
; File C:\Program Files (x86)\Microsoft Visual Studio\2019\Community\VC\Tools\MSVC\14.28.29333\include\xmemory
; File C:\Program Files (x86)\Microsoft Visual Studio\2019\Community\VC\Tools\MSVC\14.28.29333\include\xstring
; File D:\Metin2 Server Files\mainline\SRC_2014\Metin2Client\GameLib\RaceDataFile.cpp
; File C:\Program Files (x86)\Microsoft Visual Studio\2019\Community\VC\Tools\MSVC\14.28.29333\include\xstring
; File C:\Program Files (x86)\Microsoft Visual Studio\2019\Community\VC\Tools\MSVC\14.28.29333\include\xmemory
; File D:\Metin2 Server Files\mainline\SRC_2014\Metin2Client\GameLib\RaceDataFile.cpp
; File C:\Program Files (x86)\Microsoft Visual Studio\2019\Community\VC\Tools\MSVC\14.28.29333\include\xstring
; File D:\Metin2 Server Files\mainline\SRC_2014\Metin2Client\GameLib\RaceDataFile.cpp
; File C:\Program Files (x86)\Microsoft Visual Studio\2019\Community\VC\Tools\MSVC\14.28.29333\include\xstring
; File D:\Metin2 Server Files\mainline\SRC_2014\Metin2Client\GameLib\RaceDataFile.cpp
; File C:\Program Files (x86)\Microsoft Visual Studio\2019\Community\VC\Tools\MSVC\14.28.29333\include\xstring
; File C:\Program Files (x86)\Microsoft Visual Studio\2019\Community\VC\Tools\MSVC\14.28.29333\include\xmemory
; File D:\Metin2 Server Files\mainline\SRC_2014\Metin2Client\GameLib\RaceDataFile.cpp
; File C:\Program Files (x86)\Microsoft Visual Studio\2019\Community\VC\Tools\MSVC\14.28.29333\include\xstring
; File D:\Metin2 Server Files\mainline\SRC_2014\Metin2Client\GameLib\RaceDataFile.cpp
; File C:\Program Files (x86)\Microsoft Visual Studio\2019\Community\VC\Tools\MSVC\14.28.29333\include\xstring
; File C:\Program Files (x86)\Microsoft Visual Studio\2019\Community\VC\Tools\MSVC\14.28.29333\include\xmemory
; File C:\Program Files (x86)\Microsoft Visual Studio\2019\Community\VC\Tools\MSVC\14.28.29333\include\xstring
; File D:\Metin2 Server Files\mainline\SRC_2014\Metin2Client\GameLib\RaceDataFile.cpp
; File C:\Program Files (x86)\Microsoft Visual Studio\2019\Community\VC\Tools\MSVC\14.28.29333\include\xstring
; File D:\Metin2 Server Files\mainline\SRC_2014\Metin2Client\GameLib\RaceDataFile.cpp
; File C:\Program Files (x86)\Microsoft Visual Studio\2019\Community\VC\Tools\MSVC\14.28.29333\include\xstring
; File C:\Program Files (x86)\Microsoft Visual Studio\2019\Community\VC\Tools\MSVC\14.28.29333\include\xmemory
; File D:\Metin2 Server Files\mainline\SRC_2014\Metin2Client\GameLib\RaceDataFile.cpp
; File C:\Program Files (x86)\Microsoft Visual Studio\2019\Community\VC\Tools\MSVC\14.28.29333\include\xstring
; File D:\Metin2 Server Files\mainline\SRC_2014\Metin2Client\GameLib\RaceDataFile.cpp
; File C:\Program Files (x86)\Microsoft Visual Studio\2019\Community\VC\Tools\MSVC\14.28.29333\include\xstring
; File D:\Metin2 Server Files\mainline\SRC_2014\Metin2Client\GameLib\RaceDataFile.cpp
; File C:\Program Files (x86)\Microsoft Visual Studio\2019\Community\VC\Tools\MSVC\14.28.29333\include\xstring
; File C:\Program Files (x86)\Microsoft Visual Studio\2019\Community\VC\Tools\MSVC\14.28.29333\include\xmemory
; File D:\Metin2 Server Files\mainline\SRC_2014\Metin2Client\GameLib\RaceDataFile.cpp
; File C:\Program Files (x86)\Microsoft Visual Studio\2019\Community\VC\Tools\MSVC\14.28.29333\include\xstring
; File D:\Metin2 Server Files\mainline\SRC_2014\Metin2Client\GameLib\RaceDataFile.cpp
; File C:\Program Files (x86)\Microsoft Visual Studio\2019\Community\VC\Tools\MSVC\14.28.29333\include\xstring
; File D:\Metin2 Server Files\mainline\SRC_2014\Metin2Client\GameLib\RaceDataFile.cpp
; File C:\Program Files (x86)\Microsoft Visual Studio\2019\Community\VC\Tools\MSVC\14.28.29333\include\xstring
; File C:\Program Files (x86)\Microsoft Visual Studio\2019\Community\VC\Tools\MSVC\14.28.29333\include\xmemory
; File D:\Metin2 Server Files\mainline\SRC_2014\Metin2Client\GameLib\RaceDataFile.cpp
; File C:\Program Files (x86)\Microsoft Visual Studio\2019\Community\VC\Tools\MSVC\14.28.29333\include\xstring
; File D:\Metin2 Server Files\mainline\SRC_2014\Metin2Client\GameLib\RaceDataFile.cpp
; File C:\Program Files (x86)\Microsoft Visual Studio\2019\Community\VC\Tools\MSVC\14.28.29333\include\xstring
; File D:\Metin2 Server Files\mainline\SRC_2014\Metin2Client\GameLib\RaceDataFile.cpp
; File C:\Program Files (x86)\Microsoft Visual Studio\2019\Community\VC\Tools\MSVC\14.28.29333\include\xstring
; File D:\Metin2 Server Files\mainline\SRC_2014\Metin2Client\GameLib\RaceDataFile.cpp
; File C:\Program Files (x86)\Microsoft Visual Studio\2019\Community\VC\Tools\MSVC\14.28.29333\include\xstring
; File C:\Program Files (x86)\Microsoft Visual Studio\2019\Community\VC\Tools\MSVC\14.28.29333\include\xmemory
; File D:\Metin2 Server Files\mainline\SRC_2014\Metin2Client\GameLib\RaceDataFile.cpp
; File C:\Program Files (x86)\Microsoft Visual Studio\2019\Community\VC\Tools\MSVC\14.28.29333\include\xstring
; File D:\Metin2 Server Files\mainline\SRC_2014\Metin2Client\GameLib\RaceDataFile.cpp
; File C:\Program Files (x86)\Microsoft Visual Studio\2019\Community\VC\Tools\MSVC\14.28.29333\include\xstring
; File D:\Metin2 Server Files\mainline\SRC_2014\Metin2Client\GameLib\RaceDataFile.cpp
; File C:\Program Files (x86)\Microsoft Visual Studio\2019\Community\VC\Tools\MSVC\14.28.29333\include\xstring
; File D:\Metin2 Server Files\mainline\SRC_2014\Metin2Client\GameLib\RaceDataFile.cpp
; File C:\Program Files (x86)\Microsoft Visual Studio\2019\Community\VC\Tools\MSVC\14.28.29333\include\xstring
; File D:\Metin2 Server Files\mainline\SRC_2014\Metin2Client\GameLib\RaceDataFile.cpp
; File C:\Program Files (x86)\Microsoft Visual Studio\2019\Community\VC\Tools\MSVC\14.28.29333\include\xstring
; File D:\Metin2 Server Files\mainline\SRC_2014\Metin2Client\GameLib\RaceDataFile.cpp
; File C:\Program Files (x86)\Microsoft Visual Studio\2019\Community\VC\Tools\MSVC\14.28.29333\include\xstring
; File D:\Metin2 Server Files\mainline\SRC_2014\Metin2Client\GameLib\RaceDataFile.cpp
; File C:\Program Files (x86)\Microsoft Visual Studio\2019\Community\VC\Tools\MSVC\14.28.29333\include\xstring
; File C:\Program Files (x86)\Microsoft Visual Studio\2019\Community\VC\Tools\MSVC\14.28.29333\include\xmemory
; File C:\Program Files (x86)\Microsoft Visual Studio\2019\Community\VC\Tools\MSVC\14.28.29333\include\xstring
; File D:\Metin2 Server Files\mainline\SRC_2014\Metin2Client\GameLib\RaceDataFile.cpp
; File C:\Program Files (x86)\Microsoft Visual Studio\2019\Community\VC\Tools\MSVC\14.28.29333\include\xstring
; File C:\Program Files (x86)\Microsoft Visual Studio\2019\Community\VC\Tools\MSVC\14.28.29333\include\xmemory
; File D:\Metin2 Server Files\mainline\SRC_2014\Metin2Client\GameLib\RaceDataFile.cpp
; File C:\Program Files (x86)\Microsoft Visual Studio\2019\Community\VC\Tools\MSVC\14.28.29333\include\xstring
; File D:\Metin2 Server Files\mainline\SRC_2014\Metin2Client\GameLib\RaceDataFile.cpp
; File C:\Program Files (x86)\Microsoft Visual Studio\2019\Community\VC\Tools\MSVC\14.28.29333\include\xstring
; File D:\Metin2 Server Files\mainline\SRC_2014\Metin2Client\GameLib\RaceDataFile.cpp
; File C:\Program Files (x86)\Microsoft Visual Studio\2019\Community\VC\Tools\MSVC\14.28.29333\include\xstring
; File D:\Metin2 Server Files\mainline\SRC_2014\Metin2Client\GameLib\RaceDataFile.cpp
; File C:\Program Files (x86)\Microsoft Visual Studio\2019\Community\VC\Tools\MSVC\14.28.29333\include\xstring
; File D:\Metin2 Server Files\mainline\SRC_2014\Metin2Client\GameLib\RaceDataFile.cpp
; File C:\Program Files (x86)\Microsoft Visual Studio\2019\Community\VC\Tools\MSVC\14.28.29333\include\xstring
; File D:\Metin2 Server Files\mainline\SRC_2014\Metin2Client\GameLib\RaceDataFile.cpp
; File C:\Program Files (x86)\Microsoft Visual Studio\2019\Community\VC\Tools\MSVC\14.28.29333\include\xstring
; File C:\Program Files (x86)\Microsoft Visual Studio\2019\Community\VC\Tools\MSVC\14.28.29333\include\xmemory
; File C:\Program Files (x86)\Microsoft Visual Studio\2019\Community\VC\Tools\MSVC\14.28.29333\include\xstring
; File D:\Metin2 Server Files\mainline\SRC_2014\Metin2Client\GameLib\RaceDataFile.cpp
; File C:\Program Files (x86)\Microsoft Visual Studio\2019\Community\VC\Tools\MSVC\14.28.29333\include\xstring
; File C:\Program Files (x86)\Microsoft Visual Studio\2019\Community\VC\Tools\MSVC\14.28.29333\include\xmemory
; File D:\Metin2 Server Files\mainline\SRC_2014\Metin2Client\GameLib\RaceDataFile.cpp
; File C:\Program Files (x86)\Microsoft Visual Studio\2019\Community\VC\Tools\MSVC\14.28.29333\include\xstring
; File D:\Metin2 Server Files\mainline\SRC_2014\Metin2Client\GameLib\RaceDataFile.cpp
; File C:\Program Files (x86)\Microsoft Visual Studio\2019\Community\VC\Tools\MSVC\14.28.29333\include\xstring
; File D:\Metin2 Server Files\mainline\SRC_2014\Metin2Client\GameLib\RaceDataFile.cpp
; File C:\Program Files (x86)\Microsoft Visual Studio\2019\Community\VC\Tools\MSVC\14.28.29333\include\xstring
; File C:\Program Files (x86)\Microsoft Visual Studio\2019\Community\VC\Tools\MSVC\14.28.29333\include\xmemory
; File C:\Program Files (x86)\Microsoft Visual Studio\2019\Community\VC\Tools\MSVC\14.28.29333\include\xstring
; File D:\Metin2 Server Files\mainline\SRC_2014\Metin2Client\GameLib\RaceDataFile.cpp
; File C:\Program Files (x86)\Microsoft Visual Studio\2019\Community\VC\Tools\MSVC\14.28.29333\include\xstring
; File C:\Program Files (x86)\Microsoft Visual Studio\2019\Community\VC\Tools\MSVC\14.28.29333\include\xmemory
; File C:\Program Files (x86)\Microsoft Visual Studio\2019\Community\VC\Tools\MSVC\14.28.29333\include\xstring
; File D:\Metin2 Server Files\mainline\SRC_2014\Metin2Client\GameLib\RaceDataFile.cpp
; File C:\Program Files (x86)\Microsoft Visual Studio\2019\Community\VC\Tools\MSVC\14.28.29333\include\xstring
; File D:\Metin2 Server Files\mainline\SRC_2014\Metin2Client\GameLib\RaceDataFile.cpp
; File C:\Program Files (x86)\Microsoft Visual Studio\2019\Community\VC\Tools\MSVC\14.28.29333\include\xstring
; File D:\Metin2 Server Files\mainline\SRC_2014\Metin2Client\GameLib\RaceDataFile.cpp
; File C:\Program Files (x86)\Microsoft Visual Studio\2019\Community\VC\Tools\MSVC\14.28.29333\include\xstring
; File C:\Program Files (x86)\Microsoft Visual Studio\2019\Community\VC\Tools\MSVC\14.28.29333\include\xmemory
; File C:\Program Files (x86)\Microsoft Visual Studio\2019\Community\VC\Tools\MSVC\14.28.29333\include\xstring
; File D:\Metin2 Server Files\mainline\SRC_2014\Metin2Client\GameLib\RaceDataFile.cpp
; File C:\Program Files (x86)\Microsoft Visual Studio\2019\Community\VC\Tools\MSVC\14.28.29333\include\xstring
; File C:\Program Files (x86)\Microsoft Visual Studio\2019\Community\VC\Tools\MSVC\14.28.29333\include\xmemory
; File D:\Metin2 Server Files\mainline\SRC_2014\Metin2Client\GameLib\RaceDataFile.cpp
; File C:\Program Files (x86)\Microsoft Visual Studio\2019\Community\VC\Tools\MSVC\14.28.29333\include\xstring
; File D:\Metin2 Server Files\mainline\SRC_2014\Metin2Client\GameLib\RaceDataFile.cpp
; File C:\Program Files (x86)\Microsoft Visual Studio\2019\Community\VC\Tools\MSVC\14.28.29333\include\xstring
; File D:\Metin2 Server Files\mainline\SRC_2014\Metin2Client\GameLib\RaceDataFile.cpp
; File C:\Program Files (x86)\Microsoft Visual Studio\2019\Community\VC\Tools\MSVC\14.28.29333\include\xstring
; File C:\Program Files (x86)\Microsoft Visual Studio\2019\Community\VC\Tools\MSVC\14.28.29333\include\xmemory
; File C:\Program Files (x86)\Microsoft Visual Studio\2019\Community\VC\Tools\MSVC\14.28.29333\include\xstring
; File D:\Metin2 Server Files\mainline\SRC_2014\Metin2Client\GameLib\RaceDataFile.cpp
; File C:\Program Files (x86)\Microsoft Visual Studio\2019\Community\VC\Tools\MSVC\14.28.29333\include\xstring
; File C:\Program Files (x86)\Microsoft Visual Studio\2019\Community\VC\Tools\MSVC\14.28.29333\include\xmemory
; File D:\Metin2 Server Files\mainline\SRC_2014\Metin2Client\GameLib\RaceDataFile.cpp
; File C:\Program Files (x86)\Microsoft Visual Studio\2019\Community\VC\Tools\MSVC\14.28.29333\include\xstring
; File C:\Program Files (x86)\Microsoft Visual Studio\2019\Community\VC\Tools\MSVC\14.28.29333\include\xmemory
; File C:\Program Files (x86)\Microsoft Visual Studio\2019\Community\VC\Tools\MSVC\14.28.29333\include\xstring
; File C:\Program Files (x86)\Microsoft Visual Studio\2019\Community\VC\Tools\MSVC\14.28.29333\include\xmemory
; File C:\Program Files (x86)\Microsoft Visual Studio\2019\Community\VC\Tools\MSVC\14.28.29333\include\xstring
; File D:\Metin2 Server Files\mainline\SRC_2014\Metin2Client\GameLib\RaceDataFile.cpp
; File C:\Program Files (x86)\Microsoft Visual Studio\2019\Community\VC\Tools\MSVC\14.28.29333\include\xstring
; File D:\Metin2 Server Files\mainline\SRC_2014\Metin2Client\GameLib\RaceDataFile.cpp
; File C:\Program Files (x86)\Microsoft Visual Studio\2019\Community\VC\Tools\MSVC\14.28.29333\include\xstring
; File C:\Program Files (x86)\Microsoft Visual Studio\2019\Community\VC\Tools\MSVC\14.28.29333\include\xmemory
; File D:\Metin2 Server Files\mainline\SRC_2014\Metin2Client\GameLib\RaceDataFile.cpp
; File C:\Program Files (x86)\Microsoft Visual Studio\2019\Community\VC\Tools\MSVC\14.28.29333\include\xstring
; File D:\Metin2 Server Files\mainline\SRC_2014\Metin2Client\GameLib\RaceDataFile.cpp
; File C:\Program Files (x86)\Microsoft Visual Studio\2019\Community\VC\Tools\MSVC\14.28.29333\include\xstring
; File D:\Metin2 Server Files\mainline\SRC_2014\Metin2Client\GameLib\RaceDataFile.cpp
; File C:\Program Files (x86)\Microsoft Visual Studio\2019\Community\VC\Tools\MSVC\14.28.29333\include\xstring
; File D:\Metin2 Server Files\mainline\SRC_2014\Metin2Client\GameLib\RaceDataFile.cpp
; File C:\Program Files (x86)\Microsoft Visual Studio\2019\Community\VC\Tools\MSVC\14.28.29333\include\xstring
; File D:\Metin2 Server Files\mainline\SRC_2014\Metin2Client\GameLib\RaceDataFile.cpp
; File C:\Program Files (x86)\Microsoft Visual Studio\2019\Community\VC\Tools\MSVC\14.28.29333\include\xstring
; File C:\Program Files (x86)\Microsoft Visual Studio\2019\Community\VC\Tools\MSVC\14.28.29333\include\xmemory
; File C:\Program Files (x86)\Microsoft Visual Studio\2019\Community\VC\Tools\MSVC\14.28.29333\include\xstring
; File D:\Metin2 Server Files\mainline\SRC_2014\Metin2Client\GameLib\RaceDataFile.cpp
; File C:\Program Files (x86)\Microsoft Visual Studio\2019\Community\VC\Tools\MSVC\14.28.29333\include\xstring
; File C:\Program Files (x86)\Microsoft Visual Studio\2019\Community\VC\Tools\MSVC\14.28.29333\include\xmemory
; File D:\Metin2 Server Files\mainline\SRC_2014\Metin2Client\GameLib\RaceDataFile.cpp
; File C:\Program Files (x86)\Microsoft Visual Studio\2019\Community\VC\Tools\MSVC\14.28.29333\include\xstring
; File D:\Metin2 Server Files\mainline\SRC_2014\Metin2Client\GameLib\RaceDataFile.cpp
; File C:\Program Files (x86)\Microsoft Visual Studio\2019\Community\VC\Tools\MSVC\14.28.29333\include\xstring
; File D:\Metin2 Server Files\mainline\SRC_2014\Metin2Client\GameLib\RaceDataFile.cpp
; File C:\Program Files (x86)\Microsoft Visual Studio\2019\Community\VC\Tools\MSVC\14.28.29333\include\xstring
; File C:\Program Files (x86)\Microsoft Visual Studio\2019\Community\VC\Tools\MSVC\14.28.29333\include\xmemory
; File D:\Metin2 Server Files\mainline\SRC_2014\Metin2Client\GameLib\RaceDataFile.cpp
; File C:\Program Files (x86)\Microsoft Visual Studio\2019\Community\VC\Tools\MSVC\14.28.29333\include\xstring
; File D:\Metin2 Server Files\mainline\SRC_2014\Metin2Client\GameLib\RaceDataFile.cpp
; File C:\Program Files (x86)\Microsoft Visual Studio\2019\Community\VC\Tools\MSVC\14.28.29333\include\xstring
; File D:\Metin2 Server Files\mainline\SRC_2014\Metin2Client\GameLib\RaceDataFile.cpp
; File C:\Program Files (x86)\Microsoft Visual Studio\2019\Community\VC\Tools\MSVC\14.28.29333\include\xstring
; File C:\Program Files (x86)\Microsoft Visual Studio\2019\Community\VC\Tools\MSVC\14.28.29333\include\xmemory
; File C:\Program Files (x86)\Microsoft Visual Studio\2019\Community\VC\Tools\MSVC\14.28.29333\include\xstring
; File D:\Metin2 Server Files\mainline\SRC_2014\Metin2Client\GameLib\RaceDataFile.cpp
; File C:\Program Files (x86)\Microsoft Visual Studio\2019\Community\VC\Tools\MSVC\14.28.29333\include\xstring
; File D:\Metin2 Server Files\mainline\SRC_2014\Metin2Client\GameLib\RaceDataFile.cpp
; File C:\Program Files (x86)\Microsoft Visual Studio\2019\Community\VC\Tools\MSVC\14.28.29333\include\xstring
; File C:\Program Files (x86)\Microsoft Visual Studio\2019\Community\VC\Tools\MSVC\14.28.29333\include\xmemory
; File D:\Metin2 Server Files\mainline\SRC_2014\Metin2Client\GameLib\RaceDataFile.cpp
; File C:\Program Files (x86)\Microsoft Visual Studio\2019\Community\VC\Tools\MSVC\14.28.29333\include\xstring
; File D:\Metin2 Server Files\mainline\SRC_2014\Metin2Client\GameLib\RaceDataFile.cpp
; File C:\Program Files (x86)\Microsoft Visual Studio\2019\Community\VC\Tools\MSVC\14.28.29333\include\xstring
; File D:\Metin2 Server Files\mainline\SRC_2014\Metin2Client\GameLib\RaceDataFile.cpp
; File C:\Program Files (x86)\Microsoft Visual Studio\2019\Community\VC\Tools\MSVC\14.28.29333\include\xstring
; File D:\Metin2 Server Files\mainline\SRC_2014\Metin2Client\GameLib\RaceDataFile.cpp
; File C:\Program Files (x86)\Microsoft Visual Studio\2019\Community\VC\Tools\MSVC\14.28.29333\include\xstring
; File D:\Metin2 Server Files\mainline\SRC_2014\Metin2Client\GameLib\RaceDataFile.cpp
; File C:\Program Files (x86)\Microsoft Visual Studio\2019\Community\VC\Tools\MSVC\14.28.29333\include\xstring
; File D:\Metin2 Server Files\mainline\SRC_2014\Metin2Client\GameLib\RaceDataFile.cpp
; File C:\Program Files (x86)\Microsoft Visual Studio\2019\Community\VC\Tools\MSVC\14.28.29333\include\xstring
; File C:\Program Files (x86)\Microsoft Visual Studio\2019\Community\VC\Tools\MSVC\14.28.29333\include\xmemory
; File C:\Program Files (x86)\Microsoft Visual Studio\2019\Community\VC\Tools\MSVC\14.28.29333\include\xstring
; File D:\Metin2 Server Files\mainline\SRC_2014\Metin2Client\GameLib\RaceDataFile.cpp
; File C:\Program Files (x86)\Microsoft Visual Studio\2019\Community\VC\Tools\MSVC\14.28.29333\include\xstring
; File D:\Metin2 Server Files\mainline\SRC_2014\Metin2Client\GameLib\RaceDataFile.cpp
; File C:\Program Files (x86)\Microsoft Visual Studio\2019\Community\VC\Tools\MSVC\14.28.29333\include\xstring
; File C:\Program Files (x86)\Microsoft Visual Studio\2019\Community\VC\Tools\MSVC\14.28.29333\include\xmemory
; File C:\Program Files (x86)\Microsoft Visual Studio\2019\Community\VC\Tools\MSVC\14.28.29333\include\xstring
; File D:\Metin2 Server Files\mainline\SRC_2014\Metin2Client\GameLib\RaceDataFile.cpp
; File C:\Program Files (x86)\Microsoft Visual Studio\2019\Community\VC\Tools\MSVC\14.28.29333\include\xstring
; File C:\Program Files (x86)\Microsoft Visual Studio\2019\Community\VC\Tools\MSVC\14.28.29333\include\xmemory
; File D:\Metin2 Server Files\mainline\SRC_2014\Metin2Client\GameLib\RaceDataFile.cpp
; File C:\Program Files (x86)\Microsoft Visual Studio\2019\Community\VC\Tools\MSVC\14.28.29333\include\xstring
; File D:\Metin2 Server Files\mainline\SRC_2014\Metin2Client\GameLib\RaceDataFile.cpp
; File C:\Program Files (x86)\Microsoft Visual Studio\2019\Community\VC\Tools\MSVC\14.28.29333\include\xstring
; File D:\Metin2 Server Files\mainline\SRC_2014\Metin2Client\GameLib\RaceDataFile.cpp
; File C:\Program Files (x86)\Microsoft Visual Studio\2019\Community\VC\Tools\MSVC\14.28.29333\include\xstring
; File C:\Program Files (x86)\Microsoft Visual Studio\2019\Community\VC\Tools\MSVC\14.28.29333\include\xmemory
; File C:\Program Files (x86)\Microsoft Visual Studio\2019\Community\VC\Tools\MSVC\14.28.29333\include\xstring
; File C:\Program Files (x86)\Microsoft Visual Studio\2019\Community\VC\Tools\MSVC\14.28.29333\include\xmemory
; File C:\Program Files (x86)\Microsoft Visual Studio\2019\Community\VC\Tools\MSVC\14.28.29333\include\xstring
; File D:\Metin2 Server Files\mainline\SRC_2014\Metin2Client\GameLib\RaceDataFile.cpp
; File C:\Program Files (x86)\Microsoft Visual Studio\2019\Community\VC\Tools\MSVC\14.28.29333\include\xstring
; File C:\Program Files (x86)\Microsoft Visual Studio\2019\Community\VC\Tools\MSVC\14.28.29333\include\xmemory
; File D:\Metin2 Server Files\mainline\SRC_2014\Metin2Client\GameLib\RaceDataFile.cpp
; File C:\Program Files (x86)\Microsoft Visual Studio\2019\Community\VC\Tools\MSVC\14.28.29333\include\xstring
; File C:\Program Files (x86)\Microsoft Visual Studio\2019\Community\VC\Tools\MSVC\14.28.29333\include\xmemory
; File C:\Program Files (x86)\Microsoft Visual Studio\2019\Community\VC\Tools\MSVC\14.28.29333\include\xstring
; File C:\Program Files (x86)\Microsoft Visual Studio\2019\Community\VC\Tools\MSVC\14.28.29333\include\xmemory
; File C:\Program Files (x86)\Microsoft Visual Studio\2019\Community\VC\Tools\MSVC\14.28.29333\include\xstring
; File D:\Metin2 Server Files\mainline\SRC_2014\Metin2Client\GameLib\RaceDataFile.cpp
; File C:\Program Files (x86)\Microsoft Visual Studio\2019\Community\VC\Tools\MSVC\14.28.29333\include\xstring
; File C:\Program Files (x86)\Microsoft Visual Studio\2019\Community\VC\Tools\MSVC\14.28.29333\include\xmemory
; File D:\Metin2 Server Files\mainline\SRC_2014\Metin2Client\GameLib\RaceDataFile.cpp
; File C:\Program Files (x86)\Microsoft Visual Studio\2019\Community\VC\Tools\MSVC\14.28.29333\include\xstring
; File D:\Metin2 Server Files\mainline\SRC_2014\Metin2Client\GameLib\RaceDataFile.cpp
; File C:\Program Files (x86)\Microsoft Visual Studio\2019\Community\VC\Tools\MSVC\14.28.29333\include\xstring
; File C:\Program Files (x86)\Microsoft Visual Studio\2019\Community\VC\Tools\MSVC\14.28.29333\include\xmemory
; File D:\Metin2 Server Files\mainline\SRC_2014\Metin2Client\GameLib\RaceDataFile.cpp
; File C:\Program Files (x86)\Microsoft Visual Studio\2019\Community\VC\Tools\MSVC\14.28.29333\include\xstring
; File C:\Program Files (x86)\Microsoft Visual Studio\2019\Community\VC\Tools\MSVC\14.28.29333\include\vector
; File D:\Metin2 Server Files\mainline\SRC_2014\Metin2Client\GameLib\RaceDataFile.cpp
;	COMDAT ?LoadRaceData@CRaceData@@QAEHPBD@Z
_TEXT	SEGMENT
_uLineCount$1$ = -348					; size = 4
_dwShapeIndex$2 = -348					; size = 4
_rdwCRCEft$1$ = -344					; size = 4
_eSmoke$1$ = -344					; size = 4
_pSmokeTokenVector$ = -340				; size = 4
_this$GSCopy$1$ = -336					; size = 4
_i$1$ = -332						; size = 4
tv8700 = -332						; size = 4
_dwHairDataCount$3 = -332				; size = 4
_dwShapeIndex$4 = -332					; size = 4
_nLength$1$ = -328					; size = 4
tv8709 = -328						; size = 4
$T5 = -328						; size = 4
__Result$1$ = -324					; size = 4
_i$1$ = -324						; size = 4
_uLine$1$ = -324					; size = 4
__New_ptr$6 = -324					; size = 4
__New_ptr$7 = -324					; size = 4
__New_ptr$8 = -324					; size = 4
_dwShapeDataCount$9 = -324				; size = 4
$T10 = -320						; size = 4
tv8708 = -320						; size = 4
tv8703 = -320						; size = 4
$T11 = -313						; size = 1
$T12 = -313						; size = 1
$T13 = -313						; size = 1
$T14 = -313						; size = 1
$T15 = -313						; size = 1
$T16 = -313						; size = 1
$T17 = -313						; size = 1
$T18 = -313						; size = 1
$T19 = -313						; size = 1
$T20 = -313						; size = 1
$T21 = -313						; size = 1
_TextFileLoader$ = -312					; size = 128
_strModel$22 = -184					; size = 24
$T23 = -184						; size = 24
$T24 = -184						; size = 24
$T25 = -184						; size = 24
$T26 = -160						; size = 24
$T27 = -160						; size = 24
_strPathName$28 = -160					; size = 24
_strSourceSkin$29 = -136				; size = 24
_strSourceSkin$30 = -136				; size = 24
_strPathName$31 = -112					; size = 24
_strTargetSkin$32 = -112				; size = 24
_strTargetSkin$33 = -88					; size = 24
_strModel$34 = -88					; size = 24
$T35 = -88						; size = 24
$T36 = -64						; size = 24
$T37 = -64						; size = 24
$T38 = -64						; size = 24
$T39 = -64						; size = 24
$T40 = -64						; size = 24
$T41 = -64						; size = 24
$T42 = -64						; size = 24
$T43 = -64						; size = 24
$T44 = -64						; size = 24
$T45 = -64						; size = 24
$T46 = -64						; size = 24
$T47 = -40						; size = 24
$T48 = -40						; size = 24
$T49 = -40						; size = 24
$T50 = -40						; size = 24
$T51 = -40						; size = 24
$T52 = -40						; size = 24
$T53 = -40						; size = 24
$T54 = -40						; size = 24
$T55 = -40						; size = 24
$T56 = -40						; size = 24
$T57 = -40						; size = 24
$T58 = -40						; size = 24
$T59 = -40						; size = 24
$T60 = -40						; size = 24
$T61 = -40						; size = 24
$T62 = -40						; size = 24
$T63 = -40						; size = 24
$T64 = -40						; size = 24
__$ArrayPad$ = -16					; size = 4
__$EHRec$ = -12						; size = 12
_c_szFileName$ = 8					; size = 4
?LoadRaceData@CRaceData@@QAEHPBD@Z PROC			; CRaceData::LoadRaceData, COMDAT
; _this$ = ecx

; 11   : {

  00000	55		 push	 ebp
  00001	8b ec		 mov	 ebp, esp
  00003	6a ff		 push	 -1
  00005	68 00 00 00 00	 push	 __ehhandler$?LoadRaceData@CRaceData@@QAEHPBD@Z
  0000a	64 a1 00 00 00
	00		 mov	 eax, DWORD PTR fs:0
  00010	50		 push	 eax
  00011	81 ec 50 01 00
	00		 sub	 esp, 336		; 00000150H
  00017	a1 00 00 00 00	 mov	 eax, DWORD PTR ___security_cookie
  0001c	33 c5		 xor	 eax, ebp
  0001e	89 45 f0	 mov	 DWORD PTR __$ArrayPad$[ebp], eax
  00021	56		 push	 esi
  00022	57		 push	 edi
  00023	50		 push	 eax
  00024	8d 45 f4	 lea	 eax, DWORD PTR __$EHRec$[ebp]
  00027	64 a3 00 00 00
	00		 mov	 DWORD PTR fs:0, eax
  0002d	89 8d b0 fe ff
	ff		 mov	 DWORD PTR _this$GSCopy$1$[ebp], ecx
  00033	8b 75 08	 mov	 esi, DWORD PTR _c_szFileName$[ebp]

; 12   : 	CTextFileLoader TextFileLoader;

  00036	8d 8d c8 fe ff
	ff		 lea	 ecx, DWORD PTR _TextFileLoader$[ebp]
  0003c	33 ff		 xor	 edi, edi
  0003e	89 bd b8 fe ff
	ff		 mov	 DWORD PTR $T5[ebp], edi
  00044	e8 00 00 00 00	 call	 ??0CTextFileLoader@@QAE@XZ ; CTextFileLoader::CTextFileLoader

; 13   : 	if (!TextFileLoader.Load(c_szFileName))

  00049	56		 push	 esi
  0004a	8d 8d c8 fe ff
	ff		 lea	 ecx, DWORD PTR _TextFileLoader$[ebp]
  00050	89 7d fc	 mov	 DWORD PTR __$EHRec$[ebp+8], edi
  00053	e8 00 00 00 00	 call	 ?Load@CTextFileLoader@@QAE_NPBD@Z ; CTextFileLoader::Load
  00058	84 c0		 test	 al, al
  0005a	0f 84 9c 03 00
	00		 je	 $LN121@LoadRaceDa

; 14   : 		return FALSE;
; 15   : 
; 16   : 	TextFileLoader.SetTop();

  00060	8d 8d c8 fe ff
	ff		 lea	 ecx, DWORD PTR _TextFileLoader$[ebp]
  00066	e8 00 00 00 00	 call	 ?SetTop@CTextFileLoader@@QAEXXZ ; CTextFileLoader::SetTop
; File C:\Program Files (x86)\Microsoft Visual Studio\2019\Community\VC\Tools\MSVC\14.28.29333\include\xmemory

; 814  :         return static_cast<_Ty*>(_Allocate<_New_alignof<_Ty>>(_Get_size_of_n<sizeof(_Ty)>(_Count)));

  0006b	6a 20		 push	 32			; 00000020H
; File C:\Program Files (x86)\Microsoft Visual Studio\2019\Community\VC\Tools\MSVC\14.28.29333\include\xstring

; 4377 :         _Mypair._Myval2._Mysize = 0;

  0006d	89 7d e8	 mov	 DWORD PTR $T64[ebp+16], edi

; 4378 :         _Mypair._Myval2._Myres  = _BUF_SIZE - 1;

  00070	c7 45 ec 0f 00
	00 00		 mov	 DWORD PTR $T64[ebp+20], 15 ; 0000000fH

; 4379 :         // the _Traits::assign is last so the codegen doesn't think the char write can alias this
; 4380 :         _Traits::assign(_Mypair._Myval2._Bx._Buf[0], _Elem());

  00077	c6 45 d8 00	 mov	 BYTE PTR $T64[ebp], 0
; File C:\Program Files (x86)\Microsoft Visual Studio\2019\Community\VC\Tools\MSVC\14.28.29333\include\xmemory

; 814  :         return static_cast<_Ty*>(_Allocate<_New_alignof<_Ty>>(_Get_size_of_n<sizeof(_Ty)>(_Count)));

  0007b	e8 00 00 00 00	 call	 ??$_Allocate@$07U_Default_allocate_traits@std@@$0A@@std@@YAPAXI@Z ; std::_Allocate<8,std::_Default_allocate_traits,0>
; File C:\Program Files (x86)\Microsoft Visual Studio\2019\Community\VC\Tools\MSVC\14.28.29333\include\xstring

; 62   :         _CSTD memcpy(_First1, _First2, _Count * sizeof(_Elem));

  00080	0f 10 05 00 00
	00 00		 movups	 xmm0, XMMWORD PTR ??_C@_0BC@NDOIOPFI@basemodelfilename@

; 4314 :         _Mypair._Myval2._Mysize = _New_size;

  00087	c7 45 e8 11 00
	00 00		 mov	 DWORD PTR $T64[ebp+16], 17 ; 00000011H

; 4315 :         _Mypair._Myval2._Myres  = _New_capacity;

  0008e	c7 45 ec 1f 00
	00 00		 mov	 DWORD PTR $T64[ebp+20], 31 ; 0000001fH

; 62   :         _CSTD memcpy(_First1, _First2, _Count * sizeof(_Elem));

  00095	0f 11 00	 movups	 XMMWORD PTR [eax], xmm0
  00098	8a 0d 10 00 00
	00		 mov	 cl, BYTE PTR ??_C@_0BC@NDOIOPFI@basemodelfilename@+16
  0009e	88 48 10	 mov	 BYTE PTR [eax+16], cl

; 4312 :         const pointer _New_ptr        = _Al.allocate(_New_capacity + 1); // throws

  000a1	89 85 bc fe ff
	ff		 mov	 DWORD PTR __New_ptr$8[ebp], eax

; 3056 :                 _Traits::assign(_New_ptr[_Count], _Elem());

  000a7	c6 40 11 00	 mov	 BYTE PTR [eax+17], 0

; 4321 :             _Construct_in_place(_Mypair._Myval2._Bx._Ptr, _New_ptr);

  000ab	8d 85 bc fe ff
	ff		 lea	 eax, DWORD PTR __New_ptr$8[ebp]
  000b1	50		 push	 eax
  000b2	8d 45 d8	 lea	 eax, DWORD PTR $T64[ebp]
  000b5	50		 push	 eax
  000b6	e8 00 00 00 00	 call	 ??$_Construct_in_place@PADABQAD@std@@YAXAAPADABQAD@Z ; std::_Construct_in_place<char *,char * const &>
  000bb	83 c4 0c	 add	 esp, 12			; 0000000cH
; File D:\Metin2 Server Files\mainline\SRC_2014\Metin2Client\GameLib\RaceDataFile.cpp

; 18   : 	TextFileLoader.GetTokenString("basemodelfilename", &m_strBaseModelFileName);

  000be	8b b5 b0 fe ff
	ff		 mov	 esi, DWORD PTR _this$GSCopy$1$[ebp]
  000c4	8d 8d c8 fe ff
	ff		 lea	 ecx, DWORD PTR _TextFileLoader$[ebp]
  000ca	c6 45 fc 01	 mov	 BYTE PTR __$EHRec$[ebp+8], 1
  000ce	8d 46 20	 lea	 eax, DWORD PTR [esi+32]
  000d1	50		 push	 eax
  000d2	8d 45 d8	 lea	 eax, DWORD PTR $T64[ebp]
  000d5	50		 push	 eax
  000d6	e8 00 00 00 00	 call	 ?GetTokenString@CTextFileLoader@@QAEHABV?$basic_string@DU?$char_traits@D@std@@V?$allocator@D@2@@std@@PAV23@@Z ; CTextFileLoader::GetTokenString
; File C:\Program Files (x86)\Microsoft Visual Studio\2019\Community\VC\Tools\MSVC\14.28.29333\include\xstring

; 4385 :         if (_Mypair._Myval2._Large_string_engaged()) {

  000db	8b 45 ec	 mov	 eax, DWORD PTR $T64[ebp+20]
  000de	83 f8 10	 cmp	 eax, 16			; 00000010H
  000e1	72 0d		 jb	 SHORT $LN176@LoadRaceDa

; 4386 :             const pointer _Ptr = _Mypair._Myval2._Bx._Ptr;
; 4387 :             auto& _Al          = _Getal();
; 4388 :             _Destroy_in_place(_Mypair._Myval2._Bx._Ptr);
; 4389 :             _Al.deallocate(_Ptr, _Mypair._Myval2._Myres + 1);

  000e3	40		 inc	 eax
; File C:\Program Files (x86)\Microsoft Visual Studio\2019\Community\VC\Tools\MSVC\14.28.29333\include\xmemory

; 810  :         _Deallocate<_New_alignof<_Ty>>(_Ptr, sizeof(_Ty) * _Count);

  000e4	50		 push	 eax
  000e5	ff 75 d8	 push	 DWORD PTR $T64[ebp]
  000e8	e8 00 00 00 00	 call	 ??$_Deallocate@$07$0A@@std@@YAXPAXI@Z ; std::_Deallocate<8,0>
  000ed	83 c4 08	 add	 esp, 8
$LN176@LoadRaceDa:
; File C:\Program Files (x86)\Microsoft Visual Studio\2019\Community\VC\Tools\MSVC\14.28.29333\include\xstring

; 119  :         _CSTD memmove(_First1, _First2, _Count * sizeof(_Elem));

  000f0	f3 0f 7e 05 00
	00 00 00	 movq	 xmm0, QWORD PTR ??_C@_0N@FNBFCAFH@treefilename@
  000f8	a1 08 00 00 00	 mov	 eax, DWORD PTR ??_C@_0N@FNBFCAFH@treefilename@+8

; 4378 :         _Mypair._Myval2._Myres  = _BUF_SIZE - 1;

  000fd	c7 45 ec 0f 00
	00 00		 mov	 DWORD PTR $T63[ebp+20], 15 ; 0000000fH

; 3046 :             _Mypair._Myval2._Mysize = _Count;

  00104	c7 45 e8 0c 00
	00 00		 mov	 DWORD PTR $T63[ebp+16], 12 ; 0000000cH

; 119  :         _CSTD memmove(_First1, _First2, _Count * sizeof(_Elem));

  0010b	66 0f d6 45 d8	 movq	 QWORD PTR $T63[ebp], xmm0
  00110	89 45 e0	 mov	 DWORD PTR $T63[ebp+8], eax

; 3048 :             _Traits::assign(_Old_ptr[_Count], _Elem());

  00113	c6 45 e4 00	 mov	 BYTE PTR $T63[ebp+12], 0
; File D:\Metin2 Server Files\mainline\SRC_2014\Metin2Client\GameLib\RaceDataFile.cpp

; 19   : 	TextFileLoader.GetTokenString("treefilename", &m_strTreeFileName);

  00117	83 c6 38	 add	 esi, 56			; 00000038H
  0011a	c6 45 fc 02	 mov	 BYTE PTR __$EHRec$[ebp+8], 2
  0011e	56		 push	 esi
  0011f	8d 45 d8	 lea	 eax, DWORD PTR $T63[ebp]
  00122	50		 push	 eax
  00123	8d 8d c8 fe ff
	ff		 lea	 ecx, DWORD PTR _TextFileLoader$[ebp]
  00129	e8 00 00 00 00	 call	 ?GetTokenString@CTextFileLoader@@QAEHABV?$basic_string@DU?$char_traits@D@std@@V?$allocator@D@2@@std@@PAV23@@Z ; CTextFileLoader::GetTokenString
; File C:\Program Files (x86)\Microsoft Visual Studio\2019\Community\VC\Tools\MSVC\14.28.29333\include\xstring

; 4385 :         if (_Mypair._Myval2._Large_string_engaged()) {

  0012e	8b 45 ec	 mov	 eax, DWORD PTR $T63[ebp+20]
; File D:\Metin2 Server Files\mainline\SRC_2014\Metin2Client\GameLib\RaceDataFile.cpp

; 19   : 	TextFileLoader.GetTokenString("treefilename", &m_strTreeFileName);

  00131	c6 45 fc 00	 mov	 BYTE PTR __$EHRec$[ebp+8], 0
; File C:\Program Files (x86)\Microsoft Visual Studio\2019\Community\VC\Tools\MSVC\14.28.29333\include\xstring

; 4385 :         if (_Mypair._Myval2._Large_string_engaged()) {

  00135	83 f8 10	 cmp	 eax, 16			; 00000010H
  00138	72 0d		 jb	 SHORT $LN234@LoadRaceDa

; 4386 :             const pointer _Ptr = _Mypair._Myval2._Bx._Ptr;
; 4387 :             auto& _Al          = _Getal();
; 4388 :             _Destroy_in_place(_Mypair._Myval2._Bx._Ptr);
; 4389 :             _Al.deallocate(_Ptr, _Mypair._Myval2._Myres + 1);

  0013a	40		 inc	 eax
; File C:\Program Files (x86)\Microsoft Visual Studio\2019\Community\VC\Tools\MSVC\14.28.29333\include\xmemory

; 810  :         _Deallocate<_New_alignof<_Ty>>(_Ptr, sizeof(_Ty) * _Count);

  0013b	50		 push	 eax
  0013c	ff 75 d8	 push	 DWORD PTR $T63[ebp]
  0013f	e8 00 00 00 00	 call	 ??$_Deallocate@$07$0A@@std@@YAXPAXI@Z ; std::_Deallocate<8,0>
  00144	83 c4 08	 add	 esp, 8
$LN234@LoadRaceDa:

; 814  :         return static_cast<_Ty*>(_Allocate<_New_alignof<_Ty>>(_Get_size_of_n<sizeof(_Ty)>(_Count)));

  00147	6a 20		 push	 32			; 00000020H
; File C:\Program Files (x86)\Microsoft Visual Studio\2019\Community\VC\Tools\MSVC\14.28.29333\include\xstring

; 4377 :         _Mypair._Myval2._Mysize = 0;

  00149	c7 45 e8 00 00
	00 00		 mov	 DWORD PTR $T62[ebp+16], 0

; 4378 :         _Mypair._Myval2._Myres  = _BUF_SIZE - 1;

  00150	c7 45 ec 0f 00
	00 00		 mov	 DWORD PTR $T62[ebp+20], 15 ; 0000000fH

; 4379 :         // the _Traits::assign is last so the codegen doesn't think the char write can alias this
; 4380 :         _Traits::assign(_Mypair._Myval2._Bx._Buf[0], _Elem());

  00157	c6 45 d8 00	 mov	 BYTE PTR $T62[ebp], 0
; File C:\Program Files (x86)\Microsoft Visual Studio\2019\Community\VC\Tools\MSVC\14.28.29333\include\xmemory

; 814  :         return static_cast<_Ty*>(_Allocate<_New_alignof<_Ty>>(_Get_size_of_n<sizeof(_Ty)>(_Count)));

  0015b	e8 00 00 00 00	 call	 ??$_Allocate@$07U_Default_allocate_traits@std@@$0A@@std@@YAPAXI@Z ; std::_Allocate<8,std::_Default_allocate_traits,0>
; File C:\Program Files (x86)\Microsoft Visual Studio\2019\Community\VC\Tools\MSVC\14.28.29333\include\xstring

; 62   :         _CSTD memcpy(_First1, _First2, _Count * sizeof(_Elem));

  00160	0f 10 05 00 00
	00 00		 movups	 xmm0, XMMWORD PTR ??_C@_0BC@KCFLFBNM@attributefilename@

; 4314 :         _Mypair._Myval2._Mysize = _New_size;

  00167	c7 45 e8 11 00
	00 00		 mov	 DWORD PTR $T62[ebp+16], 17 ; 00000011H

; 4315 :         _Mypair._Myval2._Myres  = _New_capacity;

  0016e	c7 45 ec 1f 00
	00 00		 mov	 DWORD PTR $T62[ebp+20], 31 ; 0000001fH

; 62   :         _CSTD memcpy(_First1, _First2, _Count * sizeof(_Elem));

  00175	0f 11 00	 movups	 XMMWORD PTR [eax], xmm0
  00178	8a 0d 10 00 00
	00		 mov	 cl, BYTE PTR ??_C@_0BC@KCFLFBNM@attributefilename@+16
  0017e	88 48 10	 mov	 BYTE PTR [eax+16], cl

; 4312 :         const pointer _New_ptr        = _Al.allocate(_New_capacity + 1); // throws

  00181	89 85 bc fe ff
	ff		 mov	 DWORD PTR __New_ptr$7[ebp], eax

; 3056 :                 _Traits::assign(_New_ptr[_Count], _Elem());

  00187	c6 40 11 00	 mov	 BYTE PTR [eax+17], 0

; 4321 :             _Construct_in_place(_Mypair._Myval2._Bx._Ptr, _New_ptr);

  0018b	8d 85 bc fe ff
	ff		 lea	 eax, DWORD PTR __New_ptr$7[ebp]
  00191	50		 push	 eax
  00192	8d 45 d8	 lea	 eax, DWORD PTR $T62[ebp]
  00195	50		 push	 eax
  00196	e8 00 00 00 00	 call	 ??$_Construct_in_place@PADABQAD@std@@YAXAAPADABQAD@Z ; std::_Construct_in_place<char *,char * const &>
  0019b	83 c4 0c	 add	 esp, 12			; 0000000cH
; File D:\Metin2 Server Files\mainline\SRC_2014\Metin2Client\GameLib\RaceDataFile.cpp

; 20   : 	TextFileLoader.GetTokenString("attributefilename", &m_strAttributeFileName);

  0019e	8b 85 b0 fe ff
	ff		 mov	 eax, DWORD PTR _this$GSCopy$1$[ebp]
  001a4	8d 8d c8 fe ff
	ff		 lea	 ecx, DWORD PTR _TextFileLoader$[ebp]
  001aa	83 c0 50	 add	 eax, 80			; 00000050H
  001ad	c6 45 fc 03	 mov	 BYTE PTR __$EHRec$[ebp+8], 3
  001b1	50		 push	 eax
  001b2	8d 45 d8	 lea	 eax, DWORD PTR $T62[ebp]
  001b5	50		 push	 eax
  001b6	e8 00 00 00 00	 call	 ?GetTokenString@CTextFileLoader@@QAEHABV?$basic_string@DU?$char_traits@D@std@@V?$allocator@D@2@@std@@PAV23@@Z ; CTextFileLoader::GetTokenString
; File C:\Program Files (x86)\Microsoft Visual Studio\2019\Community\VC\Tools\MSVC\14.28.29333\include\xstring

; 4385 :         if (_Mypair._Myval2._Large_string_engaged()) {

  001bb	8b 45 ec	 mov	 eax, DWORD PTR $T62[ebp+20]
  001be	83 f8 10	 cmp	 eax, 16			; 00000010H
  001c1	72 0d		 jb	 SHORT $LN292@LoadRaceDa

; 4386 :             const pointer _Ptr = _Mypair._Myval2._Bx._Ptr;
; 4387 :             auto& _Al          = _Getal();
; 4388 :             _Destroy_in_place(_Mypair._Myval2._Bx._Ptr);
; 4389 :             _Al.deallocate(_Ptr, _Mypair._Myval2._Myres + 1);

  001c3	40		 inc	 eax
; File C:\Program Files (x86)\Microsoft Visual Studio\2019\Community\VC\Tools\MSVC\14.28.29333\include\xmemory

; 810  :         _Deallocate<_New_alignof<_Ty>>(_Ptr, sizeof(_Ty) * _Count);

  001c4	50		 push	 eax
  001c5	ff 75 d8	 push	 DWORD PTR $T62[ebp]
  001c8	e8 00 00 00 00	 call	 ??$_Deallocate@$07$0A@@std@@YAXPAXI@Z ; std::_Deallocate<8,0>
  001cd	83 c4 08	 add	 esp, 8
$LN292@LoadRaceDa:
; File C:\Program Files (x86)\Microsoft Visual Studio\2019\Community\VC\Tools\MSVC\14.28.29333\include\xstring

; 119  :         _CSTD memmove(_First1, _First2, _Count * sizeof(_Elem));

  001d0	a1 08 00 00 00	 mov	 eax, DWORD PTR ??_C@_0O@OKJLKLAI@smokebonename@+8
  001d5	f3 0f 7e 05 00
	00 00 00	 movq	 xmm0, QWORD PTR ??_C@_0O@OKJLKLAI@smokebonename@
  001dd	89 45 e0	 mov	 DWORD PTR $T61[ebp+8], eax
  001e0	a0 0c 00 00 00	 mov	 al, BYTE PTR ??_C@_0O@OKJLKLAI@smokebonename@+12

; 4378 :         _Mypair._Myval2._Myres  = _BUF_SIZE - 1;

  001e5	c7 45 ec 0f 00
	00 00		 mov	 DWORD PTR $T61[ebp+20], 15 ; 0000000fH

; 3046 :             _Mypair._Myval2._Mysize = _Count;

  001ec	c7 45 e8 0d 00
	00 00		 mov	 DWORD PTR $T61[ebp+16], 13 ; 0000000dH

; 119  :         _CSTD memmove(_First1, _First2, _Count * sizeof(_Elem));

  001f3	66 0f d6 45 d8	 movq	 QWORD PTR $T61[ebp], xmm0
  001f8	88 45 e4	 mov	 BYTE PTR $T61[ebp+12], al

; 3048 :             _Traits::assign(_Old_ptr[_Count], _Elem());

  001fb	c6 45 e5 00	 mov	 BYTE PTR $T61[ebp+13], 0
; File D:\Metin2 Server Files\mainline\SRC_2014\Metin2Client\GameLib\RaceDataFile.cpp

; 21   : 	TextFileLoader.GetTokenString("smokebonename", &m_strSmokeBoneName);

  001ff	8b 85 b0 fe ff
	ff		 mov	 eax, DWORD PTR _this$GSCopy$1$[ebp]
  00205	8d 8d c8 fe ff
	ff		 lea	 ecx, DWORD PTR _TextFileLoader$[ebp]
  0020b	83 e8 80	 sub	 eax, -128		; ffffff80H
  0020e	c6 45 fc 04	 mov	 BYTE PTR __$EHRec$[ebp+8], 4
  00212	50		 push	 eax
  00213	8d 45 d8	 lea	 eax, DWORD PTR $T61[ebp]
  00216	50		 push	 eax
  00217	e8 00 00 00 00	 call	 ?GetTokenString@CTextFileLoader@@QAEHABV?$basic_string@DU?$char_traits@D@std@@V?$allocator@D@2@@std@@PAV23@@Z ; CTextFileLoader::GetTokenString
; File C:\Program Files (x86)\Microsoft Visual Studio\2019\Community\VC\Tools\MSVC\14.28.29333\include\xstring

; 4385 :         if (_Mypair._Myval2._Large_string_engaged()) {

  0021c	8b 45 ec	 mov	 eax, DWORD PTR $T61[ebp+20]
; File D:\Metin2 Server Files\mainline\SRC_2014\Metin2Client\GameLib\RaceDataFile.cpp

; 21   : 	TextFileLoader.GetTokenString("smokebonename", &m_strSmokeBoneName);

  0021f	c6 45 fc 00	 mov	 BYTE PTR __$EHRec$[ebp+8], 0
; File C:\Program Files (x86)\Microsoft Visual Studio\2019\Community\VC\Tools\MSVC\14.28.29333\include\xstring

; 4385 :         if (_Mypair._Myval2._Large_string_engaged()) {

  00223	83 f8 10	 cmp	 eax, 16			; 00000010H
  00226	72 0d		 jb	 SHORT $LN350@LoadRaceDa

; 4386 :             const pointer _Ptr = _Mypair._Myval2._Bx._Ptr;
; 4387 :             auto& _Al          = _Getal();
; 4388 :             _Destroy_in_place(_Mypair._Myval2._Bx._Ptr);
; 4389 :             _Al.deallocate(_Ptr, _Mypair._Myval2._Myres + 1);

  00228	40		 inc	 eax
; File C:\Program Files (x86)\Microsoft Visual Studio\2019\Community\VC\Tools\MSVC\14.28.29333\include\xmemory

; 810  :         _Deallocate<_New_alignof<_Ty>>(_Ptr, sizeof(_Ty) * _Count);

  00229	50		 push	 eax
  0022a	ff 75 d8	 push	 DWORD PTR $T61[ebp]
  0022d	e8 00 00 00 00	 call	 ??$_Deallocate@$07$0A@@std@@YAXPAXI@Z ; std::_Deallocate<8,0>
  00232	83 c4 08	 add	 esp, 8
$LN350@LoadRaceDa:

; 814  :         return static_cast<_Ty*>(_Allocate<_New_alignof<_Ty>>(_Get_size_of_n<sizeof(_Ty)>(_Count)));

  00235	6a 20		 push	 32			; 00000020H
; File C:\Program Files (x86)\Microsoft Visual Studio\2019\Community\VC\Tools\MSVC\14.28.29333\include\xstring

; 4377 :         _Mypair._Myval2._Mysize = 0;

  00237	c7 45 e8 00 00
	00 00		 mov	 DWORD PTR $T60[ebp+16], 0

; 4378 :         _Mypair._Myval2._Myres  = _BUF_SIZE - 1;

  0023e	c7 45 ec 0f 00
	00 00		 mov	 DWORD PTR $T60[ebp+20], 15 ; 0000000fH

; 4379 :         // the _Traits::assign is last so the codegen doesn't think the char write can alias this
; 4380 :         _Traits::assign(_Mypair._Myval2._Bx._Buf[0], _Elem());

  00245	c6 45 d8 00	 mov	 BYTE PTR $T60[ebp], 0
; File C:\Program Files (x86)\Microsoft Visual Studio\2019\Community\VC\Tools\MSVC\14.28.29333\include\xmemory

; 814  :         return static_cast<_Ty*>(_Allocate<_New_alignof<_Ty>>(_Get_size_of_n<sizeof(_Ty)>(_Count)));

  00249	e8 00 00 00 00	 call	 ??$_Allocate@$07U_Default_allocate_traits@std@@$0A@@std@@YAPAXI@Z ; std::_Allocate<8,std::_Default_allocate_traits,0>
; File C:\Program Files (x86)\Microsoft Visual Studio\2019\Community\VC\Tools\MSVC\14.28.29333\include\xstring

; 62   :         _CSTD memcpy(_First1, _First2, _Count * sizeof(_Elem));

  0024e	0f 10 05 00 00
	00 00		 movups	 xmm0, XMMWORD PTR ??_C@_0BD@HKKNCHKI@motionlistfilename@

; 4314 :         _Mypair._Myval2._Mysize = _New_size;

  00255	c7 45 e8 12 00
	00 00		 mov	 DWORD PTR $T60[ebp+16], 18 ; 00000012H

; 4315 :         _Mypair._Myval2._Myres  = _New_capacity;

  0025c	c7 45 ec 1f 00
	00 00		 mov	 DWORD PTR $T60[ebp+20], 31 ; 0000001fH

; 62   :         _CSTD memcpy(_First1, _First2, _Count * sizeof(_Elem));

  00263	0f 11 00	 movups	 XMMWORD PTR [eax], xmm0
  00266	66 8b 0d 10 00
	00 00		 mov	 cx, WORD PTR ??_C@_0BD@HKKNCHKI@motionlistfilename@+16
  0026d	66 89 48 10	 mov	 WORD PTR [eax+16], cx

; 4312 :         const pointer _New_ptr        = _Al.allocate(_New_capacity + 1); // throws

  00271	89 85 bc fe ff
	ff		 mov	 DWORD PTR __New_ptr$6[ebp], eax

; 3056 :                 _Traits::assign(_New_ptr[_Count], _Elem());

  00277	c6 40 12 00	 mov	 BYTE PTR [eax+18], 0

; 4321 :             _Construct_in_place(_Mypair._Myval2._Bx._Ptr, _New_ptr);

  0027b	8d 85 bc fe ff
	ff		 lea	 eax, DWORD PTR __New_ptr$6[ebp]
  00281	50		 push	 eax
  00282	8d 45 d8	 lea	 eax, DWORD PTR $T60[ebp]
  00285	50		 push	 eax
  00286	e8 00 00 00 00	 call	 ??$_Construct_in_place@PADABQAD@std@@YAXAAPADABQAD@Z ; std::_Construct_in_place<char *,char * const &>
  0028b	83 c4 0c	 add	 esp, 12			; 0000000cH
; File D:\Metin2 Server Files\mainline\SRC_2014\Metin2Client\GameLib\RaceDataFile.cpp

; 22   : 	TextFileLoader.GetTokenString("motionlistfilename", &m_strMotionListFileName);

  0028e	8b 85 b0 fe ff
	ff		 mov	 eax, DWORD PTR _this$GSCopy$1$[ebp]
  00294	8d 8d c8 fe ff
	ff		 lea	 ecx, DWORD PTR _TextFileLoader$[ebp]
  0029a	83 c0 68	 add	 eax, 104		; 00000068H
  0029d	c6 45 fc 05	 mov	 BYTE PTR __$EHRec$[ebp+8], 5
  002a1	50		 push	 eax
  002a2	8d 45 d8	 lea	 eax, DWORD PTR $T60[ebp]
  002a5	50		 push	 eax
  002a6	e8 00 00 00 00	 call	 ?GetTokenString@CTextFileLoader@@QAEHABV?$basic_string@DU?$char_traits@D@std@@V?$allocator@D@2@@std@@PAV23@@Z ; CTextFileLoader::GetTokenString
; File C:\Program Files (x86)\Microsoft Visual Studio\2019\Community\VC\Tools\MSVC\14.28.29333\include\xstring

; 4385 :         if (_Mypair._Myval2._Large_string_engaged()) {

  002ab	8b 45 ec	 mov	 eax, DWORD PTR $T60[ebp+20]
; File D:\Metin2 Server Files\mainline\SRC_2014\Metin2Client\GameLib\RaceDataFile.cpp

; 22   : 	TextFileLoader.GetTokenString("motionlistfilename", &m_strMotionListFileName);

  002ae	c6 45 fc 00	 mov	 BYTE PTR __$EHRec$[ebp+8], 0
; File C:\Program Files (x86)\Microsoft Visual Studio\2019\Community\VC\Tools\MSVC\14.28.29333\include\xstring

; 4385 :         if (_Mypair._Myval2._Large_string_engaged()) {

  002b2	83 f8 10	 cmp	 eax, 16			; 00000010H
  002b5	72 0d		 jb	 SHORT $LN408@LoadRaceDa

; 4386 :             const pointer _Ptr = _Mypair._Myval2._Bx._Ptr;
; 4387 :             auto& _Al          = _Getal();
; 4388 :             _Destroy_in_place(_Mypair._Myval2._Bx._Ptr);
; 4389 :             _Al.deallocate(_Ptr, _Mypair._Myval2._Myres + 1);

  002b7	40		 inc	 eax
; File C:\Program Files (x86)\Microsoft Visual Studio\2019\Community\VC\Tools\MSVC\14.28.29333\include\xmemory

; 810  :         _Deallocate<_New_alignof<_Ty>>(_Ptr, sizeof(_Ty) * _Count);

  002b8	50		 push	 eax
  002b9	ff 75 d8	 push	 DWORD PTR $T60[ebp]
  002bc	e8 00 00 00 00	 call	 ??$_Deallocate@$07$0A@@std@@YAXPAXI@Z ; std::_Deallocate<8,0>
  002c1	83 c4 08	 add	 esp, 8
$LN408@LoadRaceDa:
; File D:\Metin2 Server Files\mainline\SRC_2014\Metin2Client\GameLib\RaceDataFile.cpp

; 24   : 	if (!m_strTreeFileName.empty())

  002c4	8b 85 b0 fe ff
	ff		 mov	 eax, DWORD PTR _this$GSCopy$1$[ebp]
  002ca	83 78 48 00	 cmp	 DWORD PTR [eax+72], 0
  002ce	0f 84 8e 00 00
	00		 je	 $LN418@LoadRaceDa
; File D:\Metin2 Server Files\mainline\SRC_2014\Metin2Client\eterBase\filename.h

; 106  : 		size_t nLength = str.length();		

  002d4	8b 4e 10	 mov	 ecx, DWORD PTR [esi+16]

; 107  : 
; 108  : 		for (size_t i = 0; i<nLength; ++i)

  002d7	33 c0		 xor	 eax, eax
  002d9	89 8d b8 fe ff
	ff		 mov	 DWORD PTR _nLength$1$[ebp], ecx
  002df	89 85 b4 fe ff
	ff		 mov	 DWORD PTR _i$1$[ebp], eax
  002e5	85 c9		 test	 ecx, ecx
  002e7	74 79		 je	 SHORT $LN418@LoadRaceDa
  002e9	0f 1f 80 00 00
	00 00		 npad	 7
$LL419@LoadRaceDa:
; File C:\Program Files (x86)\Microsoft Visual Studio\2019\Community\VC\Tools\MSVC\14.28.29333\include\xstring

; 2237 :         if (_Mysize <= _Off) {

  002f0	39 46 10	 cmp	 DWORD PTR [esi+16], eax
  002f3	0f 86 65 13 00
	00		 jbe	 $LN1606@LoadRaceDa

; 2227 :         return _BUF_SIZE <= _Myres;

  002f9	8b 4e 14	 mov	 ecx, DWORD PTR [esi+20]

; 2209 :         value_type* _Result = _Bx._Buf;

  002fc	8b d6		 mov	 edx, esi

; 2210 :         if (_Large_string_engaged()) {

  002fe	83 f9 10	 cmp	 ecx, 16			; 00000010H
  00301	72 02		 jb	 SHORT $LN1638@LoadRaceDa

; 2211 :             _Result = _Unfancy(_Bx._Ptr);

  00303	8b 16		 mov	 edx, DWORD PTR [esi]
$LN1638@LoadRaceDa:
; File D:\Metin2 Server Files\mainline\SRC_2014\Metin2Client\eterBase\filename.h

; 110  : 			if (str.at(i) == '\\')

  00305	80 3c 02 5c	 cmp	 BYTE PTR [edx+eax], 92	; 0000005cH
  00309	8b d6		 mov	 edx, esi
  0030b	75 0d		 jne	 SHORT $LN420@LoadRaceDa
; File C:\Program Files (x86)\Microsoft Visual Studio\2019\Community\VC\Tools\MSVC\14.28.29333\include\xstring

; 2210 :         if (_Large_string_engaged()) {

  0030d	83 f9 10	 cmp	 ecx, 16			; 00000010H
  00310	72 02		 jb	 SHORT $LN1635@LoadRaceDa

; 2211 :             _Result = _Unfancy(_Bx._Ptr);

  00312	8b 16		 mov	 edx, DWORD PTR [esi]
$LN1635@LoadRaceDa:
; File D:\Metin2 Server Files\mainline\SRC_2014\Metin2Client\eterBase\filename.h

; 111  : 				str.at(i) = '/';

  00314	c6 04 02 2f	 mov	 BYTE PTR [edx+eax], 47	; 0000002fH
  00318	eb 39		 jmp	 SHORT $LN417@LoadRaceDa
$LN420@LoadRaceDa:
; File C:\Program Files (x86)\Microsoft Visual Studio\2019\Community\VC\Tools\MSVC\14.28.29333\include\xstring

; 2210 :         if (_Large_string_engaged()) {

  0031a	83 f9 10	 cmp	 ecx, 16			; 00000010H
  0031d	72 02		 jb	 SHORT $LN1636@LoadRaceDa

; 2211 :             _Result = _Unfancy(_Bx._Ptr);

  0031f	8b 16		 mov	 edx, DWORD PTR [esi]
$LN1636@LoadRaceDa:

; 3662 :         return _Mypair._Myval2._Myptr()[_Off];

  00321	03 d0		 add	 edx, eax

; 2209 :         value_type* _Result = _Bx._Buf;

  00323	89 b5 bc fe ff
	ff		 mov	 DWORD PTR __Result$1$[ebp], esi

; 2210 :         if (_Large_string_engaged()) {

  00329	83 f9 10	 cmp	 ecx, 16			; 00000010H
  0032c	72 08		 jb	 SHORT $LN1637@LoadRaceDa

; 2211 :             _Result = _Unfancy(_Bx._Ptr);

  0032e	8b 06		 mov	 eax, DWORD PTR [esi]
  00330	89 85 bc fe ff
	ff		 mov	 DWORD PTR __Result$1$[ebp], eax
$LN1637@LoadRaceDa:
; File D:\Metin2 Server Files\mainline\SRC_2014\Metin2Client\eterBase\filename.h

; 113  : 				str.at(i) = (char)tolower(str.at(i));

  00336	0f be 02	 movsx	 eax, BYTE PTR [edx]
  00339	50		 push	 eax
  0033a	e8 00 00 00 00	 call	 _tolower
  0033f	8b 8d b4 fe ff
	ff		 mov	 ecx, DWORD PTR _i$1$[ebp]
  00345	83 c4 04	 add	 esp, 4
  00348	8b 95 bc fe ff
	ff		 mov	 edx, DWORD PTR __Result$1$[ebp]
  0034e	88 04 0a	 mov	 BYTE PTR [edx+ecx], al
  00351	8b c1		 mov	 eax, ecx
$LN417@LoadRaceDa:

; 107  : 
; 108  : 		for (size_t i = 0; i<nLength; ++i)

  00353	40		 inc	 eax
  00354	89 85 b4 fe ff
	ff		 mov	 DWORD PTR _i$1$[ebp], eax
  0035a	3b 85 b8 fe ff
	ff		 cmp	 eax, DWORD PTR _nLength$1$[ebp]
  00360	72 8e		 jb	 SHORT $LL419@LoadRaceDa
$LN418@LoadRaceDa:
; File C:\Program Files (x86)\Microsoft Visual Studio\2019\Community\VC\Tools\MSVC\14.28.29333\include\xstring

; 119  :         _CSTD memmove(_First1, _First2, _Count * sizeof(_Elem));

  00362	a1 08 00 00 00	 mov	 eax, DWORD PTR ??_C@_0O@OGIHOCKK@smokefilename@+8
  00367	f3 0f 7e 05 00
	00 00 00	 movq	 xmm0, QWORD PTR ??_C@_0O@OGIHOCKK@smokefilename@
  0036f	89 45 e0	 mov	 DWORD PTR $T59[ebp+8], eax
  00372	a0 0c 00 00 00	 mov	 al, BYTE PTR ??_C@_0O@OGIHOCKK@smokefilename@+12

; 4378 :         _Mypair._Myval2._Myres  = _BUF_SIZE - 1;

  00377	c7 45 ec 0f 00
	00 00		 mov	 DWORD PTR $T59[ebp+20], 15 ; 0000000fH

; 3046 :             _Mypair._Myval2._Mysize = _Count;

  0037e	c7 45 e8 0d 00
	00 00		 mov	 DWORD PTR $T59[ebp+16], 13 ; 0000000dH

; 119  :         _CSTD memmove(_First1, _First2, _Count * sizeof(_Elem));

  00385	66 0f d6 45 d8	 movq	 QWORD PTR $T59[ebp], xmm0
  0038a	88 45 e4	 mov	 BYTE PTR $T59[ebp+12], al

; 3048 :             _Traits::assign(_Old_ptr[_Count], _Elem());

  0038d	c6 45 e5 00	 mov	 BYTE PTR $T59[ebp+13], 0
; File D:\Metin2 Server Files\mainline\SRC_2014\Metin2Client\GameLib\RaceDataFile.cpp

; 30   : 	if (TextFileLoader.GetTokenVector("smokefilename", &pSmokeTokenVector))

  00391	8d 85 ac fe ff
	ff		 lea	 eax, DWORD PTR _pSmokeTokenVector$[ebp]
  00397	c6 45 fc 06	 mov	 BYTE PTR __$EHRec$[ebp+8], 6
  0039b	50		 push	 eax
  0039c	8d 45 d8	 lea	 eax, DWORD PTR $T59[ebp]
  0039f	50		 push	 eax
  003a0	8d 8d c8 fe ff
	ff		 lea	 ecx, DWORD PTR _TextFileLoader$[ebp]
  003a6	e8 00 00 00 00	 call	 ?GetTokenVector@CTextFileLoader@@QAEHABV?$basic_string@DU?$char_traits@D@std@@V?$allocator@D@2@@std@@PAPAV?$vector@V?$basic_string@DU?$char_traits@D@std@@V?$allocator@D@2@@std@@V?$allocator@V?$basic_string@DU?$char_traits@D@std@@V?$allocator@D@2@@std@@@2@@3@@Z ; CTextFileLoader::GetTokenVector
; File C:\Program Files (x86)\Microsoft Visual Studio\2019\Community\VC\Tools\MSVC\14.28.29333\include\xstring

; 4385 :         if (_Mypair._Myval2._Large_string_engaged()) {

  003ab	8b 4d ec	 mov	 ecx, DWORD PTR $T59[ebp+20]
; File D:\Metin2 Server Files\mainline\SRC_2014\Metin2Client\GameLib\RaceDataFile.cpp

; 30   : 	if (TextFileLoader.GetTokenVector("smokefilename", &pSmokeTokenVector))

  003ae	8b f0		 mov	 esi, eax
  003b0	c6 45 fc 00	 mov	 BYTE PTR __$EHRec$[ebp+8], 0
; File C:\Program Files (x86)\Microsoft Visual Studio\2019\Community\VC\Tools\MSVC\14.28.29333\include\xstring

; 4385 :         if (_Mypair._Myval2._Large_string_engaged()) {

  003b4	83 f9 10	 cmp	 ecx, 16			; 00000010H
  003b7	72 0d		 jb	 SHORT $LN520@LoadRaceDa

; 4386 :             const pointer _Ptr = _Mypair._Myval2._Bx._Ptr;
; 4387 :             auto& _Al          = _Getal();
; 4388 :             _Destroy_in_place(_Mypair._Myval2._Bx._Ptr);
; 4389 :             _Al.deallocate(_Ptr, _Mypair._Myval2._Myres + 1);

  003b9	41		 inc	 ecx
; File C:\Program Files (x86)\Microsoft Visual Studio\2019\Community\VC\Tools\MSVC\14.28.29333\include\xmemory

; 810  :         _Deallocate<_New_alignof<_Ty>>(_Ptr, sizeof(_Ty) * _Count);

  003ba	51		 push	 ecx
  003bb	ff 75 d8	 push	 DWORD PTR $T59[ebp]
  003be	e8 00 00 00 00	 call	 ??$_Deallocate@$07$0A@@std@@YAXPAXI@Z ; std::_Deallocate<8,0>
  003c3	83 c4 08	 add	 esp, 8
$LN520@LoadRaceDa:
; File D:\Metin2 Server Files\mainline\SRC_2014\Metin2Client\GameLib\RaceDataFile.cpp

; 30   : 	if (TextFileLoader.GetTokenVector("smokefilename", &pSmokeTokenVector))

  003c6	85 f6		 test	 esi, esi
  003c8	0f 84 8a 01 00
	00		 je	 $LN3@LoadRaceDa
; File C:\Program Files (x86)\Microsoft Visual Studio\2019\Community\VC\Tools\MSVC\14.28.29333\include\vector

; 1484 :         return static_cast<size_type>(_My_data._Mylast - _My_data._Myfirst);

  003ce	8b 85 ac fe ff
	ff		 mov	 eax, DWORD PTR _pSmokeTokenVector$[ebp]
  003d4	8b 48 04	 mov	 ecx, DWORD PTR [eax+4]
  003d7	2b 08		 sub	 ecx, DWORD PTR [eax]
  003d9	b8 ab aa aa 2a	 mov	 eax, 715827883		; 2aaaaaabH
  003de	f7 e9		 imul	 ecx
  003e0	c1 fa 02	 sar	 edx, 2
  003e3	8b c2		 mov	 eax, edx
  003e5	c1 e8 1f	 shr	 eax, 31			; 0000001fH
  003e8	03 c2		 add	 eax, edx
; File D:\Metin2 Server Files\mainline\SRC_2014\Metin2Client\GameLib\RaceDataFile.cpp

; 32   : 		if (pSmokeTokenVector->size()%2!=0)

  003ea	a8 01		 test	 al, 1
  003ec	74 3a		 je	 SHORT $LN14@LoadRaceDa

; 33   : 		{
; 34   : 			TraceError("SmokeFileName ArgCount[%d]%2==0", pSmokeTokenVector->size());

  003ee	50		 push	 eax
  003ef	68 00 00 00 00	 push	 OFFSET ??_C@_0CA@DLOGAHGG@SmokeFileName?5ArgCount?$FL?$CFd?$FN?$CF2?$DN?$DN0@
$LN1652@LoadRaceDa:
  003f4	e8 00 00 00 00	 call	 ?TraceError@@YAXPBDZZ	; TraceError
$LN1653@LoadRaceDa:
  003f9	83 c4 08	 add	 esp, 8
$LN121@LoadRaceDa:
  003fc	33 f6		 xor	 esi, esi
$LN122@LoadRaceDa:

; 183  : 	}
; 184  : 
; 185  : 	return TRUE;

  003fe	8d 8d c8 fe ff
	ff		 lea	 ecx, DWORD PTR _TextFileLoader$[ebp]
  00404	e8 00 00 00 00	 call	 ??1CTextFileLoader@@UAE@XZ ; CTextFileLoader::~CTextFileLoader
  00409	8b c6		 mov	 eax, esi

; 186  : }

  0040b	8b 4d f4	 mov	 ecx, DWORD PTR __$EHRec$[ebp]
  0040e	64 89 0d 00 00
	00 00		 mov	 DWORD PTR fs:0, ecx
  00415	59		 pop	 ecx
  00416	5f		 pop	 edi
  00417	5e		 pop	 esi
  00418	8b 4d f0	 mov	 ecx, DWORD PTR __$ArrayPad$[ebp]
  0041b	33 cd		 xor	 ecx, ebp
  0041d	e8 00 00 00 00	 call	 @__security_check_cookie@4
  00422	8b e5		 mov	 esp, ebp
  00424	5d		 pop	 ebp
  00425	c2 04 00	 ret	 4
$LN14@LoadRaceDa:

; 35   : 			return FALSE;
; 36   : 		}
; 37   : 
; 38   : 		UINT uLineCount=pSmokeTokenVector->size()/2;

  00428	d1 e8		 shr	 eax, 1
  0042a	89 85 a4 fe ff
	ff		 mov	 DWORD PTR _uLineCount$1$[ebp], eax

; 39   : 
; 40   : 		for (UINT uLine=0; uLine<uLineCount; ++uLine)

  00430	c7 85 bc fe ff
	ff 00 00 00 00	 mov	 DWORD PTR _uLine$1$[ebp], 0
  0043a	0f 84 18 01 00
	00		 je	 $LN3@LoadRaceDa
; File C:\Program Files (x86)\Microsoft Visual Studio\2019\Community\VC\Tools\MSVC\14.28.29333\include\vector

; 1484 :         return static_cast<size_type>(_My_data._Mylast - _My_data._Myfirst);

  00440	33 f6		 xor	 esi, esi
  00442	c7 85 b4 fe ff
	ff 00 00 00 00	 mov	 DWORD PTR tv8700[ebp], 0
  0044c	89 b5 b8 fe ff
	ff		 mov	 DWORD PTR tv8709[ebp], esi
$LL4@LoadRaceDa:

; 1519 :         if (static_cast<size_type>(_My_data._Mylast - _My_data._Myfirst) <= _Pos) {

  00452	8b 85 ac fe ff
	ff		 mov	 eax, DWORD PTR _pSmokeTokenVector$[ebp]
  00458	8b 10		 mov	 edx, DWORD PTR [eax]
  0045a	8b 48 04	 mov	 ecx, DWORD PTR [eax+4]
  0045d	b8 ab aa aa 2a	 mov	 eax, 715827883		; 2aaaaaabH
  00462	2b ca		 sub	 ecx, edx
  00464	89 95 c0 fe ff
	ff		 mov	 DWORD PTR tv8703[ebp], edx
  0046a	f7 e9		 imul	 ecx
  0046c	c1 fa 02	 sar	 edx, 2
  0046f	8b c2		 mov	 eax, edx
  00471	c1 e8 1f	 shr	 eax, 31			; 0000001fH
  00474	03 c2		 add	 eax, edx
  00476	3b 85 b4 fe ff
	ff		 cmp	 eax, DWORD PTR tv8700[ebp]
  0047c	0f 86 e1 11 00
	00		 jbe	 $LN1612@LoadRaceDa

; 1523 :         return _My_data._Myfirst[_Pos];

  00482	8b 85 c0 fe ff
	ff		 mov	 eax, DWORD PTR tv8703[ebp]
  00488	03 c6		 add	 eax, esi
; File C:\Program Files (x86)\Microsoft Visual Studio\2019\Community\VC\Tools\MSVC\14.28.29333\include\xstring

; 2219 :         if (_Large_string_engaged()) {

  0048a	83 78 14 10	 cmp	 DWORD PTR [eax+20], 16	; 00000010H
  0048e	72 02		 jb	 SHORT $LN538@LoadRaceDa

; 2220 :             _Result = _Unfancy(_Bx._Ptr);

  00490	8b 00		 mov	 eax, DWORD PTR [eax]
$LN538@LoadRaceDa:
; File D:\Metin2 Server Files\mainline\SRC_2014\Metin2Client\GameLib\RaceDataFile.cpp

; 42   : 			int eSmoke=atoi(pSmokeTokenVector->at(uLine*2+0).c_str());

  00492	50		 push	 eax
  00493	e8 00 00 00 00	 call	 __atoi64
  00498	83 c4 04	 add	 esp, 4
  0049b	89 85 a8 fe ff
	ff		 mov	 DWORD PTR _eSmoke$1$[ebp], eax

; 43   : 			if (eSmoke<0 || eSmoke>=SMOKE_NUM)

  004a1	85 c0		 test	 eax, eax
  004a3	0f 88 63 04 00
	00		 js	 $LN16@LoadRaceDa
  004a9	83 f8 04	 cmp	 eax, 4
  004ac	0f 8d 5a 04 00
	00		 jge	 $LN16@LoadRaceDa
; File C:\Program Files (x86)\Microsoft Visual Studio\2019\Community\VC\Tools\MSVC\14.28.29333\include\vector

; 1519 :         if (static_cast<size_type>(_My_data._Mylast - _My_data._Myfirst) <= _Pos) {

  004b2	8b 8d ac fe ff
	ff		 mov	 ecx, DWORD PTR _pSmokeTokenVector$[ebp]
  004b8	8b 01		 mov	 eax, DWORD PTR [ecx]
  004ba	8b 49 04	 mov	 ecx, DWORD PTR [ecx+4]
  004bd	2b c8		 sub	 ecx, eax
  004bf	89 85 c0 fe ff
	ff		 mov	 DWORD PTR tv8708[ebp], eax
  004c5	b8 ab aa aa 2a	 mov	 eax, 715827883		; 2aaaaaabH
  004ca	f7 e9		 imul	 ecx
  004cc	8b 85 b4 fe ff
	ff		 mov	 eax, DWORD PTR tv8700[ebp]
  004d2	c1 fa 02	 sar	 edx, 2
  004d5	40		 inc	 eax
  004d6	8b ca		 mov	 ecx, edx
  004d8	c1 e9 1f	 shr	 ecx, 31			; 0000001fH
  004db	03 ca		 add	 ecx, edx
  004dd	3b c8		 cmp	 ecx, eax
  004df	0f 86 7e 11 00
	00		 jbe	 $LN1612@LoadRaceDa

; 1523 :         return _My_data._Myfirst[_Pos];

  004e5	8b 85 c0 fe ff
	ff		 mov	 eax, DWORD PTR tv8708[ebp]
; File D:\Metin2 Server Files\mainline\SRC_2014\Metin2Client\GameLib\RaceDataFile.cpp

; 51   : 			DWORD& rdwCRCEft=m_adwSmokeEffectID[eSmoke];

  004eb	8b 8d b0 fe ff
	ff		 mov	 ecx, DWORD PTR _this$GSCopy$1$[ebp]
; File C:\Program Files (x86)\Microsoft Visual Studio\2019\Community\VC\Tools\MSVC\14.28.29333\include\vector

; 1523 :         return _My_data._Myfirst[_Pos];

  004f1	83 c0 18	 add	 eax, 24			; 00000018H
  004f4	03 f0		 add	 esi, eax
; File D:\Metin2 Server Files\mainline\SRC_2014\Metin2Client\GameLib\RaceDataFile.cpp

; 51   : 			DWORD& rdwCRCEft=m_adwSmokeEffectID[eSmoke];

  004f6	8b 85 a8 fe ff
	ff		 mov	 eax, DWORD PTR _eSmoke$1$[ebp]
  004fc	8d 0c 81	 lea	 ecx, DWORD PTR [ecx+eax*4]
; File C:\Program Files (x86)\Microsoft Visual Studio\2019\Community\VC\Tools\MSVC\14.28.29333\include\xstring

; 2218 :         const value_type* _Result = _Bx._Buf;

  004ff	8b c6		 mov	 eax, esi
; File D:\Metin2 Server Files\mainline\SRC_2014\Metin2Client\GameLib\RaceDataFile.cpp

; 51   : 			DWORD& rdwCRCEft=m_adwSmokeEffectID[eSmoke];

  00501	83 c1 08	 add	 ecx, 8
; File C:\Program Files (x86)\Microsoft Visual Studio\2019\Community\VC\Tools\MSVC\14.28.29333\include\xstring

; 2219 :         if (_Large_string_engaged()) {

  00504	83 7e 14 10	 cmp	 DWORD PTR [esi+20], 16	; 00000010H
; File D:\Metin2 Server Files\mainline\SRC_2014\Metin2Client\GameLib\RaceDataFile.cpp

; 51   : 			DWORD& rdwCRCEft=m_adwSmokeEffectID[eSmoke];

  00508	89 8d a8 fe ff
	ff		 mov	 DWORD PTR _rdwCRCEft$1$[ebp], ecx
; File C:\Program Files (x86)\Microsoft Visual Studio\2019\Community\VC\Tools\MSVC\14.28.29333\include\xstring

; 2219 :         if (_Large_string_engaged()) {

  0050e	72 02		 jb	 SHORT $LN1639@LoadRaceDa

; 2220 :             _Result = _Unfancy(_Bx._Ptr);

  00510	8b 06		 mov	 eax, DWORD PTR [esi]
$LN1639@LoadRaceDa:
; File D:\Metin2 Server Files\mainline\SRC_2014\Metin2Client\GameLib\RaceDataFile.cpp

; 52   : 			if (!CEffectManager::Instance().RegisterEffect2(c_rstrEffectFileName.c_str(), &rdwCRCEft))

  00512	6a 00		 push	 0
  00514	51		 push	 ecx
  00515	8b 0d 00 00 00
	00		 mov	 ecx, DWORD PTR ?ms_singleton@?$CSingleton@VCEffectManager@@@@0PAVCEffectManager@@A ; CSingleton<CEffectManager>::ms_singleton
  0051b	50		 push	 eax
  0051c	e8 00 00 00 00	 call	 ?RegisterEffect2@CEffectManager@@QAEHPBDPAK_N@Z ; CEffectManager::RegisterEffect2
  00521	85 c0		 test	 eax, eax
  00523	0f 84 bf 03 00
	00		 je	 $LN1613@LoadRaceDa

; 39   : 
; 40   : 		for (UINT uLine=0; uLine<uLineCount; ++uLine)

  00529	8b 85 bc fe ff
	ff		 mov	 eax, DWORD PTR _uLine$1$[ebp]
  0052f	8b b5 b8 fe ff
	ff		 mov	 esi, DWORD PTR tv8709[ebp]
  00535	40		 inc	 eax
  00536	83 85 b4 fe ff
	ff 02		 add	 DWORD PTR tv8700[ebp], 2
  0053d	83 c6 30	 add	 esi, 48			; 00000030H
  00540	89 85 bc fe ff
	ff		 mov	 DWORD PTR _uLine$1$[ebp], eax
  00546	89 b5 b8 fe ff
	ff		 mov	 DWORD PTR tv8709[ebp], esi
  0054c	3b 85 a4 fe ff
	ff		 cmp	 eax, DWORD PTR _uLineCount$1$[ebp]
  00552	0f 82 fa fe ff
	ff		 jb	 $LL4@LoadRaceDa
$LN3@LoadRaceDa:

; 57   : 			}
; 58   : 		}
; 59   : 	}
; 60   : 
; 61   : 	if (TextFileLoader.SetChildNode("shapedata"))

  00558	68 00 00 00 00	 push	 OFFSET ??_C@_09IOJGLPMI@shapedata@
  0055d	8d 8d c8 fe ff
	ff		 lea	 ecx, DWORD PTR _TextFileLoader$[ebp]
  00563	e8 00 00 00 00	 call	 ?SetChildNode@CTextFileLoader@@QAEHPBD@Z ; CTextFileLoader::SetChildNode
  00568	85 c0		 test	 eax, eax
  0056a	0f 84 22 0a 00
	00		 je	 $LN1269@LoadRaceDa
; File C:\Program Files (x86)\Microsoft Visual Studio\2019\Community\VC\Tools\MSVC\14.28.29333\include\xstring

; 4377 :         _Mypair._Myval2._Mysize = 0;

  00570	c7 85 70 ff ff
	ff 00 00 00 00	 mov	 DWORD PTR _strPathName$28[ebp+16], 0

; 4378 :         _Mypair._Myval2._Myres  = _BUF_SIZE - 1;

  0057a	c7 85 74 ff ff
	ff 0f 00 00 00	 mov	 DWORD PTR _strPathName$28[ebp+20], 15 ; 0000000fH

; 4379 :         // the _Traits::assign is last so the codegen doesn't think the char write can alias this
; 4380 :         _Traits::assign(_Mypair._Myval2._Bx._Buf[0], _Elem());

  00584	c6 85 60 ff ff
	ff 00		 mov	 BYTE PTR _strPathName$28[ebp], 0

; 119  :         _CSTD memmove(_First1, _First2, _Count * sizeof(_Elem));

  0058b	a1 00 00 00 00	 mov	 eax, DWORD PTR ??_C@_08PEIJGPHF@pathname@
  00590	8b 0d 04 00 00
	00		 mov	 ecx, DWORD PTR ??_C@_08PEIJGPHF@pathname@+4
; File D:\Metin2 Server Files\mainline\SRC_2014\Metin2Client\GameLib\RaceDataFile.cpp

; 64   : 		DWORD dwShapeDataCount = 0;

  00596	c7 85 bc fe ff
	ff 00 00 00 00	 mov	 DWORD PTR _dwShapeDataCount$9[ebp], 0
; File C:\Program Files (x86)\Microsoft Visual Studio\2019\Community\VC\Tools\MSVC\14.28.29333\include\xstring

; 4378 :         _Mypair._Myval2._Myres  = _BUF_SIZE - 1;

  005a0	c7 45 ec 0f 00
	00 00		 mov	 DWORD PTR $T58[ebp+20], 15 ; 0000000fH

; 3046 :             _Mypair._Myval2._Mysize = _Count;

  005a7	c7 45 e8 08 00
	00 00		 mov	 DWORD PTR $T58[ebp+16], 8

; 119  :         _CSTD memmove(_First1, _First2, _Count * sizeof(_Elem));

  005ae	89 45 d8	 mov	 DWORD PTR $T58[ebp], eax
  005b1	89 4d dc	 mov	 DWORD PTR $T58[ebp+4], ecx

; 3048 :             _Traits::assign(_Old_ptr[_Count], _Elem());

  005b4	c6 45 e0 00	 mov	 BYTE PTR $T58[ebp+8], 0
; File D:\Metin2 Server Files\mainline\SRC_2014\Metin2Client\GameLib\RaceDataFile.cpp

; 65   : 		if (TextFileLoader.GetTokenString("pathname", &strPathName) &&

  005b8	8d 85 60 ff ff
	ff		 lea	 eax, DWORD PTR _strPathName$28[ebp]
  005be	c6 45 fc 08	 mov	 BYTE PTR __$EHRec$[ebp+8], 8
  005c2	50		 push	 eax
  005c3	8d 45 d8	 lea	 eax, DWORD PTR $T58[ebp]
  005c6	bf 01 00 00 00	 mov	 edi, 1
  005cb	50		 push	 eax
  005cc	8d 8d c8 fe ff
	ff		 lea	 ecx, DWORD PTR _TextFileLoader$[ebp]
  005d2	89 bd c0 fe ff
	ff		 mov	 DWORD PTR $T10[ebp], edi
  005d8	89 bd b8 fe ff
	ff		 mov	 DWORD PTR $T5[ebp], edi
  005de	e8 00 00 00 00	 call	 ?GetTokenString@CTextFileLoader@@QAEHABV?$basic_string@DU?$char_traits@D@std@@V?$allocator@D@2@@std@@PAV23@@Z ; CTextFileLoader::GetTokenString
  005e3	85 c0		 test	 eax, eax
  005e5	74 6a		 je	 SHORT $LN36@LoadRaceDa
; File C:\Program Files (x86)\Microsoft Visual Studio\2019\Community\VC\Tools\MSVC\14.28.29333\include\xstring

; 119  :         _CSTD memmove(_First1, _First2, _Count * sizeof(_Elem));

  005e7	a1 08 00 00 00	 mov	 eax, DWORD PTR ??_C@_0P@BDBLEP@shapedatacount@+8
  005ec	f3 0f 7e 05 00
	00 00 00	 movq	 xmm0, QWORD PTR ??_C@_0P@BDBLEP@shapedatacount@
  005f4	89 45 b0	 mov	 DWORD PTR $T35[ebp+8], eax
  005f7	66 a1 0c 00 00
	00		 mov	 ax, WORD PTR ??_C@_0P@BDBLEP@shapedatacount@+12

; 4378 :         _Mypair._Myval2._Myres  = _BUF_SIZE - 1;

  005fd	c7 45 bc 0f 00
	00 00		 mov	 DWORD PTR $T35[ebp+20], 15 ; 0000000fH

; 3046 :             _Mypair._Myval2._Mysize = _Count;

  00604	c7 45 b8 0e 00
	00 00		 mov	 DWORD PTR $T35[ebp+16], 14 ; 0000000eH

; 119  :         _CSTD memmove(_First1, _First2, _Count * sizeof(_Elem));

  0060b	66 0f d6 45 a8	 movq	 QWORD PTR $T35[ebp], xmm0
  00610	66 89 45 b4	 mov	 WORD PTR $T35[ebp+12], ax

; 3048 :             _Traits::assign(_Old_ptr[_Count], _Elem());

  00614	c6 45 b6 00	 mov	 BYTE PTR $T35[ebp+14], 0
; File D:\Metin2 Server Files\mainline\SRC_2014\Metin2Client\GameLib\RaceDataFile.cpp

; 65   : 		if (TextFileLoader.GetTokenString("pathname", &strPathName) &&

  00618	8d 85 bc fe ff
	ff		 lea	 eax, DWORD PTR _dwShapeDataCount$9[ebp]
  0061e	c7 45 fc 09 00
	00 00		 mov	 DWORD PTR __$EHRec$[ebp+8], 9
  00625	50		 push	 eax
  00626	8d 45 a8	 lea	 eax, DWORD PTR $T35[ebp]
  00629	bf 03 00 00 00	 mov	 edi, 3
  0062e	50		 push	 eax
  0062f	8d 8d c8 fe ff
	ff		 lea	 ecx, DWORD PTR _TextFileLoader$[ebp]
  00635	89 bd c0 fe ff
	ff		 mov	 DWORD PTR $T10[ebp], edi
  0063b	89 bd b8 fe ff
	ff		 mov	 DWORD PTR $T5[ebp], edi
  00641	e8 00 00 00 00	 call	 ?GetTokenDoubleWord@CTextFileLoader@@QAEHABV?$basic_string@DU?$char_traits@D@std@@V?$allocator@D@2@@std@@PAK@Z ; CTextFileLoader::GetTokenDoubleWord
  00646	c6 85 c7 fe ff
	ff 01		 mov	 BYTE PTR $T21[ebp], 1
  0064d	85 c0		 test	 eax, eax
  0064f	75 07		 jne	 SHORT $LN37@LoadRaceDa
$LN36@LoadRaceDa:
  00651	c6 85 c7 fe ff
	ff 00		 mov	 BYTE PTR $T21[ebp], 0
$LN37@LoadRaceDa:
  00658	8b 85 c0 fe ff
	ff		 mov	 eax, DWORD PTR $T10[ebp]
  0065e	a8 02		 test	 al, 2
  00660	74 38		 je	 SHORT $LN671@LoadRaceDa
; File C:\Program Files (x86)\Microsoft Visual Studio\2019\Community\VC\Tools\MSVC\14.28.29333\include\xstring

; 4385 :         if (_Mypair._Myval2._Large_string_engaged()) {

  00662	8b 4d bc	 mov	 ecx, DWORD PTR $T35[ebp+20]
; File D:\Metin2 Server Files\mainline\SRC_2014\Metin2Client\GameLib\RaceDataFile.cpp

; 65   : 		if (TextFileLoader.GetTokenString("pathname", &strPathName) &&

  00665	83 e0 fd	 and	 eax, -3			; fffffffdH
  00668	89 85 c0 fe ff
	ff		 mov	 DWORD PTR $T10[ebp], eax
; File C:\Program Files (x86)\Microsoft Visual Studio\2019\Community\VC\Tools\MSVC\14.28.29333\include\xstring

; 4385 :         if (_Mypair._Myval2._Large_string_engaged()) {

  0066e	83 f9 10	 cmp	 ecx, 16			; 00000010H
  00671	72 15		 jb	 SHORT $LN670@LoadRaceDa

; 4386 :             const pointer _Ptr = _Mypair._Myval2._Bx._Ptr;
; 4387 :             auto& _Al          = _Getal();
; 4388 :             _Destroy_in_place(_Mypair._Myval2._Bx._Ptr);
; 4389 :             _Al.deallocate(_Ptr, _Mypair._Myval2._Myres + 1);

  00673	8d 41 01	 lea	 eax, DWORD PTR [ecx+1]
; File C:\Program Files (x86)\Microsoft Visual Studio\2019\Community\VC\Tools\MSVC\14.28.29333\include\xmemory

; 810  :         _Deallocate<_New_alignof<_Ty>>(_Ptr, sizeof(_Ty) * _Count);

  00676	50		 push	 eax
  00677	ff 75 a8	 push	 DWORD PTR $T35[ebp]
  0067a	e8 00 00 00 00	 call	 ??$_Deallocate@$07$0A@@std@@YAXPAXI@Z ; std::_Deallocate<8,0>
  0067f	8b 85 c0 fe ff
	ff		 mov	 eax, DWORD PTR $T10[ebp]
  00685	83 c4 08	 add	 esp, 8
$LN670@LoadRaceDa:
; File C:\Program Files (x86)\Microsoft Visual Studio\2019\Community\VC\Tools\MSVC\14.28.29333\include\xstring

; 4392 :         _Mypair._Myval2._Mysize = 0;

  00688	c7 45 b8 00 00
	00 00		 mov	 DWORD PTR $T35[ebp+16], 0

; 4393 :         _Mypair._Myval2._Myres  = _BUF_SIZE - 1;

  0068f	c7 45 bc 0f 00
	00 00		 mov	 DWORD PTR $T35[ebp+20], 15 ; 0000000fH

; 4394 :         // the _Traits::assign is last so the codegen doesn't think the char write can alias this
; 4395 :         _Traits::assign(_Mypair._Myval2._Bx._Buf[0], _Elem());

  00696	c6 45 a8 00	 mov	 BYTE PTR $T35[ebp], 0
$LN671@LoadRaceDa:
; File D:\Metin2 Server Files\mainline\SRC_2014\Metin2Client\GameLib\RaceDataFile.cpp

; 65   : 		if (TextFileLoader.GetTokenString("pathname", &strPathName) &&

  0069a	c7 45 fc 07 00
	00 00		 mov	 DWORD PTR __$EHRec$[ebp+8], 7
  006a1	a8 01		 test	 al, 1
  006a3	74 1e		 je	 SHORT $LN680@LoadRaceDa
  006a5	83 e0 fe	 and	 eax, -2			; fffffffeH
  006a8	89 85 c0 fe ff
	ff		 mov	 DWORD PTR $T10[ebp], eax
; File C:\Program Files (x86)\Microsoft Visual Studio\2019\Community\VC\Tools\MSVC\14.28.29333\include\xstring

; 4385 :         if (_Mypair._Myval2._Large_string_engaged()) {

  006ae	8b 45 ec	 mov	 eax, DWORD PTR $T58[ebp+20]
  006b1	83 f8 10	 cmp	 eax, 16			; 00000010H
  006b4	72 0d		 jb	 SHORT $LN680@LoadRaceDa

; 4386 :             const pointer _Ptr = _Mypair._Myval2._Bx._Ptr;
; 4387 :             auto& _Al          = _Getal();
; 4388 :             _Destroy_in_place(_Mypair._Myval2._Bx._Ptr);
; 4389 :             _Al.deallocate(_Ptr, _Mypair._Myval2._Myres + 1);

  006b6	40		 inc	 eax
; File C:\Program Files (x86)\Microsoft Visual Studio\2019\Community\VC\Tools\MSVC\14.28.29333\include\xmemory

; 810  :         _Deallocate<_New_alignof<_Ty>>(_Ptr, sizeof(_Ty) * _Count);

  006b7	50		 push	 eax
  006b8	ff 75 d8	 push	 DWORD PTR $T58[ebp]
  006bb	e8 00 00 00 00	 call	 ??$_Deallocate@$07$0A@@std@@YAXPAXI@Z ; std::_Deallocate<8,0>
  006c0	83 c4 08	 add	 esp, 8
$LN680@LoadRaceDa:
; File D:\Metin2 Server Files\mainline\SRC_2014\Metin2Client\GameLib\RaceDataFile.cpp

; 65   : 		if (TextFileLoader.GetTokenString("pathname", &strPathName) &&

  006c3	80 bd c7 fe ff
	ff 00		 cmp	 BYTE PTR $T21[ebp], 0
  006ca	0f 84 92 08 00
	00		 je	 $LN6@LoadRaceDa

; 68   : 			for (DWORD i = 0; i < dwShapeDataCount; ++i)

  006d0	33 ff		 xor	 edi, edi
  006d2	39 bd bc fe ff
	ff		 cmp	 DWORD PTR _dwShapeDataCount$9[ebp], edi
  006d8	0f 86 84 08 00
	00		 jbe	 $LN6@LoadRaceDa
  006de	66 90		 npad	 2
$LL7@LoadRaceDa:
; File C:\Program Files (x86)\Microsoft Visual Studio\2019\Community\VC\Tools\MSVC\14.28.29333\include\xstring

; 119  :         _CSTD memmove(_First1, _First2, _Count * sizeof(_Elem));

  006e0	f3 0f 7e 05 00
	00 00 00	 movq	 xmm0, QWORD PTR ??_C@_09IOJGLPMI@shapedata@
  006e8	a0 08 00 00 00	 mov	 al, BYTE PTR ??_C@_09IOJGLPMI@shapedata@+8

; 4378 :         _Mypair._Myval2._Myres  = _BUF_SIZE - 1;

  006ed	c7 45 ec 0f 00
	00 00		 mov	 DWORD PTR $T57[ebp+20], 15 ; 0000000fH

; 3046 :             _Mypair._Myval2._Mysize = _Count;

  006f4	c7 45 e8 09 00
	00 00		 mov	 DWORD PTR $T57[ebp+16], 9

; 119  :         _CSTD memmove(_First1, _First2, _Count * sizeof(_Elem));

  006fb	66 0f d6 45 d8	 movq	 QWORD PTR $T57[ebp], xmm0
  00700	88 45 e0	 mov	 BYTE PTR $T57[ebp+8], al

; 3048 :             _Traits::assign(_Old_ptr[_Count], _Elem());

  00703	c6 45 e1 00	 mov	 BYTE PTR $T57[ebp+9], 0
; File D:\Metin2 Server Files\mainline\SRC_2014\Metin2Client\GameLib\RaceDataFile.cpp

; 70   : 				if (!TextFileLoader.SetChildNode("shapedata", i))

  00707	57		 push	 edi
  00708	8d 45 d8	 lea	 eax, DWORD PTR $T57[ebp]
  0070b	c6 45 fc 0a	 mov	 BYTE PTR __$EHRec$[ebp+8], 10 ; 0000000aH
  0070f	50		 push	 eax
  00710	8d 8d c8 fe ff
	ff		 lea	 ecx, DWORD PTR _TextFileLoader$[ebp]
  00716	e8 00 00 00 00	 call	 ?SetChildNode@CTextFileLoader@@QAEHABV?$basic_string@DU?$char_traits@D@std@@V?$allocator@D@2@@std@@K@Z ; CTextFileLoader::SetChildNode
  0071b	85 c0		 test	 eax, eax
  0071d	c6 45 fc 07	 mov	 BYTE PTR __$EHRec$[ebp+8], 7
; File C:\Program Files (x86)\Microsoft Visual Studio\2019\Community\VC\Tools\MSVC\14.28.29333\include\xstring

; 4385 :         if (_Mypair._Myval2._Large_string_engaged()) {

  00721	8b 45 ec	 mov	 eax, DWORD PTR $T57[ebp+20]
; File D:\Metin2 Server Files\mainline\SRC_2014\Metin2Client\GameLib\RaceDataFile.cpp

; 70   : 				if (!TextFileLoader.SetChildNode("shapedata", i))

  00724	0f 94 85 c7 fe
	ff ff		 sete	 BYTE PTR $T20[ebp]
; File C:\Program Files (x86)\Microsoft Visual Studio\2019\Community\VC\Tools\MSVC\14.28.29333\include\xstring

; 4385 :         if (_Mypair._Myval2._Large_string_engaged()) {

  0072b	83 f8 10	 cmp	 eax, 16			; 00000010H
  0072e	72 0d		 jb	 SHORT $LN738@LoadRaceDa

; 4386 :             const pointer _Ptr = _Mypair._Myval2._Bx._Ptr;
; 4387 :             auto& _Al          = _Getal();
; 4388 :             _Destroy_in_place(_Mypair._Myval2._Bx._Ptr);
; 4389 :             _Al.deallocate(_Ptr, _Mypair._Myval2._Myres + 1);

  00730	40		 inc	 eax
; File C:\Program Files (x86)\Microsoft Visual Studio\2019\Community\VC\Tools\MSVC\14.28.29333\include\xmemory

; 810  :         _Deallocate<_New_alignof<_Ty>>(_Ptr, sizeof(_Ty) * _Count);

  00731	50		 push	 eax
  00732	ff 75 d8	 push	 DWORD PTR $T57[ebp]
  00735	e8 00 00 00 00	 call	 ??$_Deallocate@$07$0A@@std@@YAXPAXI@Z ; std::_Deallocate<8,0>
  0073a	83 c4 08	 add	 esp, 8
$LN738@LoadRaceDa:
; File D:\Metin2 Server Files\mainline\SRC_2014\Metin2Client\GameLib\RaceDataFile.cpp

; 70   : 				if (!TextFileLoader.SetChildNode("shapedata", i))

  0073d	80 bd c7 fe ff
	ff 00		 cmp	 BYTE PTR $T20[ebp], 0
  00744	0f 85 0b 08 00
	00		 jne	 $LN5@LoadRaceDa
; File C:\Program Files (x86)\Microsoft Visual Studio\2019\Community\VC\Tools\MSVC\14.28.29333\include\xstring

; 119  :         _CSTD memmove(_First1, _First2, _Count * sizeof(_Elem));

  0074a	66 a1 08 00 00
	00		 mov	 ax, WORD PTR ??_C@_0M@GCDLCIFI@specialpath@+8
  00750	f3 0f 7e 05 00
	00 00 00	 movq	 xmm0, QWORD PTR ??_C@_0M@GCDLCIFI@specialpath@
  00758	66 89 45 e0	 mov	 WORD PTR $T56[ebp+8], ax
  0075c	a0 0a 00 00 00	 mov	 al, BYTE PTR ??_C@_0M@GCDLCIFI@specialpath@+10

; 4378 :         _Mypair._Myval2._Myres  = _BUF_SIZE - 1;

  00761	c7 45 ec 0f 00
	00 00		 mov	 DWORD PTR $T56[ebp+20], 15 ; 0000000fH

; 3046 :             _Mypair._Myval2._Mysize = _Count;

  00768	c7 45 e8 0b 00
	00 00		 mov	 DWORD PTR $T56[ebp+16], 11 ; 0000000bH

; 119  :         _CSTD memmove(_First1, _First2, _Count * sizeof(_Elem));

  0076f	66 0f d6 45 d8	 movq	 QWORD PTR $T56[ebp], xmm0
  00774	88 45 e2	 mov	 BYTE PTR $T56[ebp+10], al

; 3048 :             _Traits::assign(_Old_ptr[_Count], _Elem());

  00777	c6 45 e3 00	 mov	 BYTE PTR $T56[ebp+11], 0
; File D:\Metin2 Server Files\mainline\SRC_2014\Metin2Client\GameLib\RaceDataFile.cpp

; 77   : 				TextFileLoader.GetTokenString("specialpath", &strPathName);

  0077b	8d 85 60 ff ff
	ff		 lea	 eax, DWORD PTR _strPathName$28[ebp]
  00781	c6 45 fc 0b	 mov	 BYTE PTR __$EHRec$[ebp+8], 11 ; 0000000bH
  00785	50		 push	 eax
  00786	8d 45 d8	 lea	 eax, DWORD PTR $T56[ebp]
  00789	50		 push	 eax
  0078a	8d 8d c8 fe ff
	ff		 lea	 ecx, DWORD PTR _TextFileLoader$[ebp]
  00790	e8 00 00 00 00	 call	 ?GetTokenString@CTextFileLoader@@QAEHABV?$basic_string@DU?$char_traits@D@std@@V?$allocator@D@2@@std@@PAV23@@Z ; CTextFileLoader::GetTokenString
; File C:\Program Files (x86)\Microsoft Visual Studio\2019\Community\VC\Tools\MSVC\14.28.29333\include\xstring

; 4385 :         if (_Mypair._Myval2._Large_string_engaged()) {

  00795	8b 45 ec	 mov	 eax, DWORD PTR $T56[ebp+20]
  00798	83 f8 10	 cmp	 eax, 16			; 00000010H
  0079b	72 0d		 jb	 SHORT $LN796@LoadRaceDa

; 4386 :             const pointer _Ptr = _Mypair._Myval2._Bx._Ptr;
; 4387 :             auto& _Al          = _Getal();
; 4388 :             _Destroy_in_place(_Mypair._Myval2._Bx._Ptr);
; 4389 :             _Al.deallocate(_Ptr, _Mypair._Myval2._Myres + 1);

  0079d	40		 inc	 eax
; File C:\Program Files (x86)\Microsoft Visual Studio\2019\Community\VC\Tools\MSVC\14.28.29333\include\xmemory

; 810  :         _Deallocate<_New_alignof<_Ty>>(_Ptr, sizeof(_Ty) * _Count);

  0079e	50		 push	 eax
  0079f	ff 75 d8	 push	 DWORD PTR $T56[ebp]
  007a2	e8 00 00 00 00	 call	 ??$_Deallocate@$07$0A@@std@@YAXPAXI@Z ; std::_Deallocate<8,0>
  007a7	83 c4 08	 add	 esp, 8
$LN796@LoadRaceDa:
; File C:\Program Files (x86)\Microsoft Visual Studio\2019\Community\VC\Tools\MSVC\14.28.29333\include\xstring

; 119  :         _CSTD memmove(_First1, _First2, _Count * sizeof(_Elem));

  007aa	f3 0f 7e 05 00
	00 00 00	 movq	 xmm0, QWORD PTR ??_C@_0L@BLAJFEIP@shapeindex@
  007b2	66 a1 08 00 00
	00		 mov	 ax, WORD PTR ??_C@_0L@BLAJFEIP@shapeindex@+8

; 4378 :         _Mypair._Myval2._Myres  = _BUF_SIZE - 1;

  007b8	c7 45 ec 0f 00
	00 00		 mov	 DWORD PTR $T55[ebp+20], 15 ; 0000000fH

; 3046 :             _Mypair._Myval2._Mysize = _Count;

  007bf	c7 45 e8 0a 00
	00 00		 mov	 DWORD PTR $T55[ebp+16], 10 ; 0000000aH

; 119  :         _CSTD memmove(_First1, _First2, _Count * sizeof(_Elem));

  007c6	66 0f d6 45 d8	 movq	 QWORD PTR $T55[ebp], xmm0
  007cb	66 89 45 e0	 mov	 WORD PTR $T55[ebp+8], ax

; 3048 :             _Traits::assign(_Old_ptr[_Count], _Elem());

  007cf	c6 45 e2 00	 mov	 BYTE PTR $T55[ebp+10], 0
; File D:\Metin2 Server Files\mainline\SRC_2014\Metin2Client\GameLib\RaceDataFile.cpp

; 81   : 				if (!TextFileLoader.GetTokenDoubleWord("shapeindex", &dwShapeIndex))

  007d3	8d 85 b4 fe ff
	ff		 lea	 eax, DWORD PTR _dwShapeIndex$4[ebp]
  007d9	c6 45 fc 0c	 mov	 BYTE PTR __$EHRec$[ebp+8], 12 ; 0000000cH
  007dd	50		 push	 eax
  007de	8d 45 d8	 lea	 eax, DWORD PTR $T55[ebp]
  007e1	50		 push	 eax
  007e2	8d 8d c8 fe ff
	ff		 lea	 ecx, DWORD PTR _TextFileLoader$[ebp]
  007e8	e8 00 00 00 00	 call	 ?GetTokenDoubleWord@CTextFileLoader@@QAEHABV?$basic_string@DU?$char_traits@D@std@@V?$allocator@D@2@@std@@PAK@Z ; CTextFileLoader::GetTokenDoubleWord
  007ed	85 c0		 test	 eax, eax
  007ef	c6 45 fc 07	 mov	 BYTE PTR __$EHRec$[ebp+8], 7
; File C:\Program Files (x86)\Microsoft Visual Studio\2019\Community\VC\Tools\MSVC\14.28.29333\include\xstring

; 4385 :         if (_Mypair._Myval2._Large_string_engaged()) {

  007f3	8b 45 ec	 mov	 eax, DWORD PTR $T55[ebp+20]
; File D:\Metin2 Server Files\mainline\SRC_2014\Metin2Client\GameLib\RaceDataFile.cpp

; 81   : 				if (!TextFileLoader.GetTokenDoubleWord("shapeindex", &dwShapeIndex))

  007f6	0f 94 85 c7 fe
	ff ff		 sete	 BYTE PTR $T19[ebp]
; File C:\Program Files (x86)\Microsoft Visual Studio\2019\Community\VC\Tools\MSVC\14.28.29333\include\xstring

; 4385 :         if (_Mypair._Myval2._Large_string_engaged()) {

  007fd	83 f8 10	 cmp	 eax, 16			; 00000010H
  00800	72 0d		 jb	 SHORT $LN854@LoadRaceDa

; 4386 :             const pointer _Ptr = _Mypair._Myval2._Bx._Ptr;
; 4387 :             auto& _Al          = _Getal();
; 4388 :             _Destroy_in_place(_Mypair._Myval2._Bx._Ptr);
; 4389 :             _Al.deallocate(_Ptr, _Mypair._Myval2._Myres + 1);

  00802	40		 inc	 eax
; File C:\Program Files (x86)\Microsoft Visual Studio\2019\Community\VC\Tools\MSVC\14.28.29333\include\xmemory

; 810  :         _Deallocate<_New_alignof<_Ty>>(_Ptr, sizeof(_Ty) * _Count);

  00803	50		 push	 eax
  00804	ff 75 d8	 push	 DWORD PTR $T55[ebp]
  00807	e8 00 00 00 00	 call	 ??$_Deallocate@$07$0A@@std@@YAXPAXI@Z ; std::_Deallocate<8,0>
  0080c	83 c4 08	 add	 esp, 8
$LN854@LoadRaceDa:
; File D:\Metin2 Server Files\mainline\SRC_2014\Metin2Client\GameLib\RaceDataFile.cpp

; 81   : 				if (!TextFileLoader.GetTokenDoubleWord("shapeindex", &dwShapeIndex))

  0080f	80 bd c7 fe ff
	ff 00		 cmp	 BYTE PTR $T19[ebp], 0
  00816	0f 85 39 07 00
	00		 jne	 $LN5@LoadRaceDa
; File C:\Program Files (x86)\Microsoft Visual Studio\2019\Community\VC\Tools\MSVC\14.28.29333\include\xstring

; 4377 :         _Mypair._Myval2._Mysize = 0;

  0081c	c7 45 b8 00 00
	00 00		 mov	 DWORD PTR _strModel$34[ebp+16], 0

; 4378 :         _Mypair._Myval2._Myres  = _BUF_SIZE - 1;

  00823	c7 45 bc 0f 00
	00 00		 mov	 DWORD PTR _strModel$34[ebp+20], 15 ; 0000000fH

; 4379 :         // the _Traits::assign is last so the codegen doesn't think the char write can alias this
; 4380 :         _Traits::assign(_Mypair._Myval2._Bx._Buf[0], _Elem());

  0082a	c6 45 a8 00	 mov	 BYTE PTR _strModel$34[ebp], 0

; 119  :         _CSTD memmove(_First1, _First2, _Count * sizeof(_Elem));

  0082e	a1 00 00 00 00	 mov	 eax, DWORD PTR ??_C@_05NCCFOPHA@model@
  00833	89 45 d8	 mov	 DWORD PTR $T54[ebp], eax
  00836	a0 04 00 00 00	 mov	 al, BYTE PTR ??_C@_05NCCFOPHA@model@+4

; 4378 :         _Mypair._Myval2._Myres  = _BUF_SIZE - 1;

  0083b	c7 45 ec 0f 00
	00 00		 mov	 DWORD PTR $T54[ebp+20], 15 ; 0000000fH

; 3046 :             _Mypair._Myval2._Mysize = _Count;

  00842	c7 45 e8 05 00
	00 00		 mov	 DWORD PTR $T54[ebp+16], 5

; 119  :         _CSTD memmove(_First1, _First2, _Count * sizeof(_Elem));

  00849	88 45 dc	 mov	 BYTE PTR $T54[ebp+4], al

; 3048 :             _Traits::assign(_Old_ptr[_Count], _Elem());

  0084c	c6 45 dd 00	 mov	 BYTE PTR $T54[ebp+5], 0
; File D:\Metin2 Server Files\mainline\SRC_2014\Metin2Client\GameLib\RaceDataFile.cpp

; 88   : 				if (TextFileLoader.GetTokenString("model", &strModel))

  00850	8d 45 a8	 lea	 eax, DWORD PTR _strModel$34[ebp]
  00853	c6 45 fc 0e	 mov	 BYTE PTR __$EHRec$[ebp+8], 14 ; 0000000eH
  00857	50		 push	 eax
  00858	8d 45 d8	 lea	 eax, DWORD PTR $T54[ebp]
  0085b	50		 push	 eax
  0085c	8d 8d c8 fe ff
	ff		 lea	 ecx, DWORD PTR _TextFileLoader$[ebp]
  00862	e8 00 00 00 00	 call	 ?GetTokenString@CTextFileLoader@@QAEHABV?$basic_string@DU?$char_traits@D@std@@V?$allocator@D@2@@std@@PAV23@@Z ; CTextFileLoader::GetTokenString
; File C:\Program Files (x86)\Microsoft Visual Studio\2019\Community\VC\Tools\MSVC\14.28.29333\include\xstring

; 4385 :         if (_Mypair._Myval2._Large_string_engaged()) {

  00867	8b 4d ec	 mov	 ecx, DWORD PTR $T54[ebp+20]
; File D:\Metin2 Server Files\mainline\SRC_2014\Metin2Client\GameLib\RaceDataFile.cpp

; 88   : 				if (TextFileLoader.GetTokenString("model", &strModel))

  0086a	8b f0		 mov	 esi, eax
  0086c	c6 45 fc 0d	 mov	 BYTE PTR __$EHRec$[ebp+8], 13 ; 0000000dH
; File C:\Program Files (x86)\Microsoft Visual Studio\2019\Community\VC\Tools\MSVC\14.28.29333\include\xstring

; 4385 :         if (_Mypair._Myval2._Large_string_engaged()) {

  00870	83 f9 10	 cmp	 ecx, 16			; 00000010H
  00873	72 0d		 jb	 SHORT $LN923@LoadRaceDa

; 4386 :             const pointer _Ptr = _Mypair._Myval2._Bx._Ptr;
; 4387 :             auto& _Al          = _Getal();
; 4388 :             _Destroy_in_place(_Mypair._Myval2._Bx._Ptr);
; 4389 :             _Al.deallocate(_Ptr, _Mypair._Myval2._Myres + 1);

  00875	41		 inc	 ecx
; File C:\Program Files (x86)\Microsoft Visual Studio\2019\Community\VC\Tools\MSVC\14.28.29333\include\xmemory

; 810  :         _Deallocate<_New_alignof<_Ty>>(_Ptr, sizeof(_Ty) * _Count);

  00876	51		 push	 ecx
  00877	ff 75 d8	 push	 DWORD PTR $T54[ebp]
  0087a	e8 00 00 00 00	 call	 ??$_Deallocate@$07$0A@@std@@YAXPAXI@Z ; std::_Deallocate<8,0>
  0087f	83 c4 08	 add	 esp, 8
$LN923@LoadRaceDa:
; File D:\Metin2 Server Files\mainline\SRC_2014\Metin2Client\GameLib\RaceDataFile.cpp

; 88   : 				if (TextFileLoader.GetTokenString("model", &strModel))

  00882	85 f6		 test	 esi, esi
  00884	0f 84 8d 00 00
	00		 je	 $LN22@LoadRaceDa

; 90   : 					SetShapeModel(dwShapeIndex, (strPathName + strModel).c_str());

  0088a	8d 45 a8	 lea	 eax, DWORD PTR _strModel$34[ebp]
  0088d	50		 push	 eax
  0088e	8d 85 60 ff ff
	ff		 lea	 eax, DWORD PTR _strPathName$28[ebp]
  00894	50		 push	 eax
  00895	8d 85 48 ff ff
	ff		 lea	 eax, DWORD PTR $T25[ebp]
  0089b	50		 push	 eax
  0089c	e8 00 00 00 00	 call	 ??$?HDU?$char_traits@D@std@@V?$allocator@D@1@@std@@YA?AV?$basic_string@DU?$char_traits@D@std@@V?$allocator@D@2@@0@ABV10@0@Z ; std::operator+<char,std::char_traits<char>,std::allocator<char> >
  008a1	83 c4 0c	 add	 esp, 12			; 0000000cH
; File C:\Program Files (x86)\Microsoft Visual Studio\2019\Community\VC\Tools\MSVC\14.28.29333\include\xstring

; 2219 :         if (_Large_string_engaged()) {

  008a4	83 78 14 10	 cmp	 DWORD PTR [eax+20], 16	; 00000010H
; File D:\Metin2 Server Files\mainline\SRC_2014\Metin2Client\GameLib\RaceDataFile.cpp

; 90   : 					SetShapeModel(dwShapeIndex, (strPathName + strModel).c_str());

  008a8	c6 45 fc 0f	 mov	 BYTE PTR __$EHRec$[ebp+8], 15 ; 0000000fH
; File C:\Program Files (x86)\Microsoft Visual Studio\2019\Community\VC\Tools\MSVC\14.28.29333\include\xstring

; 2219 :         if (_Large_string_engaged()) {

  008ac	72 02		 jb	 SHORT $LN932@LoadRaceDa

; 2220 :             _Result = _Unfancy(_Bx._Ptr);

  008ae	8b 00		 mov	 eax, DWORD PTR [eax]
$LN932@LoadRaceDa:
; File D:\Metin2 Server Files\mainline\SRC_2014\Metin2Client\GameLib\RaceDataFile.cpp

; 90   : 					SetShapeModel(dwShapeIndex, (strPathName + strModel).c_str());

  008b0	8b b5 b0 fe ff
	ff		 mov	 esi, DWORD PTR _this$GSCopy$1$[ebp]
  008b6	8b ce		 mov	 ecx, esi
  008b8	50		 push	 eax
  008b9	ff b5 b4 fe ff
	ff		 push	 DWORD PTR _dwShapeIndex$4[ebp]
  008bf	e8 00 00 00 00	 call	 ?SetShapeModel@CRaceData@@QAEXIPBD@Z ; CRaceData::SetShapeModel
; File C:\Program Files (x86)\Microsoft Visual Studio\2019\Community\VC\Tools\MSVC\14.28.29333\include\xstring

; 4385 :         if (_Mypair._Myval2._Large_string_engaged()) {

  008c4	8b 85 5c ff ff
	ff		 mov	 eax, DWORD PTR $T25[ebp+20]
  008ca	83 f8 10	 cmp	 eax, 16			; 00000010H
  008cd	0f 82 ca 00 00
	00		 jb	 $LN23@LoadRaceDa

; 4386 :             const pointer _Ptr = _Mypair._Myval2._Bx._Ptr;
; 4387 :             auto& _Al          = _Getal();
; 4388 :             _Destroy_in_place(_Mypair._Myval2._Bx._Ptr);
; 4389 :             _Al.deallocate(_Ptr, _Mypair._Myval2._Myres + 1);

  008d3	40		 inc	 eax
; File C:\Program Files (x86)\Microsoft Visual Studio\2019\Community\VC\Tools\MSVC\14.28.29333\include\xmemory

; 810  :         _Deallocate<_New_alignof<_Ty>>(_Ptr, sizeof(_Ty) * _Count);

  008d4	50		 push	 eax
  008d5	ff b5 48 ff ff
	ff		 push	 DWORD PTR $T25[ebp]
  008db	e8 00 00 00 00	 call	 ??$_Deallocate@$07$0A@@std@@YAXPAXI@Z ; std::_Deallocate<8,0>
  008e0	83 c4 08	 add	 esp, 8
; File D:\Metin2 Server Files\mainline\SRC_2014\Metin2Client\GameLib\RaceDataFile.cpp

; 91   : 				}

  008e3	e9 b5 00 00 00	 jmp	 $LN23@LoadRaceDa
$LN1613@LoadRaceDa:
; File C:\Program Files (x86)\Microsoft Visual Studio\2019\Community\VC\Tools\MSVC\14.28.29333\include\xstring

; 2227 :         return _BUF_SIZE <= _Myres;

  008e8	83 7e 14 10	 cmp	 DWORD PTR [esi+20], 16	; 00000010H

; 2219 :         if (_Large_string_engaged()) {

  008ec	72 02		 jb	 SHORT $LN555@LoadRaceDa

; 2220 :             _Result = _Unfancy(_Bx._Ptr);

  008ee	8b 36		 mov	 esi, DWORD PTR [esi]
$LN555@LoadRaceDa:
; File D:\Metin2 Server Files\mainline\SRC_2014\Metin2Client\GameLib\RaceDataFile.cpp

; 54   : 				TraceError("CRaceData::RegisterEffect2(%s) ERROR", c_rstrEffectFileName.c_str());

  008f0	56		 push	 esi
  008f1	68 00 00 00 00	 push	 OFFSET ??_C@_0CF@GEINCGMO@CRaceData?3?3RegisterEffect2?$CI?$CFs?$CJ?5@
  008f6	e8 00 00 00 00	 call	 ?TraceError@@YAXPBDZZ	; TraceError

; 55   : 				rdwCRCEft=0;

  008fb	8b 85 a8 fe ff
	ff		 mov	 eax, DWORD PTR _rdwCRCEft$1$[ebp]
  00901	c7 00 00 00 00
	00		 mov	 DWORD PTR [eax], 0

; 56   : 				return false;

  00907	e9 ed fa ff ff	 jmp	 $LN1653@LoadRaceDa
$LN16@LoadRaceDa:

; 44   : 			{
; 45   : 				TraceError("SmokeFileName SmokeNum[%d] OUT OF RANGE", eSmoke);

  0090c	50		 push	 eax
  0090d	68 00 00 00 00	 push	 OFFSET ??_C@_0CI@MHBPKAGN@SmokeFileName?5SmokeNum?$FL?$CFd?$FN?5OUT?5@
  00912	e9 dd fa ff ff	 jmp	 $LN1652@LoadRaceDa
$LN22@LoadRaceDa:
; File C:\Program Files (x86)\Microsoft Visual Studio\2019\Community\VC\Tools\MSVC\14.28.29333\include\xstring

; 3062 :         return assign(_Ptr, _Convert_size<size_type>(_Traits::length(_Ptr)));

  00917	6a 0b		 push	 11			; 0000000bH
  00919	68 00 00 00 00	 push	 OFFSET ??_C@_0M@NFFHMNPF@local_model@
  0091e	8d 4d d8	 lea	 ecx, DWORD PTR $T53[ebp]

; 4377 :         _Mypair._Myval2._Mysize = 0;

  00921	c7 45 e8 00 00
	00 00		 mov	 DWORD PTR $T53[ebp+16], 0

; 4378 :         _Mypair._Myval2._Myres  = _BUF_SIZE - 1;

  00928	c7 45 ec 0f 00
	00 00		 mov	 DWORD PTR $T53[ebp+20], 15 ; 0000000fH

; 4379 :         // the _Traits::assign is last so the codegen doesn't think the char write can alias this
; 4380 :         _Traits::assign(_Mypair._Myval2._Bx._Buf[0], _Elem());

  0092f	c6 45 d8 00	 mov	 BYTE PTR $T53[ebp], 0

; 3062 :         return assign(_Ptr, _Convert_size<size_type>(_Traits::length(_Ptr)));

  00933	e8 00 00 00 00	 call	 ?assign@?$basic_string@DU?$char_traits@D@std@@V?$allocator@D@2@@std@@QAEAAV12@QBDI@Z ; std::basic_string<char,std::char_traits<char>,std::allocator<char> >::assign
; File D:\Metin2 Server Files\mainline\SRC_2014\Metin2Client\GameLib\RaceDataFile.cpp

; 94   : 					if (!TextFileLoader.GetTokenString("local_model", &strModel))					

  00938	8d 45 a8	 lea	 eax, DWORD PTR _strModel$34[ebp]
  0093b	c6 45 fc 10	 mov	 BYTE PTR __$EHRec$[ebp+8], 16 ; 00000010H
  0093f	50		 push	 eax
  00940	8d 45 d8	 lea	 eax, DWORD PTR $T53[ebp]
  00943	50		 push	 eax
  00944	8d 8d c8 fe ff
	ff		 lea	 ecx, DWORD PTR _TextFileLoader$[ebp]
  0094a	e8 00 00 00 00	 call	 ?GetTokenString@CTextFileLoader@@QAEHABV?$basic_string@DU?$char_traits@D@std@@V?$allocator@D@2@@std@@PAV23@@Z ; CTextFileLoader::GetTokenString
  0094f	85 c0		 test	 eax, eax
  00951	c6 45 fc 0d	 mov	 BYTE PTR __$EHRec$[ebp+8], 13 ; 0000000dH
; File C:\Program Files (x86)\Microsoft Visual Studio\2019\Community\VC\Tools\MSVC\14.28.29333\include\xstring

; 4385 :         if (_Mypair._Myval2._Large_string_engaged()) {

  00955	8b 45 ec	 mov	 eax, DWORD PTR $T53[ebp+20]
; File D:\Metin2 Server Files\mainline\SRC_2014\Metin2Client\GameLib\RaceDataFile.cpp

; 94   : 					if (!TextFileLoader.GetTokenString("local_model", &strModel))					

  00958	0f 94 85 c7 fe
	ff ff		 sete	 BYTE PTR $T18[ebp]
; File C:\Program Files (x86)\Microsoft Visual Studio\2019\Community\VC\Tools\MSVC\14.28.29333\include\xstring

; 4385 :         if (_Mypair._Myval2._Large_string_engaged()) {

  0095f	83 f8 10	 cmp	 eax, 16			; 00000010H
  00962	72 0d		 jb	 SHORT $LN964@LoadRaceDa

; 4386 :             const pointer _Ptr = _Mypair._Myval2._Bx._Ptr;
; 4387 :             auto& _Al          = _Getal();
; 4388 :             _Destroy_in_place(_Mypair._Myval2._Bx._Ptr);
; 4389 :             _Al.deallocate(_Ptr, _Mypair._Myval2._Myres + 1);

  00964	40		 inc	 eax
; File C:\Program Files (x86)\Microsoft Visual Studio\2019\Community\VC\Tools\MSVC\14.28.29333\include\xmemory

; 810  :         _Deallocate<_New_alignof<_Ty>>(_Ptr, sizeof(_Ty) * _Count);

  00965	50		 push	 eax
  00966	ff 75 d8	 push	 DWORD PTR $T53[ebp]
  00969	e8 00 00 00 00	 call	 ??$_Deallocate@$07$0A@@std@@YAXPAXI@Z ; std::_Deallocate<8,0>
  0096e	83 c4 08	 add	 esp, 8
$LN964@LoadRaceDa:
; File D:\Metin2 Server Files\mainline\SRC_2014\Metin2Client\GameLib\RaceDataFile.cpp

; 94   : 					if (!TextFileLoader.GetTokenString("local_model", &strModel))					

  00971	80 bd c7 fe ff
	ff 00		 cmp	 BYTE PTR $T18[ebp], 0
  00978	0f 85 be 05 00
	00		 jne	 $LN1651@LoadRaceDa
; File C:\Program Files (x86)\Microsoft Visual Studio\2019\Community\VC\Tools\MSVC\14.28.29333\include\xstring

; 2219 :         if (_Large_string_engaged()) {

  0097e	83 7d bc 10	 cmp	 DWORD PTR _strModel$34[ebp+20], 16 ; 00000010H
  00982	8d 45 a8	 lea	 eax, DWORD PTR _strModel$34[ebp]
; File D:\Metin2 Server Files\mainline\SRC_2014\Metin2Client\GameLib\RaceDataFile.cpp

; 97   : 					SetShapeModel(dwShapeIndex, strModel.c_str());

  00985	8b b5 b0 fe ff
	ff		 mov	 esi, DWORD PTR _this$GSCopy$1$[ebp]
  0098b	8b ce		 mov	 ecx, esi
; File C:\Program Files (x86)\Microsoft Visual Studio\2019\Community\VC\Tools\MSVC\14.28.29333\include\xstring

; 2219 :         if (_Large_string_engaged()) {

  0098d	0f 43 45 a8	 cmovae	 eax, DWORD PTR _strModel$34[ebp]
; File D:\Metin2 Server Files\mainline\SRC_2014\Metin2Client\GameLib\RaceDataFile.cpp

; 97   : 					SetShapeModel(dwShapeIndex, strModel.c_str());

  00991	50		 push	 eax
  00992	ff b5 b4 fe ff
	ff		 push	 DWORD PTR _dwShapeIndex$4[ebp]
  00998	e8 00 00 00 00	 call	 ?SetShapeModel@CRaceData@@QAEXIPBD@Z ; CRaceData::SetShapeModel
$LN23@LoadRaceDa:
; File C:\Program Files (x86)\Microsoft Visual Studio\2019\Community\VC\Tools\MSVC\14.28.29333\include\xstring

; 4377 :         _Mypair._Myval2._Mysize = 0;

  0099d	c7 45 88 00 00
	00 00		 mov	 DWORD PTR _strSourceSkin$30[ebp+16], 0

; 4378 :         _Mypair._Myval2._Myres  = _BUF_SIZE - 1;

  009a4	c7 45 8c 0f 00
	00 00		 mov	 DWORD PTR _strSourceSkin$30[ebp+20], 15 ; 0000000fH

; 4379 :         // the _Traits::assign is last so the codegen doesn't think the char write can alias this
; 4380 :         _Traits::assign(_Mypair._Myval2._Bx._Buf[0], _Elem());

  009ab	c6 85 78 ff ff
	ff 00		 mov	 BYTE PTR _strSourceSkin$30[ebp], 0

; 4377 :         _Mypair._Myval2._Mysize = 0;

  009b2	c7 45 a0 00 00
	00 00		 mov	 DWORD PTR _strTargetSkin$32[ebp+16], 0

; 4378 :         _Mypair._Myval2._Myres  = _BUF_SIZE - 1;

  009b9	c7 45 a4 0f 00
	00 00		 mov	 DWORD PTR _strTargetSkin$32[ebp+20], 15 ; 0000000fH

; 4379 :         // the _Traits::assign is last so the codegen doesn't think the char write can alias this
; 4380 :         _Traits::assign(_Mypair._Myval2._Bx._Buf[0], _Elem());

  009c0	c6 45 90 00	 mov	 BYTE PTR _strTargetSkin$32[ebp], 0

; 3062 :         return assign(_Ptr, _Convert_size<size_type>(_Traits::length(_Ptr)));

  009c4	6a 10		 push	 16			; 00000010H
  009c6	68 00 00 00 00	 push	 OFFSET ??_C@_0BB@OAFGNDMP@local_sourceskin@
  009cb	8d 4d c0	 lea	 ecx, DWORD PTR $T46[ebp]
; File D:\Metin2 Server Files\mainline\SRC_2014\Metin2Client\GameLib\RaceDataFile.cpp

; 104  : 				std::string strTargetSkin;

  009ce	c6 45 fc 12	 mov	 BYTE PTR __$EHRec$[ebp+8], 18 ; 00000012H
; File C:\Program Files (x86)\Microsoft Visual Studio\2019\Community\VC\Tools\MSVC\14.28.29333\include\xstring

; 4377 :         _Mypair._Myval2._Mysize = 0;

  009d2	c7 45 d0 00 00
	00 00		 mov	 DWORD PTR $T46[ebp+16], 0

; 4378 :         _Mypair._Myval2._Myres  = _BUF_SIZE - 1;

  009d9	c7 45 d4 0f 00
	00 00		 mov	 DWORD PTR $T46[ebp+20], 15 ; 0000000fH

; 4379 :         // the _Traits::assign is last so the codegen doesn't think the char write can alias this
; 4380 :         _Traits::assign(_Mypair._Myval2._Bx._Buf[0], _Elem());

  009e0	c6 45 c0 00	 mov	 BYTE PTR $T46[ebp], 0

; 3062 :         return assign(_Ptr, _Convert_size<size_type>(_Traits::length(_Ptr)));

  009e4	e8 00 00 00 00	 call	 ?assign@?$basic_string@DU?$char_traits@D@std@@V?$allocator@D@2@@std@@QAEAAV12@QBDI@Z ; std::basic_string<char,std::char_traits<char>,std::allocator<char> >::assign
; File D:\Metin2 Server Files\mainline\SRC_2014\Metin2Client\GameLib\RaceDataFile.cpp

; 107  : 				if (TextFileLoader.GetTokenString("local_sourceskin", &strSourceSkin) &&

  009e9	8b 85 c0 fe ff
	ff		 mov	 eax, DWORD PTR $T10[ebp]
  009ef	8d 8d c8 fe ff
	ff		 lea	 ecx, DWORD PTR _TextFileLoader$[ebp]
  009f5	83 c8 04	 or	 eax, 4
  009f8	c6 45 fc 13	 mov	 BYTE PTR __$EHRec$[ebp+8], 19 ; 00000013H
  009fc	89 85 c0 fe ff
	ff		 mov	 DWORD PTR $T10[ebp], eax
  00a02	89 85 b8 fe ff
	ff		 mov	 DWORD PTR $T5[ebp], eax
  00a08	8d 85 78 ff ff
	ff		 lea	 eax, DWORD PTR _strSourceSkin$30[ebp]
  00a0e	50		 push	 eax
  00a0f	8d 45 c0	 lea	 eax, DWORD PTR $T46[ebp]
  00a12	50		 push	 eax
  00a13	e8 00 00 00 00	 call	 ?GetTokenString@CTextFileLoader@@QAEHABV?$basic_string@DU?$char_traits@D@std@@V?$allocator@D@2@@std@@PAV23@@Z ; CTextFileLoader::GetTokenString
  00a18	85 c0		 test	 eax, eax
  00a1a	74 5b		 je	 SHORT $LN38@LoadRaceDa
; File C:\Program Files (x86)\Microsoft Visual Studio\2019\Community\VC\Tools\MSVC\14.28.29333\include\xstring

; 3062 :         return assign(_Ptr, _Convert_size<size_type>(_Traits::length(_Ptr)));

  00a1c	6a 10		 push	 16			; 00000010H
  00a1e	68 00 00 00 00	 push	 OFFSET ??_C@_0BB@CMMEEAHN@local_targetskin@
  00a23	8d 4d d8	 lea	 ecx, DWORD PTR $T52[ebp]

; 4377 :         _Mypair._Myval2._Mysize = 0;

  00a26	c7 45 e8 00 00
	00 00		 mov	 DWORD PTR $T52[ebp+16], 0

; 4378 :         _Mypair._Myval2._Myres  = _BUF_SIZE - 1;

  00a2d	c7 45 ec 0f 00
	00 00		 mov	 DWORD PTR $T52[ebp+20], 15 ; 0000000fH

; 4379 :         // the _Traits::assign is last so the codegen doesn't think the char write can alias this
; 4380 :         _Traits::assign(_Mypair._Myval2._Bx._Buf[0], _Elem());

  00a34	c6 45 d8 00	 mov	 BYTE PTR $T52[ebp], 0

; 3062 :         return assign(_Ptr, _Convert_size<size_type>(_Traits::length(_Ptr)));

  00a38	e8 00 00 00 00	 call	 ?assign@?$basic_string@DU?$char_traits@D@std@@V?$allocator@D@2@@std@@QAEAAV12@QBDI@Z ; std::basic_string<char,std::char_traits<char>,std::allocator<char> >::assign
; File D:\Metin2 Server Files\mainline\SRC_2014\Metin2Client\GameLib\RaceDataFile.cpp

; 107  : 				if (TextFileLoader.GetTokenString("local_sourceskin", &strSourceSkin) &&

  00a3d	8b 85 c0 fe ff
	ff		 mov	 eax, DWORD PTR $T10[ebp]
  00a43	8d 8d c8 fe ff
	ff		 lea	 ecx, DWORD PTR _TextFileLoader$[ebp]
  00a49	83 c8 08	 or	 eax, 8
  00a4c	c7 45 fc 14 00
	00 00		 mov	 DWORD PTR __$EHRec$[ebp+8], 20 ; 00000014H
  00a53	89 85 c0 fe ff
	ff		 mov	 DWORD PTR $T10[ebp], eax
  00a59	89 85 b8 fe ff
	ff		 mov	 DWORD PTR $T5[ebp], eax
  00a5f	8d 45 90	 lea	 eax, DWORD PTR _strTargetSkin$32[ebp]
  00a62	50		 push	 eax
  00a63	8d 45 d8	 lea	 eax, DWORD PTR $T52[ebp]
  00a66	50		 push	 eax
  00a67	e8 00 00 00 00	 call	 ?GetTokenString@CTextFileLoader@@QAEHABV?$basic_string@DU?$char_traits@D@std@@V?$allocator@D@2@@std@@PAV23@@Z ; CTextFileLoader::GetTokenString
  00a6c	c6 85 c7 fe ff
	ff 01		 mov	 BYTE PTR $T17[ebp], 1
  00a73	85 c0		 test	 eax, eax
  00a75	75 07		 jne	 SHORT $LN39@LoadRaceDa
$LN38@LoadRaceDa:
  00a77	c6 85 c7 fe ff
	ff 00		 mov	 BYTE PTR $T17[ebp], 0
$LN39@LoadRaceDa:
  00a7e	8b 85 c0 fe ff
	ff		 mov	 eax, DWORD PTR $T10[ebp]
  00a84	a8 08		 test	 al, 8
  00a86	74 38		 je	 SHORT $LN1042@LoadRaceDa
; File C:\Program Files (x86)\Microsoft Visual Studio\2019\Community\VC\Tools\MSVC\14.28.29333\include\xstring

; 4385 :         if (_Mypair._Myval2._Large_string_engaged()) {

  00a88	8b 4d ec	 mov	 ecx, DWORD PTR $T52[ebp+20]
; File D:\Metin2 Server Files\mainline\SRC_2014\Metin2Client\GameLib\RaceDataFile.cpp

; 107  : 				if (TextFileLoader.GetTokenString("local_sourceskin", &strSourceSkin) &&

  00a8b	83 e0 f7	 and	 eax, -9			; fffffff7H
  00a8e	89 85 c0 fe ff
	ff		 mov	 DWORD PTR $T10[ebp], eax
; File C:\Program Files (x86)\Microsoft Visual Studio\2019\Community\VC\Tools\MSVC\14.28.29333\include\xstring

; 4385 :         if (_Mypair._Myval2._Large_string_engaged()) {

  00a94	83 f9 10	 cmp	 ecx, 16			; 00000010H
  00a97	72 15		 jb	 SHORT $LN1041@LoadRaceDa

; 4386 :             const pointer _Ptr = _Mypair._Myval2._Bx._Ptr;
; 4387 :             auto& _Al          = _Getal();
; 4388 :             _Destroy_in_place(_Mypair._Myval2._Bx._Ptr);
; 4389 :             _Al.deallocate(_Ptr, _Mypair._Myval2._Myres + 1);

  00a99	8d 41 01	 lea	 eax, DWORD PTR [ecx+1]
; File C:\Program Files (x86)\Microsoft Visual Studio\2019\Community\VC\Tools\MSVC\14.28.29333\include\xmemory

; 810  :         _Deallocate<_New_alignof<_Ty>>(_Ptr, sizeof(_Ty) * _Count);

  00a9c	50		 push	 eax
  00a9d	ff 75 d8	 push	 DWORD PTR $T52[ebp]
  00aa0	e8 00 00 00 00	 call	 ??$_Deallocate@$07$0A@@std@@YAXPAXI@Z ; std::_Deallocate<8,0>
  00aa5	8b 85 c0 fe ff
	ff		 mov	 eax, DWORD PTR $T10[ebp]
  00aab	83 c4 08	 add	 esp, 8
$LN1041@LoadRaceDa:
; File C:\Program Files (x86)\Microsoft Visual Studio\2019\Community\VC\Tools\MSVC\14.28.29333\include\xstring

; 4392 :         _Mypair._Myval2._Mysize = 0;

  00aae	c7 45 e8 00 00
	00 00		 mov	 DWORD PTR $T52[ebp+16], 0

; 4393 :         _Mypair._Myval2._Myres  = _BUF_SIZE - 1;

  00ab5	c7 45 ec 0f 00
	00 00		 mov	 DWORD PTR $T52[ebp+20], 15 ; 0000000fH

; 4394 :         // the _Traits::assign is last so the codegen doesn't think the char write can alias this
; 4395 :         _Traits::assign(_Mypair._Myval2._Bx._Buf[0], _Elem());

  00abc	c6 45 d8 00	 mov	 BYTE PTR $T52[ebp], 0
$LN1042@LoadRaceDa:
; File D:\Metin2 Server Files\mainline\SRC_2014\Metin2Client\GameLib\RaceDataFile.cpp

; 107  : 				if (TextFileLoader.GetTokenString("local_sourceskin", &strSourceSkin) &&

  00ac0	c7 45 fc 12 00
	00 00		 mov	 DWORD PTR __$EHRec$[ebp+8], 18 ; 00000012H
  00ac7	a8 04		 test	 al, 4
  00ac9	74 1e		 je	 SHORT $LN1051@LoadRaceDa
  00acb	83 e0 fb	 and	 eax, -5			; fffffffbH
  00ace	89 85 c0 fe ff
	ff		 mov	 DWORD PTR $T10[ebp], eax
; File C:\Program Files (x86)\Microsoft Visual Studio\2019\Community\VC\Tools\MSVC\14.28.29333\include\xstring

; 4385 :         if (_Mypair._Myval2._Large_string_engaged()) {

  00ad4	8b 45 d4	 mov	 eax, DWORD PTR $T46[ebp+20]
  00ad7	83 f8 10	 cmp	 eax, 16			; 00000010H
  00ada	72 0d		 jb	 SHORT $LN1051@LoadRaceDa

; 4386 :             const pointer _Ptr = _Mypair._Myval2._Bx._Ptr;
; 4387 :             auto& _Al          = _Getal();
; 4388 :             _Destroy_in_place(_Mypair._Myval2._Bx._Ptr);
; 4389 :             _Al.deallocate(_Ptr, _Mypair._Myval2._Myres + 1);

  00adc	40		 inc	 eax
; File C:\Program Files (x86)\Microsoft Visual Studio\2019\Community\VC\Tools\MSVC\14.28.29333\include\xmemory

; 810  :         _Deallocate<_New_alignof<_Ty>>(_Ptr, sizeof(_Ty) * _Count);

  00add	50		 push	 eax
  00ade	ff 75 c0	 push	 DWORD PTR $T46[ebp]
  00ae1	e8 00 00 00 00	 call	 ??$_Deallocate@$07$0A@@std@@YAXPAXI@Z ; std::_Deallocate<8,0>
  00ae6	83 c4 08	 add	 esp, 8
$LN1051@LoadRaceDa:
; File D:\Metin2 Server Files\mainline\SRC_2014\Metin2Client\GameLib\RaceDataFile.cpp

; 107  : 				if (TextFileLoader.GetTokenString("local_sourceskin", &strSourceSkin) &&

  00ae9	80 bd c7 fe ff
	ff 00		 cmp	 BYTE PTR $T17[ebp], 0
  00af0	74 2d		 je	 SHORT $LN25@LoadRaceDa
; File C:\Program Files (x86)\Microsoft Visual Studio\2019\Community\VC\Tools\MSVC\14.28.29333\include\xstring

; 2219 :         if (_Large_string_engaged()) {

  00af2	83 7d a4 10	 cmp	 DWORD PTR _strTargetSkin$32[ebp+20], 16 ; 00000010H
  00af6	8d 4d 90	 lea	 ecx, DWORD PTR _strTargetSkin$32[ebp]

; 2218 :         const value_type* _Result = _Bx._Buf;

  00af9	8d 85 78 ff ff
	ff		 lea	 eax, DWORD PTR _strSourceSkin$30[ebp]

; 2219 :         if (_Large_string_engaged()) {

  00aff	0f 43 4d 90	 cmovae	 ecx, DWORD PTR _strTargetSkin$32[ebp]
  00b03	83 7d 8c 10	 cmp	 DWORD PTR _strSourceSkin$30[ebp+20], 16 ; 00000010H
; File D:\Metin2 Server Files\mainline\SRC_2014\Metin2Client\GameLib\RaceDataFile.cpp

; 110  : 					AppendShapeSkin(dwShapeIndex, 0, strSourceSkin.c_str(), strTargetSkin.c_str());

  00b07	51		 push	 ecx
; File C:\Program Files (x86)\Microsoft Visual Studio\2019\Community\VC\Tools\MSVC\14.28.29333\include\xstring

; 2219 :         if (_Large_string_engaged()) {

  00b08	0f 43 85 78 ff
	ff ff		 cmovae	 eax, DWORD PTR _strSourceSkin$30[ebp]
; File D:\Metin2 Server Files\mainline\SRC_2014\Metin2Client\GameLib\RaceDataFile.cpp

; 110  : 					AppendShapeSkin(dwShapeIndex, 0, strSourceSkin.c_str(), strTargetSkin.c_str());

  00b0f	8b ce		 mov	 ecx, esi
  00b11	50		 push	 eax
  00b12	6a 00		 push	 0
  00b14	ff b5 b4 fe ff
	ff		 push	 DWORD PTR _dwShapeIndex$4[ebp]
  00b1a	e8 00 00 00 00	 call	 ?AppendShapeSkin@CRaceData@@QAEXIIPBD0@Z ; CRaceData::AppendShapeSkin
$LN25@LoadRaceDa:
; File C:\Program Files (x86)\Microsoft Visual Studio\2019\Community\VC\Tools\MSVC\14.28.29333\include\xstring

; 3062 :         return assign(_Ptr, _Convert_size<size_type>(_Traits::length(_Ptr)));

  00b1f	6a 0a		 push	 10			; 0000000aH
  00b21	68 00 00 00 00	 push	 OFFSET ??_C@_0L@ILFPKBGB@sourceskin@
  00b26	8d 4d c0	 lea	 ecx, DWORD PTR $T45[ebp]

; 4377 :         _Mypair._Myval2._Mysize = 0;

  00b29	c7 45 d0 00 00
	00 00		 mov	 DWORD PTR $T45[ebp+16], 0

; 4378 :         _Mypair._Myval2._Myres  = _BUF_SIZE - 1;

  00b30	c7 45 d4 0f 00
	00 00		 mov	 DWORD PTR $T45[ebp+20], 15 ; 0000000fH

; 4379 :         // the _Traits::assign is last so the codegen doesn't think the char write can alias this
; 4380 :         _Traits::assign(_Mypair._Myval2._Bx._Buf[0], _Elem());

  00b37	c6 45 c0 00	 mov	 BYTE PTR $T45[ebp], 0

; 3062 :         return assign(_Ptr, _Convert_size<size_type>(_Traits::length(_Ptr)));

  00b3b	e8 00 00 00 00	 call	 ?assign@?$basic_string@DU?$char_traits@D@std@@V?$allocator@D@2@@std@@QAEAAV12@QBDI@Z ; std::basic_string<char,std::char_traits<char>,std::allocator<char> >::assign
; File D:\Metin2 Server Files\mainline\SRC_2014\Metin2Client\GameLib\RaceDataFile.cpp

; 114  : 				if (TextFileLoader.GetTokenString("sourceskin", &strSourceSkin) &&

  00b40	8b 85 c0 fe ff
	ff		 mov	 eax, DWORD PTR $T10[ebp]
  00b46	8d 8d c8 fe ff
	ff		 lea	 ecx, DWORD PTR _TextFileLoader$[ebp]
  00b4c	83 c8 10	 or	 eax, 16			; 00000010H
  00b4f	c6 45 fc 15	 mov	 BYTE PTR __$EHRec$[ebp+8], 21 ; 00000015H
  00b53	89 85 c0 fe ff
	ff		 mov	 DWORD PTR $T10[ebp], eax
  00b59	89 85 b8 fe ff
	ff		 mov	 DWORD PTR $T5[ebp], eax
  00b5f	8d 85 78 ff ff
	ff		 lea	 eax, DWORD PTR _strSourceSkin$30[ebp]
  00b65	50		 push	 eax
  00b66	8d 45 c0	 lea	 eax, DWORD PTR $T45[ebp]
  00b69	50		 push	 eax
  00b6a	e8 00 00 00 00	 call	 ?GetTokenString@CTextFileLoader@@QAEHABV?$basic_string@DU?$char_traits@D@std@@V?$allocator@D@2@@std@@PAV23@@Z ; CTextFileLoader::GetTokenString
  00b6f	85 c0		 test	 eax, eax
  00b71	74 5b		 je	 SHORT $LN40@LoadRaceDa
; File C:\Program Files (x86)\Microsoft Visual Studio\2019\Community\VC\Tools\MSVC\14.28.29333\include\xstring

; 3062 :         return assign(_Ptr, _Convert_size<size_type>(_Traits::length(_Ptr)));

  00b73	6a 0a		 push	 10			; 0000000aH
  00b75	68 00 00 00 00	 push	 OFFSET ??_C@_0L@EHMNDCND@targetskin@
  00b7a	8d 4d d8	 lea	 ecx, DWORD PTR $T51[ebp]

; 4377 :         _Mypair._Myval2._Mysize = 0;

  00b7d	c7 45 e8 00 00
	00 00		 mov	 DWORD PTR $T51[ebp+16], 0

; 4378 :         _Mypair._Myval2._Myres  = _BUF_SIZE - 1;

  00b84	c7 45 ec 0f 00
	00 00		 mov	 DWORD PTR $T51[ebp+20], 15 ; 0000000fH

; 4379 :         // the _Traits::assign is last so the codegen doesn't think the char write can alias this
; 4380 :         _Traits::assign(_Mypair._Myval2._Bx._Buf[0], _Elem());

  00b8b	c6 45 d8 00	 mov	 BYTE PTR $T51[ebp], 0

; 3062 :         return assign(_Ptr, _Convert_size<size_type>(_Traits::length(_Ptr)));

  00b8f	e8 00 00 00 00	 call	 ?assign@?$basic_string@DU?$char_traits@D@std@@V?$allocator@D@2@@std@@QAEAAV12@QBDI@Z ; std::basic_string<char,std::char_traits<char>,std::allocator<char> >::assign
; File D:\Metin2 Server Files\mainline\SRC_2014\Metin2Client\GameLib\RaceDataFile.cpp

; 114  : 				if (TextFileLoader.GetTokenString("sourceskin", &strSourceSkin) &&

  00b94	8b 85 c0 fe ff
	ff		 mov	 eax, DWORD PTR $T10[ebp]
  00b9a	8d 8d c8 fe ff
	ff		 lea	 ecx, DWORD PTR _TextFileLoader$[ebp]
  00ba0	83 c8 20	 or	 eax, 32			; 00000020H
  00ba3	c7 45 fc 16 00
	00 00		 mov	 DWORD PTR __$EHRec$[ebp+8], 22 ; 00000016H
  00baa	89 85 c0 fe ff
	ff		 mov	 DWORD PTR $T10[ebp], eax
  00bb0	89 85 b8 fe ff
	ff		 mov	 DWORD PTR $T5[ebp], eax
  00bb6	8d 45 90	 lea	 eax, DWORD PTR _strTargetSkin$32[ebp]
  00bb9	50		 push	 eax
  00bba	8d 45 d8	 lea	 eax, DWORD PTR $T51[ebp]
  00bbd	50		 push	 eax
  00bbe	e8 00 00 00 00	 call	 ?GetTokenString@CTextFileLoader@@QAEHABV?$basic_string@DU?$char_traits@D@std@@V?$allocator@D@2@@std@@PAV23@@Z ; CTextFileLoader::GetTokenString
  00bc3	c6 85 c7 fe ff
	ff 01		 mov	 BYTE PTR $T16[ebp], 1
  00bca	85 c0		 test	 eax, eax
  00bcc	75 07		 jne	 SHORT $LN41@LoadRaceDa
$LN40@LoadRaceDa:
  00bce	c6 85 c7 fe ff
	ff 00		 mov	 BYTE PTR $T16[ebp], 0
$LN41@LoadRaceDa:
  00bd5	8b 85 c0 fe ff
	ff		 mov	 eax, DWORD PTR $T10[ebp]
  00bdb	a8 20		 test	 al, 32			; 00000020H
  00bdd	74 38		 je	 SHORT $LN1104@LoadRaceDa
; File C:\Program Files (x86)\Microsoft Visual Studio\2019\Community\VC\Tools\MSVC\14.28.29333\include\xstring

; 4385 :         if (_Mypair._Myval2._Large_string_engaged()) {

  00bdf	8b 4d ec	 mov	 ecx, DWORD PTR $T51[ebp+20]
; File D:\Metin2 Server Files\mainline\SRC_2014\Metin2Client\GameLib\RaceDataFile.cpp

; 114  : 				if (TextFileLoader.GetTokenString("sourceskin", &strSourceSkin) &&

  00be2	83 e0 df	 and	 eax, -33		; ffffffdfH
  00be5	89 85 c0 fe ff
	ff		 mov	 DWORD PTR $T10[ebp], eax
; File C:\Program Files (x86)\Microsoft Visual Studio\2019\Community\VC\Tools\MSVC\14.28.29333\include\xstring

; 4385 :         if (_Mypair._Myval2._Large_string_engaged()) {

  00beb	83 f9 10	 cmp	 ecx, 16			; 00000010H
  00bee	72 15		 jb	 SHORT $LN1103@LoadRaceDa

; 4386 :             const pointer _Ptr = _Mypair._Myval2._Bx._Ptr;
; 4387 :             auto& _Al          = _Getal();
; 4388 :             _Destroy_in_place(_Mypair._Myval2._Bx._Ptr);
; 4389 :             _Al.deallocate(_Ptr, _Mypair._Myval2._Myres + 1);

  00bf0	8d 41 01	 lea	 eax, DWORD PTR [ecx+1]
; File C:\Program Files (x86)\Microsoft Visual Studio\2019\Community\VC\Tools\MSVC\14.28.29333\include\xmemory

; 810  :         _Deallocate<_New_alignof<_Ty>>(_Ptr, sizeof(_Ty) * _Count);

  00bf3	50		 push	 eax
  00bf4	ff 75 d8	 push	 DWORD PTR $T51[ebp]
  00bf7	e8 00 00 00 00	 call	 ??$_Deallocate@$07$0A@@std@@YAXPAXI@Z ; std::_Deallocate<8,0>
  00bfc	8b 85 c0 fe ff
	ff		 mov	 eax, DWORD PTR $T10[ebp]
  00c02	83 c4 08	 add	 esp, 8
$LN1103@LoadRaceDa:
; File C:\Program Files (x86)\Microsoft Visual Studio\2019\Community\VC\Tools\MSVC\14.28.29333\include\xstring

; 4392 :         _Mypair._Myval2._Mysize = 0;

  00c05	c7 45 e8 00 00
	00 00		 mov	 DWORD PTR $T51[ebp+16], 0

; 4393 :         _Mypair._Myval2._Myres  = _BUF_SIZE - 1;

  00c0c	c7 45 ec 0f 00
	00 00		 mov	 DWORD PTR $T51[ebp+20], 15 ; 0000000fH

; 4394 :         // the _Traits::assign is last so the codegen doesn't think the char write can alias this
; 4395 :         _Traits::assign(_Mypair._Myval2._Bx._Buf[0], _Elem());

  00c13	c6 45 d8 00	 mov	 BYTE PTR $T51[ebp], 0
$LN1104@LoadRaceDa:
; File D:\Metin2 Server Files\mainline\SRC_2014\Metin2Client\GameLib\RaceDataFile.cpp

; 114  : 				if (TextFileLoader.GetTokenString("sourceskin", &strSourceSkin) &&

  00c17	c7 45 fc 12 00
	00 00		 mov	 DWORD PTR __$EHRec$[ebp+8], 18 ; 00000012H
  00c1e	a8 10		 test	 al, 16			; 00000010H
  00c20	74 1e		 je	 SHORT $LN1113@LoadRaceDa
  00c22	83 e0 ef	 and	 eax, -17		; ffffffefH
  00c25	89 85 c0 fe ff
	ff		 mov	 DWORD PTR $T10[ebp], eax
; File C:\Program Files (x86)\Microsoft Visual Studio\2019\Community\VC\Tools\MSVC\14.28.29333\include\xstring

; 4385 :         if (_Mypair._Myval2._Large_string_engaged()) {

  00c2b	8b 45 d4	 mov	 eax, DWORD PTR $T45[ebp+20]
  00c2e	83 f8 10	 cmp	 eax, 16			; 00000010H
  00c31	72 0d		 jb	 SHORT $LN1113@LoadRaceDa

; 4386 :             const pointer _Ptr = _Mypair._Myval2._Bx._Ptr;
; 4387 :             auto& _Al          = _Getal();
; 4388 :             _Destroy_in_place(_Mypair._Myval2._Bx._Ptr);
; 4389 :             _Al.deallocate(_Ptr, _Mypair._Myval2._Myres + 1);

  00c33	40		 inc	 eax
; File C:\Program Files (x86)\Microsoft Visual Studio\2019\Community\VC\Tools\MSVC\14.28.29333\include\xmemory

; 810  :         _Deallocate<_New_alignof<_Ty>>(_Ptr, sizeof(_Ty) * _Count);

  00c34	50		 push	 eax
  00c35	ff 75 c0	 push	 DWORD PTR $T45[ebp]
  00c38	e8 00 00 00 00	 call	 ??$_Deallocate@$07$0A@@std@@YAXPAXI@Z ; std::_Deallocate<8,0>
  00c3d	83 c4 08	 add	 esp, 8
$LN1113@LoadRaceDa:
; File D:\Metin2 Server Files\mainline\SRC_2014\Metin2Client\GameLib\RaceDataFile.cpp

; 114  : 				if (TextFileLoader.GetTokenString("sourceskin", &strSourceSkin) &&

  00c40	80 bd c7 fe ff
	ff 00		 cmp	 BYTE PTR $T16[ebp], 0
  00c47	0f 84 af 00 00
	00		 je	 $LN1147@LoadRaceDa

; 117  : 					AppendShapeSkin(dwShapeIndex, 0, (strPathName + strSourceSkin).c_str(), (strPathName + strTargetSkin).c_str());

  00c4d	8d 45 90	 lea	 eax, DWORD PTR _strTargetSkin$32[ebp]
  00c50	50		 push	 eax
  00c51	8d 85 60 ff ff
	ff		 lea	 eax, DWORD PTR _strPathName$28[ebp]
  00c57	50		 push	 eax
  00c58	8d 45 c0	 lea	 eax, DWORD PTR $T44[ebp]
  00c5b	50		 push	 eax
  00c5c	e8 00 00 00 00	 call	 ??$?HDU?$char_traits@D@std@@V?$allocator@D@1@@std@@YA?AV?$basic_string@DU?$char_traits@D@std@@V?$allocator@D@2@@0@ABV10@0@Z ; std::operator+<char,std::char_traits<char>,std::allocator<char> >
  00c61	8b f0		 mov	 esi, eax
  00c63	8d 85 78 ff ff
	ff		 lea	 eax, DWORD PTR _strSourceSkin$30[ebp]
  00c69	c6 45 fc 17	 mov	 BYTE PTR __$EHRec$[ebp+8], 23 ; 00000017H
  00c6d	50		 push	 eax
  00c6e	8d 85 60 ff ff
	ff		 lea	 eax, DWORD PTR _strPathName$28[ebp]
  00c74	50		 push	 eax
  00c75	8d 85 48 ff ff
	ff		 lea	 eax, DWORD PTR $T24[ebp]
  00c7b	50		 push	 eax
  00c7c	e8 00 00 00 00	 call	 ??$?HDU?$char_traits@D@std@@V?$allocator@D@1@@std@@YA?AV?$basic_string@DU?$char_traits@D@std@@V?$allocator@D@2@@0@ABV10@0@Z ; std::operator+<char,std::char_traits<char>,std::allocator<char> >
  00c81	83 c4 18	 add	 esp, 24			; 00000018H
; File C:\Program Files (x86)\Microsoft Visual Studio\2019\Community\VC\Tools\MSVC\14.28.29333\include\xstring

; 2219 :         if (_Large_string_engaged()) {

  00c84	83 7e 14 10	 cmp	 DWORD PTR [esi+20], 16	; 00000010H
; File D:\Metin2 Server Files\mainline\SRC_2014\Metin2Client\GameLib\RaceDataFile.cpp

; 117  : 					AppendShapeSkin(dwShapeIndex, 0, (strPathName + strSourceSkin).c_str(), (strPathName + strTargetSkin).c_str());

  00c88	c6 45 fc 18	 mov	 BYTE PTR __$EHRec$[ebp+8], 24 ; 00000018H
; File C:\Program Files (x86)\Microsoft Visual Studio\2019\Community\VC\Tools\MSVC\14.28.29333\include\xstring

; 2219 :         if (_Large_string_engaged()) {

  00c8c	72 02		 jb	 SHORT $LN1122@LoadRaceDa

; 2220 :             _Result = _Unfancy(_Bx._Ptr);

  00c8e	8b 36		 mov	 esi, DWORD PTR [esi]
$LN1122@LoadRaceDa:

; 2219 :         if (_Large_string_engaged()) {

  00c90	83 78 14 10	 cmp	 DWORD PTR [eax+20], 16	; 00000010H
  00c94	72 02		 jb	 SHORT $LN1129@LoadRaceDa

; 2220 :             _Result = _Unfancy(_Bx._Ptr);

  00c96	8b 00		 mov	 eax, DWORD PTR [eax]
$LN1129@LoadRaceDa:
; File D:\Metin2 Server Files\mainline\SRC_2014\Metin2Client\GameLib\RaceDataFile.cpp

; 117  : 					AppendShapeSkin(dwShapeIndex, 0, (strPathName + strSourceSkin).c_str(), (strPathName + strTargetSkin).c_str());

  00c98	8b 8d b0 fe ff
	ff		 mov	 ecx, DWORD PTR _this$GSCopy$1$[ebp]
  00c9e	56		 push	 esi
  00c9f	50		 push	 eax
  00ca0	6a 00		 push	 0
  00ca2	ff b5 b4 fe ff
	ff		 push	 DWORD PTR _dwShapeIndex$4[ebp]
  00ca8	e8 00 00 00 00	 call	 ?AppendShapeSkin@CRaceData@@QAEXIIPBD0@Z ; CRaceData::AppendShapeSkin
; File C:\Program Files (x86)\Microsoft Visual Studio\2019\Community\VC\Tools\MSVC\14.28.29333\include\xstring

; 4385 :         if (_Mypair._Myval2._Large_string_engaged()) {

  00cad	8b 85 5c ff ff
	ff		 mov	 eax, DWORD PTR $T24[ebp+20]
  00cb3	83 f8 10	 cmp	 eax, 16			; 00000010H
  00cb6	72 10		 jb	 SHORT $LN1137@LoadRaceDa

; 4386 :             const pointer _Ptr = _Mypair._Myval2._Bx._Ptr;
; 4387 :             auto& _Al          = _Getal();
; 4388 :             _Destroy_in_place(_Mypair._Myval2._Bx._Ptr);
; 4389 :             _Al.deallocate(_Ptr, _Mypair._Myval2._Myres + 1);

  00cb8	40		 inc	 eax
; File C:\Program Files (x86)\Microsoft Visual Studio\2019\Community\VC\Tools\MSVC\14.28.29333\include\xmemory

; 810  :         _Deallocate<_New_alignof<_Ty>>(_Ptr, sizeof(_Ty) * _Count);

  00cb9	50		 push	 eax
  00cba	ff b5 48 ff ff
	ff		 push	 DWORD PTR $T24[ebp]
  00cc0	e8 00 00 00 00	 call	 ??$_Deallocate@$07$0A@@std@@YAXPAXI@Z ; std::_Deallocate<8,0>
  00cc5	83 c4 08	 add	 esp, 8
$LN1137@LoadRaceDa:
; File C:\Program Files (x86)\Microsoft Visual Studio\2019\Community\VC\Tools\MSVC\14.28.29333\include\xstring

; 4385 :         if (_Mypair._Myval2._Large_string_engaged()) {

  00cc8	8b 45 d4	 mov	 eax, DWORD PTR $T44[ebp+20]

; 4392 :         _Mypair._Myval2._Mysize = 0;

  00ccb	c7 85 58 ff ff
	ff 00 00 00 00	 mov	 DWORD PTR $T24[ebp+16], 0

; 4393 :         _Mypair._Myval2._Myres  = _BUF_SIZE - 1;

  00cd5	c7 85 5c ff ff
	ff 0f 00 00 00	 mov	 DWORD PTR $T24[ebp+20], 15 ; 0000000fH

; 4394 :         // the _Traits::assign is last so the codegen doesn't think the char write can alias this
; 4395 :         _Traits::assign(_Mypair._Myval2._Bx._Buf[0], _Elem());

  00cdf	c6 85 48 ff ff
	ff 00		 mov	 BYTE PTR $T24[ebp], 0
; File D:\Metin2 Server Files\mainline\SRC_2014\Metin2Client\GameLib\RaceDataFile.cpp

; 117  : 					AppendShapeSkin(dwShapeIndex, 0, (strPathName + strSourceSkin).c_str(), (strPathName + strTargetSkin).c_str());

  00ce6	c6 45 fc 12	 mov	 BYTE PTR __$EHRec$[ebp+8], 18 ; 00000012H
; File C:\Program Files (x86)\Microsoft Visual Studio\2019\Community\VC\Tools\MSVC\14.28.29333\include\xstring

; 4385 :         if (_Mypair._Myval2._Large_string_engaged()) {

  00cea	83 f8 10	 cmp	 eax, 16			; 00000010H
  00ced	72 0d		 jb	 SHORT $LN1147@LoadRaceDa

; 4386 :             const pointer _Ptr = _Mypair._Myval2._Bx._Ptr;
; 4387 :             auto& _Al          = _Getal();
; 4388 :             _Destroy_in_place(_Mypair._Myval2._Bx._Ptr);
; 4389 :             _Al.deallocate(_Ptr, _Mypair._Myval2._Myres + 1);

  00cef	40		 inc	 eax
; File C:\Program Files (x86)\Microsoft Visual Studio\2019\Community\VC\Tools\MSVC\14.28.29333\include\xmemory

; 810  :         _Deallocate<_New_alignof<_Ty>>(_Ptr, sizeof(_Ty) * _Count);

  00cf0	50		 push	 eax
  00cf1	ff 75 c0	 push	 DWORD PTR $T44[ebp]
  00cf4	e8 00 00 00 00	 call	 ??$_Deallocate@$07$0A@@std@@YAXPAXI@Z ; std::_Deallocate<8,0>
  00cf9	83 c4 08	 add	 esp, 8
$LN1147@LoadRaceDa:
; File C:\Program Files (x86)\Microsoft Visual Studio\2019\Community\VC\Tools\MSVC\14.28.29333\include\xstring

; 3062 :         return assign(_Ptr, _Convert_size<size_type>(_Traits::length(_Ptr)));

  00cfc	6a 0b		 push	 11			; 0000000bH
  00cfe	68 00 00 00 00	 push	 OFFSET ??_C@_0M@NHEOFKBO@sourceskin2@
  00d03	8d 4d c0	 lea	 ecx, DWORD PTR $T43[ebp]

; 4377 :         _Mypair._Myval2._Mysize = 0;

  00d06	c7 45 d0 00 00
	00 00		 mov	 DWORD PTR $T43[ebp+16], 0

; 4378 :         _Mypair._Myval2._Myres  = _BUF_SIZE - 1;

  00d0d	c7 45 d4 0f 00
	00 00		 mov	 DWORD PTR $T43[ebp+20], 15 ; 0000000fH

; 4379 :         // the _Traits::assign is last so the codegen doesn't think the char write can alias this
; 4380 :         _Traits::assign(_Mypair._Myval2._Bx._Buf[0], _Elem());

  00d14	c6 45 c0 00	 mov	 BYTE PTR $T43[ebp], 0

; 3062 :         return assign(_Ptr, _Convert_size<size_type>(_Traits::length(_Ptr)));

  00d18	e8 00 00 00 00	 call	 ?assign@?$basic_string@DU?$char_traits@D@std@@V?$allocator@D@2@@std@@QAEAAV12@QBDI@Z ; std::basic_string<char,std::char_traits<char>,std::allocator<char> >::assign
; File D:\Metin2 Server Files\mainline\SRC_2014\Metin2Client\GameLib\RaceDataFile.cpp

; 120  : 				if (TextFileLoader.GetTokenString("sourceskin2", &strSourceSkin) &&

  00d1d	8b 85 c0 fe ff
	ff		 mov	 eax, DWORD PTR $T10[ebp]
  00d23	8d 8d c8 fe ff
	ff		 lea	 ecx, DWORD PTR _TextFileLoader$[ebp]
  00d29	83 c8 40	 or	 eax, 64			; 00000040H
  00d2c	c6 45 fc 19	 mov	 BYTE PTR __$EHRec$[ebp+8], 25 ; 00000019H
  00d30	89 85 c0 fe ff
	ff		 mov	 DWORD PTR $T10[ebp], eax
  00d36	89 85 b8 fe ff
	ff		 mov	 DWORD PTR $T5[ebp], eax
  00d3c	8d 85 78 ff ff
	ff		 lea	 eax, DWORD PTR _strSourceSkin$30[ebp]
  00d42	50		 push	 eax
  00d43	8d 45 c0	 lea	 eax, DWORD PTR $T43[ebp]
  00d46	50		 push	 eax
  00d47	e8 00 00 00 00	 call	 ?GetTokenString@CTextFileLoader@@QAEHABV?$basic_string@DU?$char_traits@D@std@@V?$allocator@D@2@@std@@PAV23@@Z ; CTextFileLoader::GetTokenString
  00d4c	85 c0		 test	 eax, eax
  00d4e	74 5d		 je	 SHORT $LN42@LoadRaceDa
; File C:\Program Files (x86)\Microsoft Visual Studio\2019\Community\VC\Tools\MSVC\14.28.29333\include\xstring

; 3062 :         return assign(_Ptr, _Convert_size<size_type>(_Traits::length(_Ptr)));

  00d50	6a 0b		 push	 11			; 0000000bH
  00d52	68 00 00 00 00	 push	 OFFSET ??_C@_0M@PCONBKCN@targetskin2@
  00d57	8d 4d d8	 lea	 ecx, DWORD PTR $T50[ebp]

; 4377 :         _Mypair._Myval2._Mysize = 0;

  00d5a	c7 45 e8 00 00
	00 00		 mov	 DWORD PTR $T50[ebp+16], 0

; 4378 :         _Mypair._Myval2._Myres  = _BUF_SIZE - 1;

  00d61	c7 45 ec 0f 00
	00 00		 mov	 DWORD PTR $T50[ebp+20], 15 ; 0000000fH

; 4379 :         // the _Traits::assign is last so the codegen doesn't think the char write can alias this
; 4380 :         _Traits::assign(_Mypair._Myval2._Bx._Buf[0], _Elem());

  00d68	c6 45 d8 00	 mov	 BYTE PTR $T50[ebp], 0

; 3062 :         return assign(_Ptr, _Convert_size<size_type>(_Traits::length(_Ptr)));

  00d6c	e8 00 00 00 00	 call	 ?assign@?$basic_string@DU?$char_traits@D@std@@V?$allocator@D@2@@std@@QAEAAV12@QBDI@Z ; std::basic_string<char,std::char_traits<char>,std::allocator<char> >::assign
; File D:\Metin2 Server Files\mainline\SRC_2014\Metin2Client\GameLib\RaceDataFile.cpp

; 120  : 				if (TextFileLoader.GetTokenString("sourceskin2", &strSourceSkin) &&

  00d71	8b 85 c0 fe ff
	ff		 mov	 eax, DWORD PTR $T10[ebp]
  00d77	8d 8d c8 fe ff
	ff		 lea	 ecx, DWORD PTR _TextFileLoader$[ebp]
  00d7d	0d 80 00 00 00	 or	 eax, 128		; 00000080H
  00d82	c7 45 fc 1a 00
	00 00		 mov	 DWORD PTR __$EHRec$[ebp+8], 26 ; 0000001aH
  00d89	89 85 c0 fe ff
	ff		 mov	 DWORD PTR $T10[ebp], eax
  00d8f	89 85 b8 fe ff
	ff		 mov	 DWORD PTR $T5[ebp], eax
  00d95	8d 45 90	 lea	 eax, DWORD PTR _strTargetSkin$32[ebp]
  00d98	50		 push	 eax
  00d99	8d 45 d8	 lea	 eax, DWORD PTR $T50[ebp]
  00d9c	50		 push	 eax
  00d9d	e8 00 00 00 00	 call	 ?GetTokenString@CTextFileLoader@@QAEHABV?$basic_string@DU?$char_traits@D@std@@V?$allocator@D@2@@std@@PAV23@@Z ; CTextFileLoader::GetTokenString
  00da2	c6 85 c7 fe ff
	ff 01		 mov	 BYTE PTR $T15[ebp], 1
  00da9	85 c0		 test	 eax, eax
  00dab	75 07		 jne	 SHORT $LN43@LoadRaceDa
$LN42@LoadRaceDa:
  00dad	c6 85 c7 fe ff
	ff 00		 mov	 BYTE PTR $T15[ebp], 0
$LN43@LoadRaceDa:
  00db4	8b 85 c0 fe ff
	ff		 mov	 eax, DWORD PTR $T10[ebp]
  00dba	84 c0		 test	 al, al
  00dbc	79 3a		 jns	 SHORT $LN1186@LoadRaceDa
; File C:\Program Files (x86)\Microsoft Visual Studio\2019\Community\VC\Tools\MSVC\14.28.29333\include\xstring

; 4385 :         if (_Mypair._Myval2._Large_string_engaged()) {

  00dbe	8b 4d ec	 mov	 ecx, DWORD PTR $T50[ebp+20]
; File D:\Metin2 Server Files\mainline\SRC_2014\Metin2Client\GameLib\RaceDataFile.cpp

; 120  : 				if (TextFileLoader.GetTokenString("sourceskin2", &strSourceSkin) &&

  00dc1	25 7f ff ff ff	 and	 eax, -129		; ffffff7fH
  00dc6	89 85 c0 fe ff
	ff		 mov	 DWORD PTR $T10[ebp], eax
; File C:\Program Files (x86)\Microsoft Visual Studio\2019\Community\VC\Tools\MSVC\14.28.29333\include\xstring

; 4385 :         if (_Mypair._Myval2._Large_string_engaged()) {

  00dcc	83 f9 10	 cmp	 ecx, 16			; 00000010H
  00dcf	72 15		 jb	 SHORT $LN1185@LoadRaceDa

; 4386 :             const pointer _Ptr = _Mypair._Myval2._Bx._Ptr;
; 4387 :             auto& _Al          = _Getal();
; 4388 :             _Destroy_in_place(_Mypair._Myval2._Bx._Ptr);
; 4389 :             _Al.deallocate(_Ptr, _Mypair._Myval2._Myres + 1);

  00dd1	8d 41 01	 lea	 eax, DWORD PTR [ecx+1]
; File C:\Program Files (x86)\Microsoft Visual Studio\2019\Community\VC\Tools\MSVC\14.28.29333\include\xmemory

; 810  :         _Deallocate<_New_alignof<_Ty>>(_Ptr, sizeof(_Ty) * _Count);

  00dd4	50		 push	 eax
  00dd5	ff 75 d8	 push	 DWORD PTR $T50[ebp]
  00dd8	e8 00 00 00 00	 call	 ??$_Deallocate@$07$0A@@std@@YAXPAXI@Z ; std::_Deallocate<8,0>
  00ddd	8b 85 c0 fe ff
	ff		 mov	 eax, DWORD PTR $T10[ebp]
  00de3	83 c4 08	 add	 esp, 8
$LN1185@LoadRaceDa:
; File C:\Program Files (x86)\Microsoft Visual Studio\2019\Community\VC\Tools\MSVC\14.28.29333\include\xstring

; 4392 :         _Mypair._Myval2._Mysize = 0;

  00de6	c7 45 e8 00 00
	00 00		 mov	 DWORD PTR $T50[ebp+16], 0

; 4393 :         _Mypair._Myval2._Myres  = _BUF_SIZE - 1;

  00ded	c7 45 ec 0f 00
	00 00		 mov	 DWORD PTR $T50[ebp+20], 15 ; 0000000fH

; 4394 :         // the _Traits::assign is last so the codegen doesn't think the char write can alias this
; 4395 :         _Traits::assign(_Mypair._Myval2._Bx._Buf[0], _Elem());

  00df4	c6 45 d8 00	 mov	 BYTE PTR $T50[ebp], 0
$LN1186@LoadRaceDa:
; File D:\Metin2 Server Files\mainline\SRC_2014\Metin2Client\GameLib\RaceDataFile.cpp

; 120  : 				if (TextFileLoader.GetTokenString("sourceskin2", &strSourceSkin) &&

  00df8	c7 45 fc 12 00
	00 00		 mov	 DWORD PTR __$EHRec$[ebp+8], 18 ; 00000012H
  00dff	a8 40		 test	 al, 64			; 00000040H
  00e01	74 1e		 je	 SHORT $LN1195@LoadRaceDa
  00e03	83 e0 bf	 and	 eax, -65		; ffffffbfH
  00e06	89 85 c0 fe ff
	ff		 mov	 DWORD PTR $T10[ebp], eax
; File C:\Program Files (x86)\Microsoft Visual Studio\2019\Community\VC\Tools\MSVC\14.28.29333\include\xstring

; 4385 :         if (_Mypair._Myval2._Large_string_engaged()) {

  00e0c	8b 45 d4	 mov	 eax, DWORD PTR $T43[ebp+20]
  00e0f	83 f8 10	 cmp	 eax, 16			; 00000010H
  00e12	72 0d		 jb	 SHORT $LN1195@LoadRaceDa

; 4386 :             const pointer _Ptr = _Mypair._Myval2._Bx._Ptr;
; 4387 :             auto& _Al          = _Getal();
; 4388 :             _Destroy_in_place(_Mypair._Myval2._Bx._Ptr);
; 4389 :             _Al.deallocate(_Ptr, _Mypair._Myval2._Myres + 1);

  00e14	40		 inc	 eax
; File C:\Program Files (x86)\Microsoft Visual Studio\2019\Community\VC\Tools\MSVC\14.28.29333\include\xmemory

; 810  :         _Deallocate<_New_alignof<_Ty>>(_Ptr, sizeof(_Ty) * _Count);

  00e15	50		 push	 eax
  00e16	ff 75 c0	 push	 DWORD PTR $T43[ebp]
  00e19	e8 00 00 00 00	 call	 ??$_Deallocate@$07$0A@@std@@YAXPAXI@Z ; std::_Deallocate<8,0>
  00e1e	83 c4 08	 add	 esp, 8
$LN1195@LoadRaceDa:
; File D:\Metin2 Server Files\mainline\SRC_2014\Metin2Client\GameLib\RaceDataFile.cpp

; 120  : 				if (TextFileLoader.GetTokenString("sourceskin2", &strSourceSkin) &&

  00e21	80 bd c7 fe ff
	ff 00		 cmp	 BYTE PTR $T15[ebp], 0
  00e28	0f 84 af 00 00
	00		 je	 $LN1229@LoadRaceDa

; 123  : 					AppendShapeSkin(dwShapeIndex, 0, (strPathName + strSourceSkin).c_str(), (strPathName + strTargetSkin).c_str());

  00e2e	8d 45 90	 lea	 eax, DWORD PTR _strTargetSkin$32[ebp]
  00e31	50		 push	 eax
  00e32	8d 85 60 ff ff
	ff		 lea	 eax, DWORD PTR _strPathName$28[ebp]
  00e38	50		 push	 eax
  00e39	8d 45 c0	 lea	 eax, DWORD PTR $T42[ebp]
  00e3c	50		 push	 eax
  00e3d	e8 00 00 00 00	 call	 ??$?HDU?$char_traits@D@std@@V?$allocator@D@1@@std@@YA?AV?$basic_string@DU?$char_traits@D@std@@V?$allocator@D@2@@0@ABV10@0@Z ; std::operator+<char,std::char_traits<char>,std::allocator<char> >
  00e42	8b f0		 mov	 esi, eax
  00e44	8d 85 78 ff ff
	ff		 lea	 eax, DWORD PTR _strSourceSkin$30[ebp]
  00e4a	c6 45 fc 1b	 mov	 BYTE PTR __$EHRec$[ebp+8], 27 ; 0000001bH
  00e4e	50		 push	 eax
  00e4f	8d 85 60 ff ff
	ff		 lea	 eax, DWORD PTR _strPathName$28[ebp]
  00e55	50		 push	 eax
  00e56	8d 85 48 ff ff
	ff		 lea	 eax, DWORD PTR $T23[ebp]
  00e5c	50		 push	 eax
  00e5d	e8 00 00 00 00	 call	 ??$?HDU?$char_traits@D@std@@V?$allocator@D@1@@std@@YA?AV?$basic_string@DU?$char_traits@D@std@@V?$allocator@D@2@@0@ABV10@0@Z ; std::operator+<char,std::char_traits<char>,std::allocator<char> >
  00e62	83 c4 18	 add	 esp, 24			; 00000018H
; File C:\Program Files (x86)\Microsoft Visual Studio\2019\Community\VC\Tools\MSVC\14.28.29333\include\xstring

; 2219 :         if (_Large_string_engaged()) {

  00e65	83 7e 14 10	 cmp	 DWORD PTR [esi+20], 16	; 00000010H
; File D:\Metin2 Server Files\mainline\SRC_2014\Metin2Client\GameLib\RaceDataFile.cpp

; 123  : 					AppendShapeSkin(dwShapeIndex, 0, (strPathName + strSourceSkin).c_str(), (strPathName + strTargetSkin).c_str());

  00e69	c6 45 fc 1c	 mov	 BYTE PTR __$EHRec$[ebp+8], 28 ; 0000001cH
; File C:\Program Files (x86)\Microsoft Visual Studio\2019\Community\VC\Tools\MSVC\14.28.29333\include\xstring

; 2219 :         if (_Large_string_engaged()) {

  00e6d	72 02		 jb	 SHORT $LN1204@LoadRaceDa

; 2220 :             _Result = _Unfancy(_Bx._Ptr);

  00e6f	8b 36		 mov	 esi, DWORD PTR [esi]
$LN1204@LoadRaceDa:

; 2219 :         if (_Large_string_engaged()) {

  00e71	83 78 14 10	 cmp	 DWORD PTR [eax+20], 16	; 00000010H
  00e75	72 02		 jb	 SHORT $LN1211@LoadRaceDa

; 2220 :             _Result = _Unfancy(_Bx._Ptr);

  00e77	8b 00		 mov	 eax, DWORD PTR [eax]
$LN1211@LoadRaceDa:
; File D:\Metin2 Server Files\mainline\SRC_2014\Metin2Client\GameLib\RaceDataFile.cpp

; 123  : 					AppendShapeSkin(dwShapeIndex, 0, (strPathName + strSourceSkin).c_str(), (strPathName + strTargetSkin).c_str());

  00e79	8b 8d b0 fe ff
	ff		 mov	 ecx, DWORD PTR _this$GSCopy$1$[ebp]
  00e7f	56		 push	 esi
  00e80	50		 push	 eax
  00e81	6a 00		 push	 0
  00e83	ff b5 b4 fe ff
	ff		 push	 DWORD PTR _dwShapeIndex$4[ebp]
  00e89	e8 00 00 00 00	 call	 ?AppendShapeSkin@CRaceData@@QAEXIIPBD0@Z ; CRaceData::AppendShapeSkin
; File C:\Program Files (x86)\Microsoft Visual Studio\2019\Community\VC\Tools\MSVC\14.28.29333\include\xstring

; 4385 :         if (_Mypair._Myval2._Large_string_engaged()) {

  00e8e	8b 85 5c ff ff
	ff		 mov	 eax, DWORD PTR $T23[ebp+20]
  00e94	83 f8 10	 cmp	 eax, 16			; 00000010H
  00e97	72 10		 jb	 SHORT $LN1219@LoadRaceDa

; 4386 :             const pointer _Ptr = _Mypair._Myval2._Bx._Ptr;
; 4387 :             auto& _Al          = _Getal();
; 4388 :             _Destroy_in_place(_Mypair._Myval2._Bx._Ptr);
; 4389 :             _Al.deallocate(_Ptr, _Mypair._Myval2._Myres + 1);

  00e99	40		 inc	 eax
; File C:\Program Files (x86)\Microsoft Visual Studio\2019\Community\VC\Tools\MSVC\14.28.29333\include\xmemory

; 810  :         _Deallocate<_New_alignof<_Ty>>(_Ptr, sizeof(_Ty) * _Count);

  00e9a	50		 push	 eax
  00e9b	ff b5 48 ff ff
	ff		 push	 DWORD PTR $T23[ebp]
  00ea1	e8 00 00 00 00	 call	 ??$_Deallocate@$07$0A@@std@@YAXPAXI@Z ; std::_Deallocate<8,0>
  00ea6	83 c4 08	 add	 esp, 8
$LN1219@LoadRaceDa:
; File C:\Program Files (x86)\Microsoft Visual Studio\2019\Community\VC\Tools\MSVC\14.28.29333\include\xstring

; 4385 :         if (_Mypair._Myval2._Large_string_engaged()) {

  00ea9	8b 45 d4	 mov	 eax, DWORD PTR $T42[ebp+20]

; 4392 :         _Mypair._Myval2._Mysize = 0;

  00eac	c7 85 58 ff ff
	ff 00 00 00 00	 mov	 DWORD PTR $T23[ebp+16], 0

; 4393 :         _Mypair._Myval2._Myres  = _BUF_SIZE - 1;

  00eb6	c7 85 5c ff ff
	ff 0f 00 00 00	 mov	 DWORD PTR $T23[ebp+20], 15 ; 0000000fH

; 4394 :         // the _Traits::assign is last so the codegen doesn't think the char write can alias this
; 4395 :         _Traits::assign(_Mypair._Myval2._Bx._Buf[0], _Elem());

  00ec0	c6 85 48 ff ff
	ff 00		 mov	 BYTE PTR $T23[ebp], 0
; File D:\Metin2 Server Files\mainline\SRC_2014\Metin2Client\GameLib\RaceDataFile.cpp

; 123  : 					AppendShapeSkin(dwShapeIndex, 0, (strPathName + strSourceSkin).c_str(), (strPathName + strTargetSkin).c_str());

  00ec7	c6 45 fc 12	 mov	 BYTE PTR __$EHRec$[ebp+8], 18 ; 00000012H
; File C:\Program Files (x86)\Microsoft Visual Studio\2019\Community\VC\Tools\MSVC\14.28.29333\include\xstring

; 4385 :         if (_Mypair._Myval2._Large_string_engaged()) {

  00ecb	83 f8 10	 cmp	 eax, 16			; 00000010H
  00ece	72 0d		 jb	 SHORT $LN1229@LoadRaceDa

; 4386 :             const pointer _Ptr = _Mypair._Myval2._Bx._Ptr;
; 4387 :             auto& _Al          = _Getal();
; 4388 :             _Destroy_in_place(_Mypair._Myval2._Bx._Ptr);
; 4389 :             _Al.deallocate(_Ptr, _Mypair._Myval2._Myres + 1);

  00ed0	40		 inc	 eax
; File C:\Program Files (x86)\Microsoft Visual Studio\2019\Community\VC\Tools\MSVC\14.28.29333\include\xmemory

; 810  :         _Deallocate<_New_alignof<_Ty>>(_Ptr, sizeof(_Ty) * _Count);

  00ed1	50		 push	 eax
  00ed2	ff 75 c0	 push	 DWORD PTR $T42[ebp]
  00ed5	e8 00 00 00 00	 call	 ??$_Deallocate@$07$0A@@std@@YAXPAXI@Z ; std::_Deallocate<8,0>
  00eda	83 c4 08	 add	 esp, 8
$LN1229@LoadRaceDa:
; File D:\Metin2 Server Files\mainline\SRC_2014\Metin2Client\GameLib\RaceDataFile.cpp

; 126  : 				TextFileLoader.SetParentNode();

  00edd	8d 8d c8 fe ff
	ff		 lea	 ecx, DWORD PTR _TextFileLoader$[ebp]
  00ee3	e8 00 00 00 00	 call	 ?SetParentNode@CTextFileLoader@@QAEHXZ ; CTextFileLoader::SetParentNode
; File C:\Program Files (x86)\Microsoft Visual Studio\2019\Community\VC\Tools\MSVC\14.28.29333\include\xstring

; 4385 :         if (_Mypair._Myval2._Large_string_engaged()) {

  00ee8	8b 45 a4	 mov	 eax, DWORD PTR _strTargetSkin$32[ebp+20]
  00eeb	83 f8 10	 cmp	 eax, 16			; 00000010H
  00eee	72 0d		 jb	 SHORT $LN1239@LoadRaceDa

; 4386 :             const pointer _Ptr = _Mypair._Myval2._Bx._Ptr;
; 4387 :             auto& _Al          = _Getal();
; 4388 :             _Destroy_in_place(_Mypair._Myval2._Bx._Ptr);
; 4389 :             _Al.deallocate(_Ptr, _Mypair._Myval2._Myres + 1);

  00ef0	40		 inc	 eax
; File C:\Program Files (x86)\Microsoft Visual Studio\2019\Community\VC\Tools\MSVC\14.28.29333\include\xmemory

; 810  :         _Deallocate<_New_alignof<_Ty>>(_Ptr, sizeof(_Ty) * _Count);

  00ef1	50		 push	 eax
  00ef2	ff 75 90	 push	 DWORD PTR _strTargetSkin$32[ebp]
  00ef5	e8 00 00 00 00	 call	 ??$_Deallocate@$07$0A@@std@@YAXPAXI@Z ; std::_Deallocate<8,0>
  00efa	83 c4 08	 add	 esp, 8
$LN1239@LoadRaceDa:
; File C:\Program Files (x86)\Microsoft Visual Studio\2019\Community\VC\Tools\MSVC\14.28.29333\include\xstring

; 4385 :         if (_Mypair._Myval2._Large_string_engaged()) {

  00efd	8b 45 8c	 mov	 eax, DWORD PTR _strSourceSkin$30[ebp+20]

; 4392 :         _Mypair._Myval2._Mysize = 0;

  00f00	c7 45 a0 00 00
	00 00		 mov	 DWORD PTR _strTargetSkin$32[ebp+16], 0

; 4393 :         _Mypair._Myval2._Myres  = _BUF_SIZE - 1;

  00f07	c7 45 a4 0f 00
	00 00		 mov	 DWORD PTR _strTargetSkin$32[ebp+20], 15 ; 0000000fH

; 4394 :         // the _Traits::assign is last so the codegen doesn't think the char write can alias this
; 4395 :         _Traits::assign(_Mypair._Myval2._Bx._Buf[0], _Elem());

  00f0e	c6 45 90 00	 mov	 BYTE PTR _strTargetSkin$32[ebp], 0

; 4385 :         if (_Mypair._Myval2._Large_string_engaged()) {

  00f12	83 f8 10	 cmp	 eax, 16			; 00000010H
  00f15	72 10		 jb	 SHORT $LN1249@LoadRaceDa

; 4386 :             const pointer _Ptr = _Mypair._Myval2._Bx._Ptr;
; 4387 :             auto& _Al          = _Getal();
; 4388 :             _Destroy_in_place(_Mypair._Myval2._Bx._Ptr);
; 4389 :             _Al.deallocate(_Ptr, _Mypair._Myval2._Myres + 1);

  00f17	40		 inc	 eax
; File C:\Program Files (x86)\Microsoft Visual Studio\2019\Community\VC\Tools\MSVC\14.28.29333\include\xmemory

; 810  :         _Deallocate<_New_alignof<_Ty>>(_Ptr, sizeof(_Ty) * _Count);

  00f18	50		 push	 eax
  00f19	ff b5 78 ff ff
	ff		 push	 DWORD PTR _strSourceSkin$30[ebp]
  00f1f	e8 00 00 00 00	 call	 ??$_Deallocate@$07$0A@@std@@YAXPAXI@Z ; std::_Deallocate<8,0>
  00f24	83 c4 08	 add	 esp, 8
$LN1249@LoadRaceDa:
; File C:\Program Files (x86)\Microsoft Visual Studio\2019\Community\VC\Tools\MSVC\14.28.29333\include\xstring

; 4392 :         _Mypair._Myval2._Mysize = 0;

  00f27	c7 45 88 00 00
	00 00		 mov	 DWORD PTR _strSourceSkin$30[ebp+16], 0

; 4393 :         _Mypair._Myval2._Myres  = _BUF_SIZE - 1;

  00f2e	c7 45 8c 0f 00
	00 00		 mov	 DWORD PTR _strSourceSkin$30[ebp+20], 15 ; 0000000fH

; 4394 :         // the _Traits::assign is last so the codegen doesn't think the char write can alias this
; 4395 :         _Traits::assign(_Mypair._Myval2._Bx._Buf[0], _Elem());

  00f35	c6 85 78 ff ff
	ff 00		 mov	 BYTE PTR _strSourceSkin$30[ebp], 0
$LN1651@LoadRaceDa:
; File D:\Metin2 Server Files\mainline\SRC_2014\Metin2Client\GameLib\RaceDataFile.cpp

; 68   : 			for (DWORD i = 0; i < dwShapeDataCount; ++i)

  00f3c	8b 45 bc	 mov	 eax, DWORD PTR _strModel$34[ebp+20]
  00f3f	c6 45 fc 07	 mov	 BYTE PTR __$EHRec$[ebp+8], 7
  00f43	83 f8 10	 cmp	 eax, 16			; 00000010H
  00f46	72 0d		 jb	 SHORT $LN5@LoadRaceDa
  00f48	40		 inc	 eax
  00f49	50		 push	 eax
  00f4a	ff 75 a8	 push	 DWORD PTR _strModel$34[ebp]
  00f4d	e8 00 00 00 00	 call	 ??$_Deallocate@$07$0A@@std@@YAXPAXI@Z ; std::_Deallocate<8,0>
  00f52	83 c4 08	 add	 esp, 8
$LN5@LoadRaceDa:
  00f55	47		 inc	 edi
  00f56	3b bd bc fe ff
	ff		 cmp	 edi, DWORD PTR _dwShapeDataCount$9[ebp]
  00f5c	0f 82 7e f7 ff
	ff		 jb	 $LL7@LoadRaceDa
$LN6@LoadRaceDa:

; 127  : 			}
; 128  : 		}
; 129  : 
; 130  : 		TextFileLoader.SetParentNode();

  00f62	8d 8d c8 fe ff
	ff		 lea	 ecx, DWORD PTR _TextFileLoader$[ebp]
  00f68	e8 00 00 00 00	 call	 ?SetParentNode@CTextFileLoader@@QAEHXZ ; CTextFileLoader::SetParentNode
; File C:\Program Files (x86)\Microsoft Visual Studio\2019\Community\VC\Tools\MSVC\14.28.29333\include\xstring

; 4385 :         if (_Mypair._Myval2._Large_string_engaged()) {

  00f6d	8b 85 74 ff ff
	ff		 mov	 eax, DWORD PTR _strPathName$28[ebp+20]
; File D:\Metin2 Server Files\mainline\SRC_2014\Metin2Client\GameLib\RaceDataFile.cpp

; 131  : 	}

  00f73	c6 45 fc 00	 mov	 BYTE PTR __$EHRec$[ebp+8], 0
; File C:\Program Files (x86)\Microsoft Visual Studio\2019\Community\VC\Tools\MSVC\14.28.29333\include\xstring

; 4385 :         if (_Mypair._Myval2._Large_string_engaged()) {

  00f77	83 f8 10	 cmp	 eax, 16			; 00000010H
  00f7a	72 10		 jb	 SHORT $LN1646@LoadRaceDa

; 4386 :             const pointer _Ptr = _Mypair._Myval2._Bx._Ptr;
; 4387 :             auto& _Al          = _Getal();
; 4388 :             _Destroy_in_place(_Mypair._Myval2._Bx._Ptr);
; 4389 :             _Al.deallocate(_Ptr, _Mypair._Myval2._Myres + 1);

  00f7c	40		 inc	 eax
; File C:\Program Files (x86)\Microsoft Visual Studio\2019\Community\VC\Tools\MSVC\14.28.29333\include\xmemory

; 810  :         _Deallocate<_New_alignof<_Ty>>(_Ptr, sizeof(_Ty) * _Count);

  00f7d	50		 push	 eax
  00f7e	ff b5 60 ff ff
	ff		 push	 DWORD PTR _strPathName$28[ebp]
  00f84	e8 00 00 00 00	 call	 ??$_Deallocate@$07$0A@@std@@YAXPAXI@Z ; std::_Deallocate<8,0>
  00f89	83 c4 08	 add	 esp, 8
$LN1646@LoadRaceDa:
; File D:\Metin2 Server Files\mainline\SRC_2014\Metin2Client\GameLib\RaceDataFile.cpp

; 133  : 	if (TextFileLoader.SetChildNode("hairdata"))

  00f8c	8b bd c0 fe ff
	ff		 mov	 edi, DWORD PTR $T10[ebp]
$LN1269@LoadRaceDa:
  00f92	68 00 00 00 00	 push	 OFFSET ??_C@_08HKPOBGLF@hairdata@
  00f97	8d 8d c8 fe ff
	ff		 lea	 ecx, DWORD PTR _TextFileLoader$[ebp]
  00f9d	e8 00 00 00 00	 call	 ?SetChildNode@CTextFileLoader@@QAEHPBD@Z ; CTextFileLoader::SetChildNode
  00fa2	85 c0		 test	 eax, eax
  00fa4	0f 84 68 06 00
	00		 je	 $LN1596@LoadRaceDa
; File C:\Program Files (x86)\Microsoft Visual Studio\2019\Community\VC\Tools\MSVC\14.28.29333\include\xstring

; 4377 :         _Mypair._Myval2._Mysize = 0;

  00faa	c7 45 a0 00 00
	00 00		 mov	 DWORD PTR _strPathName$31[ebp+16], 0

; 4378 :         _Mypair._Myval2._Myres  = _BUF_SIZE - 1;

  00fb1	c7 45 a4 0f 00
	00 00		 mov	 DWORD PTR _strPathName$31[ebp+20], 15 ; 0000000fH

; 4379 :         // the _Traits::assign is last so the codegen doesn't think the char write can alias this
; 4380 :         _Traits::assign(_Mypair._Myval2._Bx._Buf[0], _Elem());

  00fb8	c6 45 90 00	 mov	 BYTE PTR _strPathName$31[ebp], 0

; 3062 :         return assign(_Ptr, _Convert_size<size_type>(_Traits::length(_Ptr)));

  00fbc	6a 08		 push	 8
  00fbe	68 00 00 00 00	 push	 OFFSET ??_C@_08PEIJGPHF@pathname@
  00fc3	8d 4d c0	 lea	 ecx, DWORD PTR $T41[ebp]
; File D:\Metin2 Server Files\mainline\SRC_2014\Metin2Client\GameLib\RaceDataFile.cpp

; 135  : 		std::string strPathName;

  00fc6	c6 45 fc 1d	 mov	 BYTE PTR __$EHRec$[ebp+8], 29 ; 0000001dH

; 136  : 		DWORD dwHairDataCount = 0;

  00fca	c7 85 b4 fe ff
	ff 00 00 00 00	 mov	 DWORD PTR _dwHairDataCount$3[ebp], 0
; File C:\Program Files (x86)\Microsoft Visual Studio\2019\Community\VC\Tools\MSVC\14.28.29333\include\xstring

; 4377 :         _Mypair._Myval2._Mysize = 0;

  00fd4	c7 45 d0 00 00
	00 00		 mov	 DWORD PTR $T41[ebp+16], 0

; 4378 :         _Mypair._Myval2._Myres  = _BUF_SIZE - 1;

  00fdb	c7 45 d4 0f 00
	00 00		 mov	 DWORD PTR $T41[ebp+20], 15 ; 0000000fH

; 4379 :         // the _Traits::assign is last so the codegen doesn't think the char write can alias this
; 4380 :         _Traits::assign(_Mypair._Myval2._Bx._Buf[0], _Elem());

  00fe2	c6 45 c0 00	 mov	 BYTE PTR $T41[ebp], 0

; 3062 :         return assign(_Ptr, _Convert_size<size_type>(_Traits::length(_Ptr)));

  00fe6	e8 00 00 00 00	 call	 ?assign@?$basic_string@DU?$char_traits@D@std@@V?$allocator@D@2@@std@@QAEAAV12@QBDI@Z ; std::basic_string<char,std::char_traits<char>,std::allocator<char> >::assign
; File D:\Metin2 Server Files\mainline\SRC_2014\Metin2Client\GameLib\RaceDataFile.cpp

; 137  : 		if (TextFileLoader.GetTokenString("pathname", &strPathName) &&

  00feb	8d 45 90	 lea	 eax, DWORD PTR _strPathName$31[ebp]
  00fee	c6 45 fc 1e	 mov	 BYTE PTR __$EHRec$[ebp+8], 30 ; 0000001eH
  00ff2	50		 push	 eax
  00ff3	8d 45 c0	 lea	 eax, DWORD PTR $T41[ebp]
  00ff6	81 cf 00 01 00
	00		 or	 edi, 256		; 00000100H
  00ffc	50		 push	 eax
  00ffd	8d 8d c8 fe ff
	ff		 lea	 ecx, DWORD PTR _TextFileLoader$[ebp]
  01003	89 bd c0 fe ff
	ff		 mov	 DWORD PTR $T10[ebp], edi
  01009	89 bd b8 fe ff
	ff		 mov	 DWORD PTR $T5[ebp], edi
  0100f	e8 00 00 00 00	 call	 ?GetTokenString@CTextFileLoader@@QAEHABV?$basic_string@DU?$char_traits@D@std@@V?$allocator@D@2@@std@@PAV23@@Z ; CTextFileLoader::GetTokenString
  01014	85 c0		 test	 eax, eax
  01016	74 5b		 je	 SHORT $LN44@LoadRaceDa
; File C:\Program Files (x86)\Microsoft Visual Studio\2019\Community\VC\Tools\MSVC\14.28.29333\include\xstring

; 3062 :         return assign(_Ptr, _Convert_size<size_type>(_Traits::length(_Ptr)));

  01018	6a 0d		 push	 13			; 0000000dH
  0101a	68 00 00 00 00	 push	 OFFSET ??_C@_0O@HCGNHJP@hairdatacount@
  0101f	8d 4d d8	 lea	 ecx, DWORD PTR $T49[ebp]

; 4377 :         _Mypair._Myval2._Mysize = 0;

  01022	c7 45 e8 00 00
	00 00		 mov	 DWORD PTR $T49[ebp+16], 0

; 4378 :         _Mypair._Myval2._Myres  = _BUF_SIZE - 1;

  01029	c7 45 ec 0f 00
	00 00		 mov	 DWORD PTR $T49[ebp+20], 15 ; 0000000fH

; 4379 :         // the _Traits::assign is last so the codegen doesn't think the char write can alias this
; 4380 :         _Traits::assign(_Mypair._Myval2._Bx._Buf[0], _Elem());

  01030	c6 45 d8 00	 mov	 BYTE PTR $T49[ebp], 0

; 3062 :         return assign(_Ptr, _Convert_size<size_type>(_Traits::length(_Ptr)));

  01034	e8 00 00 00 00	 call	 ?assign@?$basic_string@DU?$char_traits@D@std@@V?$allocator@D@2@@std@@QAEAAV12@QBDI@Z ; std::basic_string<char,std::char_traits<char>,std::allocator<char> >::assign
; File D:\Metin2 Server Files\mainline\SRC_2014\Metin2Client\GameLib\RaceDataFile.cpp

; 137  : 		if (TextFileLoader.GetTokenString("pathname", &strPathName) &&

  01039	8d 85 b4 fe ff
	ff		 lea	 eax, DWORD PTR _dwHairDataCount$3[ebp]
  0103f	c7 45 fc 1f 00
	00 00		 mov	 DWORD PTR __$EHRec$[ebp+8], 31 ; 0000001fH
  01046	50		 push	 eax
  01047	8d 45 d8	 lea	 eax, DWORD PTR $T49[ebp]
  0104a	81 cf 00 02 00
	00		 or	 edi, 512		; 00000200H
  01050	50		 push	 eax
  01051	8d 8d c8 fe ff
	ff		 lea	 ecx, DWORD PTR _TextFileLoader$[ebp]
  01057	89 bd c0 fe ff
	ff		 mov	 DWORD PTR $T10[ebp], edi
  0105d	89 bd b8 fe ff
	ff		 mov	 DWORD PTR $T5[ebp], edi
  01063	e8 00 00 00 00	 call	 ?GetTokenDoubleWord@CTextFileLoader@@QAEHABV?$basic_string@DU?$char_traits@D@std@@V?$allocator@D@2@@std@@PAK@Z ; CTextFileLoader::GetTokenDoubleWord
  01068	c6 85 c7 fe ff
	ff 01		 mov	 BYTE PTR $T14[ebp], 1
  0106f	85 c0		 test	 eax, eax
  01071	75 07		 jne	 SHORT $LN45@LoadRaceDa
$LN44@LoadRaceDa:
  01073	c6 85 c7 fe ff
	ff 00		 mov	 BYTE PTR $T14[ebp], 0
$LN45@LoadRaceDa:
  0107a	8b 85 c0 fe ff
	ff		 mov	 eax, DWORD PTR $T10[ebp]
  01080	a9 00 02 00 00	 test	 eax, 512		; 00000200H
  01085	74 3a		 je	 SHORT $LN1319@LoadRaceDa
; File C:\Program Files (x86)\Microsoft Visual Studio\2019\Community\VC\Tools\MSVC\14.28.29333\include\xstring

; 4385 :         if (_Mypair._Myval2._Large_string_engaged()) {

  01087	8b 4d ec	 mov	 ecx, DWORD PTR $T49[ebp+20]
; File D:\Metin2 Server Files\mainline\SRC_2014\Metin2Client\GameLib\RaceDataFile.cpp

; 137  : 		if (TextFileLoader.GetTokenString("pathname", &strPathName) &&

  0108a	25 ff fd ff ff	 and	 eax, -513		; fffffdffH
  0108f	89 85 c0 fe ff
	ff		 mov	 DWORD PTR $T10[ebp], eax
; File C:\Program Files (x86)\Microsoft Visual Studio\2019\Community\VC\Tools\MSVC\14.28.29333\include\xstring

; 4385 :         if (_Mypair._Myval2._Large_string_engaged()) {

  01095	83 f9 10	 cmp	 ecx, 16			; 00000010H
  01098	72 15		 jb	 SHORT $LN1318@LoadRaceDa

; 4386 :             const pointer _Ptr = _Mypair._Myval2._Bx._Ptr;
; 4387 :             auto& _Al          = _Getal();
; 4388 :             _Destroy_in_place(_Mypair._Myval2._Bx._Ptr);
; 4389 :             _Al.deallocate(_Ptr, _Mypair._Myval2._Myres + 1);

  0109a	8d 41 01	 lea	 eax, DWORD PTR [ecx+1]
; File C:\Program Files (x86)\Microsoft Visual Studio\2019\Community\VC\Tools\MSVC\14.28.29333\include\xmemory

; 810  :         _Deallocate<_New_alignof<_Ty>>(_Ptr, sizeof(_Ty) * _Count);

  0109d	50		 push	 eax
  0109e	ff 75 d8	 push	 DWORD PTR $T49[ebp]
  010a1	e8 00 00 00 00	 call	 ??$_Deallocate@$07$0A@@std@@YAXPAXI@Z ; std::_Deallocate<8,0>
  010a6	8b 85 c0 fe ff
	ff		 mov	 eax, DWORD PTR $T10[ebp]
  010ac	83 c4 08	 add	 esp, 8
$LN1318@LoadRaceDa:
; File C:\Program Files (x86)\Microsoft Visual Studio\2019\Community\VC\Tools\MSVC\14.28.29333\include\xstring

; 4392 :         _Mypair._Myval2._Mysize = 0;

  010af	c7 45 e8 00 00
	00 00		 mov	 DWORD PTR $T49[ebp+16], 0

; 4393 :         _Mypair._Myval2._Myres  = _BUF_SIZE - 1;

  010b6	c7 45 ec 0f 00
	00 00		 mov	 DWORD PTR $T49[ebp+20], 15 ; 0000000fH

; 4394 :         // the _Traits::assign is last so the codegen doesn't think the char write can alias this
; 4395 :         _Traits::assign(_Mypair._Myval2._Bx._Buf[0], _Elem());

  010bd	c6 45 d8 00	 mov	 BYTE PTR $T49[ebp], 0
$LN1319@LoadRaceDa:
; File D:\Metin2 Server Files\mainline\SRC_2014\Metin2Client\GameLib\RaceDataFile.cpp

; 137  : 		if (TextFileLoader.GetTokenString("pathname", &strPathName) &&

  010c1	c7 45 fc 1d 00
	00 00		 mov	 DWORD PTR __$EHRec$[ebp+8], 29 ; 0000001dH
  010c8	a9 00 01 00 00	 test	 eax, 256		; 00000100H
  010cd	74 20		 je	 SHORT $LN1328@LoadRaceDa
  010cf	25 ff fe ff ff	 and	 eax, -257		; fffffeffH
  010d4	89 85 c0 fe ff
	ff		 mov	 DWORD PTR $T10[ebp], eax
; File C:\Program Files (x86)\Microsoft Visual Studio\2019\Community\VC\Tools\MSVC\14.28.29333\include\xstring

; 4385 :         if (_Mypair._Myval2._Large_string_engaged()) {

  010da	8b 45 d4	 mov	 eax, DWORD PTR $T41[ebp+20]
  010dd	83 f8 10	 cmp	 eax, 16			; 00000010H
  010e0	72 0d		 jb	 SHORT $LN1328@LoadRaceDa

; 4386 :             const pointer _Ptr = _Mypair._Myval2._Bx._Ptr;
; 4387 :             auto& _Al          = _Getal();
; 4388 :             _Destroy_in_place(_Mypair._Myval2._Bx._Ptr);
; 4389 :             _Al.deallocate(_Ptr, _Mypair._Myval2._Myres + 1);

  010e2	40		 inc	 eax
; File C:\Program Files (x86)\Microsoft Visual Studio\2019\Community\VC\Tools\MSVC\14.28.29333\include\xmemory

; 810  :         _Deallocate<_New_alignof<_Ty>>(_Ptr, sizeof(_Ty) * _Count);

  010e3	50		 push	 eax
  010e4	ff 75 c0	 push	 DWORD PTR $T41[ebp]
  010e7	e8 00 00 00 00	 call	 ??$_Deallocate@$07$0A@@std@@YAXPAXI@Z ; std::_Deallocate<8,0>
  010ec	83 c4 08	 add	 esp, 8
$LN1328@LoadRaceDa:
; File D:\Metin2 Server Files\mainline\SRC_2014\Metin2Client\GameLib\RaceDataFile.cpp

; 137  : 		if (TextFileLoader.GetTokenString("pathname", &strPathName) &&

  010ef	80 bd c7 fe ff
	ff 00		 cmp	 BYTE PTR $T14[ebp], 0
  010f6	0f 84 f2 04 00
	00		 je	 $LN9@LoadRaceDa

; 141  : 			for (DWORD i = 0; i < dwHairDataCount; ++i)

  010fc	33 f6		 xor	 esi, esi
  010fe	89 b5 bc fe ff
	ff		 mov	 DWORD PTR _i$1$[ebp], esi
  01104	39 b5 b4 fe ff
	ff		 cmp	 DWORD PTR _dwHairDataCount$3[ebp], esi
  0110a	0f 86 de 04 00
	00		 jbe	 $LN9@LoadRaceDa
$LL10@LoadRaceDa:
; File C:\Program Files (x86)\Microsoft Visual Studio\2019\Community\VC\Tools\MSVC\14.28.29333\include\xstring

; 3062 :         return assign(_Ptr, _Convert_size<size_type>(_Traits::length(_Ptr)));

  01110	6a 08		 push	 8
  01112	68 00 00 00 00	 push	 OFFSET ??_C@_08HKPOBGLF@hairdata@
  01117	8d 4d c0	 lea	 ecx, DWORD PTR $T40[ebp]

; 4377 :         _Mypair._Myval2._Mysize = 0;

  0111a	c7 45 d0 00 00
	00 00		 mov	 DWORD PTR $T40[ebp+16], 0

; 4378 :         _Mypair._Myval2._Myres  = _BUF_SIZE - 1;

  01121	c7 45 d4 0f 00
	00 00		 mov	 DWORD PTR $T40[ebp+20], 15 ; 0000000fH

; 4379 :         // the _Traits::assign is last so the codegen doesn't think the char write can alias this
; 4380 :         _Traits::assign(_Mypair._Myval2._Bx._Buf[0], _Elem());

  01128	c6 45 c0 00	 mov	 BYTE PTR $T40[ebp], 0

; 3062 :         return assign(_Ptr, _Convert_size<size_type>(_Traits::length(_Ptr)));

  0112c	e8 00 00 00 00	 call	 ?assign@?$basic_string@DU?$char_traits@D@std@@V?$allocator@D@2@@std@@QAEAAV12@QBDI@Z ; std::basic_string<char,std::char_traits<char>,std::allocator<char> >::assign
; File D:\Metin2 Server Files\mainline\SRC_2014\Metin2Client\GameLib\RaceDataFile.cpp

; 143  : 				if (!TextFileLoader.SetChildNode("hairdata", i))

  01131	56		 push	 esi
  01132	8d 45 c0	 lea	 eax, DWORD PTR $T40[ebp]
  01135	c6 45 fc 20	 mov	 BYTE PTR __$EHRec$[ebp+8], 32 ; 00000020H
  01139	50		 push	 eax
  0113a	8d 8d c8 fe ff
	ff		 lea	 ecx, DWORD PTR _TextFileLoader$[ebp]
  01140	e8 00 00 00 00	 call	 ?SetChildNode@CTextFileLoader@@QAEHABV?$basic_string@DU?$char_traits@D@std@@V?$allocator@D@2@@std@@K@Z ; CTextFileLoader::SetChildNode
  01145	85 c0		 test	 eax, eax
  01147	c6 45 fc 1d	 mov	 BYTE PTR __$EHRec$[ebp+8], 29 ; 0000001dH
; File C:\Program Files (x86)\Microsoft Visual Studio\2019\Community\VC\Tools\MSVC\14.28.29333\include\xstring

; 4385 :         if (_Mypair._Myval2._Large_string_engaged()) {

  0114b	8b 45 d4	 mov	 eax, DWORD PTR $T40[ebp+20]
; File D:\Metin2 Server Files\mainline\SRC_2014\Metin2Client\GameLib\RaceDataFile.cpp

; 143  : 				if (!TextFileLoader.SetChildNode("hairdata", i))

  0114e	0f 94 85 c7 fe
	ff ff		 sete	 BYTE PTR $T13[ebp]
; File C:\Program Files (x86)\Microsoft Visual Studio\2019\Community\VC\Tools\MSVC\14.28.29333\include\xstring

; 4385 :         if (_Mypair._Myval2._Large_string_engaged()) {

  01155	83 f8 10	 cmp	 eax, 16			; 00000010H
  01158	72 0d		 jb	 SHORT $LN1352@LoadRaceDa

; 4386 :             const pointer _Ptr = _Mypair._Myval2._Bx._Ptr;
; 4387 :             auto& _Al          = _Getal();
; 4388 :             _Destroy_in_place(_Mypair._Myval2._Bx._Ptr);
; 4389 :             _Al.deallocate(_Ptr, _Mypair._Myval2._Myres + 1);

  0115a	40		 inc	 eax
; File C:\Program Files (x86)\Microsoft Visual Studio\2019\Community\VC\Tools\MSVC\14.28.29333\include\xmemory

; 810  :         _Deallocate<_New_alignof<_Ty>>(_Ptr, sizeof(_Ty) * _Count);

  0115b	50		 push	 eax
  0115c	ff 75 c0	 push	 DWORD PTR $T40[ebp]
  0115f	e8 00 00 00 00	 call	 ??$_Deallocate@$07$0A@@std@@YAXPAXI@Z ; std::_Deallocate<8,0>
  01164	83 c4 08	 add	 esp, 8
$LN1352@LoadRaceDa:
; File D:\Metin2 Server Files\mainline\SRC_2014\Metin2Client\GameLib\RaceDataFile.cpp

; 143  : 				if (!TextFileLoader.SetChildNode("hairdata", i))

  01167	80 bd c7 fe ff
	ff 00		 cmp	 BYTE PTR $T13[ebp], 0
  0116e	0f 85 67 04 00
	00		 jne	 $LN8@LoadRaceDa
; File C:\Program Files (x86)\Microsoft Visual Studio\2019\Community\VC\Tools\MSVC\14.28.29333\include\xstring

; 3062 :         return assign(_Ptr, _Convert_size<size_type>(_Traits::length(_Ptr)));

  01174	6a 0b		 push	 11			; 0000000bH
  01176	68 00 00 00 00	 push	 OFFSET ??_C@_0M@GCDLCIFI@specialpath@
  0117b	8d 4d c0	 lea	 ecx, DWORD PTR $T39[ebp]

; 4377 :         _Mypair._Myval2._Mysize = 0;

  0117e	c7 45 d0 00 00
	00 00		 mov	 DWORD PTR $T39[ebp+16], 0

; 4378 :         _Mypair._Myval2._Myres  = _BUF_SIZE - 1;

  01185	c7 45 d4 0f 00
	00 00		 mov	 DWORD PTR $T39[ebp+20], 15 ; 0000000fH

; 4379 :         // the _Traits::assign is last so the codegen doesn't think the char write can alias this
; 4380 :         _Traits::assign(_Mypair._Myval2._Bx._Buf[0], _Elem());

  0118c	c6 45 c0 00	 mov	 BYTE PTR $T39[ebp], 0

; 3062 :         return assign(_Ptr, _Convert_size<size_type>(_Traits::length(_Ptr)));

  01190	e8 00 00 00 00	 call	 ?assign@?$basic_string@DU?$char_traits@D@std@@V?$allocator@D@2@@std@@QAEAAV12@QBDI@Z ; std::basic_string<char,std::char_traits<char>,std::allocator<char> >::assign
; File D:\Metin2 Server Files\mainline\SRC_2014\Metin2Client\GameLib\RaceDataFile.cpp

; 150  : 				TextFileLoader.GetTokenString("specialpath", &strPathName);

  01195	8d 45 90	 lea	 eax, DWORD PTR _strPathName$31[ebp]
  01198	c6 45 fc 21	 mov	 BYTE PTR __$EHRec$[ebp+8], 33 ; 00000021H
  0119c	50		 push	 eax
  0119d	8d 45 c0	 lea	 eax, DWORD PTR $T39[ebp]
  011a0	50		 push	 eax
  011a1	8d 8d c8 fe ff
	ff		 lea	 ecx, DWORD PTR _TextFileLoader$[ebp]
  011a7	e8 00 00 00 00	 call	 ?GetTokenString@CTextFileLoader@@QAEHABV?$basic_string@DU?$char_traits@D@std@@V?$allocator@D@2@@std@@PAV23@@Z ; CTextFileLoader::GetTokenString
; File C:\Program Files (x86)\Microsoft Visual Studio\2019\Community\VC\Tools\MSVC\14.28.29333\include\xstring

; 4385 :         if (_Mypair._Myval2._Large_string_engaged()) {

  011ac	8b 45 d4	 mov	 eax, DWORD PTR $T39[ebp+20]
; File D:\Metin2 Server Files\mainline\SRC_2014\Metin2Client\GameLib\RaceDataFile.cpp

; 150  : 				TextFileLoader.GetTokenString("specialpath", &strPathName);

  011af	c6 45 fc 1d	 mov	 BYTE PTR __$EHRec$[ebp+8], 29 ; 0000001dH
; File C:\Program Files (x86)\Microsoft Visual Studio\2019\Community\VC\Tools\MSVC\14.28.29333\include\xstring

; 4385 :         if (_Mypair._Myval2._Large_string_engaged()) {

  011b3	83 f8 10	 cmp	 eax, 16			; 00000010H
  011b6	72 0d		 jb	 SHORT $LN1376@LoadRaceDa

; 4386 :             const pointer _Ptr = _Mypair._Myval2._Bx._Ptr;
; 4387 :             auto& _Al          = _Getal();
; 4388 :             _Destroy_in_place(_Mypair._Myval2._Bx._Ptr);
; 4389 :             _Al.deallocate(_Ptr, _Mypair._Myval2._Myres + 1);

  011b8	40		 inc	 eax
; File C:\Program Files (x86)\Microsoft Visual Studio\2019\Community\VC\Tools\MSVC\14.28.29333\include\xmemory

; 810  :         _Deallocate<_New_alignof<_Ty>>(_Ptr, sizeof(_Ty) * _Count);

  011b9	50		 push	 eax
  011ba	ff 75 c0	 push	 DWORD PTR $T39[ebp]
  011bd	e8 00 00 00 00	 call	 ??$_Deallocate@$07$0A@@std@@YAXPAXI@Z ; std::_Deallocate<8,0>
  011c2	83 c4 08	 add	 esp, 8
$LN1376@LoadRaceDa:
; File C:\Program Files (x86)\Microsoft Visual Studio\2019\Community\VC\Tools\MSVC\14.28.29333\include\xstring

; 3062 :         return assign(_Ptr, _Convert_size<size_type>(_Traits::length(_Ptr)));

  011c5	6a 09		 push	 9
  011c7	68 00 00 00 00	 push	 OFFSET ??_C@_09DFEJDBKH@hairindex@
  011cc	8d 4d c0	 lea	 ecx, DWORD PTR $T38[ebp]

; 4377 :         _Mypair._Myval2._Mysize = 0;

  011cf	c7 45 d0 00 00
	00 00		 mov	 DWORD PTR $T38[ebp+16], 0

; 4378 :         _Mypair._Myval2._Myres  = _BUF_SIZE - 1;

  011d6	c7 45 d4 0f 00
	00 00		 mov	 DWORD PTR $T38[ebp+20], 15 ; 0000000fH

; 4379 :         // the _Traits::assign is last so the codegen doesn't think the char write can alias this
; 4380 :         _Traits::assign(_Mypair._Myval2._Bx._Buf[0], _Elem());

  011dd	c6 45 c0 00	 mov	 BYTE PTR $T38[ebp], 0

; 3062 :         return assign(_Ptr, _Convert_size<size_type>(_Traits::length(_Ptr)));

  011e1	e8 00 00 00 00	 call	 ?assign@?$basic_string@DU?$char_traits@D@std@@V?$allocator@D@2@@std@@QAEAAV12@QBDI@Z ; std::basic_string<char,std::char_traits<char>,std::allocator<char> >::assign
; File D:\Metin2 Server Files\mainline\SRC_2014\Metin2Client\GameLib\RaceDataFile.cpp

; 154  : 				if (!TextFileLoader.GetTokenDoubleWord("hairindex", &dwShapeIndex))

  011e6	8d 85 a4 fe ff
	ff		 lea	 eax, DWORD PTR _dwShapeIndex$2[ebp]
  011ec	c6 45 fc 22	 mov	 BYTE PTR __$EHRec$[ebp+8], 34 ; 00000022H
  011f0	50		 push	 eax
  011f1	8d 45 c0	 lea	 eax, DWORD PTR $T38[ebp]
  011f4	50		 push	 eax
  011f5	8d 8d c8 fe ff
	ff		 lea	 ecx, DWORD PTR _TextFileLoader$[ebp]
  011fb	e8 00 00 00 00	 call	 ?GetTokenDoubleWord@CTextFileLoader@@QAEHABV?$basic_string@DU?$char_traits@D@std@@V?$allocator@D@2@@std@@PAK@Z ; CTextFileLoader::GetTokenDoubleWord
  01200	85 c0		 test	 eax, eax
  01202	c6 45 fc 1d	 mov	 BYTE PTR __$EHRec$[ebp+8], 29 ; 0000001dH
; File C:\Program Files (x86)\Microsoft Visual Studio\2019\Community\VC\Tools\MSVC\14.28.29333\include\xstring

; 4385 :         if (_Mypair._Myval2._Large_string_engaged()) {

  01206	8b 45 d4	 mov	 eax, DWORD PTR $T38[ebp+20]
; File D:\Metin2 Server Files\mainline\SRC_2014\Metin2Client\GameLib\RaceDataFile.cpp

; 154  : 				if (!TextFileLoader.GetTokenDoubleWord("hairindex", &dwShapeIndex))

  01209	0f 94 85 c7 fe
	ff ff		 sete	 BYTE PTR $T12[ebp]
; File C:\Program Files (x86)\Microsoft Visual Studio\2019\Community\VC\Tools\MSVC\14.28.29333\include\xstring

; 4385 :         if (_Mypair._Myval2._Large_string_engaged()) {

  01210	83 f8 10	 cmp	 eax, 16			; 00000010H
  01213	72 0d		 jb	 SHORT $LN1400@LoadRaceDa

; 4386 :             const pointer _Ptr = _Mypair._Myval2._Bx._Ptr;
; 4387 :             auto& _Al          = _Getal();
; 4388 :             _Destroy_in_place(_Mypair._Myval2._Bx._Ptr);
; 4389 :             _Al.deallocate(_Ptr, _Mypair._Myval2._Myres + 1);

  01215	40		 inc	 eax
; File C:\Program Files (x86)\Microsoft Visual Studio\2019\Community\VC\Tools\MSVC\14.28.29333\include\xmemory

; 810  :         _Deallocate<_New_alignof<_Ty>>(_Ptr, sizeof(_Ty) * _Count);

  01216	50		 push	 eax
  01217	ff 75 c0	 push	 DWORD PTR $T38[ebp]
  0121a	e8 00 00 00 00	 call	 ??$_Deallocate@$07$0A@@std@@YAXPAXI@Z ; std::_Deallocate<8,0>
  0121f	83 c4 08	 add	 esp, 8
$LN1400@LoadRaceDa:
; File D:\Metin2 Server Files\mainline\SRC_2014\Metin2Client\GameLib\RaceDataFile.cpp

; 154  : 				if (!TextFileLoader.GetTokenDoubleWord("hairindex", &dwShapeIndex))

  01222	80 bd c7 fe ff
	ff 00		 cmp	 BYTE PTR $T12[ebp], 0
  01229	0f 85 ac 03 00
	00		 jne	 $LN8@LoadRaceDa
; File C:\Program Files (x86)\Microsoft Visual Studio\2019\Community\VC\Tools\MSVC\14.28.29333\include\xstring

; 4377 :         _Mypair._Myval2._Mysize = 0;

  0122f	c7 85 58 ff ff
	ff 00 00 00 00	 mov	 DWORD PTR _strModel$22[ebp+16], 0

; 4378 :         _Mypair._Myval2._Myres  = _BUF_SIZE - 1;

  01239	c7 85 5c ff ff
	ff 0f 00 00 00	 mov	 DWORD PTR _strModel$22[ebp+20], 15 ; 0000000fH

; 4379 :         // the _Traits::assign is last so the codegen doesn't think the char write can alias this
; 4380 :         _Traits::assign(_Mypair._Myval2._Bx._Buf[0], _Elem());

  01243	c6 85 48 ff ff
	ff 00		 mov	 BYTE PTR _strModel$22[ebp], 0

; 4377 :         _Mypair._Myval2._Mysize = 0;

  0124a	c7 45 88 00 00
	00 00		 mov	 DWORD PTR _strSourceSkin$29[ebp+16], 0

; 4378 :         _Mypair._Myval2._Myres  = _BUF_SIZE - 1;

  01251	c7 45 8c 0f 00
	00 00		 mov	 DWORD PTR _strSourceSkin$29[ebp+20], 15 ; 0000000fH

; 4379 :         // the _Traits::assign is last so the codegen doesn't think the char write can alias this
; 4380 :         _Traits::assign(_Mypair._Myval2._Bx._Buf[0], _Elem());

  01258	c6 85 78 ff ff
	ff 00		 mov	 BYTE PTR _strSourceSkin$29[ebp], 0

; 4377 :         _Mypair._Myval2._Mysize = 0;

  0125f	c7 45 b8 00 00
	00 00		 mov	 DWORD PTR _strTargetSkin$33[ebp+16], 0

; 4378 :         _Mypair._Myval2._Myres  = _BUF_SIZE - 1;

  01266	c7 45 bc 0f 00
	00 00		 mov	 DWORD PTR _strTargetSkin$33[ebp+20], 15 ; 0000000fH

; 4379 :         // the _Traits::assign is last so the codegen doesn't think the char write can alias this
; 4380 :         _Traits::assign(_Mypair._Myval2._Bx._Buf[0], _Elem());

  0126d	c6 45 a8 00	 mov	 BYTE PTR _strTargetSkin$33[ebp], 0

; 3062 :         return assign(_Ptr, _Convert_size<size_type>(_Traits::length(_Ptr)));

  01271	6a 05		 push	 5
  01273	68 00 00 00 00	 push	 OFFSET ??_C@_05NCCFOPHA@model@
  01278	8d 4d c0	 lea	 ecx, DWORD PTR $T37[ebp]
; File D:\Metin2 Server Files\mainline\SRC_2014\Metin2Client\GameLib\RaceDataFile.cpp

; 161  : 				std::string strTargetSkin;

  0127b	c6 45 fc 25	 mov	 BYTE PTR __$EHRec$[ebp+8], 37 ; 00000025H
; File C:\Program Files (x86)\Microsoft Visual Studio\2019\Community\VC\Tools\MSVC\14.28.29333\include\xstring

; 4377 :         _Mypair._Myval2._Mysize = 0;

  0127f	c7 45 d0 00 00
	00 00		 mov	 DWORD PTR $T37[ebp+16], 0

; 4378 :         _Mypair._Myval2._Myres  = _BUF_SIZE - 1;

  01286	c7 45 d4 0f 00
	00 00		 mov	 DWORD PTR $T37[ebp+20], 15 ; 0000000fH

; 4379 :         // the _Traits::assign is last so the codegen doesn't think the char write can alias this
; 4380 :         _Traits::assign(_Mypair._Myval2._Bx._Buf[0], _Elem());

  0128d	c6 45 c0 00	 mov	 BYTE PTR $T37[ebp], 0

; 3062 :         return assign(_Ptr, _Convert_size<size_type>(_Traits::length(_Ptr)));

  01291	e8 00 00 00 00	 call	 ?assign@?$basic_string@DU?$char_traits@D@std@@V?$allocator@D@2@@std@@QAEAAV12@QBDI@Z ; std::basic_string<char,std::char_traits<char>,std::allocator<char> >::assign
; File D:\Metin2 Server Files\mainline\SRC_2014\Metin2Client\GameLib\RaceDataFile.cpp

; 163  : 					TextFileLoader.GetTokenString("sourceskin", &strSourceSkin) &&

  01296	8b 85 c0 fe ff
	ff		 mov	 eax, DWORD PTR $T10[ebp]
  0129c	8d 8d c8 fe ff
	ff		 lea	 ecx, DWORD PTR _TextFileLoader$[ebp]
  012a2	0d 00 04 00 00	 or	 eax, 1024		; 00000400H
  012a7	c6 45 fc 26	 mov	 BYTE PTR __$EHRec$[ebp+8], 38 ; 00000026H
  012ab	89 85 c0 fe ff
	ff		 mov	 DWORD PTR $T10[ebp], eax
  012b1	89 85 b8 fe ff
	ff		 mov	 DWORD PTR $T5[ebp], eax
  012b7	8d 85 48 ff ff
	ff		 lea	 eax, DWORD PTR _strModel$22[ebp]
  012bd	50		 push	 eax
  012be	8d 45 c0	 lea	 eax, DWORD PTR $T37[ebp]
  012c1	50		 push	 eax
  012c2	e8 00 00 00 00	 call	 ?GetTokenString@CTextFileLoader@@QAEHABV?$basic_string@DU?$char_traits@D@std@@V?$allocator@D@2@@std@@PAV23@@Z ; CTextFileLoader::GetTokenString
  012c7	85 c0		 test	 eax, eax
  012c9	0f 84 c5 00 00
	00		 je	 $LN46@LoadRaceDa
; File C:\Program Files (x86)\Microsoft Visual Studio\2019\Community\VC\Tools\MSVC\14.28.29333\include\xstring

; 3062 :         return assign(_Ptr, _Convert_size<size_type>(_Traits::length(_Ptr)));

  012cf	6a 0a		 push	 10			; 0000000aH
  012d1	68 00 00 00 00	 push	 OFFSET ??_C@_0L@ILFPKBGB@sourceskin@
  012d6	8d 8d 60 ff ff
	ff		 lea	 ecx, DWORD PTR $T27[ebp]

; 4377 :         _Mypair._Myval2._Mysize = 0;

  012dc	c7 85 70 ff ff
	ff 00 00 00 00	 mov	 DWORD PTR $T27[ebp+16], 0

; 4378 :         _Mypair._Myval2._Myres  = _BUF_SIZE - 1;

  012e6	c7 85 74 ff ff
	ff 0f 00 00 00	 mov	 DWORD PTR $T27[ebp+20], 15 ; 0000000fH

; 4379 :         // the _Traits::assign is last so the codegen doesn't think the char write can alias this
; 4380 :         _Traits::assign(_Mypair._Myval2._Bx._Buf[0], _Elem());

  012f0	c6 85 60 ff ff
	ff 00		 mov	 BYTE PTR $T27[ebp], 0

; 3062 :         return assign(_Ptr, _Convert_size<size_type>(_Traits::length(_Ptr)));

  012f7	e8 00 00 00 00	 call	 ?assign@?$basic_string@DU?$char_traits@D@std@@V?$allocator@D@2@@std@@QAEAAV12@QBDI@Z ; std::basic_string<char,std::char_traits<char>,std::allocator<char> >::assign
; File D:\Metin2 Server Files\mainline\SRC_2014\Metin2Client\GameLib\RaceDataFile.cpp

; 163  : 					TextFileLoader.GetTokenString("sourceskin", &strSourceSkin) &&

  012fc	8b 85 c0 fe ff
	ff		 mov	 eax, DWORD PTR $T10[ebp]
  01302	8d 8d c8 fe ff
	ff		 lea	 ecx, DWORD PTR _TextFileLoader$[ebp]
  01308	0d 00 08 00 00	 or	 eax, 2048		; 00000800H
  0130d	c7 45 fc 27 00
	00 00		 mov	 DWORD PTR __$EHRec$[ebp+8], 39 ; 00000027H
  01314	89 85 c0 fe ff
	ff		 mov	 DWORD PTR $T10[ebp], eax
  0131a	89 85 b8 fe ff
	ff		 mov	 DWORD PTR $T5[ebp], eax
  01320	8d 85 78 ff ff
	ff		 lea	 eax, DWORD PTR _strSourceSkin$29[ebp]
  01326	50		 push	 eax
  01327	8d 85 60 ff ff
	ff		 lea	 eax, DWORD PTR $T27[ebp]
  0132d	50		 push	 eax
  0132e	e8 00 00 00 00	 call	 ?GetTokenString@CTextFileLoader@@QAEHABV?$basic_string@DU?$char_traits@D@std@@V?$allocator@D@2@@std@@PAV23@@Z ; CTextFileLoader::GetTokenString
  01333	85 c0		 test	 eax, eax
  01335	74 5d		 je	 SHORT $LN46@LoadRaceDa
; File C:\Program Files (x86)\Microsoft Visual Studio\2019\Community\VC\Tools\MSVC\14.28.29333\include\xstring

; 3062 :         return assign(_Ptr, _Convert_size<size_type>(_Traits::length(_Ptr)));

  01337	6a 0a		 push	 10			; 0000000aH
  01339	68 00 00 00 00	 push	 OFFSET ??_C@_0L@EHMNDCND@targetskin@
  0133e	8d 4d d8	 lea	 ecx, DWORD PTR $T48[ebp]

; 4377 :         _Mypair._Myval2._Mysize = 0;

  01341	c7 45 e8 00 00
	00 00		 mov	 DWORD PTR $T48[ebp+16], 0

; 4378 :         _Mypair._Myval2._Myres  = _BUF_SIZE - 1;

  01348	c7 45 ec 0f 00
	00 00		 mov	 DWORD PTR $T48[ebp+20], 15 ; 0000000fH

; 4379 :         // the _Traits::assign is last so the codegen doesn't think the char write can alias this
; 4380 :         _Traits::assign(_Mypair._Myval2._Bx._Buf[0], _Elem());

  0134f	c6 45 d8 00	 mov	 BYTE PTR $T48[ebp], 0

; 3062 :         return assign(_Ptr, _Convert_size<size_type>(_Traits::length(_Ptr)));

  01353	e8 00 00 00 00	 call	 ?assign@?$basic_string@DU?$char_traits@D@std@@V?$allocator@D@2@@std@@QAEAAV12@QBDI@Z ; std::basic_string<char,std::char_traits<char>,std::allocator<char> >::assign
; File D:\Metin2 Server Files\mainline\SRC_2014\Metin2Client\GameLib\RaceDataFile.cpp

; 163  : 					TextFileLoader.GetTokenString("sourceskin", &strSourceSkin) &&

  01358	8b 85 c0 fe ff
	ff		 mov	 eax, DWORD PTR $T10[ebp]
  0135e	8d 8d c8 fe ff
	ff		 lea	 ecx, DWORD PTR _TextFileLoader$[ebp]
  01364	0d 00 10 00 00	 or	 eax, 4096		; 00001000H
  01369	c7 45 fc 28 00
	00 00		 mov	 DWORD PTR __$EHRec$[ebp+8], 40 ; 00000028H
  01370	89 85 c0 fe ff
	ff		 mov	 DWORD PTR $T10[ebp], eax
  01376	89 85 b8 fe ff
	ff		 mov	 DWORD PTR $T5[ebp], eax
  0137c	8d 45 a8	 lea	 eax, DWORD PTR _strTargetSkin$33[ebp]
  0137f	50		 push	 eax
  01380	8d 45 d8	 lea	 eax, DWORD PTR $T48[ebp]
  01383	50		 push	 eax
  01384	e8 00 00 00 00	 call	 ?GetTokenString@CTextFileLoader@@QAEHABV?$basic_string@DU?$char_traits@D@std@@V?$allocator@D@2@@std@@PAV23@@Z ; CTextFileLoader::GetTokenString
  01389	c6 85 c7 fe ff
	ff 01		 mov	 BYTE PTR $T11[ebp], 1
  01390	85 c0		 test	 eax, eax
  01392	75 07		 jne	 SHORT $LN47@LoadRaceDa
$LN46@LoadRaceDa:
  01394	c6 85 c7 fe ff
	ff 00		 mov	 BYTE PTR $T11[ebp], 0
$LN47@LoadRaceDa:
  0139b	8b 85 c0 fe ff
	ff		 mov	 eax, DWORD PTR $T10[ebp]
  013a1	a9 00 10 00 00	 test	 eax, 4096		; 00001000H
  013a6	74 3a		 je	 SHORT $LN1486@LoadRaceDa
; File C:\Program Files (x86)\Microsoft Visual Studio\2019\Community\VC\Tools\MSVC\14.28.29333\include\xstring

; 4385 :         if (_Mypair._Myval2._Large_string_engaged()) {

  013a8	8b 4d ec	 mov	 ecx, DWORD PTR $T48[ebp+20]
; File D:\Metin2 Server Files\mainline\SRC_2014\Metin2Client\GameLib\RaceDataFile.cpp

; 163  : 					TextFileLoader.GetTokenString("sourceskin", &strSourceSkin) &&

  013ab	25 ff ef ff ff	 and	 eax, -4097		; ffffefffH
  013b0	89 85 c0 fe ff
	ff		 mov	 DWORD PTR $T10[ebp], eax
; File C:\Program Files (x86)\Microsoft Visual Studio\2019\Community\VC\Tools\MSVC\14.28.29333\include\xstring

; 4385 :         if (_Mypair._Myval2._Large_string_engaged()) {

  013b6	83 f9 10	 cmp	 ecx, 16			; 00000010H
  013b9	72 15		 jb	 SHORT $LN1485@LoadRaceDa

; 4386 :             const pointer _Ptr = _Mypair._Myval2._Bx._Ptr;
; 4387 :             auto& _Al          = _Getal();
; 4388 :             _Destroy_in_place(_Mypair._Myval2._Bx._Ptr);
; 4389 :             _Al.deallocate(_Ptr, _Mypair._Myval2._Myres + 1);

  013bb	8d 41 01	 lea	 eax, DWORD PTR [ecx+1]
; File C:\Program Files (x86)\Microsoft Visual Studio\2019\Community\VC\Tools\MSVC\14.28.29333\include\xmemory

; 810  :         _Deallocate<_New_alignof<_Ty>>(_Ptr, sizeof(_Ty) * _Count);

  013be	50		 push	 eax
  013bf	ff 75 d8	 push	 DWORD PTR $T48[ebp]
  013c2	e8 00 00 00 00	 call	 ??$_Deallocate@$07$0A@@std@@YAXPAXI@Z ; std::_Deallocate<8,0>
  013c7	8b 85 c0 fe ff
	ff		 mov	 eax, DWORD PTR $T10[ebp]
  013cd	83 c4 08	 add	 esp, 8
$LN1485@LoadRaceDa:
; File C:\Program Files (x86)\Microsoft Visual Studio\2019\Community\VC\Tools\MSVC\14.28.29333\include\xstring

; 4392 :         _Mypair._Myval2._Mysize = 0;

  013d0	c7 45 e8 00 00
	00 00		 mov	 DWORD PTR $T48[ebp+16], 0

; 4393 :         _Mypair._Myval2._Myres  = _BUF_SIZE - 1;

  013d7	c7 45 ec 0f 00
	00 00		 mov	 DWORD PTR $T48[ebp+20], 15 ; 0000000fH

; 4394 :         // the _Traits::assign is last so the codegen doesn't think the char write can alias this
; 4395 :         _Traits::assign(_Mypair._Myval2._Bx._Buf[0], _Elem());

  013de	c6 45 d8 00	 mov	 BYTE PTR $T48[ebp], 0
$LN1486@LoadRaceDa:
; File D:\Metin2 Server Files\mainline\SRC_2014\Metin2Client\GameLib\RaceDataFile.cpp

; 163  : 					TextFileLoader.GetTokenString("sourceskin", &strSourceSkin) &&

  013e2	a9 00 08 00 00	 test	 eax, 2048		; 00000800H
  013e7	74 49		 je	 SHORT $LN1496@LoadRaceDa
; File C:\Program Files (x86)\Microsoft Visual Studio\2019\Community\VC\Tools\MSVC\14.28.29333\include\xstring

; 4385 :         if (_Mypair._Myval2._Large_string_engaged()) {

  013e9	8b 8d 74 ff ff
	ff		 mov	 ecx, DWORD PTR $T27[ebp+20]
; File D:\Metin2 Server Files\mainline\SRC_2014\Metin2Client\GameLib\RaceDataFile.cpp

; 163  : 					TextFileLoader.GetTokenString("sourceskin", &strSourceSkin) &&

  013ef	25 ff f7 ff ff	 and	 eax, -2049		; fffff7ffH
  013f4	89 85 c0 fe ff
	ff		 mov	 DWORD PTR $T10[ebp], eax
; File C:\Program Files (x86)\Microsoft Visual Studio\2019\Community\VC\Tools\MSVC\14.28.29333\include\xstring

; 4385 :         if (_Mypair._Myval2._Large_string_engaged()) {

  013fa	83 f9 10	 cmp	 ecx, 16			; 00000010H
  013fd	72 18		 jb	 SHORT $LN1495@LoadRaceDa

; 4386 :             const pointer _Ptr = _Mypair._Myval2._Bx._Ptr;
; 4387 :             auto& _Al          = _Getal();
; 4388 :             _Destroy_in_place(_Mypair._Myval2._Bx._Ptr);
; 4389 :             _Al.deallocate(_Ptr, _Mypair._Myval2._Myres + 1);

  013ff	8d 41 01	 lea	 eax, DWORD PTR [ecx+1]
; File C:\Program Files (x86)\Microsoft Visual Studio\2019\Community\VC\Tools\MSVC\14.28.29333\include\xmemory

; 810  :         _Deallocate<_New_alignof<_Ty>>(_Ptr, sizeof(_Ty) * _Count);

  01402	50		 push	 eax
  01403	ff b5 60 ff ff
	ff		 push	 DWORD PTR $T27[ebp]
  01409	e8 00 00 00 00	 call	 ??$_Deallocate@$07$0A@@std@@YAXPAXI@Z ; std::_Deallocate<8,0>
  0140e	8b 85 c0 fe ff
	ff		 mov	 eax, DWORD PTR $T10[ebp]
  01414	83 c4 08	 add	 esp, 8
$LN1495@LoadRaceDa:
; File C:\Program Files (x86)\Microsoft Visual Studio\2019\Community\VC\Tools\MSVC\14.28.29333\include\xstring

; 4392 :         _Mypair._Myval2._Mysize = 0;

  01417	c7 85 70 ff ff
	ff 00 00 00 00	 mov	 DWORD PTR $T27[ebp+16], 0

; 4393 :         _Mypair._Myval2._Myres  = _BUF_SIZE - 1;

  01421	c7 85 74 ff ff
	ff 0f 00 00 00	 mov	 DWORD PTR $T27[ebp+20], 15 ; 0000000fH

; 4394 :         // the _Traits::assign is last so the codegen doesn't think the char write can alias this
; 4395 :         _Traits::assign(_Mypair._Myval2._Bx._Buf[0], _Elem());

  0142b	c6 85 60 ff ff
	ff 00		 mov	 BYTE PTR $T27[ebp], 0
$LN1496@LoadRaceDa:
; File D:\Metin2 Server Files\mainline\SRC_2014\Metin2Client\GameLib\RaceDataFile.cpp

; 163  : 					TextFileLoader.GetTokenString("sourceskin", &strSourceSkin) &&

  01432	c7 45 fc 25 00
	00 00		 mov	 DWORD PTR __$EHRec$[ebp+8], 37 ; 00000025H
  01439	a9 00 04 00 00	 test	 eax, 1024		; 00000400H
  0143e	74 20		 je	 SHORT $LN1505@LoadRaceDa
  01440	25 ff fb ff ff	 and	 eax, -1025		; fffffbffH
  01445	89 85 c0 fe ff
	ff		 mov	 DWORD PTR $T10[ebp], eax
; File C:\Program Files (x86)\Microsoft Visual Studio\2019\Community\VC\Tools\MSVC\14.28.29333\include\xstring

; 4385 :         if (_Mypair._Myval2._Large_string_engaged()) {

  0144b	8b 45 d4	 mov	 eax, DWORD PTR $T37[ebp+20]
  0144e	83 f8 10	 cmp	 eax, 16			; 00000010H
  01451	72 0d		 jb	 SHORT $LN1505@LoadRaceDa

; 4386 :             const pointer _Ptr = _Mypair._Myval2._Bx._Ptr;
; 4387 :             auto& _Al          = _Getal();
; 4388 :             _Destroy_in_place(_Mypair._Myval2._Bx._Ptr);
; 4389 :             _Al.deallocate(_Ptr, _Mypair._Myval2._Myres + 1);

  01453	40		 inc	 eax
; File C:\Program Files (x86)\Microsoft Visual Studio\2019\Community\VC\Tools\MSVC\14.28.29333\include\xmemory

; 810  :         _Deallocate<_New_alignof<_Ty>>(_Ptr, sizeof(_Ty) * _Count);

  01454	50		 push	 eax
  01455	ff 75 c0	 push	 DWORD PTR $T37[ebp]
  01458	e8 00 00 00 00	 call	 ??$_Deallocate@$07$0A@@std@@YAXPAXI@Z ; std::_Deallocate<8,0>
  0145d	83 c4 08	 add	 esp, 8
$LN1505@LoadRaceDa:
; File D:\Metin2 Server Files\mainline\SRC_2014\Metin2Client\GameLib\RaceDataFile.cpp

; 163  : 					TextFileLoader.GetTokenString("sourceskin", &strSourceSkin) &&

  01460	80 bd c7 fe ff
	ff 00		 cmp	 BYTE PTR $T11[ebp], 0
  01467	0f 84 f0 00 00
	00		 je	 $LN1556@LoadRaceDa

; 166  : 					SetHairSkin(dwShapeIndex, 0, (strPathName + strModel).c_str(), (strPathName + strSourceSkin).c_str(), (strPathName + strTargetSkin).c_str());

  0146d	8d 45 a8	 lea	 eax, DWORD PTR _strTargetSkin$33[ebp]
  01470	50		 push	 eax
  01471	8d 45 90	 lea	 eax, DWORD PTR _strPathName$31[ebp]
  01474	50		 push	 eax
  01475	8d 85 60 ff ff
	ff		 lea	 eax, DWORD PTR $T26[ebp]
  0147b	50		 push	 eax
  0147c	e8 00 00 00 00	 call	 ??$?HDU?$char_traits@D@std@@V?$allocator@D@1@@std@@YA?AV?$basic_string@DU?$char_traits@D@std@@V?$allocator@D@2@@0@ABV10@0@Z ; std::operator+<char,std::char_traits<char>,std::allocator<char> >
  01481	8b f8		 mov	 edi, eax
  01483	8d 85 78 ff ff
	ff		 lea	 eax, DWORD PTR _strSourceSkin$29[ebp]
  01489	c6 45 fc 29	 mov	 BYTE PTR __$EHRec$[ebp+8], 41 ; 00000029H
  0148d	50		 push	 eax
  0148e	8d 45 90	 lea	 eax, DWORD PTR _strPathName$31[ebp]
  01491	50		 push	 eax
  01492	8d 45 d8	 lea	 eax, DWORD PTR $T47[ebp]
  01495	50		 push	 eax
  01496	e8 00 00 00 00	 call	 ??$?HDU?$char_traits@D@std@@V?$allocator@D@1@@std@@YA?AV?$basic_string@DU?$char_traits@D@std@@V?$allocator@D@2@@0@ABV10@0@Z ; std::operator+<char,std::char_traits<char>,std::allocator<char> >
  0149b	8b f0		 mov	 esi, eax
  0149d	8d 85 48 ff ff
	ff		 lea	 eax, DWORD PTR _strModel$22[ebp]
  014a3	c6 45 fc 2a	 mov	 BYTE PTR __$EHRec$[ebp+8], 42 ; 0000002aH
  014a7	50		 push	 eax
  014a8	8d 45 90	 lea	 eax, DWORD PTR _strPathName$31[ebp]
  014ab	50		 push	 eax
  014ac	8d 45 c0	 lea	 eax, DWORD PTR $T36[ebp]
  014af	50		 push	 eax
  014b0	e8 00 00 00 00	 call	 ??$?HDU?$char_traits@D@std@@V?$allocator@D@1@@std@@YA?AV?$basic_string@DU?$char_traits@D@std@@V?$allocator@D@2@@0@ABV10@0@Z ; std::operator+<char,std::char_traits<char>,std::allocator<char> >
  014b5	83 c4 24	 add	 esp, 36			; 00000024H
; File C:\Program Files (x86)\Microsoft Visual Studio\2019\Community\VC\Tools\MSVC\14.28.29333\include\xstring

; 2219 :         if (_Large_string_engaged()) {

  014b8	83 7f 14 10	 cmp	 DWORD PTR [edi+20], 16	; 00000010H
; File D:\Metin2 Server Files\mainline\SRC_2014\Metin2Client\GameLib\RaceDataFile.cpp

; 166  : 					SetHairSkin(dwShapeIndex, 0, (strPathName + strModel).c_str(), (strPathName + strSourceSkin).c_str(), (strPathName + strTargetSkin).c_str());

  014bc	c6 45 fc 2b	 mov	 BYTE PTR __$EHRec$[ebp+8], 43 ; 0000002bH
; File C:\Program Files (x86)\Microsoft Visual Studio\2019\Community\VC\Tools\MSVC\14.28.29333\include\xstring

; 2219 :         if (_Large_string_engaged()) {

  014c0	72 02		 jb	 SHORT $LN1514@LoadRaceDa

; 2220 :             _Result = _Unfancy(_Bx._Ptr);

  014c2	8b 3f		 mov	 edi, DWORD PTR [edi]
$LN1514@LoadRaceDa:

; 2219 :         if (_Large_string_engaged()) {

  014c4	83 7e 14 10	 cmp	 DWORD PTR [esi+20], 16	; 00000010H
  014c8	72 02		 jb	 SHORT $LN1521@LoadRaceDa

; 2220 :             _Result = _Unfancy(_Bx._Ptr);

  014ca	8b 36		 mov	 esi, DWORD PTR [esi]
$LN1521@LoadRaceDa:

; 2219 :         if (_Large_string_engaged()) {

  014cc	83 78 14 10	 cmp	 DWORD PTR [eax+20], 16	; 00000010H
  014d0	72 02		 jb	 SHORT $LN1528@LoadRaceDa

; 2220 :             _Result = _Unfancy(_Bx._Ptr);

  014d2	8b 00		 mov	 eax, DWORD PTR [eax]
$LN1528@LoadRaceDa:
; File D:\Metin2 Server Files\mainline\SRC_2014\Metin2Client\GameLib\RaceDataFile.cpp

; 166  : 					SetHairSkin(dwShapeIndex, 0, (strPathName + strModel).c_str(), (strPathName + strSourceSkin).c_str(), (strPathName + strTargetSkin).c_str());

  014d4	8b 8d b0 fe ff
	ff		 mov	 ecx, DWORD PTR _this$GSCopy$1$[ebp]
  014da	57		 push	 edi
  014db	56		 push	 esi
  014dc	50		 push	 eax
  014dd	6a 00		 push	 0
  014df	ff b5 a4 fe ff
	ff		 push	 DWORD PTR _dwShapeIndex$2[ebp]
  014e5	e8 00 00 00 00	 call	 ?SetHairSkin@CRaceData@@QAEXIIPBD00@Z ; CRaceData::SetHairSkin
; File C:\Program Files (x86)\Microsoft Visual Studio\2019\Community\VC\Tools\MSVC\14.28.29333\include\xstring

; 4385 :         if (_Mypair._Myval2._Large_string_engaged()) {

  014ea	8b 45 d4	 mov	 eax, DWORD PTR $T36[ebp+20]
  014ed	83 f8 10	 cmp	 eax, 16			; 00000010H
  014f0	72 0d		 jb	 SHORT $LN1536@LoadRaceDa

; 4386 :             const pointer _Ptr = _Mypair._Myval2._Bx._Ptr;
; 4387 :             auto& _Al          = _Getal();
; 4388 :             _Destroy_in_place(_Mypair._Myval2._Bx._Ptr);
; 4389 :             _Al.deallocate(_Ptr, _Mypair._Myval2._Myres + 1);

  014f2	40		 inc	 eax
; File C:\Program Files (x86)\Microsoft Visual Studio\2019\Community\VC\Tools\MSVC\14.28.29333\include\xmemory

; 810  :         _Deallocate<_New_alignof<_Ty>>(_Ptr, sizeof(_Ty) * _Count);

  014f3	50		 push	 eax
  014f4	ff 75 c0	 push	 DWORD PTR $T36[ebp]
  014f7	e8 00 00 00 00	 call	 ??$_Deallocate@$07$0A@@std@@YAXPAXI@Z ; std::_Deallocate<8,0>
  014fc	83 c4 08	 add	 esp, 8
$LN1536@LoadRaceDa:
; File C:\Program Files (x86)\Microsoft Visual Studio\2019\Community\VC\Tools\MSVC\14.28.29333\include\xstring

; 4385 :         if (_Mypair._Myval2._Large_string_engaged()) {

  014ff	8b 45 ec	 mov	 eax, DWORD PTR $T47[ebp+20]

; 4392 :         _Mypair._Myval2._Mysize = 0;

  01502	c7 45 d0 00 00
	00 00		 mov	 DWORD PTR $T36[ebp+16], 0

; 4393 :         _Mypair._Myval2._Myres  = _BUF_SIZE - 1;

  01509	c7 45 d4 0f 00
	00 00		 mov	 DWORD PTR $T36[ebp+20], 15 ; 0000000fH

; 4394 :         // the _Traits::assign is last so the codegen doesn't think the char write can alias this
; 4395 :         _Traits::assign(_Mypair._Myval2._Bx._Buf[0], _Elem());

  01510	c6 45 c0 00	 mov	 BYTE PTR $T36[ebp], 0

; 4385 :         if (_Mypair._Myval2._Large_string_engaged()) {

  01514	83 f8 10	 cmp	 eax, 16			; 00000010H
  01517	72 0d		 jb	 SHORT $LN1546@LoadRaceDa

; 4386 :             const pointer _Ptr = _Mypair._Myval2._Bx._Ptr;
; 4387 :             auto& _Al          = _Getal();
; 4388 :             _Destroy_in_place(_Mypair._Myval2._Bx._Ptr);
; 4389 :             _Al.deallocate(_Ptr, _Mypair._Myval2._Myres + 1);

  01519	40		 inc	 eax
; File C:\Program Files (x86)\Microsoft Visual Studio\2019\Community\VC\Tools\MSVC\14.28.29333\include\xmemory

; 810  :         _Deallocate<_New_alignof<_Ty>>(_Ptr, sizeof(_Ty) * _Count);

  0151a	50		 push	 eax
  0151b	ff 75 d8	 push	 DWORD PTR $T47[ebp]
  0151e	e8 00 00 00 00	 call	 ??$_Deallocate@$07$0A@@std@@YAXPAXI@Z ; std::_Deallocate<8,0>
  01523	83 c4 08	 add	 esp, 8
$LN1546@LoadRaceDa:
; File C:\Program Files (x86)\Microsoft Visual Studio\2019\Community\VC\Tools\MSVC\14.28.29333\include\xstring

; 4385 :         if (_Mypair._Myval2._Large_string_engaged()) {

  01526	8b 85 74 ff ff
	ff		 mov	 eax, DWORD PTR $T26[ebp+20]

; 4392 :         _Mypair._Myval2._Mysize = 0;

  0152c	c7 45 e8 00 00
	00 00		 mov	 DWORD PTR $T47[ebp+16], 0

; 4393 :         _Mypair._Myval2._Myres  = _BUF_SIZE - 1;

  01533	c7 45 ec 0f 00
	00 00		 mov	 DWORD PTR $T47[ebp+20], 15 ; 0000000fH

; 4394 :         // the _Traits::assign is last so the codegen doesn't think the char write can alias this
; 4395 :         _Traits::assign(_Mypair._Myval2._Bx._Buf[0], _Elem());

  0153a	c6 45 d8 00	 mov	 BYTE PTR $T47[ebp], 0
; File D:\Metin2 Server Files\mainline\SRC_2014\Metin2Client\GameLib\RaceDataFile.cpp

; 166  : 					SetHairSkin(dwShapeIndex, 0, (strPathName + strModel).c_str(), (strPathName + strSourceSkin).c_str(), (strPathName + strTargetSkin).c_str());

  0153e	c6 45 fc 25	 mov	 BYTE PTR __$EHRec$[ebp+8], 37 ; 00000025H
; File C:\Program Files (x86)\Microsoft Visual Studio\2019\Community\VC\Tools\MSVC\14.28.29333\include\xstring

; 4385 :         if (_Mypair._Myval2._Large_string_engaged()) {

  01542	83 f8 10	 cmp	 eax, 16			; 00000010H
  01545	72 10		 jb	 SHORT $LN1647@LoadRaceDa

; 4386 :             const pointer _Ptr = _Mypair._Myval2._Bx._Ptr;
; 4387 :             auto& _Al          = _Getal();
; 4388 :             _Destroy_in_place(_Mypair._Myval2._Bx._Ptr);
; 4389 :             _Al.deallocate(_Ptr, _Mypair._Myval2._Myres + 1);

  01547	40		 inc	 eax
; File C:\Program Files (x86)\Microsoft Visual Studio\2019\Community\VC\Tools\MSVC\14.28.29333\include\xmemory

; 810  :         _Deallocate<_New_alignof<_Ty>>(_Ptr, sizeof(_Ty) * _Count);

  01548	50		 push	 eax
  01549	ff b5 60 ff ff
	ff		 push	 DWORD PTR $T26[ebp]
  0154f	e8 00 00 00 00	 call	 ??$_Deallocate@$07$0A@@std@@YAXPAXI@Z ; std::_Deallocate<8,0>
  01554	83 c4 08	 add	 esp, 8
$LN1647@LoadRaceDa:
; File D:\Metin2 Server Files\mainline\SRC_2014\Metin2Client\GameLib\RaceDataFile.cpp

; 169  : 				TextFileLoader.SetParentNode();

  01557	8b b5 bc fe ff
	ff		 mov	 esi, DWORD PTR _i$1$[ebp]
$LN1556@LoadRaceDa:
  0155d	8d 8d c8 fe ff
	ff		 lea	 ecx, DWORD PTR _TextFileLoader$[ebp]
  01563	e8 00 00 00 00	 call	 ?SetParentNode@CTextFileLoader@@QAEHXZ ; CTextFileLoader::SetParentNode
; File C:\Program Files (x86)\Microsoft Visual Studio\2019\Community\VC\Tools\MSVC\14.28.29333\include\xstring

; 4385 :         if (_Mypair._Myval2._Large_string_engaged()) {

  01568	8b 45 bc	 mov	 eax, DWORD PTR _strTargetSkin$33[ebp+20]
  0156b	83 f8 10	 cmp	 eax, 16			; 00000010H
  0156e	72 0d		 jb	 SHORT $LN1566@LoadRaceDa

; 4386 :             const pointer _Ptr = _Mypair._Myval2._Bx._Ptr;
; 4387 :             auto& _Al          = _Getal();
; 4388 :             _Destroy_in_place(_Mypair._Myval2._Bx._Ptr);
; 4389 :             _Al.deallocate(_Ptr, _Mypair._Myval2._Myres + 1);

  01570	40		 inc	 eax
; File C:\Program Files (x86)\Microsoft Visual Studio\2019\Community\VC\Tools\MSVC\14.28.29333\include\xmemory

; 810  :         _Deallocate<_New_alignof<_Ty>>(_Ptr, sizeof(_Ty) * _Count);

  01571	50		 push	 eax
  01572	ff 75 a8	 push	 DWORD PTR _strTargetSkin$33[ebp]
  01575	e8 00 00 00 00	 call	 ??$_Deallocate@$07$0A@@std@@YAXPAXI@Z ; std::_Deallocate<8,0>
  0157a	83 c4 08	 add	 esp, 8
$LN1566@LoadRaceDa:
; File C:\Program Files (x86)\Microsoft Visual Studio\2019\Community\VC\Tools\MSVC\14.28.29333\include\xstring

; 4385 :         if (_Mypair._Myval2._Large_string_engaged()) {

  0157d	8b 45 8c	 mov	 eax, DWORD PTR _strSourceSkin$29[ebp+20]

; 4392 :         _Mypair._Myval2._Mysize = 0;

  01580	c7 45 b8 00 00
	00 00		 mov	 DWORD PTR _strTargetSkin$33[ebp+16], 0

; 4393 :         _Mypair._Myval2._Myres  = _BUF_SIZE - 1;

  01587	c7 45 bc 0f 00
	00 00		 mov	 DWORD PTR _strTargetSkin$33[ebp+20], 15 ; 0000000fH

; 4394 :         // the _Traits::assign is last so the codegen doesn't think the char write can alias this
; 4395 :         _Traits::assign(_Mypair._Myval2._Bx._Buf[0], _Elem());

  0158e	c6 45 a8 00	 mov	 BYTE PTR _strTargetSkin$33[ebp], 0

; 4385 :         if (_Mypair._Myval2._Large_string_engaged()) {

  01592	83 f8 10	 cmp	 eax, 16			; 00000010H
  01595	72 10		 jb	 SHORT $LN1576@LoadRaceDa

; 4386 :             const pointer _Ptr = _Mypair._Myval2._Bx._Ptr;
; 4387 :             auto& _Al          = _Getal();
; 4388 :             _Destroy_in_place(_Mypair._Myval2._Bx._Ptr);
; 4389 :             _Al.deallocate(_Ptr, _Mypair._Myval2._Myres + 1);

  01597	40		 inc	 eax
; File C:\Program Files (x86)\Microsoft Visual Studio\2019\Community\VC\Tools\MSVC\14.28.29333\include\xmemory

; 810  :         _Deallocate<_New_alignof<_Ty>>(_Ptr, sizeof(_Ty) * _Count);

  01598	50		 push	 eax
  01599	ff b5 78 ff ff
	ff		 push	 DWORD PTR _strSourceSkin$29[ebp]
  0159f	e8 00 00 00 00	 call	 ??$_Deallocate@$07$0A@@std@@YAXPAXI@Z ; std::_Deallocate<8,0>
  015a4	83 c4 08	 add	 esp, 8
$LN1576@LoadRaceDa:
; File C:\Program Files (x86)\Microsoft Visual Studio\2019\Community\VC\Tools\MSVC\14.28.29333\include\xstring

; 4385 :         if (_Mypair._Myval2._Large_string_engaged()) {

  015a7	8b 85 5c ff ff
	ff		 mov	 eax, DWORD PTR _strModel$22[ebp+20]

; 4392 :         _Mypair._Myval2._Mysize = 0;

  015ad	c7 45 88 00 00
	00 00		 mov	 DWORD PTR _strSourceSkin$29[ebp+16], 0

; 4393 :         _Mypair._Myval2._Myres  = _BUF_SIZE - 1;

  015b4	c7 45 8c 0f 00
	00 00		 mov	 DWORD PTR _strSourceSkin$29[ebp+20], 15 ; 0000000fH

; 4394 :         // the _Traits::assign is last so the codegen doesn't think the char write can alias this
; 4395 :         _Traits::assign(_Mypair._Myval2._Bx._Buf[0], _Elem());

  015bb	c6 85 78 ff ff
	ff 00		 mov	 BYTE PTR _strSourceSkin$29[ebp], 0
; File D:\Metin2 Server Files\mainline\SRC_2014\Metin2Client\GameLib\RaceDataFile.cpp

; 170  : 			}

  015c2	c6 45 fc 1d	 mov	 BYTE PTR __$EHRec$[ebp+8], 29 ; 0000001dH
; File C:\Program Files (x86)\Microsoft Visual Studio\2019\Community\VC\Tools\MSVC\14.28.29333\include\xstring

; 4385 :         if (_Mypair._Myval2._Large_string_engaged()) {

  015c6	83 f8 10	 cmp	 eax, 16			; 00000010H
  015c9	72 10		 jb	 SHORT $LN8@LoadRaceDa

; 4386 :             const pointer _Ptr = _Mypair._Myval2._Bx._Ptr;
; 4387 :             auto& _Al          = _Getal();
; 4388 :             _Destroy_in_place(_Mypair._Myval2._Bx._Ptr);
; 4389 :             _Al.deallocate(_Ptr, _Mypair._Myval2._Myres + 1);

  015cb	40		 inc	 eax
; File C:\Program Files (x86)\Microsoft Visual Studio\2019\Community\VC\Tools\MSVC\14.28.29333\include\xmemory

; 810  :         _Deallocate<_New_alignof<_Ty>>(_Ptr, sizeof(_Ty) * _Count);

  015cc	50		 push	 eax
  015cd	ff b5 48 ff ff
	ff		 push	 DWORD PTR _strModel$22[ebp]
  015d3	e8 00 00 00 00	 call	 ??$_Deallocate@$07$0A@@std@@YAXPAXI@Z ; std::_Deallocate<8,0>
  015d8	83 c4 08	 add	 esp, 8
$LN8@LoadRaceDa:
; File D:\Metin2 Server Files\mainline\SRC_2014\Metin2Client\GameLib\RaceDataFile.cpp

; 141  : 			for (DWORD i = 0; i < dwHairDataCount; ++i)

  015db	46		 inc	 esi
  015dc	89 b5 bc fe ff
	ff		 mov	 DWORD PTR _i$1$[ebp], esi
  015e2	3b b5 b4 fe ff
	ff		 cmp	 esi, DWORD PTR _dwHairDataCount$3[ebp]
  015e8	0f 82 22 fb ff
	ff		 jb	 $LL10@LoadRaceDa
$LN9@LoadRaceDa:

; 171  : 		}
; 172  : 
; 173  : 		TextFileLoader.SetParentNode();

  015ee	8d 8d c8 fe ff
	ff		 lea	 ecx, DWORD PTR _TextFileLoader$[ebp]
  015f4	e8 00 00 00 00	 call	 ?SetParentNode@CTextFileLoader@@QAEHXZ ; CTextFileLoader::SetParentNode
; File C:\Program Files (x86)\Microsoft Visual Studio\2019\Community\VC\Tools\MSVC\14.28.29333\include\xstring

; 2227 :         return _BUF_SIZE <= _Myres;

  015f9	8b 45 a4	 mov	 eax, DWORD PTR _strPathName$31[ebp+20]
; File D:\Metin2 Server Files\mainline\SRC_2014\Metin2Client\GameLib\RaceDataFile.cpp

; 174  : 	}

  015fc	c6 45 fc 00	 mov	 BYTE PTR __$EHRec$[ebp+8], 0
; File C:\Program Files (x86)\Microsoft Visual Studio\2019\Community\VC\Tools\MSVC\14.28.29333\include\xstring

; 2227 :         return _BUF_SIZE <= _Myres;

  01600	83 f8 10	 cmp	 eax, 16			; 00000010H

; 4385 :         if (_Mypair._Myval2._Large_string_engaged()) {

  01603	72 0d		 jb	 SHORT $LN1596@LoadRaceDa

; 4386 :             const pointer _Ptr = _Mypair._Myval2._Bx._Ptr;
; 4387 :             auto& _Al          = _Getal();
; 4388 :             _Destroy_in_place(_Mypair._Myval2._Bx._Ptr);
; 4389 :             _Al.deallocate(_Ptr, _Mypair._Myval2._Myres + 1);

  01605	40		 inc	 eax
; File C:\Program Files (x86)\Microsoft Visual Studio\2019\Community\VC\Tools\MSVC\14.28.29333\include\xmemory

; 810  :         _Deallocate<_New_alignof<_Ty>>(_Ptr, sizeof(_Ty) * _Count);

  01606	50		 push	 eax
  01607	ff 75 90	 push	 DWORD PTR _strPathName$31[ebp]
  0160a	e8 00 00 00 00	 call	 ??$_Deallocate@$07$0A@@std@@YAXPAXI@Z ; std::_Deallocate<8,0>
  0160f	83 c4 08	 add	 esp, 8
$LN1596@LoadRaceDa:
; File D:\Metin2 Server Files\mainline\SRC_2014\Metin2Client\GameLib\RaceDataFile.cpp

; 177  : 	if (TextFileLoader.SetChildNode("attachingdata"))

  01612	68 00 00 00 00	 push	 OFFSET ??_C@_0O@OPEMPJIC@attachingdata@
  01617	8d 8d c8 fe ff
	ff		 lea	 ecx, DWORD PTR _TextFileLoader$[ebp]
  0161d	e8 00 00 00 00	 call	 ?SetChildNode@CTextFileLoader@@QAEHPBD@Z ; CTextFileLoader::SetChildNode
  01622	85 c0		 test	 eax, eax
  01624	74 2e		 je	 SHORT $LN33@LoadRaceDa

; 178  : 	{
; 179  : 		if (!NRaceData::LoadAttachingData(TextFileLoader, &m_AttachingDataVector))

  01626	8b 85 b0 fe ff
	ff		 mov	 eax, DWORD PTR _this$GSCopy$1$[ebp]
  0162c	05 d0 00 00 00	 add	 eax, 208		; 000000d0H
  01631	50		 push	 eax
  01632	8d 85 c8 fe ff
	ff		 lea	 eax, DWORD PTR _TextFileLoader$[ebp]
  01638	50		 push	 eax
  01639	e8 00 00 00 00	 call	 ?LoadAttachingData@NRaceData@@YAHAAVCTextFileLoader@@PAV?$vector@USAttachingData@NRaceData@@V?$allocator@USAttachingData@NRaceData@@@std@@@std@@@Z ; NRaceData::LoadAttachingData
  0163e	83 c4 08	 add	 esp, 8
  01641	85 c0		 test	 eax, eax
  01643	0f 84 b3 ed ff
	ff		 je	 $LN121@LoadRaceDa

; 180  : 			return FALSE;
; 181  : 
; 182  : 		TextFileLoader.SetParentNode();

  01649	8d 8d c8 fe ff
	ff		 lea	 ecx, DWORD PTR _TextFileLoader$[ebp]
  0164f	e8 00 00 00 00	 call	 ?SetParentNode@CTextFileLoader@@QAEHXZ ; CTextFileLoader::SetParentNode
$LN33@LoadRaceDa:

; 183  : 	}
; 184  : 
; 185  : 	return TRUE;

  01654	be 01 00 00 00	 mov	 esi, 1
  01659	e9 a0 ed ff ff	 jmp	 $LN122@LoadRaceDa
$LN1606@LoadRaceDa:
; File C:\Program Files (x86)\Microsoft Visual Studio\2019\Community\VC\Tools\MSVC\14.28.29333\include\xstring

; 2238 :             _Xran();

  0165e	e8 00 00 00 00	 call	 ?_Xran@?$_String_val@U?$_Simple_types@D@std@@@std@@SAXXZ ; std::_String_val<std::_Simple_types<char> >::_Xran
$LN1612@LoadRaceDa:
; File C:\Program Files (x86)\Microsoft Visual Studio\2019\Community\VC\Tools\MSVC\14.28.29333\include\vector

; 1520 :             _Xrange();

  01663	e8 00 00 00 00	 call	 ?_Xrange@?$vector@V?$basic_string@DU?$char_traits@D@std@@V?$allocator@D@2@@std@@V?$allocator@V?$basic_string@DU?$char_traits@D@std@@V?$allocator@D@2@@std@@@2@@std@@CAXXZ ; std::vector<std::basic_string<char,std::char_traits<char>,std::allocator<char> >,std::allocator<std::basic_string<char,std::char_traits<char>,std::allocator<char> > > >::_Xrange
$LN1649@LoadRaceDa:
  01668	cc		 int	 3
_TEXT	ENDS
;	COMDAT text$x
text$x	SEGMENT
__unwindfunclet$?LoadRaceData@CRaceData@@QAEHPBD@Z$0:
  00000	8d 8d c8 fe ff
	ff		 lea	 ecx, DWORD PTR _TextFileLoader$[ebp]
  00006	e9 00 00 00 00	 jmp	 ??1CTextFileLoader@@UAE@XZ ; CTextFileLoader::~CTextFileLoader
__unwindfunclet$?LoadRaceData@CRaceData@@QAEHPBD@Z$1:
  0000b	8d 4d d8	 lea	 ecx, DWORD PTR $T64[ebp]
  0000e	e9 00 00 00 00	 jmp	 ??1?$basic_string@DU?$char_traits@D@std@@V?$allocator@D@2@@std@@QAE@XZ ; std::basic_string<char,std::char_traits<char>,std::allocator<char> >::~basic_string<char,std::char_traits<char>,std::allocator<char> >
__unwindfunclet$?LoadRaceData@CRaceData@@QAEHPBD@Z$2:
  00013	8d 4d d8	 lea	 ecx, DWORD PTR $T63[ebp]
  00016	e9 00 00 00 00	 jmp	 ??1?$basic_string@DU?$char_traits@D@std@@V?$allocator@D@2@@std@@QAE@XZ ; std::basic_string<char,std::char_traits<char>,std::allocator<char> >::~basic_string<char,std::char_traits<char>,std::allocator<char> >
__unwindfunclet$?LoadRaceData@CRaceData@@QAEHPBD@Z$3:
  0001b	8d 4d d8	 lea	 ecx, DWORD PTR $T62[ebp]
  0001e	e9 00 00 00 00	 jmp	 ??1?$basic_string@DU?$char_traits@D@std@@V?$allocator@D@2@@std@@QAE@XZ ; std::basic_string<char,std::char_traits<char>,std::allocator<char> >::~basic_string<char,std::char_traits<char>,std::allocator<char> >
__unwindfunclet$?LoadRaceData@CRaceData@@QAEHPBD@Z$4:
  00023	8d 4d d8	 lea	 ecx, DWORD PTR $T61[ebp]
  00026	e9 00 00 00 00	 jmp	 ??1?$basic_string@DU?$char_traits@D@std@@V?$allocator@D@2@@std@@QAE@XZ ; std::basic_string<char,std::char_traits<char>,std::allocator<char> >::~basic_string<char,std::char_traits<char>,std::allocator<char> >
__unwindfunclet$?LoadRaceData@CRaceData@@QAEHPBD@Z$5:
  0002b	8d 4d d8	 lea	 ecx, DWORD PTR $T60[ebp]
  0002e	e9 00 00 00 00	 jmp	 ??1?$basic_string@DU?$char_traits@D@std@@V?$allocator@D@2@@std@@QAE@XZ ; std::basic_string<char,std::char_traits<char>,std::allocator<char> >::~basic_string<char,std::char_traits<char>,std::allocator<char> >
__unwindfunclet$?LoadRaceData@CRaceData@@QAEHPBD@Z$6:
  00033	8d 4d d8	 lea	 ecx, DWORD PTR $T59[ebp]
  00036	e9 00 00 00 00	 jmp	 ??1?$basic_string@DU?$char_traits@D@std@@V?$allocator@D@2@@std@@QAE@XZ ; std::basic_string<char,std::char_traits<char>,std::allocator<char> >::~basic_string<char,std::char_traits<char>,std::allocator<char> >
__unwindfunclet$?LoadRaceData@CRaceData@@QAEHPBD@Z$7:
  0003b	8d 8d 60 ff ff
	ff		 lea	 ecx, DWORD PTR _strPathName$28[ebp]
  00041	e9 00 00 00 00	 jmp	 ??1?$basic_string@DU?$char_traits@D@std@@V?$allocator@D@2@@std@@QAE@XZ ; std::basic_string<char,std::char_traits<char>,std::allocator<char> >::~basic_string<char,std::char_traits<char>,std::allocator<char> >
__unwindfunclet$?LoadRaceData@CRaceData@@QAEHPBD@Z$8:
  00046	8b 85 b8 fe ff
	ff		 mov	 eax, DWORD PTR $T5[ebp]
  0004c	83 e0 01	 and	 eax, 1
  0004f	0f 84 0f 00 00
	00		 je	 $LN57@LoadRaceDa
  00055	83 a5 b8 fe ff
	ff fe		 and	 DWORD PTR $T5[ebp], -2	; fffffffeH
  0005c	8d 4d d8	 lea	 ecx, DWORD PTR $T58[ebp]
  0005f	e9 00 00 00 00	 jmp	 ??1?$basic_string@DU?$char_traits@D@std@@V?$allocator@D@2@@std@@QAE@XZ ; std::basic_string<char,std::char_traits<char>,std::allocator<char> >::~basic_string<char,std::char_traits<char>,std::allocator<char> >
$LN57@LoadRaceDa:
  00064	c3		 ret	 0
__unwindfunclet$?LoadRaceData@CRaceData@@QAEHPBD@Z$9:
  00065	8b 85 b8 fe ff
	ff		 mov	 eax, DWORD PTR $T5[ebp]
  0006b	83 e0 02	 and	 eax, 2
  0006e	0f 84 0f 00 00
	00		 je	 $LN59@LoadRaceDa
  00074	83 a5 b8 fe ff
	ff fd		 and	 DWORD PTR $T5[ebp], -3	; fffffffdH
  0007b	8d 4d a8	 lea	 ecx, DWORD PTR $T35[ebp]
  0007e	e9 00 00 00 00	 jmp	 ??1?$basic_string@DU?$char_traits@D@std@@V?$allocator@D@2@@std@@QAE@XZ ; std::basic_string<char,std::char_traits<char>,std::allocator<char> >::~basic_string<char,std::char_traits<char>,std::allocator<char> >
$LN59@LoadRaceDa:
  00083	c3		 ret	 0
__unwindfunclet$?LoadRaceData@CRaceData@@QAEHPBD@Z$10:
  00084	8d 4d d8	 lea	 ecx, DWORD PTR $T57[ebp]
  00087	e9 00 00 00 00	 jmp	 ??1?$basic_string@DU?$char_traits@D@std@@V?$allocator@D@2@@std@@QAE@XZ ; std::basic_string<char,std::char_traits<char>,std::allocator<char> >::~basic_string<char,std::char_traits<char>,std::allocator<char> >
__unwindfunclet$?LoadRaceData@CRaceData@@QAEHPBD@Z$11:
  0008c	8d 4d d8	 lea	 ecx, DWORD PTR $T56[ebp]
  0008f	e9 00 00 00 00	 jmp	 ??1?$basic_string@DU?$char_traits@D@std@@V?$allocator@D@2@@std@@QAE@XZ ; std::basic_string<char,std::char_traits<char>,std::allocator<char> >::~basic_string<char,std::char_traits<char>,std::allocator<char> >
__unwindfunclet$?LoadRaceData@CRaceData@@QAEHPBD@Z$12:
  00094	8d 4d d8	 lea	 ecx, DWORD PTR $T55[ebp]
  00097	e9 00 00 00 00	 jmp	 ??1?$basic_string@DU?$char_traits@D@std@@V?$allocator@D@2@@std@@QAE@XZ ; std::basic_string<char,std::char_traits<char>,std::allocator<char> >::~basic_string<char,std::char_traits<char>,std::allocator<char> >
__unwindfunclet$?LoadRaceData@CRaceData@@QAEHPBD@Z$13:
  0009c	8d 4d a8	 lea	 ecx, DWORD PTR _strModel$34[ebp]
  0009f	e9 00 00 00 00	 jmp	 ??1?$basic_string@DU?$char_traits@D@std@@V?$allocator@D@2@@std@@QAE@XZ ; std::basic_string<char,std::char_traits<char>,std::allocator<char> >::~basic_string<char,std::char_traits<char>,std::allocator<char> >
__unwindfunclet$?LoadRaceData@CRaceData@@QAEHPBD@Z$14:
  000a4	8d 4d d8	 lea	 ecx, DWORD PTR $T54[ebp]
  000a7	e9 00 00 00 00	 jmp	 ??1?$basic_string@DU?$char_traits@D@std@@V?$allocator@D@2@@std@@QAE@XZ ; std::basic_string<char,std::char_traits<char>,std::allocator<char> >::~basic_string<char,std::char_traits<char>,std::allocator<char> >
__unwindfunclet$?LoadRaceData@CRaceData@@QAEHPBD@Z$15:
  000ac	8d 8d 48 ff ff
	ff		 lea	 ecx, DWORD PTR $T25[ebp]
  000b2	e9 00 00 00 00	 jmp	 ??1?$basic_string@DU?$char_traits@D@std@@V?$allocator@D@2@@std@@QAE@XZ ; std::basic_string<char,std::char_traits<char>,std::allocator<char> >::~basic_string<char,std::char_traits<char>,std::allocator<char> >
__unwindfunclet$?LoadRaceData@CRaceData@@QAEHPBD@Z$16:
  000b7	8d 4d d8	 lea	 ecx, DWORD PTR $T53[ebp]
  000ba	e9 00 00 00 00	 jmp	 ??1?$basic_string@DU?$char_traits@D@std@@V?$allocator@D@2@@std@@QAE@XZ ; std::basic_string<char,std::char_traits<char>,std::allocator<char> >::~basic_string<char,std::char_traits<char>,std::allocator<char> >
__unwindfunclet$?LoadRaceData@CRaceData@@QAEHPBD@Z$17:
  000bf	8d 8d 78 ff ff
	ff		 lea	 ecx, DWORD PTR _strSourceSkin$30[ebp]
  000c5	e9 00 00 00 00	 jmp	 ??1?$basic_string@DU?$char_traits@D@std@@V?$allocator@D@2@@std@@QAE@XZ ; std::basic_string<char,std::char_traits<char>,std::allocator<char> >::~basic_string<char,std::char_traits<char>,std::allocator<char> >
__unwindfunclet$?LoadRaceData@CRaceData@@QAEHPBD@Z$18:
  000ca	8d 4d 90	 lea	 ecx, DWORD PTR _strTargetSkin$32[ebp]
  000cd	e9 00 00 00 00	 jmp	 ??1?$basic_string@DU?$char_traits@D@std@@V?$allocator@D@2@@std@@QAE@XZ ; std::basic_string<char,std::char_traits<char>,std::allocator<char> >::~basic_string<char,std::char_traits<char>,std::allocator<char> >
__unwindfunclet$?LoadRaceData@CRaceData@@QAEHPBD@Z$19:
  000d2	8b 85 b8 fe ff
	ff		 mov	 eax, DWORD PTR $T5[ebp]
  000d8	83 e0 04	 and	 eax, 4
  000db	0f 84 0f 00 00
	00		 je	 $LN72@LoadRaceDa
  000e1	83 a5 b8 fe ff
	ff fb		 and	 DWORD PTR $T5[ebp], -5	; fffffffbH
  000e8	8d 4d c0	 lea	 ecx, DWORD PTR $T46[ebp]
  000eb	e9 00 00 00 00	 jmp	 ??1?$basic_string@DU?$char_traits@D@std@@V?$allocator@D@2@@std@@QAE@XZ ; std::basic_string<char,std::char_traits<char>,std::allocator<char> >::~basic_string<char,std::char_traits<char>,std::allocator<char> >
$LN72@LoadRaceDa:
  000f0	c3		 ret	 0
__unwindfunclet$?LoadRaceData@CRaceData@@QAEHPBD@Z$20:
  000f1	8b 85 b8 fe ff
	ff		 mov	 eax, DWORD PTR $T5[ebp]
  000f7	83 e0 08	 and	 eax, 8
  000fa	0f 84 0f 00 00
	00		 je	 $LN74@LoadRaceDa
  00100	83 a5 b8 fe ff
	ff f7		 and	 DWORD PTR $T5[ebp], -9	; fffffff7H
  00107	8d 4d d8	 lea	 ecx, DWORD PTR $T52[ebp]
  0010a	e9 00 00 00 00	 jmp	 ??1?$basic_string@DU?$char_traits@D@std@@V?$allocator@D@2@@std@@QAE@XZ ; std::basic_string<char,std::char_traits<char>,std::allocator<char> >::~basic_string<char,std::char_traits<char>,std::allocator<char> >
$LN74@LoadRaceDa:
  0010f	c3		 ret	 0
__unwindfunclet$?LoadRaceData@CRaceData@@QAEHPBD@Z$21:
  00110	8b 85 b8 fe ff
	ff		 mov	 eax, DWORD PTR $T5[ebp]
  00116	83 e0 10	 and	 eax, 16			; 00000010H
  00119	0f 84 0f 00 00
	00		 je	 $LN78@LoadRaceDa
  0011f	83 a5 b8 fe ff
	ff ef		 and	 DWORD PTR $T5[ebp], -17	; ffffffefH
  00126	8d 4d c0	 lea	 ecx, DWORD PTR $T45[ebp]
  00129	e9 00 00 00 00	 jmp	 ??1?$basic_string@DU?$char_traits@D@std@@V?$allocator@D@2@@std@@QAE@XZ ; std::basic_string<char,std::char_traits<char>,std::allocator<char> >::~basic_string<char,std::char_traits<char>,std::allocator<char> >
$LN78@LoadRaceDa:
  0012e	c3		 ret	 0
__unwindfunclet$?LoadRaceData@CRaceData@@QAEHPBD@Z$22:
  0012f	8b 85 b8 fe ff
	ff		 mov	 eax, DWORD PTR $T5[ebp]
  00135	83 e0 20	 and	 eax, 32			; 00000020H
  00138	0f 84 0f 00 00
	00		 je	 $LN80@LoadRaceDa
  0013e	83 a5 b8 fe ff
	ff df		 and	 DWORD PTR $T5[ebp], -33	; ffffffdfH
  00145	8d 4d d8	 lea	 ecx, DWORD PTR $T51[ebp]
  00148	e9 00 00 00 00	 jmp	 ??1?$basic_string@DU?$char_traits@D@std@@V?$allocator@D@2@@std@@QAE@XZ ; std::basic_string<char,std::char_traits<char>,std::allocator<char> >::~basic_string<char,std::char_traits<char>,std::allocator<char> >
$LN80@LoadRaceDa:
  0014d	c3		 ret	 0
__unwindfunclet$?LoadRaceData@CRaceData@@QAEHPBD@Z$23:
  0014e	8d 4d c0	 lea	 ecx, DWORD PTR $T44[ebp]
  00151	e9 00 00 00 00	 jmp	 ??1?$basic_string@DU?$char_traits@D@std@@V?$allocator@D@2@@std@@QAE@XZ ; std::basic_string<char,std::char_traits<char>,std::allocator<char> >::~basic_string<char,std::char_traits<char>,std::allocator<char> >
__unwindfunclet$?LoadRaceData@CRaceData@@QAEHPBD@Z$24:
  00156	8d 8d 48 ff ff
	ff		 lea	 ecx, DWORD PTR $T24[ebp]
  0015c	e9 00 00 00 00	 jmp	 ??1?$basic_string@DU?$char_traits@D@std@@V?$allocator@D@2@@std@@QAE@XZ ; std::basic_string<char,std::char_traits<char>,std::allocator<char> >::~basic_string<char,std::char_traits<char>,std::allocator<char> >
__unwindfunclet$?LoadRaceData@CRaceData@@QAEHPBD@Z$25:
  00161	8b 85 b8 fe ff
	ff		 mov	 eax, DWORD PTR $T5[ebp]
  00167	83 e0 40	 and	 eax, 64			; 00000040H
  0016a	0f 84 0f 00 00
	00		 je	 $LN86@LoadRaceDa
  00170	83 a5 b8 fe ff
	ff bf		 and	 DWORD PTR $T5[ebp], -65	; ffffffbfH
  00177	8d 4d c0	 lea	 ecx, DWORD PTR $T43[ebp]
  0017a	e9 00 00 00 00	 jmp	 ??1?$basic_string@DU?$char_traits@D@std@@V?$allocator@D@2@@std@@QAE@XZ ; std::basic_string<char,std::char_traits<char>,std::allocator<char> >::~basic_string<char,std::char_traits<char>,std::allocator<char> >
$LN86@LoadRaceDa:
  0017f	c3		 ret	 0
__unwindfunclet$?LoadRaceData@CRaceData@@QAEHPBD@Z$26:
  00180	8b 85 b8 fe ff
	ff		 mov	 eax, DWORD PTR $T5[ebp]
  00186	25 80 00 00 00	 and	 eax, 128		; 00000080H
  0018b	0f 84 12 00 00
	00		 je	 $LN88@LoadRaceDa
  00191	81 a5 b8 fe ff
	ff 7f ff ff ff	 and	 DWORD PTR $T5[ebp], -129 ; ffffff7fH
  0019b	8d 4d d8	 lea	 ecx, DWORD PTR $T50[ebp]
  0019e	e9 00 00 00 00	 jmp	 ??1?$basic_string@DU?$char_traits@D@std@@V?$allocator@D@2@@std@@QAE@XZ ; std::basic_string<char,std::char_traits<char>,std::allocator<char> >::~basic_string<char,std::char_traits<char>,std::allocator<char> >
$LN88@LoadRaceDa:
  001a3	c3		 ret	 0
__unwindfunclet$?LoadRaceData@CRaceData@@QAEHPBD@Z$27:
  001a4	8d 4d c0	 lea	 ecx, DWORD PTR $T42[ebp]
  001a7	e9 00 00 00 00	 jmp	 ??1?$basic_string@DU?$char_traits@D@std@@V?$allocator@D@2@@std@@QAE@XZ ; std::basic_string<char,std::char_traits<char>,std::allocator<char> >::~basic_string<char,std::char_traits<char>,std::allocator<char> >
__unwindfunclet$?LoadRaceData@CRaceData@@QAEHPBD@Z$28:
  001ac	8d 8d 48 ff ff
	ff		 lea	 ecx, DWORD PTR $T23[ebp]
  001b2	e9 00 00 00 00	 jmp	 ??1?$basic_string@DU?$char_traits@D@std@@V?$allocator@D@2@@std@@QAE@XZ ; std::basic_string<char,std::char_traits<char>,std::allocator<char> >::~basic_string<char,std::char_traits<char>,std::allocator<char> >
__unwindfunclet$?LoadRaceData@CRaceData@@QAEHPBD@Z$29:
  001b7	8d 4d 90	 lea	 ecx, DWORD PTR _strPathName$31[ebp]
  001ba	e9 00 00 00 00	 jmp	 ??1?$basic_string@DU?$char_traits@D@std@@V?$allocator@D@2@@std@@QAE@XZ ; std::basic_string<char,std::char_traits<char>,std::allocator<char> >::~basic_string<char,std::char_traits<char>,std::allocator<char> >
__unwindfunclet$?LoadRaceData@CRaceData@@QAEHPBD@Z$30:
  001bf	8b 85 b8 fe ff
	ff		 mov	 eax, DWORD PTR $T5[ebp]
  001c5	25 00 01 00 00	 and	 eax, 256		; 00000100H
  001ca	0f 84 12 00 00
	00		 je	 $LN95@LoadRaceDa
  001d0	81 a5 b8 fe ff
	ff ff fe ff ff	 and	 DWORD PTR $T5[ebp], -257 ; fffffeffH
  001da	8d 4d c0	 lea	 ecx, DWORD PTR $T41[ebp]
  001dd	e9 00 00 00 00	 jmp	 ??1?$basic_string@DU?$char_traits@D@std@@V?$allocator@D@2@@std@@QAE@XZ ; std::basic_string<char,std::char_traits<char>,std::allocator<char> >::~basic_string<char,std::char_traits<char>,std::allocator<char> >
$LN95@LoadRaceDa:
  001e2	c3		 ret	 0
__unwindfunclet$?LoadRaceData@CRaceData@@QAEHPBD@Z$31:
  001e3	8b 85 b8 fe ff
	ff		 mov	 eax, DWORD PTR $T5[ebp]
  001e9	25 00 02 00 00	 and	 eax, 512		; 00000200H
  001ee	0f 84 12 00 00
	00		 je	 $LN97@LoadRaceDa
  001f4	81 a5 b8 fe ff
	ff ff fd ff ff	 and	 DWORD PTR $T5[ebp], -513 ; fffffdffH
  001fe	8d 4d d8	 lea	 ecx, DWORD PTR $T49[ebp]
  00201	e9 00 00 00 00	 jmp	 ??1?$basic_string@DU?$char_traits@D@std@@V?$allocator@D@2@@std@@QAE@XZ ; std::basic_string<char,std::char_traits<char>,std::allocator<char> >::~basic_string<char,std::char_traits<char>,std::allocator<char> >
$LN97@LoadRaceDa:
  00206	c3		 ret	 0
__unwindfunclet$?LoadRaceData@CRaceData@@QAEHPBD@Z$32:
  00207	8d 4d c0	 lea	 ecx, DWORD PTR $T40[ebp]
  0020a	e9 00 00 00 00	 jmp	 ??1?$basic_string@DU?$char_traits@D@std@@V?$allocator@D@2@@std@@QAE@XZ ; std::basic_string<char,std::char_traits<char>,std::allocator<char> >::~basic_string<char,std::char_traits<char>,std::allocator<char> >
__unwindfunclet$?LoadRaceData@CRaceData@@QAEHPBD@Z$33:
  0020f	8d 4d c0	 lea	 ecx, DWORD PTR $T39[ebp]
  00212	e9 00 00 00 00	 jmp	 ??1?$basic_string@DU?$char_traits@D@std@@V?$allocator@D@2@@std@@QAE@XZ ; std::basic_string<char,std::char_traits<char>,std::allocator<char> >::~basic_string<char,std::char_traits<char>,std::allocator<char> >
__unwindfunclet$?LoadRaceData@CRaceData@@QAEHPBD@Z$34:
  00217	8d 4d c0	 lea	 ecx, DWORD PTR $T38[ebp]
  0021a	e9 00 00 00 00	 jmp	 ??1?$basic_string@DU?$char_traits@D@std@@V?$allocator@D@2@@std@@QAE@XZ ; std::basic_string<char,std::char_traits<char>,std::allocator<char> >::~basic_string<char,std::char_traits<char>,std::allocator<char> >
__unwindfunclet$?LoadRaceData@CRaceData@@QAEHPBD@Z$35:
  0021f	8d 8d 48 ff ff
	ff		 lea	 ecx, DWORD PTR _strModel$22[ebp]
  00225	e9 00 00 00 00	 jmp	 ??1?$basic_string@DU?$char_traits@D@std@@V?$allocator@D@2@@std@@QAE@XZ ; std::basic_string<char,std::char_traits<char>,std::allocator<char> >::~basic_string<char,std::char_traits<char>,std::allocator<char> >
__unwindfunclet$?LoadRaceData@CRaceData@@QAEHPBD@Z$36:
  0022a	8d 8d 78 ff ff
	ff		 lea	 ecx, DWORD PTR _strSourceSkin$29[ebp]
  00230	e9 00 00 00 00	 jmp	 ??1?$basic_string@DU?$char_traits@D@std@@V?$allocator@D@2@@std@@QAE@XZ ; std::basic_string<char,std::char_traits<char>,std::allocator<char> >::~basic_string<char,std::char_traits<char>,std::allocator<char> >
__unwindfunclet$?LoadRaceData@CRaceData@@QAEHPBD@Z$37:
  00235	8d 4d a8	 lea	 ecx, DWORD PTR _strTargetSkin$33[ebp]
  00238	e9 00 00 00 00	 jmp	 ??1?$basic_string@DU?$char_traits@D@std@@V?$allocator@D@2@@std@@QAE@XZ ; std::basic_string<char,std::char_traits<char>,std::allocator<char> >::~basic_string<char,std::char_traits<char>,std::allocator<char> >
__unwindfunclet$?LoadRaceData@CRaceData@@QAEHPBD@Z$38:
  0023d	8b 85 b8 fe ff
	ff		 mov	 eax, DWORD PTR $T5[ebp]
  00243	25 00 04 00 00	 and	 eax, 1024		; 00000400H
  00248	0f 84 12 00 00
	00		 je	 $LN107@LoadRaceDa
  0024e	81 a5 b8 fe ff
	ff ff fb ff ff	 and	 DWORD PTR $T5[ebp], -1025 ; fffffbffH
  00258	8d 4d c0	 lea	 ecx, DWORD PTR $T37[ebp]
  0025b	e9 00 00 00 00	 jmp	 ??1?$basic_string@DU?$char_traits@D@std@@V?$allocator@D@2@@std@@QAE@XZ ; std::basic_string<char,std::char_traits<char>,std::allocator<char> >::~basic_string<char,std::char_traits<char>,std::allocator<char> >
$LN107@LoadRaceDa:
  00260	c3		 ret	 0
__unwindfunclet$?LoadRaceData@CRaceData@@QAEHPBD@Z$39:
  00261	8b 85 b8 fe ff
	ff		 mov	 eax, DWORD PTR $T5[ebp]
  00267	25 00 08 00 00	 and	 eax, 2048		; 00000800H
  0026c	0f 84 15 00 00
	00		 je	 $LN109@LoadRaceDa
  00272	81 a5 b8 fe ff
	ff ff f7 ff ff	 and	 DWORD PTR $T5[ebp], -2049 ; fffff7ffH
  0027c	8d 8d 60 ff ff
	ff		 lea	 ecx, DWORD PTR $T27[ebp]
  00282	e9 00 00 00 00	 jmp	 ??1?$basic_string@DU?$char_traits@D@std@@V?$allocator@D@2@@std@@QAE@XZ ; std::basic_string<char,std::char_traits<char>,std::allocator<char> >::~basic_string<char,std::char_traits<char>,std::allocator<char> >
$LN109@LoadRaceDa:
  00287	c3		 ret	 0
__unwindfunclet$?LoadRaceData@CRaceData@@QAEHPBD@Z$40:
  00288	8b 85 b8 fe ff
	ff		 mov	 eax, DWORD PTR $T5[ebp]
  0028e	25 00 10 00 00	 and	 eax, 4096		; 00001000H
  00293	0f 84 12 00 00
	00		 je	 $LN111@LoadRaceDa
  00299	81 a5 b8 fe ff
	ff ff ef ff ff	 and	 DWORD PTR $T5[ebp], -4097 ; ffffefffH
  002a3	8d 4d d8	 lea	 ecx, DWORD PTR $T48[ebp]
  002a6	e9 00 00 00 00	 jmp	 ??1?$basic_string@DU?$char_traits@D@std@@V?$allocator@D@2@@std@@QAE@XZ ; std::basic_string<char,std::char_traits<char>,std::allocator<char> >::~basic_string<char,std::char_traits<char>,std::allocator<char> >
$LN111@LoadRaceDa:
  002ab	c3		 ret	 0
__unwindfunclet$?LoadRaceData@CRaceData@@QAEHPBD@Z$41:
  002ac	8d 8d 60 ff ff
	ff		 lea	 ecx, DWORD PTR $T26[ebp]
  002b2	e9 00 00 00 00	 jmp	 ??1?$basic_string@DU?$char_traits@D@std@@V?$allocator@D@2@@std@@QAE@XZ ; std::basic_string<char,std::char_traits<char>,std::allocator<char> >::~basic_string<char,std::char_traits<char>,std::allocator<char> >
__unwindfunclet$?LoadRaceData@CRaceData@@QAEHPBD@Z$42:
  002b7	8d 4d d8	 lea	 ecx, DWORD PTR $T47[ebp]
  002ba	e9 00 00 00 00	 jmp	 ??1?$basic_string@DU?$char_traits@D@std@@V?$allocator@D@2@@std@@QAE@XZ ; std::basic_string<char,std::char_traits<char>,std::allocator<char> >::~basic_string<char,std::char_traits<char>,std::allocator<char> >
__unwindfunclet$?LoadRaceData@CRaceData@@QAEHPBD@Z$43:
  002bf	8d 4d c0	 lea	 ecx, DWORD PTR $T36[ebp]
  002c2	e9 00 00 00 00	 jmp	 ??1?$basic_string@DU?$char_traits@D@std@@V?$allocator@D@2@@std@@QAE@XZ ; std::basic_string<char,std::char_traits<char>,std::allocator<char> >::~basic_string<char,std::char_traits<char>,std::allocator<char> >
  002c7	cc		 int	 3
  002c8	cc		 int	 3
  002c9	cc		 int	 3
  002ca	cc		 int	 3
  002cb	cc		 int	 3
__ehhandler$?LoadRaceData@CRaceData@@QAEHPBD@Z:
  002cc	90		 npad	 1
  002cd	90		 npad	 1
  002ce	8b 54 24 08	 mov	 edx, DWORD PTR [esp+8]
  002d2	8d 42 0c	 lea	 eax, DWORD PTR [edx+12]
  002d5	8b 8a a4 fe ff
	ff		 mov	 ecx, DWORD PTR [edx-348]
  002db	33 c8		 xor	 ecx, eax
  002dd	e8 00 00 00 00	 call	 @__security_check_cookie@4
  002e2	8b 4a fc	 mov	 ecx, DWORD PTR [edx-4]
  002e5	33 c8		 xor	 ecx, eax
  002e7	e8 00 00 00 00	 call	 @__security_check_cookie@4
  002ec	b8 00 00 00 00	 mov	 eax, OFFSET __ehfuncinfo$?LoadRaceData@CRaceData@@QAEHPBD@Z
  002f1	e9 00 00 00 00	 jmp	 ___CxxFrameHandler3
text$x	ENDS
?LoadRaceData@CRaceData@@QAEHPBD@Z ENDP			; CRaceData::LoadRaceData
; Function compile flags: /Ogtp
; File C:\Program Files (x86)\Microsoft Visual Studio\2019\Community\VC\Tools\MSVC\14.28.29333\include\xmemory
;	COMDAT ??$_Allocate_manually_vector_aligned@U_Default_allocate_traits@std@@@std@@YAPAXI@Z
_TEXT	SEGMENT
__Bytes$ = 8						; size = 4
??$_Allocate_manually_vector_aligned@U_Default_allocate_traits@std@@@std@@YAPAXI@Z PROC ; std::_Allocate_manually_vector_aligned<std::_Default_allocate_traits>, COMDAT

; 113  : __declspec(allocator) void* _Allocate_manually_vector_aligned(const size_t _Bytes) {

  00000	55		 push	 ebp
  00001	8b ec		 mov	 ebp, esp

; 114  :     // allocate _Bytes manually aligned to at least _Big_allocation_alignment
; 115  :     const size_t _Block_size = _Non_user_size + _Bytes;

  00003	8b 45 08	 mov	 eax, DWORD PTR __Bytes$[ebp]
  00006	8d 48 23	 lea	 ecx, DWORD PTR [eax+35]

; 116  :     if (_Block_size <= _Bytes) {

  00009	3b c8		 cmp	 ecx, eax
  0000b	0f 86 00 00 00
	00		 jbe	 ?_Throw_bad_array_new_length@std@@YAXXZ ; std::_Throw_bad_array_new_length

; 77   :         return ::operator new(_Bytes);

  00011	51		 push	 ecx
  00012	e8 00 00 00 00	 call	 ??2@YAPAXI@Z		; operator new

; 117  :         _Throw_bad_array_new_length(); // add overflow
; 118  :     }
; 119  : 
; 120  :     const uintptr_t _Ptr_container = reinterpret_cast<uintptr_t>(_Traits::_Allocate(_Block_size));

  00017	8b c8		 mov	 ecx, eax

; 77   :         return ::operator new(_Bytes);

  00019	83 c4 04	 add	 esp, 4

; 121  :     _STL_VERIFY(_Ptr_container != 0, "invalid argument"); // validate even in release since we're doing p[-1]

  0001c	85 c9		 test	 ecx, ecx
  0001e	74 0b		 je	 SHORT $LN7@Allocate_m

; 122  :     void* const _Ptr = reinterpret_cast<void*>((_Ptr_container + _Non_user_size) & ~(_Big_allocation_alignment - 1));

  00020	8d 41 23	 lea	 eax, DWORD PTR [ecx+35]
  00023	83 e0 e0	 and	 eax, -32		; ffffffe0H

; 123  :     static_cast<uintptr_t*>(_Ptr)[-1] = _Ptr_container;

  00026	89 48 fc	 mov	 DWORD PTR [eax-4], ecx

; 124  : 
; 125  : #ifdef _DEBUG
; 126  :     static_cast<uintptr_t*>(_Ptr)[-2] = _Big_allocation_sentinel;
; 127  : #endif // _DEBUG
; 128  :     return _Ptr;
; 129  : }

  00029	5d		 pop	 ebp
  0002a	c3		 ret	 0
$LN7@Allocate_m:

; 121  :     _STL_VERIFY(_Ptr_container != 0, "invalid argument"); // validate even in release since we're doing p[-1]

  0002b	e9 00 00 00 00	 jmp	 __invalid_parameter_noinfo_noreturn
??$_Allocate_manually_vector_aligned@U_Default_allocate_traits@std@@@std@@YAPAXI@Z ENDP ; std::_Allocate_manually_vector_aligned<std::_Default_allocate_traits>
_TEXT	ENDS
; Function compile flags: /Ogtp
; File C:\Program Files (x86)\Microsoft Visual Studio\2019\Community\VC\Tools\MSVC\14.28.29333\include\xmemory
;	COMDAT ??$_Allocate@$07U_Default_allocate_traits@std@@$0A@@std@@YAPAXI@Z
_TEXT	SEGMENT
__Bytes$ = 8						; size = 4
??$_Allocate@$07U_Default_allocate_traits@std@@$0A@@std@@YAPAXI@Z PROC ; std::_Allocate<8,std::_Default_allocate_traits,0>, COMDAT

; 197  : __declspec(allocator) void* _Allocate(const size_t _Bytes) {

  00000	55		 push	 ebp
  00001	8b ec		 mov	 ebp, esp

; 198  :     // allocate _Bytes when !_HAS_ALIGNED_NEW || _Align <= __STDCPP_DEFAULT_NEW_ALIGNMENT__
; 199  : #if defined(_M_IX86) || defined(_M_X64)
; 200  :     if (_Bytes >= _Big_allocation_threshold) { // boost the alignment of big allocations to help autovectorization

  00003	8b 45 08	 mov	 eax, DWORD PTR __Bytes$[ebp]
  00006	3d 00 10 00 00	 cmp	 eax, 4096		; 00001000H
  0000b	72 09		 jb	 SHORT $LN2@Allocate

; 201  :         return _Allocate_manually_vector_aligned<_Traits>(_Bytes);

  0000d	89 45 08	 mov	 DWORD PTR __Bytes$[ebp], eax

; 210  : }

  00010	5d		 pop	 ebp

; 201  :         return _Allocate_manually_vector_aligned<_Traits>(_Bytes);

  00011	e9 00 00 00 00	 jmp	 ??$_Allocate_manually_vector_aligned@U_Default_allocate_traits@std@@@std@@YAPAXI@Z ; std::_Allocate_manually_vector_aligned<std::_Default_allocate_traits>
$LN2@Allocate:

; 202  :     }
; 203  : #endif // defined(_M_IX86) || defined(_M_X64)
; 204  : 
; 205  :     if (_Bytes != 0) {

  00016	85 c0		 test	 eax, eax
  00018	74 09		 je	 SHORT $LN3@Allocate

; 77   :         return ::operator new(_Bytes);

  0001a	89 45 08	 mov	 DWORD PTR __Bytes$[ebp], eax

; 210  : }

  0001d	5d		 pop	 ebp

; 77   :         return ::operator new(_Bytes);

  0001e	e9 00 00 00 00	 jmp	 ??2@YAPAXI@Z		; operator new
$LN3@Allocate:

; 206  :         return _Traits::_Allocate(_Bytes);
; 207  :     }
; 208  : 
; 209  :     return nullptr;

  00023	33 c0		 xor	 eax, eax

; 210  : }

  00025	5d		 pop	 ebp
  00026	c3		 ret	 0
??$_Allocate@$07U_Default_allocate_traits@std@@$0A@@std@@YAPAXI@Z ENDP ; std::_Allocate<8,std::_Default_allocate_traits,0>
_TEXT	ENDS
; Function compile flags: /Ogtp
; File C:\Program Files (x86)\Microsoft Visual Studio\2019\Community\VC\Tools\MSVC\14.28.29333\include\xmemory
;	COMDAT ??$_Deallocate@$07$0A@@std@@YAXPAXI@Z
_TEXT	SEGMENT
__Ptr$ = 8						; size = 4
__Bytes$ = 12						; size = 4
??$_Deallocate@$07$0A@@std@@YAXPAXI@Z PROC		; std::_Deallocate<8,0>, COMDAT

; 213  : void _Deallocate(void* _Ptr, size_t _Bytes) noexcept {

  00000	55		 push	 ebp
  00001	8b ec		 mov	 ebp, esp

; 214  :     // deallocate storage allocated by _Allocate when !_HAS_ALIGNED_NEW || _Align <= __STDCPP_DEFAULT_NEW_ALIGNMENT__
; 215  : #if defined(_M_IX86) || defined(_M_X64)
; 216  :     if (_Bytes >= _Big_allocation_threshold) { // boost the alignment of big allocations to help autovectorization

  00003	8b 4d 0c	 mov	 ecx, DWORD PTR __Bytes$[ebp]
  00006	81 f9 00 10 00
	00		 cmp	 ecx, 4096		; 00001000H
  0000c	72 18		 jb	 SHORT $LN15@Deallocate

; 137  :     const uintptr_t _Ptr_container   = _Ptr_user[-1];

  0000e	8b 45 08	 mov	 eax, DWORD PTR __Ptr$[ebp]
  00011	83 c1 23	 add	 ecx, 35			; 00000023H
  00014	8b 50 fc	 mov	 edx, DWORD PTR [eax-4]

; 138  : 
; 139  :     // If the following asserts, it likely means that we are performing
; 140  :     // an aligned delete on memory coming from an unaligned allocation.
; 141  :     _STL_ASSERT(_Ptr_user[-2] == _Big_allocation_sentinel, "invalid argument");
; 142  : 
; 143  :     // Extra paranoia on aligned allocation/deallocation; ensure _Ptr_container is
; 144  :     // in range [_Min_back_shift, _Non_user_size]
; 145  : #ifdef _DEBUG
; 146  :     constexpr uintptr_t _Min_back_shift = 2 * sizeof(void*);
; 147  : #else // ^^^ _DEBUG ^^^ // vvv !_DEBUG vvv
; 148  :     constexpr uintptr_t _Min_back_shift = sizeof(void*);
; 149  : #endif // _DEBUG
; 150  :     const uintptr_t _Back_shift = reinterpret_cast<uintptr_t>(_Ptr) - _Ptr_container;

  00017	2b c2		 sub	 eax, edx

; 151  :     _STL_VERIFY(_Back_shift >= _Min_back_shift && _Back_shift <= _Non_user_size, "invalid argument");

  00019	83 c0 fc	 add	 eax, -4			; fffffffcH
  0001c	83 f8 1f	 cmp	 eax, 31			; 0000001fH
  0001f	76 08		 jbe	 SHORT $LN13@Deallocate
  00021	e9 00 00 00 00	 jmp	 __invalid_parameter_noinfo_noreturn
$LN15@Deallocate:

; 214  :     // deallocate storage allocated by _Allocate when !_HAS_ALIGNED_NEW || _Align <= __STDCPP_DEFAULT_NEW_ALIGNMENT__
; 215  : #if defined(_M_IX86) || defined(_M_X64)
; 216  :     if (_Bytes >= _Big_allocation_threshold) { // boost the alignment of big allocations to help autovectorization

  00026	8b 55 08	 mov	 edx, DWORD PTR __Ptr$[ebp]
$LN13@Deallocate:

; 217  :         _Adjust_manually_vector_aligned(_Ptr, _Bytes);
; 218  :     }
; 219  : #endif // defined(_M_IX86) || defined(_M_X64)
; 220  : 
; 221  :     ::operator delete(_Ptr, _Bytes);

  00029	89 4d 0c	 mov	 DWORD PTR __Bytes$[ebp], ecx
  0002c	89 55 08	 mov	 DWORD PTR __Ptr$[ebp], edx

; 222  : }

  0002f	5d		 pop	 ebp

; 217  :         _Adjust_manually_vector_aligned(_Ptr, _Bytes);
; 218  :     }
; 219  : #endif // defined(_M_IX86) || defined(_M_X64)
; 220  : 
; 221  :     ::operator delete(_Ptr, _Bytes);

  00030	e9 00 00 00 00	 jmp	 ??3@YAXPAXI@Z		; operator delete
??$_Deallocate@$07$0A@@std@@YAXPAXI@Z ENDP		; std::_Deallocate<8,0>
_TEXT	ENDS
; Function compile flags: /Ogtp
; File C:\Program Files (x86)\Microsoft Visual Studio\2019\Community\VC\Tools\MSVC\14.28.29333\include\xmemory
;	COMDAT ??$_Construct_in_place@PADABQAD@std@@YAXAAPADABQAD@Z
_TEXT	SEGMENT
__Obj$ = 8						; size = 4
_<_Args_0>$ = 12					; size = 4
??$_Construct_in_place@PADABQAD@std@@YAXAAPADABQAD@Z PROC ; std::_Construct_in_place<char *,char * const &>, COMDAT

; 228  : void _Construct_in_place(_Ty& _Obj, _Types&&... _Args) noexcept(is_nothrow_constructible_v<_Ty, _Types...>) {

  00000	55		 push	 ebp
  00001	8b ec		 mov	 ebp, esp

; 229  :     ::new (const_cast<void*>(static_cast<const volatile void*>(_STD addressof(_Obj))))

  00003	8b 45 0c	 mov	 eax, DWORD PTR _<_Args_0>$[ebp]
  00006	8b 08		 mov	 ecx, DWORD PTR [eax]
  00008	8b 45 08	 mov	 eax, DWORD PTR __Obj$[ebp]
  0000b	89 08		 mov	 DWORD PTR [eax], ecx

; 230  :         _Ty(_STD forward<_Types>(_Args)...);
; 231  : }

  0000d	5d		 pop	 ebp
  0000e	c3		 ret	 0
??$_Construct_in_place@PADABQAD@std@@YAXAAPADABQAD@Z ENDP ; std::_Construct_in_place<char *,char * const &>
_TEXT	ENDS
; Function compile flags: /Ogtp
; File C:\Program Files (x86)\Microsoft Visual Studio\2019\Community\VC\Tools\MSVC\14.28.29333\include\xmemory
;	COMDAT ??$_Destroy_in_place@PAD@std@@YAXAAPAD@Z
_TEXT	SEGMENT
__Obj$ = 8						; size = 4
??$_Destroy_in_place@PAD@std@@YAXAAPAD@Z PROC		; std::_Destroy_in_place<char *>, COMDAT

; 271  : #if _HAS_IF_CONSTEXPR
; 272  :     if constexpr (is_array_v<_Ty>) {
; 273  :         _Destroy_range(_Obj, _Obj + extent_v<_Ty>);
; 274  :     } else
; 275  : #endif // _HAS_IF_CONSTEXPR
; 276  :     {
; 277  :         _Obj.~_Ty();
; 278  :     }
; 279  : }

  00000	c2 00 00	 ret	 0
??$_Destroy_in_place@PAD@std@@YAXAAPAD@Z ENDP		; std::_Destroy_in_place<char *>
_TEXT	ENDS
; Function compile flags: /Ogtp
; File C:\Program Files (x86)\Microsoft Visual Studio\2019\Community\VC\Tools\MSVC\14.28.29333\include\vector
;	COMDAT ?_Xrange@?$vector@V?$basic_string@DU?$char_traits@D@std@@V?$allocator@D@2@@std@@V?$allocator@V?$basic_string@DU?$char_traits@D@std@@V?$allocator@D@2@@std@@@2@@std@@CAXXZ
_TEXT	SEGMENT
?_Xrange@?$vector@V?$basic_string@DU?$char_traits@D@std@@V?$allocator@D@2@@std@@V?$allocator@V?$basic_string@DU?$char_traits@D@std@@V?$allocator@D@2@@std@@@2@@std@@CAXXZ PROC ; std::vector<std::basic_string<char,std::char_traits<char>,std::allocator<char> >,std::allocator<std::basic_string<char,std::char_traits<char>,std::allocator<char> > > >::_Xrange, COMDAT

; 1709 :         _Xout_of_range("invalid vector subscript");

  00000	68 00 00 00 00	 push	 OFFSET ??_C@_0BJ@DHFDPMIM@invalid?5vector?5subscript@
  00005	e8 00 00 00 00	 call	 ?_Xout_of_range@std@@YAXPBD@Z ; std::_Xout_of_range
$LN3@Xrange:
  0000a	cc		 int	 3
?_Xrange@?$vector@V?$basic_string@DU?$char_traits@D@std@@V?$allocator@D@2@@std@@V?$allocator@V?$basic_string@DU?$char_traits@D@std@@V?$allocator@D@2@@std@@@2@@std@@CAXXZ ENDP ; std::vector<std::basic_string<char,std::char_traits<char>,std::allocator<char> >,std::allocator<std::basic_string<char,std::char_traits<char>,std::allocator<char> > > >::_Xrange
_TEXT	ENDS
; Function compile flags: /Ogtp
; File C:\Program Files (x86)\Microsoft Visual Studio\2019\Community\VC\Tools\MSVC\14.28.29333\include\xstring
; File C:\Program Files (x86)\Microsoft Visual Studio\2019\Community\VC\Tools\MSVC\14.28.29333\include\utility
; File C:\Program Files (x86)\Microsoft Visual Studio\2019\Community\VC\Tools\MSVC\14.28.29333\include\xstring
; File C:\Program Files (x86)\Microsoft Visual Studio\2019\Community\VC\Tools\MSVC\14.28.29333\include\xmemory
; File C:\Program Files (x86)\Microsoft Visual Studio\2019\Community\VC\Tools\MSVC\14.28.29333\include\xstring
; File C:\Program Files (x86)\Microsoft Visual Studio\2019\Community\VC\Tools\MSVC\14.28.29333\include\xmemory
; File C:\Program Files (x86)\Microsoft Visual Studio\2019\Community\VC\Tools\MSVC\14.28.29333\include\xstring
;	COMDAT ?assign@?$basic_string@DU?$char_traits@D@std@@V?$allocator@D@2@@std@@QAEAAV12@QBDI@Z
_TEXT	SEGMENT
__Old$1$ = -4						; size = 4
__Ptr$ = 8						; size = 4
__New_ptr$1 = 12					; size = 4
__Count$ = 12						; size = 4
?assign@?$basic_string@DU?$char_traits@D@std@@V?$allocator@D@2@@std@@QAEAAV12@QBDI@Z PROC ; std::basic_string<char,std::char_traits<char>,std::allocator<char> >::assign, COMDAT
; _this$ = ecx

; 3042 :     basic_string& assign(_In_reads_(_Count) const _Elem* const _Ptr, _CRT_GUARDOVERFLOW const size_type _Count) {

  00000	55		 push	 ebp
  00001	8b ec		 mov	 ebp, esp
  00003	51		 push	 ecx
  00004	53		 push	 ebx
  00005	56		 push	 esi
  00006	8b f1		 mov	 esi, ecx
  00008	57		 push	 edi

; 3043 :         // assign [_Ptr, _Ptr + _Count)
; 3044 :         if (_Count <= _Mypair._Myval2._Myres) {

  00009	8b 7d 0c	 mov	 edi, DWORD PTR __Count$[ebp]
  0000c	8b 4e 14	 mov	 ecx, DWORD PTR [esi+20]
  0000f	89 4d fc	 mov	 DWORD PTR __Old$1$[ebp], ecx
  00012	3b f9		 cmp	 edi, ecx
  00014	77 28		 ja	 SHORT $LN2@assign

; 2209 :         value_type* _Result = _Bx._Buf;

  00016	8b de		 mov	 ebx, esi

; 2227 :         return _BUF_SIZE <= _Myres;

  00018	83 f9 10	 cmp	 ecx, 16			; 00000010H

; 2210 :         if (_Large_string_engaged()) {

  0001b	72 02		 jb	 SHORT $LN5@assign

; 2211 :             _Result = _Unfancy(_Bx._Ptr);

  0001d	8b 1e		 mov	 ebx, DWORD PTR [esi]
$LN5@assign:

; 119  :         _CSTD memmove(_First1, _First2, _Count * sizeof(_Elem));

  0001f	57		 push	 edi
  00020	ff 75 08	 push	 DWORD PTR __Ptr$[ebp]

; 3045 :             _Elem* const _Old_ptr   = _Mypair._Myval2._Myptr();
; 3046 :             _Mypair._Myval2._Mysize = _Count;

  00023	89 7e 10	 mov	 DWORD PTR [esi+16], edi

; 119  :         _CSTD memmove(_First1, _First2, _Count * sizeof(_Elem));

  00026	53		 push	 ebx
  00027	e8 00 00 00 00	 call	 _memmove
  0002c	83 c4 0c	 add	 esp, 12			; 0000000cH

; 3047 :             _Traits::move(_Old_ptr, _Ptr, _Count);
; 3048 :             _Traits::assign(_Old_ptr[_Count], _Elem());

  0002f	c6 04 3b 00	 mov	 BYTE PTR [ebx+edi], 0

; 3059 :     }

  00033	8b c6		 mov	 eax, esi
  00035	5f		 pop	 edi
  00036	5e		 pop	 esi
  00037	5b		 pop	 ebx
  00038	8b e5		 mov	 esp, ebp
  0003a	5d		 pop	 ebp
  0003b	c2 08 00	 ret	 8
$LN2@assign:

; 4305 :         if (_New_size > max_size()) {

  0003e	81 ff ff ff ff
	7f		 cmp	 edi, 2147483647		; 7fffffffH
  00044	0f 87 91 00 00
	00		 ja	 $LN36@assign

; 4285 :         const size_type _Masked = _Requested | _ALLOC_MASK;

  0004a	8b df		 mov	 ebx, edi
  0004c	83 cb 0f	 or	 ebx, 15			; 0000000fH
  0004f	81 fb ff ff ff
	7f		 cmp	 ebx, 2147483647		; 7fffffffH

; 4286 :         if (_Masked > _Max) { // the mask overflows, settle for max_size()

  00055	76 07		 jbe	 SHORT $LN19@assign

; 4287 :             return _Max;

  00057	bb ff ff ff 7f	 mov	 ebx, 2147483647		; 7fffffffH
  0005c	eb 1e		 jmp	 SHORT $LN18@assign
$LN19@assign:

; 4288 :         }
; 4289 : 
; 4290 :         if (_Old > _Max - _Old / 2) { // similarly, geometric overflows

  0005e	8b d1		 mov	 edx, ecx
  00060	b8 ff ff ff 7f	 mov	 eax, 2147483647		; 7fffffffH
  00065	d1 ea		 shr	 edx, 1
  00067	2b c2		 sub	 eax, edx
  00069	3b c8		 cmp	 ecx, eax
  0006b	76 07		 jbe	 SHORT $LN20@assign

; 4291 :             return _Max;

  0006d	bb ff ff ff 7f	 mov	 ebx, 2147483647		; 7fffffffH
  00072	eb 08		 jmp	 SHORT $LN18@assign
$LN20@assign:

; 4292 :         }
; 4293 : 
; 4294 :         return (_STD max)(_Masked, _Old + _Old / 2);

  00074	8d 04 0a	 lea	 eax, DWORD PTR [edx+ecx]
; File C:\Program Files (x86)\Microsoft Visual Studio\2019\Community\VC\Tools\MSVC\14.28.29333\include\utility

; 44   :     return _Left < _Right ? _Right : _Left;

  00077	3b d8		 cmp	 ebx, eax
  00079	0f 42 d8	 cmovb	 ebx, eax
$LN18@assign:
; File C:\Program Files (x86)\Microsoft Visual Studio\2019\Community\VC\Tools\MSVC\14.28.29333\include\xstring

; 4312 :         const pointer _New_ptr        = _Al.allocate(_New_capacity + 1); // throws

  0007c	8d 43 01	 lea	 eax, DWORD PTR [ebx+1]
; File C:\Program Files (x86)\Microsoft Visual Studio\2019\Community\VC\Tools\MSVC\14.28.29333\include\xmemory

; 814  :         return static_cast<_Ty*>(_Allocate<_New_alignof<_Ty>>(_Get_size_of_n<sizeof(_Ty)>(_Count)));

  0007f	50		 push	 eax
  00080	e8 00 00 00 00	 call	 ??$_Allocate@$07U_Default_allocate_traits@std@@$0A@@std@@YAPAXI@Z ; std::_Allocate<8,std::_Default_allocate_traits,0>
; File C:\Program Files (x86)\Microsoft Visual Studio\2019\Community\VC\Tools\MSVC\14.28.29333\include\xstring

; 62   :         _CSTD memcpy(_First1, _First2, _Count * sizeof(_Elem));

  00085	57		 push	 edi
  00086	ff 75 08	 push	 DWORD PTR __Ptr$[ebp]

; 4312 :         const pointer _New_ptr        = _Al.allocate(_New_capacity + 1); // throws

  00089	89 45 0c	 mov	 DWORD PTR __New_ptr$1[ebp], eax

; 62   :         _CSTD memcpy(_First1, _First2, _Count * sizeof(_Elem));

  0008c	50		 push	 eax

; 4314 :         _Mypair._Myval2._Mysize = _New_size;

  0008d	89 7e 10	 mov	 DWORD PTR [esi+16], edi

; 4315 :         _Mypair._Myval2._Myres  = _New_capacity;

  00090	89 5e 14	 mov	 DWORD PTR [esi+20], ebx

; 62   :         _CSTD memcpy(_First1, _First2, _Count * sizeof(_Elem));

  00093	e8 00 00 00 00	 call	 _memcpy

; 3056 :                 _Traits::assign(_New_ptr[_Count], _Elem());

  00098	8b 5d 0c	 mov	 ebx, DWORD PTR __New_ptr$1[ebp]

; 62   :         _CSTD memcpy(_First1, _First2, _Count * sizeof(_Elem));

  0009b	83 c4 10	 add	 esp, 16			; 00000010H

; 4317 :         if (_BUF_SIZE <= _Old_capacity) {

  0009e	8b 45 fc	 mov	 eax, DWORD PTR __Old$1$[ebp]

; 3056 :                 _Traits::assign(_New_ptr[_Count], _Elem());

  000a1	c6 04 3b 00	 mov	 BYTE PTR [ebx+edi], 0

; 4317 :         if (_BUF_SIZE <= _Old_capacity) {

  000a5	83 f8 10	 cmp	 eax, 16			; 00000010H
  000a8	72 19		 jb	 SHORT $LN13@assign

; 4318 :             _Al.deallocate(_Mypair._Myval2._Bx._Ptr, _Old_capacity + 1);

  000aa	40		 inc	 eax
; File C:\Program Files (x86)\Microsoft Visual Studio\2019\Community\VC\Tools\MSVC\14.28.29333\include\xmemory

; 810  :         _Deallocate<_New_alignof<_Ty>>(_Ptr, sizeof(_Ty) * _Count);

  000ab	50		 push	 eax
  000ac	ff 36		 push	 DWORD PTR [esi]
  000ae	e8 00 00 00 00	 call	 ??$_Deallocate@$07$0A@@std@@YAXPAXI@Z ; std::_Deallocate<8,0>
; File C:\Program Files (x86)\Microsoft Visual Studio\2019\Community\VC\Tools\MSVC\14.28.29333\include\xstring

; 3059 :     }

  000b3	83 c4 08	 add	 esp, 8

; 4319 :             _Mypair._Myval2._Bx._Ptr = _New_ptr;

  000b6	89 1e		 mov	 DWORD PTR [esi], ebx

; 3059 :     }

  000b8	8b c6		 mov	 eax, esi
  000ba	5f		 pop	 edi
  000bb	5e		 pop	 esi
  000bc	5b		 pop	 ebx
  000bd	8b e5		 mov	 esp, ebp
  000bf	5d		 pop	 ebp
  000c0	c2 08 00	 ret	 8
$LN13@assign:

; 4321 :             _Construct_in_place(_Mypair._Myval2._Bx._Ptr, _New_ptr);

  000c3	8d 45 0c	 lea	 eax, DWORD PTR __New_ptr$1[ebp]
  000c6	50		 push	 eax
  000c7	56		 push	 esi
  000c8	e8 00 00 00 00	 call	 ??$_Construct_in_place@PADABQAD@std@@YAXAAPADABQAD@Z ; std::_Construct_in_place<char *,char * const &>

; 3059 :     }

  000cd	83 c4 08	 add	 esp, 8
  000d0	8b c6		 mov	 eax, esi
  000d2	5f		 pop	 edi
  000d3	5e		 pop	 esi
  000d4	5b		 pop	 ebx
  000d5	8b e5		 mov	 esp, ebp
  000d7	5d		 pop	 ebp
  000d8	c2 08 00	 ret	 8
$LN36@assign:

; 4306 :             _Xlen_string(); // result too long

  000db	e8 00 00 00 00	 call	 ?_Xlen_string@std@@YAXXZ ; std::_Xlen_string
$LN33@assign:
  000e0	cc		 int	 3
?assign@?$basic_string@DU?$char_traits@D@std@@V?$allocator@D@2@@std@@QAEAAV12@QBDI@Z ENDP ; std::basic_string<char,std::char_traits<char>,std::allocator<char> >::assign
_TEXT	ENDS
; Function compile flags: /Ogtp
; File C:\Program Files (x86)\Microsoft Visual Studio\2019\Community\VC\Tools\MSVC\14.28.29333\include\xstring
; File C:\Program Files (x86)\Microsoft Visual Studio\2019\Community\VC\Tools\MSVC\14.28.29333\include\xmemory
; File C:\Program Files (x86)\Microsoft Visual Studio\2019\Community\VC\Tools\MSVC\14.28.29333\include\xstring
;	COMDAT ??1?$basic_string@DU?$char_traits@D@std@@V?$allocator@D@2@@std@@QAE@XZ
_TEXT	SEGMENT
??1?$basic_string@DU?$char_traits@D@std@@V?$allocator@D@2@@std@@QAE@XZ PROC ; std::basic_string<char,std::char_traits<char>,std::allocator<char> >::~basic_string<char,std::char_traits<char>,std::allocator<char> >, COMDAT
; _this$ = ecx

; 2800 :     ~basic_string() noexcept {

  00000	56		 push	 esi
  00001	8b f1		 mov	 esi, ecx

; 2227 :         return _BUF_SIZE <= _Myres;

  00003	8b 46 14	 mov	 eax, DWORD PTR [esi+20]
  00006	83 f8 10	 cmp	 eax, 16			; 00000010H

; 4385 :         if (_Mypair._Myval2._Large_string_engaged()) {

  00009	72 0c		 jb	 SHORT $LN4@basic_stri

; 4386 :             const pointer _Ptr = _Mypair._Myval2._Bx._Ptr;
; 4387 :             auto& _Al          = _Getal();
; 4388 :             _Destroy_in_place(_Mypair._Myval2._Bx._Ptr);
; 4389 :             _Al.deallocate(_Ptr, _Mypair._Myval2._Myres + 1);

  0000b	40		 inc	 eax
; File C:\Program Files (x86)\Microsoft Visual Studio\2019\Community\VC\Tools\MSVC\14.28.29333\include\xmemory

; 810  :         _Deallocate<_New_alignof<_Ty>>(_Ptr, sizeof(_Ty) * _Count);

  0000c	50		 push	 eax
  0000d	ff 36		 push	 DWORD PTR [esi]
  0000f	e8 00 00 00 00	 call	 ??$_Deallocate@$07$0A@@std@@YAXPAXI@Z ; std::_Deallocate<8,0>
  00014	83 c4 08	 add	 esp, 8
$LN4@basic_stri:
; File C:\Program Files (x86)\Microsoft Visual Studio\2019\Community\VC\Tools\MSVC\14.28.29333\include\xstring

; 4392 :         _Mypair._Myval2._Mysize = 0;

  00017	c7 46 10 00 00
	00 00		 mov	 DWORD PTR [esi+16], 0

; 4393 :         _Mypair._Myval2._Myres  = _BUF_SIZE - 1;

  0001e	c7 46 14 0f 00
	00 00		 mov	 DWORD PTR [esi+20], 15	; 0000000fH

; 4394 :         // the _Traits::assign is last so the codegen doesn't think the char write can alias this
; 4395 :         _Traits::assign(_Mypair._Myval2._Bx._Buf[0], _Elem());

  00025	c6 06 00	 mov	 BYTE PTR [esi], 0
  00028	5e		 pop	 esi

; 2801 :         _Tidy_deallocate();
; 2802 : #if _ITERATOR_DEBUG_LEVEL != 0
; 2803 :         auto&& _Alproxy          = _GET_PROXY_ALLOCATOR(_Alty, _Getal());
; 2804 :         const auto _To_delete    = _Mypair._Myval2._Myproxy;
; 2805 :         _Mypair._Myval2._Myproxy = nullptr;
; 2806 :         _Delete_plain_internal(_Alproxy, _To_delete);
; 2807 : #endif // _ITERATOR_DEBUG_LEVEL != 0
; 2808 :     }

  00029	c3		 ret	 0
??1?$basic_string@DU?$char_traits@D@std@@V?$allocator@D@2@@std@@QAE@XZ ENDP ; std::basic_string<char,std::char_traits<char>,std::allocator<char> >::~basic_string<char,std::char_traits<char>,std::allocator<char> >
_TEXT	ENDS
; Function compile flags: /Ogtp
; File C:\Program Files (x86)\Microsoft Visual Studio\2019\Community\VC\Tools\MSVC\14.28.29333\include\xstring
;	COMDAT ?_Xran@?$_String_val@U?$_Simple_types@D@std@@@std@@SAXXZ
_TEXT	SEGMENT
?_Xran@?$_String_val@U?$_Simple_types@D@std@@@std@@SAXXZ PROC ; std::_String_val<std::_Simple_types<char> >::_Xran, COMDAT

; 2243 :         _Xout_of_range("invalid string position");

  00000	68 00 00 00 00	 push	 OFFSET ??_C@_0BI@CFPLBAOH@invalid?5string?5position@
  00005	e8 00 00 00 00	 call	 ?_Xout_of_range@std@@YAXPBD@Z ; std::_Xout_of_range
$LN3@Xran:
  0000a	cc		 int	 3
?_Xran@?$_String_val@U?$_Simple_types@D@std@@@std@@SAXXZ ENDP ; std::_String_val<std::_Simple_types<char> >::_Xran
_TEXT	ENDS
; Function compile flags: /Ogtp
; File C:\Program Files (x86)\Microsoft Visual Studio\2019\Community\VC\Tools\MSVC\14.28.29333\include\xstring
;	COMDAT ?_Xlen_string@std@@YAXXZ
_TEXT	SEGMENT
?_Xlen_string@std@@YAXXZ PROC				; std::_Xlen_string, COMDAT

; 2275 :     _Xlength_error("string too long");

  00000	68 00 00 00 00	 push	 OFFSET ??_C@_0BA@JFNIOLAK@string?5too?5long@
  00005	e8 00 00 00 00	 call	 ?_Xlength_error@std@@YAXPBD@Z ; std::_Xlength_error
$LN3@Xlen_strin:
  0000a	cc		 int	 3
?_Xlen_string@std@@YAXXZ ENDP				; std::_Xlen_string
_TEXT	ENDS
; Function compile flags: /Ogtp
; File C:\Program Files (x86)\Microsoft Visual Studio\2019\Community\VC\Tools\MSVC\14.28.29333\include\exception
;	COMDAT ?_Throw_bad_array_new_length@std@@YAXXZ
_TEXT	SEGMENT
$T1 = -12						; size = 12
?_Throw_bad_array_new_length@std@@YAXXZ PROC		; std::_Throw_bad_array_new_length, COMDAT

; 320  : [[noreturn]] inline void _Throw_bad_array_new_length() {

  00000	55		 push	 ebp
  00001	8b ec		 mov	 ebp, esp
  00003	83 ec 0c	 sub	 esp, 12			; 0000000cH

; 321  :     _THROW(bad_array_new_length{});

  00006	8d 4d f4	 lea	 ecx, DWORD PTR $T1[ebp]
  00009	e8 00 00 00 00	 call	 ??0bad_array_new_length@std@@QAE@XZ ; std::bad_array_new_length::bad_array_new_length
  0000e	68 00 00 00 00	 push	 OFFSET __TI3?AVbad_array_new_length@std@@
  00013	8d 45 f4	 lea	 eax, DWORD PTR $T1[ebp]
  00016	50		 push	 eax
  00017	e8 00 00 00 00	 call	 __CxxThrowException@8
$LN3@Throw_bad_:
  0001c	cc		 int	 3
?_Throw_bad_array_new_length@std@@YAXXZ ENDP		; std::_Throw_bad_array_new_length
_TEXT	ENDS
; Function compile flags: /Ogtp
; File C:\Program Files (x86)\Microsoft Visual Studio\2019\Community\VC\Tools\MSVC\14.28.29333\include\vcruntime_exception.h
;	COMDAT ??_Gbad_array_new_length@std@@UAEPAXI@Z
_TEXT	SEGMENT
___flags$ = 8						; size = 4
??_Gbad_array_new_length@std@@UAEPAXI@Z PROC		; std::bad_array_new_length::`scalar deleting destructor', COMDAT
; _this$ = ecx
  00000	55		 push	 ebp
  00001	8b ec		 mov	 ebp, esp

; 89   :     {

  00003	56		 push	 esi
  00004	8b f1		 mov	 esi, ecx

; 90   :         __std_exception_destroy(&_Data);

  00006	8d 46 04	 lea	 eax, DWORD PTR [esi+4]
  00009	c7 06 00 00 00
	00		 mov	 DWORD PTR [esi], OFFSET ??_7exception@std@@6B@
  0000f	50		 push	 eax
  00010	e8 00 00 00 00	 call	 ___std_exception_destroy
  00015	83 c4 04	 add	 esp, 4
  00018	f6 45 08 01	 test	 BYTE PTR ___flags$[ebp], 1
  0001c	74 0b		 je	 SHORT $LN12@scalar
  0001e	6a 0c		 push	 12			; 0000000cH
  00020	56		 push	 esi
  00021	e8 00 00 00 00	 call	 ??3@YAXPAXI@Z		; operator delete
  00026	83 c4 08	 add	 esp, 8
$LN12@scalar:
  00029	8b c6		 mov	 eax, esi
  0002b	5e		 pop	 esi
  0002c	5d		 pop	 ebp
  0002d	c2 04 00	 ret	 4
??_Gbad_array_new_length@std@@UAEPAXI@Z ENDP		; std::bad_array_new_length::`scalar deleting destructor'
_TEXT	ENDS
; Function compile flags: /Ogtp
; File C:\Program Files (x86)\Microsoft Visual Studio\2019\Community\VC\Tools\MSVC\14.28.29333\include\vcruntime_exception.h
;	COMDAT ??0bad_array_new_length@std@@QAE@ABV01@@Z
_TEXT	SEGMENT
___that$ = 8						; size = 4
??0bad_array_new_length@std@@QAE@ABV01@@Z PROC		; std::bad_array_new_length::bad_array_new_length, COMDAT
; _this$ = ecx
  00000	55		 push	 ebp
  00001	8b ec		 mov	 ebp, esp

; 72   :     {

  00003	56		 push	 esi
  00004	8b f1		 mov	 esi, ecx
  00006	0f 57 c0	 xorps	 xmm0, xmm0

; 71   :         : _Data()

  00009	8d 46 04	 lea	 eax, DWORD PTR [esi+4]

; 73   :         __std_exception_copy(&_Other._Data, &_Data);

  0000c	50		 push	 eax
  0000d	c7 06 00 00 00
	00		 mov	 DWORD PTR [esi], OFFSET ??_7exception@std@@6B@
  00013	66 0f d6 00	 movq	 QWORD PTR [eax], xmm0
  00017	8b 45 08	 mov	 eax, DWORD PTR ___that$[ebp]
  0001a	83 c0 04	 add	 eax, 4
  0001d	50		 push	 eax
  0001e	e8 00 00 00 00	 call	 ___std_exception_copy
  00023	83 c4 08	 add	 esp, 8
  00026	c7 06 00 00 00
	00		 mov	 DWORD PTR [esi], OFFSET ??_7bad_array_new_length@std@@6B@
  0002c	8b c6		 mov	 eax, esi
  0002e	5e		 pop	 esi
  0002f	5d		 pop	 ebp
  00030	c2 04 00	 ret	 4
??0bad_array_new_length@std@@QAE@ABV01@@Z ENDP		; std::bad_array_new_length::bad_array_new_length
_TEXT	ENDS
; Function compile flags: /Ogtp
; File C:\Program Files (x86)\Microsoft Visual Studio\2019\Community\VC\Tools\MSVC\14.28.29333\include\vcruntime_exception.h
;	COMDAT ??1bad_array_new_length@std@@UAE@XZ
_TEXT	SEGMENT
??1bad_array_new_length@std@@UAE@XZ PROC		; std::bad_array_new_length::~bad_array_new_length, COMDAT
; _this$ = ecx

; 90   :         __std_exception_destroy(&_Data);

  00000	8d 41 04	 lea	 eax, DWORD PTR [ecx+4]
  00003	c7 01 00 00 00
	00		 mov	 DWORD PTR [ecx], OFFSET ??_7exception@std@@6B@
  00009	50		 push	 eax
  0000a	e8 00 00 00 00	 call	 ___std_exception_destroy
  0000f	59		 pop	 ecx
  00010	c3		 ret	 0
??1bad_array_new_length@std@@UAE@XZ ENDP		; std::bad_array_new_length::~bad_array_new_length
_TEXT	ENDS
; Function compile flags: /Ogtp
; File C:\Program Files (x86)\Microsoft Visual Studio\2019\Community\VC\Tools\MSVC\14.28.29333\include\vcruntime_exception.h
;	COMDAT ??0bad_array_new_length@std@@QAE@XZ
_TEXT	SEGMENT
??0bad_array_new_length@std@@QAE@XZ PROC		; std::bad_array_new_length::bad_array_new_length, COMDAT
; _this$ = ecx

; 141  :     {

  00000	0f 57 c0	 xorps	 xmm0, xmm0

; 142  :     }

  00003	8b c1		 mov	 eax, ecx

; 65   :         : _Data()

  00005	66 0f d6 41 04	 movq	 QWORD PTR [ecx+4], xmm0

; 66   :     {
; 67   :         _Data._What = _Message;

  0000a	c7 41 04 00 00
	00 00		 mov	 DWORD PTR [ecx+4], OFFSET ??_C@_0BF@KINCDENJ@bad?5array?5new?5length@

; 141  :     {

  00011	c7 01 00 00 00
	00		 mov	 DWORD PTR [ecx], OFFSET ??_7bad_array_new_length@std@@6B@

; 142  :     }

  00017	c3		 ret	 0
??0bad_array_new_length@std@@QAE@XZ ENDP		; std::bad_array_new_length::bad_array_new_length
_TEXT	ENDS
; Function compile flags: /Ogtp
; File C:\Program Files (x86)\Microsoft Visual Studio\2019\Community\VC\Tools\MSVC\14.28.29333\include\vcruntime_exception.h
;	COMDAT ??_Gbad_alloc@std@@UAEPAXI@Z
_TEXT	SEGMENT
___flags$ = 8						; size = 4
??_Gbad_alloc@std@@UAEPAXI@Z PROC			; std::bad_alloc::`scalar deleting destructor', COMDAT
; _this$ = ecx
  00000	55		 push	 ebp
  00001	8b ec		 mov	 ebp, esp

; 89   :     {

  00003	56		 push	 esi
  00004	8b f1		 mov	 esi, ecx

; 90   :         __std_exception_destroy(&_Data);

  00006	8d 46 04	 lea	 eax, DWORD PTR [esi+4]
  00009	c7 06 00 00 00
	00		 mov	 DWORD PTR [esi], OFFSET ??_7exception@std@@6B@
  0000f	50		 push	 eax
  00010	e8 00 00 00 00	 call	 ___std_exception_destroy
  00015	83 c4 04	 add	 esp, 4
  00018	f6 45 08 01	 test	 BYTE PTR ___flags$[ebp], 1
  0001c	74 0b		 je	 SHORT $LN9@scalar
  0001e	6a 0c		 push	 12			; 0000000cH
  00020	56		 push	 esi
  00021	e8 00 00 00 00	 call	 ??3@YAXPAXI@Z		; operator delete
  00026	83 c4 08	 add	 esp, 8
$LN9@scalar:
  00029	8b c6		 mov	 eax, esi
  0002b	5e		 pop	 esi
  0002c	5d		 pop	 ebp
  0002d	c2 04 00	 ret	 4
??_Gbad_alloc@std@@UAEPAXI@Z ENDP			; std::bad_alloc::`scalar deleting destructor'
_TEXT	ENDS
; Function compile flags: /Ogtp
; File C:\Program Files (x86)\Microsoft Visual Studio\2019\Community\VC\Tools\MSVC\14.28.29333\include\vcruntime_exception.h
;	COMDAT ??0bad_alloc@std@@QAE@ABV01@@Z
_TEXT	SEGMENT
___that$ = 8						; size = 4
??0bad_alloc@std@@QAE@ABV01@@Z PROC			; std::bad_alloc::bad_alloc, COMDAT
; _this$ = ecx
  00000	55		 push	 ebp
  00001	8b ec		 mov	 ebp, esp

; 72   :     {

  00003	56		 push	 esi
  00004	8b f1		 mov	 esi, ecx
  00006	0f 57 c0	 xorps	 xmm0, xmm0

; 71   :         : _Data()

  00009	8d 46 04	 lea	 eax, DWORD PTR [esi+4]

; 73   :         __std_exception_copy(&_Other._Data, &_Data);

  0000c	50		 push	 eax
  0000d	c7 06 00 00 00
	00		 mov	 DWORD PTR [esi], OFFSET ??_7exception@std@@6B@
  00013	66 0f d6 00	 movq	 QWORD PTR [eax], xmm0
  00017	8b 45 08	 mov	 eax, DWORD PTR ___that$[ebp]
  0001a	83 c0 04	 add	 eax, 4
  0001d	50		 push	 eax
  0001e	e8 00 00 00 00	 call	 ___std_exception_copy
  00023	83 c4 08	 add	 esp, 8
  00026	c7 06 00 00 00
	00		 mov	 DWORD PTR [esi], OFFSET ??_7bad_alloc@std@@6B@
  0002c	8b c6		 mov	 eax, esi
  0002e	5e		 pop	 esi
  0002f	5d		 pop	 ebp
  00030	c2 04 00	 ret	 4
??0bad_alloc@std@@QAE@ABV01@@Z ENDP			; std::bad_alloc::bad_alloc
_TEXT	ENDS
; Function compile flags: /Ogtp
; File C:\Program Files (x86)\Microsoft Visual Studio\2019\Community\VC\Tools\MSVC\14.28.29333\include\vcruntime_exception.h
;	COMDAT ??_Gexception@std@@UAEPAXI@Z
_TEXT	SEGMENT
___flags$ = 8						; size = 4
??_Gexception@std@@UAEPAXI@Z PROC			; std::exception::`scalar deleting destructor', COMDAT
; _this$ = ecx
  00000	55		 push	 ebp
  00001	8b ec		 mov	 ebp, esp

; 89   :     {

  00003	56		 push	 esi
  00004	8b f1		 mov	 esi, ecx

; 90   :         __std_exception_destroy(&_Data);

  00006	8d 46 04	 lea	 eax, DWORD PTR [esi+4]
  00009	c7 06 00 00 00
	00		 mov	 DWORD PTR [esi], OFFSET ??_7exception@std@@6B@
  0000f	50		 push	 eax
  00010	e8 00 00 00 00	 call	 ___std_exception_destroy
  00015	83 c4 04	 add	 esp, 4
  00018	f6 45 08 01	 test	 BYTE PTR ___flags$[ebp], 1
  0001c	74 0b		 je	 SHORT $LN6@scalar
  0001e	6a 0c		 push	 12			; 0000000cH
  00020	56		 push	 esi
  00021	e8 00 00 00 00	 call	 ??3@YAXPAXI@Z		; operator delete
  00026	83 c4 08	 add	 esp, 8
$LN6@scalar:
  00029	8b c6		 mov	 eax, esi
  0002b	5e		 pop	 esi
  0002c	5d		 pop	 ebp
  0002d	c2 04 00	 ret	 4
??_Gexception@std@@UAEPAXI@Z ENDP			; std::exception::`scalar deleting destructor'
_TEXT	ENDS
; Function compile flags: /Ogtp
; File C:\Program Files (x86)\Microsoft Visual Studio\2019\Community\VC\Tools\MSVC\14.28.29333\include\vcruntime_exception.h
;	COMDAT ?what@exception@std@@UBEPBDXZ
_TEXT	SEGMENT
?what@exception@std@@UBEPBDXZ PROC			; std::exception::what, COMDAT
; _this$ = ecx

; 95   :         return _Data._What ? _Data._What : "Unknown exception";

  00000	8b 49 04	 mov	 ecx, DWORD PTR [ecx+4]
  00003	b8 00 00 00 00	 mov	 eax, OFFSET ??_C@_0BC@EOODALEL@Unknown?5exception@
  00008	85 c9		 test	 ecx, ecx
  0000a	0f 45 c1	 cmovne	 eax, ecx

; 96   :     }

  0000d	c3		 ret	 0
?what@exception@std@@UBEPBDXZ ENDP			; std::exception::what
_TEXT	ENDS
; Function compile flags: /Ogtp
; File C:\Program Files (x86)\Microsoft Visual Studio\2019\Community\VC\Tools\MSVC\14.28.29333\include\vcruntime_exception.h
;	COMDAT ??1exception@std@@UAE@XZ
_TEXT	SEGMENT
??1exception@std@@UAE@XZ PROC				; std::exception::~exception, COMDAT
; _this$ = ecx

; 90   :         __std_exception_destroy(&_Data);

  00000	8d 41 04	 lea	 eax, DWORD PTR [ecx+4]
  00003	c7 01 00 00 00
	00		 mov	 DWORD PTR [ecx], OFFSET ??_7exception@std@@6B@
  00009	50		 push	 eax
  0000a	e8 00 00 00 00	 call	 ___std_exception_destroy
  0000f	59		 pop	 ecx

; 91   :     }

  00010	c3		 ret	 0
??1exception@std@@UAE@XZ ENDP				; std::exception::~exception
_TEXT	ENDS
; Function compile flags: /Ogtp
; File C:\Program Files (x86)\Microsoft Visual Studio\2019\Community\VC\Tools\MSVC\14.28.29333\include\vcruntime_exception.h
;	COMDAT ??0exception@std@@QAE@ABV01@@Z
_TEXT	SEGMENT
__Other$ = 8						; size = 4
??0exception@std@@QAE@ABV01@@Z PROC			; std::exception::exception, COMDAT
; _this$ = ecx

; 72   :     {

  00000	55		 push	 ebp
  00001	8b ec		 mov	 ebp, esp
  00003	56		 push	 esi
  00004	8b f1		 mov	 esi, ecx
  00006	0f 57 c0	 xorps	 xmm0, xmm0
  00009	8d 46 04	 lea	 eax, DWORD PTR [esi+4]

; 73   :         __std_exception_copy(&_Other._Data, &_Data);

  0000c	50		 push	 eax
  0000d	c7 06 00 00 00
	00		 mov	 DWORD PTR [esi], OFFSET ??_7exception@std@@6B@
  00013	66 0f d6 00	 movq	 QWORD PTR [eax], xmm0
  00017	8b 45 08	 mov	 eax, DWORD PTR __Other$[ebp]
  0001a	83 c0 04	 add	 eax, 4
  0001d	50		 push	 eax
  0001e	e8 00 00 00 00	 call	 ___std_exception_copy
  00023	83 c4 08	 add	 esp, 8

; 74   :     }

  00026	8b c6		 mov	 eax, esi
  00028	5e		 pop	 esi
  00029	5d		 pop	 ebp
  0002a	c2 04 00	 ret	 4
??0exception@std@@QAE@ABV01@@Z ENDP			; std::exception::exception
_TEXT	ENDS
; Function compile flags: /Ogtp
; File D:\Metin2 Server Files\mainline\SRC_2014\Metin2Client\GameLib\RaceDataFile.cpp
;	COMDAT ?__empty_global_delete@@YAXPAXI@Z
_TEXT	SEGMENT
___formal$ = 8						; size = 4
___formal$ = 12						; size = 4
?__empty_global_delete@@YAXPAXI@Z PROC			; __empty_global_delete, COMDAT

  00000	c2 00 00	 ret	 0
?__empty_global_delete@@YAXPAXI@Z ENDP			; __empty_global_delete
_TEXT	ENDS
; Function compile flags: /Ogtp
; File D:\Metin2 Server Files\mainline\SRC_2014\Metin2Client\GameLib\RaceDataFile.cpp
;	COMDAT ?__empty_global_delete@@YAXPAX@Z
_TEXT	SEGMENT
___formal$ = 8						; size = 4
?__empty_global_delete@@YAXPAX@Z PROC			; __empty_global_delete, COMDAT

  00000	c2 00 00	 ret	 0
?__empty_global_delete@@YAXPAX@Z ENDP			; __empty_global_delete
_TEXT	ENDS
; Function compile flags: /Ogtp
;	COMDAT ??_H@YGXPAXIIP6EPAX0@Z@Z
_TEXT	SEGMENT
___t$ = 8						; size = 4
___s$ = 12						; size = 4
___n$ = 16						; size = 4
___f$ = 20						; size = 4
??_H@YGXPAXIIP6EPAX0@Z@Z PROC				; `vector constructor iterator', COMDAT
  00000	55		 push	 ebp
  00001	8b ec		 mov	 ebp, esp
  00003	56		 push	 esi
  00004	8b 75 10	 mov	 esi, DWORD PTR ___n$[ebp]
  00007	85 f6		 test	 esi, esi
  00009	74 16		 je	 SHORT $LN6@vector
  0000b	53		 push	 ebx
  0000c	8b 5d 14	 mov	 ebx, DWORD PTR ___f$[ebp]
  0000f	57		 push	 edi
  00010	8b 7d 08	 mov	 edi, DWORD PTR ___t$[ebp]
$LL2@vector:
  00013	8b cf		 mov	 ecx, edi
  00015	ff d3		 call	 ebx
  00017	03 7d 0c	 add	 edi, DWORD PTR ___s$[ebp]
  0001a	83 ee 01	 sub	 esi, 1
  0001d	75 f4		 jne	 SHORT $LL2@vector
  0001f	5f		 pop	 edi
  00020	5b		 pop	 ebx
$LN6@vector:
  00021	5e		 pop	 esi
  00022	5d		 pop	 ebp
  00023	c2 10 00	 ret	 16			; 00000010H
??_H@YGXPAXIIP6EPAX0@Z@Z ENDP				; `vector constructor iterator'
_TEXT	ENDS
END
