; Listing generated by Microsoft (R) Optimizing Compiler Version 19.28.29335.0 

	TITLE	D:\Metin2 Server Files\mainline\SRC_2014\Metin2Client\GameLib\WeaponTrace.cpp
	.686P
	.XMM
	include listing.inc
	.model	flat

INCLUDELIB LIBCMT
INCLUDELIB OLDNAMES

PUBLIC	??_R4?$CDynamicPool@VCWeaponTrace@@@@6B@	; CDynamicPool<CWeaponTrace>::`RTTI Complete Object Locator'
PUBLIC	??_R0?AV?$CDynamicPool@VCWeaponTrace@@@@@8	; CDynamicPool<CWeaponTrace> `RTTI Type Descriptor'
PUBLIC	??_R3?$CDynamicPool@VCWeaponTrace@@@@8		; CDynamicPool<CWeaponTrace>::`RTTI Class Hierarchy Descriptor'
PUBLIC	??_R2?$CDynamicPool@VCWeaponTrace@@@@8		; CDynamicPool<CWeaponTrace>::`RTTI Base Class Array'
PUBLIC	??_R1A@?0A@EA@?$CDynamicPool@VCWeaponTrace@@@@8	; CDynamicPool<CWeaponTrace>::`RTTI Base Class Descriptor at (0,-1,0,64)'
PUBLIC	??_7?$CDynamicPool@VCWeaponTrace@@@@6B@		; CDynamicPool<CWeaponTrace>::`vftable'
PUBLIC	??_G?$CDynamicPool@VCWeaponTrace@@@@UAEPAXI@Z	; CDynamicPool<CWeaponTrace>::`scalar deleting destructor'
EXTRN	??_7type_info@@6B@:QWORD			; type_info::`vftable'
EXTRN	??_E?$CDynamicPool@VCWeaponTrace@@@@UAEPAXI@Z:PROC ; CDynamicPool<CWeaponTrace>::`vector deleting destructor'
;	COMDAT ??_7?$CDynamicPool@VCWeaponTrace@@@@6B@
CONST	SEGMENT
??_7?$CDynamicPool@VCWeaponTrace@@@@6B@ DD FLAT:??_R4?$CDynamicPool@VCWeaponTrace@@@@6B@ ; CDynamicPool<CWeaponTrace>::`vftable'
	DD	FLAT:??_E?$CDynamicPool@VCWeaponTrace@@@@UAEPAXI@Z
CONST	ENDS
;	COMDAT ??_R1A@?0A@EA@?$CDynamicPool@VCWeaponTrace@@@@8
rdata$r	SEGMENT
??_R1A@?0A@EA@?$CDynamicPool@VCWeaponTrace@@@@8 DD FLAT:??_R0?AV?$CDynamicPool@VCWeaponTrace@@@@@8 ; CDynamicPool<CWeaponTrace>::`RTTI Base Class Descriptor at (0,-1,0,64)'
	DD	00H
	DD	00H
	DD	0ffffffffH
	DD	00H
	DD	040H
	DD	FLAT:??_R3?$CDynamicPool@VCWeaponTrace@@@@8
rdata$r	ENDS
;	COMDAT ??_R2?$CDynamicPool@VCWeaponTrace@@@@8
rdata$r	SEGMENT
??_R2?$CDynamicPool@VCWeaponTrace@@@@8 DD FLAT:??_R1A@?0A@EA@?$CDynamicPool@VCWeaponTrace@@@@8 ; CDynamicPool<CWeaponTrace>::`RTTI Base Class Array'
rdata$r	ENDS
;	COMDAT ??_R3?$CDynamicPool@VCWeaponTrace@@@@8
rdata$r	SEGMENT
??_R3?$CDynamicPool@VCWeaponTrace@@@@8 DD 00H		; CDynamicPool<CWeaponTrace>::`RTTI Class Hierarchy Descriptor'
	DD	00H
	DD	01H
	DD	FLAT:??_R2?$CDynamicPool@VCWeaponTrace@@@@8
rdata$r	ENDS
;	COMDAT ??_R0?AV?$CDynamicPool@VCWeaponTrace@@@@@8
data$rs	SEGMENT
??_R0?AV?$CDynamicPool@VCWeaponTrace@@@@@8 DD FLAT:??_7type_info@@6B@ ; CDynamicPool<CWeaponTrace> `RTTI Type Descriptor'
	DD	00H
	DB	'.?AV?$CDynamicPool@VCWeaponTrace@@@@', 00H
data$rs	ENDS
;	COMDAT ??_R4?$CDynamicPool@VCWeaponTrace@@@@6B@
rdata$r	SEGMENT
??_R4?$CDynamicPool@VCWeaponTrace@@@@6B@ DD 00H		; CDynamicPool<CWeaponTrace>::`RTTI Complete Object Locator'
	DD	00H
	DD	00H
	DD	FLAT:??_R0?AV?$CDynamicPool@VCWeaponTrace@@@@@8
	DD	FLAT:??_R3?$CDynamicPool@VCWeaponTrace@@@@8
rdata$r	ENDS
PUBLIC	??_H@YGXPAXIIP6EPAX0@Z@Z			; `vector constructor iterator'
PUBLIC	??0exception@std@@QAE@ABV01@@Z			; std::exception::exception
PUBLIC	??1exception@std@@UAE@XZ			; std::exception::~exception
PUBLIC	?what@exception@std@@UBEPBDXZ			; std::exception::what
PUBLIC	??_Gexception@std@@UAEPAXI@Z			; std::exception::`scalar deleting destructor'
PUBLIC	??0bad_alloc@std@@QAE@ABV01@@Z			; std::bad_alloc::bad_alloc
PUBLIC	??_Gbad_alloc@std@@UAEPAXI@Z			; std::bad_alloc::`scalar deleting destructor'
PUBLIC	??0bad_array_new_length@std@@QAE@XZ		; std::bad_array_new_length::bad_array_new_length
PUBLIC	??1bad_array_new_length@std@@UAE@XZ		; std::bad_array_new_length::~bad_array_new_length
PUBLIC	??0bad_array_new_length@std@@QAE@ABV01@@Z	; std::bad_array_new_length::bad_array_new_length
PUBLIC	??_Gbad_array_new_length@std@@UAEPAXI@Z		; std::bad_array_new_length::`scalar deleting destructor'
PUBLIC	?_Throw_bad_array_new_length@std@@YAXXZ		; std::_Throw_bad_array_new_length
PUBLIC	??0D3DXVECTOR3@@QAE@XZ				; D3DXVECTOR3::D3DXVECTOR3
PUBLIC	??0D3DXMATRIX@@QAE@XZ				; D3DXMATRIX::D3DXMATRIX
PUBLIC	??$_Deallocate@$07$0A@@std@@YAXPAXI@Z		; std::_Deallocate<8,0>
PUBLIC	??$_Allocate@$07U_Default_allocate_traits@std@@$0A@@std@@YAPAXI@Z ; std::_Allocate<8,std::_Default_allocate_traits,0>
PUBLIC	??$_Allocate_manually_vector_aligned@U_Default_allocate_traits@std@@@std@@YAPAXI@Z ; std::_Allocate_manually_vector_aligned<std::_Default_allocate_traits>
PUBLIC	?DestroySystem@CWeaponTrace@@SAXXZ		; CWeaponTrace::DestroySystem
PUBLIC	?Delete@CWeaponTrace@@SAXPAV1@@Z		; CWeaponTrace::Delete
PUBLIC	?New@CWeaponTrace@@SAPAV1@XZ			; CWeaponTrace::New
PUBLIC	??0CWeaponTrace@@QAE@XZ				; CWeaponTrace::CWeaponTrace
PUBLIC	??1CWeaponTrace@@UAE@XZ				; CWeaponTrace::~CWeaponTrace
PUBLIC	?Clear@CWeaponTrace@@QAEXXZ			; CWeaponTrace::Clear
PUBLIC	?TurnOn@CWeaponTrace@@QAEXXZ			; CWeaponTrace::TurnOn
PUBLIC	?TurnOff@CWeaponTrace@@QAEXXZ			; CWeaponTrace::TurnOff
PUBLIC	?UseAlpha@CWeaponTrace@@QAEXXZ			; CWeaponTrace::UseAlpha
PUBLIC	?UseTexture@CWeaponTrace@@QAEXXZ		; CWeaponTrace::UseTexture
PUBLIC	?SetTexture@CWeaponTrace@@QAEXPBD@Z		; CWeaponTrace::SetTexture
PUBLIC	?SetWeaponInstance@CWeaponTrace@@QAE_NPAVCGraphicThingInstance@@KPBD@Z ; CWeaponTrace::SetWeaponInstance
PUBLIC	?SetPosition@CWeaponTrace@@QAEXMMM@Z		; CWeaponTrace::SetPosition
PUBLIC	?SetRotation@CWeaponTrace@@QAEXM@Z		; CWeaponTrace::SetRotation
PUBLIC	?SetLifeTime@CWeaponTrace@@QAEXM@Z		; CWeaponTrace::SetLifeTime
PUBLIC	?SetSamplingTime@CWeaponTrace@@QAEXM@Z		; CWeaponTrace::SetSamplingTime
PUBLIC	?Update@CWeaponTrace@@QAEXM@Z			; CWeaponTrace::Update
PUBLIC	?Render@CWeaponTrace@@QAEXXZ			; CWeaponTrace::Render
PUBLIC	?Initialize@CWeaponTrace@@QAEXXZ		; CWeaponTrace::Initialize
PUBLIC	?BuildVertex@CWeaponTrace@@IAE_NXZ		; CWeaponTrace::BuildVertex
PUBLIC	?push_front@?$deque@U?$pair@MUD3DXVECTOR3@@@std@@V?$allocator@U?$pair@MUD3DXVECTOR3@@@std@@@2@@std@@QAEX$$QAU?$pair@MUD3DXVECTOR3@@@2@@Z ; std::deque<std::pair<float,D3DXVECTOR3>,std::allocator<std::pair<float,D3DXVECTOR3> > >::push_front
PUBLIC	??1?$deque@U?$pair@MUD3DXVECTOR3@@@std@@V?$allocator@U?$pair@MUD3DXVECTOR3@@@std@@@2@@std@@QAE@XZ ; std::deque<std::pair<float,D3DXVECTOR3>,std::allocator<std::pair<float,D3DXVECTOR3> > >::~deque<std::pair<float,D3DXVECTOR3>,std::allocator<std::pair<float,D3DXVECTOR3> > >
PUBLIC	?erase@?$deque@U?$pair@MUD3DXVECTOR3@@@std@@V?$allocator@U?$pair@MUD3DXVECTOR3@@@std@@@2@@std@@QAE?AV?$_Deque_iterator@V?$_Deque_val@U?$_Deque_simple_types@U?$pair@MUD3DXVECTOR3@@@std@@@std@@@std@@@2@V?$_Deque_const_iterator@V?$_Deque_val@U?$_Deque_simple_types@U?$pair@MUD3DXVECTOR3@@@std@@@std@@@std@@@2@0@Z ; std::deque<std::pair<float,D3DXVECTOR3>,std::allocator<std::pair<float,D3DXVECTOR3> > >::erase
PUBLIC	?_Xlen@?$deque@U?$pair@MUD3DXVECTOR3@@@std@@V?$allocator@U?$pair@MUD3DXVECTOR3@@@std@@@2@@std@@ABEXXZ ; std::deque<std::pair<float,D3DXVECTOR3>,std::allocator<std::pair<float,D3DXVECTOR3> > >::_Xlen
PUBLIC	?_Tidy@?$deque@U?$pair@MUD3DXVECTOR3@@@std@@V?$allocator@U?$pair@MUD3DXVECTOR3@@@std@@@2@@std@@AAEXXZ ; std::deque<std::pair<float,D3DXVECTOR3>,std::allocator<std::pair<float,D3DXVECTOR3> > >::_Tidy
PUBLIC	??1?$vector@USPDTVertex@@V?$allocator@USPDTVertex@@@std@@@std@@QAE@XZ ; std::vector<SPDTVertex,std::allocator<SPDTVertex> >::~vector<SPDTVertex,std::allocator<SPDTVertex> >
PUBLIC	?_Xlength@?$vector@USPDTVertex@@V?$allocator@USPDTVertex@@@std@@@std@@CAXXZ ; std::vector<SPDTVertex,std::allocator<SPDTVertex> >::_Xlength
PUBLIC	??_GCWeaponTrace@@UAEPAXI@Z			; CWeaponTrace::`scalar deleting destructor'
PUBLIC	??1?$CDynamicPool@VCWeaponTrace@@@@UAE@XZ	; CDynamicPool<CWeaponTrace>::~CDynamicPool<CWeaponTrace>
PUBLIC	?Delete@?$CDynamicPool@VCWeaponTrace@@@@KAXPAVCWeaponTrace@@@Z ; CDynamicPool<CWeaponTrace>::Delete
PUBLIC	?_Xlength@?$vector@PAVCWeaponTrace@@V?$allocator@PAVCWeaponTrace@@@std@@@std@@CAXXZ ; std::vector<CWeaponTrace *,std::allocator<CWeaponTrace *> >::_Xlength
PUBLIC	??$_Emplace_reallocate@ABUSPDTVertex@@@?$vector@USPDTVertex@@V?$allocator@USPDTVertex@@@std@@@std@@QAEPAUSPDTVertex@@QAU2@ABU2@@Z ; std::vector<SPDTVertex,std::allocator<SPDTVertex> >::_Emplace_reallocate<SPDTVertex const &>
PUBLIC	??$_Delete_plain_internal@V?$allocator@U_Container_proxy@std@@@std@@@std@@YAXAAV?$allocator@U_Container_proxy@std@@@0@QAU_Container_proxy@0@@Z ; std::_Delete_plain_internal<std::allocator<std::_Container_proxy> >
PUBLIC	??$_Emplace_reallocate@ABQAVCWeaponTrace@@@?$vector@PAVCWeaponTrace@@V?$allocator@PAVCWeaponTrace@@@std@@@std@@QAEPAPAVCWeaponTrace@@QAPAV2@ABQAV2@@Z ; std::vector<CWeaponTrace *,std::allocator<CWeaponTrace *> >::_Emplace_reallocate<CWeaponTrace * const &>
PUBLIC	??$_Destroy_range@V?$allocator@USPDTVertex@@@std@@@std@@YAXPAUSPDTVertex@@QAU1@AAV?$allocator@USPDTVertex@@@0@@Z ; std::_Destroy_range<std::allocator<SPDTVertex> >
PUBLIC	??$_Destroy_in_place@PAU?$pair@MUD3DXVECTOR3@@@std@@@std@@YAXAAPAU?$pair@MUD3DXVECTOR3@@@0@@Z ; std::_Destroy_in_place<std::pair<float,D3DXVECTOR3> *>
PUBLIC	??$uninitialized_copy@PAPAU?$pair@MUD3DXVECTOR3@@@std@@PAPAU12@@std@@YAPAPAU?$pair@MUD3DXVECTOR3@@@0@QAPAU10@0PAPAU10@@Z ; std::uninitialized_copy<std::pair<float,D3DXVECTOR3> * *,std::pair<float,D3DXVECTOR3> * *>
PUBLIC	??$_Uninitialized_value_construct_n_unchecked1@PAPAU?$pair@MUD3DXVECTOR3@@@std@@I@std@@YAPAPAU?$pair@MUD3DXVECTOR3@@@0@PAPAU10@I@Z ; std::_Uninitialized_value_construct_n_unchecked1<std::pair<float,D3DXVECTOR3> * *,unsigned int>
PUBLIC	??$_Destroy_range@PAPAU?$pair@MUD3DXVECTOR3@@@std@@PAPAU12@@std@@YAXPAPAU?$pair@MUD3DXVECTOR3@@@0@QAPAU10@@Z ; std::_Destroy_range<std::pair<float,D3DXVECTOR3> * *,std::pair<float,D3DXVECTOR3> * *>
PUBLIC	??$_Destroy_range@V?$allocator@PAVCWeaponTrace@@@std@@@std@@YAXPAPAVCWeaponTrace@@QAPAV1@AAV?$allocator@PAVCWeaponTrace@@@0@@Z ; std::_Destroy_range<std::allocator<CWeaponTrace *> >
PUBLIC	??$_Deallocate_plain@V?$allocator@U_Container_proxy@std@@@std@@@std@@YAXAAV?$allocator@U_Container_proxy@std@@@0@QAU_Container_proxy@0@@Z ; std::_Deallocate_plain<std::allocator<std::_Container_proxy> >
PUBLIC	??$_Construct_in_place@U_Container_proxy@std@@PAU_Container_base12@2@@std@@YAXAAU_Container_proxy@0@$$QAPAU_Container_base12@0@@Z ; std::_Construct_in_place<std::_Container_proxy,std::_Container_base12 *>
PUBLIC	??$_Copy_memmove@PAPAU?$pair@MUD3DXVECTOR3@@@std@@PAPAU12@@std@@YAPAPAU?$pair@MUD3DXVECTOR3@@@0@PAPAU10@00@Z ; std::_Copy_memmove<std::pair<float,D3DXVECTOR3> * *,std::pair<float,D3DXVECTOR3> * *>
PUBLIC	??$_Zero_range@PAPAU?$pair@MUD3DXVECTOR3@@@std@@@std@@YAPAPAU?$pair@MUD3DXVECTOR3@@@0@QAPAU10@0@Z ; std::_Zero_range<std::pair<float,D3DXVECTOR3> * *>
PUBLIC	??$_Uninitialized_move@PAPAVCWeaponTrace@@V?$allocator@PAVCWeaponTrace@@@std@@@std@@YAPAPAVCWeaponTrace@@QAPAV1@0PAPAV1@AAV?$allocator@PAVCWeaponTrace@@@0@@Z ; std::_Uninitialized_move<CWeaponTrace * *,std::allocator<CWeaponTrace *> >
PUBLIC	??$_Uninitialized_move@PAUSPDTVertex@@V?$allocator@USPDTVertex@@@std@@@std@@YAPAUSPDTVertex@@QAU1@0PAU1@AAV?$allocator@USPDTVertex@@@0@@Z ; std::_Uninitialized_move<SPDTVertex *,std::allocator<SPDTVertex> >
PUBLIC	??$_Copy_memmove@PAPAVCWeaponTrace@@PAPAV1@@std@@YAPAPAVCWeaponTrace@@PAPAV1@00@Z ; std::_Copy_memmove<CWeaponTrace * *,CWeaponTrace * *>
PUBLIC	??_7exception@std@@6B@				; std::exception::`vftable'
PUBLIC	??_C@_0BC@EOODALEL@Unknown?5exception@		; `string'
PUBLIC	??_7bad_alloc@std@@6B@				; std::bad_alloc::`vftable'
PUBLIC	??_7bad_array_new_length@std@@6B@		; std::bad_array_new_length::`vftable'
PUBLIC	??_C@_0BF@KINCDENJ@bad?5array?5new?5length@	; `string'
PUBLIC	__TI3?AVbad_array_new_length@std@@
PUBLIC	__CTA3?AVbad_array_new_length@std@@
PUBLIC	??_R0?AVbad_array_new_length@std@@@8		; std::bad_array_new_length `RTTI Type Descriptor'
PUBLIC	__CT??_R0?AVbad_array_new_length@std@@@8??0bad_array_new_length@std@@QAE@ABV01@@Z12
PUBLIC	??_R0?AVbad_alloc@std@@@8			; std::bad_alloc `RTTI Type Descriptor'
PUBLIC	__CT??_R0?AVbad_alloc@std@@@8??0bad_alloc@std@@QAE@ABV01@@Z12
PUBLIC	??_R0?AVexception@std@@@8			; std::exception `RTTI Type Descriptor'
PUBLIC	__CT??_R0?AVexception@std@@@8??0exception@std@@QAE@ABV01@@Z12
PUBLIC	?ms_singleton@?$CSingleton@VCTimer@@@@0PAVCTimer@@A ; CSingleton<CTimer>::ms_singleton
PUBLIC	??_R4exception@std@@6B@				; std::exception::`RTTI Complete Object Locator'
PUBLIC	??_R3exception@std@@8				; std::exception::`RTTI Class Hierarchy Descriptor'
PUBLIC	??_R2exception@std@@8				; std::exception::`RTTI Base Class Array'
PUBLIC	??_R1A@?0A@EA@exception@std@@8			; std::exception::`RTTI Base Class Descriptor at (0,-1,0,64)'
PUBLIC	??_R4bad_alloc@std@@6B@				; std::bad_alloc::`RTTI Complete Object Locator'
PUBLIC	??_R3bad_alloc@std@@8				; std::bad_alloc::`RTTI Class Hierarchy Descriptor'
PUBLIC	??_R2bad_alloc@std@@8				; std::bad_alloc::`RTTI Base Class Array'
PUBLIC	??_R1A@?0A@EA@bad_alloc@std@@8			; std::bad_alloc::`RTTI Base Class Descriptor at (0,-1,0,64)'
PUBLIC	??_R4bad_array_new_length@std@@6B@		; std::bad_array_new_length::`RTTI Complete Object Locator'
PUBLIC	??_R3bad_array_new_length@std@@8		; std::bad_array_new_length::`RTTI Class Hierarchy Descriptor'
PUBLIC	??_R2bad_array_new_length@std@@8		; std::bad_array_new_length::`RTTI Base Class Array'
PUBLIC	??_R1A@?0A@EA@bad_array_new_length@std@@8	; std::bad_array_new_length::`RTTI Base Class Descriptor at (0,-1,0,64)'
PUBLIC	?ms_singleton@?$CSingleton@VCResourceManager@@@@0PAVCResourceManager@@A ; CSingleton<CResourceManager>::ms_singleton
PUBLIC	?ms_singleton@?$CSingleton@VCStateManager@@@@0PAVCStateManager@@A ; CSingleton<CStateManager>::ms_singleton
PUBLIC	?ms_kPool@CWeaponTrace@@1V?$CDynamicPool@VCWeaponTrace@@@@A ; CWeaponTrace::ms_kPool
PUBLIC	??_7CWeaponTrace@@6B@				; CWeaponTrace::`vftable'
PUBLIC	??_C@_0BA@NCBBOAJD@lot_ade10?92?4tga@		; `string'
PUBLIC	??_C@_0BC@KBDMBKEH@deque?$DMT?$DO?5too?5long@	; `string'
PUBLIC	??_C@_0BA@FOIKENOD@vector?5too?5long@		; `string'
PUBLIC	??_R4CWeaponTrace@@6B@				; CWeaponTrace::`RTTI Complete Object Locator'
PUBLIC	??_R0?AVCWeaponTrace@@@8			; CWeaponTrace `RTTI Type Descriptor'
PUBLIC	??_R3CWeaponTrace@@8				; CWeaponTrace::`RTTI Class Hierarchy Descriptor'
PUBLIC	??_R2CWeaponTrace@@8				; CWeaponTrace::`RTTI Base Class Array'
PUBLIC	??_R1A@?0A@EA@CWeaponTrace@@8			; CWeaponTrace::`RTTI Base Class Descriptor at (0,-1,0,64)'
PUBLIC	__real@38d1b717
PUBLIC	__real@3c8efa35
PUBLIC	__real@3f000000
PUBLIC	__real@3f800000
PUBLIC	__real@3fb99999a0000000
PUBLIC	__real@3ff0000000000000
PUBLIC	__real@40000000
PUBLIC	__real@4004000000000000
PUBLIC	__real@40400000
PUBLIC	__real@40800000
PUBLIC	__real@437f0000
PUBLIC	__real@c0000000
EXTRN	??2@YAPAXI@Z:PROC				; operator new
EXTRN	??3@YAXPAXI@Z:PROC				; operator delete
EXTRN	_atexit:PROC
EXTRN	__invalid_parameter_noinfo_noreturn:PROC
EXTRN	___std_exception_copy:PROC
EXTRN	___std_exception_destroy:PROC
EXTRN	??_Eexception@std@@UAEPAXI@Z:PROC		; std::exception::`vector deleting destructor'
EXTRN	??_Ebad_alloc@std@@UAEPAXI@Z:PROC		; std::bad_alloc::`vector deleting destructor'
EXTRN	??_Ebad_array_new_length@std@@UAEPAXI@Z:PROC	; std::bad_array_new_length::`vector deleting destructor'
EXTRN	?_Xlength_error@std@@YAXPBD@Z:PROC		; std::_Xlength_error
EXTRN	?fMAX@@YAMMM@Z:PROC				; fMAX
EXTRN	_D3DXMatrixMultiply@12:PROC
EXTRN	_D3DXMatrixTranslation@16:PROC
EXTRN	_D3DXMatrixRotationZ@8:PROC
EXTRN	?GetCurrentSecond@CTimer@@QAEMXZ:PROC		; CTimer::GetCurrentSecond
EXTRN	??0CGraphicImageInstance@@QAE@XZ:PROC		; CGraphicImageInstance::CGraphicImageInstance
EXTRN	??1CGraphicImageInstance@@UAE@XZ:PROC		; CGraphicImageInstance::~CGraphicImageInstance
EXTRN	?SetImagePointer@CGraphicImageInstance@@QAEXPAVCGraphicImage@@@Z:PROC ; CGraphicImageInstance::SetImagePointer
EXTRN	?GetResourcePointer@CResourceManager@@QAEPAVCResource@@PBD@Z:PROC ; CResourceManager::GetResourcePointer
EXTRN	?SaveRenderState@CStateManager@@QAEXW4_D3DRENDERSTATETYPE@@K@Z:PROC ; CStateManager::SaveRenderState
EXTRN	?RestoreRenderState@CStateManager@@QAEXW4_D3DRENDERSTATETYPE@@@Z:PROC ; CStateManager::RestoreRenderState
EXTRN	?SetRenderState@CStateManager@@QAEXW4_D3DRENDERSTATETYPE@@K@Z:PROC ; CStateManager::SetRenderState
EXTRN	?SetTexture@CStateManager@@QAEXKPAUIDirect3DBaseTexture8@@@Z:PROC ; CStateManager::SetTexture
EXTRN	?SetTextureStageState@CStateManager@@QAEXKW4_D3DTEXTURESTAGESTATETYPE@@K@Z:PROC ; CStateManager::SetTextureStageState
EXTRN	?SaveVertexShader@CStateManager@@QAEXK@Z:PROC	; CStateManager::SaveVertexShader
EXTRN	?RestoreVertexShader@CStateManager@@QAEXXZ:PROC	; CStateManager::RestoreVertexShader
EXTRN	?SaveTransform@CStateManager@@QAEXW4_D3DTRANSFORMSTATETYPE@@PBU_D3DMATRIX@@@Z:PROC ; CStateManager::SaveTransform
EXTRN	?RestoreTransform@CStateManager@@QAEXW4_D3DTRANSFORMSTATETYPE@@@Z:PROC ; CStateManager::RestoreTransform
EXTRN	?DrawPrimitiveUP@CStateManager@@QAEJW4_D3DPRIMITIVETYPE@@IPBXI@Z:PROC ; CStateManager::DrawPrimitiveUP
EXTRN	?Update@CGraphicObjectInstance@@QAEXXZ:PROC	; CGraphicObjectInstance::Update
EXTRN	?DeformNoSkin@CGraphicThingInstance@@QAEXXZ:PROC ; CGraphicThingInstance::DeformNoSkin
EXTRN	?GetBoundBox@CGraphicThingInstance@@QAEHKPAUD3DXVECTOR3@@0@Z:PROC ; CGraphicThingInstance::GetBoundBox
EXTRN	?GetBoneMatrix@CGraphicThingInstance@@QAEHKKPAPAUD3DXMATRIX@@@Z:PROC ; CGraphicThingInstance::GetBoneMatrix
EXTRN	?GetCompositeBoneMatrix@CGraphicThingInstance@@QAEHKKPAPAUD3DXMATRIX@@@Z:PROC ; CGraphicThingInstance::GetCompositeBoneMatrix
EXTRN	??_ECWeaponTrace@@UAEPAXI@Z:PROC		; CWeaponTrace::`vector deleting destructor'
EXTRN	@__security_check_cookie@4:PROC
EXTRN	__CxxThrowException@8:PROC
EXTRN	___CxxFrameHandler3:PROC
EXTRN	__chkstk:PROC
EXTRN	__ftoui3:PROC
EXTRN	__libm_sse2_sqrt_precise:PROC
EXTRN	_memmove:PROC
EXTRN	_memset:PROC
EXTRN	___security_cookie:DWORD
EXTRN	__fltused:DWORD
;	COMDAT ?ms_singleton@?$CSingleton@VCTimer@@@@0PAVCTimer@@A
_BSS	SEGMENT
?ms_singleton@?$CSingleton@VCTimer@@@@0PAVCTimer@@A DD 01H DUP (?) ; CSingleton<CTimer>::ms_singleton
_BSS	ENDS
;	COMDAT ?ms_singleton@?$CSingleton@VCResourceManager@@@@0PAVCResourceManager@@A
_BSS	SEGMENT
?ms_singleton@?$CSingleton@VCResourceManager@@@@0PAVCResourceManager@@A DD 01H DUP (?) ; CSingleton<CResourceManager>::ms_singleton
_BSS	ENDS
;	COMDAT ?ms_singleton@?$CSingleton@VCStateManager@@@@0PAVCStateManager@@A
_BSS	SEGMENT
?ms_singleton@?$CSingleton@VCStateManager@@@@0PAVCStateManager@@A DD 01H DUP (?) ; CSingleton<CStateManager>::ms_singleton
_BSS	ENDS
CRT$XCU	SEGMENT
??ms_kPool$initializer$@CWeaponTrace@@1P6AXXZA@@3P6AXXZA DD FLAT:??__E?ms_kPool@CWeaponTrace@@1V?$CDynamicPool@VCWeaponTrace@@@@A@@YAXXZ ; ??ms_kPool$initializer$@CWeaponTrace@@1P6AXXZA@@3P6AXXZA
CRT$XCU	ENDS
;	COMDAT __real@c0000000
CONST	SEGMENT
__real@c0000000 DD 0c0000000r			; -2
CONST	ENDS
;	COMDAT __real@437f0000
CONST	SEGMENT
__real@437f0000 DD 0437f0000r			; 255
CONST	ENDS
;	COMDAT __real@40800000
CONST	SEGMENT
__real@40800000 DD 040800000r			; 4
CONST	ENDS
;	COMDAT __real@40400000
CONST	SEGMENT
__real@40400000 DD 040400000r			; 3
CONST	ENDS
;	COMDAT __real@4004000000000000
CONST	SEGMENT
__real@4004000000000000 DQ 04004000000000000r	; 2.5
CONST	ENDS
;	COMDAT __real@40000000
CONST	SEGMENT
__real@40000000 DD 040000000r			; 2
CONST	ENDS
;	COMDAT __real@3ff0000000000000
CONST	SEGMENT
__real@3ff0000000000000 DQ 03ff0000000000000r	; 1
CONST	ENDS
;	COMDAT __real@3fb99999a0000000
CONST	SEGMENT
__real@3fb99999a0000000 DQ 03fb99999a0000000r	; 0.1
CONST	ENDS
;	COMDAT __real@3f800000
CONST	SEGMENT
__real@3f800000 DD 03f800000r			; 1
CONST	ENDS
;	COMDAT __real@3f000000
CONST	SEGMENT
__real@3f000000 DD 03f000000r			; 0.5
CONST	ENDS
;	COMDAT __real@3c8efa35
CONST	SEGMENT
__real@3c8efa35 DD 03c8efa35r			; 0.0174533
CONST	ENDS
;	COMDAT __real@38d1b717
CONST	SEGMENT
__real@38d1b717 DD 038d1b717r			; 0.0001
CONST	ENDS
;	COMDAT ??_R1A@?0A@EA@CWeaponTrace@@8
rdata$r	SEGMENT
??_R1A@?0A@EA@CWeaponTrace@@8 DD FLAT:??_R0?AVCWeaponTrace@@@8 ; CWeaponTrace::`RTTI Base Class Descriptor at (0,-1,0,64)'
	DD	00H
	DD	00H
	DD	0ffffffffH
	DD	00H
	DD	040H
	DD	FLAT:??_R3CWeaponTrace@@8
rdata$r	ENDS
;	COMDAT ??_R2CWeaponTrace@@8
rdata$r	SEGMENT
??_R2CWeaponTrace@@8 DD FLAT:??_R1A@?0A@EA@CWeaponTrace@@8 ; CWeaponTrace::`RTTI Base Class Array'
rdata$r	ENDS
;	COMDAT ??_R3CWeaponTrace@@8
rdata$r	SEGMENT
??_R3CWeaponTrace@@8 DD 00H				; CWeaponTrace::`RTTI Class Hierarchy Descriptor'
	DD	00H
	DD	01H
	DD	FLAT:??_R2CWeaponTrace@@8
rdata$r	ENDS
;	COMDAT ??_R0?AVCWeaponTrace@@@8
data$rs	SEGMENT
??_R0?AVCWeaponTrace@@@8 DD FLAT:??_7type_info@@6B@	; CWeaponTrace `RTTI Type Descriptor'
	DD	00H
	DB	'.?AVCWeaponTrace@@', 00H
data$rs	ENDS
;	COMDAT ??_R4CWeaponTrace@@6B@
rdata$r	SEGMENT
??_R4CWeaponTrace@@6B@ DD 00H				; CWeaponTrace::`RTTI Complete Object Locator'
	DD	00H
	DD	00H
	DD	FLAT:??_R0?AVCWeaponTrace@@@8
	DD	FLAT:??_R3CWeaponTrace@@8
rdata$r	ENDS
;	COMDAT ??_C@_0BA@FOIKENOD@vector?5too?5long@
CONST	SEGMENT
??_C@_0BA@FOIKENOD@vector?5too?5long@ DB 'vector too long', 00H ; `string'
CONST	ENDS
;	COMDAT ??_C@_0BC@KBDMBKEH@deque?$DMT?$DO?5too?5long@
CONST	SEGMENT
??_C@_0BC@KBDMBKEH@deque?$DMT?$DO?5too?5long@ DB 'deque<T> too long', 00H ; `string'
CONST	ENDS
;	COMDAT ??_C@_0BA@NCBBOAJD@lot_ade10?92?4tga@
CONST	SEGMENT
??_C@_0BA@NCBBOAJD@lot_ade10?92?4tga@ DB 'lot_ade10-2.tga', 00H ; `string'
CONST	ENDS
;	COMDAT ??_7CWeaponTrace@@6B@
CONST	SEGMENT
??_7CWeaponTrace@@6B@ DD FLAT:??_R4CWeaponTrace@@6B@	; CWeaponTrace::`vftable'
	DD	FLAT:??_ECWeaponTrace@@UAEPAXI@Z
CONST	ENDS
_DATA	SEGMENT
?ms_kPool@CWeaponTrace@@1V?$CDynamicPool@VCWeaponTrace@@@@A DD FLAT:??_7?$CDynamicPool@VCWeaponTrace@@@@6B@ ; CWeaponTrace::ms_kPool
	DD	00H
	DD	00H
	DD	00H
	DD	00H
	DD	00H
	DD	00H
	DD	00H
	DD	00H
_DATA	ENDS
;	COMDAT ??_R1A@?0A@EA@bad_array_new_length@std@@8
rdata$r	SEGMENT
??_R1A@?0A@EA@bad_array_new_length@std@@8 DD FLAT:??_R0?AVbad_array_new_length@std@@@8 ; std::bad_array_new_length::`RTTI Base Class Descriptor at (0,-1,0,64)'
	DD	02H
	DD	00H
	DD	0ffffffffH
	DD	00H
	DD	040H
	DD	FLAT:??_R3bad_array_new_length@std@@8
rdata$r	ENDS
;	COMDAT ??_R2bad_array_new_length@std@@8
rdata$r	SEGMENT
??_R2bad_array_new_length@std@@8 DD FLAT:??_R1A@?0A@EA@bad_array_new_length@std@@8 ; std::bad_array_new_length::`RTTI Base Class Array'
	DD	FLAT:??_R1A@?0A@EA@bad_alloc@std@@8
	DD	FLAT:??_R1A@?0A@EA@exception@std@@8
rdata$r	ENDS
;	COMDAT ??_R3bad_array_new_length@std@@8
rdata$r	SEGMENT
??_R3bad_array_new_length@std@@8 DD 00H			; std::bad_array_new_length::`RTTI Class Hierarchy Descriptor'
	DD	00H
	DD	03H
	DD	FLAT:??_R2bad_array_new_length@std@@8
rdata$r	ENDS
;	COMDAT ??_R4bad_array_new_length@std@@6B@
rdata$r	SEGMENT
??_R4bad_array_new_length@std@@6B@ DD 00H		; std::bad_array_new_length::`RTTI Complete Object Locator'
	DD	00H
	DD	00H
	DD	FLAT:??_R0?AVbad_array_new_length@std@@@8
	DD	FLAT:??_R3bad_array_new_length@std@@8
rdata$r	ENDS
;	COMDAT ??_R1A@?0A@EA@bad_alloc@std@@8
rdata$r	SEGMENT
??_R1A@?0A@EA@bad_alloc@std@@8 DD FLAT:??_R0?AVbad_alloc@std@@@8 ; std::bad_alloc::`RTTI Base Class Descriptor at (0,-1,0,64)'
	DD	01H
	DD	00H
	DD	0ffffffffH
	DD	00H
	DD	040H
	DD	FLAT:??_R3bad_alloc@std@@8
rdata$r	ENDS
;	COMDAT ??_R2bad_alloc@std@@8
rdata$r	SEGMENT
??_R2bad_alloc@std@@8 DD FLAT:??_R1A@?0A@EA@bad_alloc@std@@8 ; std::bad_alloc::`RTTI Base Class Array'
	DD	FLAT:??_R1A@?0A@EA@exception@std@@8
rdata$r	ENDS
;	COMDAT ??_R3bad_alloc@std@@8
rdata$r	SEGMENT
??_R3bad_alloc@std@@8 DD 00H				; std::bad_alloc::`RTTI Class Hierarchy Descriptor'
	DD	00H
	DD	02H
	DD	FLAT:??_R2bad_alloc@std@@8
rdata$r	ENDS
;	COMDAT ??_R4bad_alloc@std@@6B@
rdata$r	SEGMENT
??_R4bad_alloc@std@@6B@ DD 00H				; std::bad_alloc::`RTTI Complete Object Locator'
	DD	00H
	DD	00H
	DD	FLAT:??_R0?AVbad_alloc@std@@@8
	DD	FLAT:??_R3bad_alloc@std@@8
rdata$r	ENDS
;	COMDAT ??_R1A@?0A@EA@exception@std@@8
rdata$r	SEGMENT
??_R1A@?0A@EA@exception@std@@8 DD FLAT:??_R0?AVexception@std@@@8 ; std::exception::`RTTI Base Class Descriptor at (0,-1,0,64)'
	DD	00H
	DD	00H
	DD	0ffffffffH
	DD	00H
	DD	040H
	DD	FLAT:??_R3exception@std@@8
rdata$r	ENDS
;	COMDAT ??_R2exception@std@@8
rdata$r	SEGMENT
??_R2exception@std@@8 DD FLAT:??_R1A@?0A@EA@exception@std@@8 ; std::exception::`RTTI Base Class Array'
rdata$r	ENDS
;	COMDAT ??_R3exception@std@@8
rdata$r	SEGMENT
??_R3exception@std@@8 DD 00H				; std::exception::`RTTI Class Hierarchy Descriptor'
	DD	00H
	DD	01H
	DD	FLAT:??_R2exception@std@@8
rdata$r	ENDS
;	COMDAT ??_R4exception@std@@6B@
rdata$r	SEGMENT
??_R4exception@std@@6B@ DD 00H				; std::exception::`RTTI Complete Object Locator'
	DD	00H
	DD	00H
	DD	FLAT:??_R0?AVexception@std@@@8
	DD	FLAT:??_R3exception@std@@8
rdata$r	ENDS
;	COMDAT __CT??_R0?AVexception@std@@@8??0exception@std@@QAE@ABV01@@Z12
xdata$x	SEGMENT
__CT??_R0?AVexception@std@@@8??0exception@std@@QAE@ABV01@@Z12 DD 00H
	DD	FLAT:??_R0?AVexception@std@@@8
	DD	00H
	DD	0ffffffffH
	ORG $+4
	DD	0cH
	DD	FLAT:??0exception@std@@QAE@ABV01@@Z
xdata$x	ENDS
;	COMDAT ??_R0?AVexception@std@@@8
data$r	SEGMENT
??_R0?AVexception@std@@@8 DD FLAT:??_7type_info@@6B@	; std::exception `RTTI Type Descriptor'
	DD	00H
	DB	'.?AVexception@std@@', 00H
data$r	ENDS
;	COMDAT __CT??_R0?AVbad_alloc@std@@@8??0bad_alloc@std@@QAE@ABV01@@Z12
xdata$x	SEGMENT
__CT??_R0?AVbad_alloc@std@@@8??0bad_alloc@std@@QAE@ABV01@@Z12 DD 010H
	DD	FLAT:??_R0?AVbad_alloc@std@@@8
	DD	00H
	DD	0ffffffffH
	ORG $+4
	DD	0cH
	DD	FLAT:??0bad_alloc@std@@QAE@ABV01@@Z
xdata$x	ENDS
;	COMDAT ??_R0?AVbad_alloc@std@@@8
data$r	SEGMENT
??_R0?AVbad_alloc@std@@@8 DD FLAT:??_7type_info@@6B@	; std::bad_alloc `RTTI Type Descriptor'
	DD	00H
	DB	'.?AVbad_alloc@std@@', 00H
data$r	ENDS
;	COMDAT __CT??_R0?AVbad_array_new_length@std@@@8??0bad_array_new_length@std@@QAE@ABV01@@Z12
xdata$x	SEGMENT
__CT??_R0?AVbad_array_new_length@std@@@8??0bad_array_new_length@std@@QAE@ABV01@@Z12 DD 00H
	DD	FLAT:??_R0?AVbad_array_new_length@std@@@8
	DD	00H
	DD	0ffffffffH
	ORG $+4
	DD	0cH
	DD	FLAT:??0bad_array_new_length@std@@QAE@ABV01@@Z
xdata$x	ENDS
;	COMDAT ??_R0?AVbad_array_new_length@std@@@8
data$r	SEGMENT
??_R0?AVbad_array_new_length@std@@@8 DD FLAT:??_7type_info@@6B@ ; std::bad_array_new_length `RTTI Type Descriptor'
	DD	00H
	DB	'.?AVbad_array_new_length@std@@', 00H
data$r	ENDS
;	COMDAT __CTA3?AVbad_array_new_length@std@@
xdata$x	SEGMENT
__CTA3?AVbad_array_new_length@std@@ DD 03H
	DD	FLAT:__CT??_R0?AVbad_array_new_length@std@@@8??0bad_array_new_length@std@@QAE@ABV01@@Z12
	DD	FLAT:__CT??_R0?AVbad_alloc@std@@@8??0bad_alloc@std@@QAE@ABV01@@Z12
	DD	FLAT:__CT??_R0?AVexception@std@@@8??0exception@std@@QAE@ABV01@@Z12
xdata$x	ENDS
;	COMDAT __TI3?AVbad_array_new_length@std@@
xdata$x	SEGMENT
__TI3?AVbad_array_new_length@std@@ DD 00H
	DD	FLAT:??1bad_array_new_length@std@@UAE@XZ
	DD	00H
	DD	FLAT:__CTA3?AVbad_array_new_length@std@@
xdata$x	ENDS
;	COMDAT ??_C@_0BF@KINCDENJ@bad?5array?5new?5length@
CONST	SEGMENT
??_C@_0BF@KINCDENJ@bad?5array?5new?5length@ DB 'bad array new length', 00H ; `string'
CONST	ENDS
;	COMDAT ??_7bad_array_new_length@std@@6B@
CONST	SEGMENT
??_7bad_array_new_length@std@@6B@ DD FLAT:??_R4bad_array_new_length@std@@6B@ ; std::bad_array_new_length::`vftable'
	DD	FLAT:??_Ebad_array_new_length@std@@UAEPAXI@Z
	DD	FLAT:?what@exception@std@@UBEPBDXZ
CONST	ENDS
;	COMDAT ??_7bad_alloc@std@@6B@
CONST	SEGMENT
??_7bad_alloc@std@@6B@ DD FLAT:??_R4bad_alloc@std@@6B@	; std::bad_alloc::`vftable'
	DD	FLAT:??_Ebad_alloc@std@@UAEPAXI@Z
	DD	FLAT:?what@exception@std@@UBEPBDXZ
CONST	ENDS
;	COMDAT ??_C@_0BC@EOODALEL@Unknown?5exception@
CONST	SEGMENT
??_C@_0BC@EOODALEL@Unknown?5exception@ DB 'Unknown exception', 00H ; `string'
CONST	ENDS
;	COMDAT ??_7exception@std@@6B@
CONST	SEGMENT
??_7exception@std@@6B@ DD FLAT:??_R4exception@std@@6B@	; std::exception::`vftable'
	DD	FLAT:??_Eexception@std@@UAEPAXI@Z
	DD	FLAT:?what@exception@std@@UBEPBDXZ
CONST	ENDS
;	COMDAT xdata$x
xdata$x	SEGMENT
__unwindtable$?Alloc@?$CDynamicPool@VCWeaponTrace@@@@QAEPAVCWeaponTrace@@XZ DD 0ffffffffH
	DD	FLAT:__unwindfunclet$?Alloc@?$CDynamicPool@VCWeaponTrace@@@@QAEPAVCWeaponTrace@@XZ$0
__ehfuncinfo$?Alloc@?$CDynamicPool@VCWeaponTrace@@@@QAEPAVCWeaponTrace@@XZ DD 019930522H
	DD	01H
	DD	FLAT:__unwindtable$?Alloc@?$CDynamicPool@VCWeaponTrace@@@@QAEPAVCWeaponTrace@@XZ
	DD	2 DUP(00H)
	DD	2 DUP(00H)
	DD	00H
	DD	01H
xdata$x	ENDS
;	COMDAT xdata$x
xdata$x	SEGMENT
__unwindtable$?BuildVertex@CWeaponTrace@@IAE_NXZ DD 0ffffffffH
	DD	FLAT:__unwindfunclet$?BuildVertex@CWeaponTrace@@IAE_NXZ$0
	DD	00H
	DD	FLAT:__unwindfunclet$?BuildVertex@CWeaponTrace@@IAE_NXZ$1
__ehfuncinfo$?BuildVertex@CWeaponTrace@@IAE_NXZ DD 019930522H
	DD	02H
	DD	FLAT:__unwindtable$?BuildVertex@CWeaponTrace@@IAE_NXZ
	DD	2 DUP(00H)
	DD	2 DUP(00H)
	DD	00H
	DD	01H
xdata$x	ENDS
;	COMDAT xdata$x
xdata$x	SEGMENT
__unwindtable$??0CWeaponTrace@@QAE@XZ DD 0ffffffffH
	DD	FLAT:__unwindfunclet$??0CWeaponTrace@@QAE@XZ$0
	DD	00H
	DD	FLAT:__unwindfunclet$??0CWeaponTrace@@QAE@XZ$1
	DD	01H
	DD	FLAT:__unwindfunclet$??0CWeaponTrace@@QAE@XZ$2
	DD	02H
	DD	FLAT:__unwindfunclet$??0CWeaponTrace@@QAE@XZ$3
__ehfuncinfo$??0CWeaponTrace@@QAE@XZ DD 019930522H
	DD	04H
	DD	FLAT:__unwindtable$??0CWeaponTrace@@QAE@XZ
	DD	2 DUP(00H)
	DD	2 DUP(00H)
	DD	00H
	DD	01H
xdata$x	ENDS
;	COMDAT xdata$x
xdata$x	SEGMENT
__unwindtable$?New@CWeaponTrace@@SAPAV1@XZ DD 0ffffffffH
	DD	FLAT:__unwindfunclet$?New@CWeaponTrace@@SAPAV1@XZ$0
__ehfuncinfo$?New@CWeaponTrace@@SAPAV1@XZ DD 019930522H
	DD	01H
	DD	FLAT:__unwindtable$?New@CWeaponTrace@@SAPAV1@XZ
	DD	2 DUP(00H)
	DD	2 DUP(00H)
	DD	00H
	DD	01H
xdata$x	ENDS
; Function compile flags: /Ogtp
; File C:\Program Files (x86)\Microsoft Visual Studio\2019\Community\VC\Tools\MSVC\14.28.29333\include\xutility
;	COMDAT ??$_Copy_memmove@PAPAVCWeaponTrace@@PAPAV1@@std@@YAPAPAVCWeaponTrace@@PAPAV1@00@Z
_TEXT	SEGMENT
__First$ = 8						; size = 4
__Last$ = 12						; size = 4
__Dest$ = 16						; size = 4
??$_Copy_memmove@PAPAVCWeaponTrace@@PAPAV1@@std@@YAPAPAVCWeaponTrace@@PAPAV1@00@Z PROC ; std::_Copy_memmove<CWeaponTrace * *,CWeaponTrace * *>, COMDAT

; 4360 : _OutIt _Copy_memmove(_InIt _First, _InIt _Last, _OutIt _Dest) {

  00000	55		 push	 ebp
  00001	8b ec		 mov	 ebp, esp

; 4361 :     const char* const _First_ch = const_cast<const char*>(reinterpret_cast<const volatile char*>(_First));
; 4362 :     const char* const _Last_ch  = const_cast<const char*>(reinterpret_cast<const volatile char*>(_Last));
; 4363 :     char* const _Dest_ch        = const_cast<char*>(reinterpret_cast<volatile char*>(_Dest));
; 4364 :     const auto _Count           = static_cast<size_t>(_Last_ch - _First_ch);

  00003	8b 45 08	 mov	 eax, DWORD PTR __First$[ebp]
  00006	56		 push	 esi

; 4365 :     _CSTD memmove(_Dest_ch, _First_ch, _Count);

  00007	8b 75 10	 mov	 esi, DWORD PTR __Dest$[ebp]
  0000a	57		 push	 edi
  0000b	8b 7d 0c	 mov	 edi, DWORD PTR __Last$[ebp]
  0000e	2b f8		 sub	 edi, eax
  00010	57		 push	 edi
  00011	50		 push	 eax
  00012	56		 push	 esi
  00013	e8 00 00 00 00	 call	 _memmove
  00018	83 c4 0c	 add	 esp, 12			; 0000000cH

; 4366 :     return reinterpret_cast<_OutIt>(_Dest_ch + _Count);

  0001b	8d 04 37	 lea	 eax, DWORD PTR [edi+esi]
  0001e	5f		 pop	 edi
  0001f	5e		 pop	 esi

; 4367 : }

  00020	5d		 pop	 ebp
  00021	c3		 ret	 0
??$_Copy_memmove@PAPAVCWeaponTrace@@PAPAV1@@std@@YAPAPAVCWeaponTrace@@PAPAV1@00@Z ENDP ; std::_Copy_memmove<CWeaponTrace * *,CWeaponTrace * *>
_TEXT	ENDS
; Function compile flags: /Ogtp
; File C:\Program Files (x86)\Microsoft Visual Studio\2019\Community\VC\Tools\MSVC\14.28.29333\include\xmemory
;	COMDAT ??$_Uninitialized_move@PAUSPDTVertex@@V?$allocator@USPDTVertex@@@std@@@std@@YAPAUSPDTVertex@@QAU1@0PAU1@AAV?$allocator@USPDTVertex@@@0@@Z
_TEXT	SEGMENT
__First$ = 8						; size = 4
__Last$ = 12						; size = 4
__Dest$ = 16						; size = 4
__Al$ = 20						; size = 4
??$_Uninitialized_move@PAUSPDTVertex@@V?$allocator@USPDTVertex@@@std@@@std@@YAPAUSPDTVertex@@QAU1@0PAU1@AAV?$allocator@USPDTVertex@@@0@@Z PROC ; std::_Uninitialized_move<SPDTVertex *,std::allocator<SPDTVertex> >, COMDAT

; 1685 :     const _InIt _First, const _InIt _Last, _Alloc_ptr_t<_Alloc> _Dest, _Alloc& _Al) {

  00000	55		 push	 ebp
  00001	8b ec		 mov	 ebp, esp

; 1686 :     // move [_First, _Last) to raw _Dest, using _Al
; 1687 :     // note: only called internally from elsewhere in the STL
; 1688 :     using _Ptrval     = typename _Alloc::value_type*;
; 1689 :     auto _UFirst      = _Get_unwrapped(_First);
; 1690 :     const auto _ULast = _Get_unwrapped(_Last);
; 1691 :     if constexpr (conjunction_v<bool_constant<_Ptr_move_cat<decltype(_UFirst), _Ptrval>::_Really_trivial>,
; 1692 :                       _Uses_default_construct<_Alloc, _Ptrval, decltype(_STD move(*_UFirst))>>) {
; 1693 :         _Copy_memmove(_UFirst, _ULast, _Unfancy(_Dest));
; 1694 :         return _Dest + (_ULast - _UFirst);
; 1695 :     } else {
; 1696 :         _Uninitialized_backout_al<_Alloc> _Backout{_Dest, _Al};
; 1697 :         for (; _UFirst != _ULast; ++_UFirst) {

  00003	8b 4d 08	 mov	 ecx, DWORD PTR __First$[ebp]
  00006	8b 55 0c	 mov	 edx, DWORD PTR __Last$[ebp]

; 1535 :     _Uninitialized_backout_al(pointer _Dest, _Alloc& _Al_) : _First(_Dest), _Last(_Dest), _Al(_Al_) {}

  00009	8b 45 10	 mov	 eax, DWORD PTR __Dest$[ebp]

; 1686 :     // move [_First, _Last) to raw _Dest, using _Al
; 1687 :     // note: only called internally from elsewhere in the STL
; 1688 :     using _Ptrval     = typename _Alloc::value_type*;
; 1689 :     auto _UFirst      = _Get_unwrapped(_First);
; 1690 :     const auto _ULast = _Get_unwrapped(_Last);
; 1691 :     if constexpr (conjunction_v<bool_constant<_Ptr_move_cat<decltype(_UFirst), _Ptrval>::_Really_trivial>,
; 1692 :                       _Uses_default_construct<_Alloc, _Ptrval, decltype(_STD move(*_UFirst))>>) {
; 1693 :         _Copy_memmove(_UFirst, _ULast, _Unfancy(_Dest));
; 1694 :         return _Dest + (_ULast - _UFirst);
; 1695 :     } else {
; 1696 :         _Uninitialized_backout_al<_Alloc> _Backout{_Dest, _Al};
; 1697 :         for (; _UFirst != _ULast; ++_UFirst) {

  0000c	3b ca		 cmp	 ecx, edx
  0000e	74 1a		 je	 SHORT $LN3@Uninitiali
$LL4@Uninitiali:

; 701  :         ::new (const_cast<void*>(static_cast<const volatile void*>(_Ptr))) _Objty(_STD forward<_Types>(_Args)...);

  00010	0f 10 01	 movups	 xmm0, XMMWORD PTR [ecx]
  00013	0f 11 00	 movups	 XMMWORD PTR [eax], xmm0
  00016	f3 0f 7e 41 10	 movq	 xmm0, QWORD PTR [ecx+16]

; 1547 :         ++_Last;

  0001b	83 c1 18	 add	 ecx, 24			; 00000018H

; 701  :         ::new (const_cast<void*>(static_cast<const volatile void*>(_Ptr))) _Objty(_STD forward<_Types>(_Args)...);

  0001e	66 0f d6 40 10	 movq	 QWORD PTR [eax+16], xmm0

; 1547 :         ++_Last;

  00023	83 c0 18	 add	 eax, 24			; 00000018H

; 1686 :     // move [_First, _Last) to raw _Dest, using _Al
; 1687 :     // note: only called internally from elsewhere in the STL
; 1688 :     using _Ptrval     = typename _Alloc::value_type*;
; 1689 :     auto _UFirst      = _Get_unwrapped(_First);
; 1690 :     const auto _ULast = _Get_unwrapped(_Last);
; 1691 :     if constexpr (conjunction_v<bool_constant<_Ptr_move_cat<decltype(_UFirst), _Ptrval>::_Really_trivial>,
; 1692 :                       _Uses_default_construct<_Alloc, _Ptrval, decltype(_STD move(*_UFirst))>>) {
; 1693 :         _Copy_memmove(_UFirst, _ULast, _Unfancy(_Dest));
; 1694 :         return _Dest + (_ULast - _UFirst);
; 1695 :     } else {
; 1696 :         _Uninitialized_backout_al<_Alloc> _Backout{_Dest, _Al};
; 1697 :         for (; _UFirst != _ULast; ++_UFirst) {

  00026	3b ca		 cmp	 ecx, edx
  00028	75 e6		 jne	 SHORT $LL4@Uninitiali
$LN3@Uninitiali:

; 1698 :             _Backout._Emplace_back(_STD move(*_UFirst));
; 1699 :         }
; 1700 : 
; 1701 :         return _Backout._Release();
; 1702 :     }
; 1703 : }

  0002a	5d		 pop	 ebp
  0002b	c3		 ret	 0
??$_Uninitialized_move@PAUSPDTVertex@@V?$allocator@USPDTVertex@@@std@@@std@@YAPAUSPDTVertex@@QAU1@0PAU1@AAV?$allocator@USPDTVertex@@@0@@Z ENDP ; std::_Uninitialized_move<SPDTVertex *,std::allocator<SPDTVertex> >
_TEXT	ENDS
; Function compile flags: /Ogtp
; File C:\Program Files (x86)\Microsoft Visual Studio\2019\Community\VC\Tools\MSVC\14.28.29333\include\xmemory
;	COMDAT ??$_Uninitialized_move@PAPAVCWeaponTrace@@V?$allocator@PAVCWeaponTrace@@@std@@@std@@YAPAPAVCWeaponTrace@@QAPAV1@0PAPAV1@AAV?$allocator@PAVCWeaponTrace@@@0@@Z
_TEXT	SEGMENT
__First$ = 8						; size = 4
__Last$ = 12						; size = 4
__Dest$ = 16						; size = 4
__Al$ = 20						; size = 4
??$_Uninitialized_move@PAPAVCWeaponTrace@@V?$allocator@PAVCWeaponTrace@@@std@@@std@@YAPAPAVCWeaponTrace@@QAPAV1@0PAPAV1@AAV?$allocator@PAVCWeaponTrace@@@0@@Z PROC ; std::_Uninitialized_move<CWeaponTrace * *,std::allocator<CWeaponTrace *> >, COMDAT

; 1685 :     const _InIt _First, const _InIt _Last, _Alloc_ptr_t<_Alloc> _Dest, _Alloc& _Al) {

  00000	55		 push	 ebp
  00001	8b ec		 mov	 ebp, esp
  00003	53		 push	 ebx

; 1686 :     // move [_First, _Last) to raw _Dest, using _Al
; 1687 :     // note: only called internally from elsewhere in the STL
; 1688 :     using _Ptrval     = typename _Alloc::value_type*;
; 1689 :     auto _UFirst      = _Get_unwrapped(_First);
; 1690 :     const auto _ULast = _Get_unwrapped(_Last);
; 1691 :     if constexpr (conjunction_v<bool_constant<_Ptr_move_cat<decltype(_UFirst), _Ptrval>::_Really_trivial>,
; 1692 :                       _Uses_default_construct<_Alloc, _Ptrval, decltype(_STD move(*_UFirst))>>) {
; 1693 :         _Copy_memmove(_UFirst, _ULast, _Unfancy(_Dest));

  00004	8b 5d 10	 mov	 ebx, DWORD PTR __Dest$[ebp]
  00007	57		 push	 edi
  00008	8b 7d 0c	 mov	 edi, DWORD PTR __Last$[ebp]
  0000b	53		 push	 ebx
  0000c	57		 push	 edi
  0000d	ff 75 08	 push	 DWORD PTR __First$[ebp]
  00010	e8 00 00 00 00	 call	 ??$_Copy_memmove@PAPAVCWeaponTrace@@PAPAV1@@std@@YAPAPAVCWeaponTrace@@PAPAV1@00@Z ; std::_Copy_memmove<CWeaponTrace * *,CWeaponTrace * *>

; 1694 :         return _Dest + (_ULast - _UFirst);

  00015	2b 7d 08	 sub	 edi, DWORD PTR __First$[ebp]
  00018	83 c4 0c	 add	 esp, 12			; 0000000cH
  0001b	c1 ff 02	 sar	 edi, 2
  0001e	8d 04 bb	 lea	 eax, DWORD PTR [ebx+edi*4]
  00021	5f		 pop	 edi
  00022	5b		 pop	 ebx

; 1695 :     } else {
; 1696 :         _Uninitialized_backout_al<_Alloc> _Backout{_Dest, _Al};
; 1697 :         for (; _UFirst != _ULast; ++_UFirst) {
; 1698 :             _Backout._Emplace_back(_STD move(*_UFirst));
; 1699 :         }
; 1700 : 
; 1701 :         return _Backout._Release();
; 1702 :     }
; 1703 : }

  00023	5d		 pop	 ebp
  00024	c3		 ret	 0
??$_Uninitialized_move@PAPAVCWeaponTrace@@V?$allocator@PAVCWeaponTrace@@@std@@@std@@YAPAPAVCWeaponTrace@@QAPAV1@0PAPAV1@AAV?$allocator@PAVCWeaponTrace@@@0@@Z ENDP ; std::_Uninitialized_move<CWeaponTrace * *,std::allocator<CWeaponTrace *> >
_TEXT	ENDS
; Function compile flags: /Ogtp
; File C:\Program Files (x86)\Microsoft Visual Studio\2019\Community\VC\Tools\MSVC\14.28.29333\include\xmemory
;	COMDAT ??$_Zero_range@PAPAU?$pair@MUD3DXVECTOR3@@@std@@@std@@YAPAPAU?$pair@MUD3DXVECTOR3@@@0@QAPAU10@0@Z
_TEXT	SEGMENT
__First$ = 8						; size = 4
__Last$ = 12						; size = 4
??$_Zero_range@PAPAU?$pair@MUD3DXVECTOR3@@@std@@@std@@YAPAPAU?$pair@MUD3DXVECTOR3@@@0@QAPAU10@0@Z PROC ; std::_Zero_range<std::pair<float,D3DXVECTOR3> * *>, COMDAT

; 1852 : _Ptr _Zero_range(const _Ptr _First, const _Ptr _Last) { // fill [_First, _Last) with zeroes

  00000	55		 push	 ebp
  00001	8b ec		 mov	 ebp, esp

; 1853 :     char* const _First_ch = reinterpret_cast<char*>(_First);
; 1854 :     char* const _Last_ch  = reinterpret_cast<char*>(_Last);
; 1855 :     _CSTD memset(_First_ch, 0, static_cast<size_t>(_Last_ch - _First_ch));

  00003	8b 55 08	 mov	 edx, DWORD PTR __First$[ebp]
  00006	8b 4d 0c	 mov	 ecx, DWORD PTR __Last$[ebp]
  00009	2b ca		 sub	 ecx, edx
  0000b	51		 push	 ecx
  0000c	6a 00		 push	 0
  0000e	52		 push	 edx
  0000f	e8 00 00 00 00	 call	 _memset

; 1856 :     return _Last;

  00014	8b 45 0c	 mov	 eax, DWORD PTR __Last$[ebp]
  00017	83 c4 0c	 add	 esp, 12			; 0000000cH

; 1857 : }

  0001a	5d		 pop	 ebp
  0001b	c3		 ret	 0
??$_Zero_range@PAPAU?$pair@MUD3DXVECTOR3@@@std@@@std@@YAPAPAU?$pair@MUD3DXVECTOR3@@@0@QAPAU10@0@Z ENDP ; std::_Zero_range<std::pair<float,D3DXVECTOR3> * *>
_TEXT	ENDS
; Function compile flags: /Ogtp
; File C:\Program Files (x86)\Microsoft Visual Studio\2019\Community\VC\Tools\MSVC\14.28.29333\include\xutility
;	COMDAT ??$_Copy_memmove@PAPAU?$pair@MUD3DXVECTOR3@@@std@@PAPAU12@@std@@YAPAPAU?$pair@MUD3DXVECTOR3@@@0@PAPAU10@00@Z
_TEXT	SEGMENT
__First$ = 8						; size = 4
__Last$ = 12						; size = 4
__Dest$ = 16						; size = 4
??$_Copy_memmove@PAPAU?$pair@MUD3DXVECTOR3@@@std@@PAPAU12@@std@@YAPAPAU?$pair@MUD3DXVECTOR3@@@0@PAPAU10@00@Z PROC ; std::_Copy_memmove<std::pair<float,D3DXVECTOR3> * *,std::pair<float,D3DXVECTOR3> * *>, COMDAT

; 4360 : _OutIt _Copy_memmove(_InIt _First, _InIt _Last, _OutIt _Dest) {

  00000	55		 push	 ebp
  00001	8b ec		 mov	 ebp, esp

; 4361 :     const char* const _First_ch = const_cast<const char*>(reinterpret_cast<const volatile char*>(_First));
; 4362 :     const char* const _Last_ch  = const_cast<const char*>(reinterpret_cast<const volatile char*>(_Last));
; 4363 :     char* const _Dest_ch        = const_cast<char*>(reinterpret_cast<volatile char*>(_Dest));
; 4364 :     const auto _Count           = static_cast<size_t>(_Last_ch - _First_ch);

  00003	8b 45 08	 mov	 eax, DWORD PTR __First$[ebp]
  00006	56		 push	 esi

; 4365 :     _CSTD memmove(_Dest_ch, _First_ch, _Count);

  00007	8b 75 10	 mov	 esi, DWORD PTR __Dest$[ebp]
  0000a	57		 push	 edi
  0000b	8b 7d 0c	 mov	 edi, DWORD PTR __Last$[ebp]
  0000e	2b f8		 sub	 edi, eax
  00010	57		 push	 edi
  00011	50		 push	 eax
  00012	56		 push	 esi
  00013	e8 00 00 00 00	 call	 _memmove
  00018	83 c4 0c	 add	 esp, 12			; 0000000cH

; 4366 :     return reinterpret_cast<_OutIt>(_Dest_ch + _Count);

  0001b	8d 04 37	 lea	 eax, DWORD PTR [edi+esi]
  0001e	5f		 pop	 edi
  0001f	5e		 pop	 esi

; 4367 : }

  00020	5d		 pop	 ebp
  00021	c3		 ret	 0
??$_Copy_memmove@PAPAU?$pair@MUD3DXVECTOR3@@@std@@PAPAU12@@std@@YAPAPAU?$pair@MUD3DXVECTOR3@@@0@PAPAU10@00@Z ENDP ; std::_Copy_memmove<std::pair<float,D3DXVECTOR3> * *,std::pair<float,D3DXVECTOR3> * *>
_TEXT	ENDS
; Function compile flags: /Ogtp
; File C:\Program Files (x86)\Microsoft Visual Studio\2019\Community\VC\Tools\MSVC\14.28.29333\include\xmemory
;	COMDAT ??$_Construct_in_place@U_Container_proxy@std@@PAU_Container_base12@2@@std@@YAXAAU_Container_proxy@0@$$QAPAU_Container_base12@0@@Z
_TEXT	SEGMENT
__Obj$ = 8						; size = 4
_<_Args_0>$ = 12					; size = 4
??$_Construct_in_place@U_Container_proxy@std@@PAU_Container_base12@2@@std@@YAXAAU_Container_proxy@0@$$QAPAU_Container_base12@0@@Z PROC ; std::_Construct_in_place<std::_Container_proxy,std::_Container_base12 *>, COMDAT

; 228  : void _Construct_in_place(_Ty& _Obj, _Types&&... _Args) noexcept(is_nothrow_constructible_v<_Ty, _Types...>) {

  00000	55		 push	 ebp
  00001	8b ec		 mov	 ebp, esp

; 1089 :     _Container_proxy(_Container_base12* _Mycont_) noexcept : _Mycont(_Mycont_), _Myfirstiter(nullptr) {}

  00003	8b 45 0c	 mov	 eax, DWORD PTR _<_Args_0>$[ebp]
  00006	8b 4d 08	 mov	 ecx, DWORD PTR __Obj$[ebp]
  00009	8b 00		 mov	 eax, DWORD PTR [eax]
  0000b	89 01		 mov	 DWORD PTR [ecx], eax
  0000d	c7 41 04 00 00
	00 00		 mov	 DWORD PTR [ecx+4], 0

; 229  :     ::new (const_cast<void*>(static_cast<const volatile void*>(_STD addressof(_Obj))))
; 230  :         _Ty(_STD forward<_Types>(_Args)...);
; 231  : }

  00014	5d		 pop	 ebp
  00015	c3		 ret	 0
??$_Construct_in_place@U_Container_proxy@std@@PAU_Container_base12@2@@std@@YAXAAU_Container_proxy@0@$$QAPAU_Container_base12@0@@Z ENDP ; std::_Construct_in_place<std::_Container_proxy,std::_Container_base12 *>
_TEXT	ENDS
; Function compile flags: /Ogtp
; File C:\Program Files (x86)\Microsoft Visual Studio\2019\Community\VC\Tools\MSVC\14.28.29333\include\xmemory
;	COMDAT ??$_Deallocate_plain@V?$allocator@U_Container_proxy@std@@@std@@@std@@YAXAAV?$allocator@U_Container_proxy@std@@@0@QAU_Container_proxy@0@@Z
_TEXT	SEGMENT
__Al$ = 8						; size = 4
__Ptr$ = 12						; size = 4
??$_Deallocate_plain@V?$allocator@U_Container_proxy@std@@@std@@@std@@YAXAAV?$allocator@U_Container_proxy@std@@@0@QAU_Container_proxy@0@@Z PROC ; std::_Deallocate_plain<std::allocator<std::_Container_proxy> >, COMDAT

; 1003 : void _Deallocate_plain(_Alloc& _Al, typename _Alloc::value_type* const _Ptr) noexcept {

  00000	55		 push	 ebp
  00001	8b ec		 mov	 ebp, esp

; 696  :         _Deallocate<_New_alignof<value_type>>(_Ptr, sizeof(value_type) * _Count);

  00003	6a 08		 push	 8
  00005	ff 75 0c	 push	 DWORD PTR __Ptr$[ebp]
  00008	e8 00 00 00 00	 call	 ??$_Deallocate@$07$0A@@std@@YAXPAXI@Z ; std::_Deallocate<8,0>
  0000d	83 c4 08	 add	 esp, 8

; 1004 :     // deallocate a plain pointer using an allocator
; 1005 :     using _Alloc_traits = allocator_traits<_Alloc>;
; 1006 :     if constexpr (is_same_v<_Alloc_ptr_t<_Alloc>, typename _Alloc::value_type*>) {
; 1007 :         _Alloc_traits::deallocate(_Al, _Ptr, 1);
; 1008 :     } else {
; 1009 :         using _Ptr_traits = pointer_traits<_Alloc_ptr_t<_Alloc>>;
; 1010 :         _Alloc_traits::deallocate(_Al, _Ptr_traits::pointer_to(*_Ptr), 1);
; 1011 :     }
; 1012 : }

  00010	5d		 pop	 ebp
  00011	c3		 ret	 0
??$_Deallocate_plain@V?$allocator@U_Container_proxy@std@@@std@@@std@@YAXAAV?$allocator@U_Container_proxy@std@@@0@QAU_Container_proxy@0@@Z ENDP ; std::_Deallocate_plain<std::allocator<std::_Container_proxy> >
_TEXT	ENDS
; Function compile flags: /Ogtp
; File C:\Program Files (x86)\Microsoft Visual Studio\2019\Community\VC\Tools\MSVC\14.28.29333\include\xmemory
;	COMDAT ??$_Destroy_range@V?$allocator@PAVCWeaponTrace@@@std@@@std@@YAXPAPAVCWeaponTrace@@QAPAV1@AAV?$allocator@PAVCWeaponTrace@@@0@@Z
_TEXT	SEGMENT
__First$ = 8						; size = 4
__Last$ = 12						; size = 4
__Al$ = 16						; size = 4
??$_Destroy_range@V?$allocator@PAVCWeaponTrace@@@std@@@std@@YAXPAPAVCWeaponTrace@@QAPAV1@AAV?$allocator@PAVCWeaponTrace@@@0@@Z PROC ; std::_Destroy_range<std::allocator<CWeaponTrace *> >, COMDAT

; 963  :     // note that this is an optimization for debug mode codegen; in release mode the BE removes all of this
; 964  :     using _Ty = typename _Alloc::value_type;
; 965  :     if _CONSTEXPR_IF (!conjunction_v<is_trivially_destructible<_Ty>, _Uses_default_destroy<_Alloc, _Ty*>>) {
; 966  :         for (; _First != _Last; ++_First) {
; 967  :             allocator_traits<_Alloc>::destroy(_Al, _Unfancy(_First));
; 968  :         }
; 969  :     }
; 970  : }

  00000	c2 00 00	 ret	 0
??$_Destroy_range@V?$allocator@PAVCWeaponTrace@@@std@@@std@@YAXPAPAVCWeaponTrace@@QAPAV1@AAV?$allocator@PAVCWeaponTrace@@@0@@Z ENDP ; std::_Destroy_range<std::allocator<CWeaponTrace *> >
_TEXT	ENDS
; Function compile flags: /Ogtp
; File C:\Program Files (x86)\Microsoft Visual Studio\2019\Community\VC\Tools\MSVC\14.28.29333\include\xmemory
;	COMDAT ??$_Destroy_range@PAPAU?$pair@MUD3DXVECTOR3@@@std@@PAPAU12@@std@@YAXPAPAU?$pair@MUD3DXVECTOR3@@@0@QAPAU10@@Z
_TEXT	SEGMENT
__First$ = 8						; size = 4
__Last$ = 12						; size = 4
??$_Destroy_range@PAPAU?$pair@MUD3DXVECTOR3@@@std@@PAPAU12@@std@@YAXPAPAU?$pair@MUD3DXVECTOR3@@@0@QAPAU10@@Z PROC ; std::_Destroy_range<std::pair<float,D3DXVECTOR3> * *,std::pair<float,D3DXVECTOR3> * *>, COMDAT

; 975  :     // note that this is an optimization for debug mode codegen; in release mode the BE removes all of this
; 976  :     if _CONSTEXPR_IF (!is_trivially_destructible_v<_Iter_value_t<_NoThrowFwdIt>>) {
; 977  :         for (; _First != _Last; ++_First) {
; 978  :             _Destroy_in_place(*_First);
; 979  :         }
; 980  :     }
; 981  : }

  00000	c2 00 00	 ret	 0
??$_Destroy_range@PAPAU?$pair@MUD3DXVECTOR3@@@std@@PAPAU12@@std@@YAXPAPAU?$pair@MUD3DXVECTOR3@@@0@QAPAU10@@Z ENDP ; std::_Destroy_range<std::pair<float,D3DXVECTOR3> * *,std::pair<float,D3DXVECTOR3> * *>
_TEXT	ENDS
; Function compile flags: /Ogtp
; File C:\Program Files (x86)\Microsoft Visual Studio\2019\Community\VC\Tools\MSVC\14.28.29333\include\xmemory
;	COMDAT ??$_Uninitialized_value_construct_n_unchecked1@PAPAU?$pair@MUD3DXVECTOR3@@@std@@I@std@@YAPAPAU?$pair@MUD3DXVECTOR3@@@0@PAPAU10@I@Z
_TEXT	SEGMENT
__UFirst$ = 8						; size = 4
__Count$ = 12						; size = 4
??$_Uninitialized_value_construct_n_unchecked1@PAPAU?$pair@MUD3DXVECTOR3@@@std@@I@std@@YAPAPAU?$pair@MUD3DXVECTOR3@@@0@PAPAU10@I@Z PROC ; std::_Uninitialized_value_construct_n_unchecked1<std::pair<float,D3DXVECTOR3> * *,unsigned int>, COMDAT

; 1912 : _NoThrowFwdIt _Uninitialized_value_construct_n_unchecked1(_NoThrowFwdIt _UFirst, _Diff _Count) {

  00000	55		 push	 ebp
  00001	8b ec		 mov	 ebp, esp

; 1913 :     // value-initialize all elements in [_UFirst, _UFirst + _Count_raw)
; 1914 :     _STL_INTERNAL_CHECK(_Count >= 0);
; 1915 :     if constexpr (_Use_memset_value_construct_v<_NoThrowFwdIt>) {
; 1916 :         return _Zero_range(_UFirst, _UFirst + _Count);

  00003	8b 4d 08	 mov	 ecx, DWORD PTR __UFirst$[ebp]
  00006	8b 45 0c	 mov	 eax, DWORD PTR __Count$[ebp]
  00009	8d 04 81	 lea	 eax, DWORD PTR [ecx+eax*4]
  0000c	89 45 0c	 mov	 DWORD PTR __Count$[ebp], eax
  0000f	89 4d 08	 mov	 DWORD PTR __UFirst$[ebp], ecx

; 1917 :     } else {
; 1918 :         _Uninitialized_backout<_NoThrowFwdIt> _Backout{_UFirst};
; 1919 :         for (; 0 < _Count; --_Count) {
; 1920 :             _Backout._Emplace_back();
; 1921 :         }
; 1922 : 
; 1923 :         return _Backout._Release();
; 1924 :     }
; 1925 : }

  00012	5d		 pop	 ebp

; 1913 :     // value-initialize all elements in [_UFirst, _UFirst + _Count_raw)
; 1914 :     _STL_INTERNAL_CHECK(_Count >= 0);
; 1915 :     if constexpr (_Use_memset_value_construct_v<_NoThrowFwdIt>) {
; 1916 :         return _Zero_range(_UFirst, _UFirst + _Count);

  00013	e9 00 00 00 00	 jmp	 ??$_Zero_range@PAPAU?$pair@MUD3DXVECTOR3@@@std@@@std@@YAPAPAU?$pair@MUD3DXVECTOR3@@@0@QAPAU10@0@Z ; std::_Zero_range<std::pair<float,D3DXVECTOR3> * *>
??$_Uninitialized_value_construct_n_unchecked1@PAPAU?$pair@MUD3DXVECTOR3@@@std@@I@std@@YAPAPAU?$pair@MUD3DXVECTOR3@@@0@PAPAU10@I@Z ENDP ; std::_Uninitialized_value_construct_n_unchecked1<std::pair<float,D3DXVECTOR3> * *,unsigned int>
_TEXT	ENDS
; Function compile flags: /Ogtp
; File C:\Program Files (x86)\Microsoft Visual Studio\2019\Community\VC\Tools\MSVC\14.28.29333\include\xmemory
;	COMDAT ??$uninitialized_copy@PAPAU?$pair@MUD3DXVECTOR3@@@std@@PAPAU12@@std@@YAPAPAU?$pair@MUD3DXVECTOR3@@@0@QAPAU10@0PAPAU10@@Z
_TEXT	SEGMENT
__First$ = 8						; size = 4
__Last$ = 12						; size = 4
__Dest$ = 16						; size = 4
??$uninitialized_copy@PAPAU?$pair@MUD3DXVECTOR3@@@std@@PAPAU12@@std@@YAPAPAU?$pair@MUD3DXVECTOR3@@@0@QAPAU10@0PAPAU10@@Z PROC ; std::uninitialized_copy<std::pair<float,D3DXVECTOR3> * *,std::pair<float,D3DXVECTOR3> * *>, COMDAT

; 1629 : _NoThrowFwdIt uninitialized_copy(const _InIt _First, const _InIt _Last, _NoThrowFwdIt _Dest) {

  00000	55		 push	 ebp
  00001	8b ec		 mov	 ebp, esp

; 1637 :     } else {
; 1638 :         _Uninitialized_backout<decltype(_UDest)> _Backout{_UDest};
; 1639 :         for (; _UFirst != _ULast; ++_UFirst) {
; 1640 :             _Backout._Emplace_back(*_UFirst);
; 1641 :         }
; 1642 : 
; 1643 :         _UDest = _Backout._Release();
; 1644 :     }
; 1645 : 
; 1646 :     _Seek_wrapped(_Dest, _UDest);
; 1647 :     return _Dest;
; 1648 : }

  00003	5d		 pop	 ebp

; 1630 :     // copy [_First, _Last) to raw [_Dest, ...)
; 1631 :     _Adl_verify_range(_First, _Last);
; 1632 :     auto _UFirst      = _Get_unwrapped(_First);
; 1633 :     const auto _ULast = _Get_unwrapped(_Last);
; 1634 :     auto _UDest       = _Get_unwrapped_n(_Dest, _Idl_distance<_InIt>(_UFirst, _ULast));
; 1635 :     if constexpr (_Ptr_copy_cat<decltype(_UFirst), decltype(_UDest)>::_Really_trivial) {
; 1636 :         _UDest = _Copy_memmove(_UFirst, _ULast, _UDest);

  00004	e9 00 00 00 00	 jmp	 ??$_Copy_memmove@PAPAU?$pair@MUD3DXVECTOR3@@@std@@PAPAU12@@std@@YAPAPAU?$pair@MUD3DXVECTOR3@@@0@PAPAU10@00@Z ; std::_Copy_memmove<std::pair<float,D3DXVECTOR3> * *,std::pair<float,D3DXVECTOR3> * *>
??$uninitialized_copy@PAPAU?$pair@MUD3DXVECTOR3@@@std@@PAPAU12@@std@@YAPAPAU?$pair@MUD3DXVECTOR3@@@0@QAPAU10@0PAPAU10@@Z ENDP ; std::uninitialized_copy<std::pair<float,D3DXVECTOR3> * *,std::pair<float,D3DXVECTOR3> * *>
_TEXT	ENDS
; Function compile flags: /Ogtp
; File C:\Program Files (x86)\Microsoft Visual Studio\2019\Community\VC\Tools\MSVC\14.28.29333\include\xmemory
;	COMDAT ??$_Destroy_in_place@PAU?$pair@MUD3DXVECTOR3@@@std@@@std@@YAXAAPAU?$pair@MUD3DXVECTOR3@@@0@@Z
_TEXT	SEGMENT
__Obj$ = 8						; size = 4
??$_Destroy_in_place@PAU?$pair@MUD3DXVECTOR3@@@std@@@std@@YAXAAPAU?$pair@MUD3DXVECTOR3@@@0@@Z PROC ; std::_Destroy_in_place<std::pair<float,D3DXVECTOR3> *>, COMDAT

; 271  : #if _HAS_IF_CONSTEXPR
; 272  :     if constexpr (is_array_v<_Ty>) {
; 273  :         _Destroy_range(_Obj, _Obj + extent_v<_Ty>);
; 274  :     } else
; 275  : #endif // _HAS_IF_CONSTEXPR
; 276  :     {
; 277  :         _Obj.~_Ty();
; 278  :     }
; 279  : }

  00000	c2 00 00	 ret	 0
??$_Destroy_in_place@PAU?$pair@MUD3DXVECTOR3@@@std@@@std@@YAXAAPAU?$pair@MUD3DXVECTOR3@@@0@@Z ENDP ; std::_Destroy_in_place<std::pair<float,D3DXVECTOR3> *>
_TEXT	ENDS
; Function compile flags: /Ogtp
; File C:\Program Files (x86)\Microsoft Visual Studio\2019\Community\VC\Tools\MSVC\14.28.29333\include\xmemory
;	COMDAT ??$_Destroy_range@V?$allocator@USPDTVertex@@@std@@@std@@YAXPAUSPDTVertex@@QAU1@AAV?$allocator@USPDTVertex@@@0@@Z
_TEXT	SEGMENT
__First$ = 8						; size = 4
__Last$ = 12						; size = 4
__Al$ = 16						; size = 4
??$_Destroy_range@V?$allocator@USPDTVertex@@@std@@@std@@YAXPAUSPDTVertex@@QAU1@AAV?$allocator@USPDTVertex@@@0@@Z PROC ; std::_Destroy_range<std::allocator<SPDTVertex> >, COMDAT

; 963  :     // note that this is an optimization for debug mode codegen; in release mode the BE removes all of this
; 964  :     using _Ty = typename _Alloc::value_type;
; 965  :     if _CONSTEXPR_IF (!conjunction_v<is_trivially_destructible<_Ty>, _Uses_default_destroy<_Alloc, _Ty*>>) {
; 966  :         for (; _First != _Last; ++_First) {
; 967  :             allocator_traits<_Alloc>::destroy(_Al, _Unfancy(_First));
; 968  :         }
; 969  :     }
; 970  : }

  00000	c2 00 00	 ret	 0
??$_Destroy_range@V?$allocator@USPDTVertex@@@std@@@std@@YAXPAUSPDTVertex@@QAU1@AAV?$allocator@USPDTVertex@@@0@@Z ENDP ; std::_Destroy_range<std::allocator<SPDTVertex> >
_TEXT	ENDS
; Function compile flags: /Ogtp
; File C:\Program Files (x86)\Microsoft Visual Studio\2019\Community\VC\Tools\MSVC\14.28.29333\include\vector
; File C:\Program Files (x86)\Microsoft Visual Studio\2019\Community\VC\Tools\MSVC\14.28.29333\include\xmemory
; File C:\Program Files (x86)\Microsoft Visual Studio\2019\Community\VC\Tools\MSVC\14.28.29333\include\vector
; File C:\Program Files (x86)\Microsoft Visual Studio\2019\Community\VC\Tools\MSVC\14.28.29333\include\xmemory
; File C:\Program Files (x86)\Microsoft Visual Studio\2019\Community\VC\Tools\MSVC\14.28.29333\include\vector
; File C:\Program Files (x86)\Microsoft Visual Studio\2019\Community\VC\Tools\MSVC\14.28.29333\include\xmemory
; File C:\Program Files (x86)\Microsoft Visual Studio\2019\Community\VC\Tools\MSVC\14.28.29333\include\vector
; File C:\Program Files (x86)\Microsoft Visual Studio\2019\Community\VC\Tools\MSVC\14.28.29333\include\xmemory
; File C:\Program Files (x86)\Microsoft Visual Studio\2019\Community\VC\Tools\MSVC\14.28.29333\include\vector
; File C:\Program Files (x86)\Microsoft Visual Studio\2019\Community\VC\Tools\MSVC\14.28.29333\include\xmemory
; File C:\Program Files (x86)\Microsoft Visual Studio\2019\Community\VC\Tools\MSVC\14.28.29333\include\vector
; File C:\Program Files (x86)\Microsoft Visual Studio\2019\Community\VC\Tools\MSVC\14.28.29333\include\xmemory
; File C:\Program Files (x86)\Microsoft Visual Studio\2019\Community\VC\Tools\MSVC\14.28.29333\include\vector
;	COMDAT ??$_Emplace_reallocate@ABQAVCWeaponTrace@@@?$vector@PAVCWeaponTrace@@V?$allocator@PAVCWeaponTrace@@@std@@@std@@QAEPAPAVCWeaponTrace@@QAPAV2@ABQAV2@@Z
_TEXT	SEGMENT
tv435 = -12						; size = 4
__Newsize$1$ = -8					; size = 4
tv434 = -4						; size = 4
__Whereptr$ = 8						; size = 4
_<_Val_0>$ = 12						; size = 4
??$_Emplace_reallocate@ABQAVCWeaponTrace@@@?$vector@PAVCWeaponTrace@@V?$allocator@PAVCWeaponTrace@@@std@@@std@@QAEPAPAVCWeaponTrace@@QAPAV2@ABQAV2@@Z PROC ; std::vector<CWeaponTrace *,std::allocator<CWeaponTrace *> >::_Emplace_reallocate<CWeaponTrace * const &>, COMDAT
; _this$ = ecx

; 725  :     pointer _Emplace_reallocate(const pointer _Whereptr, _Valty&&... _Val) {

  00000	55		 push	 ebp
  00001	8b ec		 mov	 ebp, esp
  00003	83 ec 0c	 sub	 esp, 12			; 0000000cH
  00006	53		 push	 ebx

; 726  :         // reallocate and insert by perfectly forwarding _Val at _Whereptr
; 727  :         _Alty& _Al        = _Getal();
; 728  :         auto& _My_data    = _Mypair._Myval2;
; 729  :         pointer& _Myfirst = _My_data._Myfirst;
; 730  :         pointer& _Mylast  = _My_data._Mylast;
; 731  : 
; 732  :         _STL_INTERNAL_CHECK(_Mylast == _My_data._Myend); // check that we have no unused capacity
; 733  : 
; 734  :         const auto _Whereoff = static_cast<size_type>(_Whereptr - _Myfirst);

  00007	8b 5d 08	 mov	 ebx, DWORD PTR __Whereptr$[ebp]
  0000a	56		 push	 esi
  0000b	8b f1		 mov	 esi, ecx
  0000d	57		 push	 edi
  0000e	8b 16		 mov	 edx, DWORD PTR [esi]
  00010	2b da		 sub	 ebx, edx

; 735  :         const auto _Oldsize  = static_cast<size_type>(_Mylast - _Myfirst);

  00012	8b 46 04	 mov	 eax, DWORD PTR [esi+4]
  00015	2b c2		 sub	 eax, edx
  00017	c1 fb 02	 sar	 ebx, 2
  0001a	c1 f8 02	 sar	 eax, 2

; 736  : 
; 737  :         if (_Oldsize == max_size()) {

  0001d	3d ff ff ff 3f	 cmp	 eax, 1073741823		; 3fffffffH
  00022	0f 84 c4 00 00
	00		 je	 $LN39@Emplace_re

; 1494 :         return static_cast<size_type>(_My_data._Myend - _My_data._Myfirst);

  00028	8b 4e 08	 mov	 ecx, DWORD PTR [esi+8]

; 739  :         }
; 740  : 
; 741  :         const size_type _Newsize     = _Oldsize + 1;

  0002b	8d 78 01	 lea	 edi, DWORD PTR [eax+1]

; 1494 :         return static_cast<size_type>(_My_data._Myend - _My_data._Myfirst);

  0002e	2b ca		 sub	 ecx, edx

; 739  :         }
; 740  : 
; 741  :         const size_type _Newsize     = _Oldsize + 1;

  00030	89 7d f8	 mov	 DWORD PTR __Newsize$1$[ebp], edi

; 1494 :         return static_cast<size_type>(_My_data._Myend - _My_data._Myfirst);

  00033	c1 f9 02	 sar	 ecx, 2

; 1620 :         if (_Oldcapacity > _Max - _Oldcapacity / 2) {

  00036	b8 ff ff ff 3f	 mov	 eax, 1073741823		; 3fffffffH
  0003b	8b d1		 mov	 edx, ecx
  0003d	d1 ea		 shr	 edx, 1
  0003f	2b c2		 sub	 eax, edx
  00041	3b c8		 cmp	 ecx, eax
  00043	76 3a		 jbe	 SHORT $LN12@Emplace_re

; 1621 :             return _Max; // geometric growth would overflow

  00045	b9 ff ff ff 3f	 mov	 ecx, 1073741823		; 3fffffffH
$LN20@Emplace_re:
; File C:\Program Files (x86)\Microsoft Visual Studio\2019\Community\VC\Tools\MSVC\14.28.29333\include\xmemory

; 65   :     return _Count * _Ty_size;

  0004a	8d 04 8d 00 00
	00 00		 lea	 eax, DWORD PTR [ecx*4]

; 814  :         return static_cast<_Ty*>(_Allocate<_New_alignof<_Ty>>(_Get_size_of_n<sizeof(_Ty)>(_Count)));

  00051	50		 push	 eax

; 65   :     return _Count * _Ty_size;

  00052	89 45 f4	 mov	 DWORD PTR tv435[ebp], eax

; 814  :         return static_cast<_Ty*>(_Allocate<_New_alignof<_Ty>>(_Get_size_of_n<sizeof(_Ty)>(_Count)));

  00055	e8 00 00 00 00	 call	 ??$_Allocate@$07U_Default_allocate_traits@std@@$0A@@std@@YAPAXI@Z ; std::_Allocate<8,std::_Default_allocate_traits,0>
; File C:\Program Files (x86)\Microsoft Visual Studio\2019\Community\VC\Tools\MSVC\14.28.29333\include\vector

; 749  :         _Alty_traits::construct(_Al, _Unfancy(_Newvec + _Whereoff), _STD forward<_Valty>(_Val)...);

  0005a	8b 4d 0c	 mov	 ecx, DWORD PTR _<_Val_0>$[ebp]
; File C:\Program Files (x86)\Microsoft Visual Studio\2019\Community\VC\Tools\MSVC\14.28.29333\include\xmemory

; 814  :         return static_cast<_Ty*>(_Allocate<_New_alignof<_Ty>>(_Get_size_of_n<sizeof(_Ty)>(_Count)));

  0005d	8b f8		 mov	 edi, eax
; File C:\Program Files (x86)\Microsoft Visual Studio\2019\Community\VC\Tools\MSVC\14.28.29333\include\vector

; 749  :         _Alty_traits::construct(_Al, _Unfancy(_Newvec + _Whereoff), _STD forward<_Valty>(_Val)...);

  0005f	8d 04 9f	 lea	 eax, DWORD PTR [edi+ebx*4]
; File C:\Program Files (x86)\Microsoft Visual Studio\2019\Community\VC\Tools\MSVC\14.28.29333\include\xmemory

; 814  :         return static_cast<_Ty*>(_Allocate<_New_alignof<_Ty>>(_Get_size_of_n<sizeof(_Ty)>(_Count)));

  00062	83 c4 04	 add	 esp, 4
; File C:\Program Files (x86)\Microsoft Visual Studio\2019\Community\VC\Tools\MSVC\14.28.29333\include\vector

; 752  :         if (_Whereptr == _Mylast) { // at back, provide strong guarantee

  00065	8b 5d 08	 mov	 ebx, DWORD PTR __Whereptr$[ebp]
  00068	89 45 fc	 mov	 DWORD PTR tv434[ebp], eax
  0006b	8b 09		 mov	 ecx, DWORD PTR [ecx]
  0006d	89 08		 mov	 DWORD PTR [eax], ecx
  0006f	8b 56 04	 mov	 edx, DWORD PTR [esi+4]
  00072	8b 0e		 mov	 ecx, DWORD PTR [esi]
  00074	3b da		 cmp	 ebx, edx
  00076	75 1b		 jne	 SHORT $LN4@Emplace_re

; 753  :             _Umove_if_noexcept(_Myfirst, _Mylast, _Newvec);
; 754  :         } else { // provide basic guarantee

  00078	8b 5d fc	 mov	 ebx, DWORD PTR tv434[ebp]

; 1597 :         _Uninitialized_move(_First, _Last, _Dest, _Getal());

  0007b	8b c7		 mov	 eax, edi

; 753  :             _Umove_if_noexcept(_Myfirst, _Mylast, _Newvec);
; 754  :         } else { // provide basic guarantee

  0007d	eb 2b		 jmp	 SHORT $LN5@Emplace_re
$LN12@Emplace_re:

; 1624 :         const size_type _Geometric = _Oldcapacity + _Oldcapacity / 2;

  0007f	8d 04 0a	 lea	 eax, DWORD PTR [edx+ecx]
; File C:\Program Files (x86)\Microsoft Visual Studio\2019\Community\VC\Tools\MSVC\14.28.29333\include\xmemory

; 60   :         if (_Count > _Max_possible) {

  00082	8b cf		 mov	 ecx, edi
  00084	3b c7		 cmp	 eax, edi
  00086	0f 43 c8	 cmovae	 ecx, eax
  00089	81 f9 ff ff ff
	3f		 cmp	 ecx, 1073741823		; 3fffffffH
  0008f	77 60		 ja	 SHORT $LN40@Emplace_re
  00091	eb b7		 jmp	 SHORT $LN20@Emplace_re
$LN4@Emplace_re:
; File C:\Program Files (x86)\Microsoft Visual Studio\2019\Community\VC\Tools\MSVC\14.28.29333\include\vector

; 1592 :         return _Uninitialized_move(_First, _Last, _Dest, _Getal());

  00093	56		 push	 esi
  00094	57		 push	 edi
  00095	53		 push	 ebx
  00096	51		 push	 ecx
  00097	e8 00 00 00 00	 call	 ??$_Uninitialized_move@PAPAVCWeaponTrace@@V?$allocator@PAVCWeaponTrace@@@std@@@std@@YAPAPAVCWeaponTrace@@QAPAV1@0PAPAV1@AAV?$allocator@PAVCWeaponTrace@@@0@@Z ; std::_Uninitialized_move<CWeaponTrace * *,std::allocator<CWeaponTrace *> >
  0009c	8b 56 04	 mov	 edx, DWORD PTR [esi+4]
  0009f	8b cb		 mov	 ecx, ebx

; 755  :             _Umove(_Myfirst, _Whereptr, _Newvec);
; 756  :             _Constructed_first = _Newvec;
; 757  :             _Umove(_Whereptr, _Mylast, _Newvec + _Whereoff + 1);

  000a1	8b 5d fc	 mov	 ebx, DWORD PTR tv434[ebp]

; 1592 :         return _Uninitialized_move(_First, _Last, _Dest, _Getal());

  000a4	83 c4 10	 add	 esp, 16			; 00000010H

; 755  :             _Umove(_Myfirst, _Whereptr, _Newvec);
; 756  :             _Constructed_first = _Newvec;
; 757  :             _Umove(_Whereptr, _Mylast, _Newvec + _Whereoff + 1);

  000a7	8d 43 04	 lea	 eax, DWORD PTR [ebx+4]
$LN5@Emplace_re:
  000aa	56		 push	 esi
  000ab	50		 push	 eax
  000ac	52		 push	 edx
  000ad	51		 push	 ecx
  000ae	e8 00 00 00 00	 call	 ??$_Uninitialized_move@PAPAVCWeaponTrace@@V?$allocator@PAVCWeaponTrace@@@std@@@std@@YAPAPAVCWeaponTrace@@QAPAV1@0PAPAV1@AAV?$allocator@PAVCWeaponTrace@@@0@@Z ; std::_Uninitialized_move<CWeaponTrace * *,std::allocator<CWeaponTrace *> >

; 1676 :         if (_Myfirst) { // destroy and deallocate old array

  000b3	8b 0e		 mov	 ecx, DWORD PTR [esi]

; 755  :             _Umove(_Myfirst, _Whereptr, _Newvec);
; 756  :             _Constructed_first = _Newvec;
; 757  :             _Umove(_Whereptr, _Mylast, _Newvec + _Whereoff + 1);

  000b5	83 c4 10	 add	 esp, 16			; 00000010H

; 1676 :         if (_Myfirst) { // destroy and deallocate old array

  000b8	85 c9		 test	 ecx, ecx
  000ba	74 12		 je	 SHORT $LN33@Emplace_re

; 1677 :             _Destroy(_Myfirst, _Mylast);
; 1678 :             _Getal().deallocate(_Myfirst, static_cast<size_type>(_Myend - _Myfirst));

  000bc	8b 46 08	 mov	 eax, DWORD PTR [esi+8]
  000bf	2b c1		 sub	 eax, ecx
; File C:\Program Files (x86)\Microsoft Visual Studio\2019\Community\VC\Tools\MSVC\14.28.29333\include\xmemory

; 810  :         _Deallocate<_New_alignof<_Ty>>(_Ptr, sizeof(_Ty) * _Count);

  000c1	83 e0 fc	 and	 eax, -4			; fffffffcH
  000c4	50		 push	 eax
  000c5	51		 push	 ecx
  000c6	e8 00 00 00 00	 call	 ??$_Deallocate@$07$0A@@std@@YAXPAXI@Z ; std::_Deallocate<8,0>
  000cb	83 c4 08	 add	 esp, 8
$LN33@Emplace_re:
; File C:\Program Files (x86)\Microsoft Visual Studio\2019\Community\VC\Tools\MSVC\14.28.29333\include\vector

; 1682 :         _Mylast  = _Newvec + _Newsize;

  000ce	8b 45 f8	 mov	 eax, DWORD PTR __Newsize$1$[ebp]
  000d1	89 3e		 mov	 DWORD PTR [esi], edi
  000d3	8d 0c 87	 lea	 ecx, DWORD PTR [edi+eax*4]

; 758  :         }
; 759  :         _CATCH_ALL
; 760  :         _Destroy(_Constructed_first, _Constructed_last);
; 761  :         _Al.deallocate(_Newvec, _Newcapacity);
; 762  :         _RERAISE;
; 763  :         _CATCH_END
; 764  : 
; 765  :         _Change_array(_Newvec, _Newsize, _Newcapacity);
; 766  :         return _Newvec + _Whereoff;

  000d6	8b c3		 mov	 eax, ebx

; 1682 :         _Mylast  = _Newvec + _Newsize;

  000d8	89 4e 04	 mov	 DWORD PTR [esi+4], ecx

; 1683 :         _Myend   = _Newvec + _Newcapacity;

  000db	8b 4d f4	 mov	 ecx, DWORD PTR tv435[ebp]
  000de	03 cf		 add	 ecx, edi

; 758  :         }
; 759  :         _CATCH_ALL
; 760  :         _Destroy(_Constructed_first, _Constructed_last);
; 761  :         _Al.deallocate(_Newvec, _Newcapacity);
; 762  :         _RERAISE;
; 763  :         _CATCH_END
; 764  : 
; 765  :         _Change_array(_Newvec, _Newsize, _Newcapacity);
; 766  :         return _Newvec + _Whereoff;

  000e0	5f		 pop	 edi

; 1683 :         _Myend   = _Newvec + _Newcapacity;

  000e1	89 4e 08	 mov	 DWORD PTR [esi+8], ecx

; 758  :         }
; 759  :         _CATCH_ALL
; 760  :         _Destroy(_Constructed_first, _Constructed_last);
; 761  :         _Al.deallocate(_Newvec, _Newcapacity);
; 762  :         _RERAISE;
; 763  :         _CATCH_END
; 764  : 
; 765  :         _Change_array(_Newvec, _Newsize, _Newcapacity);
; 766  :         return _Newvec + _Whereoff;

  000e4	5e		 pop	 esi
  000e5	5b		 pop	 ebx

; 767  :     }

  000e6	8b e5		 mov	 esp, ebp
  000e8	5d		 pop	 ebp
  000e9	c2 08 00	 ret	 8
$LN39@Emplace_re:

; 738  :             _Xlength();

  000ec	e8 00 00 00 00	 call	 ?_Xlength@?$vector@PAVCWeaponTrace@@V?$allocator@PAVCWeaponTrace@@@std@@@std@@CAXXZ ; std::vector<CWeaponTrace *,std::allocator<CWeaponTrace *> >::_Xlength
$LN40@Emplace_re:
; File C:\Program Files (x86)\Microsoft Visual Studio\2019\Community\VC\Tools\MSVC\14.28.29333\include\xmemory

; 61   :             _Throw_bad_array_new_length(); // multiply overflow

  000f1	e8 00 00 00 00	 call	 ?_Throw_bad_array_new_length@std@@YAXXZ ; std::_Throw_bad_array_new_length
$LN37@Emplace_re:
  000f6	cc		 int	 3
??$_Emplace_reallocate@ABQAVCWeaponTrace@@@?$vector@PAVCWeaponTrace@@V?$allocator@PAVCWeaponTrace@@@std@@@std@@QAEPAPAVCWeaponTrace@@QAPAV2@ABQAV2@@Z ENDP ; std::vector<CWeaponTrace *,std::allocator<CWeaponTrace *> >::_Emplace_reallocate<CWeaponTrace * const &>
_TEXT	ENDS
; Function compile flags: /Ogtp
; File C:\Program Files (x86)\Microsoft Visual Studio\2019\Community\VC\Tools\MSVC\14.28.29333\include\xmemory
;	COMDAT ??$_Delete_plain_internal@V?$allocator@U_Container_proxy@std@@@std@@@std@@YAXAAV?$allocator@U_Container_proxy@std@@@0@QAU_Container_proxy@0@@Z
_TEXT	SEGMENT
__Al$ = 8						; size = 4
__Ptr$ = 12						; size = 4
??$_Delete_plain_internal@V?$allocator@U_Container_proxy@std@@@std@@@std@@YAXAAV?$allocator@U_Container_proxy@std@@@0@QAU_Container_proxy@0@@Z PROC ; std::_Delete_plain_internal<std::allocator<std::_Container_proxy> >, COMDAT

; 1032 :     // destroy *_Ptr in place, then deallocate _Ptr using _Al; used for internal container types the user didn't name
; 1033 :     using _Ty = typename _Alloc::value_type;
; 1034 :     _Ptr->~_Ty();
; 1035 :     _Deallocate_plain(_Al, _Ptr);

  00000	e9 00 00 00 00	 jmp	 ??$_Deallocate_plain@V?$allocator@U_Container_proxy@std@@@std@@@std@@YAXAAV?$allocator@U_Container_proxy@std@@@0@QAU_Container_proxy@0@@Z ; std::_Deallocate_plain<std::allocator<std::_Container_proxy> >
??$_Delete_plain_internal@V?$allocator@U_Container_proxy@std@@@std@@@std@@YAXAAV?$allocator@U_Container_proxy@std@@@0@QAU_Container_proxy@0@@Z ENDP ; std::_Delete_plain_internal<std::allocator<std::_Container_proxy> >
_TEXT	ENDS
; Function compile flags: /Ogtp
; File C:\Program Files (x86)\Microsoft Visual Studio\2019\Community\VC\Tools\MSVC\14.28.29333\include\vector
; File C:\Program Files (x86)\Microsoft Visual Studio\2019\Community\VC\Tools\MSVC\14.28.29333\include\xmemory
; File C:\Program Files (x86)\Microsoft Visual Studio\2019\Community\VC\Tools\MSVC\14.28.29333\include\vector
; File C:\Program Files (x86)\Microsoft Visual Studio\2019\Community\VC\Tools\MSVC\14.28.29333\include\xmemory
; File C:\Program Files (x86)\Microsoft Visual Studio\2019\Community\VC\Tools\MSVC\14.28.29333\include\vector
; File C:\Program Files (x86)\Microsoft Visual Studio\2019\Community\VC\Tools\MSVC\14.28.29333\include\xmemory
; File C:\Program Files (x86)\Microsoft Visual Studio\2019\Community\VC\Tools\MSVC\14.28.29333\include\vector
; File C:\Program Files (x86)\Microsoft Visual Studio\2019\Community\VC\Tools\MSVC\14.28.29333\include\xmemory
; File C:\Program Files (x86)\Microsoft Visual Studio\2019\Community\VC\Tools\MSVC\14.28.29333\include\vector
; File C:\Program Files (x86)\Microsoft Visual Studio\2019\Community\VC\Tools\MSVC\14.28.29333\include\xmemory
; File C:\Program Files (x86)\Microsoft Visual Studio\2019\Community\VC\Tools\MSVC\14.28.29333\include\vector
; File C:\Program Files (x86)\Microsoft Visual Studio\2019\Community\VC\Tools\MSVC\14.28.29333\include\xmemory
; File C:\Program Files (x86)\Microsoft Visual Studio\2019\Community\VC\Tools\MSVC\14.28.29333\include\vector
; File C:\Program Files (x86)\Microsoft Visual Studio\2019\Community\VC\Tools\MSVC\14.28.29333\include\xmemory
; File C:\Program Files (x86)\Microsoft Visual Studio\2019\Community\VC\Tools\MSVC\14.28.29333\include\vector
;	COMDAT ??$_Emplace_reallocate@ABUSPDTVertex@@@?$vector@USPDTVertex@@V?$allocator@USPDTVertex@@@std@@@std@@QAEPAUSPDTVertex@@QAU2@ABU2@@Z
_TEXT	SEGMENT
tv375 = -12						; size = 4
__Oldsize$1$ = -8					; size = 4
tv374 = -4						; size = 4
__Whereoff$1$ = -4					; size = 4
__Whereptr$ = 8						; size = 4
_<_Val_0>$ = 12						; size = 4
??$_Emplace_reallocate@ABUSPDTVertex@@@?$vector@USPDTVertex@@V?$allocator@USPDTVertex@@@std@@@std@@QAEPAUSPDTVertex@@QAU2@ABU2@@Z PROC ; std::vector<SPDTVertex,std::allocator<SPDTVertex> >::_Emplace_reallocate<SPDTVertex const &>, COMDAT
; _this$ = ecx

; 725  :     pointer _Emplace_reallocate(const pointer _Whereptr, _Valty&&... _Val) {

  00000	55		 push	 ebp
  00001	8b ec		 mov	 ebp, esp
  00003	83 ec 0c	 sub	 esp, 12			; 0000000cH

; 726  :         // reallocate and insert by perfectly forwarding _Val at _Whereptr
; 727  :         _Alty& _Al        = _Getal();
; 728  :         auto& _My_data    = _Mypair._Myval2;
; 729  :         pointer& _Myfirst = _My_data._Myfirst;
; 730  :         pointer& _Mylast  = _My_data._Mylast;
; 731  : 
; 732  :         _STL_INTERNAL_CHECK(_Mylast == _My_data._Myend); // check that we have no unused capacity
; 733  : 
; 734  :         const auto _Whereoff = static_cast<size_type>(_Whereptr - _Myfirst);

  00006	8b 55 08	 mov	 edx, DWORD PTR __Whereptr$[ebp]
  00009	b8 ab aa aa 2a	 mov	 eax, 715827883		; 2aaaaaabH
  0000e	53		 push	 ebx
  0000f	56		 push	 esi
  00010	8b f1		 mov	 esi, ecx
  00012	57		 push	 edi
  00013	8b 3e		 mov	 edi, DWORD PTR [esi]
  00015	2b d7		 sub	 edx, edi

; 735  :         const auto _Oldsize  = static_cast<size_type>(_Mylast - _Myfirst);

  00017	8b 4e 04	 mov	 ecx, DWORD PTR [esi+4]
  0001a	f7 ea		 imul	 edx
  0001c	2b cf		 sub	 ecx, edi
  0001e	c1 fa 02	 sar	 edx, 2
  00021	8b c2		 mov	 eax, edx
  00023	c1 e8 1f	 shr	 eax, 31			; 0000001fH
  00026	03 c2		 add	 eax, edx
  00028	89 45 fc	 mov	 DWORD PTR __Whereoff$1$[ebp], eax
  0002b	b8 ab aa aa 2a	 mov	 eax, 715827883		; 2aaaaaabH
  00030	f7 e9		 imul	 ecx
  00032	c1 fa 02	 sar	 edx, 2
  00035	8b c2		 mov	 eax, edx
  00037	c1 e8 1f	 shr	 eax, 31			; 0000001fH
  0003a	03 c2		 add	 eax, edx
  0003c	89 45 f8	 mov	 DWORD PTR __Oldsize$1$[ebp], eax

; 736  : 
; 737  :         if (_Oldsize == max_size()) {

  0003f	3d aa aa aa 0a	 cmp	 eax, 178956970		; 0aaaaaaaH
  00044	0f 84 f4 00 00
	00		 je	 $LN41@Emplace_re

; 1494 :         return static_cast<size_type>(_My_data._Myend - _My_data._Myfirst);

  0004a	8b 4e 08	 mov	 ecx, DWORD PTR [esi+8]

; 739  :         }
; 740  : 
; 741  :         const size_type _Newsize     = _Oldsize + 1;

  0004d	8d 58 01	 lea	 ebx, DWORD PTR [eax+1]

; 1494 :         return static_cast<size_type>(_My_data._Myend - _My_data._Myfirst);

  00050	2b cf		 sub	 ecx, edi
  00052	b8 ab aa aa 2a	 mov	 eax, 715827883		; 2aaaaaabH
  00057	f7 e9		 imul	 ecx

; 1620 :         if (_Oldcapacity > _Max - _Oldcapacity / 2) {

  00059	b8 aa aa aa 0a	 mov	 eax, 178956970		; 0aaaaaaaH

; 1494 :         return static_cast<size_type>(_My_data._Myend - _My_data._Myfirst);

  0005e	c1 fa 02	 sar	 edx, 2
  00061	8b ca		 mov	 ecx, edx
  00063	c1 e9 1f	 shr	 ecx, 31			; 0000001fH
  00066	03 ca		 add	 ecx, edx

; 1620 :         if (_Oldcapacity > _Max - _Oldcapacity / 2) {

  00068	8b d1		 mov	 edx, ecx
  0006a	d1 ea		 shr	 edx, 1
  0006c	2b c2		 sub	 eax, edx
  0006e	3b c8		 cmp	 ecx, eax
  00070	76 48		 jbe	 SHORT $LN12@Emplace_re

; 1621 :             return _Max; // geometric growth would overflow

  00072	b9 aa aa aa 0a	 mov	 ecx, 178956970		; 0aaaaaaaH
$LN20@Emplace_re:
; File C:\Program Files (x86)\Microsoft Visual Studio\2019\Community\VC\Tools\MSVC\14.28.29333\include\xmemory

; 65   :     return _Count * _Ty_size;

  00077	8d 04 49	 lea	 eax, DWORD PTR [ecx+ecx*2]
  0007a	c1 e0 03	 shl	 eax, 3

; 814  :         return static_cast<_Ty*>(_Allocate<_New_alignof<_Ty>>(_Get_size_of_n<sizeof(_Ty)>(_Count)));

  0007d	50		 push	 eax

; 65   :     return _Count * _Ty_size;

  0007e	89 45 f4	 mov	 DWORD PTR tv375[ebp], eax

; 814  :         return static_cast<_Ty*>(_Allocate<_New_alignof<_Ty>>(_Get_size_of_n<sizeof(_Ty)>(_Count)));

  00081	e8 00 00 00 00	 call	 ??$_Allocate@$07U_Default_allocate_traits@std@@$0A@@std@@YAPAXI@Z ; std::_Allocate<8,std::_Default_allocate_traits,0>
  00086	8b f8		 mov	 edi, eax
  00088	83 c4 04	 add	 esp, 4
; File C:\Program Files (x86)\Microsoft Visual Studio\2019\Community\VC\Tools\MSVC\14.28.29333\include\vector

; 749  :         _Alty_traits::construct(_Al, _Unfancy(_Newvec + _Whereoff), _STD forward<_Valty>(_Val)...);

  0008b	8b 45 fc	 mov	 eax, DWORD PTR __Whereoff$1$[ebp]
  0008e	8d 04 40	 lea	 eax, DWORD PTR [eax+eax*2]
  00091	8d 1c c7	 lea	 ebx, DWORD PTR [edi+eax*8]
; File C:\Program Files (x86)\Microsoft Visual Studio\2019\Community\VC\Tools\MSVC\14.28.29333\include\xmemory

; 701  :         ::new (const_cast<void*>(static_cast<const volatile void*>(_Ptr))) _Objty(_STD forward<_Types>(_Args)...);

  00094	8b 45 0c	 mov	 eax, DWORD PTR _<_Val_0>$[ebp]
; File C:\Program Files (x86)\Microsoft Visual Studio\2019\Community\VC\Tools\MSVC\14.28.29333\include\vector

; 749  :         _Alty_traits::construct(_Al, _Unfancy(_Newvec + _Whereoff), _STD forward<_Valty>(_Val)...);

  00097	89 5d fc	 mov	 DWORD PTR tv374[ebp], ebx
; File C:\Program Files (x86)\Microsoft Visual Studio\2019\Community\VC\Tools\MSVC\14.28.29333\include\xmemory

; 701  :         ::new (const_cast<void*>(static_cast<const volatile void*>(_Ptr))) _Objty(_STD forward<_Types>(_Args)...);

  0009a	0f 10 00	 movups	 xmm0, XMMWORD PTR [eax]
  0009d	0f 11 03	 movups	 XMMWORD PTR [ebx], xmm0
  000a0	f3 0f 7e 40 10	 movq	 xmm0, QWORD PTR [eax+16]
; File C:\Program Files (x86)\Microsoft Visual Studio\2019\Community\VC\Tools\MSVC\14.28.29333\include\vector

; 752  :         if (_Whereptr == _Mylast) { // at back, provide strong guarantee

  000a5	8b 45 08	 mov	 eax, DWORD PTR __Whereptr$[ebp]
; File C:\Program Files (x86)\Microsoft Visual Studio\2019\Community\VC\Tools\MSVC\14.28.29333\include\xmemory

; 701  :         ::new (const_cast<void*>(static_cast<const volatile void*>(_Ptr))) _Objty(_STD forward<_Types>(_Args)...);

  000a8	66 0f d6 43 10	 movq	 QWORD PTR [ebx+16], xmm0
; File C:\Program Files (x86)\Microsoft Visual Studio\2019\Community\VC\Tools\MSVC\14.28.29333\include\vector

; 752  :         if (_Whereptr == _Mylast) { // at back, provide strong guarantee

  000ad	8b 56 04	 mov	 edx, DWORD PTR [esi+4]
  000b0	8b 0e		 mov	 ecx, DWORD PTR [esi]
  000b2	3b c2		 cmp	 eax, edx
  000b4	75 18		 jne	 SHORT $LN4@Emplace_re

; 1597 :         _Uninitialized_move(_First, _Last, _Dest, _Getal());

  000b6	8b c7		 mov	 eax, edi

; 753  :             _Umove_if_noexcept(_Myfirst, _Mylast, _Newvec);
; 754  :         } else { // provide basic guarantee

  000b8	eb 29		 jmp	 SHORT $LN5@Emplace_re
$LN12@Emplace_re:

; 1624 :         const size_type _Geometric = _Oldcapacity + _Oldcapacity / 2;

  000ba	8d 04 0a	 lea	 eax, DWORD PTR [edx+ecx]
; File C:\Program Files (x86)\Microsoft Visual Studio\2019\Community\VC\Tools\MSVC\14.28.29333\include\xmemory

; 60   :         if (_Count > _Max_possible) {

  000bd	8b cb		 mov	 ecx, ebx
  000bf	3b c3		 cmp	 eax, ebx
  000c1	0f 43 c8	 cmovae	 ecx, eax
  000c4	81 f9 aa aa aa
	0a		 cmp	 ecx, 178956970		; 0aaaaaaaH
  000ca	77 77		 ja	 SHORT $LN42@Emplace_re
  000cc	eb a9		 jmp	 SHORT $LN20@Emplace_re
$LN4@Emplace_re:
; File C:\Program Files (x86)\Microsoft Visual Studio\2019\Community\VC\Tools\MSVC\14.28.29333\include\vector

; 1592 :         return _Uninitialized_move(_First, _Last, _Dest, _Getal());

  000ce	56		 push	 esi
  000cf	57		 push	 edi
  000d0	50		 push	 eax
  000d1	51		 push	 ecx
  000d2	e8 00 00 00 00	 call	 ??$_Uninitialized_move@PAUSPDTVertex@@V?$allocator@USPDTVertex@@@std@@@std@@YAPAUSPDTVertex@@QAU1@0PAU1@AAV?$allocator@USPDTVertex@@@0@@Z ; std::_Uninitialized_move<SPDTVertex *,std::allocator<SPDTVertex> >
  000d7	8b 4d 08	 mov	 ecx, DWORD PTR __Whereptr$[ebp]

; 755  :             _Umove(_Myfirst, _Whereptr, _Newvec);
; 756  :             _Constructed_first = _Newvec;
; 757  :             _Umove(_Whereptr, _Mylast, _Newvec + _Whereoff + 1);

  000da	8d 43 18	 lea	 eax, DWORD PTR [ebx+24]

; 1592 :         return _Uninitialized_move(_First, _Last, _Dest, _Getal());

  000dd	8b 56 04	 mov	 edx, DWORD PTR [esi+4]
  000e0	83 c4 10	 add	 esp, 16			; 00000010H
$LN5@Emplace_re:

; 755  :             _Umove(_Myfirst, _Whereptr, _Newvec);
; 756  :             _Constructed_first = _Newvec;
; 757  :             _Umove(_Whereptr, _Mylast, _Newvec + _Whereoff + 1);

  000e3	56		 push	 esi
  000e4	50		 push	 eax
  000e5	52		 push	 edx
  000e6	51		 push	 ecx
  000e7	e8 00 00 00 00	 call	 ??$_Uninitialized_move@PAUSPDTVertex@@V?$allocator@USPDTVertex@@@std@@@std@@YAPAUSPDTVertex@@QAU1@0PAU1@AAV?$allocator@USPDTVertex@@@0@@Z ; std::_Uninitialized_move<SPDTVertex *,std::allocator<SPDTVertex> >

; 1676 :         if (_Myfirst) { // destroy and deallocate old array

  000ec	8b 1e		 mov	 ebx, DWORD PTR [esi]

; 755  :             _Umove(_Myfirst, _Whereptr, _Newvec);
; 756  :             _Constructed_first = _Newvec;
; 757  :             _Umove(_Whereptr, _Mylast, _Newvec + _Whereoff + 1);

  000ee	83 c4 10	 add	 esp, 16			; 00000010H

; 1676 :         if (_Myfirst) { // destroy and deallocate old array

  000f1	85 db		 test	 ebx, ebx
  000f3	74 26		 je	 SHORT $LN35@Emplace_re

; 1677 :             _Destroy(_Myfirst, _Mylast);
; 1678 :             _Getal().deallocate(_Myfirst, static_cast<size_type>(_Myend - _Myfirst));

  000f5	8b 4e 08	 mov	 ecx, DWORD PTR [esi+8]
  000f8	b8 ab aa aa 2a	 mov	 eax, 715827883		; 2aaaaaabH
  000fd	2b cb		 sub	 ecx, ebx
  000ff	f7 e9		 imul	 ecx
  00101	c1 fa 02	 sar	 edx, 2
  00104	8b c2		 mov	 eax, edx
  00106	c1 e8 1f	 shr	 eax, 31			; 0000001fH
  00109	03 c2		 add	 eax, edx
; File C:\Program Files (x86)\Microsoft Visual Studio\2019\Community\VC\Tools\MSVC\14.28.29333\include\xmemory

; 810  :         _Deallocate<_New_alignof<_Ty>>(_Ptr, sizeof(_Ty) * _Count);

  0010b	8d 04 40	 lea	 eax, DWORD PTR [eax+eax*2]
  0010e	c1 e0 03	 shl	 eax, 3
  00111	50		 push	 eax
  00112	53		 push	 ebx
  00113	e8 00 00 00 00	 call	 ??$_Deallocate@$07$0A@@std@@YAXPAXI@Z ; std::_Deallocate<8,0>
  00118	83 c4 08	 add	 esp, 8
$LN35@Emplace_re:
; File C:\Program Files (x86)\Microsoft Visual Studio\2019\Community\VC\Tools\MSVC\14.28.29333\include\vector

; 1682 :         _Mylast  = _Newvec + _Newsize;

  0011b	8b 45 f8	 mov	 eax, DWORD PTR __Oldsize$1$[ebp]
  0011e	40		 inc	 eax
  0011f	89 3e		 mov	 DWORD PTR [esi], edi
  00121	8d 0c 40	 lea	 ecx, DWORD PTR [eax+eax*2]

; 758  :         }
; 759  :         _CATCH_ALL
; 760  :         _Destroy(_Constructed_first, _Constructed_last);
; 761  :         _Al.deallocate(_Newvec, _Newcapacity);
; 762  :         _RERAISE;
; 763  :         _CATCH_END
; 764  : 
; 765  :         _Change_array(_Newvec, _Newsize, _Newcapacity);
; 766  :         return _Newvec + _Whereoff;

  00124	8b 45 fc	 mov	 eax, DWORD PTR tv374[ebp]

; 1682 :         _Mylast  = _Newvec + _Newsize;

  00127	8d 0c cf	 lea	 ecx, DWORD PTR [edi+ecx*8]
  0012a	89 4e 04	 mov	 DWORD PTR [esi+4], ecx

; 1683 :         _Myend   = _Newvec + _Newcapacity;

  0012d	8b 4d f4	 mov	 ecx, DWORD PTR tv375[ebp]
  00130	03 cf		 add	 ecx, edi

; 758  :         }
; 759  :         _CATCH_ALL
; 760  :         _Destroy(_Constructed_first, _Constructed_last);
; 761  :         _Al.deallocate(_Newvec, _Newcapacity);
; 762  :         _RERAISE;
; 763  :         _CATCH_END
; 764  : 
; 765  :         _Change_array(_Newvec, _Newsize, _Newcapacity);
; 766  :         return _Newvec + _Whereoff;

  00132	5f		 pop	 edi

; 1683 :         _Myend   = _Newvec + _Newcapacity;

  00133	89 4e 08	 mov	 DWORD PTR [esi+8], ecx

; 758  :         }
; 759  :         _CATCH_ALL
; 760  :         _Destroy(_Constructed_first, _Constructed_last);
; 761  :         _Al.deallocate(_Newvec, _Newcapacity);
; 762  :         _RERAISE;
; 763  :         _CATCH_END
; 764  : 
; 765  :         _Change_array(_Newvec, _Newsize, _Newcapacity);
; 766  :         return _Newvec + _Whereoff;

  00136	5e		 pop	 esi
  00137	5b		 pop	 ebx

; 767  :     }

  00138	8b e5		 mov	 esp, ebp
  0013a	5d		 pop	 ebp
  0013b	c2 08 00	 ret	 8
$LN41@Emplace_re:

; 738  :             _Xlength();

  0013e	e8 00 00 00 00	 call	 ?_Xlength@?$vector@USPDTVertex@@V?$allocator@USPDTVertex@@@std@@@std@@CAXXZ ; std::vector<SPDTVertex,std::allocator<SPDTVertex> >::_Xlength
$LN42@Emplace_re:
; File C:\Program Files (x86)\Microsoft Visual Studio\2019\Community\VC\Tools\MSVC\14.28.29333\include\xmemory

; 61   :             _Throw_bad_array_new_length(); // multiply overflow

  00143	e8 00 00 00 00	 call	 ?_Throw_bad_array_new_length@std@@YAXXZ ; std::_Throw_bad_array_new_length
$LN39@Emplace_re:
  00148	cc		 int	 3
??$_Emplace_reallocate@ABUSPDTVertex@@@?$vector@USPDTVertex@@V?$allocator@USPDTVertex@@@std@@@std@@QAEPAUSPDTVertex@@QAU2@ABU2@@Z ENDP ; std::vector<SPDTVertex,std::allocator<SPDTVertex> >::_Emplace_reallocate<SPDTVertex const &>
_TEXT	ENDS
; Function compile flags: /Ogtp
;	COMDAT ??__F?ms_kPool@CWeaponTrace@@1V?$CDynamicPool@VCWeaponTrace@@@@A@@YAXXZ
text$yd	SEGMENT
??__F?ms_kPool@CWeaponTrace@@1V?$CDynamicPool@VCWeaponTrace@@@@A@@YAXXZ PROC ; `dynamic atexit destructor for 'CWeaponTrace::ms_kPool'', COMDAT
  00000	b9 00 00 00 00	 mov	 ecx, OFFSET ?ms_kPool@CWeaponTrace@@1V?$CDynamicPool@VCWeaponTrace@@@@A ; CWeaponTrace::ms_kPool
  00005	e9 00 00 00 00	 jmp	 ??1?$CDynamicPool@VCWeaponTrace@@@@UAE@XZ ; CDynamicPool<CWeaponTrace>::~CDynamicPool<CWeaponTrace>
??__F?ms_kPool@CWeaponTrace@@1V?$CDynamicPool@VCWeaponTrace@@@@A@@YAXXZ ENDP ; `dynamic atexit destructor for 'CWeaponTrace::ms_kPool''
text$yd	ENDS
; Function compile flags: /Ogtp
; File D:\Metin2 Server Files\mainline\SRC_2014\Metin2Client\GameLib\WeaponTrace.cpp
;	COMDAT ??__E?ms_kPool@CWeaponTrace@@1V?$CDynamicPool@VCWeaponTrace@@@@A@@YAXXZ
text$di	SEGMENT
??__E?ms_kPool@CWeaponTrace@@1V?$CDynamicPool@VCWeaponTrace@@@@A@@YAXXZ PROC ; `dynamic initializer for 'CWeaponTrace::ms_kPool'', COMDAT

; 7    : CDynamicPool<CWeaponTrace> CWeaponTrace::ms_kPool;

  00000	68 00 00 00 00	 push	 OFFSET ??__F?ms_kPool@CWeaponTrace@@1V?$CDynamicPool@VCWeaponTrace@@@@A@@YAXXZ ; `dynamic atexit destructor for 'CWeaponTrace::ms_kPool''
  00005	e8 00 00 00 00	 call	 _atexit
  0000a	59		 pop	 ecx
  0000b	c3		 ret	 0
??__E?ms_kPool@CWeaponTrace@@1V?$CDynamicPool@VCWeaponTrace@@@@A@@YAXXZ ENDP ; `dynamic initializer for 'CWeaponTrace::ms_kPool''
text$di	ENDS
; Function compile flags: /Ogtp
;	COMDAT ??_G?$CDynamicPool@VCWeaponTrace@@@@UAEPAXI@Z
_TEXT	SEGMENT
___flags$ = 8						; size = 4
??_G?$CDynamicPool@VCWeaponTrace@@@@UAEPAXI@Z PROC	; CDynamicPool<CWeaponTrace>::`scalar deleting destructor', COMDAT
; _this$ = ecx
  00000	55		 push	 ebp
  00001	8b ec		 mov	 ebp, esp
  00003	56		 push	 esi
  00004	8b f1		 mov	 esi, ecx
  00006	e8 00 00 00 00	 call	 ??1?$CDynamicPool@VCWeaponTrace@@@@UAE@XZ ; CDynamicPool<CWeaponTrace>::~CDynamicPool<CWeaponTrace>
  0000b	f6 45 08 01	 test	 BYTE PTR ___flags$[ebp], 1
  0000f	74 0b		 je	 SHORT $LN4@scalar
  00011	6a 24		 push	 36			; 00000024H
  00013	56		 push	 esi
  00014	e8 00 00 00 00	 call	 ??3@YAXPAXI@Z		; operator delete
  00019	83 c4 08	 add	 esp, 8
$LN4@scalar:
  0001c	8b c6		 mov	 eax, esi
  0001e	5e		 pop	 esi
  0001f	5d		 pop	 ebp
  00020	c2 04 00	 ret	 4
??_G?$CDynamicPool@VCWeaponTrace@@@@UAEPAXI@Z ENDP	; CDynamicPool<CWeaponTrace>::`scalar deleting destructor'
_TEXT	ENDS
; Function compile flags: /Ogtp
; File C:\Program Files (x86)\Microsoft Visual Studio\2019\Community\VC\Tools\MSVC\14.28.29333\include\vector
;	COMDAT ?_Xlength@?$vector@PAVCWeaponTrace@@V?$allocator@PAVCWeaponTrace@@@std@@@std@@CAXXZ
_TEXT	SEGMENT
?_Xlength@?$vector@PAVCWeaponTrace@@V?$allocator@PAVCWeaponTrace@@@std@@@std@@CAXXZ PROC ; std::vector<CWeaponTrace *,std::allocator<CWeaponTrace *> >::_Xlength, COMDAT

; 1705 :         _Xlength_error("vector too long");

  00000	68 00 00 00 00	 push	 OFFSET ??_C@_0BA@FOIKENOD@vector?5too?5long@
  00005	e8 00 00 00 00	 call	 ?_Xlength_error@std@@YAXPBD@Z ; std::_Xlength_error
$LN3@Xlength:
  0000a	cc		 int	 3
?_Xlength@?$vector@PAVCWeaponTrace@@V?$allocator@PAVCWeaponTrace@@@std@@@std@@CAXXZ ENDP ; std::vector<CWeaponTrace *,std::allocator<CWeaponTrace *> >::_Xlength
_TEXT	ENDS
; Function compile flags: /Ogtp
; File D:\Metin2 Server Files\mainline\SRC_2014\Metin2Client\eterLib\Pool.h
;	COMDAT ?Delete@?$CDynamicPool@VCWeaponTrace@@@@KAXPAVCWeaponTrace@@@Z
_TEXT	SEGMENT
_pkData$ = 8						; size = 4
?Delete@?$CDynamicPool@VCWeaponTrace@@@@KAXPAVCWeaponTrace@@@Z PROC ; CDynamicPool<CWeaponTrace>::Delete, COMDAT

; 109  : 		{

  00000	55		 push	 ebp
  00001	8b ec		 mov	 ebp, esp

; 110  : 			delete pkData;

  00003	8b 4d 08	 mov	 ecx, DWORD PTR _pkData$[ebp]
  00006	85 c9		 test	 ecx, ecx
  00008	74 06		 je	 SHORT $LN3@Delete
  0000a	8b 01		 mov	 eax, DWORD PTR [ecx]
  0000c	6a 01		 push	 1
  0000e	ff 10		 call	 DWORD PTR [eax]
$LN3@Delete:

; 111  : 		}

  00010	5d		 pop	 ebp
  00011	c3		 ret	 0
?Delete@?$CDynamicPool@VCWeaponTrace@@@@KAXPAVCWeaponTrace@@@Z ENDP ; CDynamicPool<CWeaponTrace>::Delete
_TEXT	ENDS
; Function compile flags: /Ogtp
; File D:\Metin2 Server Files\mainline\SRC_2014\Metin2Client\eterLib\Pool.h
; File C:\Program Files (x86)\Microsoft Visual Studio\2019\Community\VC\Tools\MSVC\14.28.29333\include\vector
; File C:\Program Files (x86)\Microsoft Visual Studio\2019\Community\VC\Tools\MSVC\14.28.29333\include\xmemory
; File C:\Program Files (x86)\Microsoft Visual Studio\2019\Community\VC\Tools\MSVC\14.28.29333\include\vector
; File C:\Program Files (x86)\Microsoft Visual Studio\2019\Community\VC\Tools\MSVC\14.28.29333\include\xmemory
; File C:\Program Files (x86)\Microsoft Visual Studio\2019\Community\VC\Tools\MSVC\14.28.29333\include\vector
; File C:\Program Files (x86)\Microsoft Visual Studio\2019\Community\VC\Tools\MSVC\14.28.29333\include\xmemory
; File C:\Program Files (x86)\Microsoft Visual Studio\2019\Community\VC\Tools\MSVC\14.28.29333\include\vector
; File C:\Program Files (x86)\Microsoft Visual Studio\2019\Community\VC\Tools\MSVC\14.28.29333\include\xmemory
; File C:\Program Files (x86)\Microsoft Visual Studio\2019\Community\VC\Tools\MSVC\14.28.29333\include\vector
; File D:\Metin2 Server Files\mainline\SRC_2014\Metin2Client\eterLib\Pool.h
;	COMDAT ??1?$CDynamicPool@VCWeaponTrace@@@@UAE@XZ
_TEXT	SEGMENT
??1?$CDynamicPool@VCWeaponTrace@@@@UAE@XZ PROC		; CDynamicPool<CWeaponTrace>::~CDynamicPool<CWeaponTrace>, COMDAT
; _this$ = ecx

; 18   : 		{

  00000	56		 push	 esi
  00001	8b f1		 mov	 esi, ecx
  00003	c7 06 00 00 00
	00		 mov	 DWORD PTR [esi], OFFSET ??_7?$CDynamicPool@VCWeaponTrace@@@@6B@
; File C:\Program Files (x86)\Microsoft Visual Studio\2019\Community\VC\Tools\MSVC\14.28.29333\include\vector

; 1694 :         if (_Myfirst) { // destroy and deallocate old array

  00009	8b 4e 10	 mov	 ecx, DWORD PTR [esi+16]
  0000c	85 c9		 test	 ecx, ecx
  0000e	74 27		 je	 SHORT $LN6@CDynamicPo

; 1695 :             _Destroy(_Myfirst, _Mylast);
; 1696 :             _Getal().deallocate(_Myfirst, static_cast<size_type>(_Myend - _Myfirst));

  00010	8b 46 18	 mov	 eax, DWORD PTR [esi+24]
  00013	2b c1		 sub	 eax, ecx
; File C:\Program Files (x86)\Microsoft Visual Studio\2019\Community\VC\Tools\MSVC\14.28.29333\include\xmemory

; 810  :         _Deallocate<_New_alignof<_Ty>>(_Ptr, sizeof(_Ty) * _Count);

  00015	83 e0 fc	 and	 eax, -4			; fffffffcH
  00018	50		 push	 eax
  00019	51		 push	 ecx
  0001a	e8 00 00 00 00	 call	 ??$_Deallocate@$07$0A@@std@@YAXPAXI@Z ; std::_Deallocate<8,0>
; File C:\Program Files (x86)\Microsoft Visual Studio\2019\Community\VC\Tools\MSVC\14.28.29333\include\vector

; 1698 :             _Myfirst = pointer();

  0001f	c7 46 10 00 00
	00 00		 mov	 DWORD PTR [esi+16], 0
; File C:\Program Files (x86)\Microsoft Visual Studio\2019\Community\VC\Tools\MSVC\14.28.29333\include\xmemory

; 810  :         _Deallocate<_New_alignof<_Ty>>(_Ptr, sizeof(_Ty) * _Count);

  00026	83 c4 08	 add	 esp, 8
; File C:\Program Files (x86)\Microsoft Visual Studio\2019\Community\VC\Tools\MSVC\14.28.29333\include\vector

; 1699 :             _Mylast  = pointer();

  00029	c7 46 14 00 00
	00 00		 mov	 DWORD PTR [esi+20], 0

; 1700 :             _Myend   = pointer();

  00030	c7 46 18 00 00
	00 00		 mov	 DWORD PTR [esi+24], 0
$LN6@CDynamicPo:

; 1694 :         if (_Myfirst) { // destroy and deallocate old array

  00037	8b 4e 04	 mov	 ecx, DWORD PTR [esi+4]
  0003a	85 c9		 test	 ecx, ecx
  0003c	74 27		 je	 SHORT $LN13@CDynamicPo

; 1695 :             _Destroy(_Myfirst, _Mylast);
; 1696 :             _Getal().deallocate(_Myfirst, static_cast<size_type>(_Myend - _Myfirst));

  0003e	8b 46 0c	 mov	 eax, DWORD PTR [esi+12]
  00041	2b c1		 sub	 eax, ecx
; File C:\Program Files (x86)\Microsoft Visual Studio\2019\Community\VC\Tools\MSVC\14.28.29333\include\xmemory

; 810  :         _Deallocate<_New_alignof<_Ty>>(_Ptr, sizeof(_Ty) * _Count);

  00043	83 e0 fc	 and	 eax, -4			; fffffffcH
  00046	50		 push	 eax
  00047	51		 push	 ecx
  00048	e8 00 00 00 00	 call	 ??$_Deallocate@$07$0A@@std@@YAXPAXI@Z ; std::_Deallocate<8,0>
; File C:\Program Files (x86)\Microsoft Visual Studio\2019\Community\VC\Tools\MSVC\14.28.29333\include\vector

; 1698 :             _Myfirst = pointer();

  0004d	c7 46 04 00 00
	00 00		 mov	 DWORD PTR [esi+4], 0
; File C:\Program Files (x86)\Microsoft Visual Studio\2019\Community\VC\Tools\MSVC\14.28.29333\include\xmemory

; 810  :         _Deallocate<_New_alignof<_Ty>>(_Ptr, sizeof(_Ty) * _Count);

  00054	83 c4 08	 add	 esp, 8
; File C:\Program Files (x86)\Microsoft Visual Studio\2019\Community\VC\Tools\MSVC\14.28.29333\include\vector

; 1699 :             _Mylast  = pointer();

  00057	c7 46 08 00 00
	00 00		 mov	 DWORD PTR [esi+8], 0

; 1700 :             _Myend   = pointer();

  0005e	c7 46 0c 00 00
	00 00		 mov	 DWORD PTR [esi+12], 0
$LN13@CDynamicPo:
  00065	5e		 pop	 esi
; File D:\Metin2 Server Files\mainline\SRC_2014\Metin2Client\eterLib\Pool.h

; 26   : 		}

  00066	c3		 ret	 0
??1?$CDynamicPool@VCWeaponTrace@@@@UAE@XZ ENDP		; CDynamicPool<CWeaponTrace>::~CDynamicPool<CWeaponTrace>
_TEXT	ENDS
; Function compile flags: /Ogtp
;	COMDAT ??_GCWeaponTrace@@UAEPAXI@Z
_TEXT	SEGMENT
___flags$ = 8						; size = 4
??_GCWeaponTrace@@UAEPAXI@Z PROC			; CWeaponTrace::`scalar deleting destructor', COMDAT
; _this$ = ecx
  00000	55		 push	 ebp
  00001	8b ec		 mov	 ebp, esp
  00003	56		 push	 esi
  00004	8b f1		 mov	 esi, ecx
  00006	e8 00 00 00 00	 call	 ??1CWeaponTrace@@UAE@XZ	; CWeaponTrace::~CWeaponTrace
  0000b	f6 45 08 01	 test	 BYTE PTR ___flags$[ebp], 1
  0000f	74 0e		 je	 SHORT $LN4@scalar
  00011	68 8c 00 00 00	 push	 140			; 0000008cH
  00016	56		 push	 esi
  00017	e8 00 00 00 00	 call	 ??3@YAXPAXI@Z		; operator delete
  0001c	83 c4 08	 add	 esp, 8
$LN4@scalar:
  0001f	8b c6		 mov	 eax, esi
  00021	5e		 pop	 esi
  00022	5d		 pop	 ebp
  00023	c2 04 00	 ret	 4
??_GCWeaponTrace@@UAEPAXI@Z ENDP			; CWeaponTrace::`scalar deleting destructor'
_TEXT	ENDS
; Function compile flags: /Ogtp
; File C:\Program Files (x86)\Microsoft Visual Studio\2019\Community\VC\Tools\MSVC\14.28.29333\include\vector
;	COMDAT ?_Xlength@?$vector@USPDTVertex@@V?$allocator@USPDTVertex@@@std@@@std@@CAXXZ
_TEXT	SEGMENT
?_Xlength@?$vector@USPDTVertex@@V?$allocator@USPDTVertex@@@std@@@std@@CAXXZ PROC ; std::vector<SPDTVertex,std::allocator<SPDTVertex> >::_Xlength, COMDAT

; 1705 :         _Xlength_error("vector too long");

  00000	68 00 00 00 00	 push	 OFFSET ??_C@_0BA@FOIKENOD@vector?5too?5long@
  00005	e8 00 00 00 00	 call	 ?_Xlength_error@std@@YAXPBD@Z ; std::_Xlength_error
$LN3@Xlength:
  0000a	cc		 int	 3
?_Xlength@?$vector@USPDTVertex@@V?$allocator@USPDTVertex@@@std@@@std@@CAXXZ ENDP ; std::vector<SPDTVertex,std::allocator<SPDTVertex> >::_Xlength
_TEXT	ENDS
; Function compile flags: /Ogtp
; File C:\Program Files (x86)\Microsoft Visual Studio\2019\Community\VC\Tools\MSVC\14.28.29333\include\vector
; File C:\Program Files (x86)\Microsoft Visual Studio\2019\Community\VC\Tools\MSVC\14.28.29333\include\xmemory
; File C:\Program Files (x86)\Microsoft Visual Studio\2019\Community\VC\Tools\MSVC\14.28.29333\include\vector
; File C:\Program Files (x86)\Microsoft Visual Studio\2019\Community\VC\Tools\MSVC\14.28.29333\include\xmemory
; File C:\Program Files (x86)\Microsoft Visual Studio\2019\Community\VC\Tools\MSVC\14.28.29333\include\vector
;	COMDAT ??1?$vector@USPDTVertex@@V?$allocator@USPDTVertex@@@std@@@std@@QAE@XZ
_TEXT	SEGMENT
??1?$vector@USPDTVertex@@V?$allocator@USPDTVertex@@@std@@@std@@QAE@XZ PROC ; std::vector<SPDTVertex,std::allocator<SPDTVertex> >::~vector<SPDTVertex,std::allocator<SPDTVertex> >, COMDAT
; _this$ = ecx

; 672  :     ~vector() noexcept {

  00000	56		 push	 esi
  00001	8b f1		 mov	 esi, ecx

; 1694 :         if (_Myfirst) { // destroy and deallocate old array

  00003	8b 0e		 mov	 ecx, DWORD PTR [esi]
  00005	85 c9		 test	 ecx, ecx
  00007	74 3a		 je	 SHORT $LN4@vector

; 1695 :             _Destroy(_Myfirst, _Mylast);
; 1696 :             _Getal().deallocate(_Myfirst, static_cast<size_type>(_Myend - _Myfirst));

  00009	8b 56 08	 mov	 edx, DWORD PTR [esi+8]
  0000c	b8 ab aa aa 2a	 mov	 eax, 715827883		; 2aaaaaabH
  00011	2b d1		 sub	 edx, ecx
  00013	f7 ea		 imul	 edx
  00015	c1 fa 02	 sar	 edx, 2
  00018	8b c2		 mov	 eax, edx
  0001a	c1 e8 1f	 shr	 eax, 31			; 0000001fH
  0001d	03 c2		 add	 eax, edx
; File C:\Program Files (x86)\Microsoft Visual Studio\2019\Community\VC\Tools\MSVC\14.28.29333\include\xmemory

; 810  :         _Deallocate<_New_alignof<_Ty>>(_Ptr, sizeof(_Ty) * _Count);

  0001f	8d 04 40	 lea	 eax, DWORD PTR [eax+eax*2]
  00022	c1 e0 03	 shl	 eax, 3
  00025	50		 push	 eax
  00026	51		 push	 ecx
  00027	e8 00 00 00 00	 call	 ??$_Deallocate@$07$0A@@std@@YAXPAXI@Z ; std::_Deallocate<8,0>
; File C:\Program Files (x86)\Microsoft Visual Studio\2019\Community\VC\Tools\MSVC\14.28.29333\include\vector

; 1698 :             _Myfirst = pointer();

  0002c	c7 06 00 00 00
	00		 mov	 DWORD PTR [esi], 0
; File C:\Program Files (x86)\Microsoft Visual Studio\2019\Community\VC\Tools\MSVC\14.28.29333\include\xmemory

; 810  :         _Deallocate<_New_alignof<_Ty>>(_Ptr, sizeof(_Ty) * _Count);

  00032	83 c4 08	 add	 esp, 8
; File C:\Program Files (x86)\Microsoft Visual Studio\2019\Community\VC\Tools\MSVC\14.28.29333\include\vector

; 1699 :             _Mylast  = pointer();

  00035	c7 46 04 00 00
	00 00		 mov	 DWORD PTR [esi+4], 0

; 1700 :             _Myend   = pointer();

  0003c	c7 46 08 00 00
	00 00		 mov	 DWORD PTR [esi+8], 0
$LN4@vector:
  00043	5e		 pop	 esi

; 673  :         _Tidy();
; 674  : #if _ITERATOR_DEBUG_LEVEL != 0
; 675  :         auto&& _Alproxy = _GET_PROXY_ALLOCATOR(_Alty, _Getal());
; 676  :         _Delete_plain_internal(_Alproxy, _STD exchange(_Mypair._Myval2._Myproxy, nullptr));
; 677  : #endif // _ITERATOR_DEBUG_LEVEL != 0
; 678  :     }

  00044	c3		 ret	 0
??1?$vector@USPDTVertex@@V?$allocator@USPDTVertex@@@std@@@std@@QAE@XZ ENDP ; std::vector<SPDTVertex,std::allocator<SPDTVertex> >::~vector<SPDTVertex,std::allocator<SPDTVertex> >
_TEXT	ENDS
; Function compile flags: /Ogtp
; File C:\Program Files (x86)\Microsoft Visual Studio\2019\Community\VC\Tools\MSVC\14.28.29333\include\deque
; File C:\Program Files (x86)\Microsoft Visual Studio\2019\Community\VC\Tools\MSVC\14.28.29333\include\xmemory
; File C:\Program Files (x86)\Microsoft Visual Studio\2019\Community\VC\Tools\MSVC\14.28.29333\include\deque
; File C:\Program Files (x86)\Microsoft Visual Studio\2019\Community\VC\Tools\MSVC\14.28.29333\include\xmemory
; File C:\Program Files (x86)\Microsoft Visual Studio\2019\Community\VC\Tools\MSVC\14.28.29333\include\deque
;	COMDAT ?_Tidy@?$deque@U?$pair@MUD3DXVECTOR3@@@std@@V?$allocator@U?$pair@MUD3DXVECTOR3@@@std@@@2@@std@@AAEXXZ
_TEXT	SEGMENT
?_Tidy@?$deque@U?$pair@MUD3DXVECTOR3@@@std@@V?$allocator@U?$pair@MUD3DXVECTOR3@@@std@@@2@@std@@AAEXXZ PROC ; std::deque<std::pair<float,D3DXVECTOR3>,std::allocator<std::pair<float,D3DXVECTOR3> > >::_Tidy, COMDAT
; _this$ = ecx

; 1469 :     void _Tidy() noexcept { // free all storage

  00000	56		 push	 esi
  00001	8b f1		 mov	 esi, ecx

; 1010 :         return _Mysize() == 0;

  00003	8b 4e 10	 mov	 ecx, DWORD PTR [esi+16]
  00006	85 c9		 test	 ecx, ecx

; 1470 :         _Orphan_all();
; 1471 : 
; 1472 :         _Alpty _Almap(_Getal());
; 1473 :         while (!empty()) {

  00008	74 15		 je	 SHORT $LN30@Tidy
  0000a	66 0f 1f 44 00
	00		 npad	 6
$LL2@Tidy:

; 1144 :         if (--_Mysize() == 0) {

  00010	8d 41 ff	 lea	 eax, DWORD PTR [ecx-1]
  00013	89 46 10	 mov	 DWORD PTR [esi+16], eax
  00016	8b c8		 mov	 ecx, eax
  00018	85 c0		 test	 eax, eax
  0001a	75 f4		 jne	 SHORT $LL2@Tidy

; 1145 :             _Myoff() = 0;

  0001c	89 46 0c	 mov	 DWORD PTR [esi+12], eax
$LN30@Tidy:
  0001f	57		 push	 edi

; 1477 :         for (size_type _Block = _Mapsize(); 0 < _Block;) { // free storage for a block and destroy pointer

  00020	8b 7e 08	 mov	 edi, DWORD PTR [esi+8]
  00023	85 ff		 test	 edi, edi
  00025	74 1a		 je	 SHORT $LN5@Tidy
$LL25@Tidy:

; 1478 :             if (_Map()[--_Block]) { // free block and destroy its pointer

  00027	8b 46 04	 mov	 eax, DWORD PTR [esi+4]
  0002a	4f		 dec	 edi
  0002b	8b 04 b8	 mov	 eax, DWORD PTR [eax+edi*4]
  0002e	85 c0		 test	 eax, eax
  00030	74 0b		 je	 SHORT $LN7@Tidy
; File C:\Program Files (x86)\Microsoft Visual Studio\2019\Community\VC\Tools\MSVC\14.28.29333\include\xmemory

; 810  :         _Deallocate<_New_alignof<_Ty>>(_Ptr, sizeof(_Ty) * _Count);

  00032	6a 10		 push	 16			; 00000010H
  00034	50		 push	 eax
  00035	e8 00 00 00 00	 call	 ??$_Deallocate@$07$0A@@std@@YAXPAXI@Z ; std::_Deallocate<8,0>
  0003a	83 c4 08	 add	 esp, 8
$LN7@Tidy:
; File C:\Program Files (x86)\Microsoft Visual Studio\2019\Community\VC\Tools\MSVC\14.28.29333\include\deque

; 1477 :         for (size_type _Block = _Mapsize(); 0 < _Block;) { // free storage for a block and destroy pointer

  0003d	85 ff		 test	 edi, edi
  0003f	75 e6		 jne	 SHORT $LL25@Tidy
$LN5@Tidy:

; 1479 :                 _Getal().deallocate(_Map()[_Block], _DEQUESIZ);
; 1480 :                 _Destroy_in_place(_Map()[_Block]);
; 1481 :             }
; 1482 :         }
; 1483 : 
; 1484 :         if (_Map() != _Mapptr()) {

  00041	8b 4e 04	 mov	 ecx, DWORD PTR [esi+4]
  00044	5f		 pop	 edi
  00045	85 c9		 test	 ecx, ecx
  00047	74 10		 je	 SHORT $LN32@Tidy
; File C:\Program Files (x86)\Microsoft Visual Studio\2019\Community\VC\Tools\MSVC\14.28.29333\include\xmemory

; 810  :         _Deallocate<_New_alignof<_Ty>>(_Ptr, sizeof(_Ty) * _Count);

  00049	8b 46 08	 mov	 eax, DWORD PTR [esi+8]
  0004c	c1 e0 02	 shl	 eax, 2
  0004f	50		 push	 eax
  00050	51		 push	 ecx
  00051	e8 00 00 00 00	 call	 ??$_Deallocate@$07$0A@@std@@YAXPAXI@Z ; std::_Deallocate<8,0>
  00056	83 c4 08	 add	 esp, 8
$LN32@Tidy:
; File C:\Program Files (x86)\Microsoft Visual Studio\2019\Community\VC\Tools\MSVC\14.28.29333\include\deque

; 1490 :     }

  00059	c7 46 04 00 00
	00 00		 mov	 DWORD PTR [esi+4], 0
  00060	c7 46 08 00 00
	00 00		 mov	 DWORD PTR [esi+8], 0
  00067	5e		 pop	 esi
  00068	c3		 ret	 0
?_Tidy@?$deque@U?$pair@MUD3DXVECTOR3@@@std@@V?$allocator@U?$pair@MUD3DXVECTOR3@@@std@@@2@@std@@AAEXXZ ENDP ; std::deque<std::pair<float,D3DXVECTOR3>,std::allocator<std::pair<float,D3DXVECTOR3> > >::_Tidy
_TEXT	ENDS
; Function compile flags: /Ogtp
; File C:\Program Files (x86)\Microsoft Visual Studio\2019\Community\VC\Tools\MSVC\14.28.29333\include\deque
;	COMDAT ?_Xlen@?$deque@U?$pair@MUD3DXVECTOR3@@@std@@V?$allocator@U?$pair@MUD3DXVECTOR3@@@std@@@2@@std@@ABEXXZ
_TEXT	SEGMENT
?_Xlen@?$deque@U?$pair@MUD3DXVECTOR3@@@std@@V?$allocator@U?$pair@MUD3DXVECTOR3@@@std@@@2@@std@@ABEXXZ PROC ; std::deque<std::pair<float,D3DXVECTOR3>,std::allocator<std::pair<float,D3DXVECTOR3> > >::_Xlen, COMDAT
; _this$ = ecx

; 1423 :         _Xlength_error("deque<T> too long");

  00000	68 00 00 00 00	 push	 OFFSET ??_C@_0BC@KBDMBKEH@deque?$DMT?$DO?5too?5long@
  00005	e8 00 00 00 00	 call	 ?_Xlength_error@std@@YAXPBD@Z ; std::_Xlength_error
$LN3@Xlen:
  0000a	cc		 int	 3
?_Xlen@?$deque@U?$pair@MUD3DXVECTOR3@@@std@@V?$allocator@U?$pair@MUD3DXVECTOR3@@@std@@@2@@std@@ABEXXZ ENDP ; std::deque<std::pair<float,D3DXVECTOR3>,std::allocator<std::pair<float,D3DXVECTOR3> > >::_Xlen
_TEXT	ENDS
; Function compile flags: /Ogtp
; File C:\Program Files (x86)\Microsoft Visual Studio\2019\Community\VC\Tools\MSVC\14.28.29333\include\deque
; File C:\Program Files (x86)\Microsoft Visual Studio\2019\Community\VC\Tools\MSVC\14.28.29333\include\xmemory
; File C:\Program Files (x86)\Microsoft Visual Studio\2019\Community\VC\Tools\MSVC\14.28.29333\include\deque
; File C:\Program Files (x86)\Microsoft Visual Studio\2019\Community\VC\Tools\MSVC\14.28.29333\include\xmemory
; File C:\Program Files (x86)\Microsoft Visual Studio\2019\Community\VC\Tools\MSVC\14.28.29333\include\deque
; File C:\Program Files (x86)\Microsoft Visual Studio\2019\Community\VC\Tools\MSVC\14.28.29333\include\xmemory
; File C:\Program Files (x86)\Microsoft Visual Studio\2019\Community\VC\Tools\MSVC\14.28.29333\include\deque
; File C:\Program Files (x86)\Microsoft Visual Studio\2019\Community\VC\Tools\MSVC\14.28.29333\include\xmemory
; File C:\Program Files (x86)\Microsoft Visual Studio\2019\Community\VC\Tools\MSVC\14.28.29333\include\deque
; File C:\Program Files (x86)\Microsoft Visual Studio\2019\Community\VC\Tools\MSVC\14.28.29333\include\xmemory
; File C:\Program Files (x86)\Microsoft Visual Studio\2019\Community\VC\Tools\MSVC\14.28.29333\include\xutility
; File C:\Program Files (x86)\Microsoft Visual Studio\2019\Community\VC\Tools\MSVC\14.28.29333\include\deque
; File C:\Program Files (x86)\Microsoft Visual Studio\2019\Community\VC\Tools\MSVC\14.28.29333\include\utility
; File C:\Program Files (x86)\Microsoft Visual Studio\2019\Community\VC\Tools\MSVC\14.28.29333\include\xutility
; File C:\Program Files (x86)\Microsoft Visual Studio\2019\Community\VC\Tools\MSVC\14.28.29333\include\deque
; File C:\Program Files (x86)\Microsoft Visual Studio\2019\Community\VC\Tools\MSVC\14.28.29333\include\xutility
; File C:\Program Files (x86)\Microsoft Visual Studio\2019\Community\VC\Tools\MSVC\14.28.29333\include\deque
; File C:\Program Files (x86)\Microsoft Visual Studio\2019\Community\VC\Tools\MSVC\14.28.29333\include\xmemory
; File C:\Program Files (x86)\Microsoft Visual Studio\2019\Community\VC\Tools\MSVC\14.28.29333\include\deque
; File C:\Program Files (x86)\Microsoft Visual Studio\2019\Community\VC\Tools\MSVC\14.28.29333\include\xmemory
; File C:\Program Files (x86)\Microsoft Visual Studio\2019\Community\VC\Tools\MSVC\14.28.29333\include\deque
; File C:\Program Files (x86)\Microsoft Visual Studio\2019\Community\VC\Tools\MSVC\14.28.29333\include\xmemory
; File C:\Program Files (x86)\Microsoft Visual Studio\2019\Community\VC\Tools\MSVC\14.28.29333\include\xutility
; File C:\Program Files (x86)\Microsoft Visual Studio\2019\Community\VC\Tools\MSVC\14.28.29333\include\deque
; File C:\Program Files (x86)\Microsoft Visual Studio\2019\Community\VC\Tools\MSVC\14.28.29333\include\utility
; File C:\Program Files (x86)\Microsoft Visual Studio\2019\Community\VC\Tools\MSVC\14.28.29333\include\deque
; File C:\Program Files (x86)\Microsoft Visual Studio\2019\Community\VC\Tools\MSVC\14.28.29333\include\xutility
; File C:\Program Files (x86)\Microsoft Visual Studio\2019\Community\VC\Tools\MSVC\14.28.29333\include\deque
; File C:\Program Files (x86)\Microsoft Visual Studio\2019\Community\VC\Tools\MSVC\14.28.29333\include\xmemory
; File C:\Program Files (x86)\Microsoft Visual Studio\2019\Community\VC\Tools\MSVC\14.28.29333\include\deque
; File C:\Program Files (x86)\Microsoft Visual Studio\2019\Community\VC\Tools\MSVC\14.28.29333\include\xmemory
; File C:\Program Files (x86)\Microsoft Visual Studio\2019\Community\VC\Tools\MSVC\14.28.29333\include\deque
; File C:\Program Files (x86)\Microsoft Visual Studio\2019\Community\VC\Tools\MSVC\14.28.29333\include\xmemory
; File C:\Program Files (x86)\Microsoft Visual Studio\2019\Community\VC\Tools\MSVC\14.28.29333\include\deque
; File C:\Program Files (x86)\Microsoft Visual Studio\2019\Community\VC\Tools\MSVC\14.28.29333\include\xmemory
; File C:\Program Files (x86)\Microsoft Visual Studio\2019\Community\VC\Tools\MSVC\14.28.29333\include\deque
;	COMDAT ?erase@?$deque@U?$pair@MUD3DXVECTOR3@@@std@@V?$allocator@U?$pair@MUD3DXVECTOR3@@@std@@@2@@std@@QAE?AV?$_Deque_iterator@V?$_Deque_val@U?$_Deque_simple_types@U?$pair@MUD3DXVECTOR3@@@std@@@std@@@std@@@2@V?$_Deque_const_iterator@V?$_Deque_val@U?$_Deque_simple_types@U?$pair@MUD3DXVECTOR3@@@std@@@std@@@std@@@2@0@Z
_TEXT	SEGMENT
__Off$1$ = -32						; size = 4
_this$1$ = -28						; size = 4
__First$$sroa$1330$1$ = -24				; size = 4
$T6$sroa$1349$1$ = -20					; size = 4
$T13 = -20						; size = 4
$T14 = -20						; size = 4
tv2496 = -16						; size = 4
$T15 = -16						; size = 4
__Count$1$ = -12					; size = 4
tv2489 = -8						; size = 4
$T16 = -8						; size = 4
__UFirst$3$sroa$1362$1$ = -4				; size = 4
$T7$sroa$1347$1$ = -4					; size = 4
___$ReturnUdt$ = 8					; size = 4
__First_arg$ = 12					; size = 12
__Last_arg$ = 24					; size = 12
?erase@?$deque@U?$pair@MUD3DXVECTOR3@@@std@@V?$allocator@U?$pair@MUD3DXVECTOR3@@@std@@@2@@std@@QAE?AV?$_Deque_iterator@V?$_Deque_val@U?$_Deque_simple_types@U?$pair@MUD3DXVECTOR3@@@std@@@std@@@std@@@2@V?$_Deque_const_iterator@V?$_Deque_val@U?$_Deque_simple_types@U?$pair@MUD3DXVECTOR3@@@std@@@std@@@std@@@2@0@Z PROC ; std::deque<std::pair<float,D3DXVECTOR3>,std::allocator<std::pair<float,D3DXVECTOR3> > >::erase, COMDAT
; _this$ = ecx

; 1279 :         is_nothrow_move_assignable_v<value_type>) /* strengthened */ {

  00000	55		 push	 ebp
  00001	8b ec		 mov	 ebp, esp
  00003	83 ec 20	 sub	 esp, 32			; 00000020H
  00006	53		 push	 ebx
  00007	56		 push	 esi
  00008	8b f1		 mov	 esi, ecx
  0000a	89 75 e4	 mov	 DWORD PTR _this$1$[ebp], esi
  0000d	57		 push	 edi
; File C:\Program Files (x86)\Microsoft Visual Studio\2019\Community\VC\Tools\MSVC\14.28.29333\include\xmemory

; 1157 :         if (_Parent) {

  0000e	85 f6		 test	 esi, esi
  00010	74 04		 je	 SHORT $LN40@erase

; 1171 :             _Myproxy = _Parent_proxy;

  00012	8b 0e		 mov	 ecx, DWORD PTR [esi]

; 1172 : #endif // _ITERATOR_DEBUG_LEVEL == 2
; 1173 :         } else {

  00014	eb 02		 jmp	 SHORT $LN71@erase
$LN40@erase:

; 1179 :             _Myproxy = nullptr;

  00016	33 c9		 xor	 ecx, ecx
$LN71@erase:
; File C:\Program Files (x86)\Microsoft Visual Studio\2019\Community\VC\Tools\MSVC\14.28.29333\include\deque

; 342  :         return static_cast<difference_type>(this->_Myoff - _Right._Myoff);

  00018	8b 5d 14	 mov	 ebx, DWORD PTR __First_arg$[ebp+8]
  0001b	8b d3		 mov	 edx, ebx

; 256  :     _Deque_const_iterator(_Size_type _Off, const _Container_base12* _Pdeque) noexcept : _Myoff(_Off) {

  0001d	8b 46 0c	 mov	 eax, DWORD PTR [esi+12]

; 342  :         return static_cast<difference_type>(this->_Myoff - _Right._Myoff);

  00020	2b d0		 sub	 edx, eax
  00022	89 55 e0	 mov	 DWORD PTR __Off$1$[ebp], edx

; 1280 :         iterator _First = _Make_iter(_First_arg);
; 1281 :         iterator _Last  = _Make_iter(_Last_arg);
; 1282 : 
; 1283 : #if _ITERATOR_DEBUG_LEVEL == 2
; 1284 :         _STL_VERIFY(_First <= _Last && begin() <= _First && _Last <= end(), "deque erase iterator outside range");
; 1285 :         _Adl_verify_range(_First, _Last);
; 1286 : 
; 1287 :         auto _Off   = static_cast<size_type>(_First - begin());
; 1288 :         auto _Count = static_cast<size_type>(_Last - _First);
; 1289 :         bool _Moved = 0 < _Off && _Off + _Count < _Mysize();
; 1290 : 
; 1291 : #else // _ITERATOR_DEBUG_LEVEL == 2
; 1292 :         auto _Off   = static_cast<size_type>(_First - begin());

  00025	8b 55 20	 mov	 edx, DWORD PTR __Last_arg$[ebp+8]
  00028	8b fa		 mov	 edi, edx
  0002a	2b fb		 sub	 edi, ebx

; 256  :     _Deque_const_iterator(_Size_type _Off, const _Container_base12* _Pdeque) noexcept : _Myoff(_Off) {

  0002c	89 45 fc	 mov	 DWORD PTR __UFirst$3$sroa$1362$1$[ebp], eax

; 1280 :         iterator _First = _Make_iter(_First_arg);
; 1281 :         iterator _Last  = _Make_iter(_Last_arg);
; 1282 : 
; 1283 : #if _ITERATOR_DEBUG_LEVEL == 2
; 1284 :         _STL_VERIFY(_First <= _Last && begin() <= _First && _Last <= end(), "deque erase iterator outside range");
; 1285 :         _Adl_verify_range(_First, _Last);
; 1286 : 
; 1287 :         auto _Off   = static_cast<size_type>(_First - begin());
; 1288 :         auto _Count = static_cast<size_type>(_Last - _First);
; 1289 :         bool _Moved = 0 < _Off && _Off + _Count < _Mysize();
; 1290 : 
; 1291 : #else // _ITERATOR_DEBUG_LEVEL == 2
; 1292 :         auto _Off   = static_cast<size_type>(_First - begin());

  0002f	89 55 e8	 mov	 DWORD PTR __First$$sroa$1330$1$[ebp], edx
  00032	89 7d f4	 mov	 DWORD PTR __Count$1$[ebp], edi

; 1293 :         auto _Count = static_cast<size_type>(_Last - _First);
; 1294 : #endif // _ITERATOR_DEBUG_LEVEL == 2
; 1295 : 
; 1296 :         if (_Count == 0) {

  00035	75 3a		 jne	 SHORT $LN8@erase
; File C:\Program Files (x86)\Microsoft Visual Studio\2019\Community\VC\Tools\MSVC\14.28.29333\include\xmemory

; 1128 :     _Iterator_base12(const _Iterator_base12& _Right) noexcept : _Myproxy(nullptr), _Mynextiter(nullptr) {

  00037	8b 45 08	 mov	 eax, DWORD PTR ___$ReturnUdt$[ebp]
  0003a	c7 00 00 00 00
	00		 mov	 DWORD PTR [eax], 0
  00040	c7 40 04 00 00
	00 00		 mov	 DWORD PTR [eax+4], 0

; 1133 :         if (_Myproxy != _Right._Myproxy) {

  00047	85 c9		 test	 ecx, ecx
  00049	74 1a		 je	 SHORT $LN106@erase

; 1134 :             if (_Right._Myproxy) {
; 1135 :                 _Adopt(_Right._Myproxy->_Mycont);

  0004b	8b 09		 mov	 ecx, DWORD PTR [ecx]

; 1157 :         if (_Parent) {

  0004d	85 c9		 test	 ecx, ecx
  0004f	74 10		 je	 SHORT $LN109@erase

; 1171 :             _Myproxy = _Parent_proxy;

  00051	8b 09		 mov	 ecx, DWORD PTR [ecx]

; 1136 :             } else { // becoming invalid, disown current parent

  00053	89 08		 mov	 DWORD PTR [eax], ecx
  00055	89 58 08	 mov	 DWORD PTR [eax+8], ebx
; File C:\Program Files (x86)\Microsoft Visual Studio\2019\Community\VC\Tools\MSVC\14.28.29333\include\deque

; 1319 :     }

  00058	5f		 pop	 edi
  00059	5e		 pop	 esi
  0005a	5b		 pop	 ebx
  0005b	8b e5		 mov	 esp, ebp
  0005d	5d		 pop	 ebp
  0005e	c2 1c 00	 ret	 28			; 0000001cH
$LN109@erase:
; File C:\Program Files (x86)\Microsoft Visual Studio\2019\Community\VC\Tools\MSVC\14.28.29333\include\xmemory

; 1179 :             _Myproxy = nullptr;

  00061	33 c9		 xor	 ecx, ecx

; 1136 :             } else { // becoming invalid, disown current parent

  00063	89 08		 mov	 DWORD PTR [eax], ecx
$LN106@erase:
  00065	89 58 08	 mov	 DWORD PTR [eax+8], ebx
; File C:\Program Files (x86)\Microsoft Visual Studio\2019\Community\VC\Tools\MSVC\14.28.29333\include\deque

; 1319 :     }

  00068	5f		 pop	 edi
  00069	5e		 pop	 esi
  0006a	5b		 pop	 ebx
  0006b	8b e5		 mov	 esp, ebp
  0006d	5d		 pop	 ebp
  0006e	c2 1c 00	 ret	 28			; 0000001cH
$LN8@erase:

; 906  :         return iterator(_Myoff() + _Mysize(), _STD addressof(_Get_data()));

  00071	8b 46 10	 mov	 eax, DWORD PTR [esi+16]
  00074	03 45 fc	 add	 eax, DWORD PTR __UFirst$3$sroa$1362$1$[ebp]
  00077	89 45 f8	 mov	 DWORD PTR tv2489[ebp], eax

; 342  :         return static_cast<difference_type>(this->_Myoff - _Right._Myoff);

  0007a	2b c2		 sub	 eax, edx

; 1297 :             return _First;
; 1298 :         }
; 1299 : 
; 1300 :         if (_Off < static_cast<size_type>(end() - _Last)) { // closer to front

  0007c	39 45 e0	 cmp	 DWORD PTR __Off$1$[ebp], eax
  0007f	0f 83 a9 00 00
	00		 jae	 $LN9@erase
; File C:\Program Files (x86)\Microsoft Visual Studio\2019\Community\VC\Tools\MSVC\14.28.29333\include\xmemory

; 1128 :     _Iterator_base12(const _Iterator_base12& _Right) noexcept : _Myproxy(nullptr), _Mynextiter(nullptr) {

  00085	33 d2		 xor	 edx, edx

; 1133 :         if (_Myproxy != _Right._Myproxy) {

  00087	85 c9		 test	 ecx, ecx
  00089	74 23		 je	 SHORT $LN535@erase

; 1134 :             if (_Right._Myproxy) {
; 1135 :                 _Adopt(_Right._Myproxy->_Mycont);

  0008b	8b 11		 mov	 edx, DWORD PTR [ecx]

; 1157 :         if (_Parent) {

  0008d	85 d2		 test	 edx, edx
  0008f	74 08		 je	 SHORT $LN145@erase

; 1171 :             _Myproxy = _Parent_proxy;

  00091	8b 01		 mov	 eax, DWORD PTR [ecx]
  00093	8b 12		 mov	 edx, DWORD PTR [edx]
  00095	8b 08		 mov	 ecx, DWORD PTR [eax]

; 1172 : #endif // _ITERATOR_DEBUG_LEVEL == 2
; 1173 :         } else {

  00097	eb 17		 jmp	 SHORT $LN163@erase
$LN145@erase:

; 1179 :             _Myproxy = nullptr;

  00099	8b 45 fc	 mov	 eax, DWORD PTR __UFirst$3$sroa$1362$1$[ebp]
  0009c	33 d2		 xor	 edx, edx
  0009e	89 45 f0	 mov	 DWORD PTR tv2496[ebp], eax
$LN202@erase:

; 1185 :         return _Myproxy ? _Myproxy->_Mycont : nullptr;

  000a1	33 c9		 xor	 ecx, ecx
$LN537@erase:
  000a3	89 4d f8	 mov	 DWORD PTR $T16[ebp], ecx
  000a6	85 d2		 test	 edx, edx
  000a8	74 17		 je	 SHORT $LN220@erase
  000aa	8b 02		 mov	 eax, DWORD PTR [edx]
  000ac	eb 15		 jmp	 SHORT $LN538@erase
$LN535@erase:

; 1133 :         if (_Myproxy != _Right._Myproxy) {

  000ae	33 c9		 xor	 ecx, ecx
$LN163@erase:
; File C:\Program Files (x86)\Microsoft Visual Studio\2019\Community\VC\Tools\MSVC\14.28.29333\include\deque

; 52   :         : _Mycont(static_cast<const _Mydeque*>(_Pdeque)), _Myoff(_Off) {}

  000b0	8b 45 fc	 mov	 eax, DWORD PTR __UFirst$3$sroa$1362$1$[ebp]
  000b3	89 45 fc	 mov	 DWORD PTR __UFirst$3$sroa$1362$1$[ebp], eax
  000b6	89 45 f0	 mov	 DWORD PTR tv2496[ebp], eax
; File C:\Program Files (x86)\Microsoft Visual Studio\2019\Community\VC\Tools\MSVC\14.28.29333\include\xmemory

; 1185 :         return _Myproxy ? _Myproxy->_Mycont : nullptr;

  000b9	85 c9		 test	 ecx, ecx
  000bb	74 e4		 je	 SHORT $LN202@erase
  000bd	8b 09		 mov	 ecx, DWORD PTR [ecx]
  000bf	eb e2		 jmp	 SHORT $LN537@erase
$LN220@erase:
  000c1	33 c0		 xor	 eax, eax
$LN538@erase:
; File C:\Program Files (x86)\Microsoft Visual Studio\2019\Community\VC\Tools\MSVC\14.28.29333\include\xutility

; 4739 :     _Seek_wrapped(_Dest, _Move_backward_unchecked(_UFirst, _ULast, _UDest));

  000c3	89 45 ec	 mov	 DWORD PTR $T14[ebp], eax
  000c6	39 5d f0	 cmp	 DWORD PTR tv2496[ebp], ebx

; 4700 :     while (_First != _Last) {

  000c9	74 47		 je	 SHORT $LL531@erase
  000cb	8b 7d e8	 mov	 edi, DWORD PTR __First$$sroa$1330$1$[ebp]
  000ce	8b 75 fc	 mov	 esi, DWORD PTR __UFirst$3$sroa$1362$1$[ebp]
$LL227@erase:
; File C:\Program Files (x86)\Microsoft Visual Studio\2019\Community\VC\Tools\MSVC\14.28.29333\include\deque

; 548  :         return (_Off / _DEQUESIZ) & (_Mapsize - 1);

  000d1	8b 49 08	 mov	 ecx, DWORD PTR [ecx+8]

; 76   :         --_Myoff;

  000d4	4b		 dec	 ebx

; 171  :         return const_cast<reference>(_Mybase::operator*());

  000d5	8b 45 f8	 mov	 eax, DWORD PTR $T16[ebp]

; 548  :         return (_Off / _DEQUESIZ) & (_Mapsize - 1);

  000d8	49		 dec	 ecx
  000d9	23 cb		 and	 ecx, ebx

; 76   :         --_Myoff;

  000db	4f		 dec	 edi

; 171  :         return const_cast<reference>(_Mybase::operator*());

  000dc	8b 40 04	 mov	 eax, DWORD PTR [eax+4]
  000df	8b 14 88	 mov	 edx, DWORD PTR [eax+ecx*4]

; 548  :         return (_Off / _DEQUESIZ) & (_Mapsize - 1);

  000e2	8b 45 ec	 mov	 eax, DWORD PTR $T14[ebp]
  000e5	8b 48 08	 mov	 ecx, DWORD PTR [eax+8]

; 171  :         return const_cast<reference>(_Mybase::operator*());

  000e8	8b 40 04	 mov	 eax, DWORD PTR [eax+4]

; 548  :         return (_Off / _DEQUESIZ) & (_Mapsize - 1);

  000eb	49		 dec	 ecx
  000ec	23 cf		 and	 ecx, edi

; 171  :         return const_cast<reference>(_Mybase::operator*());

  000ee	8b 0c 88	 mov	 ecx, DWORD PTR [eax+ecx*4]
; File C:\Program Files (x86)\Microsoft Visual Studio\2019\Community\VC\Tools\MSVC\14.28.29333\include\utility

; 290  :         first  = _STD forward<_Ty1>(_Right.first);

  000f1	8b 02		 mov	 eax, DWORD PTR [edx]
  000f3	89 01		 mov	 DWORD PTR [ecx], eax

; 291  :         second = _STD forward<_Ty2>(_Right.second);

  000f5	f3 0f 7e 42 04	 movq	 xmm0, QWORD PTR [edx+4]
  000fa	66 0f d6 41 04	 movq	 QWORD PTR [ecx+4], xmm0
  000ff	8b 42 0c	 mov	 eax, DWORD PTR [edx+12]
  00102	89 41 0c	 mov	 DWORD PTR [ecx+12], eax
; File C:\Program Files (x86)\Microsoft Visual Studio\2019\Community\VC\Tools\MSVC\14.28.29333\include\xutility

; 4700 :     while (_First != _Last) {

  00105	8b 4d f8	 mov	 ecx, DWORD PTR $T16[ebp]
; File C:\Program Files (x86)\Microsoft Visual Studio\2019\Community\VC\Tools\MSVC\14.28.29333\include\deque

; 115  :         return _Myoff == _Right._Myoff;

  00108	3b de		 cmp	 ebx, esi
; File C:\Program Files (x86)\Microsoft Visual Studio\2019\Community\VC\Tools\MSVC\14.28.29333\include\xutility

; 4700 :     while (_First != _Last) {

  0010a	75 c5		 jne	 SHORT $LL227@erase
  0010c	8b 75 e4	 mov	 esi, DWORD PTR _this$1$[ebp]
  0010f	8b 7d f4	 mov	 edi, DWORD PTR __Count$1$[ebp]
$LL531@erase:
; File C:\Program Files (x86)\Microsoft Visual Studio\2019\Community\VC\Tools\MSVC\14.28.29333\include\deque

; 1104 :         if (--_Mysize() == 0) {

  00112	83 46 10 ff	 add	 DWORD PTR [esi+16], -1
  00116	75 09		 jne	 SHORT $LN274@erase

; 1105 :             _Myoff() = 0;

  00118	c7 46 0c 00 00
	00 00		 mov	 DWORD PTR [esi+12], 0

; 1106 :         } else {

  0011f	eb 03		 jmp	 SHORT $LN2@erase
$LN274@erase:

; 1107 :             ++_Myoff();

  00121	ff 46 0c	 inc	 DWORD PTR [esi+12]
$LN2@erase:

; 1301 :             _STD move_backward(begin(), _First, _Last); // copy over hole
; 1302 :             for (; 0 < _Count; --_Count) {

  00124	83 ef 01	 sub	 edi, 1
  00127	75 e9		 jne	 SHORT $LL531@erase
  00129	e9 b4 00 00 00	 jmp	 $LN6@erase
$LN9@erase:
; File C:\Program Files (x86)\Microsoft Visual Studio\2019\Community\VC\Tools\MSVC\14.28.29333\include\xmemory

; 1133 :         if (_Myproxy != _Right._Myproxy) {

  0012e	85 c9		 test	 ecx, ecx
  00130	74 32		 je	 SHORT $LN296@erase

; 1134 :             if (_Right._Myproxy) {
; 1135 :                 _Adopt(_Right._Myproxy->_Mycont);

  00132	8b 01		 mov	 eax, DWORD PTR [ecx]

; 1157 :         if (_Parent) {

  00134	85 c0		 test	 eax, eax
  00136	74 22		 je	 SHORT $LN295@erase

; 1171 :             _Myproxy = _Parent_proxy;

  00138	8b 00		 mov	 eax, DWORD PTR [eax]
  0013a	89 45 ec	 mov	 DWORD PTR $T6$sroa$1349$1$[ebp], eax
  0013d	8b 01		 mov	 eax, DWORD PTR [ecx]
  0013f	8b 08		 mov	 ecx, DWORD PTR [eax]
; File C:\Program Files (x86)\Microsoft Visual Studio\2019\Community\VC\Tools\MSVC\14.28.29333\include\deque

; 504  :         return {this->_Myoff, this->_Getcont()};

  00141	8b 45 f8	 mov	 eax, DWORD PTR tv2489[ebp]
  00144	89 45 fc	 mov	 DWORD PTR $T7$sroa$1347$1$[ebp], eax
  00147	85 c9		 test	 ecx, ecx
; File C:\Program Files (x86)\Microsoft Visual Studio\2019\Community\VC\Tools\MSVC\14.28.29333\include\xmemory

; 1185 :         return _Myproxy ? _Myproxy->_Mycont : nullptr;

  00149	74 25		 je	 SHORT $LN534@erase
  0014b	8b 09		 mov	 ecx, DWORD PTR [ecx]
  0014d	89 4d f0	 mov	 DWORD PTR $T15[ebp], ecx
  00150	8b 4d ec	 mov	 ecx, DWORD PTR $T6$sroa$1349$1$[ebp]
  00153	89 45 fc	 mov	 DWORD PTR $T7$sroa$1347$1$[ebp], eax
  00156	8b 09		 mov	 ecx, DWORD PTR [ecx]
  00158	eb 2a		 jmp	 SHORT $LN539@erase
$LN295@erase:

; 1179 :             _Myproxy = nullptr;

  0015a	8b 45 f8	 mov	 eax, DWORD PTR tv2489[ebp]
  0015d	33 c9		 xor	 ecx, ecx
  0015f	89 45 fc	 mov	 DWORD PTR $T7$sroa$1347$1$[ebp], eax
  00162	eb 0f		 jmp	 SHORT $LN340@erase
$LN296@erase:
; File C:\Program Files (x86)\Microsoft Visual Studio\2019\Community\VC\Tools\MSVC\14.28.29333\include\deque

; 256  :     _Deque_const_iterator(_Size_type _Off, const _Container_base12* _Pdeque) noexcept : _Myoff(_Off) {

  00164	8b 4d f8	 mov	 ecx, DWORD PTR tv2489[ebp]
  00167	8b c1		 mov	 eax, ecx
  00169	89 4d fc	 mov	 DWORD PTR $T7$sroa$1347$1$[ebp], ecx
  0016c	33 c9		 xor	 ecx, ecx
; File C:\Program Files (x86)\Microsoft Visual Studio\2019\Community\VC\Tools\MSVC\14.28.29333\include\xmemory

; 1185 :         return _Myproxy ? _Myproxy->_Mycont : nullptr;

  0016e	eb 03		 jmp	 SHORT $LN340@erase
$LN534@erase:
  00170	8b 4d ec	 mov	 ecx, DWORD PTR $T6$sroa$1349$1$[ebp]
$LN340@erase:
  00173	c7 45 f0 00 00
	00 00		 mov	 DWORD PTR $T15[ebp], 0
  0017a	85 c9		 test	 ecx, ecx
  0017c	74 04		 je	 SHORT $LN370@erase
  0017e	8b 09		 mov	 ecx, DWORD PTR [ecx]
  00180	eb 02		 jmp	 SHORT $LN539@erase
$LN370@erase:
  00182	33 c9		 xor	 ecx, ecx
$LN539@erase:
; File C:\Program Files (x86)\Microsoft Visual Studio\2019\Community\VC\Tools\MSVC\14.28.29333\include\xutility

; 4670 :     _Seek_wrapped(_Dest, _Move_unchecked(_UFirst, _ULast, _UDest));

  00184	89 4d ec	 mov	 DWORD PTR $T13[ebp], ecx
  00187	3b d0		 cmp	 edx, eax

; 4632 :     for (; _First != _Last; ++_Dest, (void) ++_First) {

  00189	74 45		 je	 SHORT $LL533@erase
  0018b	8b 75 fc	 mov	 esi, DWORD PTR $T7$sroa$1347$1$[ebp]
  0018e	8b fa		 mov	 edi, edx
$LL388@erase:
; File C:\Program Files (x86)\Microsoft Visual Studio\2019\Community\VC\Tools\MSVC\14.28.29333\include\deque

; 548  :         return (_Off / _DEQUESIZ) & (_Mapsize - 1);

  00190	8b 45 f0	 mov	 eax, DWORD PTR $T15[ebp]
  00193	8b 48 08	 mov	 ecx, DWORD PTR [eax+8]

; 171  :         return const_cast<reference>(_Mybase::operator*());

  00196	8b 40 04	 mov	 eax, DWORD PTR [eax+4]

; 548  :         return (_Off / _DEQUESIZ) & (_Mapsize - 1);

  00199	49		 dec	 ecx
  0019a	23 cf		 and	 ecx, edi

; 65   :         ++_Myoff;

  0019c	47		 inc	 edi

; 171  :         return const_cast<reference>(_Mybase::operator*());

  0019d	8b 14 88	 mov	 edx, DWORD PTR [eax+ecx*4]

; 548  :         return (_Off / _DEQUESIZ) & (_Mapsize - 1);

  001a0	8b 45 ec	 mov	 eax, DWORD PTR $T13[ebp]
  001a3	8b 48 08	 mov	 ecx, DWORD PTR [eax+8]

; 171  :         return const_cast<reference>(_Mybase::operator*());

  001a6	8b 40 04	 mov	 eax, DWORD PTR [eax+4]

; 548  :         return (_Off / _DEQUESIZ) & (_Mapsize - 1);

  001a9	49		 dec	 ecx
  001aa	23 cb		 and	 ecx, ebx

; 65   :         ++_Myoff;

  001ac	43		 inc	 ebx

; 171  :         return const_cast<reference>(_Mybase::operator*());

  001ad	8b 0c 88	 mov	 ecx, DWORD PTR [eax+ecx*4]
; File C:\Program Files (x86)\Microsoft Visual Studio\2019\Community\VC\Tools\MSVC\14.28.29333\include\utility

; 290  :         first  = _STD forward<_Ty1>(_Right.first);

  001b0	8b 02		 mov	 eax, DWORD PTR [edx]
  001b2	89 01		 mov	 DWORD PTR [ecx], eax

; 291  :         second = _STD forward<_Ty2>(_Right.second);

  001b4	f3 0f 7e 42 04	 movq	 xmm0, QWORD PTR [edx+4]
  001b9	66 0f d6 41 04	 movq	 QWORD PTR [ecx+4], xmm0
  001be	8b 42 0c	 mov	 eax, DWORD PTR [edx+12]
  001c1	89 41 0c	 mov	 DWORD PTR [ecx+12], eax
; File C:\Program Files (x86)\Microsoft Visual Studio\2019\Community\VC\Tools\MSVC\14.28.29333\include\deque

; 115  :         return _Myoff == _Right._Myoff;

  001c4	3b fe		 cmp	 edi, esi
; File C:\Program Files (x86)\Microsoft Visual Studio\2019\Community\VC\Tools\MSVC\14.28.29333\include\xutility

; 4632 :     for (; _First != _Last; ++_Dest, (void) ++_First) {

  001c6	75 c8		 jne	 SHORT $LL388@erase
  001c8	8b 75 e4	 mov	 esi, DWORD PTR _this$1$[ebp]
  001cb	8b 7d f4	 mov	 edi, DWORD PTR __Count$1$[ebp]
  001ce	66 90		 npad	 2
$LL533@erase:
; File C:\Program Files (x86)\Microsoft Visual Studio\2019\Community\VC\Tools\MSVC\14.28.29333\include\deque

; 1144 :         if (--_Mysize() == 0) {

  001d0	83 46 10 ff	 add	 DWORD PTR [esi+16], -1
  001d4	75 07		 jne	 SHORT $LN5@erase

; 1145 :             _Myoff() = 0;

  001d6	c7 46 0c 00 00
	00 00		 mov	 DWORD PTR [esi+12], 0
$LN5@erase:

; 1303 :                 pop_front(); // pop copied elements
; 1304 :             }
; 1305 :         } else { // closer to back
; 1306 :             _STD move(_Last, end(), _First); // copy over hole
; 1307 :             for (; 0 < _Count; --_Count) {

  001dd	83 ef 01	 sub	 edi, 1
  001e0	75 ee		 jne	 SHORT $LL533@erase
$LN6@erase:
; File C:\Program Files (x86)\Microsoft Visual Studio\2019\Community\VC\Tools\MSVC\14.28.29333\include\xmemory

; 1171 :             _Myproxy = _Parent_proxy;

  001e2	8b 06		 mov	 eax, DWORD PTR [esi]

; 1133 :         if (_Myproxy != _Right._Myproxy) {

  001e4	33 c9		 xor	 ecx, ecx
; File C:\Program Files (x86)\Microsoft Visual Studio\2019\Community\VC\Tools\MSVC\14.28.29333\include\deque

; 256  :     _Deque_const_iterator(_Size_type _Off, const _Container_base12* _Pdeque) noexcept : _Myoff(_Off) {

  001e6	8b 56 0c	 mov	 edx, DWORD PTR [esi+12]
; File C:\Program Files (x86)\Microsoft Visual Studio\2019\Community\VC\Tools\MSVC\14.28.29333\include\xmemory

; 1133 :         if (_Myproxy != _Right._Myproxy) {

  001e9	85 c0		 test	 eax, eax
  001eb	74 0c		 je	 SHORT $LN466@erase

; 1134 :             if (_Right._Myproxy) {
; 1135 :                 _Adopt(_Right._Myproxy->_Mycont);

  001ed	8b 08		 mov	 ecx, DWORD PTR [eax]

; 1157 :         if (_Parent) {

  001ef	85 c9		 test	 ecx, ecx
  001f1	74 04		 je	 SHORT $LN465@erase

; 1171 :             _Myproxy = _Parent_proxy;

  001f3	8b 09		 mov	 ecx, DWORD PTR [ecx]

; 1172 : #endif // _ITERATOR_DEBUG_LEVEL == 2
; 1173 :         } else {

  001f5	eb 02		 jmp	 SHORT $LN466@erase
$LN465@erase:

; 1179 :             _Myproxy = nullptr;

  001f7	33 c9		 xor	 ecx, ecx
$LN466@erase:

; 1128 :     _Iterator_base12(const _Iterator_base12& _Right) noexcept : _Myproxy(nullptr), _Mynextiter(nullptr) {

  001f9	8b 45 08	 mov	 eax, DWORD PTR ___$ReturnUdt$[ebp]
; File C:\Program Files (x86)\Microsoft Visual Studio\2019\Community\VC\Tools\MSVC\14.28.29333\include\deque

; 322  :         _Myoff += _Off;

  001fc	03 55 e0	 add	 edx, DWORD PTR __Off$1$[ebp]
; File C:\Program Files (x86)\Microsoft Visual Studio\2019\Community\VC\Tools\MSVC\14.28.29333\include\xmemory

; 1128 :     _Iterator_base12(const _Iterator_base12& _Right) noexcept : _Myproxy(nullptr), _Mynextiter(nullptr) {

  001ff	c7 00 00 00 00
	00		 mov	 DWORD PTR [eax], 0
  00205	c7 40 04 00 00
	00 00		 mov	 DWORD PTR [eax+4], 0

; 1133 :         if (_Myproxy != _Right._Myproxy) {

  0020c	85 c9		 test	 ecx, ecx
  0020e	74 1a		 je	 SHORT $LN483@erase

; 1134 :             if (_Right._Myproxy) {
; 1135 :                 _Adopt(_Right._Myproxy->_Mycont);

  00210	8b 09		 mov	 ecx, DWORD PTR [ecx]

; 1157 :         if (_Parent) {

  00212	85 c9		 test	 ecx, ecx
  00214	74 10		 je	 SHORT $LN486@erase

; 1171 :             _Myproxy = _Parent_proxy;

  00216	8b 09		 mov	 ecx, DWORD PTR [ecx]

; 1136 :             } else { // becoming invalid, disown current parent

  00218	89 08		 mov	 DWORD PTR [eax], ecx
  0021a	89 50 08	 mov	 DWORD PTR [eax+8], edx
; File C:\Program Files (x86)\Microsoft Visual Studio\2019\Community\VC\Tools\MSVC\14.28.29333\include\deque

; 1319 :     }

  0021d	5f		 pop	 edi
  0021e	5e		 pop	 esi
  0021f	5b		 pop	 ebx
  00220	8b e5		 mov	 esp, ebp
  00222	5d		 pop	 ebp
  00223	c2 1c 00	 ret	 28			; 0000001cH
$LN486@erase:
; File C:\Program Files (x86)\Microsoft Visual Studio\2019\Community\VC\Tools\MSVC\14.28.29333\include\xmemory

; 1179 :             _Myproxy = nullptr;

  00226	33 c9		 xor	 ecx, ecx

; 1136 :             } else { // becoming invalid, disown current parent

  00228	89 08		 mov	 DWORD PTR [eax], ecx
$LN483@erase:
; File C:\Program Files (x86)\Microsoft Visual Studio\2019\Community\VC\Tools\MSVC\14.28.29333\include\deque

; 1319 :     }

  0022a	5f		 pop	 edi
  0022b	5e		 pop	 esi
  0022c	89 50 08	 mov	 DWORD PTR [eax+8], edx
  0022f	5b		 pop	 ebx
  00230	8b e5		 mov	 esp, ebp
  00232	5d		 pop	 ebp
  00233	c2 1c 00	 ret	 28			; 0000001cH
?erase@?$deque@U?$pair@MUD3DXVECTOR3@@@std@@V?$allocator@U?$pair@MUD3DXVECTOR3@@@std@@@2@@std@@QAE?AV?$_Deque_iterator@V?$_Deque_val@U?$_Deque_simple_types@U?$pair@MUD3DXVECTOR3@@@std@@@std@@@std@@@2@V?$_Deque_const_iterator@V?$_Deque_val@U?$_Deque_simple_types@U?$pair@MUD3DXVECTOR3@@@std@@@std@@@std@@@2@0@Z ENDP ; std::deque<std::pair<float,D3DXVECTOR3>,std::allocator<std::pair<float,D3DXVECTOR3> > >::erase
_TEXT	ENDS
; Function compile flags: /Ogtp
; File C:\Program Files (x86)\Microsoft Visual Studio\2019\Community\VC\Tools\MSVC\14.28.29333\include\deque
; File C:\Program Files (x86)\Microsoft Visual Studio\2019\Community\VC\Tools\MSVC\14.28.29333\include\utility
; File C:\Program Files (x86)\Microsoft Visual Studio\2019\Community\VC\Tools\MSVC\14.28.29333\include\deque
; File C:\Program Files (x86)\Microsoft Visual Studio\2019\Community\VC\Tools\MSVC\14.28.29333\include\utility
; File C:\Program Files (x86)\Microsoft Visual Studio\2019\Community\VC\Tools\MSVC\14.28.29333\include\deque
;	COMDAT ??1?$deque@U?$pair@MUD3DXVECTOR3@@@std@@V?$allocator@U?$pair@MUD3DXVECTOR3@@@std@@@2@@std@@QAE@XZ
_TEXT	SEGMENT
__Proxy_allocator$ = -1					; size = 1
??1?$deque@U?$pair@MUD3DXVECTOR3@@@std@@V?$allocator@U?$pair@MUD3DXVECTOR3@@@std@@@2@@std@@QAE@XZ PROC ; std::deque<std::pair<float,D3DXVECTOR3>,std::allocator<std::pair<float,D3DXVECTOR3> > >::~deque<std::pair<float,D3DXVECTOR3>,std::allocator<std::pair<float,D3DXVECTOR3> > >, COMDAT
; _this$ = ecx

; 869  :     ~deque() noexcept {

  00000	55		 push	 ebp
  00001	8b ec		 mov	 ebp, esp
  00003	51		 push	 ecx
  00004	56		 push	 esi
  00005	8b f1		 mov	 esi, ecx

; 870  :         _Tidy();

  00007	e8 00 00 00 00	 call	 ?_Tidy@?$deque@U?$pair@MUD3DXVECTOR3@@@std@@V?$allocator@U?$pair@MUD3DXVECTOR3@@@std@@@2@@std@@AAEXXZ ; std::deque<std::pair<float,D3DXVECTOR3>,std::allocator<std::pair<float,D3DXVECTOR3> > >::_Tidy
; File C:\Program Files (x86)\Microsoft Visual Studio\2019\Community\VC\Tools\MSVC\14.28.29333\include\utility

; 598  :     _Ty _Old_val = static_cast<_Ty&&>(_Val);

  0000c	8b 06		 mov	 eax, DWORD PTR [esi]
; File C:\Program Files (x86)\Microsoft Visual Studio\2019\Community\VC\Tools\MSVC\14.28.29333\include\deque

; 872  :         _Delete_plain_internal(_Proxy_allocator, _STD exchange(_Get_data()._Myproxy, nullptr));

  0000e	50		 push	 eax
  0000f	8d 45 ff	 lea	 eax, DWORD PTR __Proxy_allocator$[ebp]
; File C:\Program Files (x86)\Microsoft Visual Studio\2019\Community\VC\Tools\MSVC\14.28.29333\include\utility

; 599  :     _Val         = static_cast<_Other&&>(_New_val);

  00012	c7 06 00 00 00
	00		 mov	 DWORD PTR [esi], 0
; File C:\Program Files (x86)\Microsoft Visual Studio\2019\Community\VC\Tools\MSVC\14.28.29333\include\deque

; 872  :         _Delete_plain_internal(_Proxy_allocator, _STD exchange(_Get_data()._Myproxy, nullptr));

  00018	50		 push	 eax
  00019	e8 00 00 00 00	 call	 ??$_Delete_plain_internal@V?$allocator@U_Container_proxy@std@@@std@@@std@@YAXAAV?$allocator@U_Container_proxy@std@@@0@QAU_Container_proxy@0@@Z ; std::_Delete_plain_internal<std::allocator<std::_Container_proxy> >
  0001e	83 c4 08	 add	 esp, 8
  00021	5e		 pop	 esi

; 873  :     }

  00022	8b e5		 mov	 esp, ebp
  00024	5d		 pop	 ebp
  00025	c3		 ret	 0
??1?$deque@U?$pair@MUD3DXVECTOR3@@@std@@V?$allocator@U?$pair@MUD3DXVECTOR3@@@std@@@2@@std@@QAE@XZ ENDP ; std::deque<std::pair<float,D3DXVECTOR3>,std::allocator<std::pair<float,D3DXVECTOR3> > >::~deque<std::pair<float,D3DXVECTOR3>,std::allocator<std::pair<float,D3DXVECTOR3> > >
_TEXT	ENDS
; Function compile flags: /Ogtp
; File C:\Program Files (x86)\Microsoft Visual Studio\2019\Community\VC\Tools\MSVC\14.28.29333\include\deque
; File C:\Program Files (x86)\Microsoft Visual Studio\2019\Community\VC\Tools\MSVC\14.28.29333\include\xmemory
; File C:\Program Files (x86)\Microsoft Visual Studio\2019\Community\VC\Tools\MSVC\14.28.29333\include\deque
; File C:\Program Files (x86)\Microsoft Visual Studio\2019\Community\VC\Tools\MSVC\14.28.29333\include\xmemory
; File C:\Program Files (x86)\Microsoft Visual Studio\2019\Community\VC\Tools\MSVC\14.28.29333\include\deque
; File C:\Program Files (x86)\Microsoft Visual Studio\2019\Community\VC\Tools\MSVC\14.28.29333\include\xmemory
; File C:\Program Files (x86)\Microsoft Visual Studio\2019\Community\VC\Tools\MSVC\14.28.29333\include\deque
; File C:\Program Files (x86)\Microsoft Visual Studio\2019\Community\VC\Tools\MSVC\14.28.29333\include\xmemory
; File C:\Program Files (x86)\Microsoft Visual Studio\2019\Community\VC\Tools\MSVC\14.28.29333\include\deque
; File C:\Program Files (x86)\Microsoft Visual Studio\2019\Community\VC\Tools\MSVC\14.28.29333\include\xmemory
; File C:\Program Files (x86)\Microsoft Visual Studio\2019\Community\VC\Tools\MSVC\14.28.29333\include\deque
; File C:\Program Files (x86)\Microsoft Visual Studio\2019\Community\VC\Tools\MSVC\14.28.29333\include\xmemory
; File C:\Program Files (x86)\Microsoft Visual Studio\2019\Community\VC\Tools\MSVC\14.28.29333\include\deque
; File C:\Program Files (x86)\Microsoft Visual Studio\2019\Community\VC\Tools\MSVC\14.28.29333\include\xmemory
; File C:\Program Files (x86)\Microsoft Visual Studio\2019\Community\VC\Tools\MSVC\14.28.29333\include\deque
;	COMDAT ?push_front@?$deque@U?$pair@MUD3DXVECTOR3@@@std@@V?$allocator@U?$pair@MUD3DXVECTOR3@@@std@@@2@@std@@QAEX$$QAU?$pair@MUD3DXVECTOR3@@@2@@Z
_TEXT	SEGMENT
tv592 = -8						; size = 4
__Newmap$1$ = -4					; size = 4
__Val$ = 8						; size = 4
?push_front@?$deque@U?$pair@MUD3DXVECTOR3@@@std@@V?$allocator@U?$pair@MUD3DXVECTOR3@@@std@@@2@@std@@QAEX$$QAU?$pair@MUD3DXVECTOR3@@@2@@Z PROC ; std::deque<std::pair<float,D3DXVECTOR3>,std::allocator<std::pair<float,D3DXVECTOR3> > >::push_front, COMDAT
; _this$ = ecx

; 788  :     void push_front(_Ty&& _Val) {

  00000	55		 push	 ebp
  00001	8b ec		 mov	 ebp, esp
  00003	83 ec 08	 sub	 esp, 8
  00006	53		 push	 ebx
  00007	56		 push	 esi
  00008	57		 push	 edi
  00009	8b f9		 mov	 edi, ecx

; 790  :         _PUSH_FRONT_BEGIN;

  0000b	8b 47 10	 mov	 eax, DWORD PTR [edi+16]
  0000e	8b 57 08	 mov	 edx, DWORD PTR [edi+8]
  00011	40		 inc	 eax
  00012	3b d0		 cmp	 edx, eax
  00014	0f 87 de 00 00
	00		 ja	 $LN45@push_front

; 1434 :         size_type _Newsize = 0 < _Mapsize() ? _Mapsize() : 1;

  0001a	85 d2		 test	 edx, edx
  0001c	b8 01 00 00 00	 mov	 eax, 1
  00021	0f 45 c2	 cmovne	 eax, edx
$LL8@push_front:

; 1435 :         while (_Newsize - _Mapsize() < _Count || _Newsize < _DEQUEMAPSIZ) {

  00024	8b f0		 mov	 esi, eax
  00026	2b f2		 sub	 esi, edx
  00028	83 fe 01	 cmp	 esi, 1
  0002b	72 05		 jb	 SHORT $LN10@push_front
  0002d	83 f8 08	 cmp	 eax, 8
  00030	73 13		 jae	 SHORT $LN9@push_front
$LN10@push_front:

; 1436 :             // scale _Newsize to 2^N >= _Mapsize() + _Count
; 1437 :             if (max_size() / _DEQUESIZ - _Newsize < _Newsize) {

  00032	b9 ff ff ff 0f	 mov	 ecx, 268435455		; 0fffffffH
  00037	2b c8		 sub	 ecx, eax
  00039	3b c8		 cmp	 ecx, eax
  0003b	0f 82 04 01 00
	00		 jb	 $LN41@push_front

; 1439 :             }
; 1440 : 
; 1441 :             _Newsize *= 2;

  00041	03 c0		 add	 eax, eax

; 1442 :         }

  00043	eb df		 jmp	 SHORT $LL8@push_front
$LN9@push_front:

; 1443 :         _Count = _Newsize - _Mapsize();
; 1444 : 
; 1445 :         size_type _Myboff = _Myoff() / _DEQUESIZ;

  00045	8b 5f 0c	 mov	 ebx, DWORD PTR [edi+12]
; File C:\Program Files (x86)\Microsoft Visual Studio\2019\Community\VC\Tools\MSVC\14.28.29333\include\xmemory

; 60   :         if (_Count > _Max_possible) {

  00048	3d ff ff ff 3f	 cmp	 eax, 1073741823		; 3fffffffH
  0004d	0f 87 f9 00 00
	00		 ja	 $LN49@push_front

; 62   :         }
; 63   :     }
; 64   : 
; 65   :     return _Count * _Ty_size;

  00053	c1 e0 02	 shl	 eax, 2

; 814  :         return static_cast<_Ty*>(_Allocate<_New_alignof<_Ty>>(_Get_size_of_n<sizeof(_Ty)>(_Count)));

  00056	50		 push	 eax
  00057	e8 00 00 00 00	 call	 ??$_Allocate@$07U_Default_allocate_traits@std@@$0A@@std@@YAPAXI@Z ; std::_Allocate<8,std::_Default_allocate_traits,0>
; File C:\Program Files (x86)\Microsoft Visual Studio\2019\Community\VC\Tools\MSVC\14.28.29333\include\deque

; 1449 :         _Myptr = _STD uninitialized_copy(_Map() + _Myboff, _Map() + _Mapsize(), _Myptr); // copy initial to end

  0005c	8b 57 04	 mov	 edx, DWORD PTR [edi+4]
  0005f	8d 0c 9d 00 00
	00 00		 lea	 ecx, DWORD PTR [ebx*4]
  00066	89 4d f8	 mov	 DWORD PTR tv592[ebp], ecx
  00069	03 c8		 add	 ecx, eax
  0006b	51		 push	 ecx
  0006c	8b 4f 08	 mov	 ecx, DWORD PTR [edi+8]
; File C:\Program Files (x86)\Microsoft Visual Studio\2019\Community\VC\Tools\MSVC\14.28.29333\include\xmemory

; 814  :         return static_cast<_Ty*>(_Allocate<_New_alignof<_Ty>>(_Get_size_of_n<sizeof(_Ty)>(_Count)));

  0006f	89 45 fc	 mov	 DWORD PTR __Newmap$1$[ebp], eax
; File C:\Program Files (x86)\Microsoft Visual Studio\2019\Community\VC\Tools\MSVC\14.28.29333\include\deque

; 1449 :         _Myptr = _STD uninitialized_copy(_Map() + _Myboff, _Map() + _Mapsize(), _Myptr); // copy initial to end

  00072	8d 04 9a	 lea	 eax, DWORD PTR [edx+ebx*4]
  00075	8d 0c 8a	 lea	 ecx, DWORD PTR [edx+ecx*4]
  00078	51		 push	 ecx
  00079	50		 push	 eax
  0007a	e8 00 00 00 00	 call	 ??$uninitialized_copy@PAPAU?$pair@MUD3DXVECTOR3@@@std@@PAPAU12@@std@@YAPAPAU?$pair@MUD3DXVECTOR3@@@0@QAPAU10@0PAPAU10@@Z ; std::uninitialized_copy<std::pair<float,D3DXVECTOR3> * *,std::pair<float,D3DXVECTOR3> * *>
  0007f	8b 4f 04	 mov	 ecx, DWORD PTR [edi+4]
  00082	83 c4 10	 add	 esp, 16			; 00000010H

; 1450 :         if (_Myboff <= _Count) { // increment greater than offset of initial block

  00085	50		 push	 eax
  00086	3b de		 cmp	 ebx, esi
  00088	77 1d		 ja	 SHORT $LN12@push_front

; 1451 :             _Myptr = _STD uninitialized_copy(_Map(), _Map() + _Myboff, _Myptr); // copy rest of old

  0008a	8d 04 99	 lea	 eax, DWORD PTR [ecx+ebx*4]
  0008d	50		 push	 eax
  0008e	51		 push	 ecx
  0008f	e8 00 00 00 00	 call	 ??$uninitialized_copy@PAPAU?$pair@MUD3DXVECTOR3@@@std@@PAPAU12@@std@@YAPAPAU?$pair@MUD3DXVECTOR3@@@0@QAPAU10@0PAPAU10@@Z ; std::uninitialized_copy<std::pair<float,D3DXVECTOR3> * *,std::pair<float,D3DXVECTOR3> * *>

; 1452 :             _Uninitialized_value_construct_n_unchecked1(_Myptr, _Count - _Myboff); // clear suffix of new

  00094	8b ce		 mov	 ecx, esi
  00096	2b cb		 sub	 ecx, ebx
  00098	51		 push	 ecx
  00099	50		 push	 eax
  0009a	e8 00 00 00 00	 call	 ??$_Uninitialized_value_construct_n_unchecked1@PAPAU?$pair@MUD3DXVECTOR3@@@std@@I@std@@YAPAPAU?$pair@MUD3DXVECTOR3@@@0@PAPAU10@I@Z ; std::_Uninitialized_value_construct_n_unchecked1<std::pair<float,D3DXVECTOR3> * *,unsigned int>

; 1453 :             _Uninitialized_value_construct_n_unchecked1(_Newmap, _Myboff); // clear prefix of new

  0009f	8b 45 fc	 mov	 eax, DWORD PTR __Newmap$1$[ebp]
  000a2	83 c4 14	 add	 esp, 20			; 00000014H

; 1454 :         } else { // increment not greater than offset of initial block

  000a5	eb 24		 jmp	 SHORT $LN13@push_front
$LN12@push_front:

; 1455 :             _STD uninitialized_copy(_Map(), _Map() + _Count, _Myptr); // copy more old

  000a7	8d 04 b1	 lea	 eax, DWORD PTR [ecx+esi*4]
  000aa	50		 push	 eax
  000ab	51		 push	 ecx
  000ac	e8 00 00 00 00	 call	 ??$uninitialized_copy@PAPAU?$pair@MUD3DXVECTOR3@@@std@@PAPAU12@@std@@YAPAPAU?$pair@MUD3DXVECTOR3@@@0@QAPAU10@0PAPAU10@@Z ; std::uninitialized_copy<std::pair<float,D3DXVECTOR3> * *,std::pair<float,D3DXVECTOR3> * *>

; 1456 :             _Myptr = _STD uninitialized_copy(_Map() + _Count, _Map() + _Myboff, _Newmap); // copy rest of old

  000b1	8b 4f 04	 mov	 ecx, DWORD PTR [edi+4]
  000b4	ff 75 fc	 push	 DWORD PTR __Newmap$1$[ebp]
  000b7	8b 45 f8	 mov	 eax, DWORD PTR tv592[ebp]
  000ba	03 c1		 add	 eax, ecx
  000bc	50		 push	 eax
  000bd	8d 04 b1	 lea	 eax, DWORD PTR [ecx+esi*4]
  000c0	50		 push	 eax
  000c1	e8 00 00 00 00	 call	 ??$uninitialized_copy@PAPAU?$pair@MUD3DXVECTOR3@@@std@@PAPAU12@@std@@YAPAPAU?$pair@MUD3DXVECTOR3@@@0@QAPAU10@0PAPAU10@@Z ; std::uninitialized_copy<std::pair<float,D3DXVECTOR3> * *,std::pair<float,D3DXVECTOR3> * *>
  000c6	83 c4 18	 add	 esp, 24			; 00000018H

; 1457 :             _Uninitialized_value_construct_n_unchecked1(_Myptr, _Count); // clear rest to initial block

  000c9	8b de		 mov	 ebx, esi
$LN13@push_front:

; 1458 :         }
; 1459 : 
; 1460 :         _Destroy_range(_Map() + _Myboff, _Map() + _Mapsize());
; 1461 :         if (_Map() != _Mapptr()) {

  000cb	53		 push	 ebx
  000cc	50		 push	 eax
  000cd	e8 00 00 00 00	 call	 ??$_Uninitialized_value_construct_n_unchecked1@PAPAU?$pair@MUD3DXVECTOR3@@@std@@I@std@@YAPAPAU?$pair@MUD3DXVECTOR3@@@0@PAPAU10@I@Z ; std::_Uninitialized_value_construct_n_unchecked1<std::pair<float,D3DXVECTOR3> * *,unsigned int>
  000d2	8b 4f 04	 mov	 ecx, DWORD PTR [edi+4]
  000d5	83 c4 08	 add	 esp, 8
  000d8	85 c9		 test	 ecx, ecx
  000da	74 10		 je	 SHORT $LN14@push_front
; File C:\Program Files (x86)\Microsoft Visual Studio\2019\Community\VC\Tools\MSVC\14.28.29333\include\xmemory

; 810  :         _Deallocate<_New_alignof<_Ty>>(_Ptr, sizeof(_Ty) * _Count);

  000dc	8b 47 08	 mov	 eax, DWORD PTR [edi+8]
  000df	c1 e0 02	 shl	 eax, 2
  000e2	50		 push	 eax
  000e3	51		 push	 ecx
  000e4	e8 00 00 00 00	 call	 ??$_Deallocate@$07$0A@@std@@YAXPAXI@Z ; std::_Deallocate<8,0>
  000e9	83 c4 08	 add	 esp, 8
$LN14@push_front:
; File C:\Program Files (x86)\Microsoft Visual Studio\2019\Community\VC\Tools\MSVC\14.28.29333\include\deque

; 1465 :         _Map() = _Newmap; // point at new

  000ec	8b 45 fc	 mov	 eax, DWORD PTR __Newmap$1$[ebp]
  000ef	89 47 04	 mov	 DWORD PTR [edi+4], eax

; 1466 :         _Mapsize() += _Count;

  000f2	01 77 08	 add	 DWORD PTR [edi+8], esi
  000f5	8b 57 08	 mov	 edx, DWORD PTR [edi+8]
$LN45@push_front:

; 790  :         _PUSH_FRONT_BEGIN;

  000f8	8d 42 ff	 lea	 eax, DWORD PTR [edx-1]
  000fb	21 47 0c	 and	 DWORD PTR [edi+12], eax
  000fe	8b 77 0c	 mov	 esi, DWORD PTR [edi+12]
  00101	8b 4f 04	 mov	 ecx, DWORD PTR [edi+4]
  00104	0f 44 f2	 cmove	 esi, edx
  00107	4e		 dec	 esi

; 548  :         return (_Off / _DEQUESIZ) & (_Mapsize - 1);

  00108	23 c6		 and	 eax, esi

; 790  :         _PUSH_FRONT_BEGIN;

  0010a	8d 1c 85 00 00
	00 00		 lea	 ebx, DWORD PTR [eax*4]
  00111	83 3c 0b 00	 cmp	 DWORD PTR [ebx+ecx], 0
  00115	75 13		 jne	 SHORT $LN3@push_front
; File C:\Program Files (x86)\Microsoft Visual Studio\2019\Community\VC\Tools\MSVC\14.28.29333\include\xmemory

; 814  :         return static_cast<_Ty*>(_Allocate<_New_alignof<_Ty>>(_Get_size_of_n<sizeof(_Ty)>(_Count)));

  00117	6a 10		 push	 16			; 00000010H
  00119	e8 00 00 00 00	 call	 ??$_Allocate@$07U_Default_allocate_traits@std@@$0A@@std@@YAPAXI@Z ; std::_Allocate<8,std::_Default_allocate_traits,0>
; File C:\Program Files (x86)\Microsoft Visual Studio\2019\Community\VC\Tools\MSVC\14.28.29333\include\deque

; 790  :         _PUSH_FRONT_BEGIN;

  0011e	8b 4f 04	 mov	 ecx, DWORD PTR [edi+4]
; File C:\Program Files (x86)\Microsoft Visual Studio\2019\Community\VC\Tools\MSVC\14.28.29333\include\xmemory

; 814  :         return static_cast<_Ty*>(_Allocate<_New_alignof<_Ty>>(_Get_size_of_n<sizeof(_Ty)>(_Count)));

  00121	83 c4 04	 add	 esp, 4
; File C:\Program Files (x86)\Microsoft Visual Studio\2019\Community\VC\Tools\MSVC\14.28.29333\include\deque

; 790  :         _PUSH_FRONT_BEGIN;

  00124	89 04 0b	 mov	 DWORD PTR [ebx+ecx], eax
  00127	8b 4f 04	 mov	 ecx, DWORD PTR [edi+4]
$LN3@push_front:
; File C:\Program Files (x86)\Microsoft Visual Studio\2019\Community\VC\Tools\MSVC\14.28.29333\include\xmemory

; 701  :         ::new (const_cast<void*>(static_cast<const volatile void*>(_Ptr))) _Objty(_STD forward<_Types>(_Args)...);

  0012a	8b 45 08	 mov	 eax, DWORD PTR __Val$[ebp]
  0012d	8b 0c 0b	 mov	 ecx, DWORD PTR [ebx+ecx]
  00130	0f 10 00	 movups	 xmm0, XMMWORD PTR [eax]
  00133	0f 11 01	 movups	 XMMWORD PTR [ecx], xmm0
; File C:\Program Files (x86)\Microsoft Visual Studio\2019\Community\VC\Tools\MSVC\14.28.29333\include\deque

; 792  :         _PUSH_FRONT_END;

  00136	ff 47 10	 inc	 DWORD PTR [edi+16]
  00139	89 77 0c	 mov	 DWORD PTR [edi+12], esi
  0013c	5f		 pop	 edi
  0013d	5e		 pop	 esi
  0013e	5b		 pop	 ebx

; 793  :     }

  0013f	8b e5		 mov	 esp, ebp
  00141	5d		 pop	 ebp
  00142	c2 04 00	 ret	 4
$LN41@push_front:

; 1438 :                 _Xlen(); // result too long

  00145	8b cf		 mov	 ecx, edi
  00147	e8 00 00 00 00	 call	 ?_Xlen@?$deque@U?$pair@MUD3DXVECTOR3@@@std@@V?$allocator@U?$pair@MUD3DXVECTOR3@@@std@@@2@@std@@ABEXXZ ; std::deque<std::pair<float,D3DXVECTOR3>,std::allocator<std::pair<float,D3DXVECTOR3> > >::_Xlen
$LN49@push_front:
; File C:\Program Files (x86)\Microsoft Visual Studio\2019\Community\VC\Tools\MSVC\14.28.29333\include\xmemory

; 61   :             _Throw_bad_array_new_length(); // multiply overflow

  0014c	e8 00 00 00 00	 call	 ?_Throw_bad_array_new_length@std@@YAXXZ ; std::_Throw_bad_array_new_length
$LN47@push_front:
  00151	cc		 int	 3
?push_front@?$deque@U?$pair@MUD3DXVECTOR3@@@std@@V?$allocator@U?$pair@MUD3DXVECTOR3@@@std@@@2@@std@@QAEX$$QAU?$pair@MUD3DXVECTOR3@@@2@@Z ENDP ; std::deque<std::pair<float,D3DXVECTOR3>,std::allocator<std::pair<float,D3DXVECTOR3> > >::push_front
_TEXT	ENDS
; Function compile flags: /Ogtp
; File D:\Metin2 Server Files\mainline\SRC_2014\Metin2Client\GameLib\WeaponTrace.cpp
; File C:\Program Files (x86)\Microsoft Visual Studio\2019\Community\VC\Tools\MSVC\14.28.29333\include\vector
; File D:\Metin2 Server Files\mainline\SRC_2014\Metin2Client\GameLib\WeaponTrace.cpp
; File C:\Program Files (x86)\Microsoft Visual Studio\2019\Community\VC\Tools\MSVC\14.28.29333\include\vector
; File C:\Program Files (x86)\Microsoft Visual Studio\2019\Community\VC\Tools\MSVC\14.28.29333\include\deque
; File D:\Metin2 Server Files\mainline\SRC_2014\Metin2Client\GameLib\WeaponTrace.cpp
; File C:\Program Files (x86)\Microsoft Visual Studio\2019\Community\VC\Tools\MSVC\14.28.29333\include\deque
; File D:\Metin2 Server Files\mainline\SRC_2014\Metin2Client\GameLib\WeaponTrace.cpp
; File C:\Program Files (x86)\Microsoft Visual Studio\2019\Community\VC\Tools\MSVC\14.28.29333\include\deque
; File D:\Metin2 Server Files\mainline\SRC_2014\Metin2Client\GameLib\WeaponTrace.cpp
; File C:\Program Files (x86)\Microsoft Visual Studio\2019\Community\VC\Tools\MSVC\14.28.29333\include\deque
; File D:\Metin2 Server Files\mainline\SRC_2014\Metin2Client\GameLib\WeaponTrace.cpp
; File C:\Program Files (x86)\Microsoft Visual Studio\2019\Community\VC\Tools\MSVC\14.28.29333\include\deque
; File D:\Metin2 Server Files\mainline\SRC_2014\Metin2Client\GameLib\WeaponTrace.cpp
; File C:\Program Files (x86)\Microsoft Visual Studio\2019\Community\VC\Tools\MSVC\14.28.29333\include\deque
; File D:\Metin2 Server Files\mainline\SRC_2014\Metin2Client\GameLib\WeaponTrace.cpp
; File C:\Program Files (x86)\Microsoft Visual Studio\2019\Community\VC\Tools\MSVC\14.28.29333\include\deque
; File D:\Metin2 Server Files\mainline\SRC_2014\Metin2Client\GameLib\WeaponTrace.cpp
; File C:\Program Files (x86)\Microsoft Visual Studio\2019\Community\VC\Tools\MSVC\14.28.29333\include\deque
; File D:\Metin2 Server Files\mainline\SRC_2014\Metin2Client\GameLib\WeaponTrace.cpp
; File C:\Program Files (x86)\Microsoft Visual Studio\2019\Community\VC\Tools\MSVC\14.28.29333\include\deque
; File D:\Metin2 Server Files\mainline\SRC_2014\Metin2Client\GameLib\WeaponTrace.cpp
; File C:\Program Files (x86)\Microsoft Visual Studio\2019\Community\VC\Tools\MSVC\14.28.29333\include\deque
; File D:\Metin2 Server Files\mainline\SRC_2014\Metin2Client\GameLib\WeaponTrace.cpp
; File C:\Program Files (x86)\Microsoft Visual Studio\2019\Community\VC\Tools\MSVC\14.28.29333\include\deque
; File D:\Metin2 Server Files\mainline\SRC_2014\Metin2Client\GameLib\WeaponTrace.cpp
; File D:\Metin2 Server Files\mainline\SRC_2014\M2Data\include\d3dx8math.inl
; File D:\Metin2 Server Files\mainline\SRC_2014\Metin2Client\GameLib\WeaponTrace.cpp
; File D:\Metin2 Server Files\mainline\SRC_2014\M2Data\include\d3dx8math.inl
; File D:\Metin2 Server Files\mainline\SRC_2014\Metin2Client\GameLib\WeaponTrace.cpp
; File D:\Metin2 Server Files\mainline\SRC_2014\M2Data\include\d3dx8math.inl
; File D:\Metin2 Server Files\mainline\SRC_2014\Metin2Client\GameLib\WeaponTrace.cpp
; File D:\Metin2 Server Files\mainline\SRC_2014\M2Data\include\d3dx8math.inl
; File D:\Metin2 Server Files\mainline\SRC_2014\Metin2Client\GameLib\WeaponTrace.cpp
; File D:\Metin2 Server Files\mainline\SRC_2014\M2Data\include\d3dx8math.inl
; File D:\Metin2 Server Files\mainline\SRC_2014\Metin2Client\GameLib\WeaponTrace.cpp
; File D:\Metin2 Server Files\mainline\SRC_2014\M2Data\include\d3dx8math.inl
; File D:\Metin2 Server Files\mainline\SRC_2014\Metin2Client\GameLib\WeaponTrace.cpp
; File D:\Metin2 Server Files\mainline\SRC_2014\M2Data\include\d3dx8math.inl
; File D:\Metin2 Server Files\mainline\SRC_2014\Metin2Client\GameLib\WeaponTrace.cpp
; File D:\Metin2 Server Files\mainline\SRC_2014\M2Data\include\d3dx8math.inl
; File D:\Metin2 Server Files\mainline\SRC_2014\Metin2Client\GameLib\WeaponTrace.cpp
; File D:\Metin2 Server Files\mainline\SRC_2014\M2Data\include\d3dx8math.inl
; File D:\Metin2 Server Files\mainline\SRC_2014\Metin2Client\GameLib\WeaponTrace.cpp
; File D:\Metin2 Server Files\mainline\SRC_2014\M2Data\include\d3dx8math.inl
; File D:\Metin2 Server Files\mainline\SRC_2014\Metin2Client\GameLib\WeaponTrace.cpp
; File D:\Metin2 Server Files\mainline\SRC_2014\M2Data\include\d3dx8math.inl
; File D:\Metin2 Server Files\mainline\SRC_2014\Metin2Client\GameLib\WeaponTrace.cpp
; File D:\Metin2 Server Files\mainline\SRC_2014\M2Data\include\d3dx8math.inl
; File D:\Metin2 Server Files\mainline\SRC_2014\Metin2Client\GameLib\WeaponTrace.cpp
; File D:\Metin2 Server Files\mainline\SRC_2014\M2Data\include\d3dx8math.inl
; File D:\Metin2 Server Files\mainline\SRC_2014\Metin2Client\GameLib\WeaponTrace.cpp
; File D:\Metin2 Server Files\mainline\SRC_2014\M2Data\include\d3dx8math.inl
; File D:\Metin2 Server Files\mainline\SRC_2014\Metin2Client\GameLib\WeaponTrace.cpp
; File D:\Metin2 Server Files\mainline\SRC_2014\M2Data\include\d3dx8math.inl
; File D:\Metin2 Server Files\mainline\SRC_2014\Metin2Client\GameLib\WeaponTrace.cpp
; File D:\Metin2 Server Files\mainline\SRC_2014\M2Data\include\d3dx8math.inl
; File D:\Metin2 Server Files\mainline\SRC_2014\Metin2Client\GameLib\WeaponTrace.cpp
; File D:\Metin2 Server Files\mainline\SRC_2014\M2Data\include\d3dx8math.inl
; File D:\Metin2 Server Files\mainline\SRC_2014\Metin2Client\GameLib\WeaponTrace.cpp
; File D:\Metin2 Server Files\mainline\SRC_2014\M2Data\include\d3dx8math.inl
; File D:\Metin2 Server Files\mainline\SRC_2014\Metin2Client\GameLib\WeaponTrace.cpp
; File D:\Metin2 Server Files\mainline\SRC_2014\M2Data\include\d3dx8math.inl
; File D:\Metin2 Server Files\mainline\SRC_2014\Metin2Client\GameLib\WeaponTrace.cpp
; File C:\Program Files (x86)\Microsoft Visual Studio\2019\Community\VC\Tools\MSVC\14.28.29333\include\deque
; File D:\Metin2 Server Files\mainline\SRC_2014\Metin2Client\GameLib\WeaponTrace.cpp
; File C:\Program Files (x86)\Microsoft Visual Studio\2019\Community\VC\Tools\MSVC\14.28.29333\include\deque
; File D:\Metin2 Server Files\mainline\SRC_2014\Metin2Client\GameLib\WeaponTrace.cpp
; File C:\Program Files (x86)\Microsoft Visual Studio\2019\Community\VC\Tools\MSVC\14.28.29333\include\deque
; File D:\Metin2 Server Files\mainline\SRC_2014\Metin2Client\GameLib\WeaponTrace.cpp
; File C:\Program Files (x86)\Microsoft Visual Studio\2019\Community\VC\Tools\MSVC\14.28.29333\include\deque
; File D:\Metin2 Server Files\mainline\SRC_2014\M2Data\include\d3dx8math.inl
; File C:\Program Files (x86)\Microsoft Visual Studio\2019\Community\VC\Tools\MSVC\14.28.29333\include\deque
; File D:\Metin2 Server Files\mainline\SRC_2014\M2Data\include\d3dx8math.inl
; File C:\Program Files (x86)\Microsoft Visual Studio\2019\Community\VC\Tools\MSVC\14.28.29333\include\deque
; File D:\Metin2 Server Files\mainline\SRC_2014\M2Data\include\d3dx8math.inl
; File C:\Program Files (x86)\Microsoft Visual Studio\2019\Community\VC\Tools\MSVC\14.28.29333\include\deque
; File D:\Metin2 Server Files\mainline\SRC_2014\M2Data\include\d3dx8math.inl
; File C:\Program Files (x86)\Microsoft Visual Studio\2019\Community\VC\Tools\MSVC\14.28.29333\include\deque
; File D:\Metin2 Server Files\mainline\SRC_2014\Metin2Client\GameLib\WeaponTrace.cpp
; File C:\Program Files (x86)\Microsoft Visual Studio\2019\Community\VC\Tools\MSVC\14.28.29333\include\deque
; File D:\Metin2 Server Files\mainline\SRC_2014\Metin2Client\GameLib\WeaponTrace.cpp
; File C:\Program Files (x86)\Microsoft Visual Studio\2019\Community\VC\Tools\MSVC\14.28.29333\include\deque
; File D:\Metin2 Server Files\mainline\SRC_2014\Metin2Client\GameLib\WeaponTrace.cpp
; File C:\Program Files (x86)\Microsoft Visual Studio\2019\Community\VC\Tools\MSVC\14.28.29333\include\deque
; File D:\Metin2 Server Files\mainline\SRC_2014\Metin2Client\GameLib\WeaponTrace.cpp
; File C:\Program Files (x86)\Microsoft Visual Studio\2019\Community\VC\Tools\MSVC\14.28.29333\include\deque
; File D:\Metin2 Server Files\mainline\SRC_2014\Metin2Client\GameLib\WeaponTrace.cpp
; File D:\Metin2 Server Files\mainline\SRC_2014\M2Data\include\d3dx8math.inl
; File D:\Metin2 Server Files\mainline\SRC_2014\Metin2Client\GameLib\WeaponTrace.cpp
; File D:\Metin2 Server Files\mainline\SRC_2014\M2Data\include\d3dx8math.inl
; File D:\Metin2 Server Files\mainline\SRC_2014\Metin2Client\GameLib\WeaponTrace.cpp
; File D:\Metin2 Server Files\mainline\SRC_2014\M2Data\include\d3dx8math.inl
; File D:\Metin2 Server Files\mainline\SRC_2014\Metin2Client\GameLib\WeaponTrace.cpp
; File D:\Metin2 Server Files\mainline\SRC_2014\M2Data\include\d3dx8math.inl
; File D:\Metin2 Server Files\mainline\SRC_2014\Metin2Client\GameLib\WeaponTrace.cpp
; File D:\Metin2 Server Files\mainline\SRC_2014\M2Data\include\d3dx8math.inl
; File D:\Metin2 Server Files\mainline\SRC_2014\Metin2Client\GameLib\WeaponTrace.cpp
; File D:\Metin2 Server Files\mainline\SRC_2014\M2Data\include\d3dx8math.inl
; File D:\Metin2 Server Files\mainline\SRC_2014\Metin2Client\GameLib\WeaponTrace.cpp
; File D:\Metin2 Server Files\mainline\SRC_2014\M2Data\include\d3dx8math.inl
; File D:\Metin2 Server Files\mainline\SRC_2014\Metin2Client\GameLib\WeaponTrace.cpp
; File D:\Metin2 Server Files\mainline\SRC_2014\M2Data\include\d3dx8math.inl
; File D:\Metin2 Server Files\mainline\SRC_2014\Metin2Client\GameLib\WeaponTrace.cpp
; File D:\Metin2 Server Files\mainline\SRC_2014\M2Data\include\d3dx8math.inl
; File D:\Metin2 Server Files\mainline\SRC_2014\Metin2Client\GameLib\WeaponTrace.cpp
; File D:\Metin2 Server Files\mainline\SRC_2014\M2Data\include\d3dx8math.inl
; File D:\Metin2 Server Files\mainline\SRC_2014\Metin2Client\GameLib\WeaponTrace.cpp
; File D:\Metin2 Server Files\mainline\SRC_2014\M2Data\include\d3dx8math.inl
; File D:\Metin2 Server Files\mainline\SRC_2014\Metin2Client\GameLib\WeaponTrace.cpp
; File D:\Metin2 Server Files\mainline\SRC_2014\M2Data\include\d3dx8math.inl
; File D:\Metin2 Server Files\mainline\SRC_2014\Metin2Client\GameLib\WeaponTrace.cpp
; File D:\Metin2 Server Files\mainline\SRC_2014\M2Data\include\d3dx8math.inl
; File D:\Metin2 Server Files\mainline\SRC_2014\Metin2Client\GameLib\WeaponTrace.cpp
; File D:\Metin2 Server Files\mainline\SRC_2014\M2Data\include\d3dx8math.inl
; File D:\Metin2 Server Files\mainline\SRC_2014\Metin2Client\GameLib\WeaponTrace.cpp
; File D:\Metin2 Server Files\mainline\SRC_2014\M2Data\include\d3dx8math.inl
; File D:\Metin2 Server Files\mainline\SRC_2014\Metin2Client\GameLib\WeaponTrace.cpp
; File D:\Metin2 Server Files\mainline\SRC_2014\M2Data\include\d3dx8math.inl
; File D:\Metin2 Server Files\mainline\SRC_2014\Metin2Client\GameLib\WeaponTrace.cpp
; File C:\Program Files (x86)\Microsoft Visual Studio\2019\Community\VC\Tools\MSVC\14.28.29333\include\deque
; File D:\Metin2 Server Files\mainline\SRC_2014\Metin2Client\GameLib\WeaponTrace.cpp
; File C:\Program Files (x86)\Microsoft Visual Studio\2019\Community\VC\Tools\MSVC\14.28.29333\include\deque
; File D:\Metin2 Server Files\mainline\SRC_2014\Metin2Client\GameLib\WeaponTrace.cpp
; File C:\Program Files (x86)\Microsoft Visual Studio\2019\Community\VC\Tools\MSVC\14.28.29333\include\deque
; File D:\Metin2 Server Files\mainline\SRC_2014\Metin2Client\GameLib\WeaponTrace.cpp
; File C:\Program Files (x86)\Microsoft Visual Studio\2019\Community\VC\Tools\MSVC\14.28.29333\include\deque
; File D:\Metin2 Server Files\mainline\SRC_2014\M2Data\include\d3dx8math.inl
; File C:\Program Files (x86)\Microsoft Visual Studio\2019\Community\VC\Tools\MSVC\14.28.29333\include\deque
; File D:\Metin2 Server Files\mainline\SRC_2014\M2Data\include\d3dx8math.inl
; File C:\Program Files (x86)\Microsoft Visual Studio\2019\Community\VC\Tools\MSVC\14.28.29333\include\deque
; File D:\Metin2 Server Files\mainline\SRC_2014\Metin2Client\GameLib\WeaponTrace.cpp
; File D:\Metin2 Server Files\mainline\SRC_2014\M2Data\include\d3dx8math.inl
; File D:\Metin2 Server Files\mainline\SRC_2014\Metin2Client\GameLib\WeaponTrace.cpp
; File D:\Metin2 Server Files\mainline\SRC_2014\M2Data\include\d3dx8math.inl
; File D:\Metin2 Server Files\mainline\SRC_2014\Metin2Client\GameLib\WeaponTrace.cpp
; File D:\Metin2 Server Files\mainline\SRC_2014\M2Data\include\d3dx8math.inl
; File D:\Metin2 Server Files\mainline\SRC_2014\Metin2Client\GameLib\WeaponTrace.cpp
; File D:\Metin2 Server Files\mainline\SRC_2014\M2Data\include\d3dx8math.inl
; File D:\Metin2 Server Files\mainline\SRC_2014\Metin2Client\GameLib\WeaponTrace.cpp
; File D:\Metin2 Server Files\mainline\SRC_2014\M2Data\include\d3dx8math.inl
; File D:\Metin2 Server Files\mainline\SRC_2014\Metin2Client\GameLib\WeaponTrace.cpp
; File D:\Metin2 Server Files\mainline\SRC_2014\M2Data\include\d3dx8math.inl
; File D:\Metin2 Server Files\mainline\SRC_2014\Metin2Client\GameLib\WeaponTrace.cpp
; File D:\Metin2 Server Files\mainline\SRC_2014\M2Data\include\d3dx8math.inl
; File D:\Metin2 Server Files\mainline\SRC_2014\Metin2Client\GameLib\WeaponTrace.cpp
; File D:\Metin2 Server Files\mainline\SRC_2014\M2Data\include\d3dx8math.inl
; File D:\Metin2 Server Files\mainline\SRC_2014\Metin2Client\GameLib\WeaponTrace.cpp
; File D:\Metin2 Server Files\mainline\SRC_2014\M2Data\include\d3dx8math.inl
; File D:\Metin2 Server Files\mainline\SRC_2014\Metin2Client\GameLib\WeaponTrace.cpp
; File D:\Metin2 Server Files\mainline\SRC_2014\M2Data\include\d3dx8math.inl
; File D:\Metin2 Server Files\mainline\SRC_2014\Metin2Client\GameLib\WeaponTrace.cpp
; File D:\Metin2 Server Files\mainline\SRC_2014\M2Data\include\d3dx8math.inl
; File D:\Metin2 Server Files\mainline\SRC_2014\Metin2Client\GameLib\WeaponTrace.cpp
; File C:\Program Files (x86)\Microsoft Visual Studio\2019\Community\VC\Tools\MSVC\14.28.29333\include\deque
; File D:\Metin2 Server Files\mainline\SRC_2014\Metin2Client\GameLib\WeaponTrace.cpp
; File C:\Program Files (x86)\Microsoft Visual Studio\2019\Community\VC\Tools\MSVC\14.28.29333\include\deque
; File D:\Metin2 Server Files\mainline\SRC_2014\Metin2Client\GameLib\WeaponTrace.cpp
; File C:\Program Files (x86)\Microsoft Visual Studio\2019\Community\VC\Tools\MSVC\14.28.29333\include\deque
; File D:\Metin2 Server Files\mainline\SRC_2014\Metin2Client\GameLib\WeaponTrace.cpp
; File C:\Program Files (x86)\Microsoft Visual Studio\2019\Community\VC\Tools\MSVC\14.28.29333\include\deque
; File D:\Metin2 Server Files\mainline\SRC_2014\Metin2Client\GameLib\WeaponTrace.cpp
; File C:\Program Files (x86)\Microsoft Visual Studio\2019\Community\VC\Tools\MSVC\14.28.29333\include\deque
; File D:\Metin2 Server Files\mainline\SRC_2014\Metin2Client\GameLib\WeaponTrace.cpp
; File C:\Program Files (x86)\Microsoft Visual Studio\2019\Community\VC\Tools\MSVC\14.28.29333\include\deque
; File D:\Metin2 Server Files\mainline\SRC_2014\Metin2Client\GameLib\WeaponTrace.cpp
; File C:\Program Files (x86)\Microsoft Visual Studio\2019\Community\VC\Tools\MSVC\14.28.29333\include\deque
; File D:\Metin2 Server Files\mainline\SRC_2014\Metin2Client\GameLib\WeaponTrace.cpp
; File D:\Metin2 Server Files\mainline\SRC_2014\M2Data\include\d3dx8math.inl
; File D:\Metin2 Server Files\mainline\SRC_2014\Metin2Client\GameLib\WeaponTrace.cpp
; File D:\Metin2 Server Files\mainline\SRC_2014\M2Data\include\d3dx8math.inl
; File C:\Program Files (x86)\Microsoft Visual Studio\2019\Community\VC\Tools\MSVC\14.28.29333\include\vector
; File D:\Metin2 Server Files\mainline\SRC_2014\M2Data\include\d3dx8math.inl
; File D:\Metin2 Server Files\mainline\SRC_2014\Metin2Client\GameLib\WeaponTrace.cpp
; File D:\Metin2 Server Files\mainline\SRC_2014\M2Data\include\d3dx8math.inl
; File D:\Metin2 Server Files\mainline\SRC_2014\Metin2Client\GameLib\WeaponTrace.cpp
; File D:\Metin2 Server Files\mainline\SRC_2014\M2Data\include\d3dx8math.inl
; File D:\Metin2 Server Files\mainline\SRC_2014\Metin2Client\GameLib\WeaponTrace.cpp
; File D:\Metin2 Server Files\mainline\SRC_2014\M2Data\include\d3dx8math.inl
; File D:\Metin2 Server Files\mainline\SRC_2014\Metin2Client\GameLib\WeaponTrace.cpp
; File C:\Program Files (x86)\Microsoft Visual Studio\2019\Community\VC\Tools\MSVC\14.28.29333\include\vector
; File D:\Metin2 Server Files\mainline\SRC_2014\Metin2Client\GameLib\WeaponTrace.cpp
; File C:\Program Files (x86)\Microsoft Visual Studio\2019\Community\VC\Tools\MSVC\14.28.29333\include\vector
; File C:\Program Files (x86)\Microsoft Visual Studio\2019\Community\VC\Tools\MSVC\14.28.29333\include\xmemory
; File C:\Program Files (x86)\Microsoft Visual Studio\2019\Community\VC\Tools\MSVC\14.28.29333\include\vector
; File D:\Metin2 Server Files\mainline\SRC_2014\Metin2Client\GameLib\WeaponTrace.cpp
; File C:\Program Files (x86)\Microsoft Visual Studio\2019\Community\VC\Tools\MSVC\14.28.29333\include\vector
; File C:\Program Files (x86)\Microsoft Visual Studio\2019\Community\VC\Tools\MSVC\14.28.29333\include\xmemory
; File C:\Program Files (x86)\Microsoft Visual Studio\2019\Community\VC\Tools\MSVC\14.28.29333\include\vector
; File C:\Program Files (x86)\Microsoft Visual Studio\2019\Community\VC\Tools\MSVC\14.28.29333\include\xmemory
; File C:\Program Files (x86)\Microsoft Visual Studio\2019\Community\VC\Tools\MSVC\14.28.29333\include\vector
; File D:\Metin2 Server Files\mainline\SRC_2014\Metin2Client\GameLib\WeaponTrace.cpp
; File C:\Program Files (x86)\Microsoft Visual Studio\2019\Community\VC\Tools\MSVC\14.28.29333\include\vector
; File C:\Program Files (x86)\Microsoft Visual Studio\2019\Community\VC\Tools\MSVC\14.28.29333\include\xmemory
; File C:\Program Files (x86)\Microsoft Visual Studio\2019\Community\VC\Tools\MSVC\14.28.29333\include\vector
; File C:\Program Files (x86)\Microsoft Visual Studio\2019\Community\VC\Tools\MSVC\14.28.29333\include\xmemory
; File D:\Metin2 Server Files\mainline\SRC_2014\Metin2Client\GameLib\WeaponTrace.cpp
;	COMDAT ?BuildVertex@CWeaponTrace@@IAE_NXZ
_TEXT	SEGMENT
$T5 = -6260						; size = 12
$T6 = -6248						; size = 12
__real@3fb99999a0000000$1$ = -6236			; size = 8
__real@4004000000000000$1$ = -6228			; size = 8
_v$7 = -6220						; size = 24
__real@0000000000000000$1$ = -6196			; size = 8
__real@3ff0000000000000$1$ = -6188			; size = 8
__First$ = -6188					; size = 8
__First$ = -6188					; size = 8
_Output$1$ = -6180					; size = 4
tv7384 = -6176						; size = 4
tv7650 = -6172						; size = 4
_m_ShortVertexVector$ = -6168				; size = 12
_a$8 = -6156						; size = 12
_b$9 = -6144						; size = 12
__Tmp$10 = -6132					; size = 8
__Tmp$11 = -6132					; size = 8
__Tmp$12 = -6132					; size = 8
_c$1$sroa$2681$1$ = -6128				; size = 4
_timebase$1$ = -6124					; size = 4
tv7675 = -6120						; size = 4
tv7485 = -6112						; size = 4
_m_LongVertexVector$ = -6108				; size = 12
__Tmp$13 = -6096					; size = 8
__Tmp$14 = -6096					; size = 8
__Tmp$15 = -6096					; size = 8
_dt$1$ = -6092						; size = 4
tv7679 = -6092						; size = 4
tv7576 = -6084						; size = 4
tv7488 = -6084						; size = 4
tv7425 = -6084						; size = 4
_cc$1$ = -6080						; size = 4
tv7627 = -6080						; size = 4
_length$1$ = -6076					; size = 4
_n$1$ = -6072						; size = 4
_loop$1$ = -6068					; size = 4
$T16 = -6064						; size = 4
_sp$1$ = -6060						; size = 4
_d$2$sroa$2678$1$ = -6056				; size = 4
_c$1$sroa$2679$1$ = -6052				; size = 4
tv7640 = -6052						; size = 4
_d$2$sroa$2676$1$ = -6048				; size = 4
_d$2$sroa$2677$1$ = -6044				; size = 4
_t$1$ = -6040						; size = 4
_i$1$ = -6040						; size = 4
_timenext$1$ = -6036					; size = 4
$T17 = -6036						; size = 4
__Tmp$1$ = -6032					; size = 4
_c$1$sroa$2800$1$ = -6028				; size = 4
_this$GSCopy$1$ = -6024					; size = 4
tv7641 = -6020						; size = 4
tv7624 = -6020						; size = 4
tv7483 = -6020						; size = 4
tv7427 = -6020						; size = 4
_h$ = -6016						; size = 1200
_stk$ = -4816						; size = 1200
_r$ = -3616						; size = 3600
__$ArrayPad$ = -16					; size = 4
__$EHRec$ = -12						; size = 12
?BuildVertex@CWeaponTrace@@IAE_NXZ PROC			; CWeaponTrace::BuildVertex, COMDAT
; _this$ = ecx

; 124  : {

  00000	55		 push	 ebp
  00001	8b ec		 mov	 ebp, esp
  00003	6a ff		 push	 -1
  00005	68 00 00 00 00	 push	 __ehhandler$?BuildVertex@CWeaponTrace@@IAE_NXZ
  0000a	64 a1 00 00 00
	00		 mov	 eax, DWORD PTR fs:0
  00010	50		 push	 eax
  00011	b8 68 18 00 00	 mov	 eax, 6248		; 00001868H
  00016	e8 00 00 00 00	 call	 __chkstk
  0001b	a1 00 00 00 00	 mov	 eax, DWORD PTR ___security_cookie
  00020	33 c5		 xor	 eax, ebp
  00022	89 45 f0	 mov	 DWORD PTR __$ArrayPad$[ebp], eax
  00025	56		 push	 esi
  00026	57		 push	 edi
  00027	50		 push	 eax
  00028	8d 45 f4	 lea	 eax, DWORD PTR __$EHRec$[ebp]
  0002b	64 a3 00 00 00
	00		 mov	 DWORD PTR fs:0, eax
  00031	8b c1		 mov	 eax, ecx
  00033	89 85 78 e8 ff
	ff		 mov	 DWORD PTR _this$GSCopy$1$[ebp], eax

; 125  : 	const int max_size = 300;
; 126  : 	// calculate speed
; 127  : 	float h[max_size];
; 128  : 	float stk[max_size];
; 129  : 	int sp=0;
; 130  : 	D3DXVECTOR3 r[max_size];
; 131  : 
; 132  : 	if (m_LongTimePointList.size()<=1) 

  00039	8b 78 2c	 mov	 edi, DWORD PTR [eax+44]
  0003c	33 f6		 xor	 esi, esi
  0003e	89 b5 54 e8 ff
	ff		 mov	 DWORD PTR _sp$1$[ebp], esi
  00044	83 ff 01	 cmp	 edi, 1
  00047	77 07		 ja	 SHORT $LN25@BuildVerte

; 133  : 		return false;

  00049	32 c0		 xor	 al, al
  0004b	e9 30 0e 00 00	 jmp	 $LN1@BuildVerte
$LN25@BuildVerte:
; File C:\Program Files (x86)\Microsoft Visual Studio\2019\Community\VC\Tools\MSVC\14.28.29333\include\vector

; 375  :     _Vector_val() noexcept : _Myfirst(), _Mylast(), _Myend() {}

  00050	89 b5 e8 e7 ff
	ff		 mov	 DWORD PTR _m_ShortVertexVector$[ebp], esi
  00056	89 b5 ec e7 ff
	ff		 mov	 DWORD PTR _m_ShortVertexVector$[ebp+4], esi
  0005c	89 b5 f0 e7 ff
	ff		 mov	 DWORD PTR _m_ShortVertexVector$[ebp+8], esi
; File D:\Metin2 Server Files\mainline\SRC_2014\Metin2Client\GameLib\WeaponTrace.cpp

; 146  : 	std::vector<TPDTVertex> m_ShortVertexVector, m_LongVertexVector;

  00062	c7 45 fc 00 00
	00 00		 mov	 DWORD PTR __$EHRec$[ebp+8], 0
; File C:\Program Files (x86)\Microsoft Visual Studio\2019\Community\VC\Tools\MSVC\14.28.29333\include\vector

; 375  :     _Vector_val() noexcept : _Myfirst(), _Mylast(), _Myend() {}

  00069	c7 85 24 e8 ff
	ff 00 00 00 00	 mov	 DWORD PTR _m_LongVertexVector$[ebp], 0
  00073	c7 85 28 e8 ff
	ff 00 00 00 00	 mov	 DWORD PTR _m_LongVertexVector$[ebp+4], 0
  0007d	c7 85 2c e8 ff
	ff 00 00 00 00	 mov	 DWORD PTR _m_LongVertexVector$[ebp+8], 0
; File C:\Program Files (x86)\Microsoft Visual Studio\2019\Community\VC\Tools\MSVC\14.28.29333\include\deque

; 922  :         return _Unchecked_iterator(_Myoff() + _Mysize(), _STD addressof(_Get_data()));

  00087	8b 50 28	 mov	 edx, DWORD PTR [eax+40]
; File D:\Metin2 Server Files\mainline\SRC_2014\Metin2Client\GameLib\WeaponTrace.cpp

; 148  : 	float length = min(m_fLifeTime, m_LongTimePointList.back().first);

  0008a	8b 85 78 e8 ff
	ff		 mov	 eax, DWORD PTR _this$GSCopy$1$[ebp]
; File C:\Program Files (x86)\Microsoft Visual Studio\2019\Community\VC\Tools\MSVC\14.28.29333\include\deque

; 922  :         return _Unchecked_iterator(_Myoff() + _Mysize(), _STD addressof(_Get_data()));

  00090	03 d7		 add	 edx, edi
; File D:\Metin2 Server Files\mainline\SRC_2014\Metin2Client\GameLib\WeaponTrace.cpp

; 146  : 	std::vector<TPDTVertex> m_ShortVertexVector, m_LongVertexVector;

  00092	c6 45 fc 01	 mov	 BYTE PTR __$EHRec$[ebp+8], 1
; File C:\Program Files (x86)\Microsoft Visual Studio\2019\Community\VC\Tools\MSVC\14.28.29333\include\deque

; 1068 :         return *_Prev_iter(_Unchecked_end());

  00096	89 95 d8 e7 ff
	ff		 mov	 DWORD PTR __First$[ebp+4], edx
; File D:\Metin2 Server Files\mainline\SRC_2014\Metin2Client\GameLib\WeaponTrace.cpp

; 148  : 	float length = min(m_fLifeTime, m_LongTimePointList.back().first);

  0009c	f3 0f 10 50 3c	 movss	 xmm2, DWORD PTR [eax+60]
; File C:\Program Files (x86)\Microsoft Visual Studio\2019\Community\VC\Tools\MSVC\14.28.29333\include\deque

; 548  :         return (_Off / _DEQUESIZ) & (_Mapsize - 1);

  000a1	8b 48 24	 mov	 ecx, DWORD PTR [eax+36]

; 76   :         --_Myoff;

  000a4	8d 42 ff	 lea	 eax, DWORD PTR [edx-1]

; 548  :         return (_Off / _DEQUESIZ) & (_Mapsize - 1);

  000a7	49		 dec	 ecx
; File D:\Metin2 Server Files\mainline\SRC_2014\Metin2Client\GameLib\WeaponTrace.cpp

; 148  : 	float length = min(m_fLifeTime, m_LongTimePointList.back().first);

  000a8	f3 0f 11 95 44
	e8 ff ff	 movss	 DWORD PTR _length$1$[ebp], xmm2
; File C:\Program Files (x86)\Microsoft Visual Studio\2019\Community\VC\Tools\MSVC\14.28.29333\include\deque

; 548  :         return (_Off / _DEQUESIZ) & (_Mapsize - 1);

  000b0	23 c8		 and	 ecx, eax
; File D:\Metin2 Server Files\mainline\SRC_2014\Metin2Client\GameLib\WeaponTrace.cpp

; 148  : 	float length = min(m_fLifeTime, m_LongTimePointList.back().first);

  000b2	8b 85 78 e8 ff
	ff		 mov	 eax, DWORD PTR _this$GSCopy$1$[ebp]
  000b8	8b 40 20	 mov	 eax, DWORD PTR [eax+32]
  000bb	8b 04 88	 mov	 eax, DWORD PTR [eax+ecx*4]
  000be	f3 0f 10 00	 movss	 xmm0, DWORD PTR [eax]
  000c2	0f 2f c2	 comiss	 xmm0, xmm2
  000c5	77 2d		 ja	 SHORT $LN32@BuildVerte
; File C:\Program Files (x86)\Microsoft Visual Studio\2019\Community\VC\Tools\MSVC\14.28.29333\include\deque

; 548  :         return (_Off / _DEQUESIZ) & (_Mapsize - 1);

  000c7	8b 85 78 e8 ff
	ff		 mov	 eax, DWORD PTR _this$GSCopy$1$[ebp]

; 1068 :         return *_Prev_iter(_Unchecked_end());

  000cd	89 95 d8 e7 ff
	ff		 mov	 DWORD PTR __First$[ebp+4], edx

; 548  :         return (_Off / _DEQUESIZ) & (_Mapsize - 1);

  000d3	8b 48 24	 mov	 ecx, DWORD PTR [eax+36]

; 76   :         --_Myoff;

  000d6	8d 42 ff	 lea	 eax, DWORD PTR [edx-1]

; 548  :         return (_Off / _DEQUESIZ) & (_Mapsize - 1);

  000d9	49		 dec	 ecx
  000da	23 c8		 and	 ecx, eax
; File D:\Metin2 Server Files\mainline\SRC_2014\Metin2Client\GameLib\WeaponTrace.cpp

; 148  : 	float length = min(m_fLifeTime, m_LongTimePointList.back().first);

  000dc	8b 85 78 e8 ff
	ff		 mov	 eax, DWORD PTR _this$GSCopy$1$[ebp]
  000e2	8b 40 20	 mov	 eax, DWORD PTR [eax+32]
  000e5	8b 04 88	 mov	 eax, DWORD PTR [eax+ecx*4]
  000e8	f3 0f 10 00	 movss	 xmm0, DWORD PTR [eax]
  000ec	f3 0f 11 85 44
	e8 ff ff	 movss	 DWORD PTR _length$1$[ebp], xmm0
$LN32@BuildVerte:

; 183  : 		r[n]-=r[n-1];

  000f4	f2 0f 10 05 00
	00 00 00	 movsd	 xmm0, QWORD PTR __real@4004000000000000
  000fc	8d 4f ff	 lea	 ecx, DWORD PTR [edi-1]
  000ff	f3 0f 10 0d 00
	00 00 00	 movss	 xmm1, DWORD PTR __real@3f000000
  00107	8d 41 ff	 lea	 eax, DWORD PTR [ecx-1]
  0010a	f3 0f 10 2d 00
	00 00 00	 movss	 xmm5, DWORD PTR __real@40800000
  00112	33 d2		 xor	 edx, edx
  00114	f3 0f 10 3d 00
	00 00 00	 movss	 xmm7, DWORD PTR __real@3f800000
  0011c	0f 57 e4	 xorps	 xmm4, xmm4
  0011f	f2 0f 11 85 ac
	e7 ff ff	 movsd	 QWORD PTR __real@4004000000000000$1$[ebp], xmm0
  00127	f2 0f 10 05 00
	00 00 00	 movsd	 xmm0, QWORD PTR __real@3fb99999a0000000
  0012f	f2 0f 11 85 a4
	e7 ff ff	 movsd	 QWORD PTR __real@3fb99999a0000000$1$[ebp], xmm0
  00137	0f 57 c0	 xorps	 xmm0, xmm0
  0013a	f2 0f 11 85 cc
	e7 ff ff	 movsd	 QWORD PTR __real@0000000000000000$1$[ebp], xmm0
  00142	f2 0f 10 05 00
	00 00 00	 movsd	 xmm0, QWORD PTR __real@3ff0000000000000
  0014a	89 8d 48 e8 ff
	ff		 mov	 DWORD PTR _n$1$[ebp], ecx
  00150	89 95 4c e8 ff
	ff		 mov	 DWORD PTR _loop$1$[ebp], edx
  00156	89 85 e4 e7 ff
	ff		 mov	 DWORD PTR tv7650[ebp], eax
  0015c	c7 85 e0 e7 ff
	ff 10 00 00 00	 mov	 DWORD PTR tv7384[ebp], 16 ; 00000010H
  00166	f3 0f 11 a5 50
	e8 ff ff	 movss	 DWORD PTR $T16[ebp], xmm4
  0016e	f2 0f 11 85 d4
	e7 ff ff	 movsd	 QWORD PTR __real@3ff0000000000000$1$[ebp], xmm0
  00176	66 66 0f 1f 84
	00 00 00 00 00	 npad	 10
$LL4@BuildVerte:

; 156  : 	{
; 157  : 		TTimePointList & Input = (loop) ? m_LongTimePointList : m_ShortTimePointList;

  00180	85 d2		 test	 edx, edx
  00182	c7 85 68 e8 ff
	ff 00 00 00 00	 mov	 DWORD PTR _i$1$[ebp], 0
  0018c	b8 08 00 00 00	 mov	 eax, 8

; 158  : 		std::vector<TPDTVertex> & Output = (loop) ? m_LongVertexVector : m_ShortVertexVector;

  00191	8d b5 e8 e7 ff
	ff		 lea	 esi, DWORD PTR _m_ShortVertexVector$[ebp]
  00197	bf 1c 00 00 00	 mov	 edi, 28			; 0000001cH
  0019c	0f 44 f8	 cmove	 edi, eax
  0019f	8d 85 24 e8 ff
	ff		 lea	 eax, DWORD PTR _m_LongVertexVector$[ebp]
  001a5	03 bd 78 e8 ff
	ff		 add	 edi, DWORD PTR _this$GSCopy$1$[ebp]
  001ab	85 d2		 test	 edx, edx
  001ad	89 bd 70 e8 ff
	ff		 mov	 DWORD PTR __Tmp$1$[ebp], edi
  001b3	0f 44 c6	 cmove	 eax, esi

; 162  : 		for(i=0;i<n;++i)

  001b6	8b b5 54 e8 ff
	ff		 mov	 esi, DWORD PTR _sp$1$[ebp]
  001bc	89 85 dc e7 ff
	ff		 mov	 DWORD PTR _Output$1$[ebp], eax
  001c2	85 c9		 test	 ecx, ecx
  001c4	0f 8e 23 01 00
	00		 jle	 $LN687@BuildVerte
; File C:\Program Files (x86)\Microsoft Visual Studio\2019\Community\VC\Tools\MSVC\14.28.29333\include\deque

; 914  :         return _Unchecked_iterator(_Myoff(), _STD addressof(_Get_data()));

  001ca	8b b5 78 e8 ff
	ff		 mov	 esi, DWORD PTR _this$GSCopy$1$[ebp]
  001d0	85 d2		 test	 edx, edx
  001d2	f3 0f 10 3d 00
	00 00 00	 movss	 xmm7, DWORD PTR __real@40400000
  001da	b9 14 00 00 00	 mov	 ecx, 20			; 00000014H
  001df	b8 28 00 00 00	 mov	 eax, 40			; 00000028H
  001e4	0f 44 c1	 cmove	 eax, ecx
  001e7	8d 8d e0 f1 ff
	ff		 lea	 ecx, DWORD PTR _r$[ebp]
  001ed	89 8d 5c e8 ff
	ff		 mov	 DWORD PTR tv7640[ebp], ecx
  001f3	8b 14 30	 mov	 edx, DWORD PTR [eax+esi]
  001f6	8b c2		 mov	 eax, edx
  001f8	89 95 6c e8 ff
	ff		 mov	 DWORD PTR $T17[ebp], edx
  001fe	89 85 7c e8 ff
	ff		 mov	 DWORD PTR tv7641[ebp], eax
$LL7@BuildVerte:

; 548  :         return (_Off / _DEQUESIZ) & (_Mapsize - 1);

  00204	8b 4f 08	 mov	 ecx, DWORD PTR [edi+8]
; File D:\Metin2 Server Files\mainline\SRC_2014\Metin2Client\GameLib\WeaponTrace.cpp

; 165  : 			r[i] = (Input[i+1].second - Input[i].second)*(3/h[i]);

  00207	0f 28 d7	 movaps	 xmm2, xmm7
; File C:\Program Files (x86)\Microsoft Visual Studio\2019\Community\VC\Tools\MSVC\14.28.29333\include\deque

; 548  :         return (_Off / _DEQUESIZ) & (_Mapsize - 1);

  0020a	49		 dec	 ecx

; 206  :         _Deque_unchecked_iterator _Tmp = *this;

  0020b	89 95 34 e8 ff
	ff		 mov	 DWORD PTR __Tmp$15[ebp+4], edx

; 548  :         return (_Off / _DEQUESIZ) & (_Mapsize - 1);

  00211	23 c8		 and	 ecx, eax

; 87   :         _Myoff += _Off;

  00213	8d 50 01	 lea	 edx, DWORD PTR [eax+1]
; File D:\Metin2 Server Files\mainline\SRC_2014\Metin2Client\GameLib\WeaponTrace.cpp

; 164  : 			h[i] = Input[i+1].first - Input[i].first;

  00216	8b 47 04	 mov	 eax, DWORD PTR [edi+4]
  00219	8b 34 88	 mov	 esi, DWORD PTR [eax+ecx*4]
; File C:\Program Files (x86)\Microsoft Visual Studio\2019\Community\VC\Tools\MSVC\14.28.29333\include\deque

; 548  :         return (_Off / _DEQUESIZ) & (_Mapsize - 1);

  0021c	8b 4f 08	 mov	 ecx, DWORD PTR [edi+8]
  0021f	49		 dec	 ecx
  00220	23 ca		 and	 ecx, edx
; File D:\Metin2 Server Files\mainline\SRC_2014\Metin2Client\GameLib\WeaponTrace.cpp

; 164  : 			h[i] = Input[i+1].first - Input[i].first;

  00222	8b 04 88	 mov	 eax, DWORD PTR [eax+ecx*4]
; File C:\Program Files (x86)\Microsoft Visual Studio\2019\Community\VC\Tools\MSVC\14.28.29333\include\deque

; 548  :         return (_Off / _DEQUESIZ) & (_Mapsize - 1);

  00225	8b 4f 08	 mov	 ecx, DWORD PTR [edi+8]
  00228	49		 dec	 ecx
  00229	23 ca		 and	 ecx, edx
; File D:\Metin2 Server Files\mainline\SRC_2014\Metin2Client\GameLib\WeaponTrace.cpp

; 162  : 		for(i=0;i<n;++i)

  0022b	8b 95 68 e8 ff
	ff		 mov	 edx, DWORD PTR _i$1$[ebp]

; 164  : 			h[i] = Input[i+1].first - Input[i].first;

  00231	f3 0f 10 00	 movss	 xmm0, DWORD PTR [eax]
  00235	42		 inc	 edx
  00236	f3 0f 5c 06	 subss	 xmm0, DWORD PTR [esi]
  0023a	8b 85 68 e8 ff
	ff		 mov	 eax, DWORD PTR _i$1$[ebp]
  00240	89 95 68 e8 ff
	ff		 mov	 DWORD PTR _i$1$[ebp], edx

; 165  : 			r[i] = (Input[i+1].second - Input[i].second)*(3/h[i]);

  00246	f3 0f 5e d0	 divss	 xmm2, xmm0
  0024a	f3 0f 11 84 85
	80 e8 ff ff	 movss	 DWORD PTR _h$[ebp+eax*4], xmm0
; File C:\Program Files (x86)\Microsoft Visual Studio\2019\Community\VC\Tools\MSVC\14.28.29333\include\deque

; 206  :         _Deque_unchecked_iterator _Tmp = *this;

  00253	8b 85 6c e8 ff
	ff		 mov	 eax, DWORD PTR $T17[ebp]
  00259	89 85 34 e8 ff
	ff		 mov	 DWORD PTR __Tmp$14[ebp+4], eax
; File D:\Metin2 Server Files\mainline\SRC_2014\Metin2Client\GameLib\WeaponTrace.cpp

; 165  : 			r[i] = (Input[i+1].second - Input[i].second)*(3/h[i]);

  0025f	8b 47 04	 mov	 eax, DWORD PTR [edi+4]
  00262	8b 04 88	 mov	 eax, DWORD PTR [eax+ecx*4]
  00265	8b 8d 5c e8 ff
	ff		 mov	 ecx, DWORD PTR tv7640[ebp]
; File D:\Metin2 Server Files\mainline\SRC_2014\M2Data\include\d3dx8math.inl

; 263  :     return D3DXVECTOR3(x - v.x, y - v.y, z - v.z);

  0026b	f3 0f 10 58 04	 movss	 xmm3, DWORD PTR [eax+4]
  00270	f3 0f 10 48 08	 movss	 xmm1, DWORD PTR [eax+8]
  00275	f3 0f 10 40 0c	 movss	 xmm0, DWORD PTR [eax+12]
  0027a	f3 0f 5c 5e 04	 subss	 xmm3, DWORD PTR [esi+4]
  0027f	f3 0f 5c 4e 08	 subss	 xmm1, DWORD PTR [esi+8]
  00284	f3 0f 5c 46 0c	 subss	 xmm0, DWORD PTR [esi+12]
; File D:\Metin2 Server Files\mainline\SRC_2014\Metin2Client\GameLib\WeaponTrace.cpp

; 165  : 			r[i] = (Input[i+1].second - Input[i].second)*(3/h[i]);

  00289	f3 0f 59 da	 mulss	 xmm3, xmm2
; File D:\Metin2 Server Files\mainline\SRC_2014\M2Data\include\d3dx8math.inl

; 180  :     x = fx;

  0028d	f3 0f 59 ca	 mulss	 xmm1, xmm2

; 181  :     y = fy;

  00291	f3 0f 59 c2	 mulss	 xmm0, xmm2
; File D:\Metin2 Server Files\mainline\SRC_2014\Metin2Client\GameLib\WeaponTrace.cpp

; 165  : 			r[i] = (Input[i+1].second - Input[i].second)*(3/h[i]);

  00295	0f 14 d9	 unpcklps xmm3, xmm1
  00298	66 0f d6 19	 movq	 QWORD PTR [ecx], xmm3
; File D:\Metin2 Server Files\mainline\SRC_2014\M2Data\include\d3dx8math.inl

; 182  :     z = fz;

  0029c	f3 0f 11 85 a0
	e7 ff ff	 movss	 DWORD PTR $T6[ebp+8], xmm0
; File D:\Metin2 Server Files\mainline\SRC_2014\Metin2Client\GameLib\WeaponTrace.cpp

; 165  : 			r[i] = (Input[i+1].second - Input[i].second)*(3/h[i]);

  002a4	8b 85 a0 e7 ff
	ff		 mov	 eax, DWORD PTR $T6[ebp+8]
  002aa	89 41 08	 mov	 DWORD PTR [ecx+8], eax
  002ad	83 c1 0c	 add	 ecx, 12			; 0000000cH
  002b0	8b 85 7c e8 ff
	ff		 mov	 eax, DWORD PTR tv7641[ebp]
  002b6	40		 inc	 eax
  002b7	89 8d 5c e8 ff
	ff		 mov	 DWORD PTR tv7640[ebp], ecx
  002bd	8b 8d 48 e8 ff
	ff		 mov	 ecx, DWORD PTR _n$1$[ebp]
  002c3	3b d1		 cmp	 edx, ecx
  002c5	8b 95 6c e8 ff
	ff		 mov	 edx, DWORD PTR $T17[ebp]
  002cb	89 85 7c e8 ff
	ff		 mov	 DWORD PTR tv7641[ebp], eax
  002d1	0f 8c 2d ff ff
	ff		 jl	 $LL7@BuildVerte
  002d7	f3 0f 10 3d 00
	00 00 00	 movss	 xmm7, DWORD PTR __real@3f800000
  002df	f3 0f 10 0d 00
	00 00 00	 movss	 xmm1, DWORD PTR __real@3f000000
  002e7	8b b5 54 e8 ff
	ff		 mov	 esi, DWORD PTR _sp$1$[ebp]
$LN687@BuildVerte:
; File D:\Metin2 Server Files\mainline\SRC_2014\M2Data\include\d3dx8math.inl

; 182  :     z = fz;

  002ed	c7 85 94 e7 ff
	ff 00 00 00 00	 mov	 DWORD PTR $T5[ebp+8], 0
; File D:\Metin2 Server Files\mainline\SRC_2014\Metin2Client\GameLib\WeaponTrace.cpp

; 167  : 		r[n] = D3DXVECTOR3(0.0f,0.0f,0.0f);

  002f7	0f 28 c4	 movaps	 xmm0, xmm4
  002fa	8b 85 94 e7 ff
	ff		 mov	 eax, DWORD PTR $T5[ebp+8]
  00300	8d 3c 49	 lea	 edi, DWORD PTR [ecx+ecx*2]
  00303	0f 14 c4	 unpcklps xmm0, xmm4

; 168  : 		for(i=n;i>0;i--)

  00306	8b d1		 mov	 edx, ecx
  00308	66 0f d6 84 bd
	e0 f1 ff ff	 movq	 QWORD PTR _r$[ebp+edi*4], xmm0
  00311	89 84 bd e8 f1
	ff ff		 mov	 DWORD PTR _r$[ebp+edi*4+8], eax
  00318	85 c9		 test	 ecx, ecx
  0031a	7e 3b		 jle	 SHORT $LN9@BuildVerte
; File D:\Metin2 Server Files\mainline\SRC_2014\M2Data\include\d3dx8math.inl

; 180  :     x = fx;

  0031c	8d 84 bd dc f1
	ff ff		 lea	 eax, DWORD PTR _r$[ebp+edi*4-4]
$LL10@BuildVerte:

; 204  :     x += v.x;

  00323	f3 0f 10 40 f8	 movss	 xmm0, DWORD PTR [eax-8]
; File D:\Metin2 Server Files\mainline\SRC_2014\Metin2Client\GameLib\WeaponTrace.cpp

; 168  : 		for(i=n;i>0;i--)

  00328	4a		 dec	 edx
; File D:\Metin2 Server Files\mainline\SRC_2014\M2Data\include\d3dx8math.inl

; 204  :     x += v.x;

  00329	f3 0f 58 40 04	 addss	 xmm0, DWORD PTR [eax+4]
  0032e	f3 0f 11 40 04	 movss	 DWORD PTR [eax+4], xmm0

; 205  :     y += v.y;

  00333	f3 0f 10 40 fc	 movss	 xmm0, DWORD PTR [eax-4]
  00338	f3 0f 58 40 08	 addss	 xmm0, DWORD PTR [eax+8]
  0033d	f3 0f 11 40 08	 movss	 DWORD PTR [eax+8], xmm0

; 206  :     z += v.z;

  00342	f3 0f 10 00	 movss	 xmm0, DWORD PTR [eax]
  00346	f3 0f 58 40 0c	 addss	 xmm0, DWORD PTR [eax+12]
  0034b	f3 0f 11 40 0c	 movss	 DWORD PTR [eax+12], xmm0
; File D:\Metin2 Server Files\mainline\SRC_2014\Metin2Client\GameLib\WeaponTrace.cpp

; 168  : 		for(i=n;i>0;i--)

  00350	83 e8 0c	 sub	 eax, 12			; 0000000cH
  00353	85 d2		 test	 edx, edx
  00355	7f cc		 jg	 SHORT $LL10@BuildVerte
$LN9@BuildVerte:
; File D:\Metin2 Server Files\mainline\SRC_2014\M2Data\include\d3dx8math.inl

; 222  :     x *= f;

  00357	f3 0f 10 85 e0
	f1 ff ff	 movss	 xmm0, DWORD PTR _r$[ebp]
; File D:\Metin2 Server Files\mainline\SRC_2014\Metin2Client\GameLib\WeaponTrace.cpp

; 173  : 		float rate = 0.5f;

  0035f	0f 28 f1	 movaps	 xmm6, xmm1
; File D:\Metin2 Server Files\mainline\SRC_2014\M2Data\include\d3dx8math.inl

; 222  :     x *= f;

  00362	f3 0f 59 c1	 mulss	 xmm0, xmm1
; File D:\Metin2 Server Files\mainline\SRC_2014\Metin2Client\GameLib\WeaponTrace.cpp

; 175  : 		stk[sp++] = rate;

  00366	c7 84 b5 30 ed
	ff ff 00 00 00
	3f		 mov	 DWORD PTR _stk$[ebp+esi*4], 1056964608 ; 3f000000H
  00371	46		 inc	 esi
  00372	89 b5 54 e8 ff
	ff		 mov	 DWORD PTR _sp$1$[ebp], esi
; File D:\Metin2 Server Files\mainline\SRC_2014\M2Data\include\d3dx8math.inl

; 222  :     x *= f;

  00378	f3 0f 11 85 e0
	f1 ff ff	 movss	 DWORD PTR _r$[ebp], xmm0

; 223  :     y *= f;

  00380	f3 0f 10 85 e4
	f1 ff ff	 movss	 xmm0, DWORD PTR _r$[ebp+4]
  00388	f3 0f 59 c1	 mulss	 xmm0, xmm1
  0038c	f3 0f 11 85 e4
	f1 ff ff	 movss	 DWORD PTR _r$[ebp+4], xmm0

; 224  :     z *= f;

  00394	f3 0f 10 85 e8
	f1 ff ff	 movss	 xmm0, DWORD PTR _r$[ebp+8]
  0039c	f3 0f 59 c1	 mulss	 xmm0, xmm1
  003a0	f3 0f 11 85 e8
	f1 ff ff	 movss	 DWORD PTR _r$[ebp+8], xmm0
; File D:\Metin2 Server Files\mainline\SRC_2014\Metin2Client\GameLib\WeaponTrace.cpp

; 176  : 		for(i=1;i<n;i++)

  003a8	83 f9 01	 cmp	 ecx, 1
  003ab	7e 64		 jle	 SHORT $LN12@BuildVerte

; 173  : 		float rate = 0.5f;

  003ad	8d 85 f0 f1 ff
	ff		 lea	 eax, DWORD PTR _r$[ebp+16]
  003b3	49		 dec	 ecx
$LL13@BuildVerte:

; 179  : 			rate = 1/(4-rate);

  003b4	0f 28 c5	 movaps	 xmm0, xmm5
; File D:\Metin2 Server Files\mainline\SRC_2014\M2Data\include\d3dx8math.inl

; 213  :     x -= v.x;

  003b7	f3 0f 10 58 fc	 movss	 xmm3, DWORD PTR [eax-4]
; File D:\Metin2 Server Files\mainline\SRC_2014\Metin2Client\GameLib\WeaponTrace.cpp

; 179  : 			rate = 1/(4-rate);

  003bc	f3 0f 5c c6	 subss	 xmm0, xmm6
  003c0	0f 28 f7	 movaps	 xmm6, xmm7
; File D:\Metin2 Server Files\mainline\SRC_2014\M2Data\include\d3dx8math.inl

; 213  :     x -= v.x;

  003c3	f3 0f 5c 58 f0	 subss	 xmm3, DWORD PTR [eax-16]
; File D:\Metin2 Server Files\mainline\SRC_2014\Metin2Client\GameLib\WeaponTrace.cpp

; 179  : 			rate = 1/(4-rate);

  003c8	f3 0f 5e f0	 divss	 xmm6, xmm0
; File D:\Metin2 Server Files\mainline\SRC_2014\M2Data\include\d3dx8math.inl

; 214  :     y -= v.y;

  003cc	f3 0f 10 00	 movss	 xmm0, DWORD PTR [eax]

; 222  :     x *= f;

  003d0	f3 0f 59 de	 mulss	 xmm3, xmm6
; File D:\Metin2 Server Files\mainline\SRC_2014\Metin2Client\GameLib\WeaponTrace.cpp

; 181  : 			stk[sp++]=rate;

  003d4	f3 0f 11 b4 b5
	30 ed ff ff	 movss	 DWORD PTR _stk$[ebp+esi*4], xmm6
  003dd	46		 inc	 esi
; File D:\Metin2 Server Files\mainline\SRC_2014\M2Data\include\d3dx8math.inl

; 222  :     x *= f;

  003de	f3 0f 11 58 fc	 movss	 DWORD PTR [eax-4], xmm3

; 214  :     y -= v.y;

  003e3	f3 0f 5c 40 f4	 subss	 xmm0, DWORD PTR [eax-12]

; 223  :     y *= f;

  003e8	f3 0f 59 c6	 mulss	 xmm0, xmm6
  003ec	f3 0f 11 00	 movss	 DWORD PTR [eax], xmm0

; 215  :     z -= v.z;

  003f0	f3 0f 10 40 04	 movss	 xmm0, DWORD PTR [eax+4]
  003f5	f3 0f 5c 40 f8	 subss	 xmm0, DWORD PTR [eax-8]

; 224  :     z *= f;

  003fa	f3 0f 59 c6	 mulss	 xmm0, xmm6
  003fe	f3 0f 11 40 04	 movss	 DWORD PTR [eax+4], xmm0
; File D:\Metin2 Server Files\mainline\SRC_2014\Metin2Client\GameLib\WeaponTrace.cpp

; 176  : 		for(i=1;i<n;i++)

  00403	83 c0 0c	 add	 eax, 12			; 0000000cH
  00406	83 e9 01	 sub	 ecx, 1
  00409	75 a9		 jne	 SHORT $LL13@BuildVerte
  0040b	89 b5 54 e8 ff
	ff		 mov	 DWORD PTR _sp$1$[ebp], esi
$LN12@BuildVerte:

; 184  : 		rate = 1/(2-rate);

  00411	f3 0f 10 05 00
	00 00 00	 movss	 xmm0, DWORD PTR __real@40000000
  00419	0f 28 cf	 movaps	 xmm1, xmm7
; File D:\Metin2 Server Files\mainline\SRC_2014\M2Data\include\d3dx8math.inl

; 213  :     x -= v.x;

  0041c	f3 0f 10 ac bd
	e0 f1 ff ff	 movss	 xmm5, DWORD PTR _r$[ebp+edi*4]
; File D:\Metin2 Server Files\mainline\SRC_2014\Metin2Client\GameLib\WeaponTrace.cpp

; 184  : 		rate = 1/(2-rate);

  00425	f3 0f 5c c6	 subss	 xmm0, xmm6
; File D:\Metin2 Server Files\mainline\SRC_2014\M2Data\include\d3dx8math.inl

; 213  :     x -= v.x;

  00429	f3 0f 5c ac bd
	d4 f1 ff ff	 subss	 xmm5, DWORD PTR _r$[ebp+edi*4-12]

; 214  :     y -= v.y;

  00432	f3 0f 10 a4 bd
	e4 f1 ff ff	 movss	 xmm4, DWORD PTR _r$[ebp+edi*4+4]

; 215  :     z -= v.z;

  0043b	f3 0f 10 9c bd
	e8 f1 ff ff	 movss	 xmm3, DWORD PTR _r$[ebp+edi*4+8]
; File D:\Metin2 Server Files\mainline\SRC_2014\Metin2Client\GameLib\WeaponTrace.cpp

; 183  : 		r[n]-=r[n-1];

  00444	8b 8d e4 e7 ff
	ff		 mov	 ecx, DWORD PTR tv7650[ebp]

; 184  : 		rate = 1/(2-rate);

  0044a	f3 0f 5e c8	 divss	 xmm1, xmm0
; File D:\Metin2 Server Files\mainline\SRC_2014\M2Data\include\d3dx8math.inl

; 213  :     x -= v.x;

  0044e	f3 0f 11 ac bd
	e0 f1 ff ff	 movss	 DWORD PTR _r$[ebp+edi*4], xmm5

; 222  :     x *= f;

  00457	f3 0f 59 e9	 mulss	 xmm5, xmm1

; 214  :     y -= v.y;

  0045b	f3 0f 5c a4 bd
	d8 f1 ff ff	 subss	 xmm4, DWORD PTR _r$[ebp+edi*4-8]

; 222  :     x *= f;

  00464	f3 0f 11 ac bd
	e0 f1 ff ff	 movss	 DWORD PTR _r$[ebp+edi*4], xmm5

; 223  :     y *= f;

  0046d	f3 0f 59 e1	 mulss	 xmm4, xmm1
  00471	f3 0f 11 a4 bd
	e4 f1 ff ff	 movss	 DWORD PTR _r$[ebp+edi*4+4], xmm4

; 215  :     z -= v.z;

  0047a	f3 0f 5c 9c bd
	dc f1 ff ff	 subss	 xmm3, DWORD PTR _r$[ebp+edi*4-4]

; 224  :     z *= f;

  00483	f3 0f 59 d9	 mulss	 xmm3, xmm1
  00487	f3 0f 11 9c bd
	e8 f1 ff ff	 movss	 DWORD PTR _r$[ebp+edi*4+8], xmm3
; File D:\Metin2 Server Files\mainline\SRC_2014\Metin2Client\GameLib\WeaponTrace.cpp

; 187  : 		for(i=n-1;i>=0;i--)

  00490	85 c9		 test	 ecx, ecx
  00492	78 62		 js	 SHORT $LN15@BuildVerte

; 183  : 		r[n]-=r[n-1];

  00494	8d 04 49	 lea	 eax, DWORD PTR [ecx+ecx*2]
  00497	8d 84 85 e4 f1
	ff ff		 lea	 eax, DWORD PTR _r$[ebp+eax*4+4]
  0049e	66 90		 npad	 2
$LL16@BuildVerte:
; File D:\Metin2 Server Files\mainline\SRC_2014\M2Data\include\d3dx8math.inl

; 283  :     return D3DXVECTOR3(f * v.x, f * v.y, f * v.z);

  004a0	f3 0f 10 48 08	 movss	 xmm1, DWORD PTR [eax+8]
; File D:\Metin2 Server Files\mainline\SRC_2014\Metin2Client\GameLib\WeaponTrace.cpp

; 189  : 			r[i] -= stk[--sp] * r[i+1];

  004a5	4e		 dec	 esi
; File D:\Metin2 Server Files\mainline\SRC_2014\M2Data\include\d3dx8math.inl

; 213  :     x -= v.x;

  004a6	f3 0f 10 40 fc	 movss	 xmm0, DWORD PTR [eax-4]
; File D:\Metin2 Server Files\mainline\SRC_2014\Metin2Client\GameLib\WeaponTrace.cpp

; 189  : 			r[i] -= stk[--sp] * r[i+1];

  004ab	f3 0f 10 a4 b5
	30 ed ff ff	 movss	 xmm4, DWORD PTR _stk$[ebp+esi*4]
; File D:\Metin2 Server Files\mainline\SRC_2014\M2Data\include\d3dx8math.inl

; 283  :     return D3DXVECTOR3(f * v.x, f * v.y, f * v.z);

  004b4	f3 0f 59 cc	 mulss	 xmm1, xmm4

; 213  :     x -= v.x;

  004b8	f3 0f 5c c1	 subss	 xmm0, xmm1

; 283  :     return D3DXVECTOR3(f * v.x, f * v.y, f * v.z);

  004bc	0f 28 cc	 movaps	 xmm1, xmm4

; 213  :     x -= v.x;

  004bf	f3 0f 11 40 fc	 movss	 DWORD PTR [eax-4], xmm0

; 283  :     return D3DXVECTOR3(f * v.x, f * v.y, f * v.z);

  004c4	f3 0f 59 48 0c	 mulss	 xmm1, DWORD PTR [eax+12]

; 214  :     y -= v.y;

  004c9	f3 0f 10 00	 movss	 xmm0, DWORD PTR [eax]
  004cd	f3 0f 5c c1	 subss	 xmm0, xmm1
  004d1	f3 0f 11 00	 movss	 DWORD PTR [eax], xmm0

; 283  :     return D3DXVECTOR3(f * v.x, f * v.y, f * v.z);

  004d5	f3 0f 59 60 10	 mulss	 xmm4, DWORD PTR [eax+16]

; 215  :     z -= v.z;

  004da	f3 0f 10 40 04	 movss	 xmm0, DWORD PTR [eax+4]
  004df	f3 0f 5c c4	 subss	 xmm0, xmm4
  004e3	f3 0f 11 40 04	 movss	 DWORD PTR [eax+4], xmm0
; File D:\Metin2 Server Files\mainline\SRC_2014\Metin2Client\GameLib\WeaponTrace.cpp

; 187  : 		for(i=n-1;i>=0;i--)

  004e8	83 e8 0c	 sub	 eax, 12			; 0000000cH
  004eb	83 e9 01	 sub	 ecx, 1
  004ee	79 b0		 jns	 SHORT $LL16@BuildVerte
  004f0	89 b5 54 e8 ff
	ff		 mov	 DWORD PTR _sp$1$[ebp], esi
$LN15@BuildVerte:
; File C:\Program Files (x86)\Microsoft Visual Studio\2019\Community\VC\Tools\MSVC\14.28.29333\include\deque

; 914  :         return _Unchecked_iterator(_Myoff(), _STD addressof(_Get_data()));

  004f6	8b b5 4c e8 ff
	ff		 mov	 esi, DWORD PTR _loop$1$[ebp]
; File D:\Metin2 Server Files\mainline\SRC_2014\Metin2Client\GameLib\WeaponTrace.cpp

; 192  : 		int base = 0;

  004fc	33 ff		 xor	 edi, edi
; File C:\Program Files (x86)\Microsoft Visual Studio\2019\Community\VC\Tools\MSVC\14.28.29333\include\deque

; 914  :         return _Unchecked_iterator(_Myoff(), _STD addressof(_Get_data()));

  004fe	85 f6		 test	 esi, esi
; File D:\Metin2 Server Files\mainline\SRC_2014\Metin2Client\GameLib\WeaponTrace.cpp

; 195  : 		float timebase=0,timenext=h[base], dt=m_fSamplingTime;

  00500	f3 0f 10 a5 80
	e8 ff ff	 movss	 xmm4, DWORD PTR _h$[ebp]
; File C:\Program Files (x86)\Microsoft Visual Studio\2019\Community\VC\Tools\MSVC\14.28.29333\include\deque

; 914  :         return _Unchecked_iterator(_Myoff(), _STD addressof(_Get_data()));

  00508	b9 14 00 00 00	 mov	 ecx, 20			; 00000014H
; File D:\Metin2 Server Files\mainline\SRC_2014\Metin2Client\GameLib\WeaponTrace.cpp

; 198  : 		c = ( 3*v3Tmp - r[base+1]*h[base] - (2*h[base])*r[base] )

  0050d	f3 0f 10 0d 00
	00 00 00	 movss	 xmm1, DWORD PTR __real@3f800000
; File C:\Program Files (x86)\Microsoft Visual Studio\2019\Community\VC\Tools\MSVC\14.28.29333\include\deque

; 914  :         return _Unchecked_iterator(_Myoff(), _STD addressof(_Get_data()));

  00515	b8 28 00 00 00	 mov	 eax, 40			; 00000028H
; File D:\Metin2 Server Files\mainline\SRC_2014\M2Data\include\d3dx8math.inl

; 283  :     return D3DXVECTOR3(f * v.x, f * v.y, f * v.z);

  0051a	f3 0f 10 9d ec
	f1 ff ff	 movss	 xmm3, DWORD PTR _r$[ebp+12]
; File C:\Program Files (x86)\Microsoft Visual Studio\2019\Community\VC\Tools\MSVC\14.28.29333\include\deque

; 914  :         return _Unchecked_iterator(_Myoff(), _STD addressof(_Get_data()));

  00522	0f 44 c1	 cmove	 eax, ecx
; File D:\Metin2 Server Files\mainline\SRC_2014\M2Data\include\d3dx8math.inl

; 283  :     return D3DXVECTOR3(f * v.x, f * v.y, f * v.z);

  00525	f3 0f 11 9d 58
	e8 ff ff	 movss	 DWORD PTR _d$2$sroa$2678$1$[ebp], xmm3
; File C:\Program Files (x86)\Microsoft Visual Studio\2019\Community\VC\Tools\MSVC\14.28.29333\include\deque

; 914  :         return _Unchecked_iterator(_Myoff(), _STD addressof(_Get_data()));

  0052d	8b 8d 78 e8 ff
	ff		 mov	 ecx, DWORD PTR _this$GSCopy$1$[ebp]
; File D:\Metin2 Server Files\mainline\SRC_2014\M2Data\include\d3dx8math.inl

; 269  :     return D3DXVECTOR3(x * f, y * f, z * f);

  00533	0f 28 f4	 movaps	 xmm6, xmm4
; File C:\Program Files (x86)\Microsoft Visual Studio\2019\Community\VC\Tools\MSVC\14.28.29333\include\deque

; 914  :         return _Unchecked_iterator(_Myoff(), _STD addressof(_Get_data()));

  00536	03 c1		 add	 eax, ecx
; File D:\Metin2 Server Files\mainline\SRC_2014\M2Data\include\d3dx8math.inl

; 269  :     return D3DXVECTOR3(x * f, y * f, z * f);

  00538	f3 0f 59 f4	 mulss	 xmm6, xmm4
; File C:\Program Files (x86)\Microsoft Visual Studio\2019\Community\VC\Tools\MSVC\14.28.29333\include\deque

; 914  :         return _Unchecked_iterator(_Myoff(), _STD addressof(_Get_data()));

  0053c	89 85 18 e8 ff
	ff		 mov	 DWORD PTR tv7675[ebp], eax

; 548  :         return (_Off / _DEQUESIZ) & (_Mapsize - 1);

  00542	85 f6		 test	 esi, esi
; File D:\Metin2 Server Files\mainline\SRC_2014\Metin2Client\GameLib\WeaponTrace.cpp

; 197  : 		b = r[base];

  00544	0f 28 ec	 movaps	 xmm5, xmm4
  00547	f3 0f 11 a5 6c
	e8 ff ff	 movss	 DWORD PTR _timenext$1$[ebp], xmm4
  0054f	f3 0f 58 ec	 addss	 xmm5, xmm4
; File C:\Program Files (x86)\Microsoft Visual Studio\2019\Community\VC\Tools\MSVC\14.28.29333\include\deque

; 52   :         : _Mycont(static_cast<const _Mydeque*>(_Pdeque)), _Myoff(_Off) {}

  00553	8b 10		 mov	 edx, DWORD PTR [eax]

; 548  :         return (_Off / _DEQUESIZ) & (_Mapsize - 1);

  00555	b8 24 00 00 00	 mov	 eax, 36			; 00000024H
  0055a	0f 44 85 e0 e7
	ff ff		 cmove	 eax, DWORD PTR tv7384[ebp]

; 206  :         _Deque_unchecked_iterator _Tmp = *this;

  00561	89 95 34 e8 ff
	ff		 mov	 DWORD PTR __Tmp$13[ebp+4], edx
; File D:\Metin2 Server Files\mainline\SRC_2014\Metin2Client\GameLib\WeaponTrace.cpp

; 198  : 		c = ( 3*v3Tmp - r[base+1]*h[base] - (2*h[base])*r[base] )

  00567	f3 0f 5e ce	 divss	 xmm1, xmm6
; File C:\Program Files (x86)\Microsoft Visual Studio\2019\Community\VC\Tools\MSVC\14.28.29333\include\deque

; 548  :         return (_Off / _DEQUESIZ) & (_Mapsize - 1);

  0056b	8b 0c 08	 mov	 ecx, DWORD PTR [eax+ecx]

; 57   :         return _Mycont->_Map[_Block][_Off];

  0056e	b8 20 00 00 00	 mov	 eax, 32			; 00000020H

; 548  :         return (_Off / _DEQUESIZ) & (_Mapsize - 1);

  00573	49		 dec	 ecx
  00574	23 ca		 and	 ecx, edx

; 57   :         return _Mycont->_Map[_Block][_Off];

  00576	85 f6		 test	 esi, esi
  00578	be 0c 00 00 00	 mov	 esi, 12			; 0000000cH
  0057d	0f 44 c6	 cmove	 eax, esi
; File D:\Metin2 Server Files\mainline\SRC_2014\Metin2Client\GameLib\WeaponTrace.cpp

; 194  : 		D3DXVECTOR3 v3Tmp = Input[base+1].second-Input[base].second;

  00580	8b b5 78 e8 ff
	ff		 mov	 esi, DWORD PTR _this$GSCopy$1$[ebp]
  00586	8b 04 30	 mov	 eax, DWORD PTR [eax+esi]
  00589	8b 34 88	 mov	 esi, DWORD PTR [eax+ecx*4]
; File C:\Program Files (x86)\Microsoft Visual Studio\2019\Community\VC\Tools\MSVC\14.28.29333\include\deque

; 548  :         return (_Off / _DEQUESIZ) & (_Mapsize - 1);

  0058c	8b 85 70 e8 ff
	ff		 mov	 eax, DWORD PTR __Tmp$1$[ebp]
  00592	8b 48 08	 mov	 ecx, DWORD PTR [eax+8]

; 87   :         _Myoff += _Off;

  00595	8d 42 01	 lea	 eax, DWORD PTR [edx+1]
; File D:\Metin2 Server Files\mainline\SRC_2014\Metin2Client\GameLib\WeaponTrace.cpp

; 194  : 		D3DXVECTOR3 v3Tmp = Input[base+1].second-Input[base].second;

  00598	8b 95 70 e8 ff
	ff		 mov	 edx, DWORD PTR __Tmp$1$[ebp]
; File C:\Program Files (x86)\Microsoft Visual Studio\2019\Community\VC\Tools\MSVC\14.28.29333\include\deque

; 548  :         return (_Off / _DEQUESIZ) & (_Mapsize - 1);

  0059e	49		 dec	 ecx
  0059f	23 c8		 and	 ecx, eax
; File D:\Metin2 Server Files\mainline\SRC_2014\Metin2Client\GameLib\WeaponTrace.cpp

; 194  : 		D3DXVECTOR3 v3Tmp = Input[base+1].second-Input[base].second;

  005a1	8b 42 04	 mov	 eax, DWORD PTR [edx+4]
  005a4	8b 04 88	 mov	 eax, DWORD PTR [eax+ecx*4]
; File D:\Metin2 Server Files\mainline\SRC_2014\M2Data\include\d3dx8math.inl

; 263  :     return D3DXVECTOR3(x - v.x, y - v.y, z - v.z);

  005a7	f3 0f 10 40 0c	 movss	 xmm0, DWORD PTR [eax+12]
  005ac	f3 0f 5c 46 0c	 subss	 xmm0, DWORD PTR [esi+12]
  005b1	f3 0f 10 78 04	 movss	 xmm7, DWORD PTR [eax+4]
  005b6	f3 0f 10 50 08	 movss	 xmm2, DWORD PTR [eax+8]
; File D:\Metin2 Server Files\mainline\SRC_2014\Metin2Client\GameLib\WeaponTrace.cpp

; 195  : 		float timebase=0,timenext=h[base], dt=m_fSamplingTime;

  005bb	8b 85 78 e8 ff
	ff		 mov	 eax, DWORD PTR _this$GSCopy$1$[ebp]
; File D:\Metin2 Server Files\mainline\SRC_2014\M2Data\include\d3dx8math.inl

; 263  :     return D3DXVECTOR3(x - v.x, y - v.y, z - v.z);

  005c1	f3 0f 5c 7e 04	 subss	 xmm7, DWORD PTR [esi+4]
  005c6	f3 0f 11 85 7c
	e8 ff ff	 movss	 DWORD PTR tv7427[ebp], xmm0
; File D:\Metin2 Server Files\mainline\SRC_2014\Metin2Client\GameLib\WeaponTrace.cpp

; 195  : 		float timebase=0,timenext=h[base], dt=m_fSamplingTime;

  005ce	f3 0f 10 85 50
	e8 ff ff	 movss	 xmm0, DWORD PTR $T16[ebp]
  005d6	f3 0f 11 85 14
	e8 ff ff	 movss	 DWORD PTR _timebase$1$[ebp], xmm0
  005de	f3 0f 10 40 40	 movss	 xmm0, DWORD PTR [eax+64]
  005e3	f3 0f 11 85 34
	e8 ff ff	 movss	 DWORD PTR _dt$1$[ebp], xmm0

; 196  : 		a = Input[base].second;

  005eb	f3 0f 7e 46 04	 movq	 xmm0, QWORD PTR [esi+4]
  005f0	66 0f d6 85 f4
	e7 ff ff	 movq	 QWORD PTR _a$8[ebp], xmm0

; 197  : 		b = r[base];

  005f8	f3 0f 7e 85 e0
	f1 ff ff	 movq	 xmm0, QWORD PTR _r$[ebp]
  00600	66 0f d6 85 00
	e8 ff ff	 movq	 QWORD PTR _b$9[ebp], xmm0
; File D:\Metin2 Server Files\mainline\SRC_2014\M2Data\include\d3dx8math.inl

; 182  :     z = fz;

  00608	0f 28 c7	 movaps	 xmm0, xmm7
  0060b	f3 0f 59 05 00
	00 00 00	 mulss	 xmm0, DWORD PTR __real@40400000
; File D:\Metin2 Server Files\mainline\SRC_2014\Metin2Client\GameLib\WeaponTrace.cpp

; 196  : 		a = Input[base].second;

  00613	8b 46 0c	 mov	 eax, DWORD PTR [esi+12]
; File D:\Metin2 Server Files\mainline\SRC_2014\M2Data\include\d3dx8math.inl

; 263  :     return D3DXVECTOR3(x - v.x, y - v.y, z - v.z);

  00616	f3 0f 5c 56 08	 subss	 xmm2, DWORD PTR [esi+8]
; File D:\Metin2 Server Files\mainline\SRC_2014\Metin2Client\GameLib\WeaponTrace.cpp

; 196  : 		a = Input[base].second;

  0061b	89 85 fc e7 ff
	ff		 mov	 DWORD PTR _a$8[ebp+8], eax
; File D:\Metin2 Server Files\mainline\SRC_2014\M2Data\include\d3dx8math.inl

; 182  :     z = fz;

  00621	f3 0f 11 85 74
	e8 ff ff	 movss	 DWORD PTR _c$1$sroa$2800$1$[ebp], xmm0

; 283  :     return D3DXVECTOR3(f * v.x, f * v.y, f * v.z);

  00629	0f 28 c4	 movaps	 xmm0, xmm4
  0062c	f3 0f 59 c3	 mulss	 xmm0, xmm3
; File D:\Metin2 Server Files\mainline\SRC_2014\Metin2Client\GameLib\WeaponTrace.cpp

; 197  : 		b = r[base];

  00630	8b 85 e8 f1 ff
	ff		 mov	 eax, DWORD PTR _r$[ebp+8]
; File D:\Metin2 Server Files\mainline\SRC_2014\M2Data\include\d3dx8math.inl

; 182  :     z = fz;

  00636	f3 0f 10 9d 74
	e8 ff ff	 movss	 xmm3, DWORD PTR _c$1$sroa$2800$1$[ebp]

; 263  :     return D3DXVECTOR3(x - v.x, y - v.y, z - v.z);

  0063e	f3 0f 11 95 3c
	e8 ff ff	 movss	 DWORD PTR tv7425[ebp], xmm2

; 180  :     x = fx;

  00646	f3 0f 59 15 00
	00 00 00	 mulss	 xmm2, DWORD PTR __real@40400000

; 182  :     z = fz;

  0064e	f3 0f 5c d8	 subss	 xmm3, xmm0
; File D:\Metin2 Server Files\mainline\SRC_2014\Metin2Client\GameLib\WeaponTrace.cpp

; 197  : 		b = r[base];

  00652	89 85 08 e8 ff
	ff		 mov	 DWORD PTR _b$9[ebp+8], eax
; File D:\Metin2 Server Files\mainline\SRC_2014\M2Data\include\d3dx8math.inl

; 283  :     return D3DXVECTOR3(f * v.x, f * v.y, f * v.z);

  00658	0f 28 c5	 movaps	 xmm0, xmm5
  0065b	f3 0f 59 85 e0
	f1 ff ff	 mulss	 xmm0, DWORD PTR _r$[ebp]

; 182  :     z = fz;

  00663	f3 0f 11 9d 74
	e8 ff ff	 movss	 DWORD PTR _c$1$sroa$2800$1$[ebp], xmm3
  0066b	f3 0f 5c d8	 subss	 xmm3, xmm0
; File D:\Metin2 Server Files\mainline\SRC_2014\Metin2Client\GameLib\WeaponTrace.cpp

; 198  : 		c = ( 3*v3Tmp - r[base+1]*h[base] - (2*h[base])*r[base] )

  0066f	0f 28 c3	 movaps	 xmm0, xmm3
; File D:\Metin2 Server Files\mainline\SRC_2014\M2Data\include\d3dx8math.inl

; 182  :     z = fz;

  00672	f3 0f 11 9d 74
	e8 ff ff	 movss	 DWORD PTR _c$1$sroa$2800$1$[ebp], xmm3
; File D:\Metin2 Server Files\mainline\SRC_2014\Metin2Client\GameLib\WeaponTrace.cpp

; 198  : 		c = ( 3*v3Tmp - r[base+1]*h[base] - (2*h[base])*r[base] )

  0067a	f3 0f 59 c1	 mulss	 xmm0, xmm1
  0067e	f3 0f 11 85 74
	e8 ff ff	 movss	 DWORD PTR _c$1$sroa$2800$1$[ebp], xmm0
; File D:\Metin2 Server Files\mainline\SRC_2014\M2Data\include\d3dx8math.inl

; 269  :     return D3DXVECTOR3(x * f, y * f, z * f);

  00686	0f 28 c4	 movaps	 xmm0, xmm4
  00689	f3 0f 59 85 f0
	f1 ff ff	 mulss	 xmm0, DWORD PTR _r$[ebp+16]

; 181  :     y = fy;

  00691	f3 0f 10 9d 7c
	e8 ff ff	 movss	 xmm3, DWORD PTR tv7427[ebp]

; 180  :     x = fx;

  00699	f3 0f 5c d0	 subss	 xmm2, xmm0

; 283  :     return D3DXVECTOR3(f * v.x, f * v.y, f * v.z);

  0069d	f3 0f 10 85 e4
	f1 ff ff	 movss	 xmm0, DWORD PTR _r$[ebp+4]

; 181  :     y = fy;

  006a5	f3 0f 59 1d 00
	00 00 00	 mulss	 xmm3, DWORD PTR __real@40400000

; 283  :     return D3DXVECTOR3(f * v.x, f * v.y, f * v.z);

  006ad	f3 0f 11 85 64
	e8 ff ff	 movss	 DWORD PTR _d$2$sroa$2677$1$[ebp], xmm0
  006b5	f3 0f 59 c5	 mulss	 xmm0, xmm5

; 182  :     z = fz;

  006b9	f3 0f 59 3d 00
	00 00 00	 mulss	 xmm7, DWORD PTR __real@c0000000

; 180  :     x = fx;

  006c1	f3 0f 5c d0	 subss	 xmm2, xmm0

; 269  :     return D3DXVECTOR3(x * f, y * f, z * f);

  006c5	0f 28 c4	 movaps	 xmm0, xmm4
  006c8	f3 0f 59 85 f4
	f1 ff ff	 mulss	 xmm0, DWORD PTR _r$[ebp+20]

; 181  :     y = fy;

  006d0	f3 0f 5c d8	 subss	 xmm3, xmm0

; 180  :     x = fx;

  006d4	f3 0f 59 d1	 mulss	 xmm2, xmm1

; 283  :     return D3DXVECTOR3(f * v.x, f * v.y, f * v.z);

  006d8	f3 0f 10 85 e8
	f1 ff ff	 movss	 xmm0, DWORD PTR _r$[ebp+8]
  006e0	f3 0f 11 85 60
	e8 ff ff	 movss	 DWORD PTR _d$2$sroa$2676$1$[ebp], xmm0
  006e8	f3 0f 59 c5	 mulss	 xmm0, xmm5

; 257  :     return D3DXVECTOR3(x + v.x, y + v.y, z + v.z);

  006ec	0f 28 ec	 movaps	 xmm5, xmm4

; 180  :     x = fx;

  006ef	f3 0f 11 95 10
	e8 ff ff	 movss	 DWORD PTR _c$1$sroa$2681$1$[ebp], xmm2

; 181  :     y = fy;

  006f7	f3 0f 5c d8	 subss	 xmm3, xmm0

; 257  :     return D3DXVECTOR3(x + v.x, y + v.y, z + v.z);

  006fb	0f 28 c5	 movaps	 xmm0, xmm5
  006fe	f3 0f 59 c6	 mulss	 xmm0, xmm6
; File D:\Metin2 Server Files\mainline\SRC_2014\Metin2Client\GameLib\WeaponTrace.cpp

; 200  : 		d = ( -2*v3Tmp + (r[base+1]+r[base])*h[base])

  00702	f3 0f 10 35 00
	00 00 00	 movss	 xmm6, DWORD PTR __real@3f800000
; File D:\Metin2 Server Files\mainline\SRC_2014\M2Data\include\d3dx8math.inl

; 181  :     y = fy;

  0070a	f3 0f 59 d9	 mulss	 xmm3, xmm1
; File D:\Metin2 Server Files\mainline\SRC_2014\Metin2Client\GameLib\WeaponTrace.cpp

; 200  : 		d = ( -2*v3Tmp + (r[base+1]+r[base])*h[base])

  0070e	0f 28 ce	 movaps	 xmm1, xmm6
  00711	f3 0f 5e c8	 divss	 xmm1, xmm0
; File D:\Metin2 Server Files\mainline\SRC_2014\M2Data\include\d3dx8math.inl

; 257  :     return D3DXVECTOR3(x + v.x, y + v.y, z + v.z);

  00715	f3 0f 10 85 58
	e8 ff ff	 movss	 xmm0, DWORD PTR _d$2$sroa$2678$1$[ebp]
  0071d	f3 0f 58 85 e0
	f1 ff ff	 addss	 xmm0, DWORD PTR _r$[ebp]

; 181  :     y = fy;

  00725	f3 0f 11 9d 5c
	e8 ff ff	 movss	 DWORD PTR _c$1$sroa$2679$1$[ebp], xmm3

; 257  :     return D3DXVECTOR3(x + v.x, y + v.y, z + v.z);

  0072d	f3 0f 10 9d 64
	e8 ff ff	 movss	 xmm3, DWORD PTR _d$2$sroa$2677$1$[ebp]
  00735	f3 0f 58 9d f0
	f1 ff ff	 addss	 xmm3, DWORD PTR _r$[ebp+16]
; File D:\Metin2 Server Files\mainline\SRC_2014\Metin2Client\GameLib\WeaponTrace.cpp

; 200  : 		d = ( -2*v3Tmp + (r[base+1]+r[base])*h[base])

  0073d	f3 0f 59 c5	 mulss	 xmm0, xmm5
  00741	f3 0f 59 dd	 mulss	 xmm3, xmm5
; File D:\Metin2 Server Files\mainline\SRC_2014\M2Data\include\d3dx8math.inl

; 182  :     z = fz;

  00745	f3 0f 58 c7	 addss	 xmm0, xmm7
; File D:\Metin2 Server Files\mainline\SRC_2014\Metin2Client\GameLib\WeaponTrace.cpp

; 203  : 		for(float t = 0; t<=length; t+=dt)

  00749	f3 0f 10 bd 50
	e8 ff ff	 movss	 xmm7, DWORD PTR $T16[ebp]
  00751	f3 0f 11 bd 68
	e8 ff ff	 movss	 DWORD PTR _t$1$[ebp], xmm7
  00759	f3 0f 59 c1	 mulss	 xmm0, xmm1
  0075d	f3 0f 11 85 58
	e8 ff ff	 movss	 DWORD PTR _d$2$sroa$2678$1$[ebp], xmm0
; File D:\Metin2 Server Files\mainline\SRC_2014\M2Data\include\d3dx8math.inl

; 180  :     x = fx;

  00765	f3 0f 10 85 3c
	e8 ff ff	 movss	 xmm0, DWORD PTR tv7425[ebp]
  0076d	f3 0f 59 05 00
	00 00 00	 mulss	 xmm0, DWORD PTR __real@c0000000
  00775	f3 0f 58 d8	 addss	 xmm3, xmm0

; 181  :     y = fy;

  00779	f3 0f 10 85 7c
	e8 ff ff	 movss	 xmm0, DWORD PTR tv7427[ebp]
  00781	f3 0f 59 05 00
	00 00 00	 mulss	 xmm0, DWORD PTR __real@c0000000

; 180  :     x = fx;

  00789	f3 0f 59 d9	 mulss	 xmm3, xmm1
  0078d	f3 0f 11 9d 64
	e8 ff ff	 movss	 DWORD PTR _d$2$sroa$2677$1$[ebp], xmm3

; 257  :     return D3DXVECTOR3(x + v.x, y + v.y, z + v.z);

  00795	f3 0f 10 9d 60
	e8 ff ff	 movss	 xmm3, DWORD PTR _d$2$sroa$2676$1$[ebp]
  0079d	f3 0f 58 9d f4
	f1 ff ff	 addss	 xmm3, DWORD PTR _r$[ebp+20]
; File D:\Metin2 Server Files\mainline\SRC_2014\Metin2Client\GameLib\WeaponTrace.cpp

; 200  : 		d = ( -2*v3Tmp + (r[base+1]+r[base])*h[base])

  007a5	f3 0f 59 dd	 mulss	 xmm3, xmm5
; File D:\Metin2 Server Files\mainline\SRC_2014\M2Data\include\d3dx8math.inl

; 181  :     y = fy;

  007a9	f3 0f 58 d8	 addss	 xmm3, xmm0
; File D:\Metin2 Server Files\mainline\SRC_2014\Metin2Client\GameLib\WeaponTrace.cpp

; 203  : 		for(float t = 0; t<=length; t+=dt)

  007ad	f3 0f 10 85 44
	e8 ff ff	 movss	 xmm0, DWORD PTR _length$1$[ebp]
  007b5	0f 2f c7	 comiss	 xmm0, xmm7
; File D:\Metin2 Server Files\mainline\SRC_2014\M2Data\include\d3dx8math.inl

; 181  :     y = fy;

  007b8	f3 0f 59 d9	 mulss	 xmm3, xmm1
; File D:\Metin2 Server Files\mainline\SRC_2014\Metin2Client\GameLib\WeaponTrace.cpp

; 203  : 		for(float t = 0; t<=length; t+=dt)

  007bc	0f 28 cf	 movaps	 xmm1, xmm7
; File D:\Metin2 Server Files\mainline\SRC_2014\M2Data\include\d3dx8math.inl

; 181  :     y = fy;

  007bf	f3 0f 11 9d 60
	e8 ff ff	 movss	 DWORD PTR _d$2$sroa$2676$1$[ebp], xmm3
; File D:\Metin2 Server Files\mainline\SRC_2014\Metin2Client\GameLib\WeaponTrace.cpp

; 203  : 		for(float t = 0; t<=length; t+=dt)

  007c7	0f 82 7c 05 00
	00		 jb	 $LN2@BuildVerte
  007cd	0f 1f 00	 npad	 3
$LL19@BuildVerte:

; 205  : 			while (t>timenext)

  007d0	0f 2f cd	 comiss	 xmm1, xmm5
  007d3	0f 86 cc 02 00
	00		 jbe	 $LN688@BuildVerte
  007d9	8d 04 7f	 lea	 eax, DWORD PTR [edi+edi*2]
  007dc	8d 8d e8 f1 ff
	ff		 lea	 ecx, DWORD PTR _r$[ebp+8]
  007e2	8d 0c 81	 lea	 ecx, DWORD PTR [ecx+eax*4]
  007e5	66 66 66 0f 1f
	84 00 00 00 00
	00		 npad	 11
$LL20@BuildVerte:

; 206  : 			{
; 207  : 				timebase = timenext;
; 208  : 				base++;

  007f0	47		 inc	 edi
  007f1	f3 0f 11 ad 14
	e8 ff ff	 movss	 DWORD PTR _timebase$1$[ebp], xmm5
  007f9	83 c1 0c	 add	 ecx, 12			; 0000000cH
  007fc	89 8d 40 e8 ff
	ff		 mov	 DWORD PTR tv7627[ebp], ecx

; 209  : 				if (base>=n) break;

  00802	3b bd 48 e8 ff
	ff		 cmp	 edi, DWORD PTR _n$1$[ebp]
  00808	0f 8d 87 02 00
	00		 jge	 $LN689@BuildVerte
; File C:\Program Files (x86)\Microsoft Visual Studio\2019\Community\VC\Tools\MSVC\14.28.29333\include\deque

; 52   :         : _Mycont(static_cast<const _Mydeque*>(_Pdeque)), _Myoff(_Off) {}

  0080e	8b 85 18 e8 ff
	ff		 mov	 eax, DWORD PTR tv7675[ebp]
; File D:\Metin2 Server Files\mainline\SRC_2014\Metin2Client\GameLib\WeaponTrace.cpp

; 213  : 				c = ( 3*v3Tmp - r[base+1]*h[base] - (2*h[base])*r[base] )

  00814	f3 0f 10 bc bd
	80 e8 ff ff	 movss	 xmm7, DWORD PTR _h$[ebp+edi*4]
  0081d	0f 28 d7	 movaps	 xmm2, xmm7
  00820	0f 28 df	 movaps	 xmm3, xmm7
  00823	f3 0f 59 d7	 mulss	 xmm2, xmm7
  00827	f3 0f 58 df	 addss	 xmm3, xmm7
; File C:\Program Files (x86)\Microsoft Visual Studio\2019\Community\VC\Tools\MSVC\14.28.29333\include\deque

; 52   :         : _Mycont(static_cast<const _Mydeque*>(_Pdeque)), _Myoff(_Off) {}

  0082b	8b 30		 mov	 esi, DWORD PTR [eax]

; 548  :         return (_Off / _DEQUESIZ) & (_Mapsize - 1);

  0082d	8b 42 08	 mov	 eax, DWORD PTR [edx+8]
  00830	48		 dec	 eax

; 206  :         _Deque_unchecked_iterator _Tmp = *this;

  00831	89 b5 10 e8 ff
	ff		 mov	 DWORD PTR __Tmp$12[ebp+4], esi
  00837	89 b5 10 e8 ff
	ff		 mov	 DWORD PTR __Tmp$11[ebp+4], esi

; 87   :         _Myoff += _Off;

  0083d	8d 0c 3e	 lea	 ecx, DWORD PTR [esi+edi]

; 206  :         _Deque_unchecked_iterator _Tmp = *this;

  00840	89 b5 10 e8 ff
	ff		 mov	 DWORD PTR __Tmp$10[ebp+4], esi

; 548  :         return (_Off / _DEQUESIZ) & (_Mapsize - 1);

  00846	23 c8		 and	 ecx, eax
; File D:\Metin2 Server Files\mainline\SRC_2014\Metin2Client\GameLib\WeaponTrace.cpp

; 210  : 				D3DXVECTOR3 v3Tmp = Input[base+1].second-Input[base].second;

  00848	8b 42 04	 mov	 eax, DWORD PTR [edx+4]
  0084b	8b 14 88	 mov	 edx, DWORD PTR [eax+ecx*4]
; File C:\Program Files (x86)\Microsoft Visual Studio\2019\Community\VC\Tools\MSVC\14.28.29333\include\deque

; 87   :         _Myoff += _Off;

  0084e	8d 4e 01	 lea	 ecx, DWORD PTR [esi+1]

; 548  :         return (_Off / _DEQUESIZ) & (_Mapsize - 1);

  00851	8b 85 70 e8 ff
	ff		 mov	 eax, DWORD PTR __Tmp$1$[ebp]

; 87   :         _Myoff += _Off;

  00857	03 cf		 add	 ecx, edi

; 548  :         return (_Off / _DEQUESIZ) & (_Mapsize - 1);

  00859	8b 40 08	 mov	 eax, DWORD PTR [eax+8]
  0085c	48		 dec	 eax
  0085d	23 c8		 and	 ecx, eax
; File D:\Metin2 Server Files\mainline\SRC_2014\Metin2Client\GameLib\WeaponTrace.cpp

; 210  : 				D3DXVECTOR3 v3Tmp = Input[base+1].second-Input[base].second;

  0085f	8b 85 70 e8 ff
	ff		 mov	 eax, DWORD PTR __Tmp$1$[ebp]
  00865	8b 40 04	 mov	 eax, DWORD PTR [eax+4]
  00868	8b 04 88	 mov	 eax, DWORD PTR [eax+ecx*4]
; File C:\Program Files (x86)\Microsoft Visual Studio\2019\Community\VC\Tools\MSVC\14.28.29333\include\deque

; 87   :         _Myoff += _Off;

  0086b	8d 0c 3e	 lea	 ecx, DWORD PTR [esi+edi]
; File D:\Metin2 Server Files\mainline\SRC_2014\M2Data\include\d3dx8math.inl

; 263  :     return D3DXVECTOR3(x - v.x, y - v.y, z - v.z);

  0086e	f3 0f 10 40 04	 movss	 xmm0, DWORD PTR [eax+4]
  00873	f3 0f 5c 42 04	 subss	 xmm0, DWORD PTR [edx+4]
  00878	f3 0f 11 85 7c
	e8 ff ff	 movss	 DWORD PTR tv7483[ebp], xmm0
  00880	f3 0f 10 40 08	 movss	 xmm0, DWORD PTR [eax+8]
  00885	f3 0f 5c 42 08	 subss	 xmm0, DWORD PTR [edx+8]

; 182  :     z = fz;

  0088a	f3 0f 10 b5 7c
	e8 ff ff	 movss	 xmm6, DWORD PTR tv7483[ebp]
  00892	f3 0f 59 35 00
	00 00 00	 mulss	 xmm6, DWORD PTR __real@40400000

; 263  :     return D3DXVECTOR3(x - v.x, y - v.y, z - v.z);

  0089a	f3 0f 11 85 20
	e8 ff ff	 movss	 DWORD PTR tv7485[ebp], xmm0
  008a2	f3 0f 10 40 0c	 movss	 xmm0, DWORD PTR [eax+12]
  008a7	f3 0f 5c 42 0c	 subss	 xmm0, DWORD PTR [edx+12]
; File C:\Program Files (x86)\Microsoft Visual Studio\2019\Community\VC\Tools\MSVC\14.28.29333\include\deque

; 548  :         return (_Off / _DEQUESIZ) & (_Mapsize - 1);

  008ac	8b 95 70 e8 ff
	ff		 mov	 edx, DWORD PTR __Tmp$1$[ebp]
  008b2	8b 42 08	 mov	 eax, DWORD PTR [edx+8]
  008b5	48		 dec	 eax
; File D:\Metin2 Server Files\mainline\SRC_2014\M2Data\include\d3dx8math.inl

; 263  :     return D3DXVECTOR3(x - v.x, y - v.y, z - v.z);

  008b6	f3 0f 11 85 3c
	e8 ff ff	 movss	 DWORD PTR tv7488[ebp], xmm0
; File C:\Program Files (x86)\Microsoft Visual Studio\2019\Community\VC\Tools\MSVC\14.28.29333\include\deque

; 548  :         return (_Off / _DEQUESIZ) & (_Mapsize - 1);

  008be	23 c8		 and	 ecx, eax
; File D:\Metin2 Server Files\mainline\SRC_2014\Metin2Client\GameLib\WeaponTrace.cpp

; 211  : 				a = Input[base].second;

  008c0	8b 42 04	 mov	 eax, DWORD PTR [edx+4]
  008c3	8b 04 88	 mov	 eax, DWORD PTR [eax+ecx*4]

; 212  : 				b = r[base];

  008c6	8b 8d 40 e8 ff
	ff		 mov	 ecx, DWORD PTR tv7627[ebp]
  008cc	f3 0f 7e 40 04	 movq	 xmm0, QWORD PTR [eax+4]
; File D:\Metin2 Server Files\mainline\SRC_2014\M2Data\include\d3dx8math.inl

; 269  :     return D3DXVECTOR3(x * f, y * f, z * f);

  008d1	f3 0f 10 49 08	 movss	 xmm1, DWORD PTR [ecx+8]
  008d6	f3 0f 11 8d 64
	e8 ff ff	 movss	 DWORD PTR _d$2$sroa$2677$1$[ebp], xmm1
  008de	f3 0f 10 49 0c	 movss	 xmm1, DWORD PTR [ecx+12]
  008e3	f3 0f 11 8d 60
	e8 ff ff	 movss	 DWORD PTR _d$2$sroa$2676$1$[ebp], xmm1
; File D:\Metin2 Server Files\mainline\SRC_2014\Metin2Client\GameLib\WeaponTrace.cpp

; 213  : 				c = ( 3*v3Tmp - r[base+1]*h[base] - (2*h[base])*r[base] )

  008eb	f3 0f 10 0d 00
	00 00 00	 movss	 xmm1, DWORD PTR __real@3f800000
  008f3	66 0f d6 85 f4
	e7 ff ff	 movq	 QWORD PTR _a$8[ebp], xmm0
  008fb	f3 0f 7e 41 f8	 movq	 xmm0, QWORD PTR [ecx-8]
  00900	f3 0f 5e ca	 divss	 xmm1, xmm2
  00904	8b 40 0c	 mov	 eax, DWORD PTR [eax+12]
  00907	89 85 fc e7 ff
	ff		 mov	 DWORD PTR _a$8[ebp+8], eax
  0090d	8b 01		 mov	 eax, DWORD PTR [ecx]
  0090f	89 85 08 e8 ff
	ff		 mov	 DWORD PTR _b$9[ebp+8], eax
  00915	66 0f d6 85 00
	e8 ff ff	 movq	 QWORD PTR _b$9[ebp], xmm0
; File D:\Metin2 Server Files\mainline\SRC_2014\M2Data\include\d3dx8math.inl

; 269  :     return D3DXVECTOR3(x * f, y * f, z * f);

  0091d	f3 0f 10 41 04	 movss	 xmm0, DWORD PTR [ecx+4]
  00922	f3 0f 11 85 58
	e8 ff ff	 movss	 DWORD PTR _d$2$sroa$2678$1$[ebp], xmm0
  0092a	f3 0f 59 c7	 mulss	 xmm0, xmm7

; 182  :     z = fz;

  0092e	f3 0f 5c f0	 subss	 xmm6, xmm0

; 283  :     return D3DXVECTOR3(f * v.x, f * v.y, f * v.z);

  00932	f3 0f 10 41 f8	 movss	 xmm0, DWORD PTR [ecx-8]
  00937	f3 0f 59 c3	 mulss	 xmm0, xmm3

; 182  :     z = fz;

  0093b	f3 0f 5c f0	 subss	 xmm6, xmm0
; File D:\Metin2 Server Files\mainline\SRC_2014\Metin2Client\GameLib\WeaponTrace.cpp

; 213  : 				c = ( 3*v3Tmp - r[base+1]*h[base] - (2*h[base])*r[base] )

  0093f	0f 28 c6	 movaps	 xmm0, xmm6
; File D:\Metin2 Server Files\mainline\SRC_2014\M2Data\include\d3dx8math.inl

; 182  :     z = fz;

  00942	f3 0f 11 b5 74
	e8 ff ff	 movss	 DWORD PTR _c$1$sroa$2800$1$[ebp], xmm6

; 180  :     x = fx;

  0094a	f3 0f 10 b5 20
	e8 ff ff	 movss	 xmm6, DWORD PTR tv7485[ebp]
  00952	f3 0f 59 35 00
	00 00 00	 mulss	 xmm6, DWORD PTR __real@40400000
; File D:\Metin2 Server Files\mainline\SRC_2014\Metin2Client\GameLib\WeaponTrace.cpp

; 213  : 				c = ( 3*v3Tmp - r[base+1]*h[base] - (2*h[base])*r[base] )

  0095a	f3 0f 59 c1	 mulss	 xmm0, xmm1
  0095e	f3 0f 11 85 74
	e8 ff ff	 movss	 DWORD PTR _c$1$sroa$2800$1$[ebp], xmm0
; File D:\Metin2 Server Files\mainline\SRC_2014\M2Data\include\d3dx8math.inl

; 269  :     return D3DXVECTOR3(x * f, y * f, z * f);

  00966	f3 0f 10 85 64
	e8 ff ff	 movss	 xmm0, DWORD PTR _d$2$sroa$2677$1$[ebp]
  0096e	f3 0f 59 c7	 mulss	 xmm0, xmm7

; 180  :     x = fx;

  00972	f3 0f 5c f0	 subss	 xmm6, xmm0

; 283  :     return D3DXVECTOR3(f * v.x, f * v.y, f * v.z);

  00976	f3 0f 10 41 fc	 movss	 xmm0, DWORD PTR [ecx-4]
  0097b	f3 0f 59 c3	 mulss	 xmm0, xmm3

; 180  :     x = fx;

  0097f	f3 0f 5c f0	 subss	 xmm6, xmm0
  00983	f3 0f 59 f1	 mulss	 xmm6, xmm1
  00987	f3 0f 11 b5 10
	e8 ff ff	 movss	 DWORD PTR _c$1$sroa$2681$1$[ebp], xmm6

; 181  :     y = fy;

  0098f	f3 0f 10 b5 3c
	e8 ff ff	 movss	 xmm6, DWORD PTR tv7488[ebp]
  00997	f3 0f 59 35 00
	00 00 00	 mulss	 xmm6, DWORD PTR __real@40400000

; 269  :     return D3DXVECTOR3(x * f, y * f, z * f);

  0099f	f3 0f 10 85 60
	e8 ff ff	 movss	 xmm0, DWORD PTR _d$2$sroa$2676$1$[ebp]
  009a7	f3 0f 59 c7	 mulss	 xmm0, xmm7

; 182  :     z = fz;

  009ab	f3 0f 10 25 00
	00 00 00	 movss	 xmm4, DWORD PTR __real@c0000000
; File D:\Metin2 Server Files\mainline\SRC_2014\Metin2Client\GameLib\WeaponTrace.cpp

; 215  : 				d = ( -2*v3Tmp + (r[base+1]+r[base])*h[base])

  009b3	f3 0f 59 d7	 mulss	 xmm2, xmm7
; File D:\Metin2 Server Files\mainline\SRC_2014\M2Data\include\d3dx8math.inl

; 181  :     y = fy;

  009b7	f3 0f 5c f0	 subss	 xmm6, xmm0
; File D:\Metin2 Server Files\mainline\SRC_2014\Metin2Client\GameLib\WeaponTrace.cpp

; 218  : 				timenext+=h[base];

  009bb	f3 0f 10 ad 6c
	e8 ff ff	 movss	 xmm5, DWORD PTR _timenext$1$[ebp]
; File D:\Metin2 Server Files\mainline\SRC_2014\M2Data\include\d3dx8math.inl

; 283  :     return D3DXVECTOR3(f * v.x, f * v.y, f * v.z);

  009c3	f3 0f 10 01	 movss	 xmm0, DWORD PTR [ecx]
; File D:\Metin2 Server Files\mainline\SRC_2014\Metin2Client\GameLib\WeaponTrace.cpp

; 218  : 				timenext+=h[base];

  009c7	f3 0f 58 ef	 addss	 xmm5, xmm7
; File D:\Metin2 Server Files\mainline\SRC_2014\M2Data\include\d3dx8math.inl

; 283  :     return D3DXVECTOR3(f * v.x, f * v.y, f * v.z);

  009cb	f3 0f 59 c3	 mulss	 xmm0, xmm3

; 181  :     y = fy;

  009cf	0f 28 de	 movaps	 xmm3, xmm6
  009d2	f3 0f 11 b5 5c
	e8 ff ff	 movss	 DWORD PTR _c$1$sroa$2679$1$[ebp], xmm6
  009da	f3 0f 5c d8	 subss	 xmm3, xmm0
; File D:\Metin2 Server Files\mainline\SRC_2014\Metin2Client\GameLib\WeaponTrace.cpp

; 218  : 				timenext+=h[base];

  009de	f3 0f 11 ad 6c
	e8 ff ff	 movss	 DWORD PTR _timenext$1$[ebp], xmm5
  009e6	f3 0f 10 05 00
	00 00 00	 movss	 xmm0, DWORD PTR __real@3f800000
  009ee	f3 0f 5e c2	 divss	 xmm0, xmm2
; File D:\Metin2 Server Files\mainline\SRC_2014\M2Data\include\d3dx8math.inl

; 181  :     y = fy;

  009f2	f3 0f 59 d9	 mulss	 xmm3, xmm1

; 182  :     z = fz;

  009f6	f3 0f 10 8d 7c
	e8 ff ff	 movss	 xmm1, DWORD PTR tv7483[ebp]
  009fe	f3 0f 59 cc	 mulss	 xmm1, xmm4

; 181  :     y = fy;

  00a02	f3 0f 11 9d 5c
	e8 ff ff	 movss	 DWORD PTR _c$1$sroa$2679$1$[ebp], xmm3

; 257  :     return D3DXVECTOR3(x + v.x, y + v.y, z + v.z);

  00a0a	f3 0f 10 9d 58
	e8 ff ff	 movss	 xmm3, DWORD PTR _d$2$sroa$2678$1$[ebp]
  00a12	f3 0f 58 59 f8	 addss	 xmm3, DWORD PTR [ecx-8]
; File D:\Metin2 Server Files\mainline\SRC_2014\Metin2Client\GameLib\WeaponTrace.cpp

; 215  : 				d = ( -2*v3Tmp + (r[base+1]+r[base])*h[base])

  00a17	f3 0f 59 df	 mulss	 xmm3, xmm7
; File D:\Metin2 Server Files\mainline\SRC_2014\M2Data\include\d3dx8math.inl

; 182  :     z = fz;

  00a1b	f3 0f 58 d9	 addss	 xmm3, xmm1
  00a1f	f3 0f 10 8d 20
	e8 ff ff	 movss	 xmm1, DWORD PTR tv7485[ebp]
  00a27	f3 0f 59 cc	 mulss	 xmm1, xmm4
; File D:\Metin2 Server Files\mainline\SRC_2014\Metin2Client\GameLib\WeaponTrace.cpp

; 215  : 				d = ( -2*v3Tmp + (r[base+1]+r[base])*h[base])

  00a2b	f3 0f 59 d8	 mulss	 xmm3, xmm0
  00a2f	f3 0f 11 9d 58
	e8 ff ff	 movss	 DWORD PTR _d$2$sroa$2678$1$[ebp], xmm3
; File D:\Metin2 Server Files\mainline\SRC_2014\M2Data\include\d3dx8math.inl

; 257  :     return D3DXVECTOR3(x + v.x, y + v.y, z + v.z);

  00a37	f3 0f 10 9d 64
	e8 ff ff	 movss	 xmm3, DWORD PTR _d$2$sroa$2677$1$[ebp]
  00a3f	f3 0f 58 59 fc	 addss	 xmm3, DWORD PTR [ecx-4]

; 180  :     x = fx;

  00a44	f3 0f 59 df	 mulss	 xmm3, xmm7
  00a48	f3 0f 58 d9	 addss	 xmm3, xmm1

; 181  :     y = fy;

  00a4c	f3 0f 10 8d 3c
	e8 ff ff	 movss	 xmm1, DWORD PTR tv7488[ebp]
  00a54	f3 0f 59 cc	 mulss	 xmm1, xmm4

; 180  :     x = fx;

  00a58	f3 0f 59 d8	 mulss	 xmm3, xmm0
  00a5c	f3 0f 11 9d 64
	e8 ff ff	 movss	 DWORD PTR _d$2$sroa$2677$1$[ebp], xmm3

; 257  :     return D3DXVECTOR3(x + v.x, y + v.y, z + v.z);

  00a64	f3 0f 10 9d 60
	e8 ff ff	 movss	 xmm3, DWORD PTR _d$2$sroa$2676$1$[ebp]
  00a6c	f3 0f 58 19	 addss	 xmm3, DWORD PTR [ecx]

; 181  :     y = fy;

  00a70	f3 0f 59 df	 mulss	 xmm3, xmm7
  00a74	f3 0f 58 d9	 addss	 xmm3, xmm1
; File D:\Metin2 Server Files\mainline\SRC_2014\Metin2Client\GameLib\WeaponTrace.cpp

; 205  : 			while (t>timenext)

  00a78	f3 0f 10 8d 68
	e8 ff ff	 movss	 xmm1, DWORD PTR _t$1$[ebp]
  00a80	0f 2f cd	 comiss	 xmm1, xmm5
; File D:\Metin2 Server Files\mainline\SRC_2014\M2Data\include\d3dx8math.inl

; 181  :     y = fy;

  00a83	f3 0f 59 d8	 mulss	 xmm3, xmm0
  00a87	f3 0f 11 9d 60
	e8 ff ff	 movss	 DWORD PTR _d$2$sroa$2676$1$[ebp], xmm3
; File D:\Metin2 Server Files\mainline\SRC_2014\Metin2Client\GameLib\WeaponTrace.cpp

; 205  : 			while (t>timenext)

  00a8f	0f 87 5b fd ff
	ff		 ja	 $LL20@BuildVerte
$LN689@BuildVerte:
  00a95	f3 0f 10 35 00
	00 00 00	 movss	 xmm6, DWORD PTR __real@3f800000
  00a9d	f3 0f 10 bd 50
	e8 ff ff	 movss	 xmm7, DWORD PTR $T16[ebp]
$LN688@BuildVerte:

; 219  : 				if (loop) 
; 220  : 				{
; 221  : 					//Tracef("%f:%f %f %f\n",Input[base].first,Input[base].second.x,Input[base].second.y,Input[base].second.z);
; 222  : 				}
; 223  : 			}
; 224  : 			if (base>n) break;

  00aa5	3b bd 48 e8 ff
	ff		 cmp	 edi, DWORD PTR _n$1$[ebp]
  00aab	0f 8f 98 02 00
	00		 jg	 $LN2@BuildVerte
; File C:\Program Files (x86)\Microsoft Visual Studio\2019\Community\VC\Tools\MSVC\14.28.29333\include\deque

; 52   :         : _Mycont(static_cast<const _Mydeque*>(_Pdeque)), _Myoff(_Off) {}

  00ab1	8b 85 18 e8 ff
	ff		 mov	 eax, DWORD PTR tv7675[ebp]
; File D:\Metin2 Server Files\mainline\SRC_2014\Metin2Client\GameLib\WeaponTrace.cpp

; 225  : 			float cc = t - timebase;

  00ab7	0f 28 d9	 movaps	 xmm3, xmm1
; File C:\Program Files (x86)\Microsoft Visual Studio\2019\Community\VC\Tools\MSVC\14.28.29333\include\deque

; 548  :         return (_Off / _DEQUESIZ) & (_Mapsize - 1);

  00aba	8b 72 08	 mov	 esi, DWORD PTR [edx+8]
  00abd	4e		 dec	 esi
; File D:\Metin2 Server Files\mainline\SRC_2014\Metin2Client\GameLib\WeaponTrace.cpp

; 225  : 			float cc = t - timebase;

  00abe	f3 0f 5c 9d 14
	e8 ff ff	 subss	 xmm3, DWORD PTR _timebase$1$[ebp]
; File C:\Program Files (x86)\Microsoft Visual Studio\2019\Community\VC\Tools\MSVC\14.28.29333\include\deque

; 52   :         : _Mycont(static_cast<const _Mydeque*>(_Pdeque)), _Myoff(_Off) {}

  00ac6	8b 08		 mov	 ecx, DWORD PTR [eax]

; 57   :         return _Mycont->_Map[_Block][_Off];

  00ac8	8b 42 04	 mov	 eax, DWORD PTR [edx+4]
  00acb	89 85 7c e8 ff
	ff		 mov	 DWORD PTR tv7624[ebp], eax
; File D:\Metin2 Server Files\mainline\SRC_2014\Metin2Client\GameLib\WeaponTrace.cpp

; 229  : 			float ttt = min(max((t+Input[0].first)/m_fLifeTime,0.0f),1.0f);

  00ad1	8b 85 78 e8 ff
	ff		 mov	 eax, DWORD PTR _this$GSCopy$1$[ebp]
  00ad7	8b 95 7c e8 ff
	ff		 mov	 edx, DWORD PTR tv7624[ebp]
  00add	f3 0f 11 9d 40
	e8 ff ff	 movss	 DWORD PTR _cc$1$[ebp], xmm3
  00ae5	f3 0f 10 60 3c	 movss	 xmm4, DWORD PTR [eax+60]
; File C:\Program Files (x86)\Microsoft Visual Studio\2019\Community\VC\Tools\MSVC\14.28.29333\include\deque

; 207  :         return _Tmp += _Off;

  00aea	8b c1		 mov	 eax, ecx

; 548  :         return (_Off / _DEQUESIZ) & (_Mapsize - 1);

  00aec	23 c6		 and	 eax, esi
; File D:\Metin2 Server Files\mainline\SRC_2014\Metin2Client\GameLib\WeaponTrace.cpp

; 229  : 			float ttt = min(max((t+Input[0].first)/m_fLifeTime,0.0f),1.0f);

  00aee	f3 0f 11 a5 3c
	e8 ff ff	 movss	 DWORD PTR tv7576[ebp], xmm4
  00af6	8b 04 82	 mov	 eax, DWORD PTR [edx+eax*4]
  00af9	f3 0f 10 00	 movss	 xmm0, DWORD PTR [eax]
  00afd	f3 0f 58 c1	 addss	 xmm0, xmm1
  00b01	f3 0f 5e c4	 divss	 xmm0, xmm4
  00b05	0f 2f c7	 comiss	 xmm0, xmm7
  00b08	76 1d		 jbe	 SHORT $LN686@BuildVerte
; File C:\Program Files (x86)\Microsoft Visual Studio\2019\Community\VC\Tools\MSVC\14.28.29333\include\deque

; 207  :         return _Tmp += _Off;

  00b0a	8b c1		 mov	 eax, ecx

; 548  :         return (_Off / _DEQUESIZ) & (_Mapsize - 1);

  00b0c	23 c6		 and	 eax, esi
; File D:\Metin2 Server Files\mainline\SRC_2014\Metin2Client\GameLib\WeaponTrace.cpp

; 229  : 			float ttt = min(max((t+Input[0].first)/m_fLifeTime,0.0f),1.0f);

  00b0e	8b 04 82	 mov	 eax, DWORD PTR [edx+eax*4]
  00b11	f3 0f 10 00	 movss	 xmm0, DWORD PTR [eax]
  00b15	f3 0f 58 c1	 addss	 xmm0, xmm1
  00b19	f3 0f 5e c4	 divss	 xmm0, xmm4
  00b1d	0f 2f f0	 comiss	 xmm6, xmm0
  00b20	77 05		 ja	 SHORT $LN686@BuildVerte
  00b22	0f 28 d6	 movaps	 xmm2, xmm6
  00b25	eb 3d		 jmp	 SHORT $LN40@BuildVerte
$LN686@BuildVerte:
  00b27	8b 95 7c e8 ff
	ff		 mov	 edx, DWORD PTR tv7624[ebp]
; File C:\Program Files (x86)\Microsoft Visual Studio\2019\Community\VC\Tools\MSVC\14.28.29333\include\deque

; 207  :         return _Tmp += _Off;

  00b2d	8b c1		 mov	 eax, ecx

; 548  :         return (_Off / _DEQUESIZ) & (_Mapsize - 1);

  00b2f	23 c6		 and	 eax, esi
; File D:\Metin2 Server Files\mainline\SRC_2014\Metin2Client\GameLib\WeaponTrace.cpp

; 229  : 			float ttt = min(max((t+Input[0].first)/m_fLifeTime,0.0f),1.0f);

  00b31	8b 04 82	 mov	 eax, DWORD PTR [edx+eax*4]
  00b34	8b 95 70 e8 ff
	ff		 mov	 edx, DWORD PTR __Tmp$1$[ebp]
  00b3a	f3 0f 10 00	 movss	 xmm0, DWORD PTR [eax]
  00b3e	f3 0f 58 c1	 addss	 xmm0, xmm1
  00b42	f3 0f 5e c4	 divss	 xmm0, xmm4
  00b46	0f 2f c7	 comiss	 xmm0, xmm7
  00b49	76 16		 jbe	 SHORT $LN37@BuildVerte
  00b4b	8b 42 04	 mov	 eax, DWORD PTR [edx+4]
; File C:\Program Files (x86)\Microsoft Visual Studio\2019\Community\VC\Tools\MSVC\14.28.29333\include\deque

; 548  :         return (_Off / _DEQUESIZ) & (_Mapsize - 1);

  00b4e	23 ce		 and	 ecx, esi
; File D:\Metin2 Server Files\mainline\SRC_2014\Metin2Client\GameLib\WeaponTrace.cpp

; 229  : 			float ttt = min(max((t+Input[0].first)/m_fLifeTime,0.0f),1.0f);

  00b50	8b 04 88	 mov	 eax, DWORD PTR [eax+ecx*4]
  00b53	f3 0f 10 10	 movss	 xmm2, DWORD PTR [eax]
  00b57	f3 0f 58 d1	 addss	 xmm2, xmm1
  00b5b	f3 0f 5e d4	 divss	 xmm2, xmm4
  00b5f	eb 03		 jmp	 SHORT $LN40@BuildVerte
$LN37@BuildVerte:
  00b61	0f 28 d7	 movaps	 xmm2, xmm7
$LN40@BuildVerte:

; 230  : 			v.diffuse = D3DXCOLOR(0.3f,0.8f,1.0f, (loop)?min(max((1.0f-ttt)*(1.0f-ttt)/2.5-0.1f,0.0f),1.0f):0.0f );

  00b64	8b b5 4c e8 ff
	ff		 mov	 esi, DWORD PTR _loop$1$[ebp]
  00b6a	85 f6		 test	 esi, esi
  00b6c	74 39		 je	 SHORT $LN47@BuildVerte
  00b6e	0f 28 c6	 movaps	 xmm0, xmm6
  00b71	f2 0f 10 8d d4
	e7 ff ff	 movsd	 xmm1, QWORD PTR __real@3ff0000000000000$1$[ebp]
  00b79	f3 0f 5c c2	 subss	 xmm0, xmm2
  00b7d	f3 0f 59 c0	 mulss	 xmm0, xmm0
  00b81	0f 5a c0	 cvtps2pd xmm0, xmm0
  00b84	f2 0f 5e 85 ac
	e7 ff ff	 divsd	 xmm0, QWORD PTR __real@4004000000000000$1$[ebp]
  00b8c	f2 0f 5c 85 a4
	e7 ff ff	 subsd	 xmm0, QWORD PTR __real@3fb99999a0000000$1$[ebp]
  00b94	f2 0f 5f 85 cc
	e7 ff ff	 maxsd	 xmm0, QWORD PTR __real@0000000000000000$1$[ebp]
  00b9c	66 0f 2f c8	 comisd	 xmm1, xmm0
  00ba0	77 0d		 ja	 SHORT $LN48@BuildVerte
  00ba2	0f 28 c1	 movaps	 xmm0, xmm1
  00ba5	eb 08		 jmp	 SHORT $LN48@BuildVerte
$LN47@BuildVerte:
  00ba7	f2 0f 10 85 cc
	e7 ff ff	 movsd	 xmm0, QWORD PTR __real@0000000000000000$1$[ebp]
$LN48@BuildVerte:
  00baf	66 0f 5a c0	 cvtpd2ps xmm0, xmm0
; File D:\Metin2 Server Files\mainline\SRC_2014\M2Data\include\d3dx8math.inl

; 934  :     DWORD dwA = a >= 1.0f ? 0xff : a <= 0.0f ? 0x00 : (DWORD) (a * 255.0f + 0.5f);

  00bb3	0f 2f c6	 comiss	 xmm0, xmm6
  00bb6	72 07		 jb	 SHORT $LN543@BuildVerte
  00bb8	b9 ff 00 00 00	 mov	 ecx, 255		; 000000ffH
  00bbd	eb 30		 jmp	 SHORT $LN542@BuildVerte
$LN543@BuildVerte:
  00bbf	0f 2f f8	 comiss	 xmm7, xmm0
  00bc2	72 04		 jb	 SHORT $LN541@BuildVerte
  00bc4	33 c9		 xor	 ecx, ecx
  00bc6	eb 27		 jmp	 SHORT $LN542@BuildVerte
$LN541@BuildVerte:
  00bc8	f3 0f 59 05 00
	00 00 00	 mulss	 xmm0, DWORD PTR __real@437f0000
  00bd0	f3 0f 58 05 00
	00 00 00	 addss	 xmm0, DWORD PTR __real@3f000000
  00bd8	e8 00 00 00 00	 call	 __ftoui3
  00bdd	f3 0f 10 9d 40
	e8 ff ff	 movss	 xmm3, DWORD PTR _cc$1$[ebp]
  00be5	8b c8		 mov	 ecx, eax
  00be7	f3 0f 10 a5 3c
	e8 ff ff	 movss	 xmm4, DWORD PTR tv7576[ebp]
$LN542@BuildVerte:

; 283  :     return D3DXVECTOR3(f * v.x, f * v.y, f * v.z);

  00bef	f3 0f 10 85 58
	e8 ff ff	 movss	 xmm0, DWORD PTR _d$2$sroa$2678$1$[ebp]
; File D:\Metin2 Server Files\mainline\SRC_2014\Metin2Client\GameLib\WeaponTrace.cpp

; 235  : 			v.texCoord.y = loop ? 0 : 1;

  00bf7	33 c0		 xor	 eax, eax
; File D:\Metin2 Server Files\mainline\SRC_2014\M2Data\include\d3dx8math.inl

; 283  :     return D3DXVECTOR3(f * v.x, f * v.y, f * v.z);

  00bf9	f3 0f 10 8d 64
	e8 ff ff	 movss	 xmm1, DWORD PTR _d$2$sroa$2677$1$[ebp]
  00c01	f3 0f 10 95 60
	e8 ff ff	 movss	 xmm2, DWORD PTR _d$2$sroa$2676$1$[ebp]
  00c09	f3 0f 59 c3	 mulss	 xmm0, xmm3
; File C:\Program Files (x86)\Microsoft Visual Studio\2019\Community\VC\Tools\MSVC\14.28.29333\include\vector

; 704  :         if (_Mylast != _My_data._Myend) {

  00c0d	8b 95 dc e7 ff
	ff		 mov	 edx, DWORD PTR _Output$1$[ebp]
; File D:\Metin2 Server Files\mainline\SRC_2014\M2Data\include\d3dx8math.inl

; 283  :     return D3DXVECTOR3(f * v.x, f * v.y, f * v.z);

  00c13	f3 0f 59 cb	 mulss	 xmm1, xmm3

; 936  :     return (dwA << 24) | (dwR << 16) | (dwG << 8) | dwB;

  00c17	c1 e1 18	 shl	 ecx, 24			; 00000018H

; 182  :     z = fz;

  00c1a	f3 0f 58 85 74
	e8 ff ff	 addss	 xmm0, DWORD PTR _c$1$sroa$2800$1$[ebp]

; 283  :     return D3DXVECTOR3(f * v.x, f * v.y, f * v.z);

  00c22	f3 0f 59 d3	 mulss	 xmm2, xmm3

; 936  :     return (dwA << 24) | (dwR << 16) | (dwG << 8) | dwB;

  00c26	81 c9 ff cc 4d
	00		 or	 ecx, 5098751		; 004dccffH
; File D:\Metin2 Server Files\mainline\SRC_2014\Metin2Client\GameLib\WeaponTrace.cpp

; 235  : 			v.texCoord.y = loop ? 0 : 1;

  00c2c	85 f6		 test	 esi, esi
  00c2e	89 8d c0 e7 ff
	ff		 mov	 DWORD PTR _v$7[ebp+12], ecx
; File D:\Metin2 Server Files\mainline\SRC_2014\M2Data\include\d3dx8math.inl

; 180  :     x = fx;

  00c34	f3 0f 58 8d 10
	e8 ff ff	 addss	 xmm1, DWORD PTR _c$1$sroa$2681$1$[ebp]
; File D:\Metin2 Server Files\mainline\SRC_2014\Metin2Client\GameLib\WeaponTrace.cpp

; 235  : 			v.texCoord.y = loop ? 0 : 1;

  00c3c	0f 94 c0	 sete	 al
; File D:\Metin2 Server Files\mainline\SRC_2014\M2Data\include\d3dx8math.inl

; 181  :     y = fy;

  00c3f	f3 0f 58 95 5c
	e8 ff ff	 addss	 xmm2, DWORD PTR _c$1$sroa$2679$1$[ebp]

; 182  :     z = fz;

  00c47	f3 0f 59 c3	 mulss	 xmm0, xmm3

; 180  :     x = fx;

  00c4b	f3 0f 59 cb	 mulss	 xmm1, xmm3

; 182  :     z = fz;

  00c4f	f3 0f 58 85 00
	e8 ff ff	 addss	 xmm0, DWORD PTR _b$9[ebp]
  00c57	f3 0f 59 d3	 mulss	 xmm2, xmm3

; 180  :     x = fx;

  00c5b	f3 0f 58 8d 04
	e8 ff ff	 addss	 xmm1, DWORD PTR _b$9[ebp+4]

; 181  :     y = fy;

  00c63	f3 0f 58 95 08
	e8 ff ff	 addss	 xmm2, DWORD PTR _b$9[ebp+8]

; 182  :     z = fz;

  00c6b	f3 0f 59 c3	 mulss	 xmm0, xmm3

; 180  :     x = fx;

  00c6f	f3 0f 59 cb	 mulss	 xmm1, xmm3

; 181  :     y = fy;

  00c73	f3 0f 59 d3	 mulss	 xmm2, xmm3
; File D:\Metin2 Server Files\mainline\SRC_2014\Metin2Client\GameLib\WeaponTrace.cpp

; 234  : 			v.texCoord.x = t/m_fLifeTime;

  00c77	f3 0f 10 9d 68
	e8 ff ff	 movss	 xmm3, DWORD PTR _t$1$[ebp]
; File D:\Metin2 Server Files\mainline\SRC_2014\M2Data\include\d3dx8math.inl

; 182  :     z = fz;

  00c7f	f3 0f 58 85 f4
	e7 ff ff	 addss	 xmm0, DWORD PTR _a$8[ebp]

; 180  :     x = fx;

  00c87	f3 0f 58 8d f8
	e7 ff ff	 addss	 xmm1, DWORD PTR _a$8[ebp+4]

; 181  :     y = fy;

  00c8f	f3 0f 58 95 fc
	e7 ff ff	 addss	 xmm2, DWORD PTR _a$8[ebp+8]
; File D:\Metin2 Server Files\mainline\SRC_2014\Metin2Client\GameLib\WeaponTrace.cpp

; 234  : 			v.texCoord.x = t/m_fLifeTime;

  00c97	f3 0f 5e dc	 divss	 xmm3, xmm4
  00c9b	0f 57 e4	 xorps	 xmm4, xmm4
  00c9e	f3 0f 11 85 b4
	e7 ff ff	 movss	 DWORD PTR _v$7[ebp], xmm0

; 235  : 			v.texCoord.y = loop ? 0 : 1;

  00ca6	f3 0f 2a e0	 cvtsi2ss xmm4, eax
; File C:\Program Files (x86)\Microsoft Visual Studio\2019\Community\VC\Tools\MSVC\14.28.29333\include\vector

; 704  :         if (_Mylast != _My_data._Myend) {

  00caa	8b 42 04	 mov	 eax, DWORD PTR [edx+4]
; File D:\Metin2 Server Files\mainline\SRC_2014\Metin2Client\GameLib\WeaponTrace.cpp

; 233  : 			v.position = a+cc*(b+cc*(c+cc*d));	// next position 

  00cad	f3 0f 11 8d b8
	e7 ff ff	 movss	 DWORD PTR _v$7[ebp+4], xmm1
  00cb5	f3 0f 11 95 bc
	e7 ff ff	 movss	 DWORD PTR _v$7[ebp+8], xmm2

; 234  : 			v.texCoord.x = t/m_fLifeTime;

  00cbd	f3 0f 11 9d c4
	e7 ff ff	 movss	 DWORD PTR _v$7[ebp+16], xmm3

; 235  : 			v.texCoord.y = loop ? 0 : 1;

  00cc5	f3 0f 11 a5 c8
	e7 ff ff	 movss	 DWORD PTR _v$7[ebp+20], xmm4
; File C:\Program Files (x86)\Microsoft Visual Studio\2019\Community\VC\Tools\MSVC\14.28.29333\include\vector

; 704  :         if (_Mylast != _My_data._Myend) {

  00ccd	3b 42 08	 cmp	 eax, DWORD PTR [edx+8]
  00cd0	74 21		 je	 SHORT $LN572@BuildVerte
; File C:\Program Files (x86)\Microsoft Visual Studio\2019\Community\VC\Tools\MSVC\14.28.29333\include\xmemory

; 701  :         ::new (const_cast<void*>(static_cast<const volatile void*>(_Ptr))) _Objty(_STD forward<_Types>(_Args)...);

  00cd2	f3 0f 11 00	 movss	 DWORD PTR [eax], xmm0
  00cd6	f3 0f 11 48 04	 movss	 DWORD PTR [eax+4], xmm1
  00cdb	f3 0f 11 50 08	 movss	 DWORD PTR [eax+8], xmm2
  00ce0	89 48 0c	 mov	 DWORD PTR [eax+12], ecx
  00ce3	f3 0f 11 58 10	 movss	 DWORD PTR [eax+16], xmm3
  00ce8	f3 0f 11 60 14	 movss	 DWORD PTR [eax+20], xmm4
; File C:\Program Files (x86)\Microsoft Visual Studio\2019\Community\VC\Tools\MSVC\14.28.29333\include\vector

; 690  :         ++_Mylast;

  00ced	83 42 04 18	 add	 DWORD PTR [edx+4], 24	; 00000018H

; 705  :             return _Emplace_back_with_unused_capacity(_STD forward<_Valty>(_Val)...);

  00cf1	eb 0f		 jmp	 SHORT $LN17@BuildVerte
$LN572@BuildVerte:

; 706  :         }
; 707  : 
; 708  :         _Ty& _Result = *_Emplace_reallocate(_Mylast, _STD forward<_Valty>(_Val)...);

  00cf3	8d 8d b4 e7 ff
	ff		 lea	 ecx, DWORD PTR _v$7[ebp]
  00cf9	51		 push	 ecx
  00cfa	50		 push	 eax
  00cfb	8b ca		 mov	 ecx, edx
  00cfd	e8 00 00 00 00	 call	 ??$_Emplace_reallocate@ABUSPDTVertex@@@?$vector@USPDTVertex@@V?$allocator@USPDTVertex@@@std@@@std@@QAEPAUSPDTVertex@@QAU2@ABU2@@Z ; std::vector<SPDTVertex,std::allocator<SPDTVertex> >::_Emplace_reallocate<SPDTVertex const &>
$LN17@BuildVerte:
; File D:\Metin2 Server Files\mainline\SRC_2014\Metin2Client\GameLib\WeaponTrace.cpp

; 203  : 		for(float t = 0; t<=length; t+=dt)

  00d02	f3 0f 10 8d 68
	e8 ff ff	 movss	 xmm1, DWORD PTR _t$1$[ebp]
  00d0a	f3 0f 58 8d 34
	e8 ff ff	 addss	 xmm1, DWORD PTR _dt$1$[ebp]
  00d12	f3 0f 10 95 44
	e8 ff ff	 movss	 xmm2, DWORD PTR _length$1$[ebp]
  00d1a	f3 0f 10 ad 6c
	e8 ff ff	 movss	 xmm5, DWORD PTR _timenext$1$[ebp]
  00d22	f3 0f 10 35 00
	00 00 00	 movss	 xmm6, DWORD PTR __real@3f800000
  00d2a	f3 0f 10 bd 50
	e8 ff ff	 movss	 xmm7, DWORD PTR $T16[ebp]
  00d32	0f 2f d1	 comiss	 xmm2, xmm1
  00d35	8b 95 70 e8 ff
	ff		 mov	 edx, DWORD PTR __Tmp$1$[ebp]
  00d3b	f3 0f 11 8d 68
	e8 ff ff	 movss	 DWORD PTR _t$1$[ebp], xmm1
  00d43	0f 83 87 fa ff
	ff		 jae	 $LL19@BuildVerte
$LN2@BuildVerte:

; 149  : 	
; 150  : 	int n = m_LongTimePointList.size()-1;
; 151  : 	assert(n<max_size-1);
; 152  : 
; 153  : 	// cubic spline
; 154  : 
; 155  : 	for(int loop = 0; loop<=1; ++loop)

  00d49	8b 95 4c e8 ff
	ff		 mov	 edx, DWORD PTR _loop$1$[ebp]
  00d4f	f3 0f 10 3d 00
	00 00 00	 movss	 xmm7, DWORD PTR __real@3f800000
  00d57	42		 inc	 edx
  00d58	f3 0f 10 a5 50
	e8 ff ff	 movss	 xmm4, DWORD PTR $T16[ebp]
  00d60	f3 0f 10 0d 00
	00 00 00	 movss	 xmm1, DWORD PTR __real@3f000000
  00d68	f3 0f 10 2d 00
	00 00 00	 movss	 xmm5, DWORD PTR __real@40800000
  00d70	8b 8d 48 e8 ff
	ff		 mov	 ecx, DWORD PTR _n$1$[ebp]
  00d76	89 95 4c e8 ff
	ff		 mov	 DWORD PTR _loop$1$[ebp], edx
  00d7c	83 fa 01	 cmp	 edx, 1
  00d7f	0f 8e fb f3 ff
	ff		 jle	 $LL4@BuildVerte

; 236  : 			Output.push_back(v);
; 237  : 			if (loop) 
; 238  : 			{
; 239  : 			//	Tracef("%f %f %f\n", timebase,t,timenext);
; 240  : 				//Tracef("a:%f %f %f\nb:%f %f %f \nc:%f %f %f \nd:%f %f %f, \n",,a.x,a.y,a.z,b.x,b.y,b.z,c.x,c.y,c.z,d.x,d.y,d.z);
; 241  : 				
; 242  : 				//Tracef("%f %f %f\n",v.position.x,v.position.y,v.position.z);
; 243  : 				/*D3DXMATRIX * pBoneMat;
; 244  : 				m_pInstance->GetBoneMatrix(m_dwModelInstanceIndex, 55, &pBoneMat);
; 245  : 				D3DXVECTOR3 vbone(m_fx+pBoneMat->_41,m_fy+pBoneMat->_42,m_fz+pBoneMat->_43);
; 246  : 				float len = D3DXVec3Length(&(v.position-vbone));*/
; 247  : 			}
; 248  : 		}
; 249  : 	}
; 250  : 
; 251  : 	// build vertex
; 252  : 
; 253  : 	m_PDTVertexVector.clear();

  00d85	8b bd 78 e8 ff
	ff		 mov	 edi, DWORD PTR _this$GSCopy$1$[ebp]

; 254  : 
; 255  : 	/*
; 256  : 	TTimePointList::iterator lit1,lit2, sit1,sit2;
; 257  : 	
; 258  : 	lit2 = lit1 = m_LongTimePointList.begin();
; 259  : 	++lit2;
; 260  : 	
; 261  : 	sit2 = sit1 = m_ShortTimePointList.begin();
; 262  : 	++sit2;
; 263  : 	*/
; 264  : 	std::vector<TPDTVertex>::iterator lit,sit;
; 265  : 	for(lit = m_LongVertexVector.begin(), sit = m_ShortVertexVector.begin();

  00d8b	8b 95 24 e8 ff
	ff		 mov	 edx, DWORD PTR _m_LongVertexVector$[ebp]
  00d91	8b f2		 mov	 esi, edx
  00d93	8b 47 30	 mov	 eax, DWORD PTR [edi+48]
  00d96	89 47 34	 mov	 DWORD PTR [edi+52], eax
  00d99	3b b5 28 e8 ff
	ff		 cmp	 esi, DWORD PTR _m_LongVertexVector$[ebp+4]

; 266  : 		lit != m_LongVertexVector.end();

  00d9f	74 78		 je	 SHORT $LN23@BuildVerte
  00da1	8b 85 e8 e7 ff
	ff		 mov	 eax, DWORD PTR _m_ShortVertexVector$[ebp]
  00da7	2b c2		 sub	 eax, edx
  00da9	89 85 34 e8 ff
	ff		 mov	 DWORD PTR tv7679[ebp], eax
  00daf	90		 npad	 1
$LL605@BuildVerte:
; File C:\Program Files (x86)\Microsoft Visual Studio\2019\Community\VC\Tools\MSVC\14.28.29333\include\vector

; 704  :         if (_Mylast != _My_data._Myend) {

  00db0	8b 47 34	 mov	 eax, DWORD PTR [edi+52]
  00db3	3b 47 38	 cmp	 eax, DWORD PTR [edi+56]
  00db6	74 16		 je	 SHORT $LN619@BuildVerte
; File C:\Program Files (x86)\Microsoft Visual Studio\2019\Community\VC\Tools\MSVC\14.28.29333\include\xmemory

; 701  :         ::new (const_cast<void*>(static_cast<const volatile void*>(_Ptr))) _Objty(_STD forward<_Types>(_Args)...);

  00db8	0f 10 06	 movups	 xmm0, XMMWORD PTR [esi]
  00dbb	0f 11 00	 movups	 XMMWORD PTR [eax], xmm0
  00dbe	f3 0f 7e 46 10	 movq	 xmm0, QWORD PTR [esi+16]
  00dc3	66 0f d6 40 10	 movq	 QWORD PTR [eax+16], xmm0
; File C:\Program Files (x86)\Microsoft Visual Studio\2019\Community\VC\Tools\MSVC\14.28.29333\include\vector

; 690  :         ++_Mylast;

  00dc8	83 47 34 18	 add	 DWORD PTR [edi+52], 24	; 00000018H

; 705  :             return _Emplace_back_with_unused_capacity(_STD forward<_Valty>(_Val)...);

  00dcc	eb 0a		 jmp	 SHORT $LN692@BuildVerte
$LN619@BuildVerte:

; 706  :         }
; 707  : 
; 708  :         _Ty& _Result = *_Emplace_reallocate(_Mylast, _STD forward<_Valty>(_Val)...);

  00dce	56		 push	 esi
  00dcf	50		 push	 eax
  00dd0	8d 4f 30	 lea	 ecx, DWORD PTR [edi+48]
  00dd3	e8 00 00 00 00	 call	 ??$_Emplace_reallocate@ABUSPDTVertex@@@?$vector@USPDTVertex@@V?$allocator@USPDTVertex@@@std@@@std@@QAEPAUSPDTVertex@@QAU2@ABU2@@Z ; std::vector<SPDTVertex,std::allocator<SPDTVertex> >::_Emplace_reallocate<SPDTVertex const &>
$LN692@BuildVerte:

; 704  :         if (_Mylast != _My_data._Myend) {

  00dd8	8b 8d 34 e8 ff
	ff		 mov	 ecx, DWORD PTR tv7679[ebp]
  00dde	8b 47 34	 mov	 eax, DWORD PTR [edi+52]
  00de1	03 ce		 add	 ecx, esi
  00de3	3b 47 38	 cmp	 eax, DWORD PTR [edi+56]
  00de6	74 16		 je	 SHORT $LN628@BuildVerte
; File C:\Program Files (x86)\Microsoft Visual Studio\2019\Community\VC\Tools\MSVC\14.28.29333\include\xmemory

; 701  :         ::new (const_cast<void*>(static_cast<const volatile void*>(_Ptr))) _Objty(_STD forward<_Types>(_Args)...);

  00de8	0f 10 01	 movups	 xmm0, XMMWORD PTR [ecx]
  00deb	0f 11 00	 movups	 XMMWORD PTR [eax], xmm0
  00dee	f3 0f 7e 41 10	 movq	 xmm0, QWORD PTR [ecx+16]
  00df3	66 0f d6 40 10	 movq	 QWORD PTR [eax+16], xmm0
; File C:\Program Files (x86)\Microsoft Visual Studio\2019\Community\VC\Tools\MSVC\14.28.29333\include\vector

; 690  :         ++_Mylast;

  00df8	83 47 34 18	 add	 DWORD PTR [edi+52], 24	; 00000018H

; 705  :             return _Emplace_back_with_unused_capacity(_STD forward<_Valty>(_Val)...);

  00dfc	eb 0a		 jmp	 SHORT $LN22@BuildVerte
$LN628@BuildVerte:

; 706  :         }
; 707  : 
; 708  :         _Ty& _Result = *_Emplace_reallocate(_Mylast, _STD forward<_Valty>(_Val)...);

  00dfe	51		 push	 ecx
  00dff	50		 push	 eax
  00e00	8d 4f 30	 lea	 ecx, DWORD PTR [edi+48]
  00e03	e8 00 00 00 00	 call	 ??$_Emplace_reallocate@ABUSPDTVertex@@@?$vector@USPDTVertex@@V?$allocator@USPDTVertex@@@std@@@std@@QAEPAUSPDTVertex@@QAU2@ABU2@@Z ; std::vector<SPDTVertex,std::allocator<SPDTVertex> >::_Emplace_reallocate<SPDTVertex const &>
$LN22@BuildVerte:

; 75   :         ++_Ptr;

  00e08	83 c6 18	 add	 esi, 24			; 00000018H

; 149  :         return _Ptr == _Right._Ptr;

  00e0b	3b b5 28 e8 ff
	ff		 cmp	 esi, DWORD PTR _m_LongVertexVector$[ebp+4]
; File D:\Metin2 Server Files\mainline\SRC_2014\Metin2Client\GameLib\WeaponTrace.cpp

; 266  : 		lit != m_LongVertexVector.end();

  00e11	75 9d		 jne	 SHORT $LL605@BuildVerte
  00e13	8b 95 24 e8 ff
	ff		 mov	 edx, DWORD PTR _m_LongVertexVector$[ebp]
$LN23@BuildVerte:
; File C:\Program Files (x86)\Microsoft Visual Studio\2019\Community\VC\Tools\MSVC\14.28.29333\include\vector

; 1694 :         if (_Myfirst) { // destroy and deallocate old array

  00e19	85 d2		 test	 edx, edx
  00e1b	74 2e		 je	 SHORT $LN637@BuildVerte

; 1695 :             _Destroy(_Myfirst, _Mylast);
; 1696 :             _Getal().deallocate(_Myfirst, static_cast<size_type>(_Myend - _Myfirst));

  00e1d	8b 8d 2c e8 ff
	ff		 mov	 ecx, DWORD PTR _m_LongVertexVector$[ebp+8]
  00e23	b8 ab aa aa 2a	 mov	 eax, 715827883		; 2aaaaaabH
  00e28	2b ca		 sub	 ecx, edx
  00e2a	f7 e9		 imul	 ecx
  00e2c	c1 fa 02	 sar	 edx, 2
  00e2f	8b c2		 mov	 eax, edx
  00e31	c1 e8 1f	 shr	 eax, 31			; 0000001fH
  00e34	03 c2		 add	 eax, edx
; File C:\Program Files (x86)\Microsoft Visual Studio\2019\Community\VC\Tools\MSVC\14.28.29333\include\xmemory

; 810  :         _Deallocate<_New_alignof<_Ty>>(_Ptr, sizeof(_Ty) * _Count);

  00e36	8d 04 40	 lea	 eax, DWORD PTR [eax+eax*2]
  00e39	c1 e0 03	 shl	 eax, 3
  00e3c	50		 push	 eax
  00e3d	ff b5 24 e8 ff
	ff		 push	 DWORD PTR _m_LongVertexVector$[ebp]
  00e43	e8 00 00 00 00	 call	 ??$_Deallocate@$07$0A@@std@@YAXPAXI@Z ; std::_Deallocate<8,0>
  00e48	83 c4 08	 add	 esp, 8
$LN637@BuildVerte:
; File C:\Program Files (x86)\Microsoft Visual Studio\2019\Community\VC\Tools\MSVC\14.28.29333\include\vector

; 1694 :         if (_Myfirst) { // destroy and deallocate old array

  00e4b	8b b5 e8 e7 ff
	ff		 mov	 esi, DWORD PTR _m_ShortVertexVector$[ebp]
  00e51	85 f6		 test	 esi, esi
  00e53	74 29		 je	 SHORT $LN644@BuildVerte

; 1695 :             _Destroy(_Myfirst, _Mylast);
; 1696 :             _Getal().deallocate(_Myfirst, static_cast<size_type>(_Myend - _Myfirst));

  00e55	8b 8d f0 e7 ff
	ff		 mov	 ecx, DWORD PTR _m_ShortVertexVector$[ebp+8]
  00e5b	b8 ab aa aa 2a	 mov	 eax, 715827883		; 2aaaaaabH
  00e60	2b ce		 sub	 ecx, esi
  00e62	f7 e9		 imul	 ecx
  00e64	c1 fa 02	 sar	 edx, 2
  00e67	8b c2		 mov	 eax, edx
  00e69	c1 e8 1f	 shr	 eax, 31			; 0000001fH
  00e6c	03 c2		 add	 eax, edx
; File C:\Program Files (x86)\Microsoft Visual Studio\2019\Community\VC\Tools\MSVC\14.28.29333\include\xmemory

; 810  :         _Deallocate<_New_alignof<_Ty>>(_Ptr, sizeof(_Ty) * _Count);

  00e6e	8d 04 40	 lea	 eax, DWORD PTR [eax+eax*2]
  00e71	c1 e0 03	 shl	 eax, 3
  00e74	50		 push	 eax
  00e75	56		 push	 esi
  00e76	e8 00 00 00 00	 call	 ??$_Deallocate@$07$0A@@std@@YAXPAXI@Z ; std::_Deallocate<8,0>
  00e7b	83 c4 08	 add	 esp, 8
$LN644@BuildVerte:
; File D:\Metin2 Server Files\mainline\SRC_2014\Metin2Client\GameLib\WeaponTrace.cpp

; 276  : 	return true;

  00e7e	b0 01		 mov	 al, 1
$LN1@BuildVerte:

; 277  : }

  00e80	8b 4d f4	 mov	 ecx, DWORD PTR __$EHRec$[ebp]
  00e83	64 89 0d 00 00
	00 00		 mov	 DWORD PTR fs:0, ecx
  00e8a	59		 pop	 ecx
  00e8b	5f		 pop	 edi
  00e8c	5e		 pop	 esi
  00e8d	8b 4d f0	 mov	 ecx, DWORD PTR __$ArrayPad$[ebp]
  00e90	33 cd		 xor	 ecx, ebp
  00e92	e8 00 00 00 00	 call	 @__security_check_cookie@4
  00e97	8b e5		 mov	 esp, ebp
  00e99	5d		 pop	 ebp
  00e9a	c3		 ret	 0
_TEXT	ENDS
;	COMDAT text$x
text$x	SEGMENT
__unwindfunclet$?BuildVertex@CWeaponTrace@@IAE_NXZ$0:
  00000	8d 8d e8 e7 ff
	ff		 lea	 ecx, DWORD PTR _m_ShortVertexVector$[ebp]
  00006	e9 00 00 00 00	 jmp	 ??1?$vector@USPDTVertex@@V?$allocator@USPDTVertex@@@std@@@std@@QAE@XZ ; std::vector<SPDTVertex,std::allocator<SPDTVertex> >::~vector<SPDTVertex,std::allocator<SPDTVertex> >
__unwindfunclet$?BuildVertex@CWeaponTrace@@IAE_NXZ$1:
  0000b	8d 8d 24 e8 ff
	ff		 lea	 ecx, DWORD PTR _m_LongVertexVector$[ebp]
  00011	e9 00 00 00 00	 jmp	 ??1?$vector@USPDTVertex@@V?$allocator@USPDTVertex@@@std@@@std@@QAE@XZ ; std::vector<SPDTVertex,std::allocator<SPDTVertex> >::~vector<SPDTVertex,std::allocator<SPDTVertex> >
  00016	cc		 int	 3
  00017	cc		 int	 3
  00018	cc		 int	 3
  00019	cc		 int	 3
  0001a	cc		 int	 3
__ehhandler$?BuildVertex@CWeaponTrace@@IAE_NXZ:
  0001b	90		 npad	 1
  0001c	90		 npad	 1
  0001d	8b 54 24 08	 mov	 edx, DWORD PTR [esp+8]
  00021	8d 42 0c	 lea	 eax, DWORD PTR [edx+12]
  00024	8b 8a 8c e7 ff
	ff		 mov	 ecx, DWORD PTR [edx-6260]
  0002a	33 c8		 xor	 ecx, eax
  0002c	e8 00 00 00 00	 call	 @__security_check_cookie@4
  00031	8b 4a fc	 mov	 ecx, DWORD PTR [edx-4]
  00034	33 c8		 xor	 ecx, eax
  00036	e8 00 00 00 00	 call	 @__security_check_cookie@4
  0003b	b8 00 00 00 00	 mov	 eax, OFFSET __ehfuncinfo$?BuildVertex@CWeaponTrace@@IAE_NXZ
  00040	e9 00 00 00 00	 jmp	 ___CxxFrameHandler3
text$x	ENDS
?BuildVertex@CWeaponTrace@@IAE_NXZ ENDP			; CWeaponTrace::BuildVertex
; Function compile flags: /Ogtp
; File D:\Metin2 Server Files\mainline\SRC_2014\Metin2Client\GameLib\WeaponTrace.cpp
;	COMDAT ?Initialize@CWeaponTrace@@QAEXXZ
_TEXT	SEGMENT
?Initialize@CWeaponTrace@@QAEXXZ PROC			; CWeaponTrace::Initialize, COMDAT
; _this$ = ecx

; 444  : {

  00000	56		 push	 esi
  00001	8b f1		 mov	 esi, ecx

; 445  : 	m_pInstance = NULL;

  00003	c7 46 44 00 00
	00 00		 mov	 DWORD PTR [esi+68], 0

; 446  : 	m_dwModelInstanceIndex = 0;

  0000a	c7 46 48 00 00
	00 00		 mov	 DWORD PTR [esi+72], 0

; 447  : 	
; 448  : 	m_fx = 0.0f;

  00011	c7 46 6c 00 00
	00 00		 mov	 DWORD PTR [esi+108], 0

; 449  : 	m_fy = 0.0f;

  00018	c7 46 70 00 00
	00 00		 mov	 DWORD PTR [esi+112], 0

; 450  : 	m_fz = 0.0f;

  0001f	c7 46 74 00 00
	00 00		 mov	 DWORD PTR [esi+116], 0

; 451  : 	m_fRotation = 0.0f;

  00026	c7 46 78 00 00
	00 00		 mov	 DWORD PTR [esi+120], 0

; 452  : 	
; 453  : 	m_fLifeTime = 0.18f;

  0002d	c7 46 3c ec 51
	38 3e		 mov	 DWORD PTR [esi+60], 1043878380 ; 3e3851ecH

; 454  : 	//m_fLifeTime = 3.0f;
; 455  : 	m_fSamplingTime = 0.003f;

  00034	c7 46 40 a6 9b
	44 3b		 mov	 DWORD PTR [esi+64], 994352038 ; 3b449ba6H

; 456  : 	//m_fLifeTime = 3.0f;
; 457  : 	//m_fSamplingTime = 0.003f;
; 458  : 	
; 459  : 	m_isPlaying = FALSE;

  0003b	c7 86 80 00 00
	00 00 00 00 00	 mov	 DWORD PTR [esi+128], 0

; 460  : 	
; 461  : 	m_bUseTexture = false;

  00045	c6 86 84 00 00
	00 00		 mov	 BYTE PTR [esi+132], 0

; 462  : 	
; 463  : 	m_iBoneIndex = 0;

  0004c	c7 86 88 00 00
	00 00 00 00 00	 mov	 DWORD PTR [esi+136], 0

; 464  : 	
; 465  : 	m_fLastUpdate = CTimer::Instance().GetCurrentSecond();

  00056	8b 0d 00 00 00
	00		 mov	 ecx, DWORD PTR ?ms_singleton@?$CSingleton@VCTimer@@@@0PAVCTimer@@A ; CSingleton<CTimer>::ms_singleton
  0005c	e8 00 00 00 00	 call	 ?GetCurrentSecond@CTimer@@QAEMXZ ; CTimer::GetCurrentSecond
  00061	d9 5e 04	 fstp	 DWORD PTR [esi+4]
  00064	5e		 pop	 esi

; 466  : 	///////////////////////////////////////////////////////////////////////
; 467  : 	
; 468  : 	//const int c_iSplineCount = 8;
; 469  : 	//m_SplineValueVector.clear();
; 470  : 	//m_SplineValueVector.resize(c_iSplineCount);
; 471  : 	
; 472  : 	//for (int i = 0; i < c_iSplineCount; ++i)
; 473  : 	//{
; 474  : 	//	float fValue = float(i) / float(c_iSplineCount);
; 475  : 	//	m_SplineValueVector[i].fValue1 = fValue;
; 476  : 	//	m_SplineValueVector[i].fValue2 = fValue * fValue;
; 477  : 	//	m_SplineValueVector[i].fValue3 = fValue * fValue * fValue;
; 478  : 	//}
; 479  : 
; 480  : }

  00065	c3		 ret	 0
?Initialize@CWeaponTrace@@QAEXXZ ENDP			; CWeaponTrace::Initialize
_TEXT	ENDS
; Function compile flags: /Ogtp
; File D:\Metin2 Server Files\mainline\SRC_2014\Metin2Client\GameLib\WeaponTrace.cpp
; File C:\Program Files (x86)\Microsoft Visual Studio\2019\Community\VC\Tools\MSVC\14.28.29333\include\vector
; File D:\Metin2 Server Files\mainline\SRC_2014\Metin2Client\GameLib\WeaponTrace.cpp
; File D:\Metin2 Server Files\mainline\SRC_2014\M2Data\include\d3dx8math.inl
; File D:\Metin2 Server Files\mainline\SRC_2014\Metin2Client\GameLib\WeaponTrace.cpp
