; Listing generated by Microsoft (R) Optimizing Compiler Version 19.28.29335.0 

	TITLE	D:\Metin2 Server Files\mainline\SRC_2014\Metin2Client\EterLocale\Arabic.cpp
	.686P
	.XMM
	include listing.inc
	.model	flat

INCLUDELIB LIBCMT
INCLUDELIB OLDNAMES

PUBLIC	?Arabic_ConvSymbol@@YA_W_W@Z			; Arabic_ConvSymbol
PUBLIC	?Arabic_IsInSpace@@YA_N_W@Z			; Arabic_IsInSpace
PUBLIC	?Arabic_IsInSymbol@@YA_N_W@Z			; Arabic_IsInSymbol
PUBLIC	?Arabic_IsInPresentation@@YA_N_W@Z		; Arabic_IsInPresentation
PUBLIC	?Arabic_HasPresentation@@YA_NPA_WH@Z		; Arabic_HasPresentation
PUBLIC	?Arabic_MakeShape@@YAIPA_WI0I@Z			; Arabic_MakeShape
PUBLIC	?Arabic_GetComposition@@YA_W_W0W4ARABIC_FORM_TYPE@@@Z ; Arabic_GetComposition
PUBLIC	?Arabic_GetMap@@YA_W_WW4ARABIC_FORM_TYPE@@@Z	; Arabic_GetMap
PUBLIC	?Arabic_IsInMap@@YA_N_W@Z			; Arabic_IsInMap
PUBLIC	?Arabic_IsInComposing@@YA_N_W@Z			; Arabic_IsInComposing
PUBLIC	?Arabic_IsNext@@YA_N_W@Z			; Arabic_IsNext
PUBLIC	?Arabic_IsComb1@@YA_N_W@Z			; Arabic_IsComb1
PUBLIC	?Arabic_IsComb2@@YA_N_W@Z			; Arabic_IsComb2
;	COMDAT ?YEH@?1??Arabic_GetMap@@YA_W_WW4ARABIC_FORM_TYPE@@@Z@4PA_WA
_DATA	SEGMENT
?YEH@?1??Arabic_GetMap@@YA_W_WW4ARABIC_FORM_TYPE@@@Z@4PA_WA DW 064aH ; `Arabic_GetMap'::`2'::YEH
	DW	0fef1H
	DW	0fef3H
	DW	0fef4H
	DW	0fef2H
_DATA	ENDS
;	COMDAT ?ALEF_MAKSURA@?1??Arabic_GetMap@@YA_W_WW4ARABIC_FORM_TYPE@@@Z@4PA_WA
_DATA	SEGMENT
?ALEF_MAKSURA@?1??Arabic_GetMap@@YA_W_WW4ARABIC_FORM_TYPE@@@Z@4PA_WA DW 0649H ; `Arabic_GetMap'::`2'::ALEF_MAKSURA
	DW	0feefH
	DW	00H
	DW	00H
	DW	0fef0H
_DATA	ENDS
;	COMDAT ?WAW@?1??Arabic_GetMap@@YA_W_WW4ARABIC_FORM_TYPE@@@Z@4PA_WA
_DATA	SEGMENT
?WAW@?1??Arabic_GetMap@@YA_W_WW4ARABIC_FORM_TYPE@@@Z@4PA_WA DW 0648H ; `Arabic_GetMap'::`2'::WAW
	DW	0feedH
	DW	00H
	DW	00H
	DW	0feeeH
_DATA	ENDS
;	COMDAT ?HEH@?1??Arabic_GetMap@@YA_W_WW4ARABIC_FORM_TYPE@@@Z@4PA_WA
_DATA	SEGMENT
?HEH@?1??Arabic_GetMap@@YA_W_WW4ARABIC_FORM_TYPE@@@Z@4PA_WA DW 0647H ; `Arabic_GetMap'::`2'::HEH
	DW	0fee9H
	DW	0feebH
	DW	0feecH
	DW	0feeaH
_DATA	ENDS
;	COMDAT ?NOON@?1??Arabic_GetMap@@YA_W_WW4ARABIC_FORM_TYPE@@@Z@4PA_WA
_DATA	SEGMENT
?NOON@?1??Arabic_GetMap@@YA_W_WW4ARABIC_FORM_TYPE@@@Z@4PA_WA DW 0646H ; `Arabic_GetMap'::`2'::NOON
	DW	0fee5H
	DW	0fee7H
	DW	0fee8H
	DW	0fee6H
_DATA	ENDS
;	COMDAT ?MEEM@?1??Arabic_GetMap@@YA_W_WW4ARABIC_FORM_TYPE@@@Z@4PA_WA
_DATA	SEGMENT
?MEEM@?1??Arabic_GetMap@@YA_W_WW4ARABIC_FORM_TYPE@@@Z@4PA_WA DW 0645H ; `Arabic_GetMap'::`2'::MEEM
	DW	0fee1H
	DW	0fee3H
	DW	0fee4H
	DW	0fee2H
_DATA	ENDS
;	COMDAT ?LAM@?1??Arabic_GetMap@@YA_W_WW4ARABIC_FORM_TYPE@@@Z@4PA_WA
_DATA	SEGMENT
?LAM@?1??Arabic_GetMap@@YA_W_WW4ARABIC_FORM_TYPE@@@Z@4PA_WA DW 0644H ; `Arabic_GetMap'::`2'::LAM
	DW	0feddH
	DW	0fedfH
	DW	0fee0H
	DW	0fedeH
_DATA	ENDS
;	COMDAT ?KAF@?1??Arabic_GetMap@@YA_W_WW4ARABIC_FORM_TYPE@@@Z@4PA_WA
_DATA	SEGMENT
?KAF@?1??Arabic_GetMap@@YA_W_WW4ARABIC_FORM_TYPE@@@Z@4PA_WA DW 0643H ; `Arabic_GetMap'::`2'::KAF
	DW	0fed9H
	DW	0fedbH
	DW	0fedcH
	DW	0fedaH
_DATA	ENDS
;	COMDAT ?QAF@?1??Arabic_GetMap@@YA_W_WW4ARABIC_FORM_TYPE@@@Z@4PA_WA
_DATA	SEGMENT
?QAF@?1??Arabic_GetMap@@YA_W_WW4ARABIC_FORM_TYPE@@@Z@4PA_WA DW 0642H ; `Arabic_GetMap'::`2'::QAF
	DW	0fed5H
	DW	0fed7H
	DW	0fed8H
	DW	0fed6H
_DATA	ENDS
;	COMDAT ?OX_FEH@?1??Arabic_GetMap@@YA_W_WW4ARABIC_FORM_TYPE@@@Z@4PA_WA
_DATA	SEGMENT
?OX_FEH@?1??Arabic_GetMap@@YA_W_WW4ARABIC_FORM_TYPE@@@Z@4PA_WA DW 0641H ; `Arabic_GetMap'::`2'::OX_FEH
	DW	0fed1H
	DW	0fed3H
	DW	0fed4H
	DW	0fed2H
_DATA	ENDS
;	COMDAT ?TATWEEL@?1??Arabic_GetMap@@YA_W_WW4ARABIC_FORM_TYPE@@@Z@4PA_WA
_DATA	SEGMENT
?TATWEEL@?1??Arabic_GetMap@@YA_W_WW4ARABIC_FORM_TYPE@@@Z@4PA_WA DW 0640H ; `Arabic_GetMap'::`2'::TATWEEL
	DW	0640H
	DW	00H
	DW	00H
	DW	00H
_DATA	ENDS
;	COMDAT ?GHAIN@?1??Arabic_GetMap@@YA_W_WW4ARABIC_FORM_TYPE@@@Z@4PA_WA
_DATA	SEGMENT
?GHAIN@?1??Arabic_GetMap@@YA_W_WW4ARABIC_FORM_TYPE@@@Z@4PA_WA DW 063aH ; `Arabic_GetMap'::`2'::GHAIN
	DW	0fecdH
	DW	0fecfH
	DW	0fed0H
	DW	0feceH
_DATA	ENDS
;	COMDAT ?AIN@?1??Arabic_GetMap@@YA_W_WW4ARABIC_FORM_TYPE@@@Z@4PA_WA
_DATA	SEGMENT
?AIN@?1??Arabic_GetMap@@YA_W_WW4ARABIC_FORM_TYPE@@@Z@4PA_WA DW 0639H ; `Arabic_GetMap'::`2'::AIN
	DW	0fec9H
	DW	0fecbH
	DW	0feccH
	DW	0fecaH
_DATA	ENDS
;	COMDAT ?ZAH@?1??Arabic_GetMap@@YA_W_WW4ARABIC_FORM_TYPE@@@Z@4PA_WA
_DATA	SEGMENT
?ZAH@?1??Arabic_GetMap@@YA_W_WW4ARABIC_FORM_TYPE@@@Z@4PA_WA DW 0638H ; `Arabic_GetMap'::`2'::ZAH
	DW	0fec5H
	DW	0fec7H
	DW	0fec8H
	DW	0fec6H
_DATA	ENDS
;	COMDAT ?TAH@?1??Arabic_GetMap@@YA_W_WW4ARABIC_FORM_TYPE@@@Z@4PA_WA
_DATA	SEGMENT
?TAH@?1??Arabic_GetMap@@YA_W_WW4ARABIC_FORM_TYPE@@@Z@4PA_WA DW 0637H ; `Arabic_GetMap'::`2'::TAH
	DW	0fec1H
	DW	0fec3H
	DW	0fec4H
	DW	0fec2H
_DATA	ENDS
;	COMDAT ?DAD@?1??Arabic_GetMap@@YA_W_WW4ARABIC_FORM_TYPE@@@Z@4PA_WA
_DATA	SEGMENT
?DAD@?1??Arabic_GetMap@@YA_W_WW4ARABIC_FORM_TYPE@@@Z@4PA_WA DW 0636H ; `Arabic_GetMap'::`2'::DAD
	DW	0febdH
	DW	0febfH
	DW	0fec0H
	DW	0febeH
_DATA	ENDS
;	COMDAT ?SAD@?1??Arabic_GetMap@@YA_W_WW4ARABIC_FORM_TYPE@@@Z@4PA_WA
_DATA	SEGMENT
?SAD@?1??Arabic_GetMap@@YA_W_WW4ARABIC_FORM_TYPE@@@Z@4PA_WA DW 0635H ; `Arabic_GetMap'::`2'::SAD
	DW	0feb9H
	DW	0febbH
	DW	0febcH
	DW	0febaH
_DATA	ENDS
;	COMDAT ?SHEEN@?1??Arabic_GetMap@@YA_W_WW4ARABIC_FORM_TYPE@@@Z@4PA_WA
_DATA	SEGMENT
?SHEEN@?1??Arabic_GetMap@@YA_W_WW4ARABIC_FORM_TYPE@@@Z@4PA_WA DW 0634H ; `Arabic_GetMap'::`2'::SHEEN
	DW	0feb5H
	DW	0feb7H
	DW	0feb8H
	DW	0feb6H
_DATA	ENDS
;	COMDAT ?SEEN@?1??Arabic_GetMap@@YA_W_WW4ARABIC_FORM_TYPE@@@Z@4PA_WA
_DATA	SEGMENT
?SEEN@?1??Arabic_GetMap@@YA_W_WW4ARABIC_FORM_TYPE@@@Z@4PA_WA DW 0633H ; `Arabic_GetMap'::`2'::SEEN
	DW	0feb1H
	DW	0feb3H
	DW	0feb4H
	DW	0feb2H
_DATA	ENDS
;	COMDAT ?ZAIN@?1??Arabic_GetMap@@YA_W_WW4ARABIC_FORM_TYPE@@@Z@4PA_WA
_DATA	SEGMENT
?ZAIN@?1??Arabic_GetMap@@YA_W_WW4ARABIC_FORM_TYPE@@@Z@4PA_WA DW 0632H ; `Arabic_GetMap'::`2'::ZAIN
	DW	0feafH
	DW	00H
	DW	00H
	DW	0feb0H
_DATA	ENDS
;	COMDAT ?REH@?1??Arabic_GetMap@@YA_W_WW4ARABIC_FORM_TYPE@@@Z@4PA_WA
_DATA	SEGMENT
?REH@?1??Arabic_GetMap@@YA_W_WW4ARABIC_FORM_TYPE@@@Z@4PA_WA DW 0631H ; `Arabic_GetMap'::`2'::REH
	DW	0feadH
	DW	00H
	DW	00H
	DW	0feaeH
_DATA	ENDS
;	COMDAT ?THAL@?1??Arabic_GetMap@@YA_W_WW4ARABIC_FORM_TYPE@@@Z@4PA_WA
_DATA	SEGMENT
?THAL@?1??Arabic_GetMap@@YA_W_WW4ARABIC_FORM_TYPE@@@Z@4PA_WA DW 0630H ; `Arabic_GetMap'::`2'::THAL
	DW	0feabH
	DW	00H
	DW	00H
	DW	0feacH
_DATA	ENDS
;	COMDAT ?DAL@?1??Arabic_GetMap@@YA_W_WW4ARABIC_FORM_TYPE@@@Z@4PA_WA
_DATA	SEGMENT
?DAL@?1??Arabic_GetMap@@YA_W_WW4ARABIC_FORM_TYPE@@@Z@4PA_WA DW 062fH ; `Arabic_GetMap'::`2'::DAL
	DW	0fea9H
	DW	00H
	DW	00H
	DW	0feaaH
_DATA	ENDS
;	COMDAT ?KHAH@?1??Arabic_GetMap@@YA_W_WW4ARABIC_FORM_TYPE@@@Z@4PA_WA
_DATA	SEGMENT
?KHAH@?1??Arabic_GetMap@@YA_W_WW4ARABIC_FORM_TYPE@@@Z@4PA_WA DW 062eH ; `Arabic_GetMap'::`2'::KHAH
	DW	0fea5H
	DW	0fea7H
	DW	0fea8H
	DW	0fea6H
_DATA	ENDS
;	COMDAT ?HAH@?1??Arabic_GetMap@@YA_W_WW4ARABIC_FORM_TYPE@@@Z@4PA_WA
_DATA	SEGMENT
?HAH@?1??Arabic_GetMap@@YA_W_WW4ARABIC_FORM_TYPE@@@Z@4PA_WA DW 062dH ; `Arabic_GetMap'::`2'::HAH
	DW	0fea1H
	DW	0fea3H
	DW	0fea4H
	DW	0fea2H
_DATA	ENDS
;	COMDAT ?JEEM@?1??Arabic_GetMap@@YA_W_WW4ARABIC_FORM_TYPE@@@Z@4PA_WA
_DATA	SEGMENT
?JEEM@?1??Arabic_GetMap@@YA_W_WW4ARABIC_FORM_TYPE@@@Z@4PA_WA DW 062cH ; `Arabic_GetMap'::`2'::JEEM
	DW	0fe9dH
	DW	0fe9fH
	DW	0fea0H
	DW	0fe9eH
_DATA	ENDS
;	COMDAT ?THEH@?1??Arabic_GetMap@@YA_W_WW4ARABIC_FORM_TYPE@@@Z@4PA_WA
_DATA	SEGMENT
?THEH@?1??Arabic_GetMap@@YA_W_WW4ARABIC_FORM_TYPE@@@Z@4PA_WA DW 062bH ; `Arabic_GetMap'::`2'::THEH
	DW	0fe99H
	DW	0fe9bH
	DW	0fe9cH
	DW	0fe9aH
_DATA	ENDS
;	COMDAT ?TEH@?1??Arabic_GetMap@@YA_W_WW4ARABIC_FORM_TYPE@@@Z@4PA_WA
_DATA	SEGMENT
?TEH@?1??Arabic_GetMap@@YA_W_WW4ARABIC_FORM_TYPE@@@Z@4PA_WA DW 062aH ; `Arabic_GetMap'::`2'::TEH
	DW	0fe95H
	DW	0fe97H
	DW	0fe98H
	DW	0fe96H
_DATA	ENDS
;	COMDAT ?TEH_MARBUTA@?1??Arabic_GetMap@@YA_W_WW4ARABIC_FORM_TYPE@@@Z@4PA_WA
_DATA	SEGMENT
?TEH_MARBUTA@?1??Arabic_GetMap@@YA_W_WW4ARABIC_FORM_TYPE@@@Z@4PA_WA DW 0629H ; `Arabic_GetMap'::`2'::TEH_MARBUTA
	DW	0fe93H
	DW	00H
	DW	00H
	DW	0fe94H
_DATA	ENDS
;	COMDAT ?BEH@?1??Arabic_GetMap@@YA_W_WW4ARABIC_FORM_TYPE@@@Z@4PA_WA
_DATA	SEGMENT
?BEH@?1??Arabic_GetMap@@YA_W_WW4ARABIC_FORM_TYPE@@@Z@4PA_WA DW 0628H ; `Arabic_GetMap'::`2'::BEH
	DW	0fe8fH
	DW	0fe91H
	DW	0fe92H
	DW	0fe90H
_DATA	ENDS
;	COMDAT ?ALEF@?1??Arabic_GetMap@@YA_W_WW4ARABIC_FORM_TYPE@@@Z@4PA_WA
_DATA	SEGMENT
?ALEF@?1??Arabic_GetMap@@YA_W_WW4ARABIC_FORM_TYPE@@@Z@4PA_WA DW 0627H ; `Arabic_GetMap'::`2'::ALEF
	DW	0fe8dH
	DW	00H
	DW	00H
	DW	0fe8eH
_DATA	ENDS
;	COMDAT ?YEH_HAMZA@?1??Arabic_GetMap@@YA_W_WW4ARABIC_FORM_TYPE@@@Z@4PA_WA
_DATA	SEGMENT
?YEH_HAMZA@?1??Arabic_GetMap@@YA_W_WW4ARABIC_FORM_TYPE@@@Z@4PA_WA DW 0626H ; `Arabic_GetMap'::`2'::YEH_HAMZA
	DW	0fe89H
	DW	0fe8bH
	DW	0fe8cH
	DW	0fe8aH
_DATA	ENDS
;	COMDAT ?ALEF_HAMZA_BELOW@?1??Arabic_GetMap@@YA_W_WW4ARABIC_FORM_TYPE@@@Z@4PA_WA
_DATA	SEGMENT
?ALEF_HAMZA_BELOW@?1??Arabic_GetMap@@YA_W_WW4ARABIC_FORM_TYPE@@@Z@4PA_WA DW 0625H ; `Arabic_GetMap'::`2'::ALEF_HAMZA_BELOW
	DW	0fe87H
	DW	00H
	DW	00H
	DW	0fe88H
_DATA	ENDS
;	COMDAT ?WAW_HAMZA@?1??Arabic_GetMap@@YA_W_WW4ARABIC_FORM_TYPE@@@Z@4PA_WA
_DATA	SEGMENT
?WAW_HAMZA@?1??Arabic_GetMap@@YA_W_WW4ARABIC_FORM_TYPE@@@Z@4PA_WA DW 0624H ; `Arabic_GetMap'::`2'::WAW_HAMZA
	DW	0fe85H
	DW	00H
	DW	00H
	DW	0fe86H
_DATA	ENDS
;	COMDAT ?ALEF_HAMZA_ABOVE@?1??Arabic_GetMap@@YA_W_WW4ARABIC_FORM_TYPE@@@Z@4PA_WA
_DATA	SEGMENT
?ALEF_HAMZA_ABOVE@?1??Arabic_GetMap@@YA_W_WW4ARABIC_FORM_TYPE@@@Z@4PA_WA DW 0623H ; `Arabic_GetMap'::`2'::ALEF_HAMZA_ABOVE
	DW	0fe83H
	DW	00H
	DW	00H
	DW	0fe84H
_DATA	ENDS
;	COMDAT ?ALEF_MADDA@?1??Arabic_GetMap@@YA_W_WW4ARABIC_FORM_TYPE@@@Z@4PA_WA
_DATA	SEGMENT
?ALEF_MADDA@?1??Arabic_GetMap@@YA_W_WW4ARABIC_FORM_TYPE@@@Z@4PA_WA DW 0622H ; `Arabic_GetMap'::`2'::ALEF_MADDA
	DW	0fe81H
	DW	00H
	DW	00H
	DW	0fe82H
_DATA	ENDS
;	COMDAT ?HAMZA@?1??Arabic_GetMap@@YA_W_WW4ARABIC_FORM_TYPE@@@Z@4PA_WA
_DATA	SEGMENT
?HAMZA@?1??Arabic_GetMap@@YA_W_WW4ARABIC_FORM_TYPE@@@Z@4PA_WA DW 0621H ; `Arabic_GetMap'::`2'::HAMZA
	DW	0fe80H
	DW	00H
	DW	00H
	DW	00H
_DATA	ENDS
;	COMDAT ?LAM_ALEF@?1??Arabic_GetComposition@@YA_W_W0W4ARABIC_FORM_TYPE@@@Z@4PA_WA
_DATA	SEGMENT
?LAM_ALEF@?1??Arabic_GetComposition@@YA_W_W0W4ARABIC_FORM_TYPE@@@Z@4PA_WA DW 0627H ; `Arabic_GetComposition'::`2'::LAM_ALEF
	DW	0fefbH
	DW	00H
	DW	00H
	DW	0fefcH
_DATA	ENDS
;	COMDAT ?LAM_ALEF_HAMZA_BELOW@?1??Arabic_GetComposition@@YA_W_W0W4ARABIC_FORM_TYPE@@@Z@4PA_WA
_DATA	SEGMENT
?LAM_ALEF_HAMZA_BELOW@?1??Arabic_GetComposition@@YA_W_W0W4ARABIC_FORM_TYPE@@@Z@4PA_WA DW 0625H ; `Arabic_GetComposition'::`2'::LAM_ALEF_HAMZA_BELOW
	DW	0fef9H
	DW	00H
	DW	00H
	DW	0fefaH
_DATA	ENDS
;	COMDAT ?LAM_ALEF_HAMZA_ABOVE@?1??Arabic_GetComposition@@YA_W_W0W4ARABIC_FORM_TYPE@@@Z@4PA_WA
_DATA	SEGMENT
?LAM_ALEF_HAMZA_ABOVE@?1??Arabic_GetComposition@@YA_W_W0W4ARABIC_FORM_TYPE@@@Z@4PA_WA DW 0623H ; `Arabic_GetComposition'::`2'::LAM_ALEF_HAMZA_ABOVE
	DW	0fef7H
	DW	00H
	DW	00H
	DW	0fef8H
_DATA	ENDS
;	COMDAT ?LAM_ALEF_MADDA@?1??Arabic_GetComposition@@YA_W_W0W4ARABIC_FORM_TYPE@@@Z@4PA_WA
_DATA	SEGMENT
?LAM_ALEF_MADDA@?1??Arabic_GetComposition@@YA_W_W0W4ARABIC_FORM_TYPE@@@Z@4PA_WA DW 0622H ; `Arabic_GetComposition'::`2'::LAM_ALEF_MADDA
	DW	0fef5H
	DW	00H
	DW	00H
	DW	0fef6H
_DATA	ENDS
; Function compile flags: /Odspy
; File D:\Metin2 Server Files\mainline\SRC_2014\Metin2Client\EterLocale\Arabic.cpp
;	COMDAT ?Arabic_IsComb2@@YA_N_W@Z
_TEXT	SEGMENT
tv65 = -4						; size = 4
_code$ = 8						; size = 2
?Arabic_IsComb2@@YA_N_W@Z PROC				; Arabic_IsComb2, COMDAT

; 233  : {

  00000	55		 push	 ebp
  00001	8b ec		 mov	 ebp, esp
  00003	51		 push	 ecx

; 234  : 	switch (code)

  00004	0f b7 45 08	 movzx	 eax, WORD PTR _code$[ebp]
  00008	89 45 fc	 mov	 DWORD PTR tv65[ebp], eax
  0000b	81 7d fc 22 06
	00 00		 cmp	 DWORD PTR tv65[ebp], 1570 ; 00000622H
  00012	7c 21		 jl	 SHORT $LN2@Arabic_IsC
  00014	81 7d fc 23 06
	00 00		 cmp	 DWORD PTR tv65[ebp], 1571 ; 00000623H
  0001b	7e 14		 jle	 SHORT $LN4@Arabic_IsC
  0001d	81 7d fc 25 06
	00 00		 cmp	 DWORD PTR tv65[ebp], 1573 ; 00000625H
  00024	74 0b		 je	 SHORT $LN4@Arabic_IsC
  00026	81 7d fc 27 06
	00 00		 cmp	 DWORD PTR tv65[ebp], 1575 ; 00000627H
  0002d	74 02		 je	 SHORT $LN4@Arabic_IsC
  0002f	eb 04		 jmp	 SHORT $LN2@Arabic_IsC
$LN4@Arabic_IsC:

; 235  : 	{
; 236  : 		case 0x0622:
; 237  : 		case 0x0623:
; 238  : 		case 0x0625:
; 239  : 		case 0x0627:
; 240  : 			return true;

  00031	b0 01		 mov	 al, 1
  00033	eb 02		 jmp	 SHORT $LN1@Arabic_IsC
$LN2@Arabic_IsC:

; 241  : 	}
; 242  : 
; 243  : 	return false;

  00035	32 c0		 xor	 al, al
$LN1@Arabic_IsC:

; 244  : }

  00037	c9		 leave
  00038	c3		 ret	 0
?Arabic_IsComb2@@YA_N_W@Z ENDP				; Arabic_IsComb2
_TEXT	ENDS
; Function compile flags: /Odspy
; File D:\Metin2 Server Files\mainline\SRC_2014\Metin2Client\EterLocale\Arabic.cpp
;	COMDAT ?Arabic_IsComb1@@YA_N_W@Z
_TEXT	SEGMENT
tv66 = -4						; size = 4
_code$ = 8						; size = 2
?Arabic_IsComb1@@YA_N_W@Z PROC				; Arabic_IsComb1, COMDAT

; 228  : {

  00000	55		 push	 ebp
  00001	8b ec		 mov	 ebp, esp
  00003	51		 push	 ecx

; 229  : 	return (code == 0x0644);

  00004	0f b7 45 08	 movzx	 eax, WORD PTR _code$[ebp]
  00008	3d 44 06 00 00	 cmp	 eax, 1604		; 00000644H
  0000d	75 09		 jne	 SHORT $LN3@Arabic_IsC
  0000f	c7 45 fc 01 00
	00 00		 mov	 DWORD PTR tv66[ebp], 1
  00016	eb 04		 jmp	 SHORT $LN4@Arabic_IsC
$LN3@Arabic_IsC:
  00018	83 65 fc 00	 and	 DWORD PTR tv66[ebp], 0
$LN4@Arabic_IsC:
  0001c	8a 45 fc	 mov	 al, BYTE PTR tv66[ebp]

; 230  : }

  0001f	c9		 leave
  00020	c3		 ret	 0
?Arabic_IsComb1@@YA_N_W@Z ENDP				; Arabic_IsComb1
_TEXT	ENDS
; Function compile flags: /Odspy
; File D:\Metin2 Server Files\mainline\SRC_2014\Metin2Client\EterLocale\Arabic.cpp
;	COMDAT ?Arabic_IsNext@@YA_N_W@Z
_TEXT	SEGMENT
tv66 = -4						; size = 4
_code$ = 8						; size = 2
?Arabic_IsNext@@YA_N_W@Z PROC				; Arabic_IsNext, COMDAT

; 223  : {

  00000	55		 push	 ebp
  00001	8b ec		 mov	 ebp, esp
  00003	51		 push	 ecx

; 224  : 	return (code == 0x0640);

  00004	0f b7 45 08	 movzx	 eax, WORD PTR _code$[ebp]
  00008	3d 40 06 00 00	 cmp	 eax, 1600		; 00000640H
  0000d	75 09		 jne	 SHORT $LN3@Arabic_IsN
  0000f	c7 45 fc 01 00
	00 00		 mov	 DWORD PTR tv66[ebp], 1
  00016	eb 04		 jmp	 SHORT $LN4@Arabic_IsN
$LN3@Arabic_IsN:
  00018	83 65 fc 00	 and	 DWORD PTR tv66[ebp], 0
$LN4@Arabic_IsN:
  0001c	8a 45 fc	 mov	 al, BYTE PTR tv66[ebp]

; 225  : }

  0001f	c9		 leave
  00020	c3		 ret	 0
?Arabic_IsNext@@YA_N_W@Z ENDP				; Arabic_IsNext
_TEXT	ENDS
; Function compile flags: /Odspy
; File D:\Metin2 Server Files\mainline\SRC_2014\Metin2Client\EterLocale\Arabic.cpp
;	COMDAT ?Arabic_IsInComposing@@YA_N_W@Z
_TEXT	SEGMENT
tv65 = -4						; size = 4
_code$ = 8						; size = 2
?Arabic_IsInComposing@@YA_N_W@Z PROC			; Arabic_IsInComposing, COMDAT

; 178  : {

  00000	55		 push	 ebp
  00001	8b ec		 mov	 ebp, esp
  00003	51		 push	 ecx

; 179  : 	switch (code)

  00004	0f b7 45 08	 movzx	 eax, WORD PTR _code$[ebp]
  00008	89 45 fc	 mov	 DWORD PTR tv65[ebp], eax
  0000b	81 7d fc e4 06
	00 00		 cmp	 DWORD PTR tv65[ebp], 1764 ; 000006e4H
  00012	7f 38		 jg	 SHORT $LN6@Arabic_IsI
  00014	81 7d fc df 06
	00 00		 cmp	 DWORD PTR tv65[ebp], 1759 ; 000006dfH
  0001b	7d 55		 jge	 SHORT $LN4@Arabic_IsI
  0001d	81 7d fc 4b 06
	00 00		 cmp	 DWORD PTR tv65[ebp], 1611 ; 0000064bH
  00024	7c 50		 jl	 SHORT $LN2@Arabic_IsI
  00026	81 7d fc 55 06
	00 00		 cmp	 DWORD PTR tv65[ebp], 1621 ; 00000655H
  0002d	7e 43		 jle	 SHORT $LN4@Arabic_IsI
  0002f	81 7d fc 70 06
	00 00		 cmp	 DWORD PTR tv65[ebp], 1648 ; 00000670H
  00036	74 3a		 je	 SHORT $LN4@Arabic_IsI
  00038	81 7d fc d5 06
	00 00		 cmp	 DWORD PTR tv65[ebp], 1749 ; 000006d5H
  0003f	7e 35		 jle	 SHORT $LN2@Arabic_IsI
  00041	81 7d fc dc 06
	00 00		 cmp	 DWORD PTR tv65[ebp], 1756 ; 000006dcH
  00048	7e 28		 jle	 SHORT $LN4@Arabic_IsI
  0004a	eb 2a		 jmp	 SHORT $LN2@Arabic_IsI
$LN6@Arabic_IsI:
  0004c	81 7d fc e7 06
	00 00		 cmp	 DWORD PTR tv65[ebp], 1767 ; 000006e7H
  00053	7c 21		 jl	 SHORT $LN2@Arabic_IsI
  00055	81 7d fc e8 06
	00 00		 cmp	 DWORD PTR tv65[ebp], 1768 ; 000006e8H
  0005c	7e 14		 jle	 SHORT $LN4@Arabic_IsI
  0005e	81 7d fc e9 06
	00 00		 cmp	 DWORD PTR tv65[ebp], 1769 ; 000006e9H
  00065	7e 0f		 jle	 SHORT $LN2@Arabic_IsI
  00067	81 7d fc ed 06
	00 00		 cmp	 DWORD PTR tv65[ebp], 1773 ; 000006edH
  0006e	7e 02		 jle	 SHORT $LN4@Arabic_IsI
  00070	eb 04		 jmp	 SHORT $LN2@Arabic_IsI
$LN4@Arabic_IsI:

; 180  : 	{
; 181  : 		case 0x064B:         // FATHATAN
; 182  : 		case 0x064C:         // DAMMATAN
; 183  : 		case 0x064D:         // KASRATAN
; 184  : 		case 0x064E:         // FATHA
; 185  : 		case 0x064F:         // DAMMA
; 186  : 		case 0x0650:         // KASRA
; 187  : 		case 0x0651:         // SHADDA
; 188  : 		case 0x0652:         // SUKUN
; 189  : 		case 0x0653:         // MADDAH ABOVE
; 190  : 		case 0x0654:         // HAMZA ABOVE
; 191  : 		case 0x0655:         // HAMZA BELOW
; 192  : 		case 0x0670:         // SUPERSCRIPT ALEF
; 193  : 		case 0x06D6:         // HIGH LIG. SAD WITH LAM WITH ALEF MAKSURA
; 194  : 		case 0x06D7:         // HIGH LIG. QAF WITH LAM WITH ALEF MAKSURA
; 195  : 		case 0x06D8:         // HIGH MEEM INITIAL FORM
; 196  : 		case 0x06D9:         // HIGH LAM ALEF
; 197  : 		case 0x06DA:         // HIGH JEEM
; 198  : 		case 0x06DB:         // HIGH THREE DOTS
; 199  : 		case 0x06DC:         // HIGH SEEN
; 200  : 
; 201  : 		// The 2 entires below should not be here - contact unicode.org !!
; 202  : 		// case 0x06DD:         // END OF AYAH
; 203  : 		// case 0x06DE:         // START OF RUB EL HIZB
; 204  : 
; 205  : 		case 0x06DF:         // HIGH ROUNDED ZERO
; 206  : 		case 0x06E0:         // HIGH UPRIGHT RECTANGULAR ZERO
; 207  : 		case 0x06E1:         // HIGH DOTLESS HEAD OF KHAH
; 208  : 		case 0x06E2:         // HIGH MEEM ISOLATED FORM
; 209  : 		case 0x06E3:         // LOW SEEN
; 210  : 		case 0x06E4:         // HIGH MADDA
; 211  : 		case 0x06E7:         // HIGH YEH
; 212  : 		case 0x06E8:         // HIGH NOON
; 213  : 		case 0x06EA:         // EMPTY CENTRE LOW STOP
; 214  : 		case 0x06EB:         // EMPTY CENTRE HIGH STOP
; 215  : 		case 0x06EC:         // HIGH STOP WITH FILLED CENTRE
; 216  : 		case 0x06ED:         // LOW MEEM
; 217  : 			return true;

  00072	b0 01		 mov	 al, 1
  00074	eb 02		 jmp	 SHORT $LN1@Arabic_IsI
$LN2@Arabic_IsI:

; 218  : 	}
; 219  : 	return false;

  00076	32 c0		 xor	 al, al
$LN1@Arabic_IsI:

; 220  : }

  00078	c9		 leave
  00079	c3		 ret	 0
?Arabic_IsInComposing@@YA_N_W@Z ENDP			; Arabic_IsInComposing
_TEXT	ENDS
; Function compile flags: /Odspy
; File D:\Metin2 Server Files\mainline\SRC_2014\Metin2Client\EterLocale\Arabic.cpp
;	COMDAT ?Arabic_IsInMap@@YA_N_W@Z
_TEXT	SEGMENT
tv68 = -4						; size = 4
_code$ = 8						; size = 2
?Arabic_IsInMap@@YA_N_W@Z PROC				; Arabic_IsInMap, COMDAT

; 173  : {

  00000	55		 push	 ebp
  00001	8b ec		 mov	 ebp, esp
  00003	51		 push	 ecx

; 174  : 	return (code >= ARABIC_CODE_BASE && code <= ARABIC_CODE_LAST);

  00004	0f b7 45 08	 movzx	 eax, WORD PTR _code$[ebp]
  00008	3d 21 06 00 00	 cmp	 eax, 1569		; 00000621H
  0000d	7c 14		 jl	 SHORT $LN3@Arabic_IsI
  0000f	0f b7 45 08	 movzx	 eax, WORD PTR _code$[ebp]
  00013	3d 4a 06 00 00	 cmp	 eax, 1610		; 0000064aH
  00018	7f 09		 jg	 SHORT $LN3@Arabic_IsI
  0001a	c7 45 fc 01 00
	00 00		 mov	 DWORD PTR tv68[ebp], 1
  00021	eb 04		 jmp	 SHORT $LN4@Arabic_IsI
$LN3@Arabic_IsI:
  00023	83 65 fc 00	 and	 DWORD PTR tv68[ebp], 0
$LN4@Arabic_IsI:
  00027	8a 45 fc	 mov	 al, BYTE PTR tv68[ebp]

; 175  : }

  0002a	c9		 leave
  0002b	c3		 ret	 0
?Arabic_IsInMap@@YA_N_W@Z ENDP				; Arabic_IsInMap
_TEXT	ENDS
; Function compile flags: /Odspy
; File D:\Metin2 Server Files\mainline\SRC_2014\Metin2Client\EterLocale\Arabic.cpp
;	COMDAT ?Arabic_GetMap@@YA_W_WW4ARABIC_FORM_TYPE@@@Z
_TEXT	SEGMENT
tv65 = -4						; size = 4
_code$ = 8						; size = 2
_pos$ = 12						; size = 4
?Arabic_GetMap@@YA_W_WW4ARABIC_FORM_TYPE@@@Z PROC	; Arabic_GetMap, COMDAT

; 90   : {

  00000	55		 push	 ebp
  00001	8b ec		 mov	 ebp, esp
  00003	51		 push	 ecx

; 91   : 	static wchar_t HAMZA[ARABIC_FORM_TYPE_NUM]				= {0x0621        ,      0xFE80,      0,      0,      0};        
; 92   : 	static wchar_t ALEF_MADDA[ARABIC_FORM_TYPE_NUM]			= {0x0622        ,      0xFE81,      0,      0, 0xFE82};        
; 93   : 	static wchar_t ALEF_HAMZA_ABOVE[ARABIC_FORM_TYPE_NUM]	= {0x0623        ,      0xFE83,      0,      0, 0xFE84};        
; 94   : 	static wchar_t WAW_HAMZA[ARABIC_FORM_TYPE_NUM]			= {0x0624        ,      0xFE85,      0,      0, 0xFE86};        
; 95   : 	static wchar_t ALEF_HAMZA_BELOW[ARABIC_FORM_TYPE_NUM]	= {0x0625        ,      0xFE87,      0,      0, 0xFE88};        
; 96   : 	static wchar_t YEH_HAMZA[ARABIC_FORM_TYPE_NUM]			= {0x0626        ,      0xFE89, 0xFE8B, 0xFE8C, 0xFE8A};        
; 97   : 	static wchar_t ALEF[ARABIC_FORM_TYPE_NUM]				= {0x0627        ,      0xFE8D,      0,      0, 0xFE8E};        
; 98   : 	static wchar_t BEH[ARABIC_FORM_TYPE_NUM]				= {0x0628        ,      0xFE8F, 0xFE91, 0xFE92, 0xFE90};        
; 99   : 	static wchar_t TEH_MARBUTA[ARABIC_FORM_TYPE_NUM]		= {0x0629        ,      0xFE93,      0,      0, 0xFE94};        
; 100  : 	static wchar_t TEH[ARABIC_FORM_TYPE_NUM]				= {0x062A        ,      0xFE95, 0xFE97, 0xFE98, 0xFE96};        
; 101  : 	static wchar_t THEH[ARABIC_FORM_TYPE_NUM]				= {0x062B        ,      0xFE99, 0xFE9B, 0xFE9C, 0xFE9A};        
; 102  : 	static wchar_t JEEM[ARABIC_FORM_TYPE_NUM]				= {0x062C        ,      0xFE9D, 0xFE9F, 0xFEA0, 0xFE9E};        
; 103  : 	static wchar_t HAH[ARABIC_FORM_TYPE_NUM]				= {0x062D        ,      0xFEA1, 0xFEA3, 0xFEA4, 0xFEA2};        
; 104  : 	static wchar_t KHAH[ARABIC_FORM_TYPE_NUM]				= {0x062E        ,      0xFEA5, 0xFEA7, 0xFEA8, 0xFEA6};        
; 105  : 	static wchar_t DAL[ARABIC_FORM_TYPE_NUM]				= {0x062F        ,      0xFEA9,      0,      0, 0xFEAA};        
; 106  : 	static wchar_t THAL[ARABIC_FORM_TYPE_NUM]				= {0x0630        ,      0xFEAB,      0,      0, 0xFEAC};        
; 107  : 	static wchar_t REH[ARABIC_FORM_TYPE_NUM]				= {0x0631        ,      0xFEAD,      0,      0, 0xFEAE};        
; 108  : 	static wchar_t ZAIN[ARABIC_FORM_TYPE_NUM]				= {0x0632        ,      0xFEAF,      0,      0, 0xFEB0};        
; 109  : 	static wchar_t SEEN[ARABIC_FORM_TYPE_NUM]				= {0x0633        ,      0xFEB1, 0xFEB3, 0xFEB4, 0xFEB2};        
; 110  : 	static wchar_t SHEEN[ARABIC_FORM_TYPE_NUM]				= {0x0634        ,      0xFEB5, 0xFEB7, 0xFEB8, 0xFEB6};        
; 111  : 	static wchar_t SAD[ARABIC_FORM_TYPE_NUM]				= {0x0635        ,      0xFEB9, 0xFEBB, 0xFEBC, 0xFEBA};        
; 112  : 	static wchar_t DAD[ARABIC_FORM_TYPE_NUM]				= {0x0636        ,      0xFEBD, 0xFEBF, 0xFEC0, 0xFEBE};        
; 113  : 	static wchar_t TAH[ARABIC_FORM_TYPE_NUM]				= {0x0637        ,      0xFEC1, 0xFEC3, 0xFEC4, 0xFEC2};        
; 114  : 	static wchar_t ZAH[ARABIC_FORM_TYPE_NUM]				= {0x0638        ,      0xFEC5, 0xFEC7, 0xFEC8, 0xFEC6};        
; 115  : 	static wchar_t AIN[ARABIC_FORM_TYPE_NUM]				= {0x0639        ,      0xFEC9, 0xFECB, 0xFECC, 0xFECA};        
; 116  : 	static wchar_t GHAIN[ARABIC_FORM_TYPE_NUM]				= {0x063A        ,      0xFECD, 0xFECF, 0xFED0, 0xFECE};        
; 117  : 	static wchar_t TATWEEL[ARABIC_FORM_TYPE_NUM]			= {0x0640        ,      0x0640,      0,      0,      0};        
; 118  : 	static wchar_t OX_FEH[ARABIC_FORM_TYPE_NUM]				= {0x0641        ,      0xFED1, 0xFED3, 0xFED4, 0xFED2};        
; 119  : 	static wchar_t QAF[ARABIC_FORM_TYPE_NUM]				= {0x0642        ,      0xFED5, 0xFED7, 0xFED8, 0xFED6};        
; 120  : 	static wchar_t KAF[ARABIC_FORM_TYPE_NUM]				= {0x0643        ,      0xFED9, 0xFEDB, 0xFEDC, 0xFEDA};        
; 121  : 	static wchar_t LAM[ARABIC_FORM_TYPE_NUM]				= {0x0644        ,      0xFEDD, 0xFEDF, 0xFEE0, 0xFEDE};        
; 122  : 	static wchar_t MEEM[ARABIC_FORM_TYPE_NUM]				= {0x0645        ,      0xFEE1, 0xFEE3, 0xFEE4, 0xFEE2};        
; 123  : 	static wchar_t NOON[ARABIC_FORM_TYPE_NUM]				= {0x0646        ,      0xFEE5, 0xFEE7, 0xFEE8, 0xFEE6};        
; 124  : 	static wchar_t HEH[ARABIC_FORM_TYPE_NUM]				= {0x0647        ,      0xFEE9, 0xFEEB, 0xFEEC, 0xFEEA};        
; 125  : 	static wchar_t WAW[ARABIC_FORM_TYPE_NUM]				= {0x0648        ,      0xFEED,      0,      0, 0xFEEE};        
; 126  : 	static wchar_t ALEF_MAKSURA[ARABIC_FORM_TYPE_NUM]		= {0x0649        ,      0xFEEF,      0,      0, 0xFEF0};        
; 127  : 	static wchar_t YEH[ARABIC_FORM_TYPE_NUM]				= {0x064A        ,      0xFEF1, 0xFEF3, 0xFEF4, 0xFEF2};  
; 128  : 
; 129  : 	switch (code)

  00004	0f b7 45 08	 movzx	 eax, WORD PTR _code$[ebp]
  00008	89 45 fc	 mov	 DWORD PTR tv65[ebp], eax
  0000b	8b 45 fc	 mov	 eax, DWORD PTR tv65[ebp]
  0000e	2d 21 06 00 00	 sub	 eax, 1569		; 00000621H
  00013	89 45 fc	 mov	 DWORD PTR tv65[ebp], eax
  00016	83 7d fc 29	 cmp	 DWORD PTR tv65[ebp], 41	; 00000029H
  0001a	0f 87 db 02 00
	00		 ja	 $LN2@Arabic_Get
  00020	8b 45 fc	 mov	 eax, DWORD PTR tv65[ebp]
  00023	ff 24 85 00 00
	00 00		 jmp	 DWORD PTR $LN42@Arabic_Get[eax*4]
$LN4@Arabic_Get:

; 130  : 	{
; 131  : 		case 0x0621: return	HAMZA[pos];break;				

  0002a	8b 45 0c	 mov	 eax, DWORD PTR _pos$[ebp]
  0002d	66 8b 04 45 00
	00 00 00	 mov	 ax, WORD PTR ?HAMZA@?1??Arabic_GetMap@@YA_W_WW4ARABIC_FORM_TYPE@@@Z@4PA_WA[eax*2]
  00035	e9 c3 02 00 00	 jmp	 $LN1@Arabic_Get
  0003a	e9 bc 02 00 00	 jmp	 $LN2@Arabic_Get
$LN5@Arabic_Get:

; 132  : 		case 0x0622: return	ALEF_MADDA[pos];break;		

  0003f	8b 45 0c	 mov	 eax, DWORD PTR _pos$[ebp]
  00042	66 8b 04 45 00
	00 00 00	 mov	 ax, WORD PTR ?ALEF_MADDA@?1??Arabic_GetMap@@YA_W_WW4ARABIC_FORM_TYPE@@@Z@4PA_WA[eax*2]
  0004a	e9 ae 02 00 00	 jmp	 $LN1@Arabic_Get
  0004f	e9 a7 02 00 00	 jmp	 $LN2@Arabic_Get
$LN6@Arabic_Get:

; 133  : 		case 0x0623: return	ALEF_HAMZA_ABOVE[pos];break;	

  00054	8b 45 0c	 mov	 eax, DWORD PTR _pos$[ebp]
  00057	66 8b 04 45 00
	00 00 00	 mov	 ax, WORD PTR ?ALEF_HAMZA_ABOVE@?1??Arabic_GetMap@@YA_W_WW4ARABIC_FORM_TYPE@@@Z@4PA_WA[eax*2]
  0005f	e9 99 02 00 00	 jmp	 $LN1@Arabic_Get
  00064	e9 92 02 00 00	 jmp	 $LN2@Arabic_Get
$LN7@Arabic_Get:

; 134  : 		case 0x0624: return	WAW_HAMZA[pos];break;			

  00069	8b 45 0c	 mov	 eax, DWORD PTR _pos$[ebp]
  0006c	66 8b 04 45 00
	00 00 00	 mov	 ax, WORD PTR ?WAW_HAMZA@?1??Arabic_GetMap@@YA_W_WW4ARABIC_FORM_TYPE@@@Z@4PA_WA[eax*2]
  00074	e9 84 02 00 00	 jmp	 $LN1@Arabic_Get
  00079	e9 7d 02 00 00	 jmp	 $LN2@Arabic_Get
$LN8@Arabic_Get:

; 135  : 		case 0x0625: return	ALEF_HAMZA_BELOW[pos];break;	

  0007e	8b 45 0c	 mov	 eax, DWORD PTR _pos$[ebp]
  00081	66 8b 04 45 00
	00 00 00	 mov	 ax, WORD PTR ?ALEF_HAMZA_BELOW@?1??Arabic_GetMap@@YA_W_WW4ARABIC_FORM_TYPE@@@Z@4PA_WA[eax*2]
  00089	e9 6f 02 00 00	 jmp	 $LN1@Arabic_Get
  0008e	e9 68 02 00 00	 jmp	 $LN2@Arabic_Get
$LN9@Arabic_Get:

; 136  : 		case 0x0626: return	YEH_HAMZA[pos];break;			

  00093	8b 45 0c	 mov	 eax, DWORD PTR _pos$[ebp]
  00096	66 8b 04 45 00
	00 00 00	 mov	 ax, WORD PTR ?YEH_HAMZA@?1??Arabic_GetMap@@YA_W_WW4ARABIC_FORM_TYPE@@@Z@4PA_WA[eax*2]
  0009e	e9 5a 02 00 00	 jmp	 $LN1@Arabic_Get
  000a3	e9 53 02 00 00	 jmp	 $LN2@Arabic_Get
$LN10@Arabic_Get:

; 137  : 		case 0x0627: return	ALEF[pos];break;				

  000a8	8b 45 0c	 mov	 eax, DWORD PTR _pos$[ebp]
  000ab	66 8b 04 45 00
	00 00 00	 mov	 ax, WORD PTR ?ALEF@?1??Arabic_GetMap@@YA_W_WW4ARABIC_FORM_TYPE@@@Z@4PA_WA[eax*2]
  000b3	e9 45 02 00 00	 jmp	 $LN1@Arabic_Get
  000b8	e9 3e 02 00 00	 jmp	 $LN2@Arabic_Get
$LN11@Arabic_Get:

; 138  : 		case 0x0628: return	BEH[pos];break;				

  000bd	8b 45 0c	 mov	 eax, DWORD PTR _pos$[ebp]
  000c0	66 8b 04 45 00
	00 00 00	 mov	 ax, WORD PTR ?BEH@?1??Arabic_GetMap@@YA_W_WW4ARABIC_FORM_TYPE@@@Z@4PA_WA[eax*2]
  000c8	e9 30 02 00 00	 jmp	 $LN1@Arabic_Get
  000cd	e9 29 02 00 00	 jmp	 $LN2@Arabic_Get
$LN12@Arabic_Get:

; 139  : 		case 0x0629: return	TEH_MARBUTA[pos];break;		

  000d2	8b 45 0c	 mov	 eax, DWORD PTR _pos$[ebp]
  000d5	66 8b 04 45 00
	00 00 00	 mov	 ax, WORD PTR ?TEH_MARBUTA@?1??Arabic_GetMap@@YA_W_WW4ARABIC_FORM_TYPE@@@Z@4PA_WA[eax*2]
  000dd	e9 1b 02 00 00	 jmp	 $LN1@Arabic_Get
  000e2	e9 14 02 00 00	 jmp	 $LN2@Arabic_Get
$LN13@Arabic_Get:

; 140  : 		case 0x062A: return	TEH[pos];break;				

  000e7	8b 45 0c	 mov	 eax, DWORD PTR _pos$[ebp]
  000ea	66 8b 04 45 00
	00 00 00	 mov	 ax, WORD PTR ?TEH@?1??Arabic_GetMap@@YA_W_WW4ARABIC_FORM_TYPE@@@Z@4PA_WA[eax*2]
  000f2	e9 06 02 00 00	 jmp	 $LN1@Arabic_Get
  000f7	e9 ff 01 00 00	 jmp	 $LN2@Arabic_Get
$LN14@Arabic_Get:

; 141  : 		case 0x062B: return	THEH[pos];break;				

  000fc	8b 45 0c	 mov	 eax, DWORD PTR _pos$[ebp]
  000ff	66 8b 04 45 00
	00 00 00	 mov	 ax, WORD PTR ?THEH@?1??Arabic_GetMap@@YA_W_WW4ARABIC_FORM_TYPE@@@Z@4PA_WA[eax*2]
  00107	e9 f1 01 00 00	 jmp	 $LN1@Arabic_Get
  0010c	e9 ea 01 00 00	 jmp	 $LN2@Arabic_Get
$LN15@Arabic_Get:

; 142  : 		case 0x062C: return	JEEM[pos];break;				

  00111	8b 45 0c	 mov	 eax, DWORD PTR _pos$[ebp]
  00114	66 8b 04 45 00
	00 00 00	 mov	 ax, WORD PTR ?JEEM@?1??Arabic_GetMap@@YA_W_WW4ARABIC_FORM_TYPE@@@Z@4PA_WA[eax*2]
  0011c	e9 dc 01 00 00	 jmp	 $LN1@Arabic_Get
  00121	e9 d5 01 00 00	 jmp	 $LN2@Arabic_Get
$LN16@Arabic_Get:

; 143  : 		case 0x062D: return	HAH[pos];break;				

  00126	8b 45 0c	 mov	 eax, DWORD PTR _pos$[ebp]
  00129	66 8b 04 45 00
	00 00 00	 mov	 ax, WORD PTR ?HAH@?1??Arabic_GetMap@@YA_W_WW4ARABIC_FORM_TYPE@@@Z@4PA_WA[eax*2]
  00131	e9 c7 01 00 00	 jmp	 $LN1@Arabic_Get
  00136	e9 c0 01 00 00	 jmp	 $LN2@Arabic_Get
$LN17@Arabic_Get:

; 144  : 		case 0x062E: return	KHAH[pos];break;				

  0013b	8b 45 0c	 mov	 eax, DWORD PTR _pos$[ebp]
  0013e	66 8b 04 45 00
	00 00 00	 mov	 ax, WORD PTR ?KHAH@?1??Arabic_GetMap@@YA_W_WW4ARABIC_FORM_TYPE@@@Z@4PA_WA[eax*2]
  00146	e9 b2 01 00 00	 jmp	 $LN1@Arabic_Get
  0014b	e9 ab 01 00 00	 jmp	 $LN2@Arabic_Get
$LN18@Arabic_Get:

; 145  : 		case 0x062F: return	DAL[pos];break;				

  00150	8b 45 0c	 mov	 eax, DWORD PTR _pos$[ebp]
  00153	66 8b 04 45 00
	00 00 00	 mov	 ax, WORD PTR ?DAL@?1??Arabic_GetMap@@YA_W_WW4ARABIC_FORM_TYPE@@@Z@4PA_WA[eax*2]
  0015b	e9 9d 01 00 00	 jmp	 $LN1@Arabic_Get
  00160	e9 96 01 00 00	 jmp	 $LN2@Arabic_Get
$LN19@Arabic_Get:

; 146  : 		case 0x0630: return	THAL[pos];break;				

  00165	8b 45 0c	 mov	 eax, DWORD PTR _pos$[ebp]
  00168	66 8b 04 45 00
	00 00 00	 mov	 ax, WORD PTR ?THAL@?1??Arabic_GetMap@@YA_W_WW4ARABIC_FORM_TYPE@@@Z@4PA_WA[eax*2]
  00170	e9 88 01 00 00	 jmp	 $LN1@Arabic_Get
  00175	e9 81 01 00 00	 jmp	 $LN2@Arabic_Get
$LN20@Arabic_Get:

; 147  : 		case 0x0631: return	REH[pos];break;				

  0017a	8b 45 0c	 mov	 eax, DWORD PTR _pos$[ebp]
  0017d	66 8b 04 45 00
	00 00 00	 mov	 ax, WORD PTR ?REH@?1??Arabic_GetMap@@YA_W_WW4ARABIC_FORM_TYPE@@@Z@4PA_WA[eax*2]
  00185	e9 73 01 00 00	 jmp	 $LN1@Arabic_Get
  0018a	e9 6c 01 00 00	 jmp	 $LN2@Arabic_Get
$LN21@Arabic_Get:

; 148  : 		case 0x0632: return	ZAIN[pos];break;				

  0018f	8b 45 0c	 mov	 eax, DWORD PTR _pos$[ebp]
  00192	66 8b 04 45 00
	00 00 00	 mov	 ax, WORD PTR ?ZAIN@?1??Arabic_GetMap@@YA_W_WW4ARABIC_FORM_TYPE@@@Z@4PA_WA[eax*2]
  0019a	e9 5e 01 00 00	 jmp	 $LN1@Arabic_Get
  0019f	e9 57 01 00 00	 jmp	 $LN2@Arabic_Get
$LN22@Arabic_Get:

; 149  : 		case 0x0633: return	SEEN[pos];break;				

  001a4	8b 45 0c	 mov	 eax, DWORD PTR _pos$[ebp]
  001a7	66 8b 04 45 00
	00 00 00	 mov	 ax, WORD PTR ?SEEN@?1??Arabic_GetMap@@YA_W_WW4ARABIC_FORM_TYPE@@@Z@4PA_WA[eax*2]
  001af	e9 49 01 00 00	 jmp	 $LN1@Arabic_Get
  001b4	e9 42 01 00 00	 jmp	 $LN2@Arabic_Get
$LN23@Arabic_Get:

; 150  : 		case 0x0634: return	SHEEN[pos];break;				

  001b9	8b 45 0c	 mov	 eax, DWORD PTR _pos$[ebp]
  001bc	66 8b 04 45 00
	00 00 00	 mov	 ax, WORD PTR ?SHEEN@?1??Arabic_GetMap@@YA_W_WW4ARABIC_FORM_TYPE@@@Z@4PA_WA[eax*2]
  001c4	e9 34 01 00 00	 jmp	 $LN1@Arabic_Get
  001c9	e9 2d 01 00 00	 jmp	 $LN2@Arabic_Get
$LN24@Arabic_Get:

; 151  : 		case 0x0635: return	SAD[pos];break;				

  001ce	8b 45 0c	 mov	 eax, DWORD PTR _pos$[ebp]
  001d1	66 8b 04 45 00
	00 00 00	 mov	 ax, WORD PTR ?SAD@?1??Arabic_GetMap@@YA_W_WW4ARABIC_FORM_TYPE@@@Z@4PA_WA[eax*2]
  001d9	e9 1f 01 00 00	 jmp	 $LN1@Arabic_Get
  001de	e9 18 01 00 00	 jmp	 $LN2@Arabic_Get
$LN25@Arabic_Get:

; 152  : 		case 0x0636: return	DAD[pos];break;				

  001e3	8b 45 0c	 mov	 eax, DWORD PTR _pos$[ebp]
  001e6	66 8b 04 45 00
	00 00 00	 mov	 ax, WORD PTR ?DAD@?1??Arabic_GetMap@@YA_W_WW4ARABIC_FORM_TYPE@@@Z@4PA_WA[eax*2]
  001ee	e9 0a 01 00 00	 jmp	 $LN1@Arabic_Get
  001f3	e9 03 01 00 00	 jmp	 $LN2@Arabic_Get
$LN26@Arabic_Get:

; 153  : 		case 0x0637: return	TAH[pos];break;				

  001f8	8b 45 0c	 mov	 eax, DWORD PTR _pos$[ebp]
  001fb	66 8b 04 45 00
	00 00 00	 mov	 ax, WORD PTR ?TAH@?1??Arabic_GetMap@@YA_W_WW4ARABIC_FORM_TYPE@@@Z@4PA_WA[eax*2]
  00203	e9 f5 00 00 00	 jmp	 $LN1@Arabic_Get
  00208	e9 ee 00 00 00	 jmp	 $LN2@Arabic_Get
$LN27@Arabic_Get:

; 154  : 		case 0x0638: return	ZAH[pos];break;				

  0020d	8b 45 0c	 mov	 eax, DWORD PTR _pos$[ebp]
  00210	66 8b 04 45 00
	00 00 00	 mov	 ax, WORD PTR ?ZAH@?1??Arabic_GetMap@@YA_W_WW4ARABIC_FORM_TYPE@@@Z@4PA_WA[eax*2]
  00218	e9 e0 00 00 00	 jmp	 $LN1@Arabic_Get
  0021d	e9 d9 00 00 00	 jmp	 $LN2@Arabic_Get
$LN28@Arabic_Get:

; 155  : 		case 0x0639: return	AIN[pos];break;				

  00222	8b 45 0c	 mov	 eax, DWORD PTR _pos$[ebp]
  00225	66 8b 04 45 00
	00 00 00	 mov	 ax, WORD PTR ?AIN@?1??Arabic_GetMap@@YA_W_WW4ARABIC_FORM_TYPE@@@Z@4PA_WA[eax*2]
  0022d	e9 cb 00 00 00	 jmp	 $LN1@Arabic_Get
  00232	e9 c4 00 00 00	 jmp	 $LN2@Arabic_Get
$LN29@Arabic_Get:

; 156  : 		case 0x063A: return	GHAIN[pos];break;				

  00237	8b 45 0c	 mov	 eax, DWORD PTR _pos$[ebp]
  0023a	66 8b 04 45 00
	00 00 00	 mov	 ax, WORD PTR ?GHAIN@?1??Arabic_GetMap@@YA_W_WW4ARABIC_FORM_TYPE@@@Z@4PA_WA[eax*2]
  00242	e9 b6 00 00 00	 jmp	 $LN1@Arabic_Get
  00247	e9 af 00 00 00	 jmp	 $LN2@Arabic_Get
$LN30@Arabic_Get:

; 157  : 		case 0x0640: return	TATWEEL[pos];break;			

  0024c	8b 45 0c	 mov	 eax, DWORD PTR _pos$[ebp]
  0024f	66 8b 04 45 00
	00 00 00	 mov	 ax, WORD PTR ?TATWEEL@?1??Arabic_GetMap@@YA_W_WW4ARABIC_FORM_TYPE@@@Z@4PA_WA[eax*2]
  00257	e9 a1 00 00 00	 jmp	 $LN1@Arabic_Get
  0025c	e9 9a 00 00 00	 jmp	 $LN2@Arabic_Get
$LN31@Arabic_Get:

; 158  : 		case 0x0641: return	OX_FEH[pos];break;			

  00261	8b 45 0c	 mov	 eax, DWORD PTR _pos$[ebp]
  00264	66 8b 04 45 00
	00 00 00	 mov	 ax, WORD PTR ?OX_FEH@?1??Arabic_GetMap@@YA_W_WW4ARABIC_FORM_TYPE@@@Z@4PA_WA[eax*2]
  0026c	e9 8c 00 00 00	 jmp	 $LN1@Arabic_Get
  00271	e9 85 00 00 00	 jmp	 $LN2@Arabic_Get
$LN32@Arabic_Get:

; 159  : 		case 0x0642: return	QAF[pos];break;				

  00276	8b 45 0c	 mov	 eax, DWORD PTR _pos$[ebp]
  00279	66 8b 04 45 00
	00 00 00	 mov	 ax, WORD PTR ?QAF@?1??Arabic_GetMap@@YA_W_WW4ARABIC_FORM_TYPE@@@Z@4PA_WA[eax*2]
  00281	eb 7a		 jmp	 SHORT $LN1@Arabic_Get
  00283	eb 76		 jmp	 SHORT $LN2@Arabic_Get
$LN33@Arabic_Get:

; 160  : 		case 0x0643: return	KAF[pos];break;				

  00285	8b 45 0c	 mov	 eax, DWORD PTR _pos$[ebp]
  00288	66 8b 04 45 00
	00 00 00	 mov	 ax, WORD PTR ?KAF@?1??Arabic_GetMap@@YA_W_WW4ARABIC_FORM_TYPE@@@Z@4PA_WA[eax*2]
  00290	eb 6b		 jmp	 SHORT $LN1@Arabic_Get
  00292	eb 67		 jmp	 SHORT $LN2@Arabic_Get
$LN34@Arabic_Get:

; 161  : 		case 0x0644: return	LAM[pos];break;				

  00294	8b 45 0c	 mov	 eax, DWORD PTR _pos$[ebp]
  00297	66 8b 04 45 00
	00 00 00	 mov	 ax, WORD PTR ?LAM@?1??Arabic_GetMap@@YA_W_WW4ARABIC_FORM_TYPE@@@Z@4PA_WA[eax*2]
  0029f	eb 5c		 jmp	 SHORT $LN1@Arabic_Get
  002a1	eb 58		 jmp	 SHORT $LN2@Arabic_Get
$LN35@Arabic_Get:

; 162  : 		case 0x0645: return	MEEM[pos];break;				

  002a3	8b 45 0c	 mov	 eax, DWORD PTR _pos$[ebp]
  002a6	66 8b 04 45 00
	00 00 00	 mov	 ax, WORD PTR ?MEEM@?1??Arabic_GetMap@@YA_W_WW4ARABIC_FORM_TYPE@@@Z@4PA_WA[eax*2]
  002ae	eb 4d		 jmp	 SHORT $LN1@Arabic_Get
  002b0	eb 49		 jmp	 SHORT $LN2@Arabic_Get
$LN36@Arabic_Get:

; 163  : 		case 0x0646: return	NOON[pos];break;				

  002b2	8b 45 0c	 mov	 eax, DWORD PTR _pos$[ebp]
  002b5	66 8b 04 45 00
	00 00 00	 mov	 ax, WORD PTR ?NOON@?1??Arabic_GetMap@@YA_W_WW4ARABIC_FORM_TYPE@@@Z@4PA_WA[eax*2]
  002bd	eb 3e		 jmp	 SHORT $LN1@Arabic_Get
  002bf	eb 3a		 jmp	 SHORT $LN2@Arabic_Get
$LN37@Arabic_Get:

; 164  : 		case 0x0647: return	HEH[pos];break;				

  002c1	8b 45 0c	 mov	 eax, DWORD PTR _pos$[ebp]
  002c4	66 8b 04 45 00
	00 00 00	 mov	 ax, WORD PTR ?HEH@?1??Arabic_GetMap@@YA_W_WW4ARABIC_FORM_TYPE@@@Z@4PA_WA[eax*2]
  002cc	eb 2f		 jmp	 SHORT $LN1@Arabic_Get
  002ce	eb 2b		 jmp	 SHORT $LN2@Arabic_Get
$LN38@Arabic_Get:

; 165  : 		case 0x0648: return	WAW[pos];break;				

  002d0	8b 45 0c	 mov	 eax, DWORD PTR _pos$[ebp]
  002d3	66 8b 04 45 00
	00 00 00	 mov	 ax, WORD PTR ?WAW@?1??Arabic_GetMap@@YA_W_WW4ARABIC_FORM_TYPE@@@Z@4PA_WA[eax*2]
  002db	eb 20		 jmp	 SHORT $LN1@Arabic_Get
  002dd	eb 1c		 jmp	 SHORT $LN2@Arabic_Get
$LN39@Arabic_Get:

; 166  : 		case 0x0649: return	ALEF_MAKSURA[pos];break;		

  002df	8b 45 0c	 mov	 eax, DWORD PTR _pos$[ebp]
  002e2	66 8b 04 45 00
	00 00 00	 mov	 ax, WORD PTR ?ALEF_MAKSURA@?1??Arabic_GetMap@@YA_W_WW4ARABIC_FORM_TYPE@@@Z@4PA_WA[eax*2]
  002ea	eb 11		 jmp	 SHORT $LN1@Arabic_Get
  002ec	eb 0d		 jmp	 SHORT $LN2@Arabic_Get
$LN40@Arabic_Get:

; 167  : 		case 0x064A: return	YEH[pos];break;				

  002ee	8b 45 0c	 mov	 eax, DWORD PTR _pos$[ebp]
  002f1	66 8b 04 45 00
	00 00 00	 mov	 ax, WORD PTR ?YEH@?1??Arabic_GetMap@@YA_W_WW4ARABIC_FORM_TYPE@@@Z@4PA_WA[eax*2]
  002f9	eb 02		 jmp	 SHORT $LN1@Arabic_Get
$LN2@Arabic_Get:

; 168  : 	}
; 169  : 	return 0;

  002fb	33 c0		 xor	 eax, eax
$LN1@Arabic_Get:

; 170  : }

  002fd	c9		 leave
  002fe	c3		 ret	 0
  002ff	90		 npad	 1
$LN42@Arabic_Get:
  00300	00 00 00 00	 DD	 $LN4@Arabic_Get
  00304	00 00 00 00	 DD	 $LN5@Arabic_Get
  00308	00 00 00 00	 DD	 $LN6@Arabic_Get
  0030c	00 00 00 00	 DD	 $LN7@Arabic_Get
  00310	00 00 00 00	 DD	 $LN8@Arabic_Get
  00314	00 00 00 00	 DD	 $LN9@Arabic_Get
  00318	00 00 00 00	 DD	 $LN10@Arabic_Get
  0031c	00 00 00 00	 DD	 $LN11@Arabic_Get
  00320	00 00 00 00	 DD	 $LN12@Arabic_Get
  00324	00 00 00 00	 DD	 $LN13@Arabic_Get
  00328	00 00 00 00	 DD	 $LN14@Arabic_Get
  0032c	00 00 00 00	 DD	 $LN15@Arabic_Get
  00330	00 00 00 00	 DD	 $LN16@Arabic_Get
  00334	00 00 00 00	 DD	 $LN17@Arabic_Get
  00338	00 00 00 00	 DD	 $LN18@Arabic_Get
  0033c	00 00 00 00	 DD	 $LN19@Arabic_Get
  00340	00 00 00 00	 DD	 $LN20@Arabic_Get
  00344	00 00 00 00	 DD	 $LN21@Arabic_Get
  00348	00 00 00 00	 DD	 $LN22@Arabic_Get
  0034c	00 00 00 00	 DD	 $LN23@Arabic_Get
  00350	00 00 00 00	 DD	 $LN24@Arabic_Get
  00354	00 00 00 00	 DD	 $LN25@Arabic_Get
  00358	00 00 00 00	 DD	 $LN26@Arabic_Get
  0035c	00 00 00 00	 DD	 $LN27@Arabic_Get
  00360	00 00 00 00	 DD	 $LN28@Arabic_Get
  00364	00 00 00 00	 DD	 $LN29@Arabic_Get
  00368	00 00 00 00	 DD	 $LN2@Arabic_Get
  0036c	00 00 00 00	 DD	 $LN2@Arabic_Get
  00370	00 00 00 00	 DD	 $LN2@Arabic_Get
  00374	00 00 00 00	 DD	 $LN2@Arabic_Get
  00378	00 00 00 00	 DD	 $LN2@Arabic_Get
  0037c	00 00 00 00	 DD	 $LN30@Arabic_Get
  00380	00 00 00 00	 DD	 $LN31@Arabic_Get
  00384	00 00 00 00	 DD	 $LN32@Arabic_Get
  00388	00 00 00 00	 DD	 $LN33@Arabic_Get
  0038c	00 00 00 00	 DD	 $LN34@Arabic_Get
  00390	00 00 00 00	 DD	 $LN35@Arabic_Get
  00394	00 00 00 00	 DD	 $LN36@Arabic_Get
  00398	00 00 00 00	 DD	 $LN37@Arabic_Get
  0039c	00 00 00 00	 DD	 $LN38@Arabic_Get
  003a0	00 00 00 00	 DD	 $LN39@Arabic_Get
  003a4	00 00 00 00	 DD	 $LN40@Arabic_Get
?Arabic_GetMap@@YA_W_WW4ARABIC_FORM_TYPE@@@Z ENDP	; Arabic_GetMap
_TEXT	ENDS
; Function compile flags: /Odspy
; File D:\Metin2 Server Files\mainline\SRC_2014\Metin2Client\EterLocale\Arabic.cpp
;	COMDAT ?Arabic_GetComposition@@YA_W_W0W4ARABIC_FORM_TYPE@@@Z
_TEXT	SEGMENT
tv65 = -8						; size = 4
tv67 = -4						; size = 4
_cur$ = 8						; size = 2
_next$ = 12						; size = 2
_pos$ = 16						; size = 4
?Arabic_GetComposition@@YA_W_W0W4ARABIC_FORM_TYPE@@@Z PROC ; Arabic_GetComposition, COMDAT

; 68   : {

  00000	55		 push	 ebp
  00001	8b ec		 mov	 ebp, esp
  00003	51		 push	 ecx
  00004	51		 push	 ecx

; 69   : 	static wchar_t LAM_ALEF_MADDA[ARABIC_FORM_TYPE_NUM]			= {0x0622, 0xFEF5,      0,      0, 0xFEF6};
; 70   : 	static wchar_t LAM_ALEF_HAMZA_ABOVE[ARABIC_FORM_TYPE_NUM]	= {0x0623, 0xFEF7,      0,      0, 0xFEF8};
; 71   : 	static wchar_t LAM_ALEF_HAMZA_BELOW[ARABIC_FORM_TYPE_NUM]	= {0x0625, 0xFEF9,      0,      0, 0xFEFA};
; 72   : 	static wchar_t LAM_ALEF[ARABIC_FORM_TYPE_NUM]				= {0x0627, 0xFEFB,      0,      0, 0xFEFC};
; 73   : 	
; 74   : 	switch (cur)

  00005	0f b7 45 08	 movzx	 eax, WORD PTR _cur$[ebp]
  00009	89 45 f8	 mov	 DWORD PTR tv65[ebp], eax
  0000c	81 7d f8 44 06
	00 00		 cmp	 DWORD PTR tv65[ebp], 1604 ; 00000644H
  00013	74 02		 je	 SHORT $LN6@Arabic_Get
  00015	eb 67		 jmp	 SHORT $LN2@Arabic_Get
$LN6@Arabic_Get:

; 75   : 	{
; 76   : 		case 0x0644:
; 77   : 			switch (next)

  00017	0f b7 45 0c	 movzx	 eax, WORD PTR _next$[ebp]
  0001b	89 45 fc	 mov	 DWORD PTR tv67[ebp], eax
  0001e	81 7d fc 22 06
	00 00		 cmp	 DWORD PTR tv67[ebp], 1570 ; 00000622H
  00025	74 1d		 je	 SHORT $LN7@Arabic_Get
  00027	81 7d fc 23 06
	00 00		 cmp	 DWORD PTR tv67[ebp], 1571 ; 00000623H
  0002e	74 23		 je	 SHORT $LN8@Arabic_Get
  00030	81 7d fc 25 06
	00 00		 cmp	 DWORD PTR tv67[ebp], 1573 ; 00000625H
  00037	74 29		 je	 SHORT $LN9@Arabic_Get
  00039	81 7d fc 27 06
	00 00		 cmp	 DWORD PTR tv67[ebp], 1575 ; 00000627H
  00040	74 2f		 je	 SHORT $LN10@Arabic_Get
  00042	eb 3a		 jmp	 SHORT $LN2@Arabic_Get
$LN7@Arabic_Get:

; 78   : 			{
; 79   : 				case 0x0622:return LAM_ALEF_MADDA[pos];break;

  00044	8b 45 10	 mov	 eax, DWORD PTR _pos$[ebp]
  00047	66 8b 04 45 00
	00 00 00	 mov	 ax, WORD PTR ?LAM_ALEF_MADDA@?1??Arabic_GetComposition@@YA_W_W0W4ARABIC_FORM_TYPE@@@Z@4PA_WA[eax*2]
  0004f	eb 2f		 jmp	 SHORT $LN1@Arabic_Get
  00051	eb 2b		 jmp	 SHORT $LN2@Arabic_Get
$LN8@Arabic_Get:

; 80   : 				case 0x0623:return LAM_ALEF_HAMZA_ABOVE[pos];break;

  00053	8b 45 10	 mov	 eax, DWORD PTR _pos$[ebp]
  00056	66 8b 04 45 00
	00 00 00	 mov	 ax, WORD PTR ?LAM_ALEF_HAMZA_ABOVE@?1??Arabic_GetComposition@@YA_W_W0W4ARABIC_FORM_TYPE@@@Z@4PA_WA[eax*2]
  0005e	eb 20		 jmp	 SHORT $LN1@Arabic_Get
  00060	eb 1c		 jmp	 SHORT $LN2@Arabic_Get
$LN9@Arabic_Get:

; 81   : 				case 0x0625:return LAM_ALEF_HAMZA_BELOW[pos];break;

  00062	8b 45 10	 mov	 eax, DWORD PTR _pos$[ebp]
  00065	66 8b 04 45 00
	00 00 00	 mov	 ax, WORD PTR ?LAM_ALEF_HAMZA_BELOW@?1??Arabic_GetComposition@@YA_W_W0W4ARABIC_FORM_TYPE@@@Z@4PA_WA[eax*2]
  0006d	eb 11		 jmp	 SHORT $LN1@Arabic_Get
  0006f	eb 0d		 jmp	 SHORT $LN2@Arabic_Get
$LN10@Arabic_Get:

; 82   : 				case 0x0627:return LAM_ALEF[pos];break;

  00071	8b 45 10	 mov	 eax, DWORD PTR _pos$[ebp]
  00074	66 8b 04 45 00
	00 00 00	 mov	 ax, WORD PTR ?LAM_ALEF@?1??Arabic_GetComposition@@YA_W_W0W4ARABIC_FORM_TYPE@@@Z@4PA_WA[eax*2]
  0007c	eb 02		 jmp	 SHORT $LN1@Arabic_Get
$LN2@Arabic_Get:

; 83   : 			}
; 84   : 			break;
; 85   : 	}
; 86   : 	return 0;

  0007e	33 c0		 xor	 eax, eax
$LN1@Arabic_Get:

; 87   : }

  00080	c9		 leave
  00081	c3		 ret	 0
?Arabic_GetComposition@@YA_W_W0W4ARABIC_FORM_TYPE@@@Z ENDP ; Arabic_GetComposition
_TEXT	ENDS
; Function compile flags: /Odspy
; File D:\Metin2 Server Files\mainline\SRC_2014\Metin2Client\EterLocale\Arabic.cpp
;	COMDAT ?Arabic_MakeShape@@YAIPA_WI0I@Z
_TEXT	SEGMENT
_srcLastIndex$ = -40					; size = 4
_prevIndex$1 = -36					; size = 4
_nextIndex$2 = -32					; size = 4
_cur$3 = -28						; size = 2
_prev$4 = -24						; size = 2
_srcIndex$5 = -20					; size = 4
_next$6 = -16						; size = 2
_dstIndex$ = -12					; size = 4
tv205 = -6						; size = 2
tv195 = -4						; size = 2
tv185 = -2						; size = 2
_src$ = 8						; size = 4
_srcLen$ = 12						; size = 4
_dst$ = 16						; size = 4
_dstLen$ = 20						; size = 4
?Arabic_MakeShape@@YAIPA_WI0I@Z PROC			; Arabic_MakeShape, COMDAT

; 247  : {	

  00000	55		 push	 ebp
  00001	8b ec		 mov	 ebp, esp
  00003	83 ec 28	 sub	 esp, 40			; 00000028H

; 248  : 	assert(dstLen >= srcLen);
; 249  : 
; 250  : 	const size_t srcLastIndex = srcLen - 1;

  00006	8b 45 0c	 mov	 eax, DWORD PTR _srcLen$[ebp]
  00009	48		 dec	 eax
  0000a	89 45 d8	 mov	 DWORD PTR _srcLastIndex$[ebp], eax

; 251  : 
; 252  : 	unsigned dstIndex = 0;	

  0000d	83 65 f4 00	 and	 DWORD PTR _dstIndex$[ebp], 0

; 253  : 	for (size_t srcIndex = 0; srcIndex < srcLen; ++srcIndex)

  00011	83 65 ec 00	 and	 DWORD PTR _srcIndex$5[ebp], 0
  00015	eb 07		 jmp	 SHORT $LN4@Arabic_Mak
$LN2@Arabic_Mak:
  00017	8b 45 ec	 mov	 eax, DWORD PTR _srcIndex$5[ebp]
  0001a	40		 inc	 eax
  0001b	89 45 ec	 mov	 DWORD PTR _srcIndex$5[ebp], eax
$LN4@Arabic_Mak:
  0001e	8b 45 ec	 mov	 eax, DWORD PTR _srcIndex$5[ebp]
  00021	3b 45 0c	 cmp	 eax, DWORD PTR _srcLen$[ebp]
  00024	0f 83 92 02 00
	00		 jae	 $LN3@Arabic_Mak

; 254  : 	{
; 255  : 		wchar_t cur = src[srcIndex];

  0002a	8b 45 ec	 mov	 eax, DWORD PTR _srcIndex$5[ebp]
  0002d	8b 4d 08	 mov	 ecx, DWORD PTR _src$[ebp]
  00030	66 8b 04 41	 mov	 ax, WORD PTR [ecx+eax*2]
  00034	66 89 45 e4	 mov	 WORD PTR _cur$3[ebp], ax

; 256  : 
; 257  : 		//printf("now %x\n", cur);
; 258  : 
; 259  : 		if (Arabic_IsInMap(cur))

  00038	ff 75 e4	 push	 DWORD PTR _cur$3[ebp]
  0003b	e8 00 00 00 00	 call	 ?Arabic_IsInMap@@YA_N_W@Z ; Arabic_IsInMap
  00040	59		 pop	 ecx
  00041	0f b6 c0	 movzx	 eax, al
  00044	85 c0		 test	 eax, eax
  00046	0f 84 56 02 00
	00		 je	 $LN9@Arabic_Mak

; 260  : 		{
; 261  : 			// 이전 글자 얻어내기
; 262  : 			wchar_t prev = 0;			

  0004c	33 c0		 xor	 eax, eax
  0004e	66 89 45 e8	 mov	 WORD PTR _prev$4[ebp], ax

; 263  : 			{
; 264  : 				size_t prevIndex = srcIndex;

  00052	8b 45 ec	 mov	 eax, DWORD PTR _srcIndex$5[ebp]
  00055	89 45 dc	 mov	 DWORD PTR _prevIndex$1[ebp], eax
$LN5@Arabic_Mak:

; 265  : 				while (prevIndex > 0)

  00058	83 7d dc 00	 cmp	 DWORD PTR _prevIndex$1[ebp], 0
  0005c	76 2d		 jbe	 SHORT $LN6@Arabic_Mak

; 266  : 				{
; 267  : 					prevIndex--;

  0005e	8b 45 dc	 mov	 eax, DWORD PTR _prevIndex$1[ebp]
  00061	48		 dec	 eax
  00062	89 45 dc	 mov	 DWORD PTR _prevIndex$1[ebp], eax

; 268  : 					prev = src[prevIndex];

  00065	8b 45 dc	 mov	 eax, DWORD PTR _prevIndex$1[ebp]
  00068	8b 4d 08	 mov	 ecx, DWORD PTR _src$[ebp]
  0006b	66 8b 04 41	 mov	 ax, WORD PTR [ecx+eax*2]
  0006f	66 89 45 e8	 mov	 WORD PTR _prev$4[ebp], ax

; 269  : 					//printf("\tprev %d:%x\n", prevIndex, cur);
; 270  : 					if (Arabic_IsInComposing(prev))

  00073	ff 75 e8	 push	 DWORD PTR _prev$4[ebp]
  00076	e8 00 00 00 00	 call	 ?Arabic_IsInComposing@@YA_N_W@Z ; Arabic_IsInComposing
  0007b	59		 pop	 ecx
  0007c	0f b6 c0	 movzx	 eax, al
  0007f	85 c0		 test	 eax, eax
  00081	74 04		 je	 SHORT $LN11@Arabic_Mak

; 271  : 						continue;

  00083	eb d3		 jmp	 SHORT $LN5@Arabic_Mak
  00085	eb 02		 jmp	 SHORT $LN12@Arabic_Mak
$LN11@Arabic_Mak:

; 272  : 					else
; 273  : 						break;

  00087	eb 02		 jmp	 SHORT $LN6@Arabic_Mak
$LN12@Arabic_Mak:

; 274  : 				}

  00089	eb cd		 jmp	 SHORT $LN5@Arabic_Mak
$LN6@Arabic_Mak:

; 275  : 
; 276  : 				if ((srcIndex == 0) || 
; 277  : 					(!Arabic_IsInMap(prev)) || 

  0008b	83 7d ec 00	 cmp	 DWORD PTR _srcIndex$5[ebp], 0
  0008f	74 36		 je	 SHORT $LN14@Arabic_Mak
  00091	ff 75 e8	 push	 DWORD PTR _prev$4[ebp]
  00094	e8 00 00 00 00	 call	 ?Arabic_IsInMap@@YA_N_W@Z ; Arabic_IsInMap
  00099	59		 pop	 ecx
  0009a	0f b6 c0	 movzx	 eax, al
  0009d	85 c0		 test	 eax, eax
  0009f	74 26		 je	 SHORT $LN14@Arabic_Mak
  000a1	6a 02		 push	 2
  000a3	ff 75 e8	 push	 DWORD PTR _prev$4[ebp]
  000a6	e8 00 00 00 00	 call	 ?Arabic_GetMap@@YA_W_WW4ARABIC_FORM_TYPE@@@Z ; Arabic_GetMap
  000ab	59		 pop	 ecx
  000ac	59		 pop	 ecx
  000ad	0f b7 c0	 movzx	 eax, ax
  000b0	85 c0		 test	 eax, eax
  000b2	75 19		 jne	 SHORT $LN13@Arabic_Mak
  000b4	6a 03		 push	 3
  000b6	ff 75 e8	 push	 DWORD PTR _prev$4[ebp]
  000b9	e8 00 00 00 00	 call	 ?Arabic_GetMap@@YA_W_WW4ARABIC_FORM_TYPE@@@Z ; Arabic_GetMap
  000be	59		 pop	 ecx
  000bf	59		 pop	 ecx
  000c0	0f b7 c0	 movzx	 eax, ax
  000c3	85 c0		 test	 eax, eax
  000c5	75 06		 jne	 SHORT $LN13@Arabic_Mak
$LN14@Arabic_Mak:

; 278  : 					(!Arabic_GetMap(prev, INITIAL) && !Arabic_GetMap(prev, MEDIAL)))
; 279  : 				{
; 280  : 					//printf("\tprev not defined\n");
; 281  : 					prev = 0;

  000c7	33 c0		 xor	 eax, eax
  000c9	66 89 45 e8	 mov	 WORD PTR _prev$4[ebp], ax
$LN13@Arabic_Mak:

; 282  : 				}
; 283  : 			}
; 284  : 
; 285  : 			// 다음 글자 얻어내기
; 286  : 			wchar_t next = 0;

  000cd	33 c0		 xor	 eax, eax
  000cf	66 89 45 f0	 mov	 WORD PTR _next$6[ebp], ax

; 287  : 			{
; 288  : 				size_t nextIndex = srcIndex;

  000d3	8b 45 ec	 mov	 eax, DWORD PTR _srcIndex$5[ebp]
  000d6	89 45 e0	 mov	 DWORD PTR _nextIndex$2[ebp], eax
$LN7@Arabic_Mak:

; 289  : 				while (nextIndex < srcLastIndex)

  000d9	8b 45 e0	 mov	 eax, DWORD PTR _nextIndex$2[ebp]
  000dc	3b 45 d8	 cmp	 eax, DWORD PTR _srcLastIndex$[ebp]
  000df	73 2d		 jae	 SHORT $LN8@Arabic_Mak

; 290  : 				{
; 291  : 					nextIndex++;

  000e1	8b 45 e0	 mov	 eax, DWORD PTR _nextIndex$2[ebp]
  000e4	40		 inc	 eax
  000e5	89 45 e0	 mov	 DWORD PTR _nextIndex$2[ebp], eax

; 292  : 					next = src[nextIndex];

  000e8	8b 45 e0	 mov	 eax, DWORD PTR _nextIndex$2[ebp]
  000eb	8b 4d 08	 mov	 ecx, DWORD PTR _src$[ebp]
  000ee	66 8b 04 41	 mov	 ax, WORD PTR [ecx+eax*2]
  000f2	66 89 45 f0	 mov	 WORD PTR _next$6[ebp], ax

; 293  : 					if (Arabic_IsInComposing(next))

  000f6	ff 75 f0	 push	 DWORD PTR _next$6[ebp]
  000f9	e8 00 00 00 00	 call	 ?Arabic_IsInComposing@@YA_N_W@Z ; Arabic_IsInComposing
  000fe	59		 pop	 ecx
  000ff	0f b6 c0	 movzx	 eax, al
  00102	85 c0		 test	 eax, eax
  00104	74 04		 je	 SHORT $LN15@Arabic_Mak

; 294  : 						continue;

  00106	eb d1		 jmp	 SHORT $LN7@Arabic_Mak
  00108	eb 02		 jmp	 SHORT $LN16@Arabic_Mak
$LN15@Arabic_Mak:

; 295  : 					else
; 296  : 						break;

  0010a	eb 02		 jmp	 SHORT $LN8@Arabic_Mak
$LN16@Arabic_Mak:

; 297  : 				}

  0010c	eb cb		 jmp	 SHORT $LN7@Arabic_Mak
$LN8@Arabic_Mak:

; 298  : 
; 299  : 				if ((nextIndex == srcLen) || 
; 300  : 					(!Arabic_IsInMap(next)) ||

  0010e	8b 45 e0	 mov	 eax, DWORD PTR _nextIndex$2[ebp]
  00111	3b 45 0c	 cmp	 eax, DWORD PTR _srcLen$[ebp]
  00114	74 46		 je	 SHORT $LN18@Arabic_Mak
  00116	ff 75 f0	 push	 DWORD PTR _next$6[ebp]
  00119	e8 00 00 00 00	 call	 ?Arabic_IsInMap@@YA_N_W@Z ; Arabic_IsInMap
  0011e	59		 pop	 ecx
  0011f	0f b6 c0	 movzx	 eax, al
  00122	85 c0		 test	 eax, eax
  00124	74 36		 je	 SHORT $LN18@Arabic_Mak
  00126	6a 03		 push	 3
  00128	ff 75 f0	 push	 DWORD PTR _next$6[ebp]
  0012b	e8 00 00 00 00	 call	 ?Arabic_GetMap@@YA_W_WW4ARABIC_FORM_TYPE@@@Z ; Arabic_GetMap
  00130	59		 pop	 ecx
  00131	59		 pop	 ecx
  00132	0f b7 c0	 movzx	 eax, ax
  00135	85 c0		 test	 eax, eax
  00137	75 29		 jne	 SHORT $LN17@Arabic_Mak
  00139	6a 04		 push	 4
  0013b	ff 75 f0	 push	 DWORD PTR _next$6[ebp]
  0013e	e8 00 00 00 00	 call	 ?Arabic_GetMap@@YA_W_WW4ARABIC_FORM_TYPE@@@Z ; Arabic_GetMap
  00143	59		 pop	 ecx
  00144	59		 pop	 ecx
  00145	0f b7 c0	 movzx	 eax, ax
  00148	85 c0		 test	 eax, eax
  0014a	75 16		 jne	 SHORT $LN17@Arabic_Mak
  0014c	ff 75 f0	 push	 DWORD PTR _next$6[ebp]
  0014f	e8 00 00 00 00	 call	 ?Arabic_IsNext@@YA_N_W@Z ; Arabic_IsNext
  00154	59		 pop	 ecx
  00155	0f b6 c0	 movzx	 eax, al
  00158	85 c0		 test	 eax, eax
  0015a	75 06		 jne	 SHORT $LN17@Arabic_Mak
$LN18@Arabic_Mak:

; 301  : 					(!Arabic_GetMap(next, MEDIAL) && !Arabic_GetMap(next, FINAL) && !Arabic_IsNext(next)))
; 302  : 				{
; 303  : 					//printf("\tnext not defined\n");
; 304  : 					next = 0;

  0015c	33 c0		 xor	 eax, eax
  0015e	66 89 45 f0	 mov	 WORD PTR _next$6[ebp], ax
$LN17@Arabic_Mak:

; 305  : 				}
; 306  : 			}
; 307  : 
; 308  : 			if (Arabic_IsComb1(cur) && Arabic_IsComb2(next))

  00162	ff 75 e4	 push	 DWORD PTR _cur$3[ebp]
  00165	e8 00 00 00 00	 call	 ?Arabic_IsComb1@@YA_N_W@Z ; Arabic_IsComb1
  0016a	59		 pop	 ecx
  0016b	0f b6 c0	 movzx	 eax, al
  0016e	85 c0		 test	 eax, eax
  00170	74 61		 je	 SHORT $LN19@Arabic_Mak
  00172	ff 75 f0	 push	 DWORD PTR _next$6[ebp]
  00175	e8 00 00 00 00	 call	 ?Arabic_IsComb2@@YA_N_W@Z ; Arabic_IsComb2
  0017a	59		 pop	 ecx
  0017b	0f b6 c0	 movzx	 eax, al
  0017e	85 c0		 test	 eax, eax
  00180	74 51		 je	 SHORT $LN19@Arabic_Mak

; 309  : 			{
; 310  : 				if (prev)

  00182	0f b7 45 e8	 movzx	 eax, WORD PTR _prev$4[ebp]
  00186	85 c0		 test	 eax, eax
  00188	74 1c		 je	 SHORT $LN21@Arabic_Mak

; 311  : 					dst[dstIndex] = Arabic_GetComposition(cur, next, FINAL);

  0018a	6a 04		 push	 4
  0018c	ff 75 f0	 push	 DWORD PTR _next$6[ebp]
  0018f	ff 75 e4	 push	 DWORD PTR _cur$3[ebp]
  00192	e8 00 00 00 00	 call	 ?Arabic_GetComposition@@YA_W_W0W4ARABIC_FORM_TYPE@@@Z ; Arabic_GetComposition
  00197	83 c4 0c	 add	 esp, 12			; 0000000cH
  0019a	8b 4d f4	 mov	 ecx, DWORD PTR _dstIndex$[ebp]
  0019d	8b 55 10	 mov	 edx, DWORD PTR _dst$[ebp]
  001a0	66 89 04 4a	 mov	 WORD PTR [edx+ecx*2], ax
  001a4	eb 1a		 jmp	 SHORT $LN22@Arabic_Mak
$LN21@Arabic_Mak:

; 312  : 				else
; 313  : 					dst[dstIndex] = Arabic_GetComposition(cur, next, ISOLATED);

  001a6	6a 01		 push	 1
  001a8	ff 75 f0	 push	 DWORD PTR _next$6[ebp]
  001ab	ff 75 e4	 push	 DWORD PTR _cur$3[ebp]
  001ae	e8 00 00 00 00	 call	 ?Arabic_GetComposition@@YA_W_W0W4ARABIC_FORM_TYPE@@@Z ; Arabic_GetComposition
  001b3	83 c4 0c	 add	 esp, 12			; 0000000cH
  001b6	8b 4d f4	 mov	 ecx, DWORD PTR _dstIndex$[ebp]
  001b9	8b 55 10	 mov	 edx, DWORD PTR _dst$[ebp]
  001bc	66 89 04 4a	 mov	 WORD PTR [edx+ecx*2], ax
$LN22@Arabic_Mak:

; 314  : 
; 315  : 				//printf("\tGot me a complex:%x\n", dst[dstIndex]);
; 316  : 
; 317  : 				srcIndex++;

  001c0	8b 45 ec	 mov	 eax, DWORD PTR _srcIndex$5[ebp]
  001c3	40		 inc	 eax
  001c4	89 45 ec	 mov	 DWORD PTR _srcIndex$5[ebp], eax

; 318  : 				dstIndex++;				

  001c7	8b 45 f4	 mov	 eax, DWORD PTR _dstIndex$[ebp]
  001ca	40		 inc	 eax
  001cb	89 45 f4	 mov	 DWORD PTR _dstIndex$[ebp], eax

; 319  : 			}

  001ce	e9 cd 00 00 00	 jmp	 $LN20@Arabic_Mak
$LN19@Arabic_Mak:

; 320  : 			else if (prev && next && (dst[dstIndex] = Arabic_GetMap(cur, MEDIAL)))

  001d3	0f b7 45 e8	 movzx	 eax, WORD PTR _prev$4[ebp]
  001d7	85 c0		 test	 eax, eax
  001d9	74 3a		 je	 SHORT $LN23@Arabic_Mak
  001db	0f b7 45 f0	 movzx	 eax, WORD PTR _next$6[ebp]
  001df	85 c0		 test	 eax, eax
  001e1	74 32		 je	 SHORT $LN23@Arabic_Mak
  001e3	6a 03		 push	 3
  001e5	ff 75 e4	 push	 DWORD PTR _cur$3[ebp]
  001e8	e8 00 00 00 00	 call	 ?Arabic_GetMap@@YA_W_WW4ARABIC_FORM_TYPE@@@Z ; Arabic_GetMap
  001ed	59		 pop	 ecx
  001ee	59		 pop	 ecx
  001ef	66 89 45 fe	 mov	 WORD PTR tv185[ebp], ax
  001f3	8b 45 f4	 mov	 eax, DWORD PTR _dstIndex$[ebp]
  001f6	8b 4d 10	 mov	 ecx, DWORD PTR _dst$[ebp]
  001f9	66 8b 55 fe	 mov	 dx, WORD PTR tv185[ebp]
  001fd	66 89 14 41	 mov	 WORD PTR [ecx+eax*2], dx
  00201	0f b7 45 fe	 movzx	 eax, WORD PTR tv185[ebp]
  00205	85 c0		 test	 eax, eax
  00207	74 0c		 je	 SHORT $LN23@Arabic_Mak

; 321  : 			{
; 322  : 				//printf("\tGot prev & next:%x\n", dst[dstIndex]);
; 323  : 				dstIndex++;				

  00209	8b 45 f4	 mov	 eax, DWORD PTR _dstIndex$[ebp]
  0020c	40		 inc	 eax
  0020d	89 45 f4	 mov	 DWORD PTR _dstIndex$[ebp], eax

; 324  : 			}

  00210	e9 8b 00 00 00	 jmp	 $LN20@Arabic_Mak
$LN23@Arabic_Mak:

; 325  : 			else if (prev && (dst[dstIndex] = Arabic_GetMap(cur, FINAL)))

  00215	0f b7 45 e8	 movzx	 eax, WORD PTR _prev$4[ebp]
  00219	85 c0		 test	 eax, eax
  0021b	74 2f		 je	 SHORT $LN25@Arabic_Mak
  0021d	6a 04		 push	 4
  0021f	ff 75 e4	 push	 DWORD PTR _cur$3[ebp]
  00222	e8 00 00 00 00	 call	 ?Arabic_GetMap@@YA_W_WW4ARABIC_FORM_TYPE@@@Z ; Arabic_GetMap
  00227	59		 pop	 ecx
  00228	59		 pop	 ecx
  00229	66 89 45 fc	 mov	 WORD PTR tv195[ebp], ax
  0022d	8b 45 f4	 mov	 eax, DWORD PTR _dstIndex$[ebp]
  00230	8b 4d 10	 mov	 ecx, DWORD PTR _dst$[ebp]
  00233	66 8b 55 fc	 mov	 dx, WORD PTR tv195[ebp]
  00237	66 89 14 41	 mov	 WORD PTR [ecx+eax*2], dx
  0023b	0f b7 45 fc	 movzx	 eax, WORD PTR tv195[ebp]
  0023f	85 c0		 test	 eax, eax
  00241	74 09		 je	 SHORT $LN25@Arabic_Mak

; 326  : 			{
; 327  : 				//printf("\tGot prev:%x\n", dst[dstIndex]);
; 328  : 				dstIndex++;				

  00243	8b 45 f4	 mov	 eax, DWORD PTR _dstIndex$[ebp]
  00246	40		 inc	 eax
  00247	89 45 f4	 mov	 DWORD PTR _dstIndex$[ebp], eax

; 329  : 			}

  0024a	eb 54		 jmp	 SHORT $LN20@Arabic_Mak
$LN25@Arabic_Mak:

; 330  : 			else if (next && (dst[dstIndex] = Arabic_GetMap(cur, INITIAL)))

  0024c	0f b7 45 f0	 movzx	 eax, WORD PTR _next$6[ebp]
  00250	85 c0		 test	 eax, eax
  00252	74 2f		 je	 SHORT $LN27@Arabic_Mak
  00254	6a 02		 push	 2
  00256	ff 75 e4	 push	 DWORD PTR _cur$3[ebp]
  00259	e8 00 00 00 00	 call	 ?Arabic_GetMap@@YA_W_WW4ARABIC_FORM_TYPE@@@Z ; Arabic_GetMap
  0025e	59		 pop	 ecx
  0025f	59		 pop	 ecx
  00260	66 89 45 fa	 mov	 WORD PTR tv205[ebp], ax
  00264	8b 45 f4	 mov	 eax, DWORD PTR _dstIndex$[ebp]
  00267	8b 4d 10	 mov	 ecx, DWORD PTR _dst$[ebp]
  0026a	66 8b 55 fa	 mov	 dx, WORD PTR tv205[ebp]
  0026e	66 89 14 41	 mov	 WORD PTR [ecx+eax*2], dx
  00272	0f b7 45 fa	 movzx	 eax, WORD PTR tv205[ebp]
  00276	85 c0		 test	 eax, eax
  00278	74 09		 je	 SHORT $LN27@Arabic_Mak

; 331  : 			{
; 332  : 				//printf("\tGot next:%x\n", dst[dstIndex]);
; 333  : 				dstIndex++;				

  0027a	8b 45 f4	 mov	 eax, DWORD PTR _dstIndex$[ebp]
  0027d	40		 inc	 eax
  0027e	89 45 f4	 mov	 DWORD PTR _dstIndex$[ebp], eax

; 334  : 			}

  00281	eb 1d		 jmp	 SHORT $LN20@Arabic_Mak
$LN27@Arabic_Mak:

; 335  : 			else
; 336  : 			{
; 337  : 				dst[dstIndex] = Arabic_GetMap(cur, ISOLATED);

  00283	6a 01		 push	 1
  00285	ff 75 e4	 push	 DWORD PTR _cur$3[ebp]
  00288	e8 00 00 00 00	 call	 ?Arabic_GetMap@@YA_W_WW4ARABIC_FORM_TYPE@@@Z ; Arabic_GetMap
  0028d	59		 pop	 ecx
  0028e	59		 pop	 ecx
  0028f	8b 4d f4	 mov	 ecx, DWORD PTR _dstIndex$[ebp]
  00292	8b 55 10	 mov	 edx, DWORD PTR _dst$[ebp]
  00295	66 89 04 4a	 mov	 WORD PTR [edx+ecx*2], ax

; 338  : 				//printf("\tGot nothing:%x\n", dst[dstIndex]);
; 339  : 				dstIndex++;

  00299	8b 45 f4	 mov	 eax, DWORD PTR _dstIndex$[ebp]
  0029c	40		 inc	 eax
  0029d	89 45 f4	 mov	 DWORD PTR _dstIndex$[ebp], eax
$LN20@Arabic_Mak:

; 340  : 			}
; 341  : 		}

  002a0	eb 15		 jmp	 SHORT $LN10@Arabic_Mak
$LN9@Arabic_Mak:

; 342  : 		else
; 343  : 		{
; 344  : 			dst[dstIndex] = cur;

  002a2	8b 45 f4	 mov	 eax, DWORD PTR _dstIndex$[ebp]
  002a5	8b 4d 10	 mov	 ecx, DWORD PTR _dst$[ebp]
  002a8	66 8b 55 e4	 mov	 dx, WORD PTR _cur$3[ebp]
  002ac	66 89 14 41	 mov	 WORD PTR [ecx+eax*2], dx

; 345  : 			dstIndex++;

  002b0	8b 45 f4	 mov	 eax, DWORD PTR _dstIndex$[ebp]
  002b3	40		 inc	 eax
  002b4	89 45 f4	 mov	 DWORD PTR _dstIndex$[ebp], eax
$LN10@Arabic_Mak:

; 346  : 		}
; 347  : 	}

  002b7	e9 5b fd ff ff	 jmp	 $LN2@Arabic_Mak
$LN3@Arabic_Mak:

; 348  : 	return dstIndex;

  002bc	8b 45 f4	 mov	 eax, DWORD PTR _dstIndex$[ebp]

; 349  : }

  002bf	c9		 leave
  002c0	c3		 ret	 0
?Arabic_MakeShape@@YAIPA_WI0I@Z ENDP			; Arabic_MakeShape
_TEXT	ENDS
; Function compile flags: /Odspy
; File D:\Metin2 Server Files\mainline\SRC_2014\Metin2Client\EterLocale\Arabic.cpp
;	COMDAT ?Arabic_HasPresentation@@YA_NPA_WH@Z
_TEXT	SEGMENT
_codes$ = 8						; size = 4
_last$ = 12						; size = 4
?Arabic_HasPresentation@@YA_NPA_WH@Z PROC		; Arabic_HasPresentation, COMDAT

; 49   : {

  00000	55		 push	 ebp
  00001	8b ec		 mov	 ebp, esp
$LN2@Arabic_Has:

; 50   : 	while (last > 0)

  00003	83 7d 0c 00	 cmp	 DWORD PTR _last$[ebp], 0
  00007	7e 43		 jle	 SHORT $LN3@Arabic_Has

; 51   : 	{
; 52   : 		if (Arabic_IsInSpace(codes[last]))

  00009	8b 45 0c	 mov	 eax, DWORD PTR _last$[ebp]
  0000c	8b 4d 08	 mov	 ecx, DWORD PTR _codes$[ebp]
  0000f	0f b7 04 41	 movzx	 eax, WORD PTR [ecx+eax*2]
  00013	50		 push	 eax
  00014	e8 00 00 00 00	 call	 ?Arabic_IsInSpace@@YA_N_W@Z ; Arabic_IsInSpace
  00019	59		 pop	 ecx
  0001a	0f b6 c0	 movzx	 eax, al
  0001d	85 c0		 test	 eax, eax
  0001f	74 09		 je	 SHORT $LN4@Arabic_Has

; 53   : 		{
; 54   : 			last--;	

  00021	8b 45 0c	 mov	 eax, DWORD PTR _last$[ebp]
  00024	48		 dec	 eax
  00025	89 45 0c	 mov	 DWORD PTR _last$[ebp], eax

; 55   : 		}

  00028	eb 20		 jmp	 SHORT $LN5@Arabic_Has
$LN4@Arabic_Has:

; 56   : 		else
; 57   : 		{
; 58   : 			if (Arabic_IsInPresentation(codes[last]))

  0002a	8b 45 0c	 mov	 eax, DWORD PTR _last$[ebp]
  0002d	8b 4d 08	 mov	 ecx, DWORD PTR _codes$[ebp]
  00030	0f b7 04 41	 movzx	 eax, WORD PTR [ecx+eax*2]
  00034	50		 push	 eax
  00035	e8 00 00 00 00	 call	 ?Arabic_IsInPresentation@@YA_N_W@Z ; Arabic_IsInPresentation
  0003a	59		 pop	 ecx
  0003b	0f b6 c0	 movzx	 eax, al
  0003e	85 c0		 test	 eax, eax
  00040	74 06		 je	 SHORT $LN6@Arabic_Has

; 59   : 				return true;

  00042	b0 01		 mov	 al, 1
  00044	eb 08		 jmp	 SHORT $LN1@Arabic_Has
  00046	eb 02		 jmp	 SHORT $LN5@Arabic_Has
$LN6@Arabic_Has:

; 60   : 			else
; 61   : 				break;

  00048	eb 02		 jmp	 SHORT $LN3@Arabic_Has
$LN5@Arabic_Has:

; 62   : 		}
; 63   : 	}

  0004a	eb b7		 jmp	 SHORT $LN2@Arabic_Has
$LN3@Arabic_Has:

; 64   : 	return false;

  0004c	32 c0		 xor	 al, al
$LN1@Arabic_Has:

; 65   : }

  0004e	5d		 pop	 ebp
  0004f	c3		 ret	 0
?Arabic_HasPresentation@@YA_NPA_WH@Z ENDP		; Arabic_HasPresentation
_TEXT	ENDS
; Function compile flags: /Odspy
; File D:\Metin2 Server Files\mainline\SRC_2014\Metin2Client\EterLocale\Arabic.cpp
;	COMDAT ?Arabic_IsInPresentation@@YA_N_W@Z
_TEXT	SEGMENT
tv74 = -4						; size = 4
_code$ = 8						; size = 2
?Arabic_IsInPresentation@@YA_N_W@Z PROC			; Arabic_IsInPresentation, COMDAT

; 44   : {

  00000	55		 push	 ebp
  00001	8b ec		 mov	 ebp, esp
  00003	51		 push	 ecx

; 45   : 	return (code >= 0xfb50 && code <= 0xfdff) || (code >= 0xfe70 && code <= 0xfeff) || (code == 0x08);

  00004	0f b7 45 08	 movzx	 eax, WORD PTR _code$[ebp]
  00008	3d 50 fb 00 00	 cmp	 eax, 64336		; 0000fb50H
  0000d	7c 0b		 jl	 SHORT $LN3@Arabic_IsI
  0000f	0f b7 45 08	 movzx	 eax, WORD PTR _code$[ebp]
  00013	3d ff fd 00 00	 cmp	 eax, 65023		; 0000fdffH
  00018	7e 25		 jle	 SHORT $LN5@Arabic_IsI
$LN3@Arabic_IsI:
  0001a	0f b7 45 08	 movzx	 eax, WORD PTR _code$[ebp]
  0001e	3d 70 fe 00 00	 cmp	 eax, 65136		; 0000fe70H
  00023	7c 0b		 jl	 SHORT $LN4@Arabic_IsI
  00025	0f b7 45 08	 movzx	 eax, WORD PTR _code$[ebp]
  00029	3d ff fe 00 00	 cmp	 eax, 65279		; 0000feffH
  0002e	7e 0f		 jle	 SHORT $LN5@Arabic_IsI
$LN4@Arabic_IsI:
  00030	0f b7 45 08	 movzx	 eax, WORD PTR _code$[ebp]
  00034	83 f8 08	 cmp	 eax, 8
  00037	74 06		 je	 SHORT $LN5@Arabic_IsI
  00039	83 65 fc 00	 and	 DWORD PTR tv74[ebp], 0
  0003d	eb 07		 jmp	 SHORT $LN6@Arabic_IsI
$LN5@Arabic_IsI:
  0003f	c7 45 fc 01 00
	00 00		 mov	 DWORD PTR tv74[ebp], 1
$LN6@Arabic_IsI:
  00046	8a 45 fc	 mov	 al, BYTE PTR tv74[ebp]

; 46   : }

  00049	c9		 leave
  0004a	c3		 ret	 0
?Arabic_IsInPresentation@@YA_N_W@Z ENDP			; Arabic_IsInPresentation
_TEXT	ENDS
; Function compile flags: /Odspy
; File D:\Metin2 Server Files\mainline\SRC_2014\Metin2Client\EterLocale\Arabic.cpp
;	COMDAT ?Arabic_IsInSymbol@@YA_N_W@Z
_TEXT	SEGMENT
tv80 = -4						; size = 4
_code$ = 8						; size = 2
?Arabic_IsInSymbol@@YA_N_W@Z PROC			; Arabic_IsInSymbol, COMDAT

; 35   : {

  00000	55		 push	 ebp
  00001	8b ec		 mov	 ebp, esp
  00003	51		 push	 ecx

; 36   : 	return	(code >= 0x20 && code <= 0x2f) || 

  00004	0f b7 45 08	 movzx	 eax, WORD PTR _code$[ebp]
  00008	83 f8 20	 cmp	 eax, 32			; 00000020H
  0000b	7c 09		 jl	 SHORT $LN3@Arabic_IsI
  0000d	0f b7 45 08	 movzx	 eax, WORD PTR _code$[ebp]
  00011	83 f8 2f	 cmp	 eax, 47			; 0000002fH
  00014	7e 3c		 jle	 SHORT $LN5@Arabic_IsI
$LN3@Arabic_IsI:
  00016	0f b7 45 08	 movzx	 eax, WORD PTR _code$[ebp]
  0001a	83 f8 3a	 cmp	 eax, 58			; 0000003aH
  0001d	7c 09		 jl	 SHORT $LN4@Arabic_IsI
  0001f	0f b7 45 08	 movzx	 eax, WORD PTR _code$[ebp]
  00023	83 f8 40	 cmp	 eax, 64			; 00000040H
  00026	7e 2a		 jle	 SHORT $LN5@Arabic_IsI
$LN4@Arabic_IsI:
  00028	0f b7 45 08	 movzx	 eax, WORD PTR _code$[ebp]
  0002c	83 f8 5b	 cmp	 eax, 91			; 0000005bH
  0002f	7c 09		 jl	 SHORT $LN6@Arabic_IsI
  00031	0f b7 45 08	 movzx	 eax, WORD PTR _code$[ebp]
  00035	83 f8 60	 cmp	 eax, 96			; 00000060H
  00038	7e 18		 jle	 SHORT $LN5@Arabic_IsI
$LN6@Arabic_IsI:
  0003a	0f b7 45 08	 movzx	 eax, WORD PTR _code$[ebp]
  0003e	83 f8 7b	 cmp	 eax, 123		; 0000007bH
  00041	7c 09		 jl	 SHORT $LN7@Arabic_IsI
  00043	0f b7 45 08	 movzx	 eax, WORD PTR _code$[ebp]
  00047	83 f8 7e	 cmp	 eax, 126		; 0000007eH
  0004a	7e 06		 jle	 SHORT $LN5@Arabic_IsI
$LN7@Arabic_IsI:
  0004c	83 65 fc 00	 and	 DWORD PTR tv80[ebp], 0
  00050	eb 07		 jmp	 SHORT $LN8@Arabic_IsI
$LN5@Arabic_IsI:
  00052	c7 45 fc 01 00
	00 00		 mov	 DWORD PTR tv80[ebp], 1
$LN8@Arabic_IsI:
  00059	8a 45 fc	 mov	 al, BYTE PTR tv80[ebp]

; 37   : 			(code >= 0x3a && code <= 0x40) || 
; 38   : 			(code >= 0x5b && code <= 0x60) ||
; 39   : 			(code >= 0x7b && code <= 0x7e);
; 40   : }

  0005c	c9		 leave
  0005d	c3		 ret	 0
?Arabic_IsInSymbol@@YA_N_W@Z ENDP			; Arabic_IsInSymbol
_TEXT	ENDS
; Function compile flags: /Odspy
; File D:\Metin2 Server Files\mainline\SRC_2014\Metin2Client\EterLocale\Arabic.cpp
;	COMDAT ?Arabic_IsInSpace@@YA_N_W@Z
_TEXT	SEGMENT
tv65 = -4						; size = 4
_code$ = 8						; size = 2
?Arabic_IsInSpace@@YA_N_W@Z PROC			; Arabic_IsInSpace, COMDAT

; 23   : {

  00000	55		 push	 ebp
  00001	8b ec		 mov	 ebp, esp
  00003	51		 push	 ecx

; 24   : 	switch (code)

  00004	0f b7 45 08	 movzx	 eax, WORD PTR _code$[ebp]
  00008	89 45 fc	 mov	 DWORD PTR tv65[ebp], eax
  0000b	83 7d fc 09	 cmp	 DWORD PTR tv65[ebp], 9
  0000f	74 08		 je	 SHORT $LN4@Arabic_IsI
  00011	83 7d fc 20	 cmp	 DWORD PTR tv65[ebp], 32	; 00000020H
  00015	74 02		 je	 SHORT $LN4@Arabic_IsI
  00017	eb 04		 jmp	 SHORT $LN5@Arabic_IsI
$LN4@Arabic_IsI:

; 25   : 	{
; 26   : 		case ' ':
; 27   : 		case '\t':
; 28   : 			return true;

  00019	b0 01		 mov	 al, 1
  0001b	eb 02		 jmp	 SHORT $LN1@Arabic_IsI
$LN5@Arabic_IsI:

; 29   : 		default:
; 30   : 			return false;

  0001d	32 c0		 xor	 al, al
$LN1@Arabic_IsI:

; 31   : 	}
; 32   : }

  0001f	c9		 leave
  00020	c3		 ret	 0
?Arabic_IsInSpace@@YA_N_W@Z ENDP			; Arabic_IsInSpace
_TEXT	ENDS
; Function compile flags: /Odspy
; File D:\Metin2 Server Files\mainline\SRC_2014\Metin2Client\EterLocale\Arabic.cpp
;	COMDAT ?Arabic_ConvSymbol@@YA_W_W@Z
_TEXT	SEGMENT
tv65 = -4						; size = 4
_c$ = 8							; size = 2
?Arabic_ConvSymbol@@YA_W_W@Z PROC			; Arabic_ConvSymbol, COMDAT

; 352  : {

  00000	55		 push	 ebp
  00001	8b ec		 mov	 ebp, esp
  00003	51		 push	 ecx

; 353  : 	switch (c)

  00004	0f b7 45 08	 movzx	 eax, WORD PTR _c$[ebp]
  00008	89 45 fc	 mov	 DWORD PTR tv65[ebp], eax
  0000b	83 7d fc 5b	 cmp	 DWORD PTR tv65[ebp], 91	; 0000005bH
  0000f	7f 20		 jg	 SHORT $LN14@Arabic_Con
  00011	83 7d fc 5b	 cmp	 DWORD PTR tv65[ebp], 91	; 0000005bH
  00015	74 58		 je	 SHORT $LN10@Arabic_Con
  00017	83 7d fc 28	 cmp	 DWORD PTR tv65[ebp], 40	; 00000028H
  0001b	74 28		 je	 SHORT $LN4@Arabic_Con
  0001d	83 7d fc 29	 cmp	 DWORD PTR tv65[ebp], 41	; 00000029H
  00021	74 29		 je	 SHORT $LN5@Arabic_Con
  00023	83 7d fc 3c	 cmp	 DWORD PTR tv65[ebp], 60	; 0000003cH
  00027	74 2a		 je	 SHORT $LN6@Arabic_Con
  00029	83 7d fc 3e	 cmp	 DWORD PTR tv65[ebp], 62	; 0000003eH
  0002d	74 2b		 je	 SHORT $LN7@Arabic_Con
  0002f	eb 4c		 jmp	 SHORT $LN12@Arabic_Con
$LN14@Arabic_Con:
  00031	83 7d fc 5d	 cmp	 DWORD PTR tv65[ebp], 93	; 0000005dH
  00035	74 3f		 je	 SHORT $LN11@Arabic_Con
  00037	83 7d fc 7b	 cmp	 DWORD PTR tv65[ebp], 123 ; 0000007bH
  0003b	74 24		 je	 SHORT $LN8@Arabic_Con
  0003d	83 7d fc 7d	 cmp	 DWORD PTR tv65[ebp], 125 ; 0000007dH
  00041	74 25		 je	 SHORT $LN9@Arabic_Con
  00043	eb 38		 jmp	 SHORT $LN12@Arabic_Con
$LN4@Arabic_Con:

; 354  : 	{
; 355  : 		case '(': return')';break;

  00045	6a 29		 push	 41			; 00000029H
  00047	58		 pop	 eax
  00048	eb 37		 jmp	 SHORT $LN1@Arabic_Con
  0004a	eb 35		 jmp	 SHORT $LN1@Arabic_Con
$LN5@Arabic_Con:

; 356  : 		case ')': return'(';break;

  0004c	6a 28		 push	 40			; 00000028H
  0004e	58		 pop	 eax
  0004f	eb 30		 jmp	 SHORT $LN1@Arabic_Con
  00051	eb 2e		 jmp	 SHORT $LN1@Arabic_Con
$LN6@Arabic_Con:

; 357  : 		case '<': return'>';break;

  00053	6a 3e		 push	 62			; 0000003eH
  00055	58		 pop	 eax
  00056	eb 29		 jmp	 SHORT $LN1@Arabic_Con
  00058	eb 27		 jmp	 SHORT $LN1@Arabic_Con
$LN7@Arabic_Con:

; 358  : 		case '>': return'<';break;

  0005a	6a 3c		 push	 60			; 0000003cH
  0005c	58		 pop	 eax
  0005d	eb 22		 jmp	 SHORT $LN1@Arabic_Con
  0005f	eb 20		 jmp	 SHORT $LN1@Arabic_Con
$LN8@Arabic_Con:

; 359  : 		case '{': return'}';break;

  00061	6a 7d		 push	 125			; 0000007dH
  00063	58		 pop	 eax
  00064	eb 1b		 jmp	 SHORT $LN1@Arabic_Con
  00066	eb 19		 jmp	 SHORT $LN1@Arabic_Con
$LN9@Arabic_Con:

; 360  : 		case '}': return'{';break;

  00068	6a 7b		 push	 123			; 0000007bH
  0006a	58		 pop	 eax
  0006b	eb 14		 jmp	 SHORT $LN1@Arabic_Con
  0006d	eb 12		 jmp	 SHORT $LN1@Arabic_Con
$LN10@Arabic_Con:

; 361  : 		case '[': return']';break;

  0006f	6a 5d		 push	 93			; 0000005dH
  00071	58		 pop	 eax
  00072	eb 0d		 jmp	 SHORT $LN1@Arabic_Con
  00074	eb 0b		 jmp	 SHORT $LN1@Arabic_Con
$LN11@Arabic_Con:

; 362  : 		case ']': return '[';break;

  00076	6a 5b		 push	 91			; 0000005bH
  00078	58		 pop	 eax
  00079	eb 06		 jmp	 SHORT $LN1@Arabic_Con
  0007b	eb 04		 jmp	 SHORT $LN1@Arabic_Con
$LN12@Arabic_Con:

; 363  : 		default:
; 364  : 			return c;

  0007d	66 8b 45 08	 mov	 ax, WORD PTR _c$[ebp]
$LN1@Arabic_Con:

; 365  : 	}
; 366  : }

  00081	c9		 leave
  00082	c3		 ret	 0
?Arabic_ConvSymbol@@YA_W_W@Z ENDP			; Arabic_ConvSymbol
_TEXT	ENDS
END
