; Listing generated by Microsoft (R) Optimizing Compiler Version 19.28.29335.0 

	TITLE	D:\Metin2 Server Files\mainline\SRC_2014\Metin2Client\EterPack\EterPackManager.cpp
	.686P
	.XMM
	include listing.inc
	.model	flat

INCLUDELIB LIBCMT
INCLUDELIB OLDNAMES

PUBLIC	??0exception@std@@QAE@ABV01@@Z			; std::exception::exception
PUBLIC	?what@exception@std@@UBEPBDXZ			; std::exception::what
PUBLIC	??_Gexception@std@@UAEPAXI@Z			; std::exception::`scalar deleting destructor'
PUBLIC	??0bad_alloc@std@@QAE@ABV01@@Z			; std::bad_alloc::bad_alloc
PUBLIC	??_Gbad_alloc@std@@UAEPAXI@Z			; std::bad_alloc::`scalar deleting destructor'
PUBLIC	??0bad_array_new_length@std@@QAE@XZ		; std::bad_array_new_length::bad_array_new_length
PUBLIC	??1bad_array_new_length@std@@UAE@XZ		; std::bad_array_new_length::~bad_array_new_length
PUBLIC	??0bad_array_new_length@std@@QAE@ABV01@@Z	; std::bad_array_new_length::bad_array_new_length
PUBLIC	??_Gbad_array_new_length@std@@UAEPAXI@Z		; std::bad_array_new_length::`scalar deleting destructor'
PUBLIC	?_Throw_bad_array_new_length@std@@YAXXZ		; std::_Throw_bad_array_new_length
PUBLIC	?_Adjust_manually_vector_aligned@std@@YAXAAPAXAAI@Z ; std::_Adjust_manually_vector_aligned
PUBLIC	?_Xlen_string@std@@YAXXZ			; std::_Xlen_string
PUBLIC	??0?$_String_val@U?$_Simple_types@D@std@@@std@@QAE@XZ ; std::_String_val<std::_Simple_types<char> >::_String_val<std::_Simple_types<char> >
PUBLIC	?_Myptr@?$_String_val@U?$_Simple_types@D@std@@@std@@QAEPADXZ ; std::_String_val<std::_Simple_types<char> >::_Myptr
PUBLIC	?_Myptr@?$_String_val@U?$_Simple_types@D@std@@@std@@QBEPBDXZ ; std::_String_val<std::_Simple_types<char> >::_Myptr
PUBLIC	??0?$basic_string@DU?$char_traits@D@std@@V?$allocator@D@2@@std@@QAE@ABV01@@Z ; std::basic_string<char,std::char_traits<char>,std::allocator<char> >::basic_string<char,std::char_traits<char>,std::allocator<char> >
PUBLIC	??0?$basic_string@DU?$char_traits@D@std@@V?$allocator@D@2@@std@@QAE@QBD@Z ; std::basic_string<char,std::char_traits<char>,std::allocator<char> >::basic_string<char,std::char_traits<char>,std::allocator<char> >
PUBLIC	?_Construct_lv_contents@?$basic_string@DU?$char_traits@D@std@@V?$allocator@D@2@@std@@AAEXABV12@@Z ; std::basic_string<char,std::char_traits<char>,std::allocator<char> >::_Construct_lv_contents
PUBLIC	??1?$basic_string@DU?$char_traits@D@std@@V?$allocator@D@2@@std@@QAE@XZ ; std::basic_string<char,std::char_traits<char>,std::allocator<char> >::~basic_string<char,std::char_traits<char>,std::allocator<char> >
PUBLIC	?assign@?$basic_string@DU?$char_traits@D@std@@V?$allocator@D@2@@std@@QAEAAV12@QBDI@Z ; std::basic_string<char,std::char_traits<char>,std::allocator<char> >::assign
PUBLIC	??A?$basic_string@DU?$char_traits@D@std@@V?$allocator@D@2@@std@@QAEAADI@Z ; std::basic_string<char,std::char_traits<char>,std::allocator<char> >::operator[]
PUBLIC	?c_str@?$basic_string@DU?$char_traits@D@std@@V?$allocator@D@2@@std@@QBEPBDXZ ; std::basic_string<char,std::char_traits<char>,std::allocator<char> >::c_str
PUBLIC	?max_size@?$basic_string@DU?$char_traits@D@std@@V?$allocator@D@2@@std@@QBEIXZ ; std::basic_string<char,std::char_traits<char>,std::allocator<char> >::max_size
PUBLIC	?_Equal@?$basic_string@DU?$char_traits@D@std@@V?$allocator@D@2@@std@@QBE_NABV12@@Z ; std::basic_string<char,std::char_traits<char>,std::allocator<char> >::_Equal
PUBLIC	?_Calculate_growth@?$basic_string@DU?$char_traits@D@std@@V?$allocator@D@2@@std@@ABEII@Z ; std::basic_string<char,std::char_traits<char>,std::allocator<char> >::_Calculate_growth
PUBLIC	?_Tidy_init@?$basic_string@DU?$char_traits@D@std@@V?$allocator@D@2@@std@@AAEXXZ ; std::basic_string<char,std::char_traits<char>,std::allocator<char> >::_Tidy_init
PUBLIC	?_Tidy_deallocate@?$basic_string@DU?$char_traits@D@std@@V?$allocator@D@2@@std@@AAEXXZ ; std::basic_string<char,std::char_traits<char>,std::allocator<char> >::_Tidy_deallocate
PUBLIC	??1?$_Compressed_pair@V?$allocator@D@std@@V?$_String_val@U?$_Simple_types@D@std@@@2@$00@std@@QAE@XZ ; std::_Compressed_pair<std::allocator<char>,std::_String_val<std::_Simple_types<char> >,1>::~_Compressed_pair<std::allocator<char>,std::_String_val<std::_Simple_types<char> >,1>
PUBLIC	?NoPath@CFileNameHelper@@SA?AV?$basic_string@DU?$char_traits@D@std@@V?$allocator@D@2@@std@@AAV23@@Z ; CFileNameHelper::NoPath
PUBLIC	??$hash_value@K@boost@@YAIK@Z			; boost::hash_value<unsigned long>
PUBLIC	?next_prime@detail@unordered@boost@@YAII@Z	; boost::unordered::detail::next_prime
PUBLIC	?GetHash@stringhash@@QBEIABV?$basic_string@DU?$char_traits@D@std@@V?$allocator@D@2@@std@@@Z ; stringhash::GetHash
PUBLIC	??1?$functions@U?$hash@K@boost@@U?$equal_to@K@std@@@detail@unordered@boost@@QAE@XZ ; boost::unordered::detail::functions<boost::hash<unsigned long>,std::equal_to<unsigned long> >::~functions<boost::hash<unsigned long>,std::equal_to<unsigned long> >
PUBLIC	?key_eq@?$functions@U?$hash@K@boost@@U?$equal_to@K@std@@@detail@unordered@boost@@QBEABU?$equal_to@K@std@@XZ ; boost::unordered::detail::functions<boost::hash<unsigned long>,std::equal_to<unsigned long> >::key_eq
PUBLIC	??0?$table@U?$map@V?$allocator@U?$pair@$$CBKUItem@CEterFileDict@@@std@@@std@@KUItem@CEterFileDict@@U?$hash@K@boost@@U?$equal_to@K@2@@detail@unordered@boost@@@detail@unordered@boost@@QAE@IABU?$hash@K@3@ABU?$equal_to@K@std@@ABV?$allocator@U?$ptr_node@U?$pair@$$CBKUItem@CEterFileDict@@@std@@@detail@unordered@boost@@@6@@Z ; boost::unordered::detail::table<boost::unordered::detail::map<std::allocator<std::pair<unsigned long const ,CEterFileDict::Item> >,unsigned long,CEterFileDict::Item,boost::hash<unsigned long>,std::equal_to<unsigned long> > >::table<boost::unordered::detail::map<std::allocator<std::pair<unsigned long const ,CEterFileDict::Item> >,unsigned long,CEterFileDict::Item,boost::hash<unsigned long>,std::equal_to<unsigned long> > >
PUBLIC	?destroy_node@?$table@U?$map@V?$allocator@U?$pair@$$CBKUItem@CEterFileDict@@@std@@@std@@KUItem@CEterFileDict@@U?$hash@K@boost@@U?$equal_to@K@2@@detail@unordered@boost@@@detail@unordered@boost@@QAEXPAU?$ptr_node@U?$pair@$$CBKUItem@CEterFileDict@@@std@@@234@@Z ; boost::unordered::detail::table<boost::unordered::detail::map<std::allocator<std::pair<unsigned long const ,CEterFileDict::Item> >,unsigned long,CEterFileDict::Item,boost::hash<unsigned long>,std::equal_to<unsigned long> > >::destroy_node
PUBLIC	?delete_buckets@?$table@U?$map@V?$allocator@U?$pair@$$CBKUItem@CEterFileDict@@@std@@@std@@KUItem@CEterFileDict@@U?$hash@K@boost@@U?$equal_to@K@2@@detail@unordered@boost@@@detail@unordered@boost@@QAEXXZ ; boost::unordered::detail::table<boost::unordered::detail::map<std::allocator<std::pair<unsigned long const ,CEterFileDict::Item> >,unsigned long,CEterFileDict::Item,boost::hash<unsigned long>,std::equal_to<unsigned long> > >::delete_buckets
PUBLIC	?destroy_buckets@?$table@U?$map@V?$allocator@U?$pair@$$CBKUItem@CEterFileDict@@@std@@@std@@KUItem@CEterFileDict@@U?$hash@K@boost@@U?$equal_to@K@2@@detail@unordered@boost@@@detail@unordered@boost@@QAEXXZ ; boost::unordered::detail::table<boost::unordered::detail::map<std::allocator<std::pair<unsigned long const ,CEterFileDict::Item> >,unsigned long,CEterFileDict::Item,boost::hash<unsigned long>,std::equal_to<unsigned long> > >::destroy_buckets
PUBLIC	??0?$unordered_multimap@KUItem@CEterFileDict@@U?$hash@K@boost@@U?$equal_to@K@std@@V?$allocator@U?$pair@$$CBKUItem@CEterFileDict@@@std@@@6@@unordered@boost@@QAE@XZ ; boost::unordered::unordered_multimap<unsigned long,CEterFileDict::Item,boost::hash<unsigned long>,std::equal_to<unsigned long>,std::allocator<std::pair<unsigned long const ,CEterFileDict::Item> > >::unordered_multimap<unsigned long,CEterFileDict::Item,boost::hash<unsigned long>,std::equal_to<unsigned long>,std::allocator<std::pair<unsigned long const ,CEterFileDict::Item> > >
PUBLIC	??1?$unordered_multimap@KUItem@CEterFileDict@@U?$hash@K@boost@@U?$equal_to@K@std@@V?$allocator@U?$pair@$$CBKUItem@CEterFileDict@@@std@@@6@@unordered@boost@@QAE@XZ ; boost::unordered::unordered_multimap<unsigned long,CEterFileDict::Item,boost::hash<unsigned long>,std::equal_to<unsigned long>,std::allocator<std::pair<unsigned long const ,CEterFileDict::Item> > >::~unordered_multimap<unsigned long,CEterFileDict::Item,boost::hash<unsigned long>,std::equal_to<unsigned long>,std::allocator<std::pair<unsigned long const ,CEterFileDict::Item> > >
PUBLIC	??1CEterFileDict@@QAE@XZ			; CEterFileDict::~CEterFileDict
PUBLIC	??1?$CSingleton@VCEterPackManager@@@@UAE@XZ	; CSingleton<CEterPackManager>::~CSingleton<CEterPackManager>
PUBLIC	??_G?$CSingleton@VCEterPackManager@@@@UAEPAXI@Z	; CSingleton<CEterPackManager>::`scalar deleting destructor'
PUBLIC	??0CEterPackManager@@QAE@XZ			; CEterPackManager::CEterPackManager
PUBLIC	??1CEterPackManager@@UAE@XZ			; CEterPackManager::~CEterPackManager
PUBLIC	?SetCacheMode@CEterPackManager@@QAEXXZ		; CEterPackManager::SetCacheMode
PUBLIC	?SetRelativePathMode@CEterPackManager@@QAEXXZ	; CEterPackManager::SetRelativePathMode
PUBLIC	?LoadStaticCache@CEterPackManager@@QAEXPBD@Z	; CEterPackManager::LoadStaticCache
PUBLIC	?SetSearchMode@CEterPackManager@@QAEX_N@Z	; CEterPackManager::SetSearchMode
PUBLIC	?GetSearchMode@CEterPackManager@@QAEHXZ		; CEterPackManager::GetSearchMode
PUBLIC	?Get@CEterPackManager@@QAE_NAAVCMappedFile@@PBDPAPBX@Z ; CEterPackManager::Get
PUBLIC	?GetFromPack@CEterPackManager@@QAE_NAAVCMappedFile@@PBDPAPBX@Z ; CEterPackManager::GetFromPack
PUBLIC	?GetFromFile@CEterPackManager@@QAE_NAAVCMappedFile@@PBDPAPBX@Z ; CEterPackManager::GetFromFile
PUBLIC	?isExist@CEterPackManager@@QAE_NPBD@Z		; CEterPackManager::isExist
PUBLIC	?isExistInPack@CEterPackManager@@QAE_NPBD@Z	; CEterPackManager::isExistInPack
PUBLIC	?RegisterPack@CEterPackManager@@QAE_NPBD0PBE@Z	; CEterPackManager::RegisterPack
PUBLIC	?RegisterRootPack@CEterPackManager@@QAEXPBD@Z	; CEterPackManager::RegisterRootPack
PUBLIC	?RegisterPackWhenPackMaking@CEterPackManager@@QAE_NPBD0PAVCEterPack@@@Z ; CEterPackManager::RegisterPackWhenPackMaking
PUBLIC	?DecryptPackIV@CEterPackManager@@QAE_NK@Z	; CEterPackManager::DecryptPackIV
PUBLIC	?GetRootPackFileName@CEterPackManager@@QAEPBDXZ	; CEterPackManager::GetRootPackFileName
PUBLIC	?WriteHybridCryptPackInfo@CEterPackManager@@QAEXPBD@Z ; CEterPackManager::WriteHybridCryptPackInfo
PUBLIC	?RetrieveHybridCryptPackKeys@CEterPackManager@@QAEXPBE@Z ; CEterPackManager::RetrieveHybridCryptPackKeys
PUBLIC	?RetrieveHybridCryptPackSDB@CEterPackManager@@QAEXPBE@Z ; CEterPackManager::RetrieveHybridCryptPackSDB
PUBLIC	?ArrangeMemoryMappedPack@CEterPackManager@@QAEXXZ ; CEterPackManager::ArrangeMemoryMappedPack
PUBLIC	?ConvertFileName@CEterPackManager@@IAEHPBDAAV?$basic_string@DU?$char_traits@D@std@@V?$allocator@D@2@@std@@@Z ; CEterPackManager::ConvertFileName
PUBLIC	?CompareName@CEterPackManager@@IAE_NPBDK0@Z	; CEterPackManager::CompareName
PUBLIC	?FindPack@CEterPackManager@@IAEPAVCEterPack@@PBD@Z ; CEterPackManager::FindPack
PUBLIC	?__FindCache@CEterPackManager@@IAEPAUSCache@1@K@Z ; CEterPackManager::__FindCache
PUBLIC	?__ClearCacheMap@CEterPackManager@@IAEXXZ	; CEterPackManager::__ClearCacheMap
PUBLIC	??0?$list@PAVCEterPack@@V?$allocator@PAVCEterPack@@@std@@@std@@QAE@XZ ; std::list<CEterPack *,std::allocator<CEterPack *> >::list<CEterPack *,std::allocator<CEterPack *> >
PUBLIC	??1?$list@PAVCEterPack@@V?$allocator@PAVCEterPack@@@std@@@std@@QAE@XZ ; std::list<CEterPack *,std::allocator<CEterPack *> >::~list<CEterPack *,std::allocator<CEterPack *> >
PUBLIC	?_Tidy@?$list@PAVCEterPack@@V?$allocator@PAVCEterPack@@@std@@@std@@AAEXXZ ; std::list<CEterPack *,std::allocator<CEterPack *> >::_Tidy
PUBLIC	?_Alloc_sentinel_and_proxy@?$list@PAVCEterPack@@V?$allocator@PAVCEterPack@@@std@@@std@@AAEXXZ ; std::list<CEterPack *,std::allocator<CEterPack *> >::_Alloc_sentinel_and_proxy
PUBLIC	??1?$functions@Ustringhash@@U?$equal_to@V?$basic_string@DU?$char_traits@D@std@@V?$allocator@D@2@@std@@@std@@@detail@unordered@boost@@QAE@XZ ; boost::unordered::detail::functions<stringhash,std::equal_to<std::basic_string<char,std::char_traits<char>,std::allocator<char> > > >::~functions<stringhash,std::equal_to<std::basic_string<char,std::char_traits<char>,std::allocator<char> > > >
PUBLIC	?key_eq@?$functions@Ustringhash@@U?$equal_to@V?$basic_string@DU?$char_traits@D@std@@V?$allocator@D@2@@std@@@std@@@detail@unordered@boost@@QBEABU?$equal_to@V?$basic_string@DU?$char_traits@D@std@@V?$allocator@D@2@@std@@@std@@XZ ; boost::unordered::detail::functions<stringhash,std::equal_to<std::basic_string<char,std::char_traits<char>,std::allocator<char> > > >::key_eq
PUBLIC	?next_node@?$table@U?$map@V?$allocator@U?$pair@$$CBV?$basic_string@DU?$char_traits@D@std@@V?$allocator@D@2@@std@@PAVCEterPack@@@std@@@std@@V?$basic_string@DU?$char_traits@D@std@@V?$allocator@D@2@@2@PAVCEterPack@@Ustringhash@@U?$equal_to@V?$basic_string@DU?$char_traits@D@std@@V?$allocator@D@2@@std@@@2@@detail@unordered@boost@@@detail@unordered@boost@@SAPAU?$ptr_node@U?$pair@$$CBV?$basic_string@DU?$char_traits@D@std@@V?$allocator@D@2@@std@@PAVCEterPack@@@std@@@234@PAUptr_bucket@234@@Z ; boost::unordered::detail::table<boost::unordered::detail::map<std::allocator<std::pair<std::basic_string<char,std::char_traits<char>,std::allocator<char> > const ,CEterPack *> >,std::basic_string<char,std::char_traits<char>,std::allocator<char> >,CEterPack *,stringhash,std::equal_to<std::basic_string<char,std::char_traits<char>,std::allocator<char> > > > >::next_node
PUBLIC	?next_for_find@?$table@U?$map@V?$allocator@U?$pair@$$CBV?$basic_string@DU?$char_traits@D@std@@V?$allocator@D@2@@std@@PAVCEterPack@@@std@@@std@@V?$basic_string@DU?$char_traits@D@std@@V?$allocator@D@2@@2@PAVCEterPack@@Ustringhash@@U?$equal_to@V?$basic_string@DU?$char_traits@D@std@@V?$allocator@D@2@@std@@@2@@detail@unordered@boost@@@detail@unordered@boost@@SAPAU?$ptr_node@U?$pair@$$CBV?$basic_string@DU?$char_traits@D@std@@V?$allocator@D@2@@std@@PAVCEterPack@@@std@@@234@PAUptr_bucket@234@@Z ; boost::unordered::detail::table<boost::unordered::detail::map<std::allocator<std::pair<std::basic_string<char,std::char_traits<char>,std::allocator<char> > const ,CEterPack *> >,std::basic_string<char,std::char_traits<char>,std::allocator<char> >,CEterPack *,stringhash,std::equal_to<std::basic_string<char,std::char_traits<char>,std::allocator<char> > > > >::next_for_find
PUBLIC	?begin@?$table@U?$map@V?$allocator@U?$pair@$$CBV?$basic_string@DU?$char_traits@D@std@@V?$allocator@D@2@@std@@PAVCEterPack@@@std@@@std@@V?$basic_string@DU?$char_traits@D@std@@V?$allocator@D@2@@2@PAVCEterPack@@Ustringhash@@U?$equal_to@V?$basic_string@DU?$char_traits@D@std@@V?$allocator@D@2@@std@@@2@@detail@unordered@boost@@@detail@unordered@boost@@QBEPAU?$ptr_node@U?$pair@$$CBV?$basic_string@DU?$char_traits@D@std@@V?$allocator@D@2@@std@@PAVCEterPack@@@std@@@234@XZ ; boost::unordered::detail::table<boost::unordered::detail::map<std::allocator<std::pair<std::basic_string<char,std::char_traits<char>,std::allocator<char> > const ,CEterPack *> >,std::basic_string<char,std::char_traits<char>,std::allocator<char> >,CEterPack *,stringhash,std::equal_to<std::basic_string<char,std::char_traits<char>,std::allocator<char> > > > >::begin
PUBLIC	?begin@?$table@U?$map@V?$allocator@U?$pair@$$CBV?$basic_string@DU?$char_traits@D@std@@V?$allocator@D@2@@std@@PAVCEterPack@@@std@@@std@@V?$basic_string@DU?$char_traits@D@std@@V?$allocator@D@2@@2@PAVCEterPack@@Ustringhash@@U?$equal_to@V?$basic_string@DU?$char_traits@D@std@@V?$allocator@D@2@@std@@@2@@detail@unordered@boost@@@detail@unordered@boost@@QBEPAU?$ptr_node@U?$pair@$$CBV?$basic_string@DU?$char_traits@D@std@@V?$allocator@D@2@@std@@PAVCEterPack@@@std@@@234@I@Z ; boost::unordered::detail::table<boost::unordered::detail::map<std::allocator<std::pair<std::basic_string<char,std::char_traits<char>,std::allocator<char> > const ,CEterPack *> >,std::basic_string<char,std::char_traits<char>,std::allocator<char> >,CEterPack *,stringhash,std::equal_to<std::basic_string<char,std::char_traits<char>,std::allocator<char> > > > >::begin
PUBLIC	?recalculate_max_load@?$table@U?$map@V?$allocator@U?$pair@$$CBV?$basic_string@DU?$char_traits@D@std@@V?$allocator@D@2@@std@@PAVCEterPack@@@std@@@std@@V?$basic_string@DU?$char_traits@D@std@@V?$allocator@D@2@@2@PAVCEterPack@@Ustringhash@@U?$equal_to@V?$basic_string@DU?$char_traits@D@std@@V?$allocator@D@2@@std@@@2@@detail@unordered@boost@@@detail@unordered@boost@@QAEXXZ ; boost::unordered::detail::table<boost::unordered::detail::map<std::allocator<std::pair<std::basic_string<char,std::char_traits<char>,std::allocator<char> > const ,CEterPack *> >,std::basic_string<char,std::char_traits<char>,std::allocator<char> >,CEterPack *,stringhash,std::equal_to<std::basic_string<char,std::char_traits<char>,std::allocator<char> > > > >::recalculate_max_load
PUBLIC	?min_buckets_for_size@?$table@U?$map@V?$allocator@U?$pair@$$CBV?$basic_string@DU?$char_traits@D@std@@V?$allocator@D@2@@std@@PAVCEterPack@@@std@@@std@@V?$basic_string@DU?$char_traits@D@std@@V?$allocator@D@2@@2@PAVCEterPack@@Ustringhash@@U?$equal_to@V?$basic_string@DU?$char_traits@D@std@@V?$allocator@D@2@@std@@@2@@detail@unordered@boost@@@detail@unordered@boost@@QBEII@Z ; boost::unordered::detail::table<boost::unordered::detail::map<std::allocator<std::pair<std::basic_string<char,std::char_traits<char>,std::allocator<char> > const ,CEterPack *> >,std::basic_string<char,std::char_traits<char>,std::allocator<char> >,CEterPack *,stringhash,std::equal_to<std::basic_string<char,std::char_traits<char>,std::allocator<char> > > > >::min_buckets_for_size
PUBLIC	??0?$table@U?$map@V?$allocator@U?$pair@$$CBV?$basic_string@DU?$char_traits@D@std@@V?$allocator@D@2@@std@@PAVCEterPack@@@std@@@std@@V?$basic_string@DU?$char_traits@D@std@@V?$allocator@D@2@@2@PAVCEterPack@@Ustringhash@@U?$equal_to@V?$basic_string@DU?$char_traits@D@std@@V?$allocator@D@2@@std@@@2@@detail@unordered@boost@@@detail@unordered@boost@@QAE@IABUstringhash@@ABU?$equal_to@V?$basic_string@DU?$char_traits@D@std@@V?$allocator@D@2@@std@@@std@@ABV?$allocator@U?$ptr_node@U?$pair@$$CBV?$basic_string@DU?$char_traits@D@std@@V?$allocator@D@2@@std@@PAVCEterPack@@@std@@@detail@unordered@boost@@@6@@Z ; boost::unordered::detail::table<boost::unordered::detail::map<std::allocator<std::pair<std::basic_string<char,std::char_traits<char>,std::allocator<char> > const ,CEterPack *> >,std::basic_string<char,std::char_traits<char>,std::allocator<char> >,CEterPack *,stringhash,std::equal_to<std::basic_string<char,std::char_traits<char>,std::allocator<char> > > > >::table<boost::unordered::detail::map<std::allocator<std::pair<std::basic_string<char,std::char_traits<char>,std::allocator<char> > const ,CEterPack *> >,std::basic_string<char,std::char_traits<char>,std::allocator<char> >,CEterPack *,stringhash,std::equal_to<std::basic_string<char,std::char_traits<char>,std::allocator<char> > > > >
PUBLIC	?create_buckets@?$table@U?$map@V?$allocator@U?$pair@$$CBV?$basic_string@DU?$char_traits@D@std@@V?$allocator@D@2@@std@@PAVCEterPack@@@std@@@std@@V?$basic_string@DU?$char_traits@D@std@@V?$allocator@D@2@@2@PAVCEterPack@@Ustringhash@@U?$equal_to@V?$basic_string@DU?$char_traits@D@std@@V?$allocator@D@2@@std@@@2@@detail@unordered@boost@@@detail@unordered@boost@@QAEXI@Z ; boost::unordered::detail::table<boost::unordered::detail::map<std::allocator<std::pair<std::basic_string<char,std::char_traits<char>,std::allocator<char> > const ,CEterPack *> >,std::basic_string<char,std::char_traits<char>,std::allocator<char> >,CEterPack *,stringhash,std::equal_to<std::basic_string<char,std::char_traits<char>,std::allocator<char> > > > >::create_buckets
PUBLIC	?destroy_node@?$table@U?$map@V?$allocator@U?$pair@$$CBV?$basic_string@DU?$char_traits@D@std@@V?$allocator@D@2@@std@@PAVCEterPack@@@std@@@std@@V?$basic_string@DU?$char_traits@D@std@@V?$allocator@D@2@@2@PAVCEterPack@@Ustringhash@@U?$equal_to@V?$basic_string@DU?$char_traits@D@std@@V?$allocator@D@2@@std@@@2@@detail@unordered@boost@@@detail@unordered@boost@@QAEXPAU?$ptr_node@U?$pair@$$CBV?$basic_string@DU?$char_traits@D@std@@V?$allocator@D@2@@std@@PAVCEterPack@@@std@@@234@@Z ; boost::unordered::detail::table<boost::unordered::detail::map<std::allocator<std::pair<std::basic_string<char,std::char_traits<char>,std::allocator<char> > const ,CEterPack *> >,std::basic_string<char,std::char_traits<char>,std::allocator<char> >,CEterPack *,stringhash,std::equal_to<std::basic_string<char,std::char_traits<char>,std::allocator<char> > > > >::destroy_node
PUBLIC	?delete_buckets@?$table@U?$map@V?$allocator@U?$pair@$$CBV?$basic_string@DU?$char_traits@D@std@@V?$allocator@D@2@@std@@PAVCEterPack@@@std@@@std@@V?$basic_string@DU?$char_traits@D@std@@V?$allocator@D@2@@2@PAVCEterPack@@Ustringhash@@U?$equal_to@V?$basic_string@DU?$char_traits@D@std@@V?$allocator@D@2@@std@@@2@@detail@unordered@boost@@@detail@unordered@boost@@QAEXXZ ; boost::unordered::detail::table<boost::unordered::detail::map<std::allocator<std::pair<std::basic_string<char,std::char_traits<char>,std::allocator<char> > const ,CEterPack *> >,std::basic_string<char,std::char_traits<char>,std::allocator<char> >,CEterPack *,stringhash,std::equal_to<std::basic_string<char,std::char_traits<char>,std::allocator<char> > > > >::delete_buckets
PUBLIC	?destroy_buckets@?$table@U?$map@V?$allocator@U?$pair@$$CBV?$basic_string@DU?$char_traits@D@std@@V?$allocator@D@2@@std@@PAVCEterPack@@@std@@@std@@V?$basic_string@DU?$char_traits@D@std@@V?$allocator@D@2@@2@PAVCEterPack@@Ustringhash@@U?$equal_to@V?$basic_string@DU?$char_traits@D@std@@V?$allocator@D@2@@std@@@2@@detail@unordered@boost@@@detail@unordered@boost@@QAEXXZ ; boost::unordered::detail::table<boost::unordered::detail::map<std::allocator<std::pair<std::basic_string<char,std::char_traits<char>,std::allocator<char> > const ,CEterPack *> >,std::basic_string<char,std::char_traits<char>,std::allocator<char> >,CEterPack *,stringhash,std::equal_to<std::basic_string<char,std::char_traits<char>,std::allocator<char> > > > >::destroy_buckets
PUBLIC	?find_node@?$table@U?$map@V?$allocator@U?$pair@$$CBV?$basic_string@DU?$char_traits@D@std@@V?$allocator@D@2@@std@@PAVCEterPack@@@std@@@std@@V?$basic_string@DU?$char_traits@D@std@@V?$allocator@D@2@@2@PAVCEterPack@@Ustringhash@@U?$equal_to@V?$basic_string@DU?$char_traits@D@std@@V?$allocator@D@2@@std@@@2@@detail@unordered@boost@@@detail@unordered@boost@@QBEPAU?$ptr_node@U?$pair@$$CBV?$basic_string@DU?$char_traits@D@std@@V?$allocator@D@2@@std@@PAVCEterPack@@@std@@@234@ABV?$basic_string@DU?$char_traits@D@std@@V?$allocator@D@2@@std@@@Z ; boost::unordered::detail::table<boost::unordered::detail::map<std::allocator<std::pair<std::basic_string<char,std::char_traits<char>,std::allocator<char> > const ,CEterPack *> >,std::basic_string<char,std::char_traits<char>,std::allocator<char> >,CEterPack *,stringhash,std::equal_to<std::basic_string<char,std::char_traits<char>,std::allocator<char> > > > >::find_node
PUBLIC	?reserve_for_insert@?$table@U?$map@V?$allocator@U?$pair@$$CBV?$basic_string@DU?$char_traits@D@std@@V?$allocator@D@2@@std@@PAVCEterPack@@@std@@@std@@V?$basic_string@DU?$char_traits@D@std@@V?$allocator@D@2@@2@PAVCEterPack@@Ustringhash@@U?$equal_to@V?$basic_string@DU?$char_traits@D@std@@V?$allocator@D@2@@std@@@2@@detail@unordered@boost@@@detail@unordered@boost@@QAEXI@Z ; boost::unordered::detail::table<boost::unordered::detail::map<std::allocator<std::pair<std::basic_string<char,std::char_traits<char>,std::allocator<char> > const ,CEterPack *> >,std::basic_string<char,std::char_traits<char>,std::allocator<char> >,CEterPack *,stringhash,std::equal_to<std::basic_string<char,std::char_traits<char>,std::allocator<char> > > > >::reserve_for_insert
PUBLIC	?rehash_impl@?$table@U?$map@V?$allocator@U?$pair@$$CBV?$basic_string@DU?$char_traits@D@std@@V?$allocator@D@2@@std@@PAVCEterPack@@@std@@@std@@V?$basic_string@DU?$char_traits@D@std@@V?$allocator@D@2@@2@PAVCEterPack@@Ustringhash@@U?$equal_to@V?$basic_string@DU?$char_traits@D@std@@V?$allocator@D@2@@std@@@2@@detail@unordered@boost@@@detail@unordered@boost@@QAEXI@Z ; boost::unordered::detail::table<boost::unordered::detail::map<std::allocator<std::pair<std::basic_string<char,std::char_traits<char>,std::allocator<char> > const ,CEterPack *> >,std::basic_string<char,std::char_traits<char>,std::allocator<char> >,CEterPack *,stringhash,std::equal_to<std::basic_string<char,std::char_traits<char>,std::allocator<char> > > > >::rehash_impl
PUBLIC	?add_node_unique@?$table@U?$map@V?$allocator@U?$pair@$$CBV?$basic_string@DU?$char_traits@D@std@@V?$allocator@D@2@@std@@PAVCEterPack@@@std@@@std@@V?$basic_string@DU?$char_traits@D@std@@V?$allocator@D@2@@2@PAVCEterPack@@Ustringhash@@U?$equal_to@V?$basic_string@DU?$char_traits@D@std@@V?$allocator@D@2@@std@@@2@@detail@unordered@boost@@@detail@unordered@boost@@QAEPAU?$ptr_node@U?$pair@$$CBV?$basic_string@DU?$char_traits@D@std@@V?$allocator@D@2@@std@@PAVCEterPack@@@std@@@234@PAU5234@I@Z ; boost::unordered::detail::table<boost::unordered::detail::map<std::allocator<std::pair<std::basic_string<char,std::char_traits<char>,std::allocator<char> > const ,CEterPack *> >,std::basic_string<char,std::char_traits<char>,std::allocator<char> >,CEterPack *,stringhash,std::equal_to<std::basic_string<char,std::char_traits<char>,std::allocator<char> > > > >::add_node_unique
PUBLIC	?resize_and_add_node_unique@?$table@U?$map@V?$allocator@U?$pair@$$CBV?$basic_string@DU?$char_traits@D@std@@V?$allocator@D@2@@std@@PAVCEterPack@@@std@@@std@@V?$basic_string@DU?$char_traits@D@std@@V?$allocator@D@2@@2@PAVCEterPack@@Ustringhash@@U?$equal_to@V?$basic_string@DU?$char_traits@D@std@@V?$allocator@D@2@@std@@@2@@detail@unordered@boost@@@detail@unordered@boost@@QAEPAU?$ptr_node@U?$pair@$$CBV?$basic_string@DU?$char_traits@D@std@@V?$allocator@D@2@@std@@PAVCEterPack@@@std@@@234@PAU5234@I@Z ; boost::unordered::detail::table<boost::unordered::detail::map<std::allocator<std::pair<std::basic_string<char,std::char_traits<char>,std::allocator<char> > const ,CEterPack *> >,std::basic_string<char,std::char_traits<char>,std::allocator<char> >,CEterPack *,stringhash,std::equal_to<std::basic_string<char,std::char_traits<char>,std::allocator<char> > > > >::resize_and_add_node_unique
PUBLIC	??0?$unordered_map@V?$basic_string@DU?$char_traits@D@std@@V?$allocator@D@2@@std@@PAVCEterPack@@Ustringhash@@U?$equal_to@V?$basic_string@DU?$char_traits@D@std@@V?$allocator@D@2@@std@@@2@V?$allocator@U?$pair@$$CBV?$basic_string@DU?$char_traits@D@std@@V?$allocator@D@2@@std@@PAVCEterPack@@@std@@@2@@unordered@boost@@QAE@XZ ; boost::unordered::unordered_map<std::basic_string<char,std::char_traits<char>,std::allocator<char> >,CEterPack *,stringhash,std::equal_to<std::basic_string<char,std::char_traits<char>,std::allocator<char> > >,std::allocator<std::pair<std::basic_string<char,std::char_traits<char>,std::allocator<char> > const ,CEterPack *> > >::unordered_map<std::basic_string<char,std::char_traits<char>,std::allocator<char> >,CEterPack *,stringhash,std::equal_to<std::basic_string<char,std::char_traits<char>,std::allocator<char> > >,std::allocator<std::pair<std::basic_string<char,std::char_traits<char>,std::allocator<char> > const ,CEterPack *> > >
PUBLIC	??1?$unordered_map@V?$basic_string@DU?$char_traits@D@std@@V?$allocator@D@2@@std@@PAVCEterPack@@Ustringhash@@U?$equal_to@V?$basic_string@DU?$char_traits@D@std@@V?$allocator@D@2@@std@@@2@V?$allocator@U?$pair@$$CBV?$basic_string@DU?$char_traits@D@std@@V?$allocator@D@2@@std@@PAVCEterPack@@@std@@@2@@unordered@boost@@QAE@XZ ; boost::unordered::unordered_map<std::basic_string<char,std::char_traits<char>,std::allocator<char> >,CEterPack *,stringhash,std::equal_to<std::basic_string<char,std::char_traits<char>,std::allocator<char> > >,std::allocator<std::pair<std::basic_string<char,std::char_traits<char>,std::allocator<char> > const ,CEterPack *> > >::~unordered_map<std::basic_string<char,std::char_traits<char>,std::allocator<char> >,CEterPack *,stringhash,std::equal_to<std::basic_string<char,std::char_traits<char>,std::allocator<char> > >,std::allocator<std::pair<std::basic_string<char,std::char_traits<char>,std::allocator<char> > const ,CEterPack *> > >
PUBLIC	?find@?$unordered_map@V?$basic_string@DU?$char_traits@D@std@@V?$allocator@D@2@@std@@PAVCEterPack@@Ustringhash@@U?$equal_to@V?$basic_string@DU?$char_traits@D@std@@V?$allocator@D@2@@std@@@2@V?$allocator@U?$pair@$$CBV?$basic_string@DU?$char_traits@D@std@@V?$allocator@D@2@@std@@PAVCEterPack@@@std@@@2@@unordered@boost@@QAE?AU?$iterator@U?$ptr_node@U?$pair@$$CBV?$basic_string@DU?$char_traits@D@std@@V?$allocator@D@2@@std@@PAVCEterPack@@@std@@@detail@unordered@boost@@@iterator_detail@23@ABV?$basic_string@DU?$char_traits@D@std@@V?$allocator@D@2@@std@@@Z ; boost::unordered::unordered_map<std::basic_string<char,std::char_traits<char>,std::allocator<char> >,CEterPack *,stringhash,std::equal_to<std::basic_string<char,std::char_traits<char>,std::allocator<char> > >,std::allocator<std::pair<std::basic_string<char,std::char_traits<char>,std::allocator<char> > const ,CEterPack *> > >::find
PUBLIC	?next_node@?$table@U?$map@V?$allocator@U?$pair@$$CBKUSCache@CEterPackManager@@@std@@@std@@KUSCache@CEterPackManager@@U?$hash@K@boost@@U?$equal_to@K@2@@detail@unordered@boost@@@detail@unordered@boost@@SAPAU?$ptr_node@U?$pair@$$CBKUSCache@CEterPackManager@@@std@@@234@PAUptr_bucket@234@@Z ; boost::unordered::detail::table<boost::unordered::detail::map<std::allocator<std::pair<unsigned long const ,CEterPackManager::SCache> >,unsigned long,CEterPackManager::SCache,boost::hash<unsigned long>,std::equal_to<unsigned long> > >::next_node
PUBLIC	?next_for_find@?$table@U?$map@V?$allocator@U?$pair@$$CBKUSCache@CEterPackManager@@@std@@@std@@KUSCache@CEterPackManager@@U?$hash@K@boost@@U?$equal_to@K@2@@detail@unordered@boost@@@detail@unordered@boost@@SAPAU?$ptr_node@U?$pair@$$CBKUSCache@CEterPackManager@@@std@@@234@PAUptr_bucket@234@@Z ; boost::unordered::detail::table<boost::unordered::detail::map<std::allocator<std::pair<unsigned long const ,CEterPackManager::SCache> >,unsigned long,CEterPackManager::SCache,boost::hash<unsigned long>,std::equal_to<unsigned long> > >::next_for_find
PUBLIC	?begin@?$table@U?$map@V?$allocator@U?$pair@$$CBKUSCache@CEterPackManager@@@std@@@std@@KUSCache@CEterPackManager@@U?$hash@K@boost@@U?$equal_to@K@2@@detail@unordered@boost@@@detail@unordered@boost@@QBEPAU?$ptr_node@U?$pair@$$CBKUSCache@CEterPackManager@@@std@@@234@I@Z ; boost::unordered::detail::table<boost::unordered::detail::map<std::allocator<std::pair<unsigned long const ,CEterPackManager::SCache> >,unsigned long,CEterPackManager::SCache,boost::hash<unsigned long>,std::equal_to<unsigned long> > >::begin
PUBLIC	?recalculate_max_load@?$table@U?$map@V?$allocator@U?$pair@$$CBKUSCache@CEterPackManager@@@std@@@std@@KUSCache@CEterPackManager@@U?$hash@K@boost@@U?$equal_to@K@2@@detail@unordered@boost@@@detail@unordered@boost@@QAEXXZ ; boost::unordered::detail::table<boost::unordered::detail::map<std::allocator<std::pair<unsigned long const ,CEterPackManager::SCache> >,unsigned long,CEterPackManager::SCache,boost::hash<unsigned long>,std::equal_to<unsigned long> > >::recalculate_max_load
PUBLIC	?min_buckets_for_size@?$table@U?$map@V?$allocator@U?$pair@$$CBKUSCache@CEterPackManager@@@std@@@std@@KUSCache@CEterPackManager@@U?$hash@K@boost@@U?$equal_to@K@2@@detail@unordered@boost@@@detail@unordered@boost@@QBEII@Z ; boost::unordered::detail::table<boost::unordered::detail::map<std::allocator<std::pair<unsigned long const ,CEterPackManager::SCache> >,unsigned long,CEterPackManager::SCache,boost::hash<unsigned long>,std::equal_to<unsigned long> > >::min_buckets_for_size
PUBLIC	??0?$table@U?$map@V?$allocator@U?$pair@$$CBKUSCache@CEterPackManager@@@std@@@std@@KUSCache@CEterPackManager@@U?$hash@K@boost@@U?$equal_to@K@2@@detail@unordered@boost@@@detail@unordered@boost@@QAE@IABU?$hash@K@3@ABU?$equal_to@K@std@@ABV?$allocator@U?$ptr_node@U?$pair@$$CBKUSCache@CEterPackManager@@@std@@@detail@unordered@boost@@@6@@Z ; boost::unordered::detail::table<boost::unordered::detail::map<std::allocator<std::pair<unsigned long const ,CEterPackManager::SCache> >,unsigned long,CEterPackManager::SCache,boost::hash<unsigned long>,std::equal_to<unsigned long> > >::table<boost::unordered::detail::map<std::allocator<std::pair<unsigned long const ,CEterPackManager::SCache> >,unsigned long,CEterPackManager::SCache,boost::hash<unsigned long>,std::equal_to<unsigned long> > >
PUBLIC	?create_buckets@?$table@U?$map@V?$allocator@U?$pair@$$CBKUSCache@CEterPackManager@@@std@@@std@@KUSCache@CEterPackManager@@U?$hash@K@boost@@U?$equal_to@K@2@@detail@unordered@boost@@@detail@unordered@boost@@QAEXI@Z ; boost::unordered::detail::table<boost::unordered::detail::map<std::allocator<std::pair<unsigned long const ,CEterPackManager::SCache> >,unsigned long,CEterPackManager::SCache,boost::hash<unsigned long>,std::equal_to<unsigned long> > >::create_buckets
PUBLIC	?destroy_node@?$table@U?$map@V?$allocator@U?$pair@$$CBKUSCache@CEterPackManager@@@std@@@std@@KUSCache@CEterPackManager@@U?$hash@K@boost@@U?$equal_to@K@2@@detail@unordered@boost@@@detail@unordered@boost@@QAEXPAU?$ptr_node@U?$pair@$$CBKUSCache@CEterPackManager@@@std@@@234@@Z ; boost::unordered::detail::table<boost::unordered::detail::map<std::allocator<std::pair<unsigned long const ,CEterPackManager::SCache> >,unsigned long,CEterPackManager::SCache,boost::hash<unsigned long>,std::equal_to<unsigned long> > >::destroy_node
PUBLIC	?delete_buckets@?$table@U?$map@V?$allocator@U?$pair@$$CBKUSCache@CEterPackManager@@@std@@@std@@KUSCache@CEterPackManager@@U?$hash@K@boost@@U?$equal_to@K@2@@detail@unordered@boost@@@detail@unordered@boost@@QAEXXZ ; boost::unordered::detail::table<boost::unordered::detail::map<std::allocator<std::pair<unsigned long const ,CEterPackManager::SCache> >,unsigned long,CEterPackManager::SCache,boost::hash<unsigned long>,std::equal_to<unsigned long> > >::delete_buckets
PUBLIC	?destroy_buckets@?$table@U?$map@V?$allocator@U?$pair@$$CBKUSCache@CEterPackManager@@@std@@@std@@KUSCache@CEterPackManager@@U?$hash@K@boost@@U?$equal_to@K@2@@detail@unordered@boost@@@detail@unordered@boost@@QAEXXZ ; boost::unordered::detail::table<boost::unordered::detail::map<std::allocator<std::pair<unsigned long const ,CEterPackManager::SCache> >,unsigned long,CEterPackManager::SCache,boost::hash<unsigned long>,std::equal_to<unsigned long> > >::destroy_buckets
PUBLIC	?clear_impl@?$table@U?$map@V?$allocator@U?$pair@$$CBKUSCache@CEterPackManager@@@std@@@std@@KUSCache@CEterPackManager@@U?$hash@K@boost@@U?$equal_to@K@2@@detail@unordered@boost@@@detail@unordered@boost@@QAEXXZ ; boost::unordered::detail::table<boost::unordered::detail::map<std::allocator<std::pair<unsigned long const ,CEterPackManager::SCache> >,unsigned long,CEterPackManager::SCache,boost::hash<unsigned long>,std::equal_to<unsigned long> > >::clear_impl
PUBLIC	?find_node@?$table@U?$map@V?$allocator@U?$pair@$$CBKUSCache@CEterPackManager@@@std@@@std@@KUSCache@CEterPackManager@@U?$hash@K@boost@@U?$equal_to@K@2@@detail@unordered@boost@@@detail@unordered@boost@@QBEPAU?$ptr_node@U?$pair@$$CBKUSCache@CEterPackManager@@@std@@@234@ABK@Z ; boost::unordered::detail::table<boost::unordered::detail::map<std::allocator<std::pair<unsigned long const ,CEterPackManager::SCache> >,unsigned long,CEterPackManager::SCache,boost::hash<unsigned long>,std::equal_to<unsigned long> > >::find_node
PUBLIC	?reserve_for_insert@?$table@U?$map@V?$allocator@U?$pair@$$CBKUSCache@CEterPackManager@@@std@@@std@@KUSCache@CEterPackManager@@U?$hash@K@boost@@U?$equal_to@K@2@@detail@unordered@boost@@@detail@unordered@boost@@QAEXI@Z ; boost::unordered::detail::table<boost::unordered::detail::map<std::allocator<std::pair<unsigned long const ,CEterPackManager::SCache> >,unsigned long,CEterPackManager::SCache,boost::hash<unsigned long>,std::equal_to<unsigned long> > >::reserve_for_insert
PUBLIC	?rehash_impl@?$table@U?$map@V?$allocator@U?$pair@$$CBKUSCache@CEterPackManager@@@std@@@std@@KUSCache@CEterPackManager@@U?$hash@K@boost@@U?$equal_to@K@2@@detail@unordered@boost@@@detail@unordered@boost@@QAEXI@Z ; boost::unordered::detail::table<boost::unordered::detail::map<std::allocator<std::pair<unsigned long const ,CEterPackManager::SCache> >,unsigned long,CEterPackManager::SCache,boost::hash<unsigned long>,std::equal_to<unsigned long> > >::rehash_impl
PUBLIC	?add_node_unique@?$table@U?$map@V?$allocator@U?$pair@$$CBKUSCache@CEterPackManager@@@std@@@std@@KUSCache@CEterPackManager@@U?$hash@K@boost@@U?$equal_to@K@2@@detail@unordered@boost@@@detail@unordered@boost@@QAEPAU?$ptr_node@U?$pair@$$CBKUSCache@CEterPackManager@@@std@@@234@PAU5234@I@Z ; boost::unordered::detail::table<boost::unordered::detail::map<std::allocator<std::pair<unsigned long const ,CEterPackManager::SCache> >,unsigned long,CEterPackManager::SCache,boost::hash<unsigned long>,std::equal_to<unsigned long> > >::add_node_unique
PUBLIC	?resize_and_add_node_unique@?$table@U?$map@V?$allocator@U?$pair@$$CBKUSCache@CEterPackManager@@@std@@@std@@KUSCache@CEterPackManager@@U?$hash@K@boost@@U?$equal_to@K@2@@detail@unordered@boost@@@detail@unordered@boost@@QAEPAU?$ptr_node@U?$pair@$$CBKUSCache@CEterPackManager@@@std@@@234@PAU5234@I@Z ; boost::unordered::detail::table<boost::unordered::detail::map<std::allocator<std::pair<unsigned long const ,CEterPackManager::SCache> >,unsigned long,CEterPackManager::SCache,boost::hash<unsigned long>,std::equal_to<unsigned long> > >::resize_and_add_node_unique
PUBLIC	??0?$unordered_map@KUSCache@CEterPackManager@@U?$hash@K@boost@@U?$equal_to@K@std@@V?$allocator@U?$pair@$$CBKUSCache@CEterPackManager@@@std@@@6@@unordered@boost@@QAE@XZ ; boost::unordered::unordered_map<unsigned long,CEterPackManager::SCache,boost::hash<unsigned long>,std::equal_to<unsigned long>,std::allocator<std::pair<unsigned long const ,CEterPackManager::SCache> > >::unordered_map<unsigned long,CEterPackManager::SCache,boost::hash<unsigned long>,std::equal_to<unsigned long>,std::allocator<std::pair<unsigned long const ,CEterPackManager::SCache> > >
PUBLIC	??1?$unordered_map@KUSCache@CEterPackManager@@U?$hash@K@boost@@U?$equal_to@K@std@@V?$allocator@U?$pair@$$CBKUSCache@CEterPackManager@@@std@@@6@@unordered@boost@@QAE@XZ ; boost::unordered::unordered_map<unsigned long,CEterPackManager::SCache,boost::hash<unsigned long>,std::equal_to<unsigned long>,std::allocator<std::pair<unsigned long const ,CEterPackManager::SCache> > >::~unordered_map<unsigned long,CEterPackManager::SCache,boost::hash<unsigned long>,std::equal_to<unsigned long>,std::allocator<std::pair<unsigned long const ,CEterPackManager::SCache> > >
PUBLIC	?find@?$unordered_map@KUSCache@CEterPackManager@@U?$hash@K@boost@@U?$equal_to@K@std@@V?$allocator@U?$pair@$$CBKUSCache@CEterPackManager@@@std@@@6@@unordered@boost@@QAE?AU?$iterator@U?$ptr_node@U?$pair@$$CBKUSCache@CEterPackManager@@@std@@@detail@unordered@boost@@@iterator_detail@23@ABK@Z ; boost::unordered::unordered_map<unsigned long,CEterPackManager::SCache,boost::hash<unsigned long>,std::equal_to<unsigned long>,std::allocator<std::pair<unsigned long const ,CEterPackManager::SCache> > >::find
PUBLIC	??_GCEterPackManager@@UAEPAXI@Z			; CEterPackManager::`scalar deleting destructor'
PUBLIC	??1?$pair@$$CBV?$basic_string@DU?$char_traits@D@std@@V?$allocator@D@2@@std@@PAVCEterPack@@@std@@QAE@XZ ; std::pair<std::basic_string<char,std::char_traits<char>,std::allocator<char> > const ,CEterPack *>::~pair<std::basic_string<char,std::char_traits<char>,std::allocator<char> > const ,CEterPack *>
PUBLIC	??1FinderLock@@QAE@XZ				; FinderLock::~FinderLock
PUBLIC	??$_Emplace@ABQAVCEterPack@@@?$list@PAVCEterPack@@V?$allocator@PAVCEterPack@@@std@@@std@@QAEPAU?$_List_node@PAVCEterPack@@PAX@1@QAU21@ABQAVCEterPack@@@Z ; std::list<CEterPack *,std::allocator<CEterPack *> >::_Emplace<CEterPack * const &>
PUBLIC	??$_Construct_in_place@PAU?$_List_node@PAVCEterPack@@PAX@std@@AAPAU12@@std@@YAXAAPAU?$_List_node@PAVCEterPack@@PAX@0@0@Z ; std::_Construct_in_place<std::_List_node<CEterPack *,void *> *,std::_List_node<CEterPack *,void *> * &>
PUBLIC	??$_Free_non_head@V?$allocator@U?$_List_node@PAVCEterPack@@PAX@std@@@std@@@?$_List_node@PAVCEterPack@@PAX@std@@SAXAAV?$allocator@U?$_List_node@PAVCEterPack@@PAX@std@@@1@PAU01@@Z ; std::_List_node<CEterPack *,void *>::_Free_non_head<std::allocator<std::_List_node<CEterPack *,void *> > >
PUBLIC	??$_Freenode0@V?$allocator@U?$_List_node@PAVCEterPack@@PAX@std@@@std@@@?$_List_node@PAVCEterPack@@PAX@std@@SAXAAV?$allocator@U?$_List_node@PAVCEterPack@@PAX@std@@@1@PAU01@@Z ; std::_List_node<CEterPack *,void *>::_Freenode0<std::allocator<std::_List_node<CEterPack *,void *> > >
PUBLIC	??$_Destroy_in_place@PAD@std@@YAXAAPAD@Z	; std::_Destroy_in_place<char *>
PUBLIC	??$_Reallocate_for@V<lambda_9366063389c5f42a00a5088cf24e69de>@@PBD@?$basic_string@DU?$char_traits@D@std@@V?$allocator@D@2@@std@@AAEAAV01@IV<lambda_9366063389c5f42a00a5088cf24e69de>@@PBD@Z ; std::basic_string<char,std::char_traits<char>,std::allocator<char> >::_Reallocate_for<<lambda_9366063389c5f42a00a5088cf24e69de>,char const *>
PUBLIC	??$_Construct_in_place@PADABQAD@std@@YAXAAPADABQAD@Z ; std::_Construct_in_place<char *,char * const &>
PUBLIC	??$_Allocate@$07U_Default_allocate_traits@std@@$0A@@std@@YAPAXI@Z ; std::_Allocate<8,std::_Default_allocate_traits,0>
PUBLIC	??$_Deallocate@$07$0A@@std@@YAXPAXI@Z		; std::_Deallocate<8,0>
PUBLIC	??$lower_bound@PBIIU?$less@X@std@@@std@@YAPBIPBIQBIABIU?$less@X@0@@Z ; std::lower_bound<unsigned int const *,unsigned int,std::less<void> >
PUBLIC	??$emplace_unique@U?$pair@$$CBKUSCache@CEterPackManager@@@std@@@?$table@U?$map@V?$allocator@U?$pair@$$CBKUSCache@CEterPackManager@@@std@@@std@@KUSCache@CEterPackManager@@U?$hash@K@boost@@U?$equal_to@K@2@@detail@unordered@boost@@@detail@unordered@boost@@QAE?AU?$pair@U?$iterator@U?$ptr_node@U?$pair@$$CBKUSCache@CEterPackManager@@@std@@@detail@unordered@boost@@@iterator_detail@unordered@boost@@_N@std@@ABK$$QAU?$pair@$$CBKUSCache@CEterPackManager@@@5@@Z ; boost::unordered::detail::table<boost::unordered::detail::map<std::allocator<std::pair<unsigned long const ,CEterPackManager::SCache> >,unsigned long,CEterPackManager::SCache,boost::hash<unsigned long>,std::equal_to<unsigned long> > >::emplace_unique<std::pair<unsigned long const ,CEterPackManager::SCache> >
PUBLIC	??$emplace_unique@U?$pair@$$CBV?$basic_string@DU?$char_traits@D@std@@V?$allocator@D@2@@std@@PAVCEterPack@@@std@@@?$table@U?$map@V?$allocator@U?$pair@$$CBV?$basic_string@DU?$char_traits@D@std@@V?$allocator@D@2@@std@@PAVCEterPack@@@std@@@std@@V?$basic_string@DU?$char_traits@D@std@@V?$allocator@D@2@@2@PAVCEterPack@@Ustringhash@@U?$equal_to@V?$basic_string@DU?$char_traits@D@std@@V?$allocator@D@2@@std@@@2@@detail@unordered@boost@@@detail@unordered@boost@@QAE?AU?$pair@U?$iterator@U?$ptr_node@U?$pair@$$CBV?$basic_string@DU?$char_traits@D@std@@V?$allocator@D@2@@std@@PAVCEterPack@@@std@@@detail@unordered@boost@@@iterator_detail@unordered@boost@@_N@std@@ABV?$basic_string@DU?$char_traits@D@std@@V?$allocator@D@2@@5@$$QAU?$pair@$$CBV?$basic_string@DU?$char_traits@D@std@@V?$allocator@D@2@@std@@PAVCEterPack@@@5@@Z ; boost::unordered::detail::table<boost::unordered::detail::map<std::allocator<std::pair<std::basic_string<char,std::char_traits<char>,std::allocator<char> > const ,CEterPack *> >,std::basic_string<char,std::char_traits<char>,std::allocator<char> >,CEterPack *,stringhash,std::equal_to<std::basic_string<char,std::char_traits<char>,std::allocator<char> > > > >::emplace_unique<std::pair<std::basic_string<char,std::char_traits<char>,std::allocator<char> > const ,CEterPack *> >
PUBLIC	?_Allocate@?$_Alloc_construct_ptr@V?$allocator@U?$_List_node@PAVCEterPack@@PAX@std@@@std@@@std@@QAEXXZ ; std::_Alloc_construct_ptr<std::allocator<std::_List_node<CEterPack *,void *> > >::_Allocate
PUBLIC	??1?$_Alloc_construct_ptr@V?$allocator@U?$_List_node@PAVCEterPack@@PAX@std@@@std@@@std@@QAE@XZ ; std::_Alloc_construct_ptr<std::allocator<std::_List_node<CEterPack *,void *> > >::~_Alloc_construct_ptr<std::allocator<std::_List_node<CEterPack *,void *> > >
PUBLIC	??1?$_List_node_emplace_op2@V?$allocator@U?$_List_node@PAVCEterPack@@PAX@std@@@std@@@std@@QAE@XZ ; std::_List_node_emplace_op2<std::allocator<std::_List_node<CEterPack *,void *> > >::~_List_node_emplace_op2<std::allocator<std::_List_node<CEterPack *,void *> > >
PUBLIC	?_Transfer_before@?$_List_node_emplace_op2@V?$allocator@U?$_List_node@PAVCEterPack@@PAX@std@@@std@@@std@@QAEPAU?$_List_node@PAVCEterPack@@PAX@2@QAU32@@Z ; std::_List_node_emplace_op2<std::allocator<std::_List_node<CEterPack *,void *> > >::_Transfer_before
PUBLIC	??$?0ABQAVCEterPack@@@?$_List_node_emplace_op2@V?$allocator@U?$_List_node@PAVCEterPack@@PAX@std@@@std@@@std@@QAE@AAV?$allocator@U?$_List_node@PAVCEterPack@@PAX@std@@@1@ABQAVCEterPack@@@Z ; std::_List_node_emplace_op2<std::allocator<std::_List_node<CEterPack *,void *> > >::_List_node_emplace_op2<std::allocator<std::_List_node<CEterPack *,void *> > ><CEterPack * const &>
PUBLIC	??$_Destroy_in_place@PAU?$_List_node@PAVCEterPack@@PAX@std@@@std@@YAXAAPAU?$_List_node@PAVCEterPack@@PAX@0@@Z ; std::_Destroy_in_place<std::_List_node<CEterPack *,void *> *>
PUBLIC	??$_Allocate_manually_vector_aligned@U_Default_allocate_traits@std@@@std@@YAPAXI@Z ; std::_Allocate_manually_vector_aligned<std::_Default_allocate_traits>
PUBLIC	??$_Construct_in_place@PAU?$_List_node@PAVCEterPack@@PAX@std@@ABQAU12@@std@@YAXAAPAU?$_List_node@PAVCEterPack@@PAX@0@ABQAU10@@Z ; std::_Construct_in_place<std::_List_node<CEterPack *,void *> *,std::_List_node<CEterPack *,void *> * const &>
PUBLIC	??$find_node_impl@KU?$equal_to@K@std@@@?$table@U?$map@V?$allocator@U?$pair@$$CBKUSCache@CEterPackManager@@@std@@@std@@KUSCache@CEterPackManager@@U?$hash@K@boost@@U?$equal_to@K@2@@detail@unordered@boost@@@detail@unordered@boost@@QBEPAU?$ptr_node@U?$pair@$$CBKUSCache@CEterPackManager@@@std@@@123@IABKABU?$equal_to@K@std@@@Z ; boost::unordered::detail::table<boost::unordered::detail::map<std::allocator<std::pair<unsigned long const ,CEterPackManager::SCache> >,unsigned long,CEterPackManager::SCache,boost::hash<unsigned long>,std::equal_to<unsigned long> > >::find_node_impl<unsigned long,std::equal_to<unsigned long> >
PUBLIC	??$find_node_impl@V?$basic_string@DU?$char_traits@D@std@@V?$allocator@D@2@@std@@U?$equal_to@V?$basic_string@DU?$char_traits@D@std@@V?$allocator@D@2@@std@@@2@@?$table@U?$map@V?$allocator@U?$pair@$$CBV?$basic_string@DU?$char_traits@D@std@@V?$allocator@D@2@@std@@PAVCEterPack@@@std@@@std@@V?$basic_string@DU?$char_traits@D@std@@V?$allocator@D@2@@2@PAVCEterPack@@Ustringhash@@U?$equal_to@V?$basic_string@DU?$char_traits@D@std@@V?$allocator@D@2@@std@@@2@@detail@unordered@boost@@@detail@unordered@boost@@QBEPAU?$ptr_node@U?$pair@$$CBV?$basic_string@DU?$char_traits@D@std@@V?$allocator@D@2@@std@@PAVCEterPack@@@std@@@123@IABV?$basic_string@DU?$char_traits@D@std@@V?$allocator@D@2@@std@@ABU?$equal_to@V?$basic_string@DU?$char_traits@D@std@@V?$allocator@D@2@@std@@@6@@Z ; boost::unordered::detail::table<boost::unordered::detail::map<std::allocator<std::pair<std::basic_string<char,std::char_traits<char>,std::allocator<char> > const ,CEterPack *> >,std::basic_string<char,std::char_traits<char>,std::allocator<char> >,CEterPack *,stringhash,std::equal_to<std::basic_string<char,std::char_traits<char>,std::allocator<char> > > > >::find_node_impl<std::basic_string<char,std::char_traits<char>,std::allocator<char> >,std::equal_to<std::basic_string<char,std::char_traits<char>,std::allocator<char> > > >
PUBLIC	??$construct_node_from_args@V?$allocator@U?$ptr_node@U?$pair@$$CBKUSCache@CEterPackManager@@@std@@@detail@unordered@boost@@@std@@U?$pair@$$CBKUSCache@CEterPackManager@@@2@@func@detail@unordered@boost@@YAPAU?$ptr_node@U?$pair@$$CBKUSCache@CEterPackManager@@@std@@@123@AAV?$allocator@U?$ptr_node@U?$pair@$$CBKUSCache@CEterPackManager@@@std@@@detail@unordered@boost@@@std@@$$QAU?$pair@$$CBKUSCache@CEterPackManager@@@6@@Z ; boost::unordered::detail::func::construct_node_from_args<std::allocator<boost::unordered::detail::ptr_node<std::pair<unsigned long const ,CEterPackManager::SCache> > >,std::pair<unsigned long const ,CEterPackManager::SCache> >
PUBLIC	??$construct_node_from_args@V?$allocator@U?$ptr_node@U?$pair@$$CBV?$basic_string@DU?$char_traits@D@std@@V?$allocator@D@2@@std@@PAVCEterPack@@@std@@@detail@unordered@boost@@@std@@U?$pair@$$CBV?$basic_string@DU?$char_traits@D@std@@V?$allocator@D@2@@std@@PAVCEterPack@@@2@@func@detail@unordered@boost@@YAPAU?$ptr_node@U?$pair@$$CBV?$basic_string@DU?$char_traits@D@std@@V?$allocator@D@2@@std@@PAVCEterPack@@@std@@@123@AAV?$allocator@U?$ptr_node@U?$pair@$$CBV?$basic_string@DU?$char_traits@D@std@@V?$allocator@D@2@@std@@PAVCEterPack@@@std@@@detail@unordered@boost@@@std@@$$QAU?$pair@$$CBV?$basic_string@DU?$char_traits@D@std@@V?$allocator@D@2@@std@@PAVCEterPack@@@6@@Z ; boost::unordered::detail::func::construct_node_from_args<std::allocator<boost::unordered::detail::ptr_node<std::pair<std::basic_string<char,std::char_traits<char>,std::allocator<char> > const ,CEterPack *> > >,std::pair<std::basic_string<char,std::char_traits<char>,std::allocator<char> > const ,CEterPack *> >
PUBLIC	??1?$node_tmp@V?$allocator@U?$ptr_node@U?$pair@$$CBKUSCache@CEterPackManager@@@std@@@detail@unordered@boost@@@std@@@detail@unordered@boost@@QAE@XZ ; boost::unordered::detail::node_tmp<std::allocator<boost::unordered::detail::ptr_node<std::pair<unsigned long const ,CEterPackManager::SCache> > > >::~node_tmp<std::allocator<boost::unordered::detail::ptr_node<std::pair<unsigned long const ,CEterPackManager::SCache> > > >
PUBLIC	??1?$node_tmp@V?$allocator@U?$ptr_node@U?$pair@$$CBV?$basic_string@DU?$char_traits@D@std@@V?$allocator@D@2@@std@@PAVCEterPack@@@std@@@detail@unordered@boost@@@std@@@detail@unordered@boost@@QAE@XZ ; boost::unordered::detail::node_tmp<std::allocator<boost::unordered::detail::ptr_node<std::pair<std::basic_string<char,std::char_traits<char>,std::allocator<char> > const ,CEterPack *> > > >::~node_tmp<std::allocator<boost::unordered::detail::ptr_node<std::pair<std::basic_string<char,std::char_traits<char>,std::allocator<char> > const ,CEterPack *> > > >
PUBLIC	??$?8DU?$char_traits@D@std@@V?$allocator@D@1@@std@@YA_NABV?$basic_string@DU?$char_traits@D@std@@V?$allocator@D@2@@0@0@Z ; std::operator==<char,std::char_traits<char>,std::allocator<char> >
PUBLIC	??1?$node_constructor@V?$allocator@U?$ptr_node@U?$pair@$$CBKUSCache@CEterPackManager@@@std@@@detail@unordered@boost@@@std@@@detail@unordered@boost@@QAE@XZ ; boost::unordered::detail::node_constructor<std::allocator<boost::unordered::detail::ptr_node<std::pair<unsigned long const ,CEterPackManager::SCache> > > >::~node_constructor<std::allocator<boost::unordered::detail::ptr_node<std::pair<unsigned long const ,CEterPackManager::SCache> > > >
PUBLIC	?create_node@?$node_constructor@V?$allocator@U?$ptr_node@U?$pair@$$CBKUSCache@CEterPackManager@@@std@@@detail@unordered@boost@@@std@@@detail@unordered@boost@@QAEXXZ ; boost::unordered::detail::node_constructor<std::allocator<boost::unordered::detail::ptr_node<std::pair<unsigned long const ,CEterPackManager::SCache> > > >::create_node
PUBLIC	??1?$node_constructor@V?$allocator@U?$ptr_node@U?$pair@$$CBV?$basic_string@DU?$char_traits@D@std@@V?$allocator@D@2@@std@@PAVCEterPack@@@std@@@detail@unordered@boost@@@std@@@detail@unordered@boost@@QAE@XZ ; boost::unordered::detail::node_constructor<std::allocator<boost::unordered::detail::ptr_node<std::pair<std::basic_string<char,std::char_traits<char>,std::allocator<char> > const ,CEterPack *> > > >::~node_constructor<std::allocator<boost::unordered::detail::ptr_node<std::pair<std::basic_string<char,std::char_traits<char>,std::allocator<char> > const ,CEterPack *> > > >
PUBLIC	?create_node@?$node_constructor@V?$allocator@U?$ptr_node@U?$pair@$$CBV?$basic_string@DU?$char_traits@D@std@@V?$allocator@D@2@@std@@PAVCEterPack@@@std@@@detail@unordered@boost@@@std@@@detail@unordered@boost@@QAEXXZ ; boost::unordered::detail::node_constructor<std::allocator<boost::unordered::detail::ptr_node<std::pair<std::basic_string<char,std::char_traits<char>,std::allocator<char> > const ,CEterPack *> > > >::create_node
PUBLIC	??_7exception@std@@6B@				; std::exception::`vftable'
PUBLIC	??_C@_0BC@EOODALEL@Unknown?5exception@		; `string'
PUBLIC	??_7bad_alloc@std@@6B@				; std::bad_alloc::`vftable'
PUBLIC	??_7bad_array_new_length@std@@6B@		; std::bad_array_new_length::`vftable'
PUBLIC	??_C@_0BF@KINCDENJ@bad?5array?5new?5length@	; `string'
PUBLIC	__TI3?AVbad_array_new_length@std@@
PUBLIC	__CTA3?AVbad_array_new_length@std@@
PUBLIC	??_R0?AVbad_array_new_length@std@@@8		; std::bad_array_new_length `RTTI Type Descriptor'
PUBLIC	__CT??_R0?AVbad_array_new_length@std@@@8??0bad_array_new_length@std@@QAE@ABV01@@Z12
PUBLIC	??_R0?AVbad_alloc@std@@@8			; std::bad_alloc `RTTI Type Descriptor'
PUBLIC	__CT??_R0?AVbad_alloc@std@@@8??0bad_alloc@std@@QAE@ABV01@@Z12
PUBLIC	??_R0?AVexception@std@@@8			; std::exception `RTTI Type Descriptor'
PUBLIC	__CT??_R0?AVexception@std@@@8??0exception@std@@QAE@ABV01@@Z12
PUBLIC	??_C@_0BA@JFNIOLAK@string?5too?5long@		; `string'
PUBLIC	??_C@_00CNPNBAHC@@				; `string'
PUBLIC	?value@?$prime_list_template@I@detail@unordered@boost@@2QBIB ; boost::unordered::detail::prime_list_template<unsigned int>::value
PUBLIC	?length@?$prime_list_template@I@detail@unordered@boost@@2HB ; boost::unordered::detail::prime_list_template<unsigned int>::length
PUBLIC	?ms_singleton@?$CSingleton@VCEterPackManager@@@@0PAVCEterPackManager@@A ; CSingleton<CEterPackManager>::ms_singleton
PUBLIC	??_7?$CSingleton@VCEterPackManager@@@@6B@	; CSingleton<CEterPackManager>::`vftable'
PUBLIC	??_7CEterPackManager@@6B@			; CEterPackManager::`vftable'
PUBLIC	??_C@_0BN@HIHPGCNI@?$CFs?3?5Pack?5file?5does?5not?5exist@ ; `string'
PUBLIC	??_C@_0HF@OJFMMEDP@CEterPackManager?3?3RetrieveHybri@ ; `string'
PUBLIC	??_C@_0EE@JEJDAIPD@CEterPackManager?3?3WriteHybridCr@ ; `string'
PUBLIC	??_C@_0O@NKNMEGII@list?5too?5long@		; `string'
PUBLIC	??_R4exception@std@@6B@				; std::exception::`RTTI Complete Object Locator'
PUBLIC	??_R3exception@std@@8				; std::exception::`RTTI Class Hierarchy Descriptor'
PUBLIC	??_R2exception@std@@8				; std::exception::`RTTI Base Class Array'
PUBLIC	??_R1A@?0A@EA@exception@std@@8			; std::exception::`RTTI Base Class Descriptor at (0,-1,0,64)'
PUBLIC	??_R4bad_alloc@std@@6B@				; std::bad_alloc::`RTTI Complete Object Locator'
PUBLIC	??_R3bad_alloc@std@@8				; std::bad_alloc::`RTTI Class Hierarchy Descriptor'
PUBLIC	??_R2bad_alloc@std@@8				; std::bad_alloc::`RTTI Base Class Array'
PUBLIC	??_R1A@?0A@EA@bad_alloc@std@@8			; std::bad_alloc::`RTTI Base Class Descriptor at (0,-1,0,64)'
PUBLIC	??_R4bad_array_new_length@std@@6B@		; std::bad_array_new_length::`RTTI Complete Object Locator'
PUBLIC	??_R3bad_array_new_length@std@@8		; std::bad_array_new_length::`RTTI Class Hierarchy Descriptor'
PUBLIC	??_R2bad_array_new_length@std@@8		; std::bad_array_new_length::`RTTI Base Class Array'
PUBLIC	??_R1A@?0A@EA@bad_array_new_length@std@@8	; std::bad_array_new_length::`RTTI Base Class Descriptor at (0,-1,0,64)'
PUBLIC	??_R4CEterPackManager@@6B@			; CEterPackManager::`RTTI Complete Object Locator'
PUBLIC	??_R0?AVCEterPackManager@@@8			; CEterPackManager `RTTI Type Descriptor'
PUBLIC	??_R3CEterPackManager@@8			; CEterPackManager::`RTTI Class Hierarchy Descriptor'
PUBLIC	??_R2CEterPackManager@@8			; CEterPackManager::`RTTI Base Class Array'
PUBLIC	??_R1A@?0A@EA@CEterPackManager@@8		; CEterPackManager::`RTTI Base Class Descriptor at (0,-1,0,64)'
PUBLIC	??_R1A@?0A@EA@?$CSingleton@VCEterPackManager@@@@8 ; CSingleton<CEterPackManager>::`RTTI Base Class Descriptor at (0,-1,0,64)'
PUBLIC	??_R0?AV?$CSingleton@VCEterPackManager@@@@@8	; CSingleton<CEterPackManager> `RTTI Type Descriptor'
PUBLIC	??_R3?$CSingleton@VCEterPackManager@@@@8	; CSingleton<CEterPackManager>::`RTTI Class Hierarchy Descriptor'
PUBLIC	??_R2?$CSingleton@VCEterPackManager@@@@8	; CSingleton<CEterPackManager>::`RTTI Base Class Array'
PUBLIC	??_R4?$CSingleton@VCEterPackManager@@@@6B@	; CSingleton<CEterPackManager>::`RTTI Complete Object Locator'
PUBLIC	__real@3f800000
PUBLIC	__real@3ff0000000000000
PUBLIC	__xmm@41f00000000000000000000000000000
EXTRN	??2@YAPAXI@Z:PROC				; operator new
EXTRN	??3@YAXPAXI@Z:PROC				; operator delete
EXTRN	??_U@YAPAXI@Z:PROC				; operator new[]
EXTRN	??_V@YAXPAX@Z:PROC				; operator delete[]
EXTRN	_atexit:PROC
EXTRN	___report_rangecheckfailure:PROC
EXTRN	__Init_thread_header:PROC
EXTRN	__Init_thread_footer:PROC
EXTRN	___std_terminate:PROC
EXTRN	__invalid_parameter_noinfo_noreturn:PROC
EXTRN	_memcmp:PROC
EXTRN	_memcpy:PROC
EXTRN	_memmove:PROC
EXTRN	_strcpy:PROC
EXTRN	_strlen:PROC
EXTRN	__imp__InitializeCriticalSection@4:PROC
EXTRN	__imp__EnterCriticalSection@4:PROC
EXTRN	__imp__LeaveCriticalSection@4:PROC
EXTRN	__imp__DeleteCriticalSection@4:PROC
EXTRN	_ceil:PROC
EXTRN	_floor:PROC
EXTRN	___std_exception_copy:PROC
EXTRN	___std_exception_destroy:PROC
EXTRN	??_Eexception@std@@UAEPAXI@Z:PROC		; std::exception::`vector deleting destructor'
EXTRN	??_Ebad_alloc@std@@UAEPAXI@Z:PROC		; std::bad_alloc::`vector deleting destructor'
EXTRN	??_Ebad_array_new_length@std@@UAEPAXI@Z:PROC	; std::bad_array_new_length::`vector deleting destructor'
EXTRN	?_Xlength_error@std@@YAXPBD@Z:PROC		; std::_Xlength_error
EXTRN	__access:PROC
EXTRN	?stl_lowers@@YAXAAV?$basic_string@DU?$char_traits@D@std@@V?$allocator@D@2@@std@@@Z:PROC ; stl_lowers
EXTRN	??0CFileBase@@QAE@XZ:PROC			; CFileBase::CFileBase
EXTRN	??1CFileBase@@UAE@XZ:PROC			; CFileBase::~CFileBase
EXTRN	?Close@CFileBase@@QAEXXZ:PROC			; CFileBase::Close
EXTRN	?Create@CFileBase@@QAEHPBDW4EFileMode@1@@Z:PROC	; CFileBase::Create
EXTRN	?SeekCur@CFileBase@@QAEXK@Z:PROC		; CFileBase::SeekCur
EXTRN	?Seek@CFileBase@@QAEXK@Z:PROC			; CFileBase::Seek
EXTRN	?GetPosition@CFileBase@@QAEKXZ:PROC		; CFileBase::GetPosition
EXTRN	?Write@CFileBase@@UAEHPBXH@Z:PROC		; CFileBase::Write
EXTRN	??0CMappedFile@@QAE@XZ:PROC			; CMappedFile::CMappedFile
EXTRN	??1CMappedFile@@UAE@XZ:PROC			; CMappedFile::~CMappedFile
EXTRN	?Link@CMappedFile@@QAEXKPBX@Z:PROC		; CMappedFile::Link
EXTRN	?Create@CMappedFile@@QAEHPBDPAPBXHH@Z:PROC	; CMappedFile::Create
EXTRN	?Size@CMappedFile@@QAEKXZ:PROC			; CMappedFile::Size
EXTRN	?GetItem@CEterFileDict@@QAEPAUItem@1@KPBD@Z:PROC ; CEterFileDict::GetItem
EXTRN	??0CEterPack@@QAE@XZ:PROC			; CEterPack::CEterPack
EXTRN	??1CEterPack@@UAE@XZ:PROC			; CEterPack::~CEterPack
EXTRN	?Create@CEterPack@@QAE_NAAVCEterFileDict@@PBD1_NPBE@Z:PROC ; CEterPack::Create
EXTRN	?DecryptIV@CEterPack@@QAE_NK@Z:PROC		; CEterPack::DecryptIV
EXTRN	?GetDBName@CEterPack@@QAEPBDXZ:PROC		; CEterPack::GetDBName
EXTRN	?Get@CEterPack@@QAE_NAAVCMappedFile@@PBDPAPBX@Z:PROC ; CEterPack::Get
EXTRN	?Get2@CEterPack@@QAE_NAAVCMappedFile@@PBDPAUSEterPackIndex@@PAPBX@Z:PROC ; CEterPack::Get2
EXTRN	?IsExist@CEterPack@@QAE_NPBD@Z:PROC		; CEterPack::IsExist
EXTRN	?GetPackPolicy_HybridCrypt@CEterPack@@QBEPAVEterPackPolicy_CSHybridCrypt@@XZ:PROC ; CEterPack::GetPackPolicy_HybridCrypt
EXTRN	?GetSingleton@CMakePackLog@@SAAAV1@XZ:PROC	; CMakePackLog::GetSingleton
EXTRN	?Writef@CMakePackLog@@QAAXPBDZZ:PROC		; CMakePackLog::Writef
EXTRN	??_E?$CSingleton@VCEterPackManager@@@@UAEPAXI@Z:PROC ; CSingleton<CEterPackManager>::`vector deleting destructor'
EXTRN	??_ECEterPackManager@@UAEPAXI@Z:PROC		; CEterPackManager::`vector deleting destructor'
EXTRN	?IsContainingCryptKey@EterPackPolicy_CSHybridCrypt@@QBE_NXZ:PROC ; EterPackPolicy_CSHybridCrypt::IsContainingCryptKey
EXTRN	?IsContainingSDBFile@EterPackPolicy_CSHybridCrypt@@QBE_NXZ:PROC ; EterPackPolicy_CSHybridCrypt::IsContainingSDBFile
EXTRN	?WriteCryptKeyToFile@EterPackPolicy_CSHybridCrypt@@QAEXAAVCFileBase@@@Z:PROC ; EterPackPolicy_CSHybridCrypt::WriteCryptKeyToFile
EXTRN	?ReadCryptKeyInfoFromStream@EterPackPolicy_CSHybridCrypt@@QAEHPBE@Z:PROC ; EterPackPolicy_CSHybridCrypt::ReadCryptKeyInfoFromStream
EXTRN	?WriteSupplementaryDataBlockToFile@EterPackPolicy_CSHybridCrypt@@QAEXAAVCFileBase@@@Z:PROC ; EterPackPolicy_CSHybridCrypt::WriteSupplementaryDataBlockToFile
EXTRN	?ReadSupplementatyDataBlockFromStream@EterPackPolicy_CSHybridCrypt@@QAEHPBE@Z:PROC ; EterPackPolicy_CSHybridCrypt::ReadSupplementatyDataBlockFromStream
EXTRN	?TraceError@@YAXPBDZZ:PROC			; TraceError
EXTRN	?GetCRC32@@YAKPBDI@Z:PROC			; GetCRC32
EXTRN	@__security_check_cookie@4:PROC
EXTRN	__CxxThrowException@8:PROC
EXTRN	___CxxFrameHandler3:PROC
EXTRN	__dtoui3:PROC
EXTRN	__Init_thread_epoch:DWORD
EXTRN	??_7type_info@@6B@:QWORD			; type_info::`vftable'
EXTRN	___security_cookie:DWORD
EXTRN	__fltused:DWORD
EXTRN	__tls_array:DWORD
EXTRN	__tls_index:DWORD
;	COMDAT ?ms_singleton@?$CSingleton@VCEterPackManager@@@@0PAVCEterPackManager@@A
_BSS	SEGMENT
?ms_singleton@?$CSingleton@VCEterPackManager@@@@0PAVCEterPackManager@@A DD 01H DUP (?) ; CSingleton<CEterPackManager>::ms_singleton
_BSS	ENDS
;	COMDAT ?strFileName@?1??GetFromPack@CEterPackManager@@QAE_NAAVCMappedFile@@PBDPAPBX@Z@4V?$basic_string@DU?$char_traits@D@std@@V?$allocator@D@2@@std@@A
_BSS	SEGMENT
?strFileName@?1??GetFromPack@CEterPackManager@@QAE_NAAVCMappedFile@@PBDPAPBX@Z@4V?$basic_string@DU?$char_traits@D@std@@V?$allocator@D@2@@std@@A DB 018H DUP (?) ; `CEterPackManager::GetFromPack'::`2'::strFileName
_BSS	ENDS
;	COMDAT ?$TSS0@?1??GetFromPack@CEterPackManager@@QAE_NAAVCMappedFile@@PBDPAPBX@Z@4HA
_BSS	SEGMENT
?$TSS0@?1??GetFromPack@CEterPackManager@@QAE_NAAVCMappedFile@@PBDPAPBX@Z@4HA DD 01H DUP (?) ; `CEterPackManager::GetFromPack'::`2'::$TSS0
_BSS	ENDS
;	COMDAT __xmm@41f00000000000000000000000000000
CONST	SEGMENT
__xmm@41f00000000000000000000000000000 DB 00H, 00H, 00H, 00H, 00H, 00H, 00H
	DB	00H, 00H, 00H, 00H, 00H, 00H, 00H, 0f0H, 'A'
CONST	ENDS
;	COMDAT __real@3ff0000000000000
CONST	SEGMENT
__real@3ff0000000000000 DQ 03ff0000000000000r	; 1
CONST	ENDS
;	COMDAT __real@3f800000
CONST	SEGMENT
__real@3f800000 DD 03f800000r			; 1
CONST	ENDS
;	COMDAT ??_R4?$CSingleton@VCEterPackManager@@@@6B@
rdata$r	SEGMENT
??_R4?$CSingleton@VCEterPackManager@@@@6B@ DD 00H	; CSingleton<CEterPackManager>::`RTTI Complete Object Locator'
	DD	00H
	DD	00H
	DD	FLAT:??_R0?AV?$CSingleton@VCEterPackManager@@@@@8
	DD	FLAT:??_R3?$CSingleton@VCEterPackManager@@@@8
rdata$r	ENDS
;	COMDAT ??_R2?$CSingleton@VCEterPackManager@@@@8
rdata$r	SEGMENT
??_R2?$CSingleton@VCEterPackManager@@@@8 DD FLAT:??_R1A@?0A@EA@?$CSingleton@VCEterPackManager@@@@8 ; CSingleton<CEterPackManager>::`RTTI Base Class Array'
rdata$r	ENDS
;	COMDAT ??_R3?$CSingleton@VCEterPackManager@@@@8
rdata$r	SEGMENT
??_R3?$CSingleton@VCEterPackManager@@@@8 DD 00H		; CSingleton<CEterPackManager>::`RTTI Class Hierarchy Descriptor'
	DD	00H
	DD	01H
	DD	FLAT:??_R2?$CSingleton@VCEterPackManager@@@@8
rdata$r	ENDS
;	COMDAT ??_R0?AV?$CSingleton@VCEterPackManager@@@@@8
data$rs	SEGMENT
??_R0?AV?$CSingleton@VCEterPackManager@@@@@8 DD FLAT:??_7type_info@@6B@ ; CSingleton<CEterPackManager> `RTTI Type Descriptor'
	DD	00H
	DB	'.?AV?$CSingleton@VCEterPackManager@@@@', 00H
data$rs	ENDS
;	COMDAT ??_R1A@?0A@EA@?$CSingleton@VCEterPackManager@@@@8
rdata$r	SEGMENT
??_R1A@?0A@EA@?$CSingleton@VCEterPackManager@@@@8 DD FLAT:??_R0?AV?$CSingleton@VCEterPackManager@@@@@8 ; CSingleton<CEterPackManager>::`RTTI Base Class Descriptor at (0,-1,0,64)'
	DD	00H
	DD	00H
	DD	0ffffffffH
	DD	00H
	DD	040H
	DD	FLAT:??_R3?$CSingleton@VCEterPackManager@@@@8
rdata$r	ENDS
;	COMDAT ??_R1A@?0A@EA@CEterPackManager@@8
rdata$r	SEGMENT
??_R1A@?0A@EA@CEterPackManager@@8 DD FLAT:??_R0?AVCEterPackManager@@@8 ; CEterPackManager::`RTTI Base Class Descriptor at (0,-1,0,64)'
	DD	01H
	DD	00H
	DD	0ffffffffH
	DD	00H
	DD	040H
	DD	FLAT:??_R3CEterPackManager@@8
rdata$r	ENDS
;	COMDAT ??_R2CEterPackManager@@8
rdata$r	SEGMENT
??_R2CEterPackManager@@8 DD FLAT:??_R1A@?0A@EA@CEterPackManager@@8 ; CEterPackManager::`RTTI Base Class Array'
	DD	FLAT:??_R1A@?0A@EA@?$CSingleton@VCEterPackManager@@@@8
rdata$r	ENDS
;	COMDAT ??_R3CEterPackManager@@8
rdata$r	SEGMENT
??_R3CEterPackManager@@8 DD 00H				; CEterPackManager::`RTTI Class Hierarchy Descriptor'
	DD	00H
	DD	02H
	DD	FLAT:??_R2CEterPackManager@@8
rdata$r	ENDS
;	COMDAT ??_R0?AVCEterPackManager@@@8
data$rs	SEGMENT
??_R0?AVCEterPackManager@@@8 DD FLAT:??_7type_info@@6B@	; CEterPackManager `RTTI Type Descriptor'
	DD	00H
	DB	'.?AVCEterPackManager@@', 00H
data$rs	ENDS
;	COMDAT ??_R4CEterPackManager@@6B@
rdata$r	SEGMENT
??_R4CEterPackManager@@6B@ DD 00H			; CEterPackManager::`RTTI Complete Object Locator'
	DD	00H
	DD	00H
	DD	FLAT:??_R0?AVCEterPackManager@@@8
	DD	FLAT:??_R3CEterPackManager@@8
rdata$r	ENDS
;	COMDAT ??_R1A@?0A@EA@bad_array_new_length@std@@8
rdata$r	SEGMENT
??_R1A@?0A@EA@bad_array_new_length@std@@8 DD FLAT:??_R0?AVbad_array_new_length@std@@@8 ; std::bad_array_new_length::`RTTI Base Class Descriptor at (0,-1,0,64)'
	DD	02H
	DD	00H
	DD	0ffffffffH
	DD	00H
	DD	040H
	DD	FLAT:??_R3bad_array_new_length@std@@8
rdata$r	ENDS
;	COMDAT ??_R2bad_array_new_length@std@@8
rdata$r	SEGMENT
??_R2bad_array_new_length@std@@8 DD FLAT:??_R1A@?0A@EA@bad_array_new_length@std@@8 ; std::bad_array_new_length::`RTTI Base Class Array'
	DD	FLAT:??_R1A@?0A@EA@bad_alloc@std@@8
	DD	FLAT:??_R1A@?0A@EA@exception@std@@8
rdata$r	ENDS
;	COMDAT ??_R3bad_array_new_length@std@@8
rdata$r	SEGMENT
??_R3bad_array_new_length@std@@8 DD 00H			; std::bad_array_new_length::`RTTI Class Hierarchy Descriptor'
	DD	00H
	DD	03H
	DD	FLAT:??_R2bad_array_new_length@std@@8
rdata$r	ENDS
;	COMDAT ??_R4bad_array_new_length@std@@6B@
rdata$r	SEGMENT
??_R4bad_array_new_length@std@@6B@ DD 00H		; std::bad_array_new_length::`RTTI Complete Object Locator'
	DD	00H
	DD	00H
	DD	FLAT:??_R0?AVbad_array_new_length@std@@@8
	DD	FLAT:??_R3bad_array_new_length@std@@8
rdata$r	ENDS
;	COMDAT ??_R1A@?0A@EA@bad_alloc@std@@8
rdata$r	SEGMENT
??_R1A@?0A@EA@bad_alloc@std@@8 DD FLAT:??_R0?AVbad_alloc@std@@@8 ; std::bad_alloc::`RTTI Base Class Descriptor at (0,-1,0,64)'
	DD	01H
	DD	00H
	DD	0ffffffffH
	DD	00H
	DD	040H
	DD	FLAT:??_R3bad_alloc@std@@8
rdata$r	ENDS
;	COMDAT ??_R2bad_alloc@std@@8
rdata$r	SEGMENT
??_R2bad_alloc@std@@8 DD FLAT:??_R1A@?0A@EA@bad_alloc@std@@8 ; std::bad_alloc::`RTTI Base Class Array'
	DD	FLAT:??_R1A@?0A@EA@exception@std@@8
rdata$r	ENDS
;	COMDAT ??_R3bad_alloc@std@@8
rdata$r	SEGMENT
??_R3bad_alloc@std@@8 DD 00H				; std::bad_alloc::`RTTI Class Hierarchy Descriptor'
	DD	00H
	DD	02H
	DD	FLAT:??_R2bad_alloc@std@@8
rdata$r	ENDS
;	COMDAT ??_R4bad_alloc@std@@6B@
rdata$r	SEGMENT
??_R4bad_alloc@std@@6B@ DD 00H				; std::bad_alloc::`RTTI Complete Object Locator'
	DD	00H
	DD	00H
	DD	FLAT:??_R0?AVbad_alloc@std@@@8
	DD	FLAT:??_R3bad_alloc@std@@8
rdata$r	ENDS
;	COMDAT ??_R1A@?0A@EA@exception@std@@8
rdata$r	SEGMENT
??_R1A@?0A@EA@exception@std@@8 DD FLAT:??_R0?AVexception@std@@@8 ; std::exception::`RTTI Base Class Descriptor at (0,-1,0,64)'
	DD	00H
	DD	00H
	DD	0ffffffffH
	DD	00H
	DD	040H
	DD	FLAT:??_R3exception@std@@8
rdata$r	ENDS
;	COMDAT ??_R2exception@std@@8
rdata$r	SEGMENT
??_R2exception@std@@8 DD FLAT:??_R1A@?0A@EA@exception@std@@8 ; std::exception::`RTTI Base Class Array'
rdata$r	ENDS
;	COMDAT ??_R3exception@std@@8
rdata$r	SEGMENT
??_R3exception@std@@8 DD 00H				; std::exception::`RTTI Class Hierarchy Descriptor'
	DD	00H
	DD	01H
	DD	FLAT:??_R2exception@std@@8
rdata$r	ENDS
;	COMDAT ??_R4exception@std@@6B@
rdata$r	SEGMENT
??_R4exception@std@@6B@ DD 00H				; std::exception::`RTTI Complete Object Locator'
	DD	00H
	DD	00H
	DD	FLAT:??_R0?AVexception@std@@@8
	DD	FLAT:??_R3exception@std@@8
rdata$r	ENDS
;	COMDAT ??_C@_0O@NKNMEGII@list?5too?5long@
CONST	SEGMENT
??_C@_0O@NKNMEGII@list?5too?5long@ DB 'list too long', 00H ; `string'
CONST	ENDS
;	COMDAT ??_C@_0EE@JEJDAIPD@CEterPackManager?3?3WriteHybridCr@
CONST	SEGMENT
??_C@_0EE@JEJDAIPD@CEterPackManager?3?3WriteHybridCr@ DB 'CEterPackManage'
	DB	'r::WriteHybridCryptPackInfo PackName : %s, Hash : %x', 00H ; `string'
CONST	ENDS
;	COMDAT ??_C@_0HF@OJFMMEDP@CEterPackManager?3?3RetrieveHybri@
CONST	SEGMENT
??_C@_0HF@OJFMMEDP@CEterPackManager?3?3RetrieveHybri@ DB 'CEterPackManage'
	DB	'r::RetrieveHybridCryptPackKeys', 09H, 'cryptokey length of fi'
	DB	'le(%s) is not matched. received(%d) != haved(%d)', 00H ; `string'
CONST	ENDS
;	COMDAT ??_C@_0BN@HIHPGCNI@?$CFs?3?5Pack?5file?5does?5not?5exist@
CONST	SEGMENT
??_C@_0BN@HIHPGCNI@?$CFs?3?5Pack?5file?5does?5not?5exist@ DB '%s: Pack fi'
	DB	'le does not exist', 00H			; `string'
CONST	ENDS
;	COMDAT ??_7CEterPackManager@@6B@
CONST	SEGMENT
??_7CEterPackManager@@6B@ DD FLAT:??_R4CEterPackManager@@6B@ ; CEterPackManager::`vftable'
	DD	FLAT:??_ECEterPackManager@@UAEPAXI@Z
CONST	ENDS
;	COMDAT ??_7?$CSingleton@VCEterPackManager@@@@6B@
CONST	SEGMENT
??_7?$CSingleton@VCEterPackManager@@@@6B@ DD FLAT:??_R4?$CSingleton@VCEterPackManager@@@@6B@ ; CSingleton<CEterPackManager>::`vftable'
	DD	FLAT:??_E?$CSingleton@VCEterPackManager@@@@UAEPAXI@Z
CONST	ENDS
;	COMDAT ?length@?$prime_list_template@I@detail@unordered@boost@@2HB
CONST	SEGMENT
?length@?$prime_list_template@I@detail@unordered@boost@@2HB DD 026H ; boost::unordered::detail::prime_list_template<unsigned int>::length
CONST	ENDS
;	COMDAT ?value@?$prime_list_template@I@detail@unordered@boost@@2QBIB
CONST	SEGMENT
?value@?$prime_list_template@I@detail@unordered@boost@@2QBIB DD 011H ; boost::unordered::detail::prime_list_template<unsigned int>::value
	DD	01dH
	DD	025H
	DD	035H
	DD	043H
	DD	04fH
	DD	061H
	DD	083H
	DD	0c1H
	DD	0101H
	DD	0185H
	DD	0209H
	DD	0301H
	DD	0407H
	DD	0607H
	DD	0805H
	DD	0c07H
	DD	01807H
	DD	03001H
	DD	06011H
	DD	0c005H
	DD	01800dH
	DD	030005H
	DD	060019H
	DD	0c0001H
	DD	0180005H
	DD	030000bH
	DD	060000dH
	DD	0c00005H
	DD	01800013H
	DD	03000005H
	DD	06000017H
	DD	0c000013H
	DD	018000005H
	DD	030000059H
	DD	060000005H
	DD	0c0000001H
	DD	0fffffffbH
CONST	ENDS
;	COMDAT ??_C@_00CNPNBAHC@@
CONST	SEGMENT
??_C@_00CNPNBAHC@@ DB 00H				; `string'
CONST	ENDS
;	COMDAT ??_C@_0BA@JFNIOLAK@string?5too?5long@
CONST	SEGMENT
??_C@_0BA@JFNIOLAK@string?5too?5long@ DB 'string too long', 00H ; `string'
CONST	ENDS
;	COMDAT __CT??_R0?AVexception@std@@@8??0exception@std@@QAE@ABV01@@Z12
xdata$x	SEGMENT
__CT??_R0?AVexception@std@@@8??0exception@std@@QAE@ABV01@@Z12 DD 00H
	DD	FLAT:??_R0?AVexception@std@@@8
	DD	00H
	DD	0ffffffffH
	ORG $+4
	DD	0cH
	DD	FLAT:??0exception@std@@QAE@ABV01@@Z
xdata$x	ENDS
;	COMDAT ??_R0?AVexception@std@@@8
data$r	SEGMENT
??_R0?AVexception@std@@@8 DD FLAT:??_7type_info@@6B@	; std::exception `RTTI Type Descriptor'
	DD	00H
	DB	'.?AVexception@std@@', 00H
data$r	ENDS
;	COMDAT __CT??_R0?AVbad_alloc@std@@@8??0bad_alloc@std@@QAE@ABV01@@Z12
xdata$x	SEGMENT
__CT??_R0?AVbad_alloc@std@@@8??0bad_alloc@std@@QAE@ABV01@@Z12 DD 010H
	DD	FLAT:??_R0?AVbad_alloc@std@@@8
	DD	00H
	DD	0ffffffffH
	ORG $+4
	DD	0cH
	DD	FLAT:??0bad_alloc@std@@QAE@ABV01@@Z
xdata$x	ENDS
;	COMDAT ??_R0?AVbad_alloc@std@@@8
data$r	SEGMENT
??_R0?AVbad_alloc@std@@@8 DD FLAT:??_7type_info@@6B@	; std::bad_alloc `RTTI Type Descriptor'
	DD	00H
	DB	'.?AVbad_alloc@std@@', 00H
data$r	ENDS
;	COMDAT __CT??_R0?AVbad_array_new_length@std@@@8??0bad_array_new_length@std@@QAE@ABV01@@Z12
xdata$x	SEGMENT
__CT??_R0?AVbad_array_new_length@std@@@8??0bad_array_new_length@std@@QAE@ABV01@@Z12 DD 00H
	DD	FLAT:??_R0?AVbad_array_new_length@std@@@8
	DD	00H
	DD	0ffffffffH
	ORG $+4
	DD	0cH
	DD	FLAT:??0bad_array_new_length@std@@QAE@ABV01@@Z
xdata$x	ENDS
;	COMDAT ??_R0?AVbad_array_new_length@std@@@8
data$r	SEGMENT
??_R0?AVbad_array_new_length@std@@@8 DD FLAT:??_7type_info@@6B@ ; std::bad_array_new_length `RTTI Type Descriptor'
	DD	00H
	DB	'.?AVbad_array_new_length@std@@', 00H
data$r	ENDS
;	COMDAT __CTA3?AVbad_array_new_length@std@@
xdata$x	SEGMENT
__CTA3?AVbad_array_new_length@std@@ DD 03H
	DD	FLAT:__CT??_R0?AVbad_array_new_length@std@@@8??0bad_array_new_length@std@@QAE@ABV01@@Z12
	DD	FLAT:__CT??_R0?AVbad_alloc@std@@@8??0bad_alloc@std@@QAE@ABV01@@Z12
	DD	FLAT:__CT??_R0?AVexception@std@@@8??0exception@std@@QAE@ABV01@@Z12
xdata$x	ENDS
;	COMDAT __TI3?AVbad_array_new_length@std@@
xdata$x	SEGMENT
__TI3?AVbad_array_new_length@std@@ DD 00H
	DD	FLAT:??1bad_array_new_length@std@@UAE@XZ
	DD	00H
	DD	FLAT:__CTA3?AVbad_array_new_length@std@@
xdata$x	ENDS
;	COMDAT ??_C@_0BF@KINCDENJ@bad?5array?5new?5length@
CONST	SEGMENT
??_C@_0BF@KINCDENJ@bad?5array?5new?5length@ DB 'bad array new length', 00H ; `string'
CONST	ENDS
;	COMDAT ??_7bad_array_new_length@std@@6B@
CONST	SEGMENT
??_7bad_array_new_length@std@@6B@ DD FLAT:??_R4bad_array_new_length@std@@6B@ ; std::bad_array_new_length::`vftable'
	DD	FLAT:??_Ebad_array_new_length@std@@UAEPAXI@Z
	DD	FLAT:?what@exception@std@@UBEPBDXZ
CONST	ENDS
;	COMDAT ??_7bad_alloc@std@@6B@
CONST	SEGMENT
??_7bad_alloc@std@@6B@ DD FLAT:??_R4bad_alloc@std@@6B@	; std::bad_alloc::`vftable'
	DD	FLAT:??_Ebad_alloc@std@@UAEPAXI@Z
	DD	FLAT:?what@exception@std@@UBEPBDXZ
CONST	ENDS
;	COMDAT ??_C@_0BC@EOODALEL@Unknown?5exception@
CONST	SEGMENT
??_C@_0BC@EOODALEL@Unknown?5exception@ DB 'Unknown exception', 00H ; `string'
CONST	ENDS
;	COMDAT ??_7exception@std@@6B@
CONST	SEGMENT
??_7exception@std@@6B@ DD FLAT:??_R4exception@std@@6B@	; std::exception::`vftable'
	DD	FLAT:??_Eexception@std@@UAEPAXI@Z
	DD	FLAT:?what@exception@std@@UBEPBDXZ
CONST	ENDS
;	COMDAT xdata$x
xdata$x	SEGMENT
__unwindtable$??$construct_node_from_args@V?$allocator@U?$ptr_node@U?$pair@$$CBV?$basic_string@DU?$char_traits@D@std@@V?$allocator@D@2@@std@@PAVCEterPack@@@std@@@detail@unordered@boost@@@std@@U?$pair@$$CBV?$basic_string@DU?$char_traits@D@std@@V?$allocator@D@2@@std@@PAVCEterPack@@@2@@func@detail@unordered@boost@@YAPAU?$ptr_node@U?$pair@$$CBV?$basic_string@DU?$char_traits@D@std@@V?$allocator@D@2@@std@@PAVCEterPack@@@std@@@123@AAV?$allocator@U?$ptr_node@U?$pair@$$CBV?$basic_string@DU?$char_traits@D@std@@V?$allocator@D@2@@std@@PAVCEterPack@@@std@@@detail@unordered@boost@@@std@@$$QAU?$pair@$$CBV?$basic_string@DU?$char_traits@D@std@@V?$allocator@D@2@@std@@PAVCEterPack@@@6@@Z DD 0ffffffffH
	DD	FLAT:__unwindfunclet$??$construct_node_from_args@V?$allocator@U?$ptr_node@U?$pair@$$CBV?$basic_string@DU?$char_traits@D@std@@V?$allocator@D@2@@std@@PAVCEterPack@@@std@@@detail@unordered@boost@@@std@@U?$pair@$$CBV?$basic_string@DU?$char_traits@D@std@@V?$allocator@D@2@@std@@PAVCEterPack@@@2@@func@detail@unordered@boost@@YAPAU?$ptr_node@U?$pair@$$CBV?$basic_string@DU?$char_traits@D@std@@V?$allocator@D@2@@std@@PAVCEterPack@@@std@@@123@AAV?$allocator@U?$ptr_node@U?$pair@$$CBV?$basic_string@DU?$char_traits@D@std@@V?$allocator@D@2@@std@@PAVCEterPack@@@std@@@detail@unordered@boost@@@std@@$$QAU?$pair@$$CBV?$basic_string@DU?$char_traits@D@std@@V?$allocator@D@2@@std@@PAVCEterPack@@@6@@Z$0
__ehfuncinfo$??$construct_node_from_args@V?$allocator@U?$ptr_node@U?$pair@$$CBV?$basic_string@DU?$char_traits@D@std@@V?$allocator@D@2@@std@@PAVCEterPack@@@std@@@detail@unordered@boost@@@std@@U?$pair@$$CBV?$basic_string@DU?$char_traits@D@std@@V?$allocator@D@2@@std@@PAVCEterPack@@@2@@func@detail@unordered@boost@@YAPAU?$ptr_node@U?$pair@$$CBV?$basic_string@DU?$char_traits@D@std@@V?$allocator@D@2@@std@@PAVCEterPack@@@std@@@123@AAV?$allocator@U?$ptr_node@U?$pair@$$CBV?$basic_string@DU?$char_traits@D@std@@V?$allocator@D@2@@std@@PAVCEterPack@@@std@@@detail@unordered@boost@@@std@@$$QAU?$pair@$$CBV?$basic_string@DU?$char_traits@D@std@@V?$allocator@D@2@@std@@PAVCEterPack@@@6@@Z DD 019930522H
	DD	01H
	DD	FLAT:__unwindtable$??$construct_node_from_args@V?$allocator@U?$ptr_node@U?$pair@$$CBV?$basic_string@DU?$char_traits@D@std@@V?$allocator@D@2@@std@@PAVCEterPack@@@std@@@detail@unordered@boost@@@std@@U?$pair@$$CBV?$basic_string@DU?$char_traits@D@std@@V?$allocator@D@2@@std@@PAVCEterPack@@@2@@func@detail@unordered@boost@@YAPAU?$ptr_node@U?$pair@$$CBV?$basic_string@DU?$char_traits@D@std@@V?$allocator@D@2@@std@@PAVCEterPack@@@std@@@123@AAV?$allocator@U?$ptr_node@U?$pair@$$CBV?$basic_string@DU?$char_traits@D@std@@V?$allocator@D@2@@std@@PAVCEterPack@@@std@@@detail@unordered@boost@@@std@@$$QAU?$pair@$$CBV?$basic_string@DU?$char_traits@D@std@@V?$allocator@D@2@@std@@PAVCEterPack@@@6@@Z
	DD	2 DUP(00H)
	DD	2 DUP(00H)
	DD	00H
	DD	01H
xdata$x	ENDS
;	COMDAT xdata$x
xdata$x	SEGMENT
__unwindtable$??$construct_node_from_args@V?$allocator@U?$ptr_node@U?$pair@$$CBKUSCache@CEterPackManager@@@std@@@detail@unordered@boost@@@std@@U?$pair@$$CBKUSCache@CEterPackManager@@@2@@func@detail@unordered@boost@@YAPAU?$ptr_node@U?$pair@$$CBKUSCache@CEterPackManager@@@std@@@123@AAV?$allocator@U?$ptr_node@U?$pair@$$CBKUSCache@CEterPackManager@@@std@@@detail@unordered@boost@@@std@@$$QAU?$pair@$$CBKUSCache@CEterPackManager@@@6@@Z DD 0ffffffffH
	DD	FLAT:__unwindfunclet$??$construct_node_from_args@V?$allocator@U?$ptr_node@U?$pair@$$CBKUSCache@CEterPackManager@@@std@@@detail@unordered@boost@@@std@@U?$pair@$$CBKUSCache@CEterPackManager@@@2@@func@detail@unordered@boost@@YAPAU?$ptr_node@U?$pair@$$CBKUSCache@CEterPackManager@@@std@@@123@AAV?$allocator@U?$ptr_node@U?$pair@$$CBKUSCache@CEterPackManager@@@std@@@detail@unordered@boost@@@std@@$$QAU?$pair@$$CBKUSCache@CEterPackManager@@@6@@Z$0
__ehfuncinfo$??$construct_node_from_args@V?$allocator@U?$ptr_node@U?$pair@$$CBKUSCache@CEterPackManager@@@std@@@detail@unordered@boost@@@std@@U?$pair@$$CBKUSCache@CEterPackManager@@@2@@func@detail@unordered@boost@@YAPAU?$ptr_node@U?$pair@$$CBKUSCache@CEterPackManager@@@std@@@123@AAV?$allocator@U?$ptr_node@U?$pair@$$CBKUSCache@CEterPackManager@@@std@@@detail@unordered@boost@@@std@@$$QAU?$pair@$$CBKUSCache@CEterPackManager@@@6@@Z DD 019930522H
	DD	01H
	DD	FLAT:__unwindtable$??$construct_node_from_args@V?$allocator@U?$ptr_node@U?$pair@$$CBKUSCache@CEterPackManager@@@std@@@detail@unordered@boost@@@std@@U?$pair@$$CBKUSCache@CEterPackManager@@@2@@func@detail@unordered@boost@@YAPAU?$ptr_node@U?$pair@$$CBKUSCache@CEterPackManager@@@std@@@123@AAV?$allocator@U?$ptr_node@U?$pair@$$CBKUSCache@CEterPackManager@@@std@@@detail@unordered@boost@@@std@@$$QAU?$pair@$$CBKUSCache@CEterPackManager@@@6@@Z
	DD	2 DUP(00H)
	DD	2 DUP(00H)
	DD	00H
	DD	01H
xdata$x	ENDS
;	COMDAT xdata$x
xdata$x	SEGMENT
__unwindtable$??$?0ABQAVCEterPack@@@?$_List_node_emplace_op2@V?$allocator@U?$_List_node@PAVCEterPack@@PAX@std@@@std@@@std@@QAE@AAV?$allocator@U?$_List_node@PAVCEterPack@@PAX@std@@@1@ABQAVCEterPack@@@Z DD 0ffffffffH
	DD	FLAT:__unwindfunclet$??$?0ABQAVCEterPack@@@?$_List_node_emplace_op2@V?$allocator@U?$_List_node@PAVCEterPack@@PAX@std@@@std@@@std@@QAE@AAV?$allocator@U?$_List_node@PAVCEterPack@@PAX@std@@@1@ABQAVCEterPack@@@Z$0
__ehfuncinfo$??$?0ABQAVCEterPack@@@?$_List_node_emplace_op2@V?$allocator@U?$_List_node@PAVCEterPack@@PAX@std@@@std@@@std@@QAE@AAV?$allocator@U?$_List_node@PAVCEterPack@@PAX@std@@@1@ABQAVCEterPack@@@Z DD 019930522H
	DD	01H
	DD	FLAT:__unwindtable$??$?0ABQAVCEterPack@@@?$_List_node_emplace_op2@V?$allocator@U?$_List_node@PAVCEterPack@@PAX@std@@@std@@@std@@QAE@AAV?$allocator@U?$_List_node@PAVCEterPack@@PAX@std@@@1@ABQAVCEterPack@@@Z
	DD	2 DUP(00H)
	DD	2 DUP(00H)
	DD	00H
	DD	01H
xdata$x	ENDS
;	COMDAT xdata$x
xdata$x	SEGMENT
__ehfuncinfo$??$_Deallocate@$07$0A@@std@@YAXPAXI@Z DD 019930522H
	DD	00H
	DD	00H
	DD	2 DUP(00H)
	DD	2 DUP(00H)
	DD	00H
	DD	05H
xdata$x	ENDS
;	COMDAT xdata$x
xdata$x	SEGMENT
__unwindtable$??1?$unordered_map@KUSCache@CEterPackManager@@U?$hash@K@boost@@U?$equal_to@K@std@@V?$allocator@U?$pair@$$CBKUSCache@CEterPackManager@@@std@@@6@@unordered@boost@@QAE@XZ DD 0ffffffffH
	DD	FLAT:___std_terminate
__ehfuncinfo$??1?$unordered_map@KUSCache@CEterPackManager@@U?$hash@K@boost@@U?$equal_to@K@std@@V?$allocator@U?$pair@$$CBKUSCache@CEterPackManager@@@std@@@6@@unordered@boost@@QAE@XZ DD 019930522H
	DD	01H
	DD	FLAT:__unwindtable$??1?$unordered_map@KUSCache@CEterPackManager@@U?$hash@K@boost@@U?$equal_to@K@std@@V?$allocator@U?$pair@$$CBKUSCache@CEterPackManager@@@std@@@6@@unordered@boost@@QAE@XZ
	DD	2 DUP(00H)
	DD	2 DUP(00H)
	DD	00H
	DD	05H
xdata$x	ENDS
;	COMDAT xdata$x
xdata$x	SEGMENT
__unwindtable$?resize_and_add_node_unique@?$table@U?$map@V?$allocator@U?$pair@$$CBKUSCache@CEterPackManager@@@std@@@std@@KUSCache@CEterPackManager@@U?$hash@K@boost@@U?$equal_to@K@2@@detail@unordered@boost@@@detail@unordered@boost@@QAEPAU?$ptr_node@U?$pair@$$CBKUSCache@CEterPackManager@@@std@@@234@PAU5234@I@Z DD 0ffffffffH
	DD	FLAT:__unwindfunclet$?resize_and_add_node_unique@?$table@U?$map@V?$allocator@U?$pair@$$CBKUSCache@CEterPackManager@@@std@@@std@@KUSCache@CEterPackManager@@U?$hash@K@boost@@U?$equal_to@K@2@@detail@unordered@boost@@@detail@unordered@boost@@QAEPAU?$ptr_node@U?$pair@$$CBKUSCache@CEterPackManager@@@std@@@234@PAU5234@I@Z$0
__ehfuncinfo$?resize_and_add_node_unique@?$table@U?$map@V?$allocator@U?$pair@$$CBKUSCache@CEterPackManager@@@std@@@std@@KUSCache@CEterPackManager@@U?$hash@K@boost@@U?$equal_to@K@2@@detail@unordered@boost@@@detail@unordered@boost@@QAEPAU?$ptr_node@U?$pair@$$CBKUSCache@CEterPackManager@@@std@@@234@PAU5234@I@Z DD 019930522H
	DD	01H
	DD	FLAT:__unwindtable$?resize_and_add_node_unique@?$table@U?$map@V?$allocator@U?$pair@$$CBKUSCache@CEterPackManager@@@std@@@std@@KUSCache@CEterPackManager@@U?$hash@K@boost@@U?$equal_to@K@2@@detail@unordered@boost@@@detail@unordered@boost@@QAEPAU?$ptr_node@U?$pair@$$CBKUSCache@CEterPackManager@@@std@@@234@PAU5234@I@Z
	DD	2 DUP(00H)
	DD	2 DUP(00H)
	DD	00H
	DD	01H
xdata$x	ENDS
;	COMDAT xdata$x
xdata$x	SEGMENT
__catchsym$?rehash_impl@?$table@U?$map@V?$allocator@U?$pair@$$CBKUSCache@CEterPackManager@@@std@@@std@@KUSCache@CEterPackManager@@U?$hash@K@boost@@U?$equal_to@K@2@@detail@unordered@boost@@@detail@unordered@boost@@QAEXI@Z$2 DD 040H
	DD	00H
	DD	00H
	DD	FLAT:__catch$?rehash_impl@?$table@U?$map@V?$allocator@U?$pair@$$CBKUSCache@CEterPackManager@@@std@@@std@@KUSCache@CEterPackManager@@U?$hash@K@boost@@U?$equal_to@K@2@@detail@unordered@boost@@@detail@unordered@boost@@QAEXI@Z$0
__unwindtable$?rehash_impl@?$table@U?$map@V?$allocator@U?$pair@$$CBKUSCache@CEterPackManager@@@std@@@std@@KUSCache@CEterPackManager@@U?$hash@K@boost@@U?$equal_to@K@2@@detail@unordered@boost@@@detail@unordered@boost@@QAEXI@Z DD 0ffffffffH
	DD	00H
	DD	0ffffffffH
	DD	00H
__tryblocktable$?rehash_impl@?$table@U?$map@V?$allocator@U?$pair@$$CBKUSCache@CEterPackManager@@@std@@@std@@KUSCache@CEterPackManager@@U?$hash@K@boost@@U?$equal_to@K@2@@detail@unordered@boost@@@detail@unordered@boost@@QAEXI@Z DD 00H
	DD	00H
	DD	01H
	DD	01H
	DD	FLAT:__catchsym$?rehash_impl@?$table@U?$map@V?$allocator@U?$pair@$$CBKUSCache@CEterPackManager@@@std@@@std@@KUSCache@CEterPackManager@@U?$hash@K@boost@@U?$equal_to@K@2@@detail@unordered@boost@@@detail@unordered@boost@@QAEXI@Z$2
__ehfuncinfo$?rehash_impl@?$table@U?$map@V?$allocator@U?$pair@$$CBKUSCache@CEterPackManager@@@std@@@std@@KUSCache@CEterPackManager@@U?$hash@K@boost@@U?$equal_to@K@2@@detail@unordered@boost@@@detail@unordered@boost@@QAEXI@Z DD 019930522H
	DD	02H
	DD	FLAT:__unwindtable$?rehash_impl@?$table@U?$map@V?$allocator@U?$pair@$$CBKUSCache@CEterPackManager@@@std@@@std@@KUSCache@CEterPackManager@@U?$hash@K@boost@@U?$equal_to@K@2@@detail@unordered@boost@@@detail@unordered@boost@@QAEXI@Z
	DD	01H
	DD	FLAT:__tryblocktable$?rehash_impl@?$table@U?$map@V?$allocator@U?$pair@$$CBKUSCache@CEterPackManager@@@std@@@std@@KUSCache@CEterPackManager@@U?$hash@K@boost@@U?$equal_to@K@2@@detail@unordered@boost@@@detail@unordered@boost@@QAEXI@Z
	DD	2 DUP(00H)
	DD	00H
	DD	01H
xdata$x	ENDS
;	COMDAT xdata$x
xdata$x	SEGMENT
__unwindtable$?create_buckets@?$table@U?$map@V?$allocator@U?$pair@$$CBKUSCache@CEterPackManager@@@std@@@std@@KUSCache@CEterPackManager@@U?$hash@K@boost@@U?$equal_to@K@2@@detail@unordered@boost@@@detail@unordered@boost@@QAEXI@Z DD 0ffffffffH
	DD	FLAT:__unwindfunclet$?create_buckets@?$table@U?$map@V?$allocator@U?$pair@$$CBKUSCache@CEterPackManager@@@std@@@std@@KUSCache@CEterPackManager@@U?$hash@K@boost@@U?$equal_to@K@2@@detail@unordered@boost@@@detail@unordered@boost@@QAEXI@Z$0
__ehfuncinfo$?create_buckets@?$table@U?$map@V?$allocator@U?$pair@$$CBKUSCache@CEterPackManager@@@std@@@std@@KUSCache@CEterPackManager@@U?$hash@K@boost@@U?$equal_to@K@2@@detail@unordered@boost@@@detail@unordered@boost@@QAEXI@Z DD 019930522H
	DD	01H
	DD	FLAT:__unwindtable$?create_buckets@?$table@U?$map@V?$allocator@U?$pair@$$CBKUSCache@CEterPackManager@@@std@@@std@@KUSCache@CEterPackManager@@U?$hash@K@boost@@U?$equal_to@K@2@@detail@unordered@boost@@@detail@unordered@boost@@QAEXI@Z
	DD	2 DUP(00H)
	DD	2 DUP(00H)
	DD	00H
	DD	01H
xdata$x	ENDS
;	COMDAT xdata$x
xdata$x	SEGMENT
__unwindtable$??0?$table@U?$map@V?$allocator@U?$pair@$$CBKUSCache@CEterPackManager@@@std@@@std@@KUSCache@CEterPackManager@@U?$hash@K@boost@@U?$equal_to@K@2@@detail@unordered@boost@@@detail@unordered@boost@@QAE@IABU?$hash@K@3@ABU?$equal_to@K@std@@ABV?$allocator@U?$ptr_node@U?$pair@$$CBKUSCache@CEterPackManager@@@std@@@detail@unordered@boost@@@6@@Z DD 0ffffffffH
	DD	FLAT:__unwindfunclet$??0?$table@U?$map@V?$allocator@U?$pair@$$CBKUSCache@CEterPackManager@@@std@@@std@@KUSCache@CEterPackManager@@U?$hash@K@boost@@U?$equal_to@K@2@@detail@unordered@boost@@@detail@unordered@boost@@QAE@IABU?$hash@K@3@ABU?$equal_to@K@std@@ABV?$allocator@U?$ptr_node@U?$pair@$$CBKUSCache@CEterPackManager@@@std@@@detail@unordered@boost@@@6@@Z$0
__ehfuncinfo$??0?$table@U?$map@V?$allocator@U?$pair@$$CBKUSCache@CEterPackManager@@@std@@@std@@KUSCache@CEterPackManager@@U?$hash@K@boost@@U?$equal_to@K@2@@detail@unordered@boost@@@detail@unordered@boost@@QAE@IABU?$hash@K@3@ABU?$equal_to@K@std@@ABV?$allocator@U?$ptr_node@U?$pair@$$CBKUSCache@CEterPackManager@@@std@@@detail@unordered@boost@@@6@@Z DD 019930522H
	DD	01H
	DD	FLAT:__unwindtable$??0?$table@U?$map@V?$allocator@U?$pair@$$CBKUSCache@CEterPackManager@@@std@@@std@@KUSCache@CEterPackManager@@U?$hash@K@boost@@U?$equal_to@K@2@@detail@unordered@boost@@@detail@unordered@boost@@QAE@IABU?$hash@K@3@ABU?$equal_to@K@std@@ABV?$allocator@U?$ptr_node@U?$pair@$$CBKUSCache@CEterPackManager@@@std@@@detail@unordered@boost@@@6@@Z
	DD	2 DUP(00H)
	DD	2 DUP(00H)
	DD	00H
	DD	01H
xdata$x	ENDS
;	COMDAT xdata$x
xdata$x	SEGMENT
__unwindtable$??1?$unordered_map@V?$basic_string@DU?$char_traits@D@std@@V?$allocator@D@2@@std@@PAVCEterPack@@Ustringhash@@U?$equal_to@V?$basic_string@DU?$char_traits@D@std@@V?$allocator@D@2@@std@@@2@V?$allocator@U?$pair@$$CBV?$basic_string@DU?$char_traits@D@std@@V?$allocator@D@2@@std@@PAVCEterPack@@@std@@@2@@unordered@boost@@QAE@XZ DD 0ffffffffH
	DD	FLAT:___std_terminate
__ehfuncinfo$??1?$unordered_map@V?$basic_string@DU?$char_traits@D@std@@V?$allocator@D@2@@std@@PAVCEterPack@@Ustringhash@@U?$equal_to@V?$basic_string@DU?$char_traits@D@std@@V?$allocator@D@2@@std@@@2@V?$allocator@U?$pair@$$CBV?$basic_string@DU?$char_traits@D@std@@V?$allocator@D@2@@std@@PAVCEterPack@@@std@@@2@@unordered@boost@@QAE@XZ DD 019930522H
	DD	01H
	DD	FLAT:__unwindtable$??1?$unordered_map@V?$basic_string@DU?$char_traits@D@std@@V?$allocator@D@2@@std@@PAVCEterPack@@Ustringhash@@U?$equal_to@V?$basic_string@DU?$char_traits@D@std@@V?$allocator@D@2@@std@@@2@V?$allocator@U?$pair@$$CBV?$basic_string@DU?$char_traits@D@std@@V?$allocator@D@2@@std@@PAVCEterPack@@@std@@@2@@unordered@boost@@QAE@XZ
	DD	2 DUP(00H)
	DD	2 DUP(00H)
	DD	00H
	DD	05H
xdata$x	ENDS
;	COMDAT xdata$x
xdata$x	SEGMENT
__unwindtable$?resize_and_add_node_unique@?$table@U?$map@V?$allocator@U?$pair@$$CBV?$basic_string@DU?$char_traits@D@std@@V?$allocator@D@2@@std@@PAVCEterPack@@@std@@@std@@V?$basic_string@DU?$char_traits@D@std@@V?$allocator@D@2@@2@PAVCEterPack@@Ustringhash@@U?$equal_to@V?$basic_string@DU?$char_traits@D@std@@V?$allocator@D@2@@std@@@2@@detail@unordered@boost@@@detail@unordered@boost@@QAEPAU?$ptr_node@U?$pair@$$CBV?$basic_string@DU?$char_traits@D@std@@V?$allocator@D@2@@std@@PAVCEterPack@@@std@@@234@PAU5234@I@Z DD 0ffffffffH
	DD	FLAT:__unwindfunclet$?resize_and_add_node_unique@?$table@U?$map@V?$allocator@U?$pair@$$CBV?$basic_string@DU?$char_traits@D@std@@V?$allocator@D@2@@std@@PAVCEterPack@@@std@@@std@@V?$basic_string@DU?$char_traits@D@std@@V?$allocator@D@2@@2@PAVCEterPack@@Ustringhash@@U?$equal_to@V?$basic_string@DU?$char_traits@D@std@@V?$allocator@D@2@@std@@@2@@detail@unordered@boost@@@detail@unordered@boost@@QAEPAU?$ptr_node@U?$pair@$$CBV?$basic_string@DU?$char_traits@D@std@@V?$allocator@D@2@@std@@PAVCEterPack@@@std@@@234@PAU5234@I@Z$0
__ehfuncinfo$?resize_and_add_node_unique@?$table@U?$map@V?$allocator@U?$pair@$$CBV?$basic_string@DU?$char_traits@D@std@@V?$allocator@D@2@@std@@PAVCEterPack@@@std@@@std@@V?$basic_string@DU?$char_traits@D@std@@V?$allocator@D@2@@2@PAVCEterPack@@Ustringhash@@U?$equal_to@V?$basic_string@DU?$char_traits@D@std@@V?$allocator@D@2@@std@@@2@@detail@unordered@boost@@@detail@unordered@boost@@QAEPAU?$ptr_node@U?$pair@$$CBV?$basic_string@DU?$char_traits@D@std@@V?$allocator@D@2@@std@@PAVCEterPack@@@std@@@234@PAU5234@I@Z DD 019930522H
	DD	01H
	DD	FLAT:__unwindtable$?resize_and_add_node_unique@?$table@U?$map@V?$allocator@U?$pair@$$CBV?$basic_string@DU?$char_traits@D@std@@V?$allocator@D@2@@std@@PAVCEterPack@@@std@@@std@@V?$basic_string@DU?$char_traits@D@std@@V?$allocator@D@2@@2@PAVCEterPack@@Ustringhash@@U?$equal_to@V?$basic_string@DU?$char_traits@D@std@@V?$allocator@D@2@@std@@@2@@detail@unordered@boost@@@detail@unordered@boost@@QAEPAU?$ptr_node@U?$pair@$$CBV?$basic_string@DU?$char_traits@D@std@@V?$allocator@D@2@@std@@PAVCEterPack@@@std@@@234@PAU5234@I@Z
	DD	2 DUP(00H)
	DD	2 DUP(00H)
	DD	00H
	DD	01H
xdata$x	ENDS
;	COMDAT xdata$x
xdata$x	SEGMENT
__catchsym$?rehash_impl@?$table@U?$map@V?$allocator@U?$pair@$$CBV?$basic_string@DU?$char_traits@D@std@@V?$allocator@D@2@@std@@PAVCEterPack@@@std@@@std@@V?$basic_string@DU?$char_traits@D@std@@V?$allocator@D@2@@2@PAVCEterPack@@Ustringhash@@U?$equal_to@V?$basic_string@DU?$char_traits@D@std@@V?$allocator@D@2@@std@@@2@@detail@unordered@boost@@@detail@unordered@boost@@QAEXI@Z$7 DD 040H
	DD	00H
	DD	00H
	DD	FLAT:__catch$?rehash_impl@?$table@U?$map@V?$allocator@U?$pair@$$CBV?$basic_string@DU?$char_traits@D@std@@V?$allocator@D@2@@std@@PAVCEterPack@@@std@@@std@@V?$basic_string@DU?$char_traits@D@std@@V?$allocator@D@2@@2@PAVCEterPack@@Ustringhash@@U?$equal_to@V?$basic_string@DU?$char_traits@D@std@@V?$allocator@D@2@@std@@@2@@detail@unordered@boost@@@detail@unordered@boost@@QAEXI@Z$0
__unwindtable$?rehash_impl@?$table@U?$map@V?$allocator@U?$pair@$$CBV?$basic_string@DU?$char_traits@D@std@@V?$allocator@D@2@@std@@PAVCEterPack@@@std@@@std@@V?$basic_string@DU?$char_traits@D@std@@V?$allocator@D@2@@2@PAVCEterPack@@Ustringhash@@U?$equal_to@V?$basic_string@DU?$char_traits@D@std@@V?$allocator@D@2@@std@@@2@@detail@unordered@boost@@@detail@unordered@boost@@QAEXI@Z DD 0ffffffffH
	DD	00H
	DD	0ffffffffH
	DD	00H
__tryblocktable$?rehash_impl@?$table@U?$map@V?$allocator@U?$pair@$$CBV?$basic_string@DU?$char_traits@D@std@@V?$allocator@D@2@@std@@PAVCEterPack@@@std@@@std@@V?$basic_string@DU?$char_traits@D@std@@V?$allocator@D@2@@2@PAVCEterPack@@Ustringhash@@U?$equal_to@V?$basic_string@DU?$char_traits@D@std@@V?$allocator@D@2@@std@@@2@@detail@unordered@boost@@@detail@unordered@boost@@QAEXI@Z DD 00H
	DD	00H
	DD	01H
	DD	01H
	DD	FLAT:__catchsym$?rehash_impl@?$table@U?$map@V?$allocator@U?$pair@$$CBV?$basic_string@DU?$char_traits@D@std@@V?$allocator@D@2@@std@@PAVCEterPack@@@std@@@std@@V?$basic_string@DU?$char_traits@D@std@@V?$allocator@D@2@@2@PAVCEterPack@@Ustringhash@@U?$equal_to@V?$basic_string@DU?$char_traits@D@std@@V?$allocator@D@2@@std@@@2@@detail@unordered@boost@@@detail@unordered@boost@@QAEXI@Z$7
__ehfuncinfo$?rehash_impl@?$table@U?$map@V?$allocator@U?$pair@$$CBV?$basic_string@DU?$char_traits@D@std@@V?$allocator@D@2@@std@@PAVCEterPack@@@std@@@std@@V?$basic_string@DU?$char_traits@D@std@@V?$allocator@D@2@@2@PAVCEterPack@@Ustringhash@@U?$equal_to@V?$basic_string@DU?$char_traits@D@std@@V?$allocator@D@2@@std@@@2@@detail@unordered@boost@@@detail@unordered@boost@@QAEXI@Z DD 019930522H
	DD	02H
	DD	FLAT:__unwindtable$?rehash_impl@?$table@U?$map@V?$allocator@U?$pair@$$CBV?$basic_string@DU?$char_traits@D@std@@V?$allocator@D@2@@std@@PAVCEterPack@@@std@@@std@@V?$basic_string@DU?$char_traits@D@std@@V?$allocator@D@2@@2@PAVCEterPack@@Ustringhash@@U?$equal_to@V?$basic_string@DU?$char_traits@D@std@@V?$allocator@D@2@@std@@@2@@detail@unordered@boost@@@detail@unordered@boost@@QAEXI@Z
	DD	01H
	DD	FLAT:__tryblocktable$?rehash_impl@?$table@U?$map@V?$allocator@U?$pair@$$CBV?$basic_string@DU?$char_traits@D@std@@V?$allocator@D@2@@std@@PAVCEterPack@@@std@@@std@@V?$basic_string@DU?$char_traits@D@std@@V?$allocator@D@2@@2@PAVCEterPack@@Ustringhash@@U?$equal_to@V?$basic_string@DU?$char_traits@D@std@@V?$allocator@D@2@@std@@@2@@detail@unordered@boost@@@detail@unordered@boost@@QAEXI@Z
	DD	2 DUP(00H)
	DD	00H
	DD	01H
xdata$x	ENDS
;	COMDAT xdata$x
xdata$x	SEGMENT
__unwindtable$?create_buckets@?$table@U?$map@V?$allocator@U?$pair@$$CBV?$basic_string@DU?$char_traits@D@std@@V?$allocator@D@2@@std@@PAVCEterPack@@@std@@@std@@V?$basic_string@DU?$char_traits@D@std@@V?$allocator@D@2@@2@PAVCEterPack@@Ustringhash@@U?$equal_to@V?$basic_string@DU?$char_traits@D@std@@V?$allocator@D@2@@std@@@2@@detail@unordered@boost@@@detail@unordered@boost@@QAEXI@Z DD 0ffffffffH
	DD	FLAT:__unwindfunclet$?create_buckets@?$table@U?$map@V?$allocator@U?$pair@$$CBV?$basic_string@DU?$char_traits@D@std@@V?$allocator@D@2@@std@@PAVCEterPack@@@std@@@std@@V?$basic_string@DU?$char_traits@D@std@@V?$allocator@D@2@@2@PAVCEterPack@@Ustringhash@@U?$equal_to@V?$basic_string@DU?$char_traits@D@std@@V?$allocator@D@2@@std@@@2@@detail@unordered@boost@@@detail@unordered@boost@@QAEXI@Z$0
__ehfuncinfo$?create_buckets@?$table@U?$map@V?$allocator@U?$pair@$$CBV?$basic_string@DU?$char_traits@D@std@@V?$allocator@D@2@@std@@PAVCEterPack@@@std@@@std@@V?$basic_string@DU?$char_traits@D@std@@V?$allocator@D@2@@2@PAVCEterPack@@Ustringhash@@U?$equal_to@V?$basic_string@DU?$char_traits@D@std@@V?$allocator@D@2@@std@@@2@@detail@unordered@boost@@@detail@unordered@boost@@QAEXI@Z DD 019930522H
	DD	01H
	DD	FLAT:__unwindtable$?create_buckets@?$table@U?$map@V?$allocator@U?$pair@$$CBV?$basic_string@DU?$char_traits@D@std@@V?$allocator@D@2@@std@@PAVCEterPack@@@std@@@std@@V?$basic_string@DU?$char_traits@D@std@@V?$allocator@D@2@@2@PAVCEterPack@@Ustringhash@@U?$equal_to@V?$basic_string@DU?$char_traits@D@std@@V?$allocator@D@2@@std@@@2@@detail@unordered@boost@@@detail@unordered@boost@@QAEXI@Z
	DD	2 DUP(00H)
	DD	2 DUP(00H)
	DD	00H
	DD	01H
xdata$x	ENDS
;	COMDAT xdata$x
xdata$x	SEGMENT
__unwindtable$??0?$table@U?$map@V?$allocator@U?$pair@$$CBV?$basic_string@DU?$char_traits@D@std@@V?$allocator@D@2@@std@@PAVCEterPack@@@std@@@std@@V?$basic_string@DU?$char_traits@D@std@@V?$allocator@D@2@@2@PAVCEterPack@@Ustringhash@@U?$equal_to@V?$basic_string@DU?$char_traits@D@std@@V?$allocator@D@2@@std@@@2@@detail@unordered@boost@@@detail@unordered@boost@@QAE@IABUstringhash@@ABU?$equal_to@V?$basic_string@DU?$char_traits@D@std@@V?$allocator@D@2@@std@@@std@@ABV?$allocator@U?$ptr_node@U?$pair@$$CBV?$basic_string@DU?$char_traits@D@std@@V?$allocator@D@2@@std@@PAVCEterPack@@@std@@@detail@unordered@boost@@@6@@Z DD 0ffffffffH
	DD	FLAT:__unwindfunclet$??0?$table@U?$map@V?$allocator@U?$pair@$$CBV?$basic_string@DU?$char_traits@D@std@@V?$allocator@D@2@@std@@PAVCEterPack@@@std@@@std@@V?$basic_string@DU?$char_traits@D@std@@V?$allocator@D@2@@2@PAVCEterPack@@Ustringhash@@U?$equal_to@V?$basic_string@DU?$char_traits@D@std@@V?$allocator@D@2@@std@@@2@@detail@unordered@boost@@@detail@unordered@boost@@QAE@IABUstringhash@@ABU?$equal_to@V?$basic_string@DU?$char_traits@D@std@@V?$allocator@D@2@@std@@@std@@ABV?$allocator@U?$ptr_node@U?$pair@$$CBV?$basic_string@DU?$char_traits@D@std@@V?$allocator@D@2@@std@@PAVCEterPack@@@std@@@detail@unordered@boost@@@6@@Z$0
__ehfuncinfo$??0?$table@U?$map@V?$allocator@U?$pair@$$CBV?$basic_string@DU?$char_traits@D@std@@V?$allocator@D@2@@std@@PAVCEterPack@@@std@@@std@@V?$basic_string@DU?$char_traits@D@std@@V?$allocator@D@2@@2@PAVCEterPack@@Ustringhash@@U?$equal_to@V?$basic_string@DU?$char_traits@D@std@@V?$allocator@D@2@@std@@@2@@detail@unordered@boost@@@detail@unordered@boost@@QAE@IABUstringhash@@ABU?$equal_to@V?$basic_string@DU?$char_traits@D@std@@V?$allocator@D@2@@std@@@std@@ABV?$allocator@U?$ptr_node@U?$pair@$$CBV?$basic_string@DU?$char_traits@D@std@@V?$allocator@D@2@@std@@PAVCEterPack@@@std@@@detail@unordered@boost@@@6@@Z DD 019930522H
	DD	01H
	DD	FLAT:__unwindtable$??0?$table@U?$map@V?$allocator@U?$pair@$$CBV?$basic_string@DU?$char_traits@D@std@@V?$allocator@D@2@@std@@PAVCEterPack@@@std@@@std@@V?$basic_string@DU?$char_traits@D@std@@V?$allocator@D@2@@2@PAVCEterPack@@Ustringhash@@U?$equal_to@V?$basic_string@DU?$char_traits@D@std@@V?$allocator@D@2@@std@@@2@@detail@unordered@boost@@@detail@unordered@boost@@QAE@IABUstringhash@@ABU?$equal_to@V?$basic_string@DU?$char_traits@D@std@@V?$allocator@D@2@@std@@@std@@ABV?$allocator@U?$ptr_node@U?$pair@$$CBV?$basic_string@DU?$char_traits@D@std@@V?$allocator@D@2@@std@@PAVCEterPack@@@std@@@detail@unordered@boost@@@6@@Z
	DD	2 DUP(00H)
	DD	2 DUP(00H)
	DD	00H
	DD	01H
xdata$x	ENDS
;	COMDAT xdata$x
xdata$x	SEGMENT
__unwindtable$?__ClearCacheMap@CEterPackManager@@IAEXXZ DD 0ffffffffH
	DD	FLAT:___std_terminate
__ehfuncinfo$?__ClearCacheMap@CEterPackManager@@IAEXXZ DD 019930522H
	DD	01H
	DD	FLAT:__unwindtable$?__ClearCacheMap@CEterPackManager@@IAEXXZ
	DD	2 DUP(00H)
	DD	2 DUP(00H)
	DD	00H
	DD	01H
xdata$x	ENDS
;	COMDAT xdata$x
xdata$x	SEGMENT
__unwindtable$?FindPack@CEterPackManager@@IAEPAVCEterPack@@PBD@Z DD 0ffffffffH
	DD	FLAT:__unwindfunclet$?FindPack@CEterPackManager@@IAEPAVCEterPack@@PBD@Z$0
__ehfuncinfo$?FindPack@CEterPackManager@@IAEPAVCEterPack@@PBD@Z DD 019930522H
	DD	01H
	DD	FLAT:__unwindtable$?FindPack@CEterPackManager@@IAEPAVCEterPack@@PBD@Z
	DD	2 DUP(00H)
	DD	2 DUP(00H)
	DD	00H
	DD	01H
xdata$x	ENDS
;	COMDAT xdata$x
xdata$x	SEGMENT
__unwindtable$?RetrieveHybridCryptPackSDB@CEterPackManager@@QAEXPBE@Z DD 0ffffffffH
	DD	FLAT:__unwindfunclet$?RetrieveHybridCryptPackSDB@CEterPackManager@@QAEXPBE@Z$0
	DD	00H
	DD	FLAT:__unwindfunclet$?RetrieveHybridCryptPackSDB@CEterPackManager@@QAEXPBE@Z$1
	DD	0ffffffffH
	DD	FLAT:__unwindfunclet$?RetrieveHybridCryptPackSDB@CEterPackManager@@QAEXPBE@Z$1
__ehfuncinfo$?RetrieveHybridCryptPackSDB@CEterPackManager@@QAEXPBE@Z DD 019930522H
	DD	03H
	DD	FLAT:__unwindtable$?RetrieveHybridCryptPackSDB@CEterPackManager@@QAEXPBE@Z
	DD	2 DUP(00H)
	DD	2 DUP(00H)
	DD	00H
	DD	01H
xdata$x	ENDS
;	COMDAT xdata$x
xdata$x	SEGMENT
__unwindtable$?RetrieveHybridCryptPackKeys@CEterPackManager@@QAEXPBE@Z DD 0ffffffffH
	DD	FLAT:__unwindfunclet$?RetrieveHybridCryptPackKeys@CEterPackManager@@QAEXPBE@Z$0
	DD	00H
	DD	FLAT:__unwindfunclet$?RetrieveHybridCryptPackKeys@CEterPackManager@@QAEXPBE@Z$1
	DD	0ffffffffH
	DD	FLAT:__unwindfunclet$?RetrieveHybridCryptPackKeys@CEterPackManager@@QAEXPBE@Z$1
__ehfuncinfo$?RetrieveHybridCryptPackKeys@CEterPackManager@@QAEXPBE@Z DD 019930522H
	DD	03H
	DD	FLAT:__unwindtable$?RetrieveHybridCryptPackKeys@CEterPackManager@@QAEXPBE@Z
	DD	2 DUP(00H)
	DD	2 DUP(00H)
	DD	00H
	DD	01H
xdata$x	ENDS
;	COMDAT xdata$x
xdata$x	SEGMENT
__ehfuncinfo$?WriteHybridCryptPackInfo@CEterPackManager@@QAEXPBD@Z DD 019930522H
	DD	07H
	DD	FLAT:__unwindtable$?WriteHybridCryptPackInfo@CEterPackManager@@QAEXPBD@Z
	DD	2 DUP(00H)
	DD	2 DUP(00H)
	DD	00H
	DD	01H
__unwindtable$?WriteHybridCryptPackInfo@CEterPackManager@@QAEXPBD@Z DD 0ffffffffH
	DD	FLAT:__unwindfunclet$?WriteHybridCryptPackInfo@CEterPackManager@@QAEXPBD@Z$0
	DD	00H
	DD	FLAT:__unwindfunclet$?WriteHybridCryptPackInfo@CEterPackManager@@QAEXPBD@Z$1
	DD	01H
	DD	FLAT:__unwindfunclet$?WriteHybridCryptPackInfo@CEterPackManager@@QAEXPBD@Z$2
	DD	00H
	DD	FLAT:__unwindfunclet$?WriteHybridCryptPackInfo@CEterPackManager@@QAEXPBD@Z$2
	DD	00H
	DD	FLAT:__unwindfunclet$?WriteHybridCryptPackInfo@CEterPackManager@@QAEXPBD@Z$3
	DD	04H
	DD	FLAT:__unwindfunclet$?WriteHybridCryptPackInfo@CEterPackManager@@QAEXPBD@Z$4
	DD	00H
	DD	FLAT:__unwindfunclet$?WriteHybridCryptPackInfo@CEterPackManager@@QAEXPBD@Z$4
xdata$x	ENDS
;	COMDAT xdata$x
xdata$x	SEGMENT
__unwindtable$?DecryptPackIV@CEterPackManager@@QAE_NK@Z DD 0ffffffffH
	DD	FLAT:___std_terminate
__ehfuncinfo$?DecryptPackIV@CEterPackManager@@QAE_NK@Z DD 019930522H
	DD	01H
	DD	FLAT:__unwindtable$?DecryptPackIV@CEterPackManager@@QAE_NK@Z
	DD	2 DUP(00H)
	DD	2 DUP(00H)
	DD	00H
	DD	01H
xdata$x	ENDS
;	COMDAT xdata$x
xdata$x	SEGMENT
__unwindtable$?RegisterPackWhenPackMaking@CEterPackManager@@QAE_NPBD0PAVCEterPack@@@Z DD 0ffffffffH
	DD	FLAT:__unwindfunclet$?RegisterPackWhenPackMaking@CEterPackManager@@QAE_NPBD0PAVCEterPack@@@Z$0
	DD	0ffffffffH
	DD	FLAT:__unwindfunclet$?RegisterPackWhenPackMaking@CEterPackManager@@QAE_NPBD0PAVCEterPack@@@Z$1
__ehfuncinfo$?RegisterPackWhenPackMaking@CEterPackManager@@QAE_NPBD0PAVCEterPack@@@Z DD 019930522H
	DD	02H
	DD	FLAT:__unwindtable$?RegisterPackWhenPackMaking@CEterPackManager@@QAE_NPBD0PAVCEterPack@@@Z
	DD	2 DUP(00H)
	DD	2 DUP(00H)
	DD	00H
	DD	01H
xdata$x	ENDS
;	COMDAT xdata$x
xdata$x	SEGMENT
__ehfuncinfo$?RegisterPack@CEterPackManager@@QAE_NPBD0PBE@Z DD 019930522H
	DD	05H
	DD	FLAT:__unwindtable$?RegisterPack@CEterPackManager@@QAE_NPBD0PBE@Z
	DD	2 DUP(00H)
	DD	2 DUP(00H)
	DD	00H
	DD	01H
__unwindtable$?RegisterPack@CEterPackManager@@QAE_NPBD0PBE@Z DD 0ffffffffH
	DD	FLAT:__unwindfunclet$?RegisterPack@CEterPackManager@@QAE_NPBD0PBE@Z$0
	DD	0ffffffffH
	DD	FLAT:__unwindfunclet$?RegisterPack@CEterPackManager@@QAE_NPBD0PBE@Z$1
	DD	0ffffffffH
	DD	FLAT:__unwindfunclet$?RegisterPack@CEterPackManager@@QAE_NPBD0PBE@Z$2
	DD	0ffffffffH
	DD	FLAT:__unwindfunclet$?RegisterPack@CEterPackManager@@QAE_NPBD0PBE@Z$3
	DD	0ffffffffH
	DD	FLAT:__unwindfunclet$?RegisterPack@CEterPackManager@@QAE_NPBD0PBE@Z$4
xdata$x	ENDS
;	COMDAT xdata$x
xdata$x	SEGMENT
__unwindtable$?isExistInPack@CEterPackManager@@QAE_NPBD@Z DD 0ffffffffH
	DD	FLAT:__unwindfunclet$?isExistInPack@CEterPackManager@@QAE_NPBD@Z$0
__ehfuncinfo$?isExistInPack@CEterPackManager@@QAE_NPBD@Z DD 019930522H
	DD	01H
	DD	FLAT:__unwindtable$?isExistInPack@CEterPackManager@@QAE_NPBD@Z
	DD	2 DUP(00H)
	DD	2 DUP(00H)
	DD	00H
	DD	01H
xdata$x	ENDS
;	COMDAT xdata$x
xdata$x	SEGMENT
__unwindtable$?GetFromPack@CEterPackManager@@QAE_NAAVCMappedFile@@PBDPAPBX@Z DD 0ffffffffH
	DD	FLAT:__unwindfunclet$?GetFromPack@CEterPackManager@@QAE_NAAVCMappedFile@@PBDPAPBX@Z$0
__ehfuncinfo$?GetFromPack@CEterPackManager@@QAE_NAAVCMappedFile@@PBDPAPBX@Z DD 019930522H
	DD	01H
	DD	FLAT:__unwindtable$?GetFromPack@CEterPackManager@@QAE_NAAVCMappedFile@@PBDPAPBX@Z
	DD	2 DUP(00H)
	DD	2 DUP(00H)
	DD	00H
	DD	01H
xdata$x	ENDS
;	COMDAT xdata$x
xdata$x	SEGMENT
__unwindtable$?LoadStaticCache@CEterPackManager@@QAEXPBD@Z DD 0ffffffffH
	DD	FLAT:__unwindfunclet$?LoadStaticCache@CEterPackManager@@QAEXPBD@Z$0
	DD	00H
	DD	FLAT:__unwindfunclet$?LoadStaticCache@CEterPackManager@@QAEXPBD@Z$1
__ehfuncinfo$?LoadStaticCache@CEterPackManager@@QAEXPBD@Z DD 019930522H
	DD	02H
	DD	FLAT:__unwindtable$?LoadStaticCache@CEterPackManager@@QAEXPBD@Z
	DD	2 DUP(00H)
	DD	2 DUP(00H)
	DD	00H
	DD	01H
xdata$x	ENDS
;	COMDAT xdata$x
xdata$x	SEGMENT
__ehfuncinfo$??1CEterPackManager@@UAE@XZ DD 019930522H
	DD	00H
	DD	00H
	DD	2 DUP(00H)
	DD	2 DUP(00H)
	DD	00H
	DD	05H
xdata$x	ENDS
;	COMDAT xdata$x
xdata$x	SEGMENT
__ehfuncinfo$??0CEterPackManager@@QAE@XZ DD 019930522H
	DD	06H
	DD	FLAT:__unwindtable$??0CEterPackManager@@QAE@XZ
	DD	2 DUP(00H)
	DD	2 DUP(00H)
	DD	00H
	DD	01H
__unwindtable$??0CEterPackManager@@QAE@XZ DD 0ffffffffH
	DD	FLAT:__unwindfunclet$??0CEterPackManager@@QAE@XZ$0
	DD	00H
	DD	FLAT:__unwindfunclet$??0CEterPackManager@@QAE@XZ$1
	DD	01H
	DD	FLAT:__unwindfunclet$??0CEterPackManager@@QAE@XZ$2
	DD	02H
	DD	FLAT:__unwindfunclet$??0CEterPackManager@@QAE@XZ$3
	DD	03H
	DD	FLAT:__unwindfunclet$??0CEterPackManager@@QAE@XZ$4
	DD	04H
	DD	FLAT:__unwindfunclet$??0CEterPackManager@@QAE@XZ$5
xdata$x	ENDS
;	COMDAT xdata$x
xdata$x	SEGMENT
__unwindtable$??1?$unordered_multimap@KUItem@CEterFileDict@@U?$hash@K@boost@@U?$equal_to@K@std@@V?$allocator@U?$pair@$$CBKUItem@CEterFileDict@@@std@@@6@@unordered@boost@@QAE@XZ DD 0ffffffffH
	DD	FLAT:___std_terminate
__ehfuncinfo$??1?$unordered_multimap@KUItem@CEterFileDict@@U?$hash@K@boost@@U?$equal_to@K@std@@V?$allocator@U?$pair@$$CBKUItem@CEterFileDict@@@std@@@6@@unordered@boost@@QAE@XZ DD 019930522H
	DD	01H
	DD	FLAT:__unwindtable$??1?$unordered_multimap@KUItem@CEterFileDict@@U?$hash@K@boost@@U?$equal_to@K@std@@V?$allocator@U?$pair@$$CBKUItem@CEterFileDict@@@std@@@6@@unordered@boost@@QAE@XZ
	DD	2 DUP(00H)
	DD	2 DUP(00H)
	DD	00H
	DD	05H
xdata$x	ENDS
;	COMDAT xdata$x
xdata$x	SEGMENT
__unwindtable$??0?$table@U?$map@V?$allocator@U?$pair@$$CBKUItem@CEterFileDict@@@std@@@std@@KUItem@CEterFileDict@@U?$hash@K@boost@@U?$equal_to@K@2@@detail@unordered@boost@@@detail@unordered@boost@@QAE@IABU?$hash@K@3@ABU?$equal_to@K@std@@ABV?$allocator@U?$ptr_node@U?$pair@$$CBKUItem@CEterFileDict@@@std@@@detail@unordered@boost@@@6@@Z DD 0ffffffffH
	DD	FLAT:__unwindfunclet$??0?$table@U?$map@V?$allocator@U?$pair@$$CBKUItem@CEterFileDict@@@std@@@std@@KUItem@CEterFileDict@@U?$hash@K@boost@@U?$equal_to@K@2@@detail@unordered@boost@@@detail@unordered@boost@@QAE@IABU?$hash@K@3@ABU?$equal_to@K@std@@ABV?$allocator@U?$ptr_node@U?$pair@$$CBKUItem@CEterFileDict@@@std@@@detail@unordered@boost@@@6@@Z$0
__ehfuncinfo$??0?$table@U?$map@V?$allocator@U?$pair@$$CBKUItem@CEterFileDict@@@std@@@std@@KUItem@CEterFileDict@@U?$hash@K@boost@@U?$equal_to@K@2@@detail@unordered@boost@@@detail@unordered@boost@@QAE@IABU?$hash@K@3@ABU?$equal_to@K@std@@ABV?$allocator@U?$ptr_node@U?$pair@$$CBKUItem@CEterFileDict@@@std@@@detail@unordered@boost@@@6@@Z DD 019930522H
	DD	01H
	DD	FLAT:__unwindtable$??0?$table@U?$map@V?$allocator@U?$pair@$$CBKUItem@CEterFileDict@@@std@@@std@@KUItem@CEterFileDict@@U?$hash@K@boost@@U?$equal_to@K@2@@detail@unordered@boost@@@detail@unordered@boost@@QAE@IABU?$hash@K@3@ABU?$equal_to@K@std@@ABV?$allocator@U?$ptr_node@U?$pair@$$CBKUItem@CEterFileDict@@@std@@@detail@unordered@boost@@@6@@Z
	DD	2 DUP(00H)
	DD	2 DUP(00H)
	DD	00H
	DD	01H
xdata$x	ENDS
;	COMDAT xdata$x
xdata$x	SEGMENT
__unwindtable$??0?$basic_string@DU?$char_traits@D@std@@V?$allocator@D@2@@std@@QAE@QBD@Z DD 0ffffffffH
	DD	FLAT:__unwindfunclet$??0?$basic_string@DU?$char_traits@D@std@@V?$allocator@D@2@@std@@QAE@QBD@Z$0
__ehfuncinfo$??0?$basic_string@DU?$char_traits@D@std@@V?$allocator@D@2@@std@@QAE@QBD@Z DD 019930522H
	DD	01H
	DD	FLAT:__unwindtable$??0?$basic_string@DU?$char_traits@D@std@@V?$allocator@D@2@@std@@QAE@QBD@Z
	DD	2 DUP(00H)
	DD	2 DUP(00H)
	DD	00H
	DD	01H
xdata$x	ENDS
;	COMDAT xdata$x
xdata$x	SEGMENT
__unwindtable$??0?$basic_string@DU?$char_traits@D@std@@V?$allocator@D@2@@std@@QAE@ABV01@@Z DD 0ffffffffH
	DD	FLAT:__unwindfunclet$??0?$basic_string@DU?$char_traits@D@std@@V?$allocator@D@2@@std@@QAE@ABV01@@Z$0
__ehfuncinfo$??0?$basic_string@DU?$char_traits@D@std@@V?$allocator@D@2@@std@@QAE@ABV01@@Z DD 019930522H
	DD	01H
	DD	FLAT:__unwindtable$??0?$basic_string@DU?$char_traits@D@std@@V?$allocator@D@2@@std@@QAE@ABV01@@Z
	DD	2 DUP(00H)
	DD	2 DUP(00H)
	DD	00H
	DD	01H
xdata$x	ENDS
; Function compile flags: /Odspy
; File D:\Metin2 Server Files\mainline\SRC_2014\M2Data\include\boost\unordered\detail\implementation.hpp
; File C:\Program Files (x86)\Microsoft Visual Studio\2019\Community\VC\Tools\MSVC\14.28.29333\include\xmemory
; File D:\Metin2 Server Files\mainline\SRC_2014\M2Data\include\boost\unordered\detail\implementation.hpp
; File D:\Metin2 Server Files\mainline\SRC_2014\M2Data\include\boost\core\pointer_traits.hpp
; File C:\Program Files (x86)\Microsoft Visual Studio\2019\Community\VC\Tools\MSVC\14.28.29333\include\vcruntime_new.h
; File D:\Metin2 Server Files\mainline\SRC_2014\M2Data\include\boost\unordered\detail\implementation.hpp
;	COMDAT ?create_node@?$node_constructor@V?$allocator@U?$ptr_node@U?$pair@$$CBV?$basic_string@DU?$char_traits@D@std@@V?$allocator@D@2@@std@@PAVCEterPack@@@std@@@detail@unordered@boost@@@std@@@detail@unordered@boost@@QAEXXZ
_TEXT	SEGMENT
__Max_possible$1 = -40					; size = 4
___formal$ = -36					; size = 4
_this$ = -32						; size = 4
$T2 = -28						; size = 4
_v$ = -24						; size = 4
$T3 = -20						; size = 4
$T4 = -16						; size = 4
$T5 = -12						; size = 4
_this$ = -8						; size = 4
__Overflow_is_possible$6 = -1				; size = 1
?create_node@?$node_constructor@V?$allocator@U?$ptr_node@U?$pair@$$CBV?$basic_string@DU?$char_traits@D@std@@V?$allocator@D@2@@std@@PAVCEterPack@@@std@@@detail@unordered@boost@@@std@@@detail@unordered@boost@@QAEXXZ PROC ; boost::unordered::detail::node_constructor<std::allocator<boost::unordered::detail::ptr_node<std::pair<std::basic_string<char,std::char_traits<char>,std::allocator<char> > const ,CEterPack *> > > >::create_node, COMDAT
; _this$ = ecx

; 1983 :       {

  00000	55		 push	 ebp
  00001	8b ec		 mov	 ebp, esp
  00003	83 ec 28	 sub	 esp, 40			; 00000028H
  00006	57		 push	 edi
  00007	89 4d f8	 mov	 DWORD PTR _this$[ebp], ecx

; 1985 :         node_ = node_allocator_traits::allocate(alloc_, 1);

  0000a	8b 45 f8	 mov	 eax, DWORD PTR _this$[ebp]
  0000d	8b 00		 mov	 eax, DWORD PTR [eax]
  0000f	89 45 dc	 mov	 DWORD PTR ___formal$[ebp], eax
; File C:\Program Files (x86)\Microsoft Visual Studio\2019\Community\VC\Tools\MSVC\14.28.29333\include\xmemory

; 56   :     constexpr bool _Overflow_is_possible = _Ty_size > 1;

  00012	c6 45 ff 01	 mov	 BYTE PTR __Overflow_is_possible$6[ebp], 1

; 57   : 
; 58   :     if _CONSTEXPR_IF (_Overflow_is_possible) {
; 59   :         constexpr size_t _Max_possible = static_cast<size_t>(-1) / _Ty_size;

  00016	c7 45 d8 c7 71
	1c 07		 mov	 DWORD PTR __Max_possible$1[ebp], 119304647 ; 071c71c7H

; 60   :         if (_Count > _Max_possible) {

  0001d	33 c0		 xor	 eax, eax
  0001f	40		 inc	 eax
  00020	3d c7 71 1c 07	 cmp	 eax, 119304647		; 071c71c7H
  00025	76 05		 jbe	 SHORT $LN6@create_nod

; 61   :             _Throw_bad_array_new_length(); // multiply overflow

  00027	e8 00 00 00 00	 call	 ?_Throw_bad_array_new_length@std@@YAXXZ ; std::_Throw_bad_array_new_length
$LN6@create_nod:

; 62   :         }
; 63   :     }
; 64   : 
; 65   :     return _Count * _Ty_size;

  0002c	33 c0		 xor	 eax, eax
  0002e	40		 inc	 eax
  0002f	6b c0 24	 imul	 eax, eax, 36
  00032	89 45 f0	 mov	 DWORD PTR $T4[ebp], eax

; 686  :         return static_cast<pointer>(_Allocate<_New_alignof<value_type>>(_Get_size_of_n<sizeof(value_type)>(_Count)));

  00035	ff 75 f0	 push	 DWORD PTR $T4[ebp]
  00038	e8 00 00 00 00	 call	 ??$_Allocate@$07U_Default_allocate_traits@std@@$0A@@std@@YAPAXI@Z ; std::_Allocate<8,std::_Default_allocate_traits,0>
  0003d	59		 pop	 ecx
  0003e	89 45 ec	 mov	 DWORD PTR $T3[ebp], eax
; File D:\Metin2 Server Files\mainline\SRC_2014\M2Data\include\boost\unordered\detail\implementation.hpp

; 1985 :         node_ = node_allocator_traits::allocate(alloc_, 1);

  00041	8b 45 f8	 mov	 eax, DWORD PTR _this$[ebp]
  00044	8b 4d ec	 mov	 ecx, DWORD PTR $T3[ebp]
  00047	89 48 04	 mov	 DWORD PTR [eax+4], ecx

; 1986 :         new ((void*)boost::to_address(node_)) node();

  0004a	8b 45 f8	 mov	 eax, DWORD PTR _this$[ebp]
  0004d	8b 40 04	 mov	 eax, DWORD PTR [eax+4]
  00050	89 45 e8	 mov	 DWORD PTR _v$[ebp], eax
; File D:\Metin2 Server Files\mainline\SRC_2014\M2Data\include\boost\core\pointer_traits.hpp

; 186  :     return v;

  00053	8b 45 e8	 mov	 eax, DWORD PTR _v$[ebp]
  00056	89 45 e4	 mov	 DWORD PTR $T2[ebp], eax
; File C:\Program Files (x86)\Microsoft Visual Studio\2019\Community\VC\Tools\MSVC\14.28.29333\include\vcruntime_new.h

; 169  :         return _Where;

  00059	8b 45 e4	 mov	 eax, DWORD PTR $T2[ebp]
  0005c	89 45 f4	 mov	 DWORD PTR $T5[ebp], eax
; File D:\Metin2 Server Files\mainline\SRC_2014\M2Data\include\boost\unordered\detail\implementation.hpp

; 2579 :         ptr_bucket() : next_(0) {}

  0005f	8b 45 f4	 mov	 eax, DWORD PTR $T5[ebp]
  00062	83 20 00	 and	 DWORD PTR [eax], 0

; 4865 :         ptr_node() : bucket_base(), bucket_info_(0) {}

  00065	8b 45 f4	 mov	 eax, DWORD PTR $T5[ebp]
  00068	83 60 04 00	 and	 DWORD PTR [eax+4], 0
  0006c	8b 45 f4	 mov	 eax, DWORD PTR $T5[ebp]
  0006f	83 c0 08	 add	 eax, 8
  00072	89 45 e0	 mov	 DWORD PTR _this$[ebp], eax

; 754  :         value_base() : data_() {}

  00075	6a 07		 push	 7
  00077	59		 pop	 ecx
  00078	33 c0		 xor	 eax, eax
  0007a	8b 7d e0	 mov	 edi, DWORD PTR _this$[ebp]
  0007d	f3 ab		 rep stosd
$LN9@create_nod:

; 1987 :       }

  0007f	5f		 pop	 edi
  00080	c9		 leave
  00081	c3		 ret	 0
?create_node@?$node_constructor@V?$allocator@U?$ptr_node@U?$pair@$$CBV?$basic_string@DU?$char_traits@D@std@@V?$allocator@D@2@@std@@PAVCEterPack@@@std@@@detail@unordered@boost@@@std@@@detail@unordered@boost@@QAEXXZ ENDP ; boost::unordered::detail::node_constructor<std::allocator<boost::unordered::detail::ptr_node<std::pair<std::basic_string<char,std::char_traits<char>,std::allocator<char> > const ,CEterPack *> > > >::create_node
_TEXT	ENDS
; Function compile flags: /Odspy
; File D:\Metin2 Server Files\mainline\SRC_2014\M2Data\include\boost\unordered\detail\implementation.hpp
; File D:\Metin2 Server Files\mainline\SRC_2014\M2Data\include\boost\core\pointer_traits.hpp
; File D:\Metin2 Server Files\mainline\SRC_2014\M2Data\include\boost\unordered\detail\implementation.hpp
; File C:\Program Files (x86)\Microsoft Visual Studio\2019\Community\VC\Tools\MSVC\14.28.29333\include\xmemory
; File D:\Metin2 Server Files\mainline\SRC_2014\M2Data\include\boost\unordered\detail\implementation.hpp
;	COMDAT ??1?$node_constructor@V?$allocator@U?$ptr_node@U?$pair@$$CBV?$basic_string@DU?$char_traits@D@std@@V?$allocator@D@2@@std@@PAVCEterPack@@@std@@@detail@unordered@boost@@@std@@@detail@unordered@boost@@QAE@XZ
_TEXT	SEGMENT
___formal$ = -20					; size = 4
$T1 = -16						; size = 4
__Ptr$ = -12						; size = 4
_v$ = -8						; size = 4
_this$ = -4						; size = 4
??1?$node_constructor@V?$allocator@U?$ptr_node@U?$pair@$$CBV?$basic_string@DU?$char_traits@D@std@@V?$allocator@D@2@@std@@PAVCEterPack@@@std@@@detail@unordered@boost@@@std@@@detail@unordered@boost@@QAE@XZ PROC ; boost::unordered::detail::node_constructor<std::allocator<boost::unordered::detail::ptr_node<std::pair<std::basic_string<char,std::char_traits<char>,std::allocator<char> > const ,CEterPack *> > > >::~node_constructor<std::allocator<boost::unordered::detail::ptr_node<std::pair<std::basic_string<char,std::char_traits<char>,std::allocator<char> > const ,CEterPack *> > > >, COMDAT
; _this$ = ecx

; 1975 :       {

  00000	55		 push	 ebp
  00001	8b ec		 mov	 ebp, esp
  00003	83 ec 14	 sub	 esp, 20			; 00000014H
  00006	89 4d fc	 mov	 DWORD PTR _this$[ebp], ecx

; 1976 :         if (node_) {

  00009	8b 45 fc	 mov	 eax, DWORD PTR _this$[ebp]
  0000c	83 78 04 00	 cmp	 DWORD PTR [eax+4], 0
  00010	74 31		 je	 SHORT $LN3@node_const

; 1977 :           boost::unordered::detail::func::destroy(boost::to_address(node_));

  00012	8b 45 fc	 mov	 eax, DWORD PTR _this$[ebp]
  00015	8b 40 04	 mov	 eax, DWORD PTR [eax+4]
  00018	89 45 f8	 mov	 DWORD PTR _v$[ebp], eax
; File D:\Metin2 Server Files\mainline\SRC_2014\M2Data\include\boost\core\pointer_traits.hpp

; 186  :     return v;

  0001b	8b 45 f8	 mov	 eax, DWORD PTR _v$[ebp]
  0001e	89 45 f0	 mov	 DWORD PTR $T1[ebp], eax
; File D:\Metin2 Server Files\mainline\SRC_2014\M2Data\include\boost\unordered\detail\implementation.hpp

; 1978 :           node_allocator_traits::deallocate(alloc_, node_, 1);

  00021	8b 45 fc	 mov	 eax, DWORD PTR _this$[ebp]
  00024	8b 40 04	 mov	 eax, DWORD PTR [eax+4]
  00027	89 45 f4	 mov	 DWORD PTR __Ptr$[ebp], eax
  0002a	8b 45 fc	 mov	 eax, DWORD PTR _this$[ebp]
  0002d	8b 00		 mov	 eax, DWORD PTR [eax]
  0002f	89 45 ec	 mov	 DWORD PTR ___formal$[ebp], eax
; File C:\Program Files (x86)\Microsoft Visual Studio\2019\Community\VC\Tools\MSVC\14.28.29333\include\xmemory

; 696  :         _Deallocate<_New_alignof<value_type>>(_Ptr, sizeof(value_type) * _Count);

  00032	33 c0		 xor	 eax, eax
  00034	40		 inc	 eax
  00035	6b c0 24	 imul	 eax, eax, 36
  00038	50		 push	 eax
  00039	ff 75 f4	 push	 DWORD PTR __Ptr$[ebp]
  0003c	e8 00 00 00 00	 call	 ??$_Deallocate@$07$0A@@std@@YAXPAXI@Z ; std::_Deallocate<8,0>
  00041	59		 pop	 ecx
  00042	59		 pop	 ecx
$LN3@node_const:
; File D:\Metin2 Server Files\mainline\SRC_2014\M2Data\include\boost\unordered\detail\implementation.hpp

; 1980 :       }

  00043	c9		 leave
  00044	c3		 ret	 0
??1?$node_constructor@V?$allocator@U?$ptr_node@U?$pair@$$CBV?$basic_string@DU?$char_traits@D@std@@V?$allocator@D@2@@std@@PAVCEterPack@@@std@@@detail@unordered@boost@@@std@@@detail@unordered@boost@@QAE@XZ ENDP ; boost::unordered::detail::node_constructor<std::allocator<boost::unordered::detail::ptr_node<std::pair<std::basic_string<char,std::char_traits<char>,std::allocator<char> > const ,CEterPack *> > > >::~node_constructor<std::allocator<boost::unordered::detail::ptr_node<std::pair<std::basic_string<char,std::char_traits<char>,std::allocator<char> > const ,CEterPack *> > > >
_TEXT	ENDS
; Function compile flags: /Odspy
; File D:\Metin2 Server Files\mainline\SRC_2014\M2Data\include\boost\unordered\detail\implementation.hpp
; File C:\Program Files (x86)\Microsoft Visual Studio\2019\Community\VC\Tools\MSVC\14.28.29333\include\xmemory
; File D:\Metin2 Server Files\mainline\SRC_2014\M2Data\include\boost\unordered\detail\implementation.hpp
; File D:\Metin2 Server Files\mainline\SRC_2014\M2Data\include\boost\core\pointer_traits.hpp
; File C:\Program Files (x86)\Microsoft Visual Studio\2019\Community\VC\Tools\MSVC\14.28.29333\include\vcruntime_new.h
; File D:\Metin2 Server Files\mainline\SRC_2014\M2Data\include\boost\unordered\detail\implementation.hpp
;	COMDAT ?create_node@?$node_constructor@V?$allocator@U?$ptr_node@U?$pair@$$CBKUSCache@CEterPackManager@@@std@@@detail@unordered@boost@@@std@@@detail@unordered@boost@@QAEXXZ
_TEXT	SEGMENT
__Max_possible$1 = -40					; size = 4
___formal$ = -36					; size = 4
_this$ = -32						; size = 4
$T2 = -28						; size = 4
_v$ = -24						; size = 4
$T3 = -20						; size = 4
$T4 = -16						; size = 4
$T5 = -12						; size = 4
_this$ = -8						; size = 4
__Overflow_is_possible$6 = -1				; size = 1
?create_node@?$node_constructor@V?$allocator@U?$ptr_node@U?$pair@$$CBKUSCache@CEterPackManager@@@std@@@detail@unordered@boost@@@std@@@detail@unordered@boost@@QAEXXZ PROC ; boost::unordered::detail::node_constructor<std::allocator<boost::unordered::detail::ptr_node<std::pair<unsigned long const ,CEterPackManager::SCache> > > >::create_node, COMDAT
; _this$ = ecx

; 1983 :       {

  00000	55		 push	 ebp
  00001	8b ec		 mov	 ebp, esp
  00003	83 ec 28	 sub	 esp, 40			; 00000028H
  00006	57		 push	 edi
  00007	89 4d f8	 mov	 DWORD PTR _this$[ebp], ecx

; 1985 :         node_ = node_allocator_traits::allocate(alloc_, 1);

  0000a	8b 45 f8	 mov	 eax, DWORD PTR _this$[ebp]
  0000d	8b 00		 mov	 eax, DWORD PTR [eax]
  0000f	89 45 dc	 mov	 DWORD PTR ___formal$[ebp], eax
; File C:\Program Files (x86)\Microsoft Visual Studio\2019\Community\VC\Tools\MSVC\14.28.29333\include\xmemory

; 56   :     constexpr bool _Overflow_is_possible = _Ty_size > 1;

  00012	c6 45 ff 01	 mov	 BYTE PTR __Overflow_is_possible$6[ebp], 1

; 57   : 
; 58   :     if _CONSTEXPR_IF (_Overflow_is_possible) {
; 59   :         constexpr size_t _Max_possible = static_cast<size_t>(-1) / _Ty_size;

  00016	c7 45 d8 cc cc
	cc 0c		 mov	 DWORD PTR __Max_possible$1[ebp], 214748364 ; 0cccccccH

; 60   :         if (_Count > _Max_possible) {

  0001d	33 c0		 xor	 eax, eax
  0001f	40		 inc	 eax
  00020	3d cc cc cc 0c	 cmp	 eax, 214748364		; 0cccccccH
  00025	76 05		 jbe	 SHORT $LN6@create_nod

; 61   :             _Throw_bad_array_new_length(); // multiply overflow

  00027	e8 00 00 00 00	 call	 ?_Throw_bad_array_new_length@std@@YAXXZ ; std::_Throw_bad_array_new_length
$LN6@create_nod:

; 62   :         }
; 63   :     }
; 64   : 
; 65   :     return _Count * _Ty_size;

  0002c	33 c0		 xor	 eax, eax
  0002e	40		 inc	 eax
  0002f	6b c0 14	 imul	 eax, eax, 20
  00032	89 45 f0	 mov	 DWORD PTR $T4[ebp], eax

; 686  :         return static_cast<pointer>(_Allocate<_New_alignof<value_type>>(_Get_size_of_n<sizeof(value_type)>(_Count)));

  00035	ff 75 f0	 push	 DWORD PTR $T4[ebp]
  00038	e8 00 00 00 00	 call	 ??$_Allocate@$07U_Default_allocate_traits@std@@$0A@@std@@YAPAXI@Z ; std::_Allocate<8,std::_Default_allocate_traits,0>
  0003d	59		 pop	 ecx
  0003e	89 45 ec	 mov	 DWORD PTR $T3[ebp], eax
; File D:\Metin2 Server Files\mainline\SRC_2014\M2Data\include\boost\unordered\detail\implementation.hpp

; 1985 :         node_ = node_allocator_traits::allocate(alloc_, 1);

  00041	8b 45 f8	 mov	 eax, DWORD PTR _this$[ebp]
  00044	8b 4d ec	 mov	 ecx, DWORD PTR $T3[ebp]
  00047	89 48 04	 mov	 DWORD PTR [eax+4], ecx

; 1986 :         new ((void*)boost::to_address(node_)) node();

  0004a	8b 45 f8	 mov	 eax, DWORD PTR _this$[ebp]
  0004d	8b 40 04	 mov	 eax, DWORD PTR [eax+4]
  00050	89 45 e8	 mov	 DWORD PTR _v$[ebp], eax
; File D:\Metin2 Server Files\mainline\SRC_2014\M2Data\include\boost\core\pointer_traits.hpp

; 186  :     return v;

  00053	8b 45 e8	 mov	 eax, DWORD PTR _v$[ebp]
  00056	89 45 e4	 mov	 DWORD PTR $T2[ebp], eax
; File C:\Program Files (x86)\Microsoft Visual Studio\2019\Community\VC\Tools\MSVC\14.28.29333\include\vcruntime_new.h

; 169  :         return _Where;

  00059	8b 45 e4	 mov	 eax, DWORD PTR $T2[ebp]
  0005c	89 45 f4	 mov	 DWORD PTR $T5[ebp], eax
; File D:\Metin2 Server Files\mainline\SRC_2014\M2Data\include\boost\unordered\detail\implementation.hpp

; 2579 :         ptr_bucket() : next_(0) {}

  0005f	8b 45 f4	 mov	 eax, DWORD PTR $T5[ebp]
  00062	83 20 00	 and	 DWORD PTR [eax], 0

; 4865 :         ptr_node() : bucket_base(), bucket_info_(0) {}

  00065	8b 45 f4	 mov	 eax, DWORD PTR $T5[ebp]
  00068	83 60 04 00	 and	 DWORD PTR [eax+4], 0
  0006c	8b 45 f4	 mov	 eax, DWORD PTR $T5[ebp]
  0006f	83 c0 08	 add	 eax, 8
  00072	89 45 e0	 mov	 DWORD PTR _this$[ebp], eax

; 754  :         value_base() : data_() {}

  00075	33 c0		 xor	 eax, eax
  00077	8b 7d e0	 mov	 edi, DWORD PTR _this$[ebp]
  0007a	ab		 stosd
  0007b	ab		 stosd
  0007c	ab		 stosd
$LN9@create_nod:

; 1987 :       }

  0007d	5f		 pop	 edi
  0007e	c9		 leave
  0007f	c3		 ret	 0
?create_node@?$node_constructor@V?$allocator@U?$ptr_node@U?$pair@$$CBKUSCache@CEterPackManager@@@std@@@detail@unordered@boost@@@std@@@detail@unordered@boost@@QAEXXZ ENDP ; boost::unordered::detail::node_constructor<std::allocator<boost::unordered::detail::ptr_node<std::pair<unsigned long const ,CEterPackManager::SCache> > > >::create_node
_TEXT	ENDS
; Function compile flags: /Odspy
; File D:\Metin2 Server Files\mainline\SRC_2014\M2Data\include\boost\unordered\detail\implementation.hpp
; File D:\Metin2 Server Files\mainline\SRC_2014\M2Data\include\boost\core\pointer_traits.hpp
; File D:\Metin2 Server Files\mainline\SRC_2014\M2Data\include\boost\unordered\detail\implementation.hpp
; File C:\Program Files (x86)\Microsoft Visual Studio\2019\Community\VC\Tools\MSVC\14.28.29333\include\xmemory
; File D:\Metin2 Server Files\mainline\SRC_2014\M2Data\include\boost\unordered\detail\implementation.hpp
;	COMDAT ??1?$node_constructor@V?$allocator@U?$ptr_node@U?$pair@$$CBKUSCache@CEterPackManager@@@std@@@detail@unordered@boost@@@std@@@detail@unordered@boost@@QAE@XZ
_TEXT	SEGMENT
___formal$ = -20					; size = 4
$T1 = -16						; size = 4
__Ptr$ = -12						; size = 4
_v$ = -8						; size = 4
_this$ = -4						; size = 4
??1?$node_constructor@V?$allocator@U?$ptr_node@U?$pair@$$CBKUSCache@CEterPackManager@@@std@@@detail@unordered@boost@@@std@@@detail@unordered@boost@@QAE@XZ PROC ; boost::unordered::detail::node_constructor<std::allocator<boost::unordered::detail::ptr_node<std::pair<unsigned long const ,CEterPackManager::SCache> > > >::~node_constructor<std::allocator<boost::unordered::detail::ptr_node<std::pair<unsigned long const ,CEterPackManager::SCache> > > >, COMDAT
; _this$ = ecx

; 1975 :       {

  00000	55		 push	 ebp
  00001	8b ec		 mov	 ebp, esp
  00003	83 ec 14	 sub	 esp, 20			; 00000014H
  00006	89 4d fc	 mov	 DWORD PTR _this$[ebp], ecx

; 1976 :         if (node_) {

  00009	8b 45 fc	 mov	 eax, DWORD PTR _this$[ebp]
  0000c	83 78 04 00	 cmp	 DWORD PTR [eax+4], 0
  00010	74 31		 je	 SHORT $LN3@node_const

; 1977 :           boost::unordered::detail::func::destroy(boost::to_address(node_));

  00012	8b 45 fc	 mov	 eax, DWORD PTR _this$[ebp]
  00015	8b 40 04	 mov	 eax, DWORD PTR [eax+4]
  00018	89 45 f8	 mov	 DWORD PTR _v$[ebp], eax
; File D:\Metin2 Server Files\mainline\SRC_2014\M2Data\include\boost\core\pointer_traits.hpp

; 186  :     return v;

  0001b	8b 45 f8	 mov	 eax, DWORD PTR _v$[ebp]
  0001e	89 45 f0	 mov	 DWORD PTR $T1[ebp], eax
; File D:\Metin2 Server Files\mainline\SRC_2014\M2Data\include\boost\unordered\detail\implementation.hpp

; 1978 :           node_allocator_traits::deallocate(alloc_, node_, 1);

  00021	8b 45 fc	 mov	 eax, DWORD PTR _this$[ebp]
  00024	8b 40 04	 mov	 eax, DWORD PTR [eax+4]
  00027	89 45 f4	 mov	 DWORD PTR __Ptr$[ebp], eax
  0002a	8b 45 fc	 mov	 eax, DWORD PTR _this$[ebp]
  0002d	8b 00		 mov	 eax, DWORD PTR [eax]
  0002f	89 45 ec	 mov	 DWORD PTR ___formal$[ebp], eax
; File C:\Program Files (x86)\Microsoft Visual Studio\2019\Community\VC\Tools\MSVC\14.28.29333\include\xmemory

; 696  :         _Deallocate<_New_alignof<value_type>>(_Ptr, sizeof(value_type) * _Count);

  00032	33 c0		 xor	 eax, eax
  00034	40		 inc	 eax
  00035	6b c0 14	 imul	 eax, eax, 20
  00038	50		 push	 eax
  00039	ff 75 f4	 push	 DWORD PTR __Ptr$[ebp]
  0003c	e8 00 00 00 00	 call	 ??$_Deallocate@$07$0A@@std@@YAXPAXI@Z ; std::_Deallocate<8,0>
  00041	59		 pop	 ecx
  00042	59		 pop	 ecx
$LN3@node_const:
; File D:\Metin2 Server Files\mainline\SRC_2014\M2Data\include\boost\unordered\detail\implementation.hpp

; 1980 :       }

  00043	c9		 leave
  00044	c3		 ret	 0
??1?$node_constructor@V?$allocator@U?$ptr_node@U?$pair@$$CBKUSCache@CEterPackManager@@@std@@@detail@unordered@boost@@@std@@@detail@unordered@boost@@QAE@XZ ENDP ; boost::unordered::detail::node_constructor<std::allocator<boost::unordered::detail::ptr_node<std::pair<unsigned long const ,CEterPackManager::SCache> > > >::~node_constructor<std::allocator<boost::unordered::detail::ptr_node<std::pair<unsigned long const ,CEterPackManager::SCache> > > >
_TEXT	ENDS
; Function compile flags: /Odspy
; File C:\Program Files (x86)\Microsoft Visual Studio\2019\Community\VC\Tools\MSVC\14.28.29333\include\xstring
;	COMDAT ??$?8DU?$char_traits@D@std@@V?$allocator@D@1@@std@@YA_NABV?$basic_string@DU?$char_traits@D@std@@V?$allocator@D@2@@0@0@Z
_TEXT	SEGMENT
__Left$ = 8						; size = 4
__Right$ = 12						; size = 4
??$?8DU?$char_traits@D@std@@V?$allocator@D@1@@std@@YA_NABV?$basic_string@DU?$char_traits@D@std@@V?$allocator@D@2@@0@0@Z PROC ; std::operator==<char,std::char_traits<char>,std::allocator<char> >, COMDAT

; 4554 :     const basic_string<_Elem, _Traits, _Alloc>& _Left, const basic_string<_Elem, _Traits, _Alloc>& _Right) noexcept {

  00000	55		 push	 ebp
  00001	8b ec		 mov	 ebp, esp

; 4555 :     return _Left._Equal(_Right);

  00003	ff 75 0c	 push	 DWORD PTR __Right$[ebp]
  00006	8b 4d 08	 mov	 ecx, DWORD PTR __Left$[ebp]
  00009	e8 00 00 00 00	 call	 ?_Equal@?$basic_string@DU?$char_traits@D@std@@V?$allocator@D@2@@std@@QBE_NABV12@@Z ; std::basic_string<char,std::char_traits<char>,std::allocator<char> >::_Equal

; 4556 : }

  0000e	5d		 pop	 ebp
  0000f	c3		 ret	 0
??$?8DU?$char_traits@D@std@@V?$allocator@D@1@@std@@YA_NABV?$basic_string@DU?$char_traits@D@std@@V?$allocator@D@2@@0@0@Z ENDP ; std::operator==<char,std::char_traits<char>,std::allocator<char> >
_TEXT	ENDS
; Function compile flags: /Odspy
; File D:\Metin2 Server Files\mainline\SRC_2014\M2Data\include\boost\unordered\detail\implementation.hpp
; File C:\Program Files (x86)\Microsoft Visual Studio\2019\Community\VC\Tools\MSVC\14.28.29333\include\xstring
; File D:\Metin2 Server Files\mainline\SRC_2014\M2Data\include\boost\unordered\detail\implementation.hpp
; File D:\Metin2 Server Files\mainline\SRC_2014\M2Data\include\boost\core\pointer_traits.hpp
; File D:\Metin2 Server Files\mainline\SRC_2014\M2Data\include\boost\unordered\detail\implementation.hpp
; File C:\Program Files (x86)\Microsoft Visual Studio\2019\Community\VC\Tools\MSVC\14.28.29333\include\xmemory
; File D:\Metin2 Server Files\mainline\SRC_2014\M2Data\include\boost\unordered\detail\implementation.hpp
;	COMDAT ??1?$node_tmp@V?$allocator@U?$ptr_node@U?$pair@$$CBV?$basic_string@DU?$char_traits@D@std@@V?$allocator@D@2@@std@@PAVCEterPack@@@std@@@detail@unordered@boost@@@std@@@detail@unordered@boost@@QAE@XZ
_TEXT	SEGMENT
___formal$ = -28					; size = 4
$T1 = -24						; size = 4
___formal$ = -20					; size = 4
__Ptr$ = -16						; size = 4
_v$ = -12						; size = 4
__Ptr$ = -8						; size = 4
_this$ = -4						; size = 4
??1?$node_tmp@V?$allocator@U?$ptr_node@U?$pair@$$CBV?$basic_string@DU?$char_traits@D@std@@V?$allocator@D@2@@std@@PAVCEterPack@@@std@@@detail@unordered@boost@@@std@@@detail@unordered@boost@@QAE@XZ PROC ; boost::unordered::detail::node_tmp<std::allocator<boost::unordered::detail::ptr_node<std::pair<std::basic_string<char,std::char_traits<char>,std::allocator<char> > const ,CEterPack *> > > >::~node_tmp<std::allocator<boost::unordered::detail::ptr_node<std::pair<std::basic_string<char,std::char_traits<char>,std::allocator<char> > const ,CEterPack *> > > >, COMDAT
; _this$ = ecx

; 2013 :       {

  00000	55		 push	 ebp
  00001	8b ec		 mov	 ebp, esp
  00003	83 ec 1c	 sub	 esp, 28			; 0000001cH
  00006	89 4d fc	 mov	 DWORD PTR _this$[ebp], ecx

; 2014 :         if (node_) {

  00009	8b 45 fc	 mov	 eax, DWORD PTR _this$[ebp]
  0000c	83 78 04 00	 cmp	 DWORD PTR [eax+4], 0
  00010	74 60		 je	 SHORT $LN3@node_tmp

; 4869 :         value_type* value_ptr() { return value_base_.value_ptr(); }

  00012	8b 45 fc	 mov	 eax, DWORD PTR _this$[ebp]
  00015	8b 40 04	 mov	 eax, DWORD PTR [eax+4]
  00018	83 c0 08	 add	 eax, 8

; 2015 :           BOOST_UNORDERED_CALL_DESTROY(

  0001b	89 45 f8	 mov	 DWORD PTR __Ptr$[ebp], eax
  0001e	8b 45 fc	 mov	 eax, DWORD PTR _this$[ebp]
  00021	8b 00		 mov	 eax, DWORD PTR [eax]
  00023	89 45 ec	 mov	 DWORD PTR ___formal$[ebp], eax
; File C:\Program Files (x86)\Microsoft Visual Studio\2019\Community\VC\Tools\MSVC\14.28.29333\include\xstring

; 2801 :         _Tidy_deallocate();

  00026	8b 4d f8	 mov	 ecx, DWORD PTR __Ptr$[ebp]
  00029	e8 00 00 00 00	 call	 ?_Tidy_deallocate@?$basic_string@DU?$char_traits@D@std@@V?$allocator@D@2@@std@@AAEXXZ ; std::basic_string<char,std::char_traits<char>,std::allocator<char> >::_Tidy_deallocate
  0002e	33 c0		 xor	 eax, eax
  00030	83 e0 01	 and	 eax, 1
  00033	74 0c		 je	 SHORT $LN8@node_tmp
  00035	6a 1c		 push	 28			; 0000001cH
  00037	ff 75 f8	 push	 DWORD PTR __Ptr$[ebp]
  0003a	e8 00 00 00 00	 call	 ??3@YAXPAXI@Z		; operator delete
  0003f	59		 pop	 ecx
  00040	59		 pop	 ecx
$LN8@node_tmp:
; File D:\Metin2 Server Files\mainline\SRC_2014\M2Data\include\boost\unordered\detail\implementation.hpp

; 2017 :           boost::unordered::detail::func::destroy(boost::to_address(node_));

  00041	8b 45 fc	 mov	 eax, DWORD PTR _this$[ebp]
  00044	8b 40 04	 mov	 eax, DWORD PTR [eax+4]
  00047	89 45 f4	 mov	 DWORD PTR _v$[ebp], eax
; File D:\Metin2 Server Files\mainline\SRC_2014\M2Data\include\boost\core\pointer_traits.hpp

; 186  :     return v;

  0004a	8b 45 f4	 mov	 eax, DWORD PTR _v$[ebp]
  0004d	89 45 e8	 mov	 DWORD PTR $T1[ebp], eax
; File D:\Metin2 Server Files\mainline\SRC_2014\M2Data\include\boost\unordered\detail\implementation.hpp

; 2018 :           node_allocator_traits::deallocate(alloc_, node_, 1);

  00050	8b 45 fc	 mov	 eax, DWORD PTR _this$[ebp]
  00053	8b 40 04	 mov	 eax, DWORD PTR [eax+4]
  00056	89 45 f0	 mov	 DWORD PTR __Ptr$[ebp], eax
  00059	8b 45 fc	 mov	 eax, DWORD PTR _this$[ebp]
  0005c	8b 00		 mov	 eax, DWORD PTR [eax]
  0005e	89 45 e4	 mov	 DWORD PTR ___formal$[ebp], eax
; File C:\Program Files (x86)\Microsoft Visual Studio\2019\Community\VC\Tools\MSVC\14.28.29333\include\xmemory

; 696  :         _Deallocate<_New_alignof<value_type>>(_Ptr, sizeof(value_type) * _Count);

  00061	33 c0		 xor	 eax, eax
  00063	40		 inc	 eax
  00064	6b c0 24	 imul	 eax, eax, 36
  00067	50		 push	 eax
  00068	ff 75 f0	 push	 DWORD PTR __Ptr$[ebp]
  0006b	e8 00 00 00 00	 call	 ??$_Deallocate@$07$0A@@std@@YAXPAXI@Z ; std::_Deallocate<8,0>
  00070	59		 pop	 ecx
  00071	59		 pop	 ecx
$LN3@node_tmp:
; File D:\Metin2 Server Files\mainline\SRC_2014\M2Data\include\boost\unordered\detail\implementation.hpp

; 2020 :       }

  00072	c9		 leave
  00073	c3		 ret	 0
??1?$node_tmp@V?$allocator@U?$ptr_node@U?$pair@$$CBV?$basic_string@DU?$char_traits@D@std@@V?$allocator@D@2@@std@@PAVCEterPack@@@std@@@detail@unordered@boost@@@std@@@detail@unordered@boost@@QAE@XZ ENDP ; boost::unordered::detail::node_tmp<std::allocator<boost::unordered::detail::ptr_node<std::pair<std::basic_string<char,std::char_traits<char>,std::allocator<char> > const ,CEterPack *> > > >::~node_tmp<std::allocator<boost::unordered::detail::ptr_node<std::pair<std::basic_string<char,std::char_traits<char>,std::allocator<char> > const ,CEterPack *> > > >
_TEXT	ENDS
; Function compile flags: /Odspy
; File D:\Metin2 Server Files\mainline\SRC_2014\M2Data\include\boost\unordered\detail\implementation.hpp
; File D:\Metin2 Server Files\mainline\SRC_2014\M2Data\include\boost\core\pointer_traits.hpp
; File D:\Metin2 Server Files\mainline\SRC_2014\M2Data\include\boost\unordered\detail\implementation.hpp
; File C:\Program Files (x86)\Microsoft Visual Studio\2019\Community\VC\Tools\MSVC\14.28.29333\include\xmemory
; File D:\Metin2 Server Files\mainline\SRC_2014\M2Data\include\boost\unordered\detail\implementation.hpp
;	COMDAT ??1?$node_tmp@V?$allocator@U?$ptr_node@U?$pair@$$CBKUSCache@CEterPackManager@@@std@@@detail@unordered@boost@@@std@@@detail@unordered@boost@@QAE@XZ
_TEXT	SEGMENT
___formal$ = -20					; size = 4
$T1 = -16						; size = 4
__Ptr$ = -12						; size = 4
_v$ = -8						; size = 4
_this$ = -4						; size = 4
??1?$node_tmp@V?$allocator@U?$ptr_node@U?$pair@$$CBKUSCache@CEterPackManager@@@std@@@detail@unordered@boost@@@std@@@detail@unordered@boost@@QAE@XZ PROC ; boost::unordered::detail::node_tmp<std::allocator<boost::unordered::detail::ptr_node<std::pair<unsigned long const ,CEterPackManager::SCache> > > >::~node_tmp<std::allocator<boost::unordered::detail::ptr_node<std::pair<unsigned long const ,CEterPackManager::SCache> > > >, COMDAT
; _this$ = ecx

; 2013 :       {

  00000	55		 push	 ebp
  00001	8b ec		 mov	 ebp, esp
  00003	83 ec 14	 sub	 esp, 20			; 00000014H
  00006	89 4d fc	 mov	 DWORD PTR _this$[ebp], ecx

; 2014 :         if (node_) {

  00009	8b 45 fc	 mov	 eax, DWORD PTR _this$[ebp]
  0000c	83 78 04 00	 cmp	 DWORD PTR [eax+4], 0
  00010	74 31		 je	 SHORT $LN3@node_tmp

; 2015 :           BOOST_UNORDERED_CALL_DESTROY(
; 2016 :             node_allocator_traits, alloc_, node_->value_ptr());
; 2017 :           boost::unordered::detail::func::destroy(boost::to_address(node_));

  00012	8b 45 fc	 mov	 eax, DWORD PTR _this$[ebp]
  00015	8b 40 04	 mov	 eax, DWORD PTR [eax+4]
  00018	89 45 f8	 mov	 DWORD PTR _v$[ebp], eax
; File D:\Metin2 Server Files\mainline\SRC_2014\M2Data\include\boost\core\pointer_traits.hpp

; 186  :     return v;

  0001b	8b 45 f8	 mov	 eax, DWORD PTR _v$[ebp]
  0001e	89 45 f0	 mov	 DWORD PTR $T1[ebp], eax
; File D:\Metin2 Server Files\mainline\SRC_2014\M2Data\include\boost\unordered\detail\implementation.hpp

; 2018 :           node_allocator_traits::deallocate(alloc_, node_, 1);

  00021	8b 45 fc	 mov	 eax, DWORD PTR _this$[ebp]
  00024	8b 40 04	 mov	 eax, DWORD PTR [eax+4]
  00027	89 45 f4	 mov	 DWORD PTR __Ptr$[ebp], eax
  0002a	8b 45 fc	 mov	 eax, DWORD PTR _this$[ebp]
  0002d	8b 00		 mov	 eax, DWORD PTR [eax]
  0002f	89 45 ec	 mov	 DWORD PTR ___formal$[ebp], eax
; File C:\Program Files (x86)\Microsoft Visual Studio\2019\Community\VC\Tools\MSVC\14.28.29333\include\xmemory

; 696  :         _Deallocate<_New_alignof<value_type>>(_Ptr, sizeof(value_type) * _Count);

  00032	33 c0		 xor	 eax, eax
  00034	40		 inc	 eax
  00035	6b c0 14	 imul	 eax, eax, 20
  00038	50		 push	 eax
  00039	ff 75 f4	 push	 DWORD PTR __Ptr$[ebp]
  0003c	e8 00 00 00 00	 call	 ??$_Deallocate@$07$0A@@std@@YAXPAXI@Z ; std::_Deallocate<8,0>
  00041	59		 pop	 ecx
  00042	59		 pop	 ecx
$LN3@node_tmp:
; File D:\Metin2 Server Files\mainline\SRC_2014\M2Data\include\boost\unordered\detail\implementation.hpp

; 2020 :       }

  00043	c9		 leave
  00044	c3		 ret	 0
??1?$node_tmp@V?$allocator@U?$ptr_node@U?$pair@$$CBKUSCache@CEterPackManager@@@std@@@detail@unordered@boost@@@std@@@detail@unordered@boost@@QAE@XZ ENDP ; boost::unordered::detail::node_tmp<std::allocator<boost::unordered::detail::ptr_node<std::pair<unsigned long const ,CEterPackManager::SCache> > > >::~node_tmp<std::allocator<boost::unordered::detail::ptr_node<std::pair<unsigned long const ,CEterPackManager::SCache> > > >
_TEXT	ENDS
; Function compile flags: /Odspy
; File D:\Metin2 Server Files\mainline\SRC_2014\M2Data\include\boost\unordered\detail\implementation.hpp
; File D:\Metin2 Server Files\mainline\SRC_2014\M2Data\include\boost\move\utility_core.hpp
; File D:\Metin2 Server Files\mainline\SRC_2014\M2Data\include\boost\unordered\detail\implementation.hpp
; File D:\Metin2 Server Files\mainline\SRC_2014\M2Data\include\boost\move\utility_core.hpp
; File C:\Program Files (x86)\Microsoft Visual Studio\2019\Community\VC\Tools\MSVC\14.28.29333\include\vcruntime_new.h
; File C:\Program Files (x86)\Microsoft Visual Studio\2019\Community\VC\Tools\MSVC\14.28.29333\include\type_traits
; File D:\Metin2 Server Files\mainline\SRC_2014\Metin2Client\EterPack\EterPackManager.cpp
; File D:\Metin2 Server Files\mainline\SRC_2014\M2Data\include\boost\unordered\detail\implementation.hpp
;	COMDAT ??$construct_node_from_args@V?$allocator@U?$ptr_node@U?$pair@$$CBV?$basic_string@DU?$char_traits@D@std@@V?$allocator@D@2@@std@@PAVCEterPack@@@std@@@detail@unordered@boost@@@std@@U?$pair@$$CBV?$basic_string@DU?$char_traits@D@std@@V?$allocator@D@2@@std@@PAVCEterPack@@@2@@func@detail@unordered@boost@@YAPAU?$ptr_node@U?$pair@$$CBV?$basic_string@DU?$char_traits@D@std@@V?$allocator@D@2@@std@@PAVCEterPack@@@std@@@123@AAV?$allocator@U?$ptr_node@U?$pair@$$CBV?$basic_string@DU?$char_traits@D@std@@V?$allocator@D@2@@std@@PAVCEterPack@@@std@@@detail@unordered@boost@@@std@@$$QAU?$pair@$$CBV?$basic_string@DU?$char_traits@D@std@@V?$allocator@D@2@@std@@PAVCEterPack@@@6@@Z
_TEXT	SEGMENT
_a$ = -48						; size = 8
$T2 = -40						; size = 4
_p$3 = -36						; size = 4
$T4 = -32						; size = 4
_address$ = -28						; size = 4
$T5 = -24						; size = 4
$T6 = -20						; size = 4
$T7 = -16						; size = 4
__$EHRec$ = -12						; size = 12
_alloc$ = 8						; size = 4
_<args_0>$ = 12						; size = 4
??$construct_node_from_args@V?$allocator@U?$ptr_node@U?$pair@$$CBV?$basic_string@DU?$char_traits@D@std@@V?$allocator@D@2@@std@@PAVCEterPack@@@std@@@detail@unordered@boost@@@std@@U?$pair@$$CBV?$basic_string@DU?$char_traits@D@std@@V?$allocator@D@2@@std@@PAVCEterPack@@@2@@func@detail@unordered@boost@@YAPAU?$ptr_node@U?$pair@$$CBV?$basic_string@DU?$char_traits@D@std@@V?$allocator@D@2@@std@@PAVCEterPack@@@std@@@123@AAV?$allocator@U?$ptr_node@U?$pair@$$CBV?$basic_string@DU?$char_traits@D@std@@V?$allocator@D@2@@std@@PAVCEterPack@@@std@@@detail@unordered@boost@@@std@@$$QAU?$pair@$$CBV?$basic_string@DU?$char_traits@D@std@@V?$allocator@D@2@@std@@PAVCEterPack@@@6@@Z PROC ; boost::unordered::detail::func::construct_node_from_args<std::allocator<boost::unordered::detail::ptr_node<std::pair<std::basic_string<char,std::char_traits<char>,std::allocator<char> > const ,CEterPack *> > >,std::pair<std::basic_string<char,std::char_traits<char>,std::allocator<char> > const ,CEterPack *> >, COMDAT

; 2037 :         {

  00000	55		 push	 ebp
  00001	8b ec		 mov	 ebp, esp
  00003	6a ff		 push	 -1
  00005	68 00 00 00 00	 push	 __ehhandler$??$construct_node_from_args@V?$allocator@U?$ptr_node@U?$pair@$$CBV?$basic_string@DU?$char_traits@D@std@@V?$allocator@D@2@@std@@PAVCEterPack@@@std@@@detail@unordered@boost@@@std@@U?$pair@$$CBV?$basic_string@DU?$char_traits@D@std@@V?$allocator@D@2@@std@@PAVCEterPack@@@2@@func@detail@unordered@boost@@YAPAU?$ptr_node@U?$pair@$$CBV?$basic_string@DU?$char_traits@D@std@@V?$allocator@D@2@@std@@PAVCEterPack@@@std@@@123@AAV?$allocator@U?$ptr_node@U?$pair@$$CBV?$basic_string@DU?$char_traits@D@std@@V?$allocator@D@2@@std@@PAVCEterPack@@@std@@@detail@unordered@boost@@@std@@$$QAU?$pair@$$CBV?$basic_string@DU?$char_traits@D@std@@V?$allocator@D@2@@std@@PAVCEterPack@@@6@@Z
  0000a	64 a1 00 00 00
	00		 mov	 eax, DWORD PTR fs:0
  00010	50		 push	 eax
  00011	83 ec 24	 sub	 esp, 36			; 00000024H
  00014	a1 00 00 00 00	 mov	 eax, DWORD PTR ___security_cookie
  00019	33 c5		 xor	 eax, ebp
  0001b	50		 push	 eax
  0001c	8d 45 f4	 lea	 eax, DWORD PTR __$EHRec$[ebp]
  0001f	64 a3 00 00 00
	00		 mov	 DWORD PTR fs:0, eax

; 1946 :         node_constructor(node_allocator& n) : alloc_(n), node_() {}

  00025	8b 45 08	 mov	 eax, DWORD PTR _alloc$[ebp]
  00028	89 45 d0	 mov	 DWORD PTR _a$[ebp], eax
  0002b	83 65 d4 00	 and	 DWORD PTR _a$[ebp+4], 0

; 2038 :           node_constructor<Alloc> a(alloc);

  0002f	83 65 fc 00	 and	 DWORD PTR __$EHRec$[ebp+8], 0

; 2039 :           a.create_node();

  00033	8d 4d d0	 lea	 ecx, DWORD PTR _a$[ebp]
  00036	e8 00 00 00 00	 call	 ?create_node@?$node_constructor@V?$allocator@U?$ptr_node@U?$pair@$$CBV?$basic_string@DU?$char_traits@D@std@@V?$allocator@D@2@@std@@PAVCEterPack@@@std@@@detail@unordered@boost@@@std@@@detail@unordered@boost@@QAEXXZ ; boost::unordered::detail::node_constructor<std::allocator<boost::unordered::detail::ptr_node<std::pair<std::basic_string<char,std::char_traits<char>,std::allocator<char> > const ,CEterPack *> > > >::create_node
; File D:\Metin2 Server Files\mainline\SRC_2014\M2Data\include\boost\move\utility_core.hpp

; 249  :          {  return static_cast<T&&>(t);   }

  0003b	8b 45 0c	 mov	 eax, DWORD PTR _<args_0>$[ebp]
  0003e	89 45 e8	 mov	 DWORD PTR $T5[ebp], eax
; File D:\Metin2 Server Files\mainline\SRC_2014\M2Data\include\boost\unordered\detail\implementation.hpp

; 4869 :         value_type* value_ptr() { return value_base_.value_ptr(); }

  00041	8b 45 d4	 mov	 eax, DWORD PTR _a$[ebp+4]
  00044	83 c0 08	 add	 eax, 8

; 2040 :           construct_from_args(

  00047	89 45 e4	 mov	 DWORD PTR _address$[ebp], eax
; File D:\Metin2 Server Files\mainline\SRC_2014\M2Data\include\boost\move\utility_core.hpp

; 249  :          {  return static_cast<T&&>(t);   }

  0004a	8b 45 e8	 mov	 eax, DWORD PTR $T5[ebp]
  0004d	89 45 e0	 mov	 DWORD PTR $T4[ebp], eax
; File C:\Program Files (x86)\Microsoft Visual Studio\2019\Community\VC\Tools\MSVC\14.28.29333\include\vcruntime_new.h

; 169  :         return _Where;

  00050	8b 45 e4	 mov	 eax, DWORD PTR _address$[ebp]
  00053	89 45 f0	 mov	 DWORD PTR $T7[ebp], eax
; File C:\Program Files (x86)\Microsoft Visual Studio\2019\Community\VC\Tools\MSVC\14.28.29333\include\type_traits

; 1443 :     return static_cast<_Ty&&>(_Arg);

  00056	8b 45 e0	 mov	 eax, DWORD PTR $T4[ebp]
  00059	89 45 ec	 mov	 DWORD PTR $T6[ebp], eax
; File D:\Metin2 Server Files\mainline\SRC_2014\Metin2Client\EterPack\EterPackManager.cpp

  0005c	ff 75 ec	 push	 DWORD PTR $T6[ebp]
  0005f	8b 4d f0	 mov	 ecx, DWORD PTR $T7[ebp]
  00062	e8 00 00 00 00	 call	 ??0?$basic_string@DU?$char_traits@D@std@@V?$allocator@D@2@@std@@QAE@ABV01@@Z ; std::basic_string<char,std::char_traits<char>,std::allocator<char> >::basic_string<char,std::char_traits<char>,std::allocator<char> >
  00067	8b 45 f0	 mov	 eax, DWORD PTR $T7[ebp]
  0006a	8b 4d ec	 mov	 ecx, DWORD PTR $T6[ebp]
  0006d	8b 49 18	 mov	 ecx, DWORD PTR [ecx+24]
  00070	89 48 18	 mov	 DWORD PTR [eax+24], ecx
; File D:\Metin2 Server Files\mainline\SRC_2014\M2Data\include\boost\unordered\detail\implementation.hpp

; 1956 :           node_pointer p = node_;

  00073	8b 45 d4	 mov	 eax, DWORD PTR _a$[ebp+4]
  00076	89 45 dc	 mov	 DWORD PTR _p$3[ebp], eax

; 1957 :           node_ = node_pointer();

  00079	83 65 d4 00	 and	 DWORD PTR _a$[ebp+4], 0

; 2041 :             alloc, a.node_->value_ptr(), BOOST_UNORDERED_EMPLACE_FORWARD);
; 2042 :           return a.release();

  0007d	8b 45 dc	 mov	 eax, DWORD PTR _p$3[ebp]
  00080	89 45 d8	 mov	 DWORD PTR $T2[ebp], eax
  00083	83 4d fc ff	 or	 DWORD PTR __$EHRec$[ebp+8], -1
  00087	8d 4d d0	 lea	 ecx, DWORD PTR _a$[ebp]
  0008a	e8 00 00 00 00	 call	 ??1?$node_constructor@V?$allocator@U?$ptr_node@U?$pair@$$CBV?$basic_string@DU?$char_traits@D@std@@V?$allocator@D@2@@std@@PAVCEterPack@@@std@@@detail@unordered@boost@@@std@@@detail@unordered@boost@@QAE@XZ ; boost::unordered::detail::node_constructor<std::allocator<boost::unordered::detail::ptr_node<std::pair<std::basic_string<char,std::char_traits<char>,std::allocator<char> > const ,CEterPack *> > > >::~node_constructor<std::allocator<boost::unordered::detail::ptr_node<std::pair<std::basic_string<char,std::char_traits<char>,std::allocator<char> > const ,CEterPack *> > > >
  0008f	8b 45 d8	 mov	 eax, DWORD PTR $T2[ebp]

; 2043 :         }

  00092	8b 4d f4	 mov	 ecx, DWORD PTR __$EHRec$[ebp]
  00095	64 89 0d 00 00
	00 00		 mov	 DWORD PTR fs:0, ecx
  0009c	59		 pop	 ecx
  0009d	c9		 leave
  0009e	c3		 ret	 0
_TEXT	ENDS
;	COMDAT text$x
text$x	SEGMENT
__unwindfunclet$??$construct_node_from_args@V?$allocator@U?$ptr_node@U?$pair@$$CBV?$basic_string@DU?$char_traits@D@std@@V?$allocator@D@2@@std@@PAVCEterPack@@@std@@@detail@unordered@boost@@@std@@U?$pair@$$CBV?$basic_string@DU?$char_traits@D@std@@V?$allocator@D@2@@std@@PAVCEterPack@@@2@@func@detail@unordered@boost@@YAPAU?$ptr_node@U?$pair@$$CBV?$basic_string@DU?$char_traits@D@std@@V?$allocator@D@2@@std@@PAVCEterPack@@@std@@@123@AAV?$allocator@U?$ptr_node@U?$pair@$$CBV?$basic_string@DU?$char_traits@D@std@@V?$allocator@D@2@@std@@PAVCEterPack@@@std@@@detail@unordered@boost@@@std@@$$QAU?$pair@$$CBV?$basic_string@DU?$char_traits@D@std@@V?$allocator@D@2@@std@@PAVCEterPack@@@6@@Z$0:
  00000	8d 4d d0	 lea	 ecx, DWORD PTR _a$[ebp]
  00003	e9 00 00 00 00	 jmp	 ??1?$node_constructor@V?$allocator@U?$ptr_node@U?$pair@$$CBV?$basic_string@DU?$char_traits@D@std@@V?$allocator@D@2@@std@@PAVCEterPack@@@std@@@detail@unordered@boost@@@std@@@detail@unordered@boost@@QAE@XZ ; boost::unordered::detail::node_constructor<std::allocator<boost::unordered::detail::ptr_node<std::pair<std::basic_string<char,std::char_traits<char>,std::allocator<char> > const ,CEterPack *> > > >::~node_constructor<std::allocator<boost::unordered::detail::ptr_node<std::pair<std::basic_string<char,std::char_traits<char>,std::allocator<char> > const ,CEterPack *> > > >
  00008	cc		 int	 3
  00009	cc		 int	 3
  0000a	cc		 int	 3
  0000b	cc		 int	 3
  0000c	cc		 int	 3
__ehhandler$??$construct_node_from_args@V?$allocator@U?$ptr_node@U?$pair@$$CBV?$basic_string@DU?$char_traits@D@std@@V?$allocator@D@2@@std@@PAVCEterPack@@@std@@@detail@unordered@boost@@@std@@U?$pair@$$CBV?$basic_string@DU?$char_traits@D@std@@V?$allocator@D@2@@std@@PAVCEterPack@@@2@@func@detail@unordered@boost@@YAPAU?$ptr_node@U?$pair@$$CBV?$basic_string@DU?$char_traits@D@std@@V?$allocator@D@2@@std@@PAVCEterPack@@@std@@@123@AAV?$allocator@U?$ptr_node@U?$pair@$$CBV?$basic_string@DU?$char_traits@D@std@@V?$allocator@D@2@@std@@PAVCEterPack@@@std@@@detail@unordered@boost@@@std@@$$QAU?$pair@$$CBV?$basic_string@DU?$char_traits@D@std@@V?$allocator@D@2@@std@@PAVCEterPack@@@6@@Z:
  0000d	90		 npad	 1
  0000e	90		 npad	 1
  0000f	8b 54 24 08	 mov	 edx, DWORD PTR [esp+8]
  00013	8d 42 0c	 lea	 eax, DWORD PTR [edx+12]
  00016	8b 4a d8	 mov	 ecx, DWORD PTR [edx-40]
  00019	33 c8		 xor	 ecx, eax
  0001b	e8 00 00 00 00	 call	 @__security_check_cookie@4
  00020	b8 00 00 00 00	 mov	 eax, OFFSET __ehfuncinfo$??$construct_node_from_args@V?$allocator@U?$ptr_node@U?$pair@$$CBV?$basic_string@DU?$char_traits@D@std@@V?$allocator@D@2@@std@@PAVCEterPack@@@std@@@detail@unordered@boost@@@std@@U?$pair@$$CBV?$basic_string@DU?$char_traits@D@std@@V?$allocator@D@2@@std@@PAVCEterPack@@@2@@func@detail@unordered@boost@@YAPAU?$ptr_node@U?$pair@$$CBV?$basic_string@DU?$char_traits@D@std@@V?$allocator@D@2@@std@@PAVCEterPack@@@std@@@123@AAV?$allocator@U?$ptr_node@U?$pair@$$CBV?$basic_string@DU?$char_traits@D@std@@V?$allocator@D@2@@std@@PAVCEterPack@@@std@@@detail@unordered@boost@@@std@@$$QAU?$pair@$$CBV?$basic_string@DU?$char_traits@D@std@@V?$allocator@D@2@@std@@PAVCEterPack@@@6@@Z
  00025	e9 00 00 00 00	 jmp	 ___CxxFrameHandler3
text$x	ENDS
??$construct_node_from_args@V?$allocator@U?$ptr_node@U?$pair@$$CBV?$basic_string@DU?$char_traits@D@std@@V?$allocator@D@2@@std@@PAVCEterPack@@@std@@@detail@unordered@boost@@@std@@U?$pair@$$CBV?$basic_string@DU?$char_traits@D@std@@V?$allocator@D@2@@std@@PAVCEterPack@@@2@@func@detail@unordered@boost@@YAPAU?$ptr_node@U?$pair@$$CBV?$basic_string@DU?$char_traits@D@std@@V?$allocator@D@2@@std@@PAVCEterPack@@@std@@@123@AAV?$allocator@U?$ptr_node@U?$pair@$$CBV?$basic_string@DU?$char_traits@D@std@@V?$allocator@D@2@@std@@PAVCEterPack@@@std@@@detail@unordered@boost@@@std@@$$QAU?$pair@$$CBV?$basic_string@DU?$char_traits@D@std@@V?$allocator@D@2@@std@@PAVCEterPack@@@6@@Z ENDP ; boost::unordered::detail::func::construct_node_from_args<std::allocator<boost::unordered::detail::ptr_node<std::pair<std::basic_string<char,std::char_traits<char>,std::allocator<char> > const ,CEterPack *> > >,std::pair<std::basic_string<char,std::char_traits<char>,std::allocator<char> > const ,CEterPack *> >
; Function compile flags: /Odspy
; File D:\Metin2 Server Files\mainline\SRC_2014\M2Data\include\boost\unordered\detail\implementation.hpp
; File D:\Metin2 Server Files\mainline\SRC_2014\M2Data\include\boost\move\utility_core.hpp
; File D:\Metin2 Server Files\mainline\SRC_2014\M2Data\include\boost\unordered\detail\implementation.hpp
; File D:\Metin2 Server Files\mainline\SRC_2014\M2Data\include\boost\move\utility_core.hpp
; File C:\Program Files (x86)\Microsoft Visual Studio\2019\Community\VC\Tools\MSVC\14.28.29333\include\vcruntime_new.h
; File C:\Program Files (x86)\Microsoft Visual Studio\2019\Community\VC\Tools\MSVC\14.28.29333\include\type_traits
; File C:\Program Files (x86)\Microsoft Visual Studio\2019\Community\VC\Tools\MSVC\14.28.29333\include\xmemory
; File D:\Metin2 Server Files\mainline\SRC_2014\M2Data\include\boost\unordered\detail\implementation.hpp
;	COMDAT ??$construct_node_from_args@V?$allocator@U?$ptr_node@U?$pair@$$CBKUSCache@CEterPackManager@@@std@@@detail@unordered@boost@@@std@@U?$pair@$$CBKUSCache@CEterPackManager@@@2@@func@detail@unordered@boost@@YAPAU?$ptr_node@U?$pair@$$CBKUSCache@CEterPackManager@@@std@@@123@AAV?$allocator@U?$ptr_node@U?$pair@$$CBKUSCache@CEterPackManager@@@std@@@detail@unordered@boost@@@std@@$$QAU?$pair@$$CBKUSCache@CEterPackManager@@@6@@Z
_TEXT	SEGMENT
_a$ = -48						; size = 8
$T2 = -40						; size = 4
_p$3 = -36						; size = 4
$T4 = -32						; size = 4
$T5 = -28						; size = 4
$T6 = -24						; size = 4
_address$ = -20						; size = 4
$T7 = -16						; size = 4
__$EHRec$ = -12						; size = 12
_alloc$ = 8						; size = 4
_<args_0>$ = 12						; size = 4
??$construct_node_from_args@V?$allocator@U?$ptr_node@U?$pair@$$CBKUSCache@CEterPackManager@@@std@@@detail@unordered@boost@@@std@@U?$pair@$$CBKUSCache@CEterPackManager@@@2@@func@detail@unordered@boost@@YAPAU?$ptr_node@U?$pair@$$CBKUSCache@CEterPackManager@@@std@@@123@AAV?$allocator@U?$ptr_node@U?$pair@$$CBKUSCache@CEterPackManager@@@std@@@detail@unordered@boost@@@std@@$$QAU?$pair@$$CBKUSCache@CEterPackManager@@@6@@Z PROC ; boost::unordered::detail::func::construct_node_from_args<std::allocator<boost::unordered::detail::ptr_node<std::pair<unsigned long const ,CEterPackManager::SCache> > >,std::pair<unsigned long const ,CEterPackManager::SCache> >, COMDAT

; 2037 :         {

  00000	55		 push	 ebp
  00001	8b ec		 mov	 ebp, esp
  00003	6a ff		 push	 -1
  00005	68 00 00 00 00	 push	 __ehhandler$??$construct_node_from_args@V?$allocator@U?$ptr_node@U?$pair@$$CBKUSCache@CEterPackManager@@@std@@@detail@unordered@boost@@@std@@U?$pair@$$CBKUSCache@CEterPackManager@@@2@@func@detail@unordered@boost@@YAPAU?$ptr_node@U?$pair@$$CBKUSCache@CEterPackManager@@@std@@@123@AAV?$allocator@U?$ptr_node@U?$pair@$$CBKUSCache@CEterPackManager@@@std@@@detail@unordered@boost@@@std@@$$QAU?$pair@$$CBKUSCache@CEterPackManager@@@6@@Z
  0000a	64 a1 00 00 00
	00		 mov	 eax, DWORD PTR fs:0
  00010	50		 push	 eax
  00011	83 ec 24	 sub	 esp, 36			; 00000024H
  00014	56		 push	 esi
  00015	57		 push	 edi
  00016	a1 00 00 00 00	 mov	 eax, DWORD PTR ___security_cookie
  0001b	33 c5		 xor	 eax, ebp
  0001d	50		 push	 eax
  0001e	8d 45 f4	 lea	 eax, DWORD PTR __$EHRec$[ebp]
  00021	64 a3 00 00 00
	00		 mov	 DWORD PTR fs:0, eax

; 1946 :         node_constructor(node_allocator& n) : alloc_(n), node_() {}

  00027	8b 45 08	 mov	 eax, DWORD PTR _alloc$[ebp]
  0002a	89 45 d0	 mov	 DWORD PTR _a$[ebp], eax
  0002d	83 65 d4 00	 and	 DWORD PTR _a$[ebp+4], 0

; 2038 :           node_constructor<Alloc> a(alloc);

  00031	83 65 fc 00	 and	 DWORD PTR __$EHRec$[ebp+8], 0

; 2039 :           a.create_node();

  00035	8d 4d d0	 lea	 ecx, DWORD PTR _a$[ebp]
  00038	e8 00 00 00 00	 call	 ?create_node@?$node_constructor@V?$allocator@U?$ptr_node@U?$pair@$$CBKUSCache@CEterPackManager@@@std@@@detail@unordered@boost@@@std@@@detail@unordered@boost@@QAEXXZ ; boost::unordered::detail::node_constructor<std::allocator<boost::unordered::detail::ptr_node<std::pair<unsigned long const ,CEterPackManager::SCache> > > >::create_node
; File D:\Metin2 Server Files\mainline\SRC_2014\M2Data\include\boost\move\utility_core.hpp

; 249  :          {  return static_cast<T&&>(t);   }

  0003d	8b 45 0c	 mov	 eax, DWORD PTR _<args_0>$[ebp]
  00040	89 45 f0	 mov	 DWORD PTR $T7[ebp], eax
; File D:\Metin2 Server Files\mainline\SRC_2014\M2Data\include\boost\unordered\detail\implementation.hpp

; 4869 :         value_type* value_ptr() { return value_base_.value_ptr(); }

  00043	8b 45 d4	 mov	 eax, DWORD PTR _a$[ebp+4]
  00046	83 c0 08	 add	 eax, 8

; 2040 :           construct_from_args(

  00049	89 45 ec	 mov	 DWORD PTR _address$[ebp], eax
; File D:\Metin2 Server Files\mainline\SRC_2014\M2Data\include\boost\move\utility_core.hpp

; 249  :          {  return static_cast<T&&>(t);   }

  0004c	8b 45 f0	 mov	 eax, DWORD PTR $T7[ebp]
  0004f	89 45 e8	 mov	 DWORD PTR $T6[ebp], eax
; File C:\Program Files (x86)\Microsoft Visual Studio\2019\Community\VC\Tools\MSVC\14.28.29333\include\vcruntime_new.h

; 169  :         return _Where;

  00052	8b 45 ec	 mov	 eax, DWORD PTR _address$[ebp]
  00055	89 45 e0	 mov	 DWORD PTR $T4[ebp], eax
; File C:\Program Files (x86)\Microsoft Visual Studio\2019\Community\VC\Tools\MSVC\14.28.29333\include\type_traits

; 1443 :     return static_cast<_Ty&&>(_Arg);

  00058	8b 45 e8	 mov	 eax, DWORD PTR $T6[ebp]
  0005b	89 45 e4	 mov	 DWORD PTR $T5[ebp], eax
; File C:\Program Files (x86)\Microsoft Visual Studio\2019\Community\VC\Tools\MSVC\14.28.29333\include\xmemory

; 701  :         ::new (const_cast<void*>(static_cast<const volatile void*>(_Ptr))) _Objty(_STD forward<_Types>(_Args)...);

  0005e	8b 75 e4	 mov	 esi, DWORD PTR $T5[ebp]
  00061	8b 7d e0	 mov	 edi, DWORD PTR $T4[ebp]
  00064	a5		 movsd
  00065	a5		 movsd
  00066	a5		 movsd
; File D:\Metin2 Server Files\mainline\SRC_2014\M2Data\include\boost\unordered\detail\implementation.hpp

; 1956 :           node_pointer p = node_;

  00067	8b 45 d4	 mov	 eax, DWORD PTR _a$[ebp+4]
  0006a	89 45 dc	 mov	 DWORD PTR _p$3[ebp], eax

; 1957 :           node_ = node_pointer();

  0006d	83 65 d4 00	 and	 DWORD PTR _a$[ebp+4], 0

; 2041 :             alloc, a.node_->value_ptr(), BOOST_UNORDERED_EMPLACE_FORWARD);
; 2042 :           return a.release();

  00071	8b 45 dc	 mov	 eax, DWORD PTR _p$3[ebp]
  00074	89 45 d8	 mov	 DWORD PTR $T2[ebp], eax
  00077	83 4d fc ff	 or	 DWORD PTR __$EHRec$[ebp+8], -1
  0007b	8d 4d d0	 lea	 ecx, DWORD PTR _a$[ebp]
  0007e	e8 00 00 00 00	 call	 ??1?$node_constructor@V?$allocator@U?$ptr_node@U?$pair@$$CBKUSCache@CEterPackManager@@@std@@@detail@unordered@boost@@@std@@@detail@unordered@boost@@QAE@XZ ; boost::unordered::detail::node_constructor<std::allocator<boost::unordered::detail::ptr_node<std::pair<unsigned long const ,CEterPackManager::SCache> > > >::~node_constructor<std::allocator<boost::unordered::detail::ptr_node<std::pair<unsigned long const ,CEterPackManager::SCache> > > >
  00083	8b 45 d8	 mov	 eax, DWORD PTR $T2[ebp]

; 2043 :         }

  00086	8b 4d f4	 mov	 ecx, DWORD PTR __$EHRec$[ebp]
  00089	64 89 0d 00 00
	00 00		 mov	 DWORD PTR fs:0, ecx
  00090	59		 pop	 ecx
  00091	5f		 pop	 edi
  00092	5e		 pop	 esi
  00093	c9		 leave
  00094	c3		 ret	 0
_TEXT	ENDS
;	COMDAT text$x
text$x	SEGMENT
__unwindfunclet$??$construct_node_from_args@V?$allocator@U?$ptr_node@U?$pair@$$CBKUSCache@CEterPackManager@@@std@@@detail@unordered@boost@@@std@@U?$pair@$$CBKUSCache@CEterPackManager@@@2@@func@detail@unordered@boost@@YAPAU?$ptr_node@U?$pair@$$CBKUSCache@CEterPackManager@@@std@@@123@AAV?$allocator@U?$ptr_node@U?$pair@$$CBKUSCache@CEterPackManager@@@std@@@detail@unordered@boost@@@std@@$$QAU?$pair@$$CBKUSCache@CEterPackManager@@@6@@Z$0:
  00000	8d 4d d0	 lea	 ecx, DWORD PTR _a$[ebp]
  00003	e9 00 00 00 00	 jmp	 ??1?$node_constructor@V?$allocator@U?$ptr_node@U?$pair@$$CBKUSCache@CEterPackManager@@@std@@@detail@unordered@boost@@@std@@@detail@unordered@boost@@QAE@XZ ; boost::unordered::detail::node_constructor<std::allocator<boost::unordered::detail::ptr_node<std::pair<unsigned long const ,CEterPackManager::SCache> > > >::~node_constructor<std::allocator<boost::unordered::detail::ptr_node<std::pair<unsigned long const ,CEterPackManager::SCache> > > >
  00008	cc		 int	 3
  00009	cc		 int	 3
  0000a	cc		 int	 3
  0000b	cc		 int	 3
  0000c	cc		 int	 3
__ehhandler$??$construct_node_from_args@V?$allocator@U?$ptr_node@U?$pair@$$CBKUSCache@CEterPackManager@@@std@@@detail@unordered@boost@@@std@@U?$pair@$$CBKUSCache@CEterPackManager@@@2@@func@detail@unordered@boost@@YAPAU?$ptr_node@U?$pair@$$CBKUSCache@CEterPackManager@@@std@@@123@AAV?$allocator@U?$ptr_node@U?$pair@$$CBKUSCache@CEterPackManager@@@std@@@detail@unordered@boost@@@std@@$$QAU?$pair@$$CBKUSCache@CEterPackManager@@@6@@Z:
  0000d	90		 npad	 1
  0000e	90		 npad	 1
  0000f	8b 54 24 08	 mov	 edx, DWORD PTR [esp+8]
  00013	8d 42 0c	 lea	 eax, DWORD PTR [edx+12]
  00016	8b 4a d0	 mov	 ecx, DWORD PTR [edx-48]
  00019	33 c8		 xor	 ecx, eax
  0001b	e8 00 00 00 00	 call	 @__security_check_cookie@4
  00020	b8 00 00 00 00	 mov	 eax, OFFSET __ehfuncinfo$??$construct_node_from_args@V?$allocator@U?$ptr_node@U?$pair@$$CBKUSCache@CEterPackManager@@@std@@@detail@unordered@boost@@@std@@U?$pair@$$CBKUSCache@CEterPackManager@@@2@@func@detail@unordered@boost@@YAPAU?$ptr_node@U?$pair@$$CBKUSCache@CEterPackManager@@@std@@@123@AAV?$allocator@U?$ptr_node@U?$pair@$$CBKUSCache@CEterPackManager@@@std@@@detail@unordered@boost@@@std@@$$QAU?$pair@$$CBKUSCache@CEterPackManager@@@6@@Z
  00025	e9 00 00 00 00	 jmp	 ___CxxFrameHandler3
text$x	ENDS
??$construct_node_from_args@V?$allocator@U?$ptr_node@U?$pair@$$CBKUSCache@CEterPackManager@@@std@@@detail@unordered@boost@@@std@@U?$pair@$$CBKUSCache@CEterPackManager@@@2@@func@detail@unordered@boost@@YAPAU?$ptr_node@U?$pair@$$CBKUSCache@CEterPackManager@@@std@@@123@AAV?$allocator@U?$ptr_node@U?$pair@$$CBKUSCache@CEterPackManager@@@std@@@detail@unordered@boost@@@std@@$$QAU?$pair@$$CBKUSCache@CEterPackManager@@@6@@Z ENDP ; boost::unordered::detail::func::construct_node_from_args<std::allocator<boost::unordered::detail::ptr_node<std::pair<unsigned long const ,CEterPackManager::SCache> > >,std::pair<unsigned long const ,CEterPackManager::SCache> >
; Function compile flags: /Odspy
; File D:\Metin2 Server Files\mainline\SRC_2014\M2Data\include\boost\unordered\detail\implementation.hpp
; File C:\Program Files (x86)\Microsoft Visual Studio\2019\Community\VC\Tools\MSVC\14.28.29333\include\xstddef
; File D:\Metin2 Server Files\mainline\SRC_2014\M2Data\include\boost\unordered\detail\implementation.hpp
;	COMDAT ??$find_node_impl@V?$basic_string@DU?$char_traits@D@std@@V?$allocator@D@2@@std@@U?$equal_to@V?$basic_string@DU?$char_traits@D@std@@V?$allocator@D@2@@std@@@2@@?$table@U?$map@V?$allocator@U?$pair@$$CBV?$basic_string@DU?$char_traits@D@std@@V?$allocator@D@2@@std@@PAVCEterPack@@@std@@@std@@V?$basic_string@DU?$char_traits@D@std@@V?$allocator@D@2@@2@PAVCEterPack@@Ustringhash@@U?$equal_to@V?$basic_string@DU?$char_traits@D@std@@V?$allocator@D@2@@std@@@2@@detail@unordered@boost@@@detail@unordered@boost@@QBEPAU?$ptr_node@U?$pair@$$CBV?$basic_string@DU?$char_traits@D@std@@V?$allocator@D@2@@std@@PAVCEterPack@@@std@@@123@IABV?$basic_string@DU?$char_traits@D@std@@V?$allocator@D@2@@std@@ABU?$equal_to@V?$basic_string@DU?$char_traits@D@std@@V?$allocator@D@2@@std@@@6@@Z
_TEXT	SEGMENT
_bucket_index$ = -12					; size = 4
_this$ = -8						; size = 4
_n$ = -4						; size = 4
_key_hash$ = 8						; size = 4
_k$ = 12						; size = 4
_eq$ = 16						; size = 4
??$find_node_impl@V?$basic_string@DU?$char_traits@D@std@@V?$allocator@D@2@@std@@U?$equal_to@V?$basic_string@DU?$char_traits@D@std@@V?$allocator@D@2@@std@@@2@@?$table@U?$map@V?$allocator@U?$pair@$$CBV?$basic_string@DU?$char_traits@D@std@@V?$allocator@D@2@@std@@PAVCEterPack@@@std@@@std@@V?$basic_string@DU?$char_traits@D@std@@V?$allocator@D@2@@2@PAVCEterPack@@Ustringhash@@U?$equal_to@V?$basic_string@DU?$char_traits@D@std@@V?$allocator@D@2@@std@@@2@@detail@unordered@boost@@@detail@unordered@boost@@QBEPAU?$ptr_node@U?$pair@$$CBV?$basic_string@DU?$char_traits@D@std@@V?$allocator@D@2@@std@@PAVCEterPack@@@std@@@123@IABV?$basic_string@DU?$char_traits@D@std@@V?$allocator@D@2@@std@@ABU?$equal_to@V?$basic_string@DU?$char_traits@D@std@@V?$allocator@D@2@@std@@@6@@Z PROC ; boost::unordered::detail::table<boost::unordered::detail::map<std::allocator<std::pair<std::basic_string<char,std::char_traits<char>,std::allocator<char> > const ,CEterPack *> >,std::basic_string<char,std::char_traits<char>,std::allocator<char> >,CEterPack *,stringhash,std::equal_to<std::basic_string<char,std::char_traits<char>,std::allocator<char> > > > >::find_node_impl<std::basic_string<char,std::char_traits<char>,std::allocator<char> >,std::equal_to<std::basic_string<char,std::char_traits<char>,std::allocator<char> > > >, COMDAT
; _this$ = ecx

; 3587 :         {

  00000	55		 push	 ebp
  00001	8b ec		 mov	 ebp, esp
  00003	83 ec 0c	 sub	 esp, 12			; 0000000cH
  00006	89 4d f8	 mov	 DWORD PTR _this$[ebp], ecx

; 2604 :           return hash % bucket_count;

  00009	8b 4d f8	 mov	 ecx, DWORD PTR _this$[ebp]
  0000c	8b 45 08	 mov	 eax, DWORD PTR _key_hash$[ebp]
  0000f	33 d2		 xor	 edx, edx
  00011	f7 71 04	 div	 DWORD PTR [ecx+4]

; 3588 :           std::size_t bucket_index = this->hash_to_bucket(key_hash);

  00014	89 55 f4	 mov	 DWORD PTR _bucket_index$[ebp], edx

; 3589 :           node_pointer n = this->begin(bucket_index);

  00017	ff 75 f4	 push	 DWORD PTR _bucket_index$[ebp]
  0001a	8b 4d f8	 mov	 ecx, DWORD PTR _this$[ebp]
  0001d	e8 00 00 00 00	 call	 ?begin@?$table@U?$map@V?$allocator@U?$pair@$$CBV?$basic_string@DU?$char_traits@D@std@@V?$allocator@D@2@@std@@PAVCEterPack@@@std@@@std@@V?$basic_string@DU?$char_traits@D@std@@V?$allocator@D@2@@2@PAVCEterPack@@Ustringhash@@U?$equal_to@V?$basic_string@DU?$char_traits@D@std@@V?$allocator@D@2@@std@@@2@@detail@unordered@boost@@@detail@unordered@boost@@QBEPAU?$ptr_node@U?$pair@$$CBV?$basic_string@DU?$char_traits@D@std@@V?$allocator@D@2@@std@@PAVCEterPack@@@std@@@234@I@Z ; boost::unordered::detail::table<boost::unordered::detail::map<std::allocator<std::pair<std::basic_string<char,std::char_traits<char>,std::allocator<char> > const ,CEterPack *> >,std::basic_string<char,std::char_traits<char>,std::allocator<char> >,CEterPack *,stringhash,std::equal_to<std::basic_string<char,std::char_traits<char>,std::allocator<char> > > > >::begin
  00022	89 45 fc	 mov	 DWORD PTR _n$[ebp], eax
$LN4@find_node_:

; 3590 : 
; 3591 :           for (;;) {
; 3592 :             if (!n)

  00025	83 7d fc 00	 cmp	 DWORD PTR _n$[ebp], 0
  00029	75 05		 jne	 SHORT $LN33@find_node_

; 3593 :               return n;

  0002b	8b 45 fc	 mov	 eax, DWORD PTR _n$[ebp]
  0002e	eb 41		 jmp	 SHORT $LN1@find_node_
$LN33@find_node_:

; 4703 :         static key_type const& extract(value_type const& v) { return v.first; }

  00030	8b 45 fc	 mov	 eax, DWORD PTR _n$[ebp]
  00033	83 c0 08	 add	 eax, 8
; File C:\Program Files (x86)\Microsoft Visual Studio\2019\Community\VC\Tools\MSVC\14.28.29333\include\xstddef

; 91   :         return _Left == _Right;

  00036	50		 push	 eax
  00037	ff 75 0c	 push	 DWORD PTR _k$[ebp]
  0003a	e8 00 00 00 00	 call	 ??$?8DU?$char_traits@D@std@@V?$allocator@D@1@@std@@YA_NABV?$basic_string@DU?$char_traits@D@std@@V?$allocator@D@2@@0@0@Z ; std::operator==<char,std::char_traits<char>,std::allocator<char> >
  0003f	59		 pop	 ecx
  00040	59		 pop	 ecx
; File D:\Metin2 Server Files\mainline\SRC_2014\M2Data\include\boost\unordered\detail\implementation.hpp

; 3595 :             if (eq(k, this->get_key(n))) {

  00041	0f b6 c0	 movzx	 eax, al
  00044	85 c0		 test	 eax, eax
  00046	74 07		 je	 SHORT $LN35@find_node_

; 3596 :               return n;

  00048	8b 45 fc	 mov	 eax, DWORD PTR _n$[ebp]
  0004b	eb 24		 jmp	 SHORT $LN1@find_node_

; 3597 :             } else if (this->node_bucket(n) != bucket_index) {

  0004d	eb 14		 jmp	 SHORT $LN7@find_node_
$LN35@find_node_:

; 4873 :           return bucket_info_ & ((std::size_t)-1 >> 1);

  0004f	8b 45 fc	 mov	 eax, DWORD PTR _n$[ebp]
  00052	8b 40 04	 mov	 eax, DWORD PTR [eax+4]
  00055	25 ff ff ff 7f	 and	 eax, 2147483647		; 7fffffffH

; 3597 :             } else if (this->node_bucket(n) != bucket_index) {

  0005a	3b 45 f4	 cmp	 eax, DWORD PTR _bucket_index$[ebp]
  0005d	74 04		 je	 SHORT $LN7@find_node_

; 3598 :               return node_pointer();

  0005f	33 c0		 xor	 eax, eax
  00061	eb 0e		 jmp	 SHORT $LN1@find_node_
$LN7@find_node_:

; 3599 :             }
; 3600 : 
; 3601 :             n = next_for_find(n);

  00063	ff 75 fc	 push	 DWORD PTR _n$[ebp]
  00066	e8 00 00 00 00	 call	 ?next_for_find@?$table@U?$map@V?$allocator@U?$pair@$$CBV?$basic_string@DU?$char_traits@D@std@@V?$allocator@D@2@@std@@PAVCEterPack@@@std@@@std@@V?$basic_string@DU?$char_traits@D@std@@V?$allocator@D@2@@2@PAVCEterPack@@Ustringhash@@U?$equal_to@V?$basic_string@DU?$char_traits@D@std@@V?$allocator@D@2@@std@@@2@@detail@unordered@boost@@@detail@unordered@boost@@SAPAU?$ptr_node@U?$pair@$$CBV?$basic_string@DU?$char_traits@D@std@@V?$allocator@D@2@@std@@PAVCEterPack@@@std@@@234@PAUptr_bucket@234@@Z ; boost::unordered::detail::table<boost::unordered::detail::map<std::allocator<std::pair<std::basic_string<char,std::char_traits<char>,std::allocator<char> > const ,CEterPack *> >,std::basic_string<char,std::char_traits<char>,std::allocator<char> >,CEterPack *,stringhash,std::equal_to<std::basic_string<char,std::char_traits<char>,std::allocator<char> > > > >::next_for_find
  0006b	59		 pop	 ecx
  0006c	89 45 fc	 mov	 DWORD PTR _n$[ebp], eax

; 3602 :           }

  0006f	eb b4		 jmp	 SHORT $LN4@find_node_
$LN1@find_node_:

; 3603 :         }

  00071	c9		 leave
  00072	c2 0c 00	 ret	 12			; 0000000cH
??$find_node_impl@V?$basic_string@DU?$char_traits@D@std@@V?$allocator@D@2@@std@@U?$equal_to@V?$basic_string@DU?$char_traits@D@std@@V?$allocator@D@2@@std@@@2@@?$table@U?$map@V?$allocator@U?$pair@$$CBV?$basic_string@DU?$char_traits@D@std@@V?$allocator@D@2@@std@@PAVCEterPack@@@std@@@std@@V?$basic_string@DU?$char_traits@D@std@@V?$allocator@D@2@@2@PAVCEterPack@@Ustringhash@@U?$equal_to@V?$basic_string@DU?$char_traits@D@std@@V?$allocator@D@2@@std@@@2@@detail@unordered@boost@@@detail@unordered@boost@@QBEPAU?$ptr_node@U?$pair@$$CBV?$basic_string@DU?$char_traits@D@std@@V?$allocator@D@2@@std@@PAVCEterPack@@@std@@@123@IABV?$basic_string@DU?$char_traits@D@std@@V?$allocator@D@2@@std@@ABU?$equal_to@V?$basic_string@DU?$char_traits@D@std@@V?$allocator@D@2@@std@@@6@@Z ENDP ; boost::unordered::detail::table<boost::unordered::detail::map<std::allocator<std::pair<std::basic_string<char,std::char_traits<char>,std::allocator<char> > const ,CEterPack *> >,std::basic_string<char,std::char_traits<char>,std::allocator<char> >,CEterPack *,stringhash,std::equal_to<std::basic_string<char,std::char_traits<char>,std::allocator<char> > > > >::find_node_impl<std::basic_string<char,std::char_traits<char>,std::allocator<char> >,std::equal_to<std::basic_string<char,std::char_traits<char>,std::allocator<char> > > >
_TEXT	ENDS
; Function compile flags: /Odspy
; File D:\Metin2 Server Files\mainline\SRC_2014\M2Data\include\boost\unordered\detail\implementation.hpp
; File C:\Program Files (x86)\Microsoft Visual Studio\2019\Community\VC\Tools\MSVC\14.28.29333\include\xstddef
; File D:\Metin2 Server Files\mainline\SRC_2014\M2Data\include\boost\unordered\detail\implementation.hpp
;	COMDAT ??$find_node_impl@KU?$equal_to@K@std@@@?$table@U?$map@V?$allocator@U?$pair@$$CBKUSCache@CEterPackManager@@@std@@@std@@KUSCache@CEterPackManager@@U?$hash@K@boost@@U?$equal_to@K@2@@detail@unordered@boost@@@detail@unordered@boost@@QBEPAU?$ptr_node@U?$pair@$$CBKUSCache@CEterPackManager@@@std@@@123@IABKABU?$equal_to@K@std@@@Z
_TEXT	SEGMENT
_bucket_index$ = -16					; size = 4
tv73 = -12						; size = 4
_this$ = -8						; size = 4
_n$ = -4						; size = 4
_key_hash$ = 8						; size = 4
_k$ = 12						; size = 4
_eq$ = 16						; size = 4
??$find_node_impl@KU?$equal_to@K@std@@@?$table@U?$map@V?$allocator@U?$pair@$$CBKUSCache@CEterPackManager@@@std@@@std@@KUSCache@CEterPackManager@@U?$hash@K@boost@@U?$equal_to@K@2@@detail@unordered@boost@@@detail@unordered@boost@@QBEPAU?$ptr_node@U?$pair@$$CBKUSCache@CEterPackManager@@@std@@@123@IABKABU?$equal_to@K@std@@@Z PROC ; boost::unordered::detail::table<boost::unordered::detail::map<std::allocator<std::pair<unsigned long const ,CEterPackManager::SCache> >,unsigned long,CEterPackManager::SCache,boost::hash<unsigned long>,std::equal_to<unsigned long> > >::find_node_impl<unsigned long,std::equal_to<unsigned long> >, COMDAT
; _this$ = ecx

; 3587 :         {

  00000	55		 push	 ebp
  00001	8b ec		 mov	 ebp, esp
  00003	83 ec 10	 sub	 esp, 16			; 00000010H
  00006	89 4d f8	 mov	 DWORD PTR _this$[ebp], ecx

; 2604 :           return hash % bucket_count;

  00009	8b 4d f8	 mov	 ecx, DWORD PTR _this$[ebp]
  0000c	8b 45 08	 mov	 eax, DWORD PTR _key_hash$[ebp]
  0000f	33 d2		 xor	 edx, edx
  00011	f7 71 04	 div	 DWORD PTR [ecx+4]

; 3588 :           std::size_t bucket_index = this->hash_to_bucket(key_hash);

  00014	89 55 f0	 mov	 DWORD PTR _bucket_index$[ebp], edx

; 3589 :           node_pointer n = this->begin(bucket_index);

  00017	ff 75 f0	 push	 DWORD PTR _bucket_index$[ebp]
  0001a	8b 4d f8	 mov	 ecx, DWORD PTR _this$[ebp]
  0001d	e8 00 00 00 00	 call	 ?begin@?$table@U?$map@V?$allocator@U?$pair@$$CBKUSCache@CEterPackManager@@@std@@@std@@KUSCache@CEterPackManager@@U?$hash@K@boost@@U?$equal_to@K@2@@detail@unordered@boost@@@detail@unordered@boost@@QBEPAU?$ptr_node@U?$pair@$$CBKUSCache@CEterPackManager@@@std@@@234@I@Z ; boost::unordered::detail::table<boost::unordered::detail::map<std::allocator<std::pair<unsigned long const ,CEterPackManager::SCache> >,unsigned long,CEterPackManager::SCache,boost::hash<unsigned long>,std::equal_to<unsigned long> > >::begin
  00022	89 45 fc	 mov	 DWORD PTR _n$[ebp], eax
$LN4@find_node_:

; 3590 : 
; 3591 :           for (;;) {
; 3592 :             if (!n)

  00025	83 7d fc 00	 cmp	 DWORD PTR _n$[ebp], 0
  00029	75 05		 jne	 SHORT $LN25@find_node_

; 3593 :               return n;

  0002b	8b 45 fc	 mov	 eax, DWORD PTR _n$[ebp]
  0002e	eb 4b		 jmp	 SHORT $LN1@find_node_
$LN25@find_node_:
; File C:\Program Files (x86)\Microsoft Visual Studio\2019\Community\VC\Tools\MSVC\14.28.29333\include\xstddef

; 91   :         return _Left == _Right;

  00030	8b 45 0c	 mov	 eax, DWORD PTR _k$[ebp]
  00033	8b 4d fc	 mov	 ecx, DWORD PTR _n$[ebp]
  00036	8b 00		 mov	 eax, DWORD PTR [eax]
  00038	3b 41 08	 cmp	 eax, DWORD PTR [ecx+8]
  0003b	75 09		 jne	 SHORT $LN35@find_node_
  0003d	c7 45 f4 01 00
	00 00		 mov	 DWORD PTR tv73[ebp], 1
  00044	eb 04		 jmp	 SHORT $LN33@find_node_
$LN35@find_node_:
  00046	83 65 f4 00	 and	 DWORD PTR tv73[ebp], 0
$LN33@find_node_:
; File D:\Metin2 Server Files\mainline\SRC_2014\M2Data\include\boost\unordered\detail\implementation.hpp

; 3595 :             if (eq(k, this->get_key(n))) {

  0004a	0f b6 45 f4	 movzx	 eax, BYTE PTR tv73[ebp]
  0004e	85 c0		 test	 eax, eax
  00050	74 07		 je	 SHORT $LN37@find_node_

; 3596 :               return n;

  00052	8b 45 fc	 mov	 eax, DWORD PTR _n$[ebp]
  00055	eb 24		 jmp	 SHORT $LN1@find_node_

; 3597 :             } else if (this->node_bucket(n) != bucket_index) {

  00057	eb 14		 jmp	 SHORT $LN7@find_node_
$LN37@find_node_:

; 4873 :           return bucket_info_ & ((std::size_t)-1 >> 1);

  00059	8b 45 fc	 mov	 eax, DWORD PTR _n$[ebp]
  0005c	8b 40 04	 mov	 eax, DWORD PTR [eax+4]
  0005f	25 ff ff ff 7f	 and	 eax, 2147483647		; 7fffffffH

; 3597 :             } else if (this->node_bucket(n) != bucket_index) {

  00064	3b 45 f0	 cmp	 eax, DWORD PTR _bucket_index$[ebp]
  00067	74 04		 je	 SHORT $LN7@find_node_

; 3598 :               return node_pointer();

  00069	33 c0		 xor	 eax, eax
  0006b	eb 0e		 jmp	 SHORT $LN1@find_node_
$LN7@find_node_:

; 3599 :             }
; 3600 : 
; 3601 :             n = next_for_find(n);

  0006d	ff 75 fc	 push	 DWORD PTR _n$[ebp]
  00070	e8 00 00 00 00	 call	 ?next_for_find@?$table@U?$map@V?$allocator@U?$pair@$$CBKUSCache@CEterPackManager@@@std@@@std@@KUSCache@CEterPackManager@@U?$hash@K@boost@@U?$equal_to@K@2@@detail@unordered@boost@@@detail@unordered@boost@@SAPAU?$ptr_node@U?$pair@$$CBKUSCache@CEterPackManager@@@std@@@234@PAUptr_bucket@234@@Z ; boost::unordered::detail::table<boost::unordered::detail::map<std::allocator<std::pair<unsigned long const ,CEterPackManager::SCache> >,unsigned long,CEterPackManager::SCache,boost::hash<unsigned long>,std::equal_to<unsigned long> > >::next_for_find
  00075	59		 pop	 ecx
  00076	89 45 fc	 mov	 DWORD PTR _n$[ebp], eax

; 3602 :           }

  00079	eb aa		 jmp	 SHORT $LN4@find_node_
$LN1@find_node_:

; 3603 :         }

  0007b	c9		 leave
  0007c	c2 0c 00	 ret	 12			; 0000000cH
??$find_node_impl@KU?$equal_to@K@std@@@?$table@U?$map@V?$allocator@U?$pair@$$CBKUSCache@CEterPackManager@@@std@@@std@@KUSCache@CEterPackManager@@U?$hash@K@boost@@U?$equal_to@K@2@@detail@unordered@boost@@@detail@unordered@boost@@QBEPAU?$ptr_node@U?$pair@$$CBKUSCache@CEterPackManager@@@std@@@123@IABKABU?$equal_to@K@std@@@Z ENDP ; boost::unordered::detail::table<boost::unordered::detail::map<std::allocator<std::pair<unsigned long const ,CEterPackManager::SCache> >,unsigned long,CEterPackManager::SCache,boost::hash<unsigned long>,std::equal_to<unsigned long> > >::find_node_impl<unsigned long,std::equal_to<unsigned long> >
_TEXT	ENDS
; Function compile flags: /Odspy
; File C:\Program Files (x86)\Microsoft Visual Studio\2019\Community\VC\Tools\MSVC\14.28.29333\include\xmemory
; File C:\Program Files (x86)\Microsoft Visual Studio\2019\Community\VC\Tools\MSVC\14.28.29333\include\xstddef
; File C:\Program Files (x86)\Microsoft Visual Studio\2019\Community\VC\Tools\MSVC\14.28.29333\include\vcruntime_new.h
; File C:\Program Files (x86)\Microsoft Visual Studio\2019\Community\VC\Tools\MSVC\14.28.29333\include\type_traits
; File C:\Program Files (x86)\Microsoft Visual Studio\2019\Community\VC\Tools\MSVC\14.28.29333\include\xmemory
;	COMDAT ??$_Construct_in_place@PAU?$_List_node@PAVCEterPack@@PAX@std@@ABQAU12@@std@@YAXAAPAU?$_List_node@PAVCEterPack@@PAX@0@ABQAU10@@Z
_TEXT	SEGMENT
$T1 = -12						; size = 4
$T2 = -8						; size = 4
$T3 = -4						; size = 4
__Obj$ = 8						; size = 4
_<_Args_0>$ = 12					; size = 4
??$_Construct_in_place@PAU?$_List_node@PAVCEterPack@@PAX@std@@ABQAU12@@std@@YAXAAPAU?$_List_node@PAVCEterPack@@PAX@0@ABQAU10@@Z PROC ; std::_Construct_in_place<std::_List_node<CEterPack *,void *> *,std::_List_node<CEterPack *,void *> * const &>, COMDAT

; 228  : void _Construct_in_place(_Ty& _Obj, _Types&&... _Args) noexcept(is_nothrow_constructible_v<_Ty, _Types...>) {

  00000	55		 push	 ebp
  00001	8b ec		 mov	 ebp, esp
  00003	83 ec 0c	 sub	 esp, 12			; 0000000cH
; File C:\Program Files (x86)\Microsoft Visual Studio\2019\Community\VC\Tools\MSVC\14.28.29333\include\xstddef

; 275  :     return __builtin_addressof(_Val);

  00006	8b 45 08	 mov	 eax, DWORD PTR __Obj$[ebp]
  00009	89 45 fc	 mov	 DWORD PTR $T3[ebp], eax
; File C:\Program Files (x86)\Microsoft Visual Studio\2019\Community\VC\Tools\MSVC\14.28.29333\include\vcruntime_new.h

; 169  :         return _Where;

  0000c	8b 45 fc	 mov	 eax, DWORD PTR $T3[ebp]
  0000f	89 45 f8	 mov	 DWORD PTR $T2[ebp], eax
; File C:\Program Files (x86)\Microsoft Visual Studio\2019\Community\VC\Tools\MSVC\14.28.29333\include\type_traits

; 1443 :     return static_cast<_Ty&&>(_Arg);

  00012	8b 45 0c	 mov	 eax, DWORD PTR _<_Args_0>$[ebp]
  00015	89 45 f4	 mov	 DWORD PTR $T1[ebp], eax
; File C:\Program Files (x86)\Microsoft Visual Studio\2019\Community\VC\Tools\MSVC\14.28.29333\include\xmemory

; 229  :     ::new (const_cast<void*>(static_cast<const volatile void*>(_STD addressof(_Obj))))

  00018	8b 45 f8	 mov	 eax, DWORD PTR $T2[ebp]
  0001b	8b 4d f4	 mov	 ecx, DWORD PTR $T1[ebp]
  0001e	8b 09		 mov	 ecx, DWORD PTR [ecx]
  00020	89 08		 mov	 DWORD PTR [eax], ecx

; 230  :         _Ty(_STD forward<_Types>(_Args)...);
; 231  : }

  00022	c9		 leave
  00023	c3		 ret	 0
??$_Construct_in_place@PAU?$_List_node@PAVCEterPack@@PAX@std@@ABQAU12@@std@@YAXAAPAU?$_List_node@PAVCEterPack@@PAX@0@ABQAU10@@Z ENDP ; std::_Construct_in_place<std::_List_node<CEterPack *,void *> *,std::_List_node<CEterPack *,void *> * const &>
_TEXT	ENDS
; Function compile flags: /Odspy
; File C:\Program Files (x86)\Microsoft Visual Studio\2019\Community\VC\Tools\MSVC\14.28.29333\include\xmemory
;	COMDAT ??$_Allocate_manually_vector_aligned@U_Default_allocate_traits@std@@@std@@YAPAXI@Z
_TEXT	SEGMENT
__Ptr$ = -12						; size = 4
__Block_size$ = -8					; size = 4
__Ptr_container$ = -4					; size = 4
__Bytes$ = 8						; size = 4
??$_Allocate_manually_vector_aligned@U_Default_allocate_traits@std@@@std@@YAPAXI@Z PROC ; std::_Allocate_manually_vector_aligned<std::_Default_allocate_traits>, COMDAT

; 113  : __declspec(allocator) void* _Allocate_manually_vector_aligned(const size_t _Bytes) {

  00000	55		 push	 ebp
  00001	8b ec		 mov	 ebp, esp
  00003	83 ec 0c	 sub	 esp, 12			; 0000000cH

; 114  :     // allocate _Bytes manually aligned to at least _Big_allocation_alignment
; 115  :     const size_t _Block_size = _Non_user_size + _Bytes;

  00006	8b 45 08	 mov	 eax, DWORD PTR __Bytes$[ebp]
  00009	83 c0 23	 add	 eax, 35			; 00000023H
  0000c	89 45 f8	 mov	 DWORD PTR __Block_size$[ebp], eax

; 116  :     if (_Block_size <= _Bytes) {

  0000f	8b 45 f8	 mov	 eax, DWORD PTR __Block_size$[ebp]
  00012	3b 45 08	 cmp	 eax, DWORD PTR __Bytes$[ebp]
  00015	77 05		 ja	 SHORT $LN12@Allocate_m

; 117  :         _Throw_bad_array_new_length(); // add overflow

  00017	e8 00 00 00 00	 call	 ?_Throw_bad_array_new_length@std@@YAXXZ ; std::_Throw_bad_array_new_length
$LN12@Allocate_m:

; 77   :         return ::operator new(_Bytes);

  0001c	ff 75 f8	 push	 DWORD PTR __Block_size$[ebp]
  0001f	e8 00 00 00 00	 call	 ??2@YAPAXI@Z		; operator new
  00024	59		 pop	 ecx

; 118  :     }
; 119  : 
; 120  :     const uintptr_t _Ptr_container = reinterpret_cast<uintptr_t>(_Traits::_Allocate(_Block_size));

  00025	89 45 fc	 mov	 DWORD PTR __Ptr_container$[ebp], eax
$LN4@Allocate_m:

; 121  :     _STL_VERIFY(_Ptr_container != 0, "invalid argument"); // validate even in release since we're doing p[-1]

  00028	83 7d fc 00	 cmp	 DWORD PTR __Ptr_container$[ebp], 0
  0002c	74 02		 je	 SHORT $LN7@Allocate_m
  0002e	eb 09		 jmp	 SHORT $LN2@Allocate_m
$LN7@Allocate_m:
  00030	e8 00 00 00 00	 call	 __invalid_parameter_noinfo_noreturn
  00035	33 c0		 xor	 eax, eax
  00037	75 f7		 jne	 SHORT $LN7@Allocate_m
$LN2@Allocate_m:
  00039	33 c0		 xor	 eax, eax
  0003b	75 eb		 jne	 SHORT $LN4@Allocate_m

; 122  :     void* const _Ptr = reinterpret_cast<void*>((_Ptr_container + _Non_user_size) & ~(_Big_allocation_alignment - 1));

  0003d	8b 45 fc	 mov	 eax, DWORD PTR __Ptr_container$[ebp]
  00040	83 c0 23	 add	 eax, 35			; 00000023H
  00043	83 e0 e0	 and	 eax, -32		; ffffffe0H
  00046	89 45 f4	 mov	 DWORD PTR __Ptr$[ebp], eax

; 123  :     static_cast<uintptr_t*>(_Ptr)[-1] = _Ptr_container;

  00049	6a 04		 push	 4
  0004b	58		 pop	 eax
  0004c	6b c0 ff	 imul	 eax, eax, -1
  0004f	8b 4d f4	 mov	 ecx, DWORD PTR __Ptr$[ebp]
  00052	8b 55 fc	 mov	 edx, DWORD PTR __Ptr_container$[ebp]
  00055	89 14 01	 mov	 DWORD PTR [ecx+eax], edx

; 124  : 
; 125  : #ifdef _DEBUG
; 126  :     static_cast<uintptr_t*>(_Ptr)[-2] = _Big_allocation_sentinel;
; 127  : #endif // _DEBUG
; 128  :     return _Ptr;

  00058	8b 45 f4	 mov	 eax, DWORD PTR __Ptr$[ebp]
$LN11@Allocate_m:

; 129  : }

  0005b	c9		 leave
  0005c	c3		 ret	 0
??$_Allocate_manually_vector_aligned@U_Default_allocate_traits@std@@@std@@YAPAXI@Z ENDP ; std::_Allocate_manually_vector_aligned<std::_Default_allocate_traits>
_TEXT	ENDS
; Function compile flags: /Odspy
; File C:\Program Files (x86)\Microsoft Visual Studio\2019\Community\VC\Tools\MSVC\14.28.29333\include\xmemory
;	COMDAT ??$_Destroy_in_place@PAU?$_List_node@PAVCEterPack@@PAX@std@@@std@@YAXAAPAU?$_List_node@PAVCEterPack@@PAX@0@@Z
_TEXT	SEGMENT
__Obj$ = 8						; size = 4
??$_Destroy_in_place@PAU?$_List_node@PAVCEterPack@@PAX@std@@@std@@YAXAAPAU?$_List_node@PAVCEterPack@@PAX@0@@Z PROC ; std::_Destroy_in_place<std::_List_node<CEterPack *,void *> *>, COMDAT

; 270  : /* _CONSTEXPR20_DYNALLOC */ void _Destroy_in_place(_Ty& _Obj) noexcept {

  00000	55		 push	 ebp
  00001	8b ec		 mov	 ebp, esp

; 271  : #if _HAS_IF_CONSTEXPR
; 272  :     if constexpr (is_array_v<_Ty>) {
; 273  :         _Destroy_range(_Obj, _Obj + extent_v<_Ty>);
; 274  :     } else
; 275  : #endif // _HAS_IF_CONSTEXPR
; 276  :     {
; 277  :         _Obj.~_Ty();
; 278  :     }
; 279  : }

  00003	5d		 pop	 ebp
  00004	c3		 ret	 0
??$_Destroy_in_place@PAU?$_List_node@PAVCEterPack@@PAX@std@@@std@@YAXAAPAU?$_List_node@PAVCEterPack@@PAX@0@@Z ENDP ; std::_Destroy_in_place<std::_List_node<CEterPack *,void *> *>
_TEXT	ENDS
; Function compile flags: /Odspy
; File C:\Program Files (x86)\Microsoft Visual Studio\2019\Community\VC\Tools\MSVC\14.28.29333\include\list
; File C:\Program Files (x86)\Microsoft Visual Studio\2019\Community\VC\Tools\MSVC\14.28.29333\include\xmemory
; File C:\Program Files (x86)\Microsoft Visual Studio\2019\Community\VC\Tools\MSVC\14.28.29333\include\list
; File C:\Program Files (x86)\Microsoft Visual Studio\2019\Community\VC\Tools\MSVC\14.28.29333\include\type_traits
; File C:\Program Files (x86)\Microsoft Visual Studio\2019\Community\VC\Tools\MSVC\14.28.29333\include\list
; File C:\Program Files (x86)\Microsoft Visual Studio\2019\Community\VC\Tools\MSVC\14.28.29333\include\xstddef
; File C:\Program Files (x86)\Microsoft Visual Studio\2019\Community\VC\Tools\MSVC\14.28.29333\include\list
; File C:\Program Files (x86)\Microsoft Visual Studio\2019\Community\VC\Tools\MSVC\14.28.29333\include\vcruntime_new.h
; File C:\Program Files (x86)\Microsoft Visual Studio\2019\Community\VC\Tools\MSVC\14.28.29333\include\type_traits
; File C:\Program Files (x86)\Microsoft Visual Studio\2019\Community\VC\Tools\MSVC\14.28.29333\include\xmemory
; File C:\Program Files (x86)\Microsoft Visual Studio\2019\Community\VC\Tools\MSVC\14.28.29333\include\list
;	COMDAT ??$?0ABQAVCEterPack@@@?$_List_node_emplace_op2@V?$allocator@U?$_List_node@PAVCEterPack@@PAX@std@@@std@@@std@@QAE@AAV?$allocator@U?$_List_node@PAVCEterPack@@PAX@std@@@1@ABQAVCEterPack@@@Z
_TEXT	SEGMENT
___formal$ = -40					; size = 4
$T2 = -36						; size = 4
$T3 = -32						; size = 4
$T4 = -28						; size = 4
$T5 = -24						; size = 4
__Val$ = -20						; size = 4
_this$ = -16						; size = 4
__$EHRec$ = -12						; size = 12
__Al_$ = 8						; size = 4
_<_Vals_0>$ = 12					; size = 4
??$?0ABQAVCEterPack@@@?$_List_node_emplace_op2@V?$allocator@U?$_List_node@PAVCEterPack@@PAX@std@@@std@@@std@@QAE@AAV?$allocator@U?$_List_node@PAVCEterPack@@PAX@std@@@1@ABQAVCEterPack@@@Z PROC ; std::_List_node_emplace_op2<std::allocator<std::_List_node<CEterPack *,void *> > >::_List_node_emplace_op2<std::allocator<std::_List_node<CEterPack *,void *> > ><CEterPack * const &>, COMDAT
; _this$ = ecx

; 585  :     explicit _List_node_emplace_op2(_Alnode& _Al_, _Valtys&&... _Vals) : _Alloc_construct_ptr<_Alnode>(_Al_) {

  00000	55		 push	 ebp
  00001	8b ec		 mov	 ebp, esp
  00003	6a ff		 push	 -1
  00005	68 00 00 00 00	 push	 __ehhandler$??$?0ABQAVCEterPack@@@?$_List_node_emplace_op2@V?$allocator@U?$_List_node@PAVCEterPack@@PAX@std@@@std@@@std@@QAE@AAV?$allocator@U?$_List_node@PAVCEterPack@@PAX@std@@@1@ABQAVCEterPack@@@Z
  0000a	64 a1 00 00 00
	00		 mov	 eax, DWORD PTR fs:0
  00010	50		 push	 eax
  00011	83 ec 1c	 sub	 esp, 28			; 0000001cH
  00014	a1 00 00 00 00	 mov	 eax, DWORD PTR ___security_cookie
  00019	33 c5		 xor	 eax, ebp
  0001b	50		 push	 eax
  0001c	8d 45 f4	 lea	 eax, DWORD PTR __$EHRec$[ebp]
  0001f	64 a3 00 00 00
	00		 mov	 DWORD PTR fs:0, eax
  00025	89 4d f0	 mov	 DWORD PTR _this$[ebp], ecx
; File C:\Program Files (x86)\Microsoft Visual Studio\2019\Community\VC\Tools\MSVC\14.28.29333\include\xmemory

; 1045 :     explicit _Alloc_construct_ptr(_Alloc& _Al_) : _Al(_Al_), _Ptr(nullptr) {}

  00028	8b 45 f0	 mov	 eax, DWORD PTR _this$[ebp]
  0002b	8b 4d 08	 mov	 ecx, DWORD PTR __Al_$[ebp]
  0002e	89 08		 mov	 DWORD PTR [eax], ecx
  00030	8b 45 f0	 mov	 eax, DWORD PTR _this$[ebp]
  00033	83 60 04 00	 and	 DWORD PTR [eax+4], 0
; File C:\Program Files (x86)\Microsoft Visual Studio\2019\Community\VC\Tools\MSVC\14.28.29333\include\list

; 585  :     explicit _List_node_emplace_op2(_Alnode& _Al_, _Valtys&&... _Vals) : _Alloc_construct_ptr<_Alnode>(_Al_) {

  00037	83 65 fc 00	 and	 DWORD PTR __$EHRec$[ebp+8], 0

; 586  :         this->_Allocate();

  0003b	8b 4d f0	 mov	 ecx, DWORD PTR _this$[ebp]
  0003e	e8 00 00 00 00	 call	 ?_Allocate@?$_Alloc_construct_ptr@V?$allocator@U?$_List_node@PAVCEterPack@@PAX@std@@@std@@@std@@QAEXXZ ; std::_Alloc_construct_ptr<std::allocator<std::_List_node<CEterPack *,void *> > >::_Allocate
; File C:\Program Files (x86)\Microsoft Visual Studio\2019\Community\VC\Tools\MSVC\14.28.29333\include\type_traits

; 1443 :     return static_cast<_Ty&&>(_Arg);

  00043	8b 45 0c	 mov	 eax, DWORD PTR _<_Vals_0>$[ebp]
  00046	89 45 e4	 mov	 DWORD PTR $T4[ebp], eax
; File C:\Program Files (x86)\Microsoft Visual Studio\2019\Community\VC\Tools\MSVC\14.28.29333\include\list

; 587  :         _Alnode_traits::construct(this->_Al, _STD addressof(this->_Ptr->_Myval), _STD forward<_Valtys>(_Vals)...);

  00049	8b 45 f0	 mov	 eax, DWORD PTR _this$[ebp]
  0004c	8b 40 04	 mov	 eax, DWORD PTR [eax+4]
  0004f	83 c0 08	 add	 eax, 8
  00052	89 45 ec	 mov	 DWORD PTR __Val$[ebp], eax
; File C:\Program Files (x86)\Microsoft Visual Studio\2019\Community\VC\Tools\MSVC\14.28.29333\include\xstddef

; 275  :     return __builtin_addressof(_Val);

  00055	8b 45 ec	 mov	 eax, DWORD PTR __Val$[ebp]
  00058	89 45 e8	 mov	 DWORD PTR $T5[ebp], eax
; File C:\Program Files (x86)\Microsoft Visual Studio\2019\Community\VC\Tools\MSVC\14.28.29333\include\list

; 587  :         _Alnode_traits::construct(this->_Al, _STD addressof(this->_Ptr->_Myval), _STD forward<_Valtys>(_Vals)...);

  0005b	8b 45 f0	 mov	 eax, DWORD PTR _this$[ebp]
  0005e	8b 00		 mov	 eax, DWORD PTR [eax]
  00060	89 45 d8	 mov	 DWORD PTR ___formal$[ebp], eax
; File C:\Program Files (x86)\Microsoft Visual Studio\2019\Community\VC\Tools\MSVC\14.28.29333\include\vcruntime_new.h

; 169  :         return _Where;

  00063	8b 45 e8	 mov	 eax, DWORD PTR $T5[ebp]
  00066	89 45 e0	 mov	 DWORD PTR $T3[ebp], eax
; File C:\Program Files (x86)\Microsoft Visual Studio\2019\Community\VC\Tools\MSVC\14.28.29333\include\type_traits

; 1443 :     return static_cast<_Ty&&>(_Arg);

  00069	8b 45 e4	 mov	 eax, DWORD PTR $T4[ebp]
  0006c	89 45 dc	 mov	 DWORD PTR $T2[ebp], eax
; File C:\Program Files (x86)\Microsoft Visual Studio\2019\Community\VC\Tools\MSVC\14.28.29333\include\xmemory

; 701  :         ::new (const_cast<void*>(static_cast<const volatile void*>(_Ptr))) _Objty(_STD forward<_Types>(_Args)...);

  0006f	8b 45 e0	 mov	 eax, DWORD PTR $T3[ebp]
  00072	8b 4d dc	 mov	 ecx, DWORD PTR $T2[ebp]
  00075	8b 09		 mov	 ecx, DWORD PTR [ecx]
  00077	89 08		 mov	 DWORD PTR [eax], ecx
; File C:\Program Files (x86)\Microsoft Visual Studio\2019\Community\VC\Tools\MSVC\14.28.29333\include\list

; 588  :     }

  00079	83 4d fc ff	 or	 DWORD PTR __$EHRec$[ebp+8], -1
  0007d	8b 45 f0	 mov	 eax, DWORD PTR _this$[ebp]
  00080	8b 4d f4	 mov	 ecx, DWORD PTR __$EHRec$[ebp]
  00083	64 89 0d 00 00
	00 00		 mov	 DWORD PTR fs:0, ecx
  0008a	59		 pop	 ecx
  0008b	c9		 leave
  0008c	c2 08 00	 ret	 8
_TEXT	ENDS
;	COMDAT text$x
text$x	SEGMENT
__unwindfunclet$??$?0ABQAVCEterPack@@@?$_List_node_emplace_op2@V?$allocator@U?$_List_node@PAVCEterPack@@PAX@std@@@std@@@std@@QAE@AAV?$allocator@U?$_List_node@PAVCEterPack@@PAX@std@@@1@ABQAVCEterPack@@@Z$0:
  00000	8b 4d f0	 mov	 ecx, DWORD PTR _this$[ebp]
  00003	e9 00 00 00 00	 jmp	 ??1?$_Alloc_construct_ptr@V?$allocator@U?$_List_node@PAVCEterPack@@PAX@std@@@std@@@std@@QAE@XZ ; std::_Alloc_construct_ptr<std::allocator<std::_List_node<CEterPack *,void *> > >::~_Alloc_construct_ptr<std::allocator<std::_List_node<CEterPack *,void *> > >
  00008	cc		 int	 3
  00009	cc		 int	 3
  0000a	cc		 int	 3
  0000b	cc		 int	 3
  0000c	cc		 int	 3
__ehhandler$??$?0ABQAVCEterPack@@@?$_List_node_emplace_op2@V?$allocator@U?$_List_node@PAVCEterPack@@PAX@std@@@std@@@std@@QAE@AAV?$allocator@U?$_List_node@PAVCEterPack@@PAX@std@@@1@ABQAVCEterPack@@@Z:
  0000d	90		 npad	 1
  0000e	90		 npad	 1
  0000f	8b 54 24 08	 mov	 edx, DWORD PTR [esp+8]
  00013	8d 42 0c	 lea	 eax, DWORD PTR [edx+12]
  00016	8b 4a e0	 mov	 ecx, DWORD PTR [edx-32]
  00019	33 c8		 xor	 ecx, eax
  0001b	e8 00 00 00 00	 call	 @__security_check_cookie@4
  00020	b8 00 00 00 00	 mov	 eax, OFFSET __ehfuncinfo$??$?0ABQAVCEterPack@@@?$_List_node_emplace_op2@V?$allocator@U?$_List_node@PAVCEterPack@@PAX@std@@@std@@@std@@QAE@AAV?$allocator@U?$_List_node@PAVCEterPack@@PAX@std@@@1@ABQAVCEterPack@@@Z
  00025	e9 00 00 00 00	 jmp	 ___CxxFrameHandler3
text$x	ENDS
??$?0ABQAVCEterPack@@@?$_List_node_emplace_op2@V?$allocator@U?$_List_node@PAVCEterPack@@PAX@std@@@std@@@std@@QAE@AAV?$allocator@U?$_List_node@PAVCEterPack@@PAX@std@@@1@ABQAVCEterPack@@@Z ENDP ; std::_List_node_emplace_op2<std::allocator<std::_List_node<CEterPack *,void *> > >::_List_node_emplace_op2<std::allocator<std::_List_node<CEterPack *,void *> > ><CEterPack * const &>
; Function compile flags: /Odspy
; File C:\Program Files (x86)\Microsoft Visual Studio\2019\Community\VC\Tools\MSVC\14.28.29333\include\list
;	COMDAT ?_Transfer_before@?$_List_node_emplace_op2@V?$allocator@U?$_List_node@PAVCEterPack@@PAX@std@@@std@@@std@@QAEPAU?$_List_node@PAVCEterPack@@PAX@2@QAU32@@Z
_TEXT	SEGMENT
__Insert_after$ = -12					; size = 4
__Result$ = -8						; size = 4
_this$ = -4						; size = 4
__Insert_before$ = 8					; size = 4
?_Transfer_before@?$_List_node_emplace_op2@V?$allocator@U?$_List_node@PAVCEterPack@@PAX@std@@@std@@@std@@QAEPAU?$_List_node@PAVCEterPack@@PAX@2@QAU32@@Z PROC ; std::_List_node_emplace_op2<std::allocator<std::_List_node<CEterPack *,void *> > >::_Transfer_before, COMDAT
; _this$ = ecx

; 599  :     pointer _Transfer_before(const pointer _Insert_before) noexcept {

  00000	55		 push	 ebp
  00001	8b ec		 mov	 ebp, esp
  00003	83 ec 0c	 sub	 esp, 12			; 0000000cH
  00006	89 4d fc	 mov	 DWORD PTR _this$[ebp], ecx

; 600  :         const pointer _Insert_after = _Insert_before->_Prev;

  00009	8b 45 08	 mov	 eax, DWORD PTR __Insert_before$[ebp]
  0000c	8b 40 04	 mov	 eax, DWORD PTR [eax+4]
  0000f	89 45 f4	 mov	 DWORD PTR __Insert_after$[ebp], eax

; 601  :         _Construct_in_place(this->_Ptr->_Next, _Insert_before);

  00012	8d 45 08	 lea	 eax, DWORD PTR __Insert_before$[ebp]
  00015	50		 push	 eax
  00016	8b 45 fc	 mov	 eax, DWORD PTR _this$[ebp]
  00019	ff 70 04	 push	 DWORD PTR [eax+4]
  0001c	e8 00 00 00 00	 call	 ??$_Construct_in_place@PAU?$_List_node@PAVCEterPack@@PAX@std@@ABQAU12@@std@@YAXAAPAU?$_List_node@PAVCEterPack@@PAX@0@ABQAU10@@Z ; std::_Construct_in_place<std::_List_node<CEterPack *,void *> *,std::_List_node<CEterPack *,void *> * const &>
  00021	59		 pop	 ecx
  00022	59		 pop	 ecx

; 602  :         _Construct_in_place(this->_Ptr->_Prev, _Insert_after);

  00023	8d 45 f4	 lea	 eax, DWORD PTR __Insert_after$[ebp]
  00026	50		 push	 eax
  00027	8b 45 fc	 mov	 eax, DWORD PTR _this$[ebp]
  0002a	8b 40 04	 mov	 eax, DWORD PTR [eax+4]
  0002d	83 c0 04	 add	 eax, 4
  00030	50		 push	 eax
  00031	e8 00 00 00 00	 call	 ??$_Construct_in_place@PAU?$_List_node@PAVCEterPack@@PAX@std@@ABQAU12@@std@@YAXAAPAU?$_List_node@PAVCEterPack@@PAX@0@ABQAU10@@Z ; std::_Construct_in_place<std::_List_node<CEterPack *,void *> *,std::_List_node<CEterPack *,void *> * const &>
  00036	59		 pop	 ecx
  00037	59		 pop	 ecx

; 603  :         const auto _Result    = this->_Ptr;

  00038	8b 45 fc	 mov	 eax, DWORD PTR _this$[ebp]
  0003b	8b 40 04	 mov	 eax, DWORD PTR [eax+4]
  0003e	89 45 f8	 mov	 DWORD PTR __Result$[ebp], eax

; 604  :         this->_Ptr            = pointer{};

  00041	8b 45 fc	 mov	 eax, DWORD PTR _this$[ebp]
  00044	83 60 04 00	 and	 DWORD PTR [eax+4], 0

; 605  :         _Insert_before->_Prev = _Result;

  00048	8b 45 08	 mov	 eax, DWORD PTR __Insert_before$[ebp]
  0004b	8b 4d f8	 mov	 ecx, DWORD PTR __Result$[ebp]
  0004e	89 48 04	 mov	 DWORD PTR [eax+4], ecx

; 606  :         _Insert_after->_Next  = _Result;

  00051	8b 45 f4	 mov	 eax, DWORD PTR __Insert_after$[ebp]
  00054	8b 4d f8	 mov	 ecx, DWORD PTR __Result$[ebp]
  00057	89 08		 mov	 DWORD PTR [eax], ecx

; 607  :         return _Result;

  00059	8b 45 f8	 mov	 eax, DWORD PTR __Result$[ebp]

; 608  :     }

  0005c	c9		 leave
  0005d	c2 04 00	 ret	 4
?_Transfer_before@?$_List_node_emplace_op2@V?$allocator@U?$_List_node@PAVCEterPack@@PAX@std@@@std@@@std@@QAEPAU?$_List_node@PAVCEterPack@@PAX@2@QAU32@@Z ENDP ; std::_List_node_emplace_op2<std::allocator<std::_List_node<CEterPack *,void *> > >::_Transfer_before
_TEXT	ENDS
; Function compile flags: /Odspy
; File C:\Program Files (x86)\Microsoft Visual Studio\2019\Community\VC\Tools\MSVC\14.28.29333\include\list
; File C:\Program Files (x86)\Microsoft Visual Studio\2019\Community\VC\Tools\MSVC\14.28.29333\include\xstddef
; File C:\Program Files (x86)\Microsoft Visual Studio\2019\Community\VC\Tools\MSVC\14.28.29333\include\list
;	COMDAT ??1?$_List_node_emplace_op2@V?$allocator@U?$_List_node@PAVCEterPack@@PAX@std@@@std@@@std@@QAE@XZ
_TEXT	SEGMENT
$T1 = -12						; size = 4
__Val$ = -8						; size = 4
_this$ = -4						; size = 4
??1?$_List_node_emplace_op2@V?$allocator@U?$_List_node@PAVCEterPack@@PAX@std@@@std@@@std@@QAE@XZ PROC ; std::_List_node_emplace_op2<std::allocator<std::_List_node<CEterPack *,void *> > >::~_List_node_emplace_op2<std::allocator<std::_List_node<CEterPack *,void *> > >, COMDAT
; _this$ = ecx

; 590  :     ~_List_node_emplace_op2() {

  00000	55		 push	 ebp
  00001	8b ec		 mov	 ebp, esp
  00003	83 ec 0c	 sub	 esp, 12			; 0000000cH
  00006	89 4d fc	 mov	 DWORD PTR _this$[ebp], ecx

; 591  :         if (this->_Ptr != pointer{}) {

  00009	8b 45 fc	 mov	 eax, DWORD PTR _this$[ebp]
  0000c	83 78 04 00	 cmp	 DWORD PTR [eax+4], 0
  00010	74 12		 je	 SHORT $LN1@List_node_

; 592  :             _Alnode_traits::destroy(this->_Al, _STD addressof(this->_Ptr->_Myval));

  00012	8b 45 fc	 mov	 eax, DWORD PTR _this$[ebp]
  00015	8b 40 04	 mov	 eax, DWORD PTR [eax+4]
  00018	83 c0 08	 add	 eax, 8
  0001b	89 45 f8	 mov	 DWORD PTR __Val$[ebp], eax
; File C:\Program Files (x86)\Microsoft Visual Studio\2019\Community\VC\Tools\MSVC\14.28.29333\include\xstddef

; 275  :     return __builtin_addressof(_Val);

  0001e	8b 45 f8	 mov	 eax, DWORD PTR __Val$[ebp]
  00021	89 45 f4	 mov	 DWORD PTR $T1[ebp], eax
$LN1@List_node_:
; File C:\Program Files (x86)\Microsoft Visual Studio\2019\Community\VC\Tools\MSVC\14.28.29333\include\list

; 594  :     }

  00024	8b 4d fc	 mov	 ecx, DWORD PTR _this$[ebp]
  00027	e8 00 00 00 00	 call	 ??1?$_Alloc_construct_ptr@V?$allocator@U?$_List_node@PAVCEterPack@@PAX@std@@@std@@@std@@QAE@XZ ; std::_Alloc_construct_ptr<std::allocator<std::_List_node<CEterPack *,void *> > >::~_Alloc_construct_ptr<std::allocator<std::_List_node<CEterPack *,void *> > >
  0002c	c9		 leave
  0002d	c3		 ret	 0
??1?$_List_node_emplace_op2@V?$allocator@U?$_List_node@PAVCEterPack@@PAX@std@@@std@@@std@@QAE@XZ ENDP ; std::_List_node_emplace_op2<std::allocator<std::_List_node<CEterPack *,void *> > >::~_List_node_emplace_op2<std::allocator<std::_List_node<CEterPack *,void *> > >
_TEXT	ENDS
; Function compile flags: /Odspy
; File C:\Program Files (x86)\Microsoft Visual Studio\2019\Community\VC\Tools\MSVC\14.28.29333\include\xmemory
;	COMDAT ??1?$_Alloc_construct_ptr@V?$allocator@U?$_List_node@PAVCEterPack@@PAX@std@@@std@@@std@@QAE@XZ
_TEXT	SEGMENT
_this$ = -12						; size = 4
__Ptr$ = -8						; size = 4
_this$ = -4						; size = 4
??1?$_Alloc_construct_ptr@V?$allocator@U?$_List_node@PAVCEterPack@@PAX@std@@@std@@@std@@QAE@XZ PROC ; std::_Alloc_construct_ptr<std::allocator<std::_List_node<CEterPack *,void *> > >::~_Alloc_construct_ptr<std::allocator<std::_List_node<CEterPack *,void *> > >, COMDAT
; _this$ = ecx

; 1056 :     ~_Alloc_construct_ptr() { // if this instance is engaged, deallocate storage

  00000	55		 push	 ebp
  00001	8b ec		 mov	 ebp, esp
  00003	83 ec 0c	 sub	 esp, 12			; 0000000cH
  00006	89 4d fc	 mov	 DWORD PTR _this$[ebp], ecx

; 1057 :         if (_Ptr) {

  00009	8b 45 fc	 mov	 eax, DWORD PTR _this$[ebp]
  0000c	83 78 04 00	 cmp	 DWORD PTR [eax+4], 0
  00010	74 22		 je	 SHORT $LN3@Alloc_cons

; 1058 :             _Al.deallocate(_Ptr, 1);

  00012	8b 45 fc	 mov	 eax, DWORD PTR _this$[ebp]
  00015	8b 40 04	 mov	 eax, DWORD PTR [eax+4]
  00018	89 45 f8	 mov	 DWORD PTR __Ptr$[ebp], eax
  0001b	8b 45 fc	 mov	 eax, DWORD PTR _this$[ebp]
  0001e	8b 00		 mov	 eax, DWORD PTR [eax]
  00020	89 45 f4	 mov	 DWORD PTR _this$[ebp], eax

; 810  :         _Deallocate<_New_alignof<_Ty>>(_Ptr, sizeof(_Ty) * _Count);

  00023	33 c0		 xor	 eax, eax
  00025	40		 inc	 eax
  00026	6b c0 0c	 imul	 eax, eax, 12
  00029	50		 push	 eax
  0002a	ff 75 f8	 push	 DWORD PTR __Ptr$[ebp]
  0002d	e8 00 00 00 00	 call	 ??$_Deallocate@$07$0A@@std@@YAXPAXI@Z ; std::_Deallocate<8,0>
  00032	59		 pop	 ecx
  00033	59		 pop	 ecx
$LN3@Alloc_cons:

; 1059 :         }
; 1060 :     }

  00034	c9		 leave
  00035	c3		 ret	 0
??1?$_Alloc_construct_ptr@V?$allocator@U?$_List_node@PAVCEterPack@@PAX@std@@@std@@@std@@QAE@XZ ENDP ; std::_Alloc_construct_ptr<std::allocator<std::_List_node<CEterPack *,void *> > >::~_Alloc_construct_ptr<std::allocator<std::_List_node<CEterPack *,void *> > >
_TEXT	ENDS
; Function compile flags: /Odspy
; File C:\Program Files (x86)\Microsoft Visual Studio\2019\Community\VC\Tools\MSVC\14.28.29333\include\xmemory
;	COMDAT ?_Allocate@?$_Alloc_construct_ptr@V?$allocator@U?$_List_node@PAVCEterPack@@PAX@std@@@std@@@std@@QAEXXZ
_TEXT	SEGMENT
__Max_possible$1 = -24					; size = 4
_this$ = -20						; size = 4
$T2 = -16						; size = 4
$T3 = -12						; size = 4
_this$ = -8						; size = 4
__Overflow_is_possible$4 = -1				; size = 1
?_Allocate@?$_Alloc_construct_ptr@V?$allocator@U?$_List_node@PAVCEterPack@@PAX@std@@@std@@@std@@QAEXXZ PROC ; std::_Alloc_construct_ptr<std::allocator<std::_List_node<CEterPack *,void *> > >::_Allocate, COMDAT
; _this$ = ecx

; 1051 :     void _Allocate() { // disengage *this, then allocate a new memory block

  00000	55		 push	 ebp
  00001	8b ec		 mov	 ebp, esp
  00003	83 ec 18	 sub	 esp, 24			; 00000018H
  00006	89 4d f8	 mov	 DWORD PTR _this$[ebp], ecx

; 1052 :         _Ptr = nullptr; // if allocate throws, prevents double-free

  00009	8b 45 f8	 mov	 eax, DWORD PTR _this$[ebp]
  0000c	83 60 04 00	 and	 DWORD PTR [eax+4], 0

; 1053 :         _Ptr = _Al.allocate(1);

  00010	8b 45 f8	 mov	 eax, DWORD PTR _this$[ebp]
  00013	8b 00		 mov	 eax, DWORD PTR [eax]
  00015	89 45 ec	 mov	 DWORD PTR _this$[ebp], eax

; 56   :     constexpr bool _Overflow_is_possible = _Ty_size > 1;

  00018	c6 45 ff 01	 mov	 BYTE PTR __Overflow_is_possible$4[ebp], 1

; 57   : 
; 58   :     if _CONSTEXPR_IF (_Overflow_is_possible) {
; 59   :         constexpr size_t _Max_possible = static_cast<size_t>(-1) / _Ty_size;

  0001c	c7 45 e8 55 55
	55 15		 mov	 DWORD PTR __Max_possible$1[ebp], 357913941 ; 15555555H

; 60   :         if (_Count > _Max_possible) {

  00023	33 c0		 xor	 eax, eax
  00025	40		 inc	 eax
  00026	3d 55 55 55 15	 cmp	 eax, 357913941		; 15555555H
  0002b	76 05		 jbe	 SHORT $LN6@Allocate

; 61   :             _Throw_bad_array_new_length(); // multiply overflow

  0002d	e8 00 00 00 00	 call	 ?_Throw_bad_array_new_length@std@@YAXXZ ; std::_Throw_bad_array_new_length
$LN6@Allocate:

; 62   :         }
; 63   :     }
; 64   : 
; 65   :     return _Count * _Ty_size;

  00032	33 c0		 xor	 eax, eax
  00034	40		 inc	 eax
  00035	6b c0 0c	 imul	 eax, eax, 12
  00038	89 45 f4	 mov	 DWORD PTR $T3[ebp], eax

; 814  :         return static_cast<_Ty*>(_Allocate<_New_alignof<_Ty>>(_Get_size_of_n<sizeof(_Ty)>(_Count)));

  0003b	ff 75 f4	 push	 DWORD PTR $T3[ebp]
  0003e	e8 00 00 00 00	 call	 ??$_Allocate@$07U_Default_allocate_traits@std@@$0A@@std@@YAPAXI@Z ; std::_Allocate<8,std::_Default_allocate_traits,0>
  00043	59		 pop	 ecx
  00044	89 45 f0	 mov	 DWORD PTR $T2[ebp], eax

; 1053 :         _Ptr = _Al.allocate(1);

  00047	8b 45 f8	 mov	 eax, DWORD PTR _this$[ebp]
  0004a	8b 4d f0	 mov	 ecx, DWORD PTR $T2[ebp]
  0004d	89 48 04	 mov	 DWORD PTR [eax+4], ecx
$LN9@Allocate:

; 1054 :     }

  00050	c9		 leave
  00051	c3		 ret	 0
?_Allocate@?$_Alloc_construct_ptr@V?$allocator@U?$_List_node@PAVCEterPack@@PAX@std@@@std@@@std@@QAEXXZ ENDP ; std::_Alloc_construct_ptr<std::allocator<std::_List_node<CEterPack *,void *> > >::_Allocate
_TEXT	ENDS
; Function compile flags: /Odspy
; File D:\Metin2 Server Files\mainline\SRC_2014\M2Data\include\boost\unordered\detail\implementation.hpp
; File D:\Metin2 Server Files\mainline\SRC_2014\Metin2Client\eterBase\Stl.h
; File D:\Metin2 Server Files\mainline\SRC_2014\M2Data\include\boost\unordered\detail\implementation.hpp
; File C:\Program Files (x86)\Microsoft Visual Studio\2019\Community\VC\Tools\MSVC\14.28.29333\include\type_traits
; File C:\Program Files (x86)\Microsoft Visual Studio\2019\Community\VC\Tools\MSVC\14.28.29333\include\utility
; File C:\Program Files (x86)\Microsoft Visual Studio\2019\Community\VC\Tools\MSVC\14.28.29333\include\type_traits
; File C:\Program Files (x86)\Microsoft Visual Studio\2019\Community\VC\Tools\MSVC\14.28.29333\include\utility
; File D:\Metin2 Server Files\mainline\SRC_2014\M2Data\include\boost\unordered\detail\implementation.hpp
; File D:\Metin2 Server Files\mainline\SRC_2014\M2Data\include\boost\move\utility_core.hpp
; File D:\Metin2 Server Files\mainline\SRC_2014\M2Data\include\boost\unordered\detail\implementation.hpp
; File C:\Program Files (x86)\Microsoft Visual Studio\2019\Community\VC\Tools\MSVC\14.28.29333\include\type_traits
; File C:\Program Files (x86)\Microsoft Visual Studio\2019\Community\VC\Tools\MSVC\14.28.29333\include\utility
; File C:\Program Files (x86)\Microsoft Visual Studio\2019\Community\VC\Tools\MSVC\14.28.29333\include\type_traits
; File C:\Program Files (x86)\Microsoft Visual Studio\2019\Community\VC\Tools\MSVC\14.28.29333\include\utility
; File D:\Metin2 Server Files\mainline\SRC_2014\M2Data\include\boost\unordered\detail\implementation.hpp
;	COMDAT ??$emplace_unique@U?$pair@$$CBV?$basic_string@DU?$char_traits@D@std@@V?$allocator@D@2@@std@@PAVCEterPack@@@std@@@?$table@U?$map@V?$allocator@U?$pair@$$CBV?$basic_string@DU?$char_traits@D@std@@V?$allocator@D@2@@std@@PAVCEterPack@@@std@@@std@@V?$basic_string@DU?$char_traits@D@std@@V?$allocator@D@2@@2@PAVCEterPack@@Ustringhash@@U?$equal_to@V?$basic_string@DU?$char_traits@D@std@@V?$allocator@D@2@@std@@@2@@detail@unordered@boost@@@detail@unordered@boost@@QAE?AU?$pair@U?$iterator@U?$ptr_node@U?$pair@$$CBV?$basic_string@DU?$char_traits@D@std@@V?$allocator@D@2@@std@@PAVCEterPack@@@std@@@detail@unordered@boost@@@iterator_detail@unordered@boost@@_N@std@@ABV?$basic_string@DU?$char_traits@D@std@@V?$allocator@D@2@@5@$$QAU?$pair@$$CBV?$basic_string@DU?$char_traits@D@std@@V?$allocator@D@2@@std@@PAVCEterPack@@@5@@Z
_TEXT	SEGMENT
$T1 = -60						; size = 4
$T2 = -56						; size = 4
$T3 = -52						; size = 4
_x$ = -48						; size = 4
$T4 = -44						; size = 4
$T5 = -40						; size = 4
$T6 = -36						; size = 4
$T7 = -32						; size = 4
$T8 = -28						; size = 4
$T9 = -24						; size = 4
_key_hash$ = -20					; size = 4
_this$ = -16						; size = 4
_pos$ = -12						; size = 4
_this$ = -8						; size = 4
$T10 = -2						; size = 1
$T11 = -1						; size = 1
___$ReturnUdt$ = 8					; size = 4
_k$ = 12						; size = 4
_<args_0>$ = 16						; size = 4
??$emplace_unique@U?$pair@$$CBV?$basic_string@DU?$char_traits@D@std@@V?$allocator@D@2@@std@@PAVCEterPack@@@std@@@?$table@U?$map@V?$allocator@U?$pair@$$CBV?$basic_string@DU?$char_traits@D@std@@V?$allocator@D@2@@std@@PAVCEterPack@@@std@@@std@@V?$basic_string@DU?$char_traits@D@std@@V?$allocator@D@2@@2@PAVCEterPack@@Ustringhash@@U?$equal_to@V?$basic_string@DU?$char_traits@D@std@@V?$allocator@D@2@@std@@@2@@detail@unordered@boost@@@detail@unordered@boost@@QAE?AU?$pair@U?$iterator@U?$ptr_node@U?$pair@$$CBV?$basic_string@DU?$char_traits@D@std@@V?$allocator@D@2@@std@@PAVCEterPack@@@std@@@detail@unordered@boost@@@iterator_detail@unordered@boost@@_N@std@@ABV?$basic_string@DU?$char_traits@D@std@@V?$allocator@D@2@@5@$$QAU?$pair@$$CBV?$basic_string@DU?$char_traits@D@std@@V?$allocator@D@2@@std@@PAVCEterPack@@@5@@Z PROC ; boost::unordered::detail::table<boost::unordered::detail::map<std::allocator<std::pair<std::basic_string<char,std::char_traits<char>,std::allocator<char> > const ,CEterPack *> >,std::basic_string<char,std::char_traits<char>,std::allocator<char> >,CEterPack *,stringhash,std::equal_to<std::basic_string<char,std::char_traits<char>,std::allocator<char> > > > >::emplace_unique<std::pair<std::basic_string<char,std::char_traits<char>,std::allocator<char> > const ,CEterPack *> >, COMDAT
; _this$ = ecx

; 3735 :         {

  00000	55		 push	 ebp
  00001	8b ec		 mov	 ebp, esp
  00003	83 ec 3c	 sub	 esp, 60			; 0000003cH
  00006	89 4d f8	 mov	 DWORD PTR _this$[ebp], ecx

; 2791 :           return *static_cast<function_pair const*>(

  00009	8b 45 f8	 mov	 eax, DWORD PTR _this$[ebp]
  0000c	0f b6 00	 movzx	 eax, BYTE PTR [eax]
  0000f	83 e0 01	 and	 eax, 1
  00012	8b 4d f8	 mov	 ecx, DWORD PTR _this$[ebp]
  00015	8d 44 01 01	 lea	 eax, DWORD PTR [ecx+eax+1]
  00019	89 45 e4	 mov	 DWORD PTR $T8[ebp], eax
; File D:\Metin2 Server Files\mainline\SRC_2014\Metin2Client\eterBase\Stl.h

; 492  : 		return GetHash(str);

  0001c	ff 75 0c	 push	 DWORD PTR _k$[ebp]
  0001f	8b 4d e4	 mov	 ecx, DWORD PTR $T8[ebp]
  00022	e8 00 00 00 00	 call	 ?GetHash@stringhash@@QBEIABV?$basic_string@DU?$char_traits@D@std@@V?$allocator@D@2@@std@@@Z ; stringhash::GetHash
; File D:\Metin2 Server Files\mainline\SRC_2014\M2Data\include\boost\unordered\detail\implementation.hpp

; 3736 :           std::size_t key_hash = this->hash(k);

  00027	89 45 ec	 mov	 DWORD PTR _key_hash$[ebp], eax

; 3576 :           return this->find_node_impl(key_hash, k, this->key_eq());

  0002a	8b 4d f8	 mov	 ecx, DWORD PTR _this$[ebp]
  0002d	e8 00 00 00 00	 call	 ?key_eq@?$functions@Ustringhash@@U?$equal_to@V?$basic_string@DU?$char_traits@D@std@@V?$allocator@D@2@@std@@@std@@@detail@unordered@boost@@QBEABU?$equal_to@V?$basic_string@DU?$char_traits@D@std@@V?$allocator@D@2@@std@@@std@@XZ ; boost::unordered::detail::functions<stringhash,std::equal_to<std::basic_string<char,std::char_traits<char>,std::allocator<char> > > >::key_eq
  00032	50		 push	 eax
  00033	ff 75 0c	 push	 DWORD PTR _k$[ebp]
  00036	ff 75 ec	 push	 DWORD PTR _key_hash$[ebp]
  00039	8b 4d f8	 mov	 ecx, DWORD PTR _this$[ebp]
  0003c	e8 00 00 00 00	 call	 ??$find_node_impl@V?$basic_string@DU?$char_traits@D@std@@V?$allocator@D@2@@std@@U?$equal_to@V?$basic_string@DU?$char_traits@D@std@@V?$allocator@D@2@@std@@@2@@?$table@U?$map@V?$allocator@U?$pair@$$CBV?$basic_string@DU?$char_traits@D@std@@V?$allocator@D@2@@std@@PAVCEterPack@@@std@@@std@@V?$basic_string@DU?$char_traits@D@std@@V?$allocator@D@2@@2@PAVCEterPack@@Ustringhash@@U?$equal_to@V?$basic_string@DU?$char_traits@D@std@@V?$allocator@D@2@@std@@@2@@detail@unordered@boost@@@detail@unordered@boost@@QBEPAU?$ptr_node@U?$pair@$$CBV?$basic_string@DU?$char_traits@D@std@@V?$allocator@D@2@@std@@PAVCEterPack@@@std@@@123@IABV?$basic_string@DU?$char_traits@D@std@@V?$allocator@D@2@@std@@ABU?$equal_to@V?$basic_string@DU?$char_traits@D@std@@V?$allocator@D@2@@std@@@6@@Z ; boost::unordered::detail::table<boost::unordered::detail::map<std::allocator<std::pair<std::basic_string<char,std::char_traits<char>,std::allocator<char> > const ,CEterPack *> >,std::basic_string<char,std::char_traits<char>,std::allocator<char> >,CEterPack *,stringhash,std::equal_to<std::basic_string<char,std::char_traits<char>,std::allocator<char> > > > >::find_node_impl<std::basic_string<char,std::char_traits<char>,std::allocator<char> >,std::equal_to<std::basic_string<char,std::char_traits<char>,std::allocator<char> > > >

; 3737 :           node_pointer pos = this->find_node(key_hash, k);

  00041	89 45 f4	 mov	 DWORD PTR _pos$[ebp], eax

; 3738 :           if (pos) {

  00044	83 7d f4 00	 cmp	 DWORD PTR _pos$[ebp], 0
  00048	74 32		 je	 SHORT $LN2@emplace_un

; 3739 :             return emplace_return(iterator(pos), false);

  0004a	c6 45 ff 00	 mov	 BYTE PTR $T11[ebp], 0

; 2371 :           : node_(static_cast<node_pointer>(x))

  0004e	8b 45 f4	 mov	 eax, DWORD PTR _pos$[ebp]
  00051	89 45 e0	 mov	 DWORD PTR $T7[ebp], eax
; File C:\Program Files (x86)\Microsoft Visual Studio\2019\Community\VC\Tools\MSVC\14.28.29333\include\type_traits

; 1443 :     return static_cast<_Ty&&>(_Arg);

  00054	8d 45 e0	 lea	 eax, DWORD PTR $T7[ebp]
  00057	89 45 dc	 mov	 DWORD PTR $T6[ebp], eax
; File C:\Program Files (x86)\Microsoft Visual Studio\2019\Community\VC\Tools\MSVC\14.28.29333\include\utility

; 190  :         : first(_STD forward<_Other1>(_Val1)), second(_STD forward<_Other2>(_Val2)) {}

  0005a	8b 45 dc	 mov	 eax, DWORD PTR $T6[ebp]
  0005d	8b 00		 mov	 eax, DWORD PTR [eax]
  0005f	8b 4d 08	 mov	 ecx, DWORD PTR ___$ReturnUdt$[ebp]
  00062	89 01		 mov	 DWORD PTR [ecx], eax
; File C:\Program Files (x86)\Microsoft Visual Studio\2019\Community\VC\Tools\MSVC\14.28.29333\include\type_traits

; 1443 :     return static_cast<_Ty&&>(_Arg);

  00064	8d 45 ff	 lea	 eax, DWORD PTR $T11[ebp]
  00067	89 45 d8	 mov	 DWORD PTR $T5[ebp], eax
; File C:\Program Files (x86)\Microsoft Visual Studio\2019\Community\VC\Tools\MSVC\14.28.29333\include\utility

; 190  :         : first(_STD forward<_Other1>(_Val1)), second(_STD forward<_Other2>(_Val2)) {}

  0006a	8b 45 08	 mov	 eax, DWORD PTR ___$ReturnUdt$[ebp]
  0006d	8b 4d d8	 mov	 ecx, DWORD PTR $T5[ebp]
  00070	8a 09		 mov	 cl, BYTE PTR [ecx]
  00072	88 48 04	 mov	 BYTE PTR [eax+4], cl
; File D:\Metin2 Server Files\mainline\SRC_2014\M2Data\include\boost\unordered\detail\implementation.hpp

; 3739 :             return emplace_return(iterator(pos), false);

  00075	8b 45 08	 mov	 eax, DWORD PTR ___$ReturnUdt$[ebp]
  00078	eb 6a		 jmp	 SHORT $LN1@emplace_un

; 3740 :           } else {

  0007a	eb 68		 jmp	 SHORT $LN1@emplace_un
$LN2@emplace_un:

; 3741 :             return emplace_return(

  0007c	c6 45 fe 01	 mov	 BYTE PTR $T10[ebp], 1
; File D:\Metin2 Server Files\mainline\SRC_2014\M2Data\include\boost\move\utility_core.hpp

; 249  :          {  return static_cast<T&&>(t);   }

  00080	8b 45 10	 mov	 eax, DWORD PTR _<args_0>$[ebp]
  00083	89 45 d4	 mov	 DWORD PTR $T4[ebp], eax
; File D:\Metin2 Server Files\mainline\SRC_2014\M2Data\include\boost\unordered\detail\implementation.hpp

; 3014 :         node_allocator& node_alloc() { return allocators_.second(); }

  00086	8b 45 f8	 mov	 eax, DWORD PTR _this$[ebp]
  00089	83 c0 03	 add	 eax, 3
  0008c	89 45 f0	 mov	 DWORD PTR _this$[ebp], eax

; 430  :         second_type& second() { return static_cast<base2*>(this)->get(); }

  0008f	74 09		 je	 SHORT $LN114@emplace_un
  00091	8b 45 f0	 mov	 eax, DWORD PTR _this$[ebp]
  00094	40		 inc	 eax
  00095	89 45 e8	 mov	 DWORD PTR $T9[ebp], eax
  00098	eb 04		 jmp	 SHORT $LN110@emplace_un
$LN114@emplace_un:
  0009a	83 65 e8 00	 and	 DWORD PTR $T9[ebp], 0
$LN110@emplace_un:

; 3741 :             return emplace_return(

  0009e	ff 75 ec	 push	 DWORD PTR _key_hash$[ebp]
  000a1	ff 75 d4	 push	 DWORD PTR $T4[ebp]
  000a4	ff 75 e8	 push	 DWORD PTR $T9[ebp]
  000a7	e8 00 00 00 00	 call	 ??$construct_node_from_args@V?$allocator@U?$ptr_node@U?$pair@$$CBV?$basic_string@DU?$char_traits@D@std@@V?$allocator@D@2@@std@@PAVCEterPack@@@std@@@detail@unordered@boost@@@std@@U?$pair@$$CBV?$basic_string@DU?$char_traits@D@std@@V?$allocator@D@2@@std@@PAVCEterPack@@@2@@func@detail@unordered@boost@@YAPAU?$ptr_node@U?$pair@$$CBV?$basic_string@DU?$char_traits@D@std@@V?$allocator@D@2@@std@@PAVCEterPack@@@std@@@123@AAV?$allocator@U?$ptr_node@U?$pair@$$CBV?$basic_string@DU?$char_traits@D@std@@V?$allocator@D@2@@std@@PAVCEterPack@@@std@@@detail@unordered@boost@@@std@@$$QAU?$pair@$$CBV?$basic_string@DU?$char_traits@D@std@@V?$allocator@D@2@@std@@PAVCEterPack@@@6@@Z ; boost::unordered::detail::func::construct_node_from_args<std::allocator<boost::unordered::detail::ptr_node<std::pair<std::basic_string<char,std::char_traits<char>,std::allocator<char> > const ,CEterPack *> > >,std::pair<std::basic_string<char,std::char_traits<char>,std::allocator<char> > const ,CEterPack *> >
  000ac	59		 pop	 ecx
  000ad	59		 pop	 ecx
  000ae	50		 push	 eax
  000af	8b 4d f8	 mov	 ecx, DWORD PTR _this$[ebp]
  000b2	e8 00 00 00 00	 call	 ?resize_and_add_node_unique@?$table@U?$map@V?$allocator@U?$pair@$$CBV?$basic_string@DU?$char_traits@D@std@@V?$allocator@D@2@@std@@PAVCEterPack@@@std@@@std@@V?$basic_string@DU?$char_traits@D@std@@V?$allocator@D@2@@2@PAVCEterPack@@Ustringhash@@U?$equal_to@V?$basic_string@DU?$char_traits@D@std@@V?$allocator@D@2@@std@@@2@@detail@unordered@boost@@@detail@unordered@boost@@QAEPAU?$ptr_node@U?$pair@$$CBV?$basic_string@DU?$char_traits@D@std@@V?$allocator@D@2@@std@@PAVCEterPack@@@std@@@234@PAU5234@I@Z ; boost::unordered::detail::table<boost::unordered::detail::map<std::allocator<std::pair<std::basic_string<char,std::char_traits<char>,std::allocator<char> > const ,CEterPack *> >,std::basic_string<char,std::char_traits<char>,std::allocator<char> >,CEterPack *,stringhash,std::equal_to<std::basic_string<char,std::char_traits<char>,std::allocator<char> > > > >::resize_and_add_node_unique
  000b7	89 45 d0	 mov	 DWORD PTR _x$[ebp], eax

; 2371 :           : node_(static_cast<node_pointer>(x))

  000ba	8b 45 d0	 mov	 eax, DWORD PTR _x$[ebp]
  000bd	89 45 cc	 mov	 DWORD PTR $T3[ebp], eax
; File C:\Program Files (x86)\Microsoft Visual Studio\2019\Community\VC\Tools\MSVC\14.28.29333\include\type_traits

; 1443 :     return static_cast<_Ty&&>(_Arg);

  000c0	8d 45 cc	 lea	 eax, DWORD PTR $T3[ebp]
  000c3	89 45 c8	 mov	 DWORD PTR $T2[ebp], eax
; File C:\Program Files (x86)\Microsoft Visual Studio\2019\Community\VC\Tools\MSVC\14.28.29333\include\utility

; 190  :         : first(_STD forward<_Other1>(_Val1)), second(_STD forward<_Other2>(_Val2)) {}

  000c6	8b 45 c8	 mov	 eax, DWORD PTR $T2[ebp]
  000c9	8b 00		 mov	 eax, DWORD PTR [eax]
  000cb	8b 4d 08	 mov	 ecx, DWORD PTR ___$ReturnUdt$[ebp]
  000ce	89 01		 mov	 DWORD PTR [ecx], eax
; File C:\Program Files (x86)\Microsoft Visual Studio\2019\Community\VC\Tools\MSVC\14.28.29333\include\type_traits

; 1443 :     return static_cast<_Ty&&>(_Arg);

  000d0	8d 45 fe	 lea	 eax, DWORD PTR $T10[ebp]
  000d3	89 45 c4	 mov	 DWORD PTR $T1[ebp], eax
; File C:\Program Files (x86)\Microsoft Visual Studio\2019\Community\VC\Tools\MSVC\14.28.29333\include\utility

; 190  :         : first(_STD forward<_Other1>(_Val1)), second(_STD forward<_Other2>(_Val2)) {}

  000d6	8b 45 08	 mov	 eax, DWORD PTR ___$ReturnUdt$[ebp]
  000d9	8b 4d c4	 mov	 ecx, DWORD PTR $T1[ebp]
  000dc	8a 09		 mov	 cl, BYTE PTR [ecx]
  000de	88 48 04	 mov	 BYTE PTR [eax+4], cl
; File D:\Metin2 Server Files\mainline\SRC_2014\M2Data\include\boost\unordered\detail\implementation.hpp

; 3741 :             return emplace_return(

  000e1	8b 45 08	 mov	 eax, DWORD PTR ___$ReturnUdt$[ebp]
$LN1@emplace_un:

; 3742 :               iterator(this->resize_and_add_node_unique(
; 3743 :                 boost::unordered::detail::func::construct_node_from_args(
; 3744 :                   this->node_alloc(), BOOST_UNORDERED_EMPLACE_FORWARD),
; 3745 :                 key_hash)),
; 3746 :               true);
; 3747 :           }
; 3748 :         }

  000e4	c9		 leave
  000e5	c2 0c 00	 ret	 12			; 0000000cH
??$emplace_unique@U?$pair@$$CBV?$basic_string@DU?$char_traits@D@std@@V?$allocator@D@2@@std@@PAVCEterPack@@@std@@@?$table@U?$map@V?$allocator@U?$pair@$$CBV?$basic_string@DU?$char_traits@D@std@@V?$allocator@D@2@@std@@PAVCEterPack@@@std@@@std@@V?$basic_string@DU?$char_traits@D@std@@V?$allocator@D@2@@2@PAVCEterPack@@Ustringhash@@U?$equal_to@V?$basic_string@DU?$char_traits@D@std@@V?$allocator@D@2@@std@@@2@@detail@unordered@boost@@@detail@unordered@boost@@QAE?AU?$pair@U?$iterator@U?$ptr_node@U?$pair@$$CBV?$basic_string@DU?$char_traits@D@std@@V?$allocator@D@2@@std@@PAVCEterPack@@@std@@@detail@unordered@boost@@@iterator_detail@unordered@boost@@_N@std@@ABV?$basic_string@DU?$char_traits@D@std@@V?$allocator@D@2@@5@$$QAU?$pair@$$CBV?$basic_string@DU?$char_traits@D@std@@V?$allocator@D@2@@std@@PAVCEterPack@@@5@@Z ENDP ; boost::unordered::detail::table<boost::unordered::detail::map<std::allocator<std::pair<std::basic_string<char,std::char_traits<char>,std::allocator<char> > const ,CEterPack *> >,std::basic_string<char,std::char_traits<char>,std::allocator<char> >,CEterPack *,stringhash,std::equal_to<std::basic_string<char,std::char_traits<char>,std::allocator<char> > > > >::emplace_unique<std::pair<std::basic_string<char,std::char_traits<char>,std::allocator<char> > const ,CEterPack *> >
_TEXT	ENDS
; Function compile flags: /Odspy
; File D:\Metin2 Server Files\mainline\SRC_2014\M2Data\include\boost\unordered\detail\implementation.hpp
; File D:\Metin2 Server Files\mainline\SRC_2014\M2Data\include\boost\container_hash\hash.hpp
; File D:\Metin2 Server Files\mainline\SRC_2014\M2Data\include\boost\unordered\detail\implementation.hpp
; File C:\Program Files (x86)\Microsoft Visual Studio\2019\Community\VC\Tools\MSVC\14.28.29333\include\type_traits
; File C:\Program Files (x86)\Microsoft Visual Studio\2019\Community\VC\Tools\MSVC\14.28.29333\include\utility
; File C:\Program Files (x86)\Microsoft Visual Studio\2019\Community\VC\Tools\MSVC\14.28.29333\include\type_traits
; File C:\Program Files (x86)\Microsoft Visual Studio\2019\Community\VC\Tools\MSVC\14.28.29333\include\utility
; File D:\Metin2 Server Files\mainline\SRC_2014\M2Data\include\boost\unordered\detail\implementation.hpp
; File D:\Metin2 Server Files\mainline\SRC_2014\M2Data\include\boost\move\utility_core.hpp
; File D:\Metin2 Server Files\mainline\SRC_2014\M2Data\include\boost\unordered\detail\implementation.hpp
; File C:\Program Files (x86)\Microsoft Visual Studio\2019\Community\VC\Tools\MSVC\14.28.29333\include\type_traits
; File C:\Program Files (x86)\Microsoft Visual Studio\2019\Community\VC\Tools\MSVC\14.28.29333\include\utility
; File C:\Program Files (x86)\Microsoft Visual Studio\2019\Community\VC\Tools\MSVC\14.28.29333\include\type_traits
; File C:\Program Files (x86)\Microsoft Visual Studio\2019\Community\VC\Tools\MSVC\14.28.29333\include\utility
; File D:\Metin2 Server Files\mainline\SRC_2014\M2Data\include\boost\unordered\detail\implementation.hpp
;	COMDAT ??$emplace_unique@U?$pair@$$CBKUSCache@CEterPackManager@@@std@@@?$table@U?$map@V?$allocator@U?$pair@$$CBKUSCache@CEterPackManager@@@std@@@std@@KUSCache@CEterPackManager@@U?$hash@K@boost@@U?$equal_to@K@2@@detail@unordered@boost@@@detail@unordered@boost@@QAE?AU?$pair@U?$iterator@U?$ptr_node@U?$pair@$$CBKUSCache@CEterPackManager@@@std@@@detail@unordered@boost@@@iterator_detail@unordered@boost@@_N@std@@ABK$$QAU?$pair@$$CBKUSCache@CEterPackManager@@@5@@Z
_TEXT	SEGMENT
$T1 = -64						; size = 4
$T2 = -60						; size = 4
$T3 = -56						; size = 4
$T4 = -52						; size = 4
_x$ = -48						; size = 4
$T5 = -44						; size = 4
$T6 = -40						; size = 4
$T7 = -36						; size = 4
$T8 = -32						; size = 4
_v$9 = -28						; size = 4
$T10 = -24						; size = 4
_key_hash$ = -20					; size = 4
_this$ = -16						; size = 4
_pos$ = -12						; size = 4
_this$ = -8						; size = 4
$T11 = -2						; size = 1
$T12 = -1						; size = 1
___$ReturnUdt$ = 8					; size = 4
_k$ = 12						; size = 4
_<args_0>$ = 16						; size = 4
??$emplace_unique@U?$pair@$$CBKUSCache@CEterPackManager@@@std@@@?$table@U?$map@V?$allocator@U?$pair@$$CBKUSCache@CEterPackManager@@@std@@@std@@KUSCache@CEterPackManager@@U?$hash@K@boost@@U?$equal_to@K@2@@detail@unordered@boost@@@detail@unordered@boost@@QAE?AU?$pair@U?$iterator@U?$ptr_node@U?$pair@$$CBKUSCache@CEterPackManager@@@std@@@detail@unordered@boost@@@iterator_detail@unordered@boost@@_N@std@@ABK$$QAU?$pair@$$CBKUSCache@CEterPackManager@@@5@@Z PROC ; boost::unordered::detail::table<boost::unordered::detail::map<std::allocator<std::pair<unsigned long const ,CEterPackManager::SCache> >,unsigned long,CEterPackManager::SCache,boost::hash<unsigned long>,std::equal_to<unsigned long> > >::emplace_unique<std::pair<unsigned long const ,CEterPackManager::SCache> >, COMDAT
; _this$ = ecx

; 3735 :         {

  00000	55		 push	 ebp
  00001	8b ec		 mov	 ebp, esp
  00003	83 ec 40	 sub	 esp, 64			; 00000040H
  00006	89 4d f8	 mov	 DWORD PTR _this$[ebp], ecx

; 2791 :           return *static_cast<function_pair const*>(

  00009	8b 45 f8	 mov	 eax, DWORD PTR _this$[ebp]
  0000c	0f b6 00	 movzx	 eax, BYTE PTR [eax]
  0000f	83 e0 01	 and	 eax, 1
  00012	8b 4d f8	 mov	 ecx, DWORD PTR _this$[ebp]
  00015	8d 44 01 01	 lea	 eax, DWORD PTR [ecx+eax+1]
  00019	89 45 c0	 mov	 DWORD PTR $T1[ebp], eax

; 2599 :           return hf(x);

  0001c	8b 45 0c	 mov	 eax, DWORD PTR _k$[ebp]
  0001f	8b 00		 mov	 eax, DWORD PTR [eax]
  00021	89 45 e4	 mov	 DWORD PTR _v$9[ebp], eax
; File D:\Metin2 Server Files\mainline\SRC_2014\M2Data\include\boost\container_hash\hash.hpp

; 621  :     BOOST_HASH_SPECIALIZE(unsigned long)

  00024	ff 75 e4	 push	 DWORD PTR _v$9[ebp]
  00027	e8 00 00 00 00	 call	 ??$hash_value@K@boost@@YAIK@Z ; boost::hash_value<unsigned long>
  0002c	59		 pop	 ecx
; File D:\Metin2 Server Files\mainline\SRC_2014\M2Data\include\boost\unordered\detail\implementation.hpp

; 3736 :           std::size_t key_hash = this->hash(k);

  0002d	89 45 ec	 mov	 DWORD PTR _key_hash$[ebp], eax

; 3576 :           return this->find_node_impl(key_hash, k, this->key_eq());

  00030	8b 4d f8	 mov	 ecx, DWORD PTR _this$[ebp]
  00033	e8 00 00 00 00	 call	 ?key_eq@?$functions@U?$hash@K@boost@@U?$equal_to@K@std@@@detail@unordered@boost@@QBEABU?$equal_to@K@std@@XZ ; boost::unordered::detail::functions<boost::hash<unsigned long>,std::equal_to<unsigned long> >::key_eq
  00038	50		 push	 eax
  00039	ff 75 0c	 push	 DWORD PTR _k$[ebp]
  0003c	ff 75 ec	 push	 DWORD PTR _key_hash$[ebp]
  0003f	8b 4d f8	 mov	 ecx, DWORD PTR _this$[ebp]
  00042	e8 00 00 00 00	 call	 ??$find_node_impl@KU?$equal_to@K@std@@@?$table@U?$map@V?$allocator@U?$pair@$$CBKUSCache@CEterPackManager@@@std@@@std@@KUSCache@CEterPackManager@@U?$hash@K@boost@@U?$equal_to@K@2@@detail@unordered@boost@@@detail@unordered@boost@@QBEPAU?$ptr_node@U?$pair@$$CBKUSCache@CEterPackManager@@@std@@@123@IABKABU?$equal_to@K@std@@@Z ; boost::unordered::detail::table<boost::unordered::detail::map<std::allocator<std::pair<unsigned long const ,CEterPackManager::SCache> >,unsigned long,CEterPackManager::SCache,boost::hash<unsigned long>,std::equal_to<unsigned long> > >::find_node_impl<unsigned long,std::equal_to<unsigned long> >

; 3737 :           node_pointer pos = this->find_node(key_hash, k);

  00047	89 45 f4	 mov	 DWORD PTR _pos$[ebp], eax

; 3738 :           if (pos) {

  0004a	83 7d f4 00	 cmp	 DWORD PTR _pos$[ebp], 0
  0004e	74 32		 je	 SHORT $LN2@emplace_un

; 3739 :             return emplace_return(iterator(pos), false);

  00050	c6 45 ff 00	 mov	 BYTE PTR $T12[ebp], 0

; 2371 :           : node_(static_cast<node_pointer>(x))

  00054	8b 45 f4	 mov	 eax, DWORD PTR _pos$[ebp]
  00057	89 45 e0	 mov	 DWORD PTR $T8[ebp], eax
; File C:\Program Files (x86)\Microsoft Visual Studio\2019\Community\VC\Tools\MSVC\14.28.29333\include\type_traits

; 1443 :     return static_cast<_Ty&&>(_Arg);

  0005a	8d 45 e0	 lea	 eax, DWORD PTR $T8[ebp]
  0005d	89 45 dc	 mov	 DWORD PTR $T7[ebp], eax
; File C:\Program Files (x86)\Microsoft Visual Studio\2019\Community\VC\Tools\MSVC\14.28.29333\include\utility

; 190  :         : first(_STD forward<_Other1>(_Val1)), second(_STD forward<_Other2>(_Val2)) {}

  00060	8b 45 dc	 mov	 eax, DWORD PTR $T7[ebp]
  00063	8b 00		 mov	 eax, DWORD PTR [eax]
  00065	8b 4d 08	 mov	 ecx, DWORD PTR ___$ReturnUdt$[ebp]
  00068	89 01		 mov	 DWORD PTR [ecx], eax
; File C:\Program Files (x86)\Microsoft Visual Studio\2019\Community\VC\Tools\MSVC\14.28.29333\include\type_traits

; 1443 :     return static_cast<_Ty&&>(_Arg);

  0006a	8d 45 ff	 lea	 eax, DWORD PTR $T12[ebp]
  0006d	89 45 d8	 mov	 DWORD PTR $T6[ebp], eax
; File C:\Program Files (x86)\Microsoft Visual Studio\2019\Community\VC\Tools\MSVC\14.28.29333\include\utility

; 190  :         : first(_STD forward<_Other1>(_Val1)), second(_STD forward<_Other2>(_Val2)) {}

  00070	8b 45 08	 mov	 eax, DWORD PTR ___$ReturnUdt$[ebp]
  00073	8b 4d d8	 mov	 ecx, DWORD PTR $T6[ebp]
  00076	8a 09		 mov	 cl, BYTE PTR [ecx]
  00078	88 48 04	 mov	 BYTE PTR [eax+4], cl
; File D:\Metin2 Server Files\mainline\SRC_2014\M2Data\include\boost\unordered\detail\implementation.hpp

; 3739 :             return emplace_return(iterator(pos), false);

  0007b	8b 45 08	 mov	 eax, DWORD PTR ___$ReturnUdt$[ebp]
  0007e	eb 6a		 jmp	 SHORT $LN1@emplace_un

; 3740 :           } else {

  00080	eb 68		 jmp	 SHORT $LN1@emplace_un
$LN2@emplace_un:

; 3741 :             return emplace_return(

  00082	c6 45 fe 01	 mov	 BYTE PTR $T11[ebp], 1
; File D:\Metin2 Server Files\mainline\SRC_2014\M2Data\include\boost\move\utility_core.hpp

; 249  :          {  return static_cast<T&&>(t);   }

  00086	8b 45 10	 mov	 eax, DWORD PTR _<args_0>$[ebp]
  00089	89 45 d4	 mov	 DWORD PTR $T5[ebp], eax
; File D:\Metin2 Server Files\mainline\SRC_2014\M2Data\include\boost\unordered\detail\implementation.hpp

; 3014 :         node_allocator& node_alloc() { return allocators_.second(); }

  0008c	8b 45 f8	 mov	 eax, DWORD PTR _this$[ebp]
  0008f	83 c0 03	 add	 eax, 3
  00092	89 45 f0	 mov	 DWORD PTR _this$[ebp], eax

; 430  :         second_type& second() { return static_cast<base2*>(this)->get(); }

  00095	74 09		 je	 SHORT $LN106@emplace_un
  00097	8b 45 f0	 mov	 eax, DWORD PTR _this$[ebp]
  0009a	40		 inc	 eax
  0009b	89 45 e8	 mov	 DWORD PTR $T10[ebp], eax
  0009e	eb 04		 jmp	 SHORT $LN102@emplace_un
$LN106@emplace_un:
  000a0	83 65 e8 00	 and	 DWORD PTR $T10[ebp], 0
$LN102@emplace_un:

; 3741 :             return emplace_return(

  000a4	ff 75 ec	 push	 DWORD PTR _key_hash$[ebp]
  000a7	ff 75 d4	 push	 DWORD PTR $T5[ebp]
  000aa	ff 75 e8	 push	 DWORD PTR $T10[ebp]
  000ad	e8 00 00 00 00	 call	 ??$construct_node_from_args@V?$allocator@U?$ptr_node@U?$pair@$$CBKUSCache@CEterPackManager@@@std@@@detail@unordered@boost@@@std@@U?$pair@$$CBKUSCache@CEterPackManager@@@2@@func@detail@unordered@boost@@YAPAU?$ptr_node@U?$pair@$$CBKUSCache@CEterPackManager@@@std@@@123@AAV?$allocator@U?$ptr_node@U?$pair@$$CBKUSCache@CEterPackManager@@@std@@@detail@unordered@boost@@@std@@$$QAU?$pair@$$CBKUSCache@CEterPackManager@@@6@@Z ; boost::unordered::detail::func::construct_node_from_args<std::allocator<boost::unordered::detail::ptr_node<std::pair<unsigned long const ,CEterPackManager::SCache> > >,std::pair<unsigned long const ,CEterPackManager::SCache> >
  000b2	59		 pop	 ecx
  000b3	59		 pop	 ecx
  000b4	50		 push	 eax
  000b5	8b 4d f8	 mov	 ecx, DWORD PTR _this$[ebp]
  000b8	e8 00 00 00 00	 call	 ?resize_and_add_node_unique@?$table@U?$map@V?$allocator@U?$pair@$$CBKUSCache@CEterPackManager@@@std@@@std@@KUSCache@CEterPackManager@@U?$hash@K@boost@@U?$equal_to@K@2@@detail@unordered@boost@@@detail@unordered@boost@@QAEPAU?$ptr_node@U?$pair@$$CBKUSCache@CEterPackManager@@@std@@@234@PAU5234@I@Z ; boost::unordered::detail::table<boost::unordered::detail::map<std::allocator<std::pair<unsigned long const ,CEterPackManager::SCache> >,unsigned long,CEterPackManager::SCache,boost::hash<unsigned long>,std::equal_to<unsigned long> > >::resize_and_add_node_unique
  000bd	89 45 d0	 mov	 DWORD PTR _x$[ebp], eax

; 2371 :           : node_(static_cast<node_pointer>(x))

  000c0	8b 45 d0	 mov	 eax, DWORD PTR _x$[ebp]
  000c3	89 45 cc	 mov	 DWORD PTR $T4[ebp], eax
; File C:\Program Files (x86)\Microsoft Visual Studio\2019\Community\VC\Tools\MSVC\14.28.29333\include\type_traits

; 1443 :     return static_cast<_Ty&&>(_Arg);

  000c6	8d 45 cc	 lea	 eax, DWORD PTR $T4[ebp]
  000c9	89 45 c8	 mov	 DWORD PTR $T3[ebp], eax
; File C:\Program Files (x86)\Microsoft Visual Studio\2019\Community\VC\Tools\MSVC\14.28.29333\include\utility

; 190  :         : first(_STD forward<_Other1>(_Val1)), second(_STD forward<_Other2>(_Val2)) {}

  000cc	8b 45 c8	 mov	 eax, DWORD PTR $T3[ebp]
  000cf	8b 00		 mov	 eax, DWORD PTR [eax]
  000d1	8b 4d 08	 mov	 ecx, DWORD PTR ___$ReturnUdt$[ebp]
  000d4	89 01		 mov	 DWORD PTR [ecx], eax
; File C:\Program Files (x86)\Microsoft Visual Studio\2019\Community\VC\Tools\MSVC\14.28.29333\include\type_traits

; 1443 :     return static_cast<_Ty&&>(_Arg);

  000d6	8d 45 fe	 lea	 eax, DWORD PTR $T11[ebp]
  000d9	89 45 c4	 mov	 DWORD PTR $T2[ebp], eax
; File C:\Program Files (x86)\Microsoft Visual Studio\2019\Community\VC\Tools\MSVC\14.28.29333\include\utility

; 190  :         : first(_STD forward<_Other1>(_Val1)), second(_STD forward<_Other2>(_Val2)) {}

  000dc	8b 45 08	 mov	 eax, DWORD PTR ___$ReturnUdt$[ebp]
  000df	8b 4d c4	 mov	 ecx, DWORD PTR $T2[ebp]
  000e2	8a 09		 mov	 cl, BYTE PTR [ecx]
  000e4	88 48 04	 mov	 BYTE PTR [eax+4], cl
; File D:\Metin2 Server Files\mainline\SRC_2014\M2Data\include\boost\unordered\detail\implementation.hpp

; 3741 :             return emplace_return(

  000e7	8b 45 08	 mov	 eax, DWORD PTR ___$ReturnUdt$[ebp]
$LN1@emplace_un:

; 3742 :               iterator(this->resize_and_add_node_unique(
; 3743 :                 boost::unordered::detail::func::construct_node_from_args(
; 3744 :                   this->node_alloc(), BOOST_UNORDERED_EMPLACE_FORWARD),
; 3745 :                 key_hash)),
; 3746 :               true);
; 3747 :           }
; 3748 :         }

  000ea	c9		 leave
  000eb	c2 0c 00	 ret	 12			; 0000000cH
??$emplace_unique@U?$pair@$$CBKUSCache@CEterPackManager@@@std@@@?$table@U?$map@V?$allocator@U?$pair@$$CBKUSCache@CEterPackManager@@@std@@@std@@KUSCache@CEterPackManager@@U?$hash@K@boost@@U?$equal_to@K@2@@detail@unordered@boost@@@detail@unordered@boost@@QAE?AU?$pair@U?$iterator@U?$ptr_node@U?$pair@$$CBKUSCache@CEterPackManager@@@std@@@detail@unordered@boost@@@iterator_detail@unordered@boost@@_N@std@@ABK$$QAU?$pair@$$CBKUSCache@CEterPackManager@@@5@@Z ENDP ; boost::unordered::detail::table<boost::unordered::detail::map<std::allocator<std::pair<unsigned long const ,CEterPackManager::SCache> >,unsigned long,CEterPackManager::SCache,boost::hash<unsigned long>,std::equal_to<unsigned long> > >::emplace_unique<std::pair<unsigned long const ,CEterPackManager::SCache> >
_TEXT	ENDS
; Function compile flags: /Odspy
; File C:\Program Files (x86)\Microsoft Visual Studio\2019\Community\VC\Tools\MSVC\14.28.29333\include\xutility
; File C:\Program Files (x86)\Microsoft Visual Studio\2019\Community\VC\Tools\MSVC\14.28.29333\include\xstddef
; File C:\Program Files (x86)\Microsoft Visual Studio\2019\Community\VC\Tools\MSVC\14.28.29333\include\xutility
;	COMDAT ??$lower_bound@PBIIU?$less@X@std@@@std@@YAPBIPBIQBIABIU?$less@X@0@@Z
_TEXT	SEGMENT
$T1 = -36						; size = 4
__UMid$2 = -32						; size = 4
tv77 = -28						; size = 4
__Count2$3 = -24					; size = 4
__First$ = -20						; size = 4
__First$ = -16						; size = 4
__UFirst$ = -12						; size = 4
__Count$ = -8						; size = 4
$T4 = -1						; size = 1
__First$ = 8						; size = 4
__Last$ = 12						; size = 4
__Val$ = 16						; size = 4
__Pred$ = 20						; size = 1
??$lower_bound@PBIIU?$less@X@std@@@std@@YAPBIPBIQBIABIU?$less@X@0@@Z PROC ; std::lower_bound<unsigned int const *,unsigned int,std::less<void> >, COMDAT

; 5849 : _NODISCARD _CONSTEXPR20 _FwdIt lower_bound(_FwdIt _First, const _FwdIt _Last, const _Ty& _Val, _Pr _Pred) {

  00000	55		 push	 ebp
  00001	8b ec		 mov	 ebp, esp
  00003	83 ec 24	 sub	 esp, 36			; 00000024H

; 5850 :     // find first element not before _Val
; 5851 :     _Adl_verify_range(_First, _Last);
; 5852 :     auto _UFirst                = _Get_unwrapped(_First);

  00006	8b 45 08	 mov	 eax, DWORD PTR __First$[ebp]
  00009	89 45 f4	 mov	 DWORD PTR __UFirst$[ebp], eax

; 1303 :         return _It + 0;

  0000c	8b 45 0c	 mov	 eax, DWORD PTR __Last$[ebp]
  0000f	89 45 dc	 mov	 DWORD PTR $T1[ebp], eax

; 1794 :         return _Last - _First; // assume the iterator will do debug checking

  00012	8b 45 dc	 mov	 eax, DWORD PTR $T1[ebp]
  00015	2b 45 f4	 sub	 eax, DWORD PTR __UFirst$[ebp]
  00018	c1 f8 02	 sar	 eax, 2

; 5853 :     _Iter_diff_t<_FwdIt> _Count = _STD distance(_UFirst, _Get_unwrapped(_Last));

  0001b	89 45 f8	 mov	 DWORD PTR __Count$[ebp], eax
$LN2@lower_boun:

; 5854 : 
; 5855 :     while (0 < _Count) { // divide and conquer, find half that contains answer

  0001e	83 7d f8 00	 cmp	 DWORD PTR __Count$[ebp], 0
  00022	7e 75		 jle	 SHORT $LN3@lower_boun

; 5856 :         const _Iter_diff_t<_FwdIt> _Count2 = _Count / 2;

  00024	8b 45 f8	 mov	 eax, DWORD PTR __Count$[ebp]
  00027	99		 cdq
  00028	2b c2		 sub	 eax, edx
  0002a	d1 f8		 sar	 eax, 1
  0002c	89 45 e8	 mov	 DWORD PTR __Count2$3[ebp], eax

; 5857 :         const auto _UMid                   = _STD next(_UFirst, _Count2);

  0002f	8b 45 f4	 mov	 eax, DWORD PTR __UFirst$[ebp]
  00032	89 45 f0	 mov	 DWORD PTR __First$[ebp], eax

; 1714 :         _Where += _Off;

  00035	8b 45 e8	 mov	 eax, DWORD PTR __Count2$3[ebp]
  00038	8b 4d f0	 mov	 ecx, DWORD PTR __First$[ebp]
  0003b	8d 04 81	 lea	 eax, DWORD PTR [ecx+eax*4]
  0003e	89 45 f0	 mov	 DWORD PTR __First$[ebp], eax

; 5857 :         const auto _UMid                   = _STD next(_UFirst, _Count2);

  00041	8b 45 f0	 mov	 eax, DWORD PTR __First$[ebp]
  00044	89 45 e0	 mov	 DWORD PTR __UMid$2[ebp], eax
; File C:\Program Files (x86)\Microsoft Visual Studio\2019\Community\VC\Tools\MSVC\14.28.29333\include\xstddef

; 240  :         return static_cast<_Ty1&&>(_Left) < static_cast<_Ty2&&>(_Right);

  00047	8b 45 e0	 mov	 eax, DWORD PTR __UMid$2[ebp]
  0004a	8b 4d 10	 mov	 ecx, DWORD PTR __Val$[ebp]
  0004d	8b 00		 mov	 eax, DWORD PTR [eax]
  0004f	3b 01		 cmp	 eax, DWORD PTR [ecx]
  00051	73 09		 jae	 SHORT $LN21@lower_boun
  00053	c7 45 e4 01 00
	00 00		 mov	 DWORD PTR tv77[ebp], 1
  0005a	eb 04		 jmp	 SHORT $LN22@lower_boun
$LN21@lower_boun:
  0005c	83 65 e4 00	 and	 DWORD PTR tv77[ebp], 0
$LN22@lower_boun:
  00060	8a 45 e4	 mov	 al, BYTE PTR tv77[ebp]
  00063	88 45 ff	 mov	 BYTE PTR $T4[ebp], al
; File C:\Program Files (x86)\Microsoft Visual Studio\2019\Community\VC\Tools\MSVC\14.28.29333\include\xutility

; 5858 :         if (_Pred(*_UMid, _Val)) { // try top half

  00066	0f b6 45 ff	 movzx	 eax, BYTE PTR $T4[ebp]
  0006a	85 c0		 test	 eax, eax
  0006c	74 23		 je	 SHORT $LN4@lower_boun

; 5859 :             _UFirst = _Next_iter(_UMid);

  0006e	8b 45 e0	 mov	 eax, DWORD PTR __UMid$2[ebp]
  00071	89 45 ec	 mov	 DWORD PTR __First$[ebp], eax

; 1837 :     return ++_First;

  00074	8b 45 ec	 mov	 eax, DWORD PTR __First$[ebp]
  00077	83 c0 04	 add	 eax, 4
  0007a	89 45 ec	 mov	 DWORD PTR __First$[ebp], eax

; 5859 :             _UFirst = _Next_iter(_UMid);

  0007d	8b 45 ec	 mov	 eax, DWORD PTR __First$[ebp]
  00080	89 45 f4	 mov	 DWORD PTR __UFirst$[ebp], eax

; 5860 :             _Count -= _Count2 + 1;

  00083	8b 45 e8	 mov	 eax, DWORD PTR __Count2$3[ebp]
  00086	40		 inc	 eax
  00087	8b 4d f8	 mov	 ecx, DWORD PTR __Count$[ebp]
  0008a	2b c8		 sub	 ecx, eax
  0008c	89 4d f8	 mov	 DWORD PTR __Count$[ebp], ecx

; 5861 :         } else {

  0008f	eb 06		 jmp	 SHORT $LN5@lower_boun
$LN4@lower_boun:

; 5862 :             _Count = _Count2;

  00091	8b 45 e8	 mov	 eax, DWORD PTR __Count2$3[ebp]
  00094	89 45 f8	 mov	 DWORD PTR __Count$[ebp], eax
$LN5@lower_boun:

; 5863 :         }
; 5864 :     }

  00097	eb 85		 jmp	 SHORT $LN2@lower_boun
$LN3@lower_boun:

; 1492 :         _It = static_cast<_UIter&&>(_UIt);

  00099	8b 45 f4	 mov	 eax, DWORD PTR __UFirst$[ebp]
  0009c	89 45 08	 mov	 DWORD PTR __First$[ebp], eax

; 5865 : 
; 5866 :     _Seek_wrapped(_First, _UFirst);
; 5867 :     return _First;

  0009f	8b 45 08	 mov	 eax, DWORD PTR __First$[ebp]

; 5868 : }

  000a2	c9		 leave
  000a3	c3		 ret	 0
??$lower_bound@PBIIU?$less@X@std@@@std@@YAPBIPBIQBIABIU?$less@X@0@@Z ENDP ; std::lower_bound<unsigned int const *,unsigned int,std::less<void> >
_TEXT	ENDS
; Function compile flags: /Odspy
; File C:\Program Files (x86)\Microsoft Visual Studio\2019\Community\VC\Tools\MSVC\14.28.29333\include\xmemory
;	COMDAT ??$_Deallocate@$07$0A@@std@@YAXPAXI@Z
_TEXT	SEGMENT
__$EHRec$ = -12						; size = 12
__Ptr$ = 8						; size = 4
__Bytes$ = 12						; size = 4
??$_Deallocate@$07$0A@@std@@YAXPAXI@Z PROC		; std::_Deallocate<8,0>, COMDAT

; 213  : void _Deallocate(void* _Ptr, size_t _Bytes) noexcept {

  00000	55		 push	 ebp
  00001	8b ec		 mov	 ebp, esp
  00003	6a ff		 push	 -1
  00005	68 00 00 00 00	 push	 __ehhandler$??$_Deallocate@$07$0A@@std@@YAXPAXI@Z
  0000a	64 a1 00 00 00
	00		 mov	 eax, DWORD PTR fs:0
  00010	50		 push	 eax
  00011	a1 00 00 00 00	 mov	 eax, DWORD PTR ___security_cookie
  00016	33 c5		 xor	 eax, ebp
  00018	50		 push	 eax
  00019	8d 45 f4	 lea	 eax, DWORD PTR __$EHRec$[ebp]
  0001c	64 a3 00 00 00
	00		 mov	 DWORD PTR fs:0, eax

; 214  :     // deallocate storage allocated by _Allocate when !_HAS_ALIGNED_NEW || _Align <= __STDCPP_DEFAULT_NEW_ALIGNMENT__
; 215  : #if defined(_M_IX86) || defined(_M_X64)
; 216  :     if (_Bytes >= _Big_allocation_threshold) { // boost the alignment of big allocations to help autovectorization

  00022	81 7d 0c 00 10
	00 00		 cmp	 DWORD PTR __Bytes$[ebp], 4096 ; 00001000H
  00029	72 0f		 jb	 SHORT $LN2@Deallocate

; 217  :         _Adjust_manually_vector_aligned(_Ptr, _Bytes);

  0002b	8d 45 0c	 lea	 eax, DWORD PTR __Bytes$[ebp]
  0002e	50		 push	 eax
  0002f	8d 45 08	 lea	 eax, DWORD PTR __Ptr$[ebp]
  00032	50		 push	 eax
  00033	e8 00 00 00 00	 call	 ?_Adjust_manually_vector_aligned@std@@YAXAAPAXAAI@Z ; std::_Adjust_manually_vector_aligned
  00038	59		 pop	 ecx
  00039	59		 pop	 ecx
$LN2@Deallocate:

; 218  :     }
; 219  : #endif // defined(_M_IX86) || defined(_M_X64)
; 220  : 
; 221  :     ::operator delete(_Ptr, _Bytes);

  0003a	ff 75 0c	 push	 DWORD PTR __Bytes$[ebp]
  0003d	ff 75 08	 push	 DWORD PTR __Ptr$[ebp]
  00040	e8 00 00 00 00	 call	 ??3@YAXPAXI@Z		; operator delete
  00045	59		 pop	 ecx
  00046	59		 pop	 ecx

; 222  : }

  00047	8b 4d f4	 mov	 ecx, DWORD PTR __$EHRec$[ebp]
  0004a	64 89 0d 00 00
	00 00		 mov	 DWORD PTR fs:0, ecx
  00051	59		 pop	 ecx
  00052	c9		 leave
  00053	c3		 ret	 0
  00054	cc		 int	 3
  00055	cc		 int	 3
  00056	cc		 int	 3
  00057	cc		 int	 3
  00058	cc		 int	 3
_TEXT	ENDS
;	COMDAT text$x
text$x	SEGMENT
__ehhandler$??$_Deallocate@$07$0A@@std@@YAXPAXI@Z:
  00000	90		 npad	 1
  00001	90		 npad	 1
  00002	8b 54 24 08	 mov	 edx, DWORD PTR [esp+8]
  00006	8d 42 0c	 lea	 eax, DWORD PTR [edx+12]
  00009	8b 4a fc	 mov	 ecx, DWORD PTR [edx-4]
  0000c	33 c8		 xor	 ecx, eax
  0000e	e8 00 00 00 00	 call	 @__security_check_cookie@4
  00013	b8 00 00 00 00	 mov	 eax, OFFSET __ehfuncinfo$??$_Deallocate@$07$0A@@std@@YAXPAXI@Z
  00018	e9 00 00 00 00	 jmp	 ___CxxFrameHandler3
text$x	ENDS
??$_Deallocate@$07$0A@@std@@YAXPAXI@Z ENDP		; std::_Deallocate<8,0>
; Function compile flags: /Odspy
; File C:\Program Files (x86)\Microsoft Visual Studio\2019\Community\VC\Tools\MSVC\14.28.29333\include\xmemory
;	COMDAT ??$_Allocate@$07U_Default_allocate_traits@std@@$0A@@std@@YAPAXI@Z
_TEXT	SEGMENT
__Bytes$ = 8						; size = 4
??$_Allocate@$07U_Default_allocate_traits@std@@$0A@@std@@YAPAXI@Z PROC ; std::_Allocate<8,std::_Default_allocate_traits,0>, COMDAT

; 197  : __declspec(allocator) void* _Allocate(const size_t _Bytes) {

  00000	55		 push	 ebp
  00001	8b ec		 mov	 ebp, esp

; 198  :     // allocate _Bytes when !_HAS_ALIGNED_NEW || _Align <= __STDCPP_DEFAULT_NEW_ALIGNMENT__
; 199  : #if defined(_M_IX86) || defined(_M_X64)
; 200  :     if (_Bytes >= _Big_allocation_threshold) { // boost the alignment of big allocations to help autovectorization

  00003	81 7d 08 00 10
	00 00		 cmp	 DWORD PTR __Bytes$[ebp], 4096 ; 00001000H
  0000a	72 0b		 jb	 SHORT $LN2@Allocate

; 201  :         return _Allocate_manually_vector_aligned<_Traits>(_Bytes);

  0000c	ff 75 08	 push	 DWORD PTR __Bytes$[ebp]
  0000f	e8 00 00 00 00	 call	 ??$_Allocate_manually_vector_aligned@U_Default_allocate_traits@std@@@std@@YAPAXI@Z ; std::_Allocate_manually_vector_aligned<std::_Default_allocate_traits>
  00014	59		 pop	 ecx
  00015	eb 13		 jmp	 SHORT $LN1@Allocate
$LN2@Allocate:

; 202  :     }
; 203  : #endif // defined(_M_IX86) || defined(_M_X64)
; 204  : 
; 205  :     if (_Bytes != 0) {

  00017	83 7d 08 00	 cmp	 DWORD PTR __Bytes$[ebp], 0
  0001b	74 0b		 je	 SHORT $LN3@Allocate

; 77   :         return ::operator new(_Bytes);

  0001d	ff 75 08	 push	 DWORD PTR __Bytes$[ebp]
  00020	e8 00 00 00 00	 call	 ??2@YAPAXI@Z		; operator new
  00025	59		 pop	 ecx

; 206  :         return _Traits::_Allocate(_Bytes);

  00026	eb 02		 jmp	 SHORT $LN1@Allocate
$LN3@Allocate:

; 207  :     }
; 208  : 
; 209  :     return nullptr;

  00028	33 c0		 xor	 eax, eax
$LN1@Allocate:

; 210  : }

  0002a	5d		 pop	 ebp
  0002b	c3		 ret	 0
??$_Allocate@$07U_Default_allocate_traits@std@@$0A@@std@@YAPAXI@Z ENDP ; std::_Allocate<8,std::_Default_allocate_traits,0>
_TEXT	ENDS
; Function compile flags: /Odspy
; File C:\Program Files (x86)\Microsoft Visual Studio\2019\Community\VC\Tools\MSVC\14.28.29333\include\xmemory
; File C:\Program Files (x86)\Microsoft Visual Studio\2019\Community\VC\Tools\MSVC\14.28.29333\include\xstddef
; File C:\Program Files (x86)\Microsoft Visual Studio\2019\Community\VC\Tools\MSVC\14.28.29333\include\vcruntime_new.h
; File C:\Program Files (x86)\Microsoft Visual Studio\2019\Community\VC\Tools\MSVC\14.28.29333\include\type_traits
; File C:\Program Files (x86)\Microsoft Visual Studio\2019\Community\VC\Tools\MSVC\14.28.29333\include\xmemory
;	COMDAT ??$_Construct_in_place@PADABQAD@std@@YAXAAPADABQAD@Z
_TEXT	SEGMENT
$T1 = -12						; size = 4
$T2 = -8						; size = 4
$T3 = -4						; size = 4
__Obj$ = 8						; size = 4
_<_Args_0>$ = 12					; size = 4
??$_Construct_in_place@PADABQAD@std@@YAXAAPADABQAD@Z PROC ; std::_Construct_in_place<char *,char * const &>, COMDAT

; 228  : void _Construct_in_place(_Ty& _Obj, _Types&&... _Args) noexcept(is_nothrow_constructible_v<_Ty, _Types...>) {

  00000	55		 push	 ebp
  00001	8b ec		 mov	 ebp, esp
  00003	83 ec 0c	 sub	 esp, 12			; 0000000cH
; File C:\Program Files (x86)\Microsoft Visual Studio\2019\Community\VC\Tools\MSVC\14.28.29333\include\xstddef

; 275  :     return __builtin_addressof(_Val);

  00006	8b 45 08	 mov	 eax, DWORD PTR __Obj$[ebp]
  00009	89 45 fc	 mov	 DWORD PTR $T3[ebp], eax
; File C:\Program Files (x86)\Microsoft Visual Studio\2019\Community\VC\Tools\MSVC\14.28.29333\include\vcruntime_new.h

; 169  :         return _Where;

  0000c	8b 45 fc	 mov	 eax, DWORD PTR $T3[ebp]
  0000f	89 45 f8	 mov	 DWORD PTR $T2[ebp], eax
; File C:\Program Files (x86)\Microsoft Visual Studio\2019\Community\VC\Tools\MSVC\14.28.29333\include\type_traits

; 1443 :     return static_cast<_Ty&&>(_Arg);

  00012	8b 45 0c	 mov	 eax, DWORD PTR _<_Args_0>$[ebp]
  00015	89 45 f4	 mov	 DWORD PTR $T1[ebp], eax
; File C:\Program Files (x86)\Microsoft Visual Studio\2019\Community\VC\Tools\MSVC\14.28.29333\include\xmemory

; 229  :     ::new (const_cast<void*>(static_cast<const volatile void*>(_STD addressof(_Obj))))

  00018	8b 45 f8	 mov	 eax, DWORD PTR $T2[ebp]
  0001b	8b 4d f4	 mov	 ecx, DWORD PTR $T1[ebp]
  0001e	8b 09		 mov	 ecx, DWORD PTR [ecx]
  00020	89 08		 mov	 DWORD PTR [eax], ecx

; 230  :         _Ty(_STD forward<_Types>(_Args)...);
; 231  : }

  00022	c9		 leave
  00023	c3		 ret	 0
??$_Construct_in_place@PADABQAD@std@@YAXAAPADABQAD@Z ENDP ; std::_Construct_in_place<char *,char * const &>
_TEXT	ENDS
; Function compile flags: /Odspy
; File C:\Program Files (x86)\Microsoft Visual Studio\2019\Community\VC\Tools\MSVC\14.28.29333\include\xstring
; File C:\Program Files (x86)\Microsoft Visual Studio\2019\Community\VC\Tools\MSVC\14.28.29333\include\xmemory
; File C:\Program Files (x86)\Microsoft Visual Studio\2019\Community\VC\Tools\MSVC\14.28.29333\include\xstring
; File C:\Program Files (x86)\Microsoft Visual Studio\2019\Community\VC\Tools\MSVC\14.28.29333\include\xmemory
; File C:\Program Files (x86)\Microsoft Visual Studio\2019\Community\VC\Tools\MSVC\14.28.29333\include\xstring
; File C:\Program Files (x86)\Microsoft Visual Studio\2019\Community\VC\Tools\MSVC\14.28.29333\include\xmemory
; File C:\Program Files (x86)\Microsoft Visual Studio\2019\Community\VC\Tools\MSVC\14.28.29333\include\xstring
; File C:\Program Files (x86)\Microsoft Visual Studio\2019\Community\VC\Tools\MSVC\14.28.29333\include\xstddef
; File C:\Program Files (x86)\Microsoft Visual Studio\2019\Community\VC\Tools\MSVC\14.28.29333\include\xstring
; File C:\Program Files (x86)\Microsoft Visual Studio\2019\Community\VC\Tools\MSVC\14.28.29333\include\xmemory
; File C:\Program Files (x86)\Microsoft Visual Studio\2019\Community\VC\Tools\MSVC\14.28.29333\include\xstring
;	COMDAT ??$_Reallocate_for@V<lambda_9366063389c5f42a00a5088cf24e69de>@@PBD@?$basic_string@DU?$char_traits@D@std@@V?$allocator@D@2@@std@@AAEAAV01@IV<lambda_9366063389c5f42a00a5088cf24e69de>@@PBD@Z
_TEXT	SEGMENT
__Al$ = -40						; size = 4
__Ptr$ = -36						; size = 4
__Ptr$ = -32						; size = 4
$T1 = -28						; size = 4
__Old_capacity$ = -24					; size = 4
$T2 = -20						; size = 4
__New_capacity$ = -16					; size = 4
__New_ptr$ = -12					; size = 4
_this$ = -8						; size = 4
__Overflow_is_possible$3 = -2				; size = 1
$T4 = -1						; size = 1
__New_size$ = 8						; size = 4
__Fn$ = 12						; size = 1
_<_Args_0>$ = 16					; size = 4
??$_Reallocate_for@V<lambda_9366063389c5f42a00a5088cf24e69de>@@PBD@?$basic_string@DU?$char_traits@D@std@@V?$allocator@D@2@@std@@AAEAAV01@IV<lambda_9366063389c5f42a00a5088cf24e69de>@@PBD@Z PROC ; std::basic_string<char,std::char_traits<char>,std::allocator<char> >::_Reallocate_for<<lambda_9366063389c5f42a00a5088cf24e69de>,char const *>, COMDAT
; _this$ = ecx

; 4302 :     basic_string& _Reallocate_for(const size_type _New_size, _Fty _Fn, _ArgTys... _Args) {

  00000	55		 push	 ebp
  00001	8b ec		 mov	 ebp, esp
  00003	83 ec 28	 sub	 esp, 40			; 00000028H
  00006	89 4d f8	 mov	 DWORD PTR _this$[ebp], ecx

; 4303 :         // reallocate to store exactly _New_size elements, new buffer prepared by
; 4304 :         // _Fn(_New_ptr, _New_size, _Args...)
; 4305 :         if (_New_size > max_size()) {

  00009	8b 4d f8	 mov	 ecx, DWORD PTR _this$[ebp]
  0000c	e8 00 00 00 00	 call	 ?max_size@?$basic_string@DU?$char_traits@D@std@@V?$allocator@D@2@@std@@QBEIXZ ; std::basic_string<char,std::char_traits<char>,std::allocator<char> >::max_size
  00011	39 45 08	 cmp	 DWORD PTR __New_size$[ebp], eax
  00014	76 05		 jbe	 SHORT $LN2@Reallocate

; 4306 :             _Xlen_string(); // result too long

  00016	e8 00 00 00 00	 call	 ?_Xlen_string@std@@YAXXZ ; std::_Xlen_string
$LN2@Reallocate:

; 4307 :         }
; 4308 : 
; 4309 :         const size_type _Old_capacity = _Mypair._Myval2._Myres;

  0001b	8b 45 f8	 mov	 eax, DWORD PTR _this$[ebp]
  0001e	8b 40 14	 mov	 eax, DWORD PTR [eax+20]
  00021	89 45 e8	 mov	 DWORD PTR __Old_capacity$[ebp], eax

; 4310 :         const size_type _New_capacity = _Calculate_growth(_New_size);

  00024	ff 75 08	 push	 DWORD PTR __New_size$[ebp]
  00027	8b 4d f8	 mov	 ecx, DWORD PTR _this$[ebp]
  0002a	e8 00 00 00 00	 call	 ?_Calculate_growth@?$basic_string@DU?$char_traits@D@std@@V?$allocator@D@2@@std@@ABEII@Z ; std::basic_string<char,std::char_traits<char>,std::allocator<char> >::_Calculate_growth
  0002f	89 45 f0	 mov	 DWORD PTR __New_capacity$[ebp], eax

; 4409 :         return _Mypair._Get_first();

  00032	8b 45 f8	 mov	 eax, DWORD PTR _this$[ebp]
; File C:\Program Files (x86)\Microsoft Visual Studio\2019\Community\VC\Tools\MSVC\14.28.29333\include\xmemory

; 1347 :         return *this;

  00035	89 45 e4	 mov	 DWORD PTR $T1[ebp], eax
; File C:\Program Files (x86)\Microsoft Visual Studio\2019\Community\VC\Tools\MSVC\14.28.29333\include\xstring

; 4409 :         return _Mypair._Get_first();

  00038	8b 45 e4	 mov	 eax, DWORD PTR $T1[ebp]
  0003b	89 45 d8	 mov	 DWORD PTR __Al$[ebp], eax
; File C:\Program Files (x86)\Microsoft Visual Studio\2019\Community\VC\Tools\MSVC\14.28.29333\include\xmemory

; 56   :     constexpr bool _Overflow_is_possible = _Ty_size > 1;

  0003e	c6 45 fe 00	 mov	 BYTE PTR __Overflow_is_possible$3[ebp], 0
; File C:\Program Files (x86)\Microsoft Visual Studio\2019\Community\VC\Tools\MSVC\14.28.29333\include\xstring

; 4312 :         const pointer _New_ptr        = _Al.allocate(_New_capacity + 1); // throws

  00042	8b 45 f0	 mov	 eax, DWORD PTR __New_capacity$[ebp]
  00045	40		 inc	 eax
; File C:\Program Files (x86)\Microsoft Visual Studio\2019\Community\VC\Tools\MSVC\14.28.29333\include\xmemory

; 814  :         return static_cast<_Ty*>(_Allocate<_New_alignof<_Ty>>(_Get_size_of_n<sizeof(_Ty)>(_Count)));

  00046	50		 push	 eax
  00047	e8 00 00 00 00	 call	 ??$_Allocate@$07U_Default_allocate_traits@std@@$0A@@std@@YAPAXI@Z ; std::_Allocate<8,std::_Default_allocate_traits,0>
  0004c	59		 pop	 ecx
; File C:\Program Files (x86)\Microsoft Visual Studio\2019\Community\VC\Tools\MSVC\14.28.29333\include\xstring

; 4312 :         const pointer _New_ptr        = _Al.allocate(_New_capacity + 1); // throws

  0004d	89 45 f4	 mov	 DWORD PTR __New_ptr$[ebp], eax

; 4313 :         _Mypair._Myval2._Orphan_all();
; 4314 :         _Mypair._Myval2._Mysize = _New_size;

  00050	8b 45 f8	 mov	 eax, DWORD PTR _this$[ebp]
  00053	8b 4d 08	 mov	 ecx, DWORD PTR __New_size$[ebp]
  00056	89 48 10	 mov	 DWORD PTR [eax+16], ecx

; 4315 :         _Mypair._Myval2._Myres  = _New_capacity;

  00059	8b 45 f8	 mov	 eax, DWORD PTR _this$[ebp]
  0005c	8b 4d f0	 mov	 ecx, DWORD PTR __New_capacity$[ebp]
  0005f	89 48 14	 mov	 DWORD PTR [eax+20], ecx

; 4316 :         _Fn(_Unfancy(_New_ptr), _New_size, _Args...);

  00062	8b 45 f4	 mov	 eax, DWORD PTR __New_ptr$[ebp]
  00065	89 45 e0	 mov	 DWORD PTR __Ptr$[ebp], eax
; File C:\Program Files (x86)\Microsoft Visual Studio\2019\Community\VC\Tools\MSVC\14.28.29333\include\xstddef

; 289  :     return _Ptr;

  00068	8b 45 e0	 mov	 eax, DWORD PTR __Ptr$[ebp]
  0006b	89 45 ec	 mov	 DWORD PTR $T2[ebp], eax
; File C:\Program Files (x86)\Microsoft Visual Studio\2019\Community\VC\Tools\MSVC\14.28.29333\include\xstring

; 62   :         _CSTD memcpy(_First1, _First2, _Count * sizeof(_Elem));

  0006e	ff 75 08	 push	 DWORD PTR __New_size$[ebp]
  00071	ff 75 10	 push	 DWORD PTR _<_Args_0>$[ebp]
  00074	ff 75 ec	 push	 DWORD PTR $T2[ebp]
  00077	e8 00 00 00 00	 call	 _memcpy
  0007c	83 c4 0c	 add	 esp, 12			; 0000000cH

; 3056 :                 _Traits::assign(_New_ptr[_Count], _Elem());

  0007f	c6 45 ff 00	 mov	 BYTE PTR $T4[ebp], 0

; 428  :         _Left = _Right;

  00083	8b 45 ec	 mov	 eax, DWORD PTR $T2[ebp]
  00086	03 45 08	 add	 eax, DWORD PTR __New_size$[ebp]
  00089	8a 4d ff	 mov	 cl, BYTE PTR $T4[ebp]
  0008c	88 08		 mov	 BYTE PTR [eax], cl

; 4317 :         if (_BUF_SIZE <= _Old_capacity) {

  0008e	83 7d e8 10	 cmp	 DWORD PTR __Old_capacity$[ebp], 16 ; 00000010H
  00092	72 21		 jb	 SHORT $LN3@Reallocate

; 4318 :             _Al.deallocate(_Mypair._Myval2._Bx._Ptr, _Old_capacity + 1);

  00094	8b 45 f8	 mov	 eax, DWORD PTR _this$[ebp]
  00097	8b 00		 mov	 eax, DWORD PTR [eax]
  00099	89 45 dc	 mov	 DWORD PTR __Ptr$[ebp], eax
  0009c	8b 45 e8	 mov	 eax, DWORD PTR __Old_capacity$[ebp]
  0009f	40		 inc	 eax
; File C:\Program Files (x86)\Microsoft Visual Studio\2019\Community\VC\Tools\MSVC\14.28.29333\include\xmemory

; 810  :         _Deallocate<_New_alignof<_Ty>>(_Ptr, sizeof(_Ty) * _Count);

  000a0	50		 push	 eax
  000a1	ff 75 dc	 push	 DWORD PTR __Ptr$[ebp]
  000a4	e8 00 00 00 00	 call	 ??$_Deallocate@$07$0A@@std@@YAXPAXI@Z ; std::_Deallocate<8,0>
  000a9	59		 pop	 ecx
  000aa	59		 pop	 ecx
; File C:\Program Files (x86)\Microsoft Visual Studio\2019\Community\VC\Tools\MSVC\14.28.29333\include\xstring

; 4319 :             _Mypair._Myval2._Bx._Ptr = _New_ptr;

  000ab	8b 45 f8	 mov	 eax, DWORD PTR _this$[ebp]
  000ae	8b 4d f4	 mov	 ecx, DWORD PTR __New_ptr$[ebp]
  000b1	89 08		 mov	 DWORD PTR [eax], ecx

; 4320 :         } else {

  000b3	eb 0e		 jmp	 SHORT $LN4@Reallocate
$LN3@Reallocate:

; 4321 :             _Construct_in_place(_Mypair._Myval2._Bx._Ptr, _New_ptr);

  000b5	8d 45 f4	 lea	 eax, DWORD PTR __New_ptr$[ebp]
  000b8	50		 push	 eax
  000b9	ff 75 f8	 push	 DWORD PTR _this$[ebp]
  000bc	e8 00 00 00 00	 call	 ??$_Construct_in_place@PADABQAD@std@@YAXAAPADABQAD@Z ; std::_Construct_in_place<char *,char * const &>
  000c1	59		 pop	 ecx
  000c2	59		 pop	 ecx
$LN4@Reallocate:

; 4322 :         }
; 4323 : 
; 4324 :         return *this;

  000c3	8b 45 f8	 mov	 eax, DWORD PTR _this$[ebp]
$LN5@Reallocate:

; 4325 :     }

  000c6	c9		 leave
  000c7	c2 0c 00	 ret	 12			; 0000000cH
??$_Reallocate_for@V<lambda_9366063389c5f42a00a5088cf24e69de>@@PBD@?$basic_string@DU?$char_traits@D@std@@V?$allocator@D@2@@std@@AAEAAV01@IV<lambda_9366063389c5f42a00a5088cf24e69de>@@PBD@Z ENDP ; std::basic_string<char,std::char_traits<char>,std::allocator<char> >::_Reallocate_for<<lambda_9366063389c5f42a00a5088cf24e69de>,char const *>
_TEXT	ENDS
; Function compile flags: /Odspy
; File C:\Program Files (x86)\Microsoft Visual Studio\2019\Community\VC\Tools\MSVC\14.28.29333\include\xmemory
;	COMDAT ??$_Destroy_in_place@PAD@std@@YAXAAPAD@Z
_TEXT	SEGMENT
__Obj$ = 8						; size = 4
??$_Destroy_in_place@PAD@std@@YAXAAPAD@Z PROC		; std::_Destroy_in_place<char *>, COMDAT

; 270  : /* _CONSTEXPR20_DYNALLOC */ void _Destroy_in_place(_Ty& _Obj) noexcept {

  00000	55		 push	 ebp
  00001	8b ec		 mov	 ebp, esp

; 271  : #if _HAS_IF_CONSTEXPR
; 272  :     if constexpr (is_array_v<_Ty>) {
; 273  :         _Destroy_range(_Obj, _Obj + extent_v<_Ty>);
; 274  :     } else
; 275  : #endif // _HAS_IF_CONSTEXPR
; 276  :     {
; 277  :         _Obj.~_Ty();
; 278  :     }
; 279  : }

  00003	5d		 pop	 ebp
  00004	c3		 ret	 0
??$_Destroy_in_place@PAD@std@@YAXAAPAD@Z ENDP		; std::_Destroy_in_place<char *>
_TEXT	ENDS
; Function compile flags: /Odspy
; File C:\Program Files (x86)\Microsoft Visual Studio\2019\Community\VC\Tools\MSVC\14.28.29333\include\list
; File C:\Program Files (x86)\Microsoft Visual Studio\2019\Community\VC\Tools\MSVC\14.28.29333\include\xmemory
; File C:\Program Files (x86)\Microsoft Visual Studio\2019\Community\VC\Tools\MSVC\14.28.29333\include\list
;	COMDAT ??$_Freenode0@V?$allocator@U?$_List_node@PAVCEterPack@@PAX@std@@@std@@@?$_List_node@PAVCEterPack@@PAX@std@@SAXAAV?$allocator@U?$_List_node@PAVCEterPack@@PAX@std@@@1@PAU01@@Z
_TEXT	SEGMENT
__Al$ = 8						; size = 4
__Ptr$ = 12						; size = 4
??$_Freenode0@V?$allocator@U?$_List_node@PAVCEterPack@@PAX@std@@@std@@@?$_List_node@PAVCEterPack@@PAX@std@@SAXAAV?$allocator@U?$_List_node@PAVCEterPack@@PAX@std@@@1@PAU01@@Z PROC ; std::_List_node<CEterPack *,void *>::_Freenode0<std::allocator<std::_List_node<CEterPack *,void *> > >, COMDAT

; 307  :     static void _Freenode0(_Alnode& _Al, _Nodeptr _Ptr) noexcept {

  00000	55		 push	 ebp
  00001	8b ec		 mov	 ebp, esp

; 308  :         // destroy pointer members in _Ptr and deallocate with _Al
; 309  :         static_assert(is_same_v<typename _Alnode::value_type, _List_node>, "Bad _Freenode0 call");
; 310  :         _Destroy_in_place(_Ptr->_Next);

  00003	ff 75 0c	 push	 DWORD PTR __Ptr$[ebp]
  00006	e8 00 00 00 00	 call	 ??$_Destroy_in_place@PAU?$_List_node@PAVCEterPack@@PAX@std@@@std@@YAXAAPAU?$_List_node@PAVCEterPack@@PAX@0@@Z ; std::_Destroy_in_place<std::_List_node<CEterPack *,void *> *>
  0000b	59		 pop	 ecx

; 311  :         _Destroy_in_place(_Ptr->_Prev);

  0000c	8b 45 0c	 mov	 eax, DWORD PTR __Ptr$[ebp]
  0000f	83 c0 04	 add	 eax, 4
  00012	50		 push	 eax
  00013	e8 00 00 00 00	 call	 ??$_Destroy_in_place@PAU?$_List_node@PAVCEterPack@@PAX@std@@@std@@YAXAAPAU?$_List_node@PAVCEterPack@@PAX@0@@Z ; std::_Destroy_in_place<std::_List_node<CEterPack *,void *> *>
  00018	59		 pop	 ecx
; File C:\Program Files (x86)\Microsoft Visual Studio\2019\Community\VC\Tools\MSVC\14.28.29333\include\xmemory

; 696  :         _Deallocate<_New_alignof<value_type>>(_Ptr, sizeof(value_type) * _Count);

  00019	33 c0		 xor	 eax, eax
  0001b	40		 inc	 eax
  0001c	6b c0 0c	 imul	 eax, eax, 12
  0001f	50		 push	 eax
  00020	ff 75 0c	 push	 DWORD PTR __Ptr$[ebp]
  00023	e8 00 00 00 00	 call	 ??$_Deallocate@$07$0A@@std@@YAXPAXI@Z ; std::_Deallocate<8,0>
  00028	59		 pop	 ecx
  00029	59		 pop	 ecx
; File C:\Program Files (x86)\Microsoft Visual Studio\2019\Community\VC\Tools\MSVC\14.28.29333\include\list

; 313  :     }

  0002a	5d		 pop	 ebp
  0002b	c3		 ret	 0
??$_Freenode0@V?$allocator@U?$_List_node@PAVCEterPack@@PAX@std@@@std@@@?$_List_node@PAVCEterPack@@PAX@std@@SAXAAV?$allocator@U?$_List_node@PAVCEterPack@@PAX@std@@@1@PAU01@@Z ENDP ; std::_List_node<CEterPack *,void *>::_Freenode0<std::allocator<std::_List_node<CEterPack *,void *> > >
_TEXT	ENDS
; Function compile flags: /Odspy
; File C:\Program Files (x86)\Microsoft Visual Studio\2019\Community\VC\Tools\MSVC\14.28.29333\include\list
; File C:\Program Files (x86)\Microsoft Visual Studio\2019\Community\VC\Tools\MSVC\14.28.29333\include\xstddef
; File C:\Program Files (x86)\Microsoft Visual Studio\2019\Community\VC\Tools\MSVC\14.28.29333\include\list
;	COMDAT ??$_Free_non_head@V?$allocator@U?$_List_node@PAVCEterPack@@PAX@std@@@std@@@?$_List_node@PAVCEterPack@@PAX@std@@SAXAAV?$allocator@U?$_List_node@PAVCEterPack@@PAX@std@@@1@PAU01@@Z
_TEXT	SEGMENT
$T1 = -12						; size = 4
__Pnext$2 = -8						; size = 4
__Pnode$ = -4						; size = 4
__Al$ = 8						; size = 4
__Head$ = 12						; size = 4
??$_Free_non_head@V?$allocator@U?$_List_node@PAVCEterPack@@PAX@std@@@std@@@?$_List_node@PAVCEterPack@@PAX@std@@SAXAAV?$allocator@U?$_List_node@PAVCEterPack@@PAX@std@@@1@PAU01@@Z PROC ; std::_List_node<CEterPack *,void *>::_Free_non_head<std::allocator<std::_List_node<CEterPack *,void *> > >, COMDAT

; 323  :         _Alnode& _Al, _Nodeptr _Head) noexcept { // free a list starting at _First and terminated at nullptr

  00000	55		 push	 ebp
  00001	8b ec		 mov	 ebp, esp
  00003	83 ec 0c	 sub	 esp, 12			; 0000000cH

; 324  :         _Head->_Prev->_Next = nullptr;

  00006	8b 45 0c	 mov	 eax, DWORD PTR __Head$[ebp]
  00009	8b 40 04	 mov	 eax, DWORD PTR [eax+4]
  0000c	83 20 00	 and	 DWORD PTR [eax], 0

; 325  : 
; 326  :         auto _Pnode = _Head->_Next;

  0000f	8b 45 0c	 mov	 eax, DWORD PTR __Head$[ebp]
  00012	8b 00		 mov	 eax, DWORD PTR [eax]
  00014	89 45 fc	 mov	 DWORD PTR __Pnode$[ebp], eax

; 327  :         for (_Nodeptr _Pnext; _Pnode; _Pnode = _Pnext) {

  00017	eb 06		 jmp	 SHORT $LN4@Free_non_h
$LN2@Free_non_h:
  00019	8b 45 f8	 mov	 eax, DWORD PTR __Pnext$2[ebp]
  0001c	89 45 fc	 mov	 DWORD PTR __Pnode$[ebp], eax
$LN4@Free_non_h:
  0001f	83 7d fc 00	 cmp	 DWORD PTR __Pnode$[ebp], 0
  00023	74 20		 je	 SHORT $LN5@Free_non_h

; 328  :             _Pnext = _Pnode->_Next;

  00025	8b 45 fc	 mov	 eax, DWORD PTR __Pnode$[ebp]
  00028	8b 00		 mov	 eax, DWORD PTR [eax]
  0002a	89 45 f8	 mov	 DWORD PTR __Pnext$2[ebp], eax

; 317  :         allocator_traits<_Alnode>::destroy(_Al, _STD addressof(_Ptr->_Myval));

  0002d	8b 45 fc	 mov	 eax, DWORD PTR __Pnode$[ebp]
  00030	83 c0 08	 add	 eax, 8
; File C:\Program Files (x86)\Microsoft Visual Studio\2019\Community\VC\Tools\MSVC\14.28.29333\include\xstddef

; 275  :     return __builtin_addressof(_Val);

  00033	89 45 f4	 mov	 DWORD PTR $T1[ebp], eax
; File C:\Program Files (x86)\Microsoft Visual Studio\2019\Community\VC\Tools\MSVC\14.28.29333\include\list

; 318  :         _Freenode0(_Al, _Ptr);

  00036	ff 75 fc	 push	 DWORD PTR __Pnode$[ebp]
  00039	ff 75 08	 push	 DWORD PTR __Al$[ebp]
  0003c	e8 00 00 00 00	 call	 ??$_Freenode0@V?$allocator@U?$_List_node@PAVCEterPack@@PAX@std@@@std@@@?$_List_node@PAVCEterPack@@PAX@std@@SAXAAV?$allocator@U?$_List_node@PAVCEterPack@@PAX@std@@@1@PAU01@@Z ; std::_List_node<CEterPack *,void *>::_Freenode0<std::allocator<std::_List_node<CEterPack *,void *> > >
  00041	59		 pop	 ecx
  00042	59		 pop	 ecx

; 329  :             _Freenode(_Al, _Pnode);
; 330  :         }

  00043	eb d4		 jmp	 SHORT $LN2@Free_non_h
$LN5@Free_non_h:

; 331  :     }

  00045	c9		 leave
  00046	c3		 ret	 0
??$_Free_non_head@V?$allocator@U?$_List_node@PAVCEterPack@@PAX@std@@@std@@@?$_List_node@PAVCEterPack@@PAX@std@@SAXAAV?$allocator@U?$_List_node@PAVCEterPack@@PAX@std@@@1@PAU01@@Z ENDP ; std::_List_node<CEterPack *,void *>::_Free_non_head<std::allocator<std::_List_node<CEterPack *,void *> > >
_TEXT	ENDS
; Function compile flags: /Odspy
; File C:\Program Files (x86)\Microsoft Visual Studio\2019\Community\VC\Tools\MSVC\14.28.29333\include\xmemory
; File C:\Program Files (x86)\Microsoft Visual Studio\2019\Community\VC\Tools\MSVC\14.28.29333\include\xstddef
; File C:\Program Files (x86)\Microsoft Visual Studio\2019\Community\VC\Tools\MSVC\14.28.29333\include\vcruntime_new.h
; File C:\Program Files (x86)\Microsoft Visual Studio\2019\Community\VC\Tools\MSVC\14.28.29333\include\type_traits
; File C:\Program Files (x86)\Microsoft Visual Studio\2019\Community\VC\Tools\MSVC\14.28.29333\include\xmemory
;	COMDAT ??$_Construct_in_place@PAU?$_List_node@PAVCEterPack@@PAX@std@@AAPAU12@@std@@YAXAAPAU?$_List_node@PAVCEterPack@@PAX@0@0@Z
_TEXT	SEGMENT
$T1 = -12						; size = 4
$T2 = -8						; size = 4
$T3 = -4						; size = 4
__Obj$ = 8						; size = 4
_<_Args_0>$ = 12					; size = 4
??$_Construct_in_place@PAU?$_List_node@PAVCEterPack@@PAX@std@@AAPAU12@@std@@YAXAAPAU?$_List_node@PAVCEterPack@@PAX@0@0@Z PROC ; std::_Construct_in_place<std::_List_node<CEterPack *,void *> *,std::_List_node<CEterPack *,void *> * &>, COMDAT

; 228  : void _Construct_in_place(_Ty& _Obj, _Types&&... _Args) noexcept(is_nothrow_constructible_v<_Ty, _Types...>) {

  00000	55		 push	 ebp
  00001	8b ec		 mov	 ebp, esp
  00003	83 ec 0c	 sub	 esp, 12			; 0000000cH
; File C:\Program Files (x86)\Microsoft Visual Studio\2019\Community\VC\Tools\MSVC\14.28.29333\include\xstddef

; 275  :     return __builtin_addressof(_Val);

  00006	8b 45 08	 mov	 eax, DWORD PTR __Obj$[ebp]
  00009	89 45 fc	 mov	 DWORD PTR $T3[ebp], eax
; File C:\Program Files (x86)\Microsoft Visual Studio\2019\Community\VC\Tools\MSVC\14.28.29333\include\vcruntime_new.h

; 169  :         return _Where;

  0000c	8b 45 fc	 mov	 eax, DWORD PTR $T3[ebp]
  0000f	89 45 f8	 mov	 DWORD PTR $T2[ebp], eax
; File C:\Program Files (x86)\Microsoft Visual Studio\2019\Community\VC\Tools\MSVC\14.28.29333\include\type_traits

; 1443 :     return static_cast<_Ty&&>(_Arg);

  00012	8b 45 0c	 mov	 eax, DWORD PTR _<_Args_0>$[ebp]
  00015	89 45 f4	 mov	 DWORD PTR $T1[ebp], eax
; File C:\Program Files (x86)\Microsoft Visual Studio\2019\Community\VC\Tools\MSVC\14.28.29333\include\xmemory

; 229  :     ::new (const_cast<void*>(static_cast<const volatile void*>(_STD addressof(_Obj))))

  00018	8b 45 f8	 mov	 eax, DWORD PTR $T2[ebp]
  0001b	8b 4d f4	 mov	 ecx, DWORD PTR $T1[ebp]
  0001e	8b 09		 mov	 ecx, DWORD PTR [ecx]
  00020	89 08		 mov	 DWORD PTR [eax], ecx

; 230  :         _Ty(_STD forward<_Types>(_Args)...);
; 231  : }

  00022	c9		 leave
  00023	c3		 ret	 0
??$_Construct_in_place@PAU?$_List_node@PAVCEterPack@@PAX@std@@AAPAU12@@std@@YAXAAPAU?$_List_node@PAVCEterPack@@PAX@0@0@Z ENDP ; std::_Construct_in_place<std::_List_node<CEterPack *,void *> *,std::_List_node<CEterPack *,void *> * &>
_TEXT	ENDS
; Function compile flags: /Odspy
; File C:\Program Files (x86)\Microsoft Visual Studio\2019\Community\VC\Tools\MSVC\14.28.29333\include\list
; File C:\Program Files (x86)\Microsoft Visual Studio\2019\Community\VC\Tools\MSVC\14.28.29333\include\xmemory
; File C:\Program Files (x86)\Microsoft Visual Studio\2019\Community\VC\Tools\MSVC\14.28.29333\include\list
; File C:\Program Files (x86)\Microsoft Visual Studio\2019\Community\VC\Tools\MSVC\14.28.29333\include\xmemory
; File C:\Program Files (x86)\Microsoft Visual Studio\2019\Community\VC\Tools\MSVC\14.28.29333\include\limits
; File C:\Program Files (x86)\Microsoft Visual Studio\2019\Community\VC\Tools\MSVC\14.28.29333\include\list
; File C:\Program Files (x86)\Microsoft Visual Studio\2019\Community\VC\Tools\MSVC\14.28.29333\include\utility
; File C:\Program Files (x86)\Microsoft Visual Studio\2019\Community\VC\Tools\MSVC\14.28.29333\include\list
; File C:\Program Files (x86)\Microsoft Visual Studio\2019\Community\VC\Tools\MSVC\14.28.29333\include\xmemory
; File C:\Program Files (x86)\Microsoft Visual Studio\2019\Community\VC\Tools\MSVC\14.28.29333\include\list
; File C:\Program Files (x86)\Microsoft Visual Studio\2019\Community\VC\Tools\MSVC\14.28.29333\include\type_traits
; File C:\Program Files (x86)\Microsoft Visual Studio\2019\Community\VC\Tools\MSVC\14.28.29333\include\list
;	COMDAT ??$_Emplace@ABQAVCEterPack@@@?$list@PAVCEterPack@@V?$allocator@PAVCEterPack@@@std@@@std@@QAEPAU?$_List_node@PAVCEterPack@@PAX@1@QAU21@ABQAVCEterPack@@@Z
_TEXT	SEGMENT
__Op$ = -76						; size = 8
$T1 = -68						; size = 4
$T2 = -64						; size = 4
$T3 = -60						; size = 4
$T4 = -56						; size = 4
$T5 = -52						; size = 4
$T6 = -48						; size = 4
$T7 = -44						; size = 4
$T8 = -40						; size = 4
$T9 = -36						; size = 4
$T10 = -32						; size = 4
tv80 = -28						; size = 4
tv82 = -24						; size = 4
tv94 = -20						; size = 4
$T11 = -16						; size = 4
$T12 = -12						; size = 4
__Mysize$ = -8						; size = 4
_this$ = -4						; size = 4
__Where$ = 8						; size = 4
_<_Val_0>$ = 12						; size = 4
??$_Emplace@ABQAVCEterPack@@@?$list@PAVCEterPack@@V?$allocator@PAVCEterPack@@@std@@@std@@QAEPAU?$_List_node@PAVCEterPack@@PAX@1@QAU21@ABQAVCEterPack@@@Z PROC ; std::list<CEterPack *,std::allocator<CEterPack *> >::_Emplace<CEterPack * const &>, COMDAT
; _this$ = ecx

; 1012 :     _Nodeptr _Emplace(const _Nodeptr _Where, _Valty&&... _Val) { // insert element at _Where

  00000	55		 push	 ebp
  00001	8b ec		 mov	 ebp, esp
  00003	83 ec 4c	 sub	 esp, 76			; 0000004cH
  00006	89 4d fc	 mov	 DWORD PTR _this$[ebp], ecx

; 1013 :         size_type& _Mysize = _Mypair._Myval2._Mysize;

  00009	8b 45 fc	 mov	 eax, DWORD PTR _this$[ebp]
  0000c	83 c0 04	 add	 eax, 4
  0000f	89 45 f8	 mov	 DWORD PTR __Mysize$[ebp], eax

; 1791 :         return _Mypair._Get_first();

  00012	8b 45 fc	 mov	 eax, DWORD PTR _this$[ebp]
; File C:\Program Files (x86)\Microsoft Visual Studio\2019\Community\VC\Tools\MSVC\14.28.29333\include\xmemory

; 1351 :         return *this;

  00015	89 45 e0	 mov	 DWORD PTR $T10[ebp], eax
; File C:\Program Files (x86)\Microsoft Visual Studio\2019\Community\VC\Tools\MSVC\14.28.29333\include\list

; 1791 :         return _Mypair._Get_first();

  00018	8b 45 e0	 mov	 eax, DWORD PTR $T10[ebp]
  0001b	89 45 c4	 mov	 DWORD PTR $T3[ebp], eax
; File C:\Program Files (x86)\Microsoft Visual Studio\2019\Community\VC\Tools\MSVC\14.28.29333\include\xmemory

; 710  :         return static_cast<size_t>(-1) / sizeof(value_type);

  0001e	c7 45 f4 55 55
	55 15		 mov	 DWORD PTR $T12[ebp], 357913941 ; 15555555H
; File C:\Program Files (x86)\Microsoft Visual Studio\2019\Community\VC\Tools\MSVC\14.28.29333\include\limits

; 557  :         return INT_MAX;

  00025	c7 45 dc ff ff
	ff 7f		 mov	 DWORD PTR $T9[ebp], 2147483647 ; 7fffffffH
; File C:\Program Files (x86)\Microsoft Visual Studio\2019\Community\VC\Tools\MSVC\14.28.29333\include\list

; 1195 :         return (_STD min)(

  0002c	8b 45 dc	 mov	 eax, DWORD PTR $T9[ebp]
  0002f	89 45 f0	 mov	 DWORD PTR $T11[ebp], eax
; File C:\Program Files (x86)\Microsoft Visual Studio\2019\Community\VC\Tools\MSVC\14.28.29333\include\utility

; 68   :     return _Right < _Left ? _Right : _Left;

  00032	8b 45 f4	 mov	 eax, DWORD PTR $T12[ebp]
  00035	3b 45 f0	 cmp	 eax, DWORD PTR $T11[ebp]
  00038	73 08		 jae	 SHORT $LN22@Emplace
  0003a	8d 45 f4	 lea	 eax, DWORD PTR $T12[ebp]
  0003d	89 45 ec	 mov	 DWORD PTR tv94[ebp], eax
  00040	eb 06		 jmp	 SHORT $LN23@Emplace
$LN22@Emplace:
  00042	8d 45 f0	 lea	 eax, DWORD PTR $T11[ebp]
  00045	89 45 ec	 mov	 DWORD PTR tv94[ebp], eax
$LN23@Emplace:
  00048	8b 45 ec	 mov	 eax, DWORD PTR tv94[ebp]
  0004b	89 45 d8	 mov	 DWORD PTR $T8[ebp], eax
  0004e	8b 45 d8	 mov	 eax, DWORD PTR $T8[ebp]
  00051	89 45 d4	 mov	 DWORD PTR $T7[ebp], eax
; File C:\Program Files (x86)\Microsoft Visual Studio\2019\Community\VC\Tools\MSVC\14.28.29333\include\list

; 1195 :         return (_STD min)(

  00054	8b 45 d4	 mov	 eax, DWORD PTR $T7[ebp]
  00057	8b 00		 mov	 eax, DWORD PTR [eax]
  00059	89 45 d0	 mov	 DWORD PTR $T6[ebp], eax

; 1014 :         if (_Mysize == max_size()) {

  0005c	8b 45 f8	 mov	 eax, DWORD PTR __Mysize$[ebp]
  0005f	8b 00		 mov	 eax, DWORD PTR [eax]
  00061	3b 45 d0	 cmp	 eax, DWORD PTR $T6[ebp]
  00064	75 0a		 jne	 SHORT $LN2@Emplace

; 1015 :             _Xlength_error("list too long");

  00066	68 00 00 00 00	 push	 OFFSET ??_C@_0O@NKNMEGII@list?5too?5long@
  0006b	e8 00 00 00 00	 call	 ?_Xlength_error@std@@YAXPBD@Z ; std::_Xlength_error
$LN2@Emplace:

; 1018 :         _List_node_emplace_op2<_Alnode> _Op{_Getal(), _STD forward<_Valty>(_Val)...};

  00070	8b 45 c0	 mov	 eax, DWORD PTR $T2[ebp]
  00073	89 45 e4	 mov	 DWORD PTR tv80[ebp], eax

; 1787 :         return _Mypair._Get_first();

  00076	8b 45 fc	 mov	 eax, DWORD PTR _this$[ebp]
; File C:\Program Files (x86)\Microsoft Visual Studio\2019\Community\VC\Tools\MSVC\14.28.29333\include\xmemory

; 1347 :         return *this;

  00079	89 45 cc	 mov	 DWORD PTR $T5[ebp], eax
; File C:\Program Files (x86)\Microsoft Visual Studio\2019\Community\VC\Tools\MSVC\14.28.29333\include\list

; 1787 :         return _Mypair._Get_first();

  0007c	8b 45 cc	 mov	 eax, DWORD PTR $T5[ebp]
  0007f	89 45 e4	 mov	 DWORD PTR tv80[ebp], eax

; 1018 :         _List_node_emplace_op2<_Alnode> _Op{_Getal(), _STD forward<_Valty>(_Val)...};

  00082	8b 45 bc	 mov	 eax, DWORD PTR $T1[ebp]
  00085	89 45 e8	 mov	 DWORD PTR tv82[ebp], eax
; File C:\Program Files (x86)\Microsoft Visual Studio\2019\Community\VC\Tools\MSVC\14.28.29333\include\type_traits

; 1443 :     return static_cast<_Ty&&>(_Arg);

  00088	8b 45 0c	 mov	 eax, DWORD PTR _<_Val_0>$[ebp]
  0008b	89 45 e8	 mov	 DWORD PTR tv82[ebp], eax
; File C:\Program Files (x86)\Microsoft Visual Studio\2019\Community\VC\Tools\MSVC\14.28.29333\include\list

; 1018 :         _List_node_emplace_op2<_Alnode> _Op{_Getal(), _STD forward<_Valty>(_Val)...};

  0008e	ff 75 e8	 push	 DWORD PTR tv82[ebp]
  00091	ff 75 e4	 push	 DWORD PTR tv80[ebp]
  00094	8d 4d b4	 lea	 ecx, DWORD PTR __Op$[ebp]
  00097	e8 00 00 00 00	 call	 ??$?0ABQAVCEterPack@@@?$_List_node_emplace_op2@V?$allocator@U?$_List_node@PAVCEterPack@@PAX@std@@@std@@@std@@QAE@AAV?$allocator@U?$_List_node@PAVCEterPack@@PAX@std@@@1@ABQAVCEterPack@@@Z ; std::_List_node_emplace_op2<std::allocator<std::_List_node<CEterPack *,void *> > >::_List_node_emplace_op2<std::allocator<std::_List_node<CEterPack *,void *> > ><CEterPack * const &>

; 1019 :         ++_Mysize;

  0009c	8b 45 f8	 mov	 eax, DWORD PTR __Mysize$[ebp]
  0009f	8b 00		 mov	 eax, DWORD PTR [eax]
  000a1	40		 inc	 eax
  000a2	8b 4d f8	 mov	 ecx, DWORD PTR __Mysize$[ebp]
  000a5	89 01		 mov	 DWORD PTR [ecx], eax

; 1020 :         return _Op._Transfer_before(_Where);

  000a7	ff 75 08	 push	 DWORD PTR __Where$[ebp]
  000aa	8d 4d b4	 lea	 ecx, DWORD PTR __Op$[ebp]
  000ad	e8 00 00 00 00	 call	 ?_Transfer_before@?$_List_node_emplace_op2@V?$allocator@U?$_List_node@PAVCEterPack@@PAX@std@@@std@@@std@@QAEPAU?$_List_node@PAVCEterPack@@PAX@2@QAU32@@Z ; std::_List_node_emplace_op2<std::allocator<std::_List_node<CEterPack *,void *> > >::_Transfer_before
  000b2	89 45 c8	 mov	 DWORD PTR $T4[ebp], eax
  000b5	8d 4d b4	 lea	 ecx, DWORD PTR __Op$[ebp]
  000b8	e8 00 00 00 00	 call	 ??1?$_List_node_emplace_op2@V?$allocator@U?$_List_node@PAVCEterPack@@PAX@std@@@std@@@std@@QAE@XZ ; std::_List_node_emplace_op2<std::allocator<std::_List_node<CEterPack *,void *> > >::~_List_node_emplace_op2<std::allocator<std::_List_node<CEterPack *,void *> > >
  000bd	8b 45 c8	 mov	 eax, DWORD PTR $T4[ebp]
$LN3@Emplace:

; 1021 :     }

  000c0	c9		 leave
  000c1	c2 08 00	 ret	 8
??$_Emplace@ABQAVCEterPack@@@?$list@PAVCEterPack@@V?$allocator@PAVCEterPack@@@std@@@std@@QAEPAU?$_List_node@PAVCEterPack@@PAX@1@QAU21@ABQAVCEterPack@@@Z ENDP ; std::list<CEterPack *,std::allocator<CEterPack *> >::_Emplace<CEterPack * const &>
_TEXT	ENDS
; Function compile flags: /Odspy
; File C:\Program Files (x86)\Microsoft Visual Studio\2019\Community\VC\Tools\MSVC\14.28.29333\include\xstring
;	COMDAT ??__FstrFileName@?1??GetFromPack@CEterPackManager@@QAE_NAAVCMappedFile@@PBDPAPBX@Z@YAXXZ
text$yd	SEGMENT
??__FstrFileName@?1??GetFromPack@CEterPackManager@@QAE_NAAVCMappedFile@@PBDPAPBX@Z@YAXXZ PROC ; `CEterPackManager::GetFromPack'::`2'::`dynamic atexit destructor for 'strFileName'', COMDAT
  00000	55		 push	 ebp
  00001	8b ec		 mov	 ebp, esp

; 2801 :         _Tidy_deallocate();

  00003	b9 00 00 00 00	 mov	 ecx, OFFSET ?strFileName@?1??GetFromPack@CEterPackManager@@QAE_NAAVCMappedFile@@PBDPAPBX@Z@4V?$basic_string@DU?$char_traits@D@std@@V?$allocator@D@2@@std@@A
  00008	e8 00 00 00 00	 call	 ?_Tidy_deallocate@?$basic_string@DU?$char_traits@D@std@@V?$allocator@D@2@@std@@AAEXXZ ; std::basic_string<char,std::char_traits<char>,std::allocator<char> >::_Tidy_deallocate
  0000d	5d		 pop	 ebp
  0000e	c3		 ret	 0
??__FstrFileName@?1??GetFromPack@CEterPackManager@@QAE_NAAVCMappedFile@@PBDPAPBX@Z@YAXXZ ENDP ; `CEterPackManager::GetFromPack'::`2'::`dynamic atexit destructor for 'strFileName''
text$yd	ENDS
; Function compile flags: /Odspy
; File D:\Metin2 Server Files\mainline\SRC_2014\Metin2Client\EterPack\EterPackManager.cpp
;	COMDAT ??1FinderLock@@QAE@XZ
_TEXT	SEGMENT
_this$ = -4						; size = 4
??1FinderLock@@QAE@XZ PROC				; FinderLock::~FinderLock, COMDAT
; _this$ = ecx

; 189  : 	{

  00000	55		 push	 ebp
  00001	8b ec		 mov	 ebp, esp
  00003	51		 push	 ecx
  00004	89 4d fc	 mov	 DWORD PTR _this$[ebp], ecx

; 190  : 		LeaveCriticalSection(p_cs);

  00007	8b 45 fc	 mov	 eax, DWORD PTR _this$[ebp]
  0000a	ff 30		 push	 DWORD PTR [eax]
  0000c	ff 15 00 00 00
	00		 call	 DWORD PTR __imp__LeaveCriticalSection@4

; 191  : 	}

  00012	c9		 leave
  00013	c3		 ret	 0
??1FinderLock@@QAE@XZ ENDP				; FinderLock::~FinderLock
_TEXT	ENDS
; Function compile flags: /Odspy
; File C:\Program Files (x86)\Microsoft Visual Studio\2019\Community\VC\Tools\MSVC\14.28.29333\include\xstring
;	COMDAT ??1?$pair@$$CBV?$basic_string@DU?$char_traits@D@std@@V?$allocator@D@2@@std@@PAVCEterPack@@@std@@QAE@XZ
_TEXT	SEGMENT
_this$ = -4						; size = 4
??1?$pair@$$CBV?$basic_string@DU?$char_traits@D@std@@V?$allocator@D@2@@std@@PAVCEterPack@@@std@@QAE@XZ PROC ; std::pair<std::basic_string<char,std::char_traits<char>,std::allocator<char> > const ,CEterPack *>::~pair<std::basic_string<char,std::char_traits<char>,std::allocator<char> > const ,CEterPack *>, COMDAT
; _this$ = ecx
  00000	55		 push	 ebp
  00001	8b ec		 mov	 ebp, esp
  00003	51		 push	 ecx
  00004	89 4d fc	 mov	 DWORD PTR _this$[ebp], ecx

; 2801 :         _Tidy_deallocate();

  00007	8b 4d fc	 mov	 ecx, DWORD PTR _this$[ebp]
  0000a	e8 00 00 00 00	 call	 ?_Tidy_deallocate@?$basic_string@DU?$char_traits@D@std@@V?$allocator@D@2@@std@@AAEXXZ ; std::basic_string<char,std::char_traits<char>,std::allocator<char> >::_Tidy_deallocate
  0000f	c9		 leave
  00010	c3		 ret	 0
??1?$pair@$$CBV?$basic_string@DU?$char_traits@D@std@@V?$allocator@D@2@@std@@PAVCEterPack@@@std@@QAE@XZ ENDP ; std::pair<std::basic_string<char,std::char_traits<char>,std::allocator<char> > const ,CEterPack *>::~pair<std::basic_string<char,std::char_traits<char>,std::allocator<char> > const ,CEterPack *>
_TEXT	ENDS
; Function compile flags: /Odspy
;	COMDAT ??_GCEterPackManager@@UAEPAXI@Z
_TEXT	SEGMENT
_this$ = -4						; size = 4
___flags$ = 8						; size = 4
??_GCEterPackManager@@UAEPAXI@Z PROC			; CEterPackManager::`scalar deleting destructor', COMDAT
; _this$ = ecx
  00000	55		 push	 ebp
  00001	8b ec		 mov	 ebp, esp
  00003	51		 push	 ecx
  00004	89 4d fc	 mov	 DWORD PTR _this$[ebp], ecx
  00007	8b 4d fc	 mov	 ecx, DWORD PTR _this$[ebp]
  0000a	e8 00 00 00 00	 call	 ??1CEterPackManager@@UAE@XZ ; CEterPackManager::~CEterPackManager
  0000f	8b 45 08	 mov	 eax, DWORD PTR ___flags$[ebp]
  00012	83 e0 01	 and	 eax, 1
  00015	74 0f		 je	 SHORT $LN2@scalar
  00017	68 78 14 00 00	 push	 5240			; 00001478H
  0001c	ff 75 fc	 push	 DWORD PTR _this$[ebp]
  0001f	e8 00 00 00 00	 call	 ??3@YAXPAXI@Z		; operator delete
  00024	59		 pop	 ecx
  00025	59		 pop	 ecx
$LN2@scalar:
  00026	8b 45 fc	 mov	 eax, DWORD PTR _this$[ebp]
  00029	c9		 leave
  0002a	c2 04 00	 ret	 4
??_GCEterPackManager@@UAEPAXI@Z ENDP			; CEterPackManager::`scalar deleting destructor'
_TEXT	ENDS
; Function compile flags: /Odspy
; File D:\Metin2 Server Files\mainline\SRC_2014\M2Data\include\boost\unordered\unordered_map.hpp
; File D:\Metin2 Server Files\mainline\SRC_2014\M2Data\include\boost\unordered\detail\implementation.hpp
; File D:\Metin2 Server Files\mainline\SRC_2014\M2Data\include\boost\unordered\unordered_map.hpp
;	COMDAT ?find@?$unordered_map@KUSCache@CEterPackManager@@U?$hash@K@boost@@U?$equal_to@K@std@@V?$allocator@U?$pair@$$CBKUSCache@CEterPackManager@@@std@@@6@@unordered@boost@@QAE?AU?$iterator@U?$ptr_node@U?$pair@$$CBKUSCache@CEterPackManager@@@std@@@detail@unordered@boost@@@iterator_detail@23@ABK@Z
_TEXT	SEGMENT
_x$ = -8						; size = 4
_this$ = -4						; size = 4
___$ReturnUdt$ = 8					; size = 4
_k$ = 12						; size = 4
?find@?$unordered_map@KUSCache@CEterPackManager@@U?$hash@K@boost@@U?$equal_to@K@std@@V?$allocator@U?$pair@$$CBKUSCache@CEterPackManager@@@std@@@6@@unordered@boost@@QAE?AU?$iterator@U?$ptr_node@U?$pair@$$CBKUSCache@CEterPackManager@@@std@@@detail@unordered@boost@@@iterator_detail@23@ABK@Z PROC ; boost::unordered::unordered_map<unsigned long,CEterPackManager::SCache,boost::hash<unsigned long>,std::equal_to<unsigned long>,std::allocator<std::pair<unsigned long const ,CEterPackManager::SCache> > >::find, COMDAT
; _this$ = ecx

; 1803 :     {

  00000	55		 push	 ebp
  00001	8b ec		 mov	 ebp, esp
  00003	51		 push	 ecx
  00004	51		 push	 ecx
  00005	89 4d fc	 mov	 DWORD PTR _this$[ebp], ecx

; 1804 :       return iterator(table_.find_node(k));

  00008	ff 75 0c	 push	 DWORD PTR _k$[ebp]
  0000b	8b 4d fc	 mov	 ecx, DWORD PTR _this$[ebp]
  0000e	e8 00 00 00 00	 call	 ?find_node@?$table@U?$map@V?$allocator@U?$pair@$$CBKUSCache@CEterPackManager@@@std@@@std@@KUSCache@CEterPackManager@@U?$hash@K@boost@@U?$equal_to@K@2@@detail@unordered@boost@@@detail@unordered@boost@@QBEPAU?$ptr_node@U?$pair@$$CBKUSCache@CEterPackManager@@@std@@@234@ABK@Z ; boost::unordered::detail::table<boost::unordered::detail::map<std::allocator<std::pair<unsigned long const ,CEterPackManager::SCache> >,unsigned long,CEterPackManager::SCache,boost::hash<unsigned long>,std::equal_to<unsigned long> > >::find_node
  00013	89 45 f8	 mov	 DWORD PTR _x$[ebp], eax
; File D:\Metin2 Server Files\mainline\SRC_2014\M2Data\include\boost\unordered\detail\implementation.hpp

; 2371 :           : node_(static_cast<node_pointer>(x))

  00016	8b 45 08	 mov	 eax, DWORD PTR ___$ReturnUdt$[ebp]
  00019	8b 4d f8	 mov	 ecx, DWORD PTR _x$[ebp]
  0001c	89 08		 mov	 DWORD PTR [eax], ecx
; File D:\Metin2 Server Files\mainline\SRC_2014\M2Data\include\boost\unordered\unordered_map.hpp

; 1804 :       return iterator(table_.find_node(k));

  0001e	8b 45 08	 mov	 eax, DWORD PTR ___$ReturnUdt$[ebp]

; 1805 :     }

  00021	c9		 leave
  00022	c2 08 00	 ret	 8
?find@?$unordered_map@KUSCache@CEterPackManager@@U?$hash@K@boost@@U?$equal_to@K@std@@V?$allocator@U?$pair@$$CBKUSCache@CEterPackManager@@@std@@@6@@unordered@boost@@QAE?AU?$iterator@U?$ptr_node@U?$pair@$$CBKUSCache@CEterPackManager@@@std@@@detail@unordered@boost@@@iterator_detail@23@ABK@Z ENDP ; boost::unordered::unordered_map<unsigned long,CEterPackManager::SCache,boost::hash<unsigned long>,std::equal_to<unsigned long>,std::allocator<std::pair<unsigned long const ,CEterPackManager::SCache> > >::find
_TEXT	ENDS
; Function compile flags: /Odspy
; File D:\Metin2 Server Files\mainline\SRC_2014\M2Data\include\boost\unordered\unordered_map.hpp
; File D:\Metin2 Server Files\mainline\SRC_2014\M2Data\include\boost\unordered\detail\implementation.hpp
; File D:\Metin2 Server Files\mainline\SRC_2014\M2Data\include\boost\unordered\unordered_map.hpp
;	COMDAT ??1?$unordered_map@KUSCache@CEterPackManager@@U?$hash@K@boost@@U?$equal_to@K@std@@V?$allocator@U?$pair@$$CBKUSCache@CEterPackManager@@@std@@@6@@unordered@boost@@QAE@XZ
_TEXT	SEGMENT
_this$ = -16						; size = 4
__$EHRec$ = -12						; size = 12
??1?$unordered_map@KUSCache@CEterPackManager@@U?$hash@K@boost@@U?$equal_to@K@std@@V?$allocator@U?$pair@$$CBKUSCache@CEterPackManager@@@std@@@6@@unordered@boost@@QAE@XZ PROC ; boost::unordered::unordered_map<unsigned long,CEterPackManager::SCache,boost::hash<unsigned long>,std::equal_to<unsigned long>,std::allocator<std::pair<unsigned long const ,CEterPackManager::SCache> > >::~unordered_map<unsigned long,CEterPackManager::SCache,boost::hash<unsigned long>,std::equal_to<unsigned long>,std::allocator<std::pair<unsigned long const ,CEterPackManager::SCache> > >, COMDAT
; _this$ = ecx

; 1645 :     {

  00000	55		 push	 ebp
  00001	8b ec		 mov	 ebp, esp
  00003	6a ff		 push	 -1
  00005	68 00 00 00 00	 push	 __ehhandler$??1?$unordered_map@KUSCache@CEterPackManager@@U?$hash@K@boost@@U?$equal_to@K@std@@V?$allocator@U?$pair@$$CBKUSCache@CEterPackManager@@@std@@@6@@unordered@boost@@QAE@XZ
  0000a	64 a1 00 00 00
	00		 mov	 eax, DWORD PTR fs:0
  00010	50		 push	 eax
  00011	51		 push	 ecx
  00012	a1 00 00 00 00	 mov	 eax, DWORD PTR ___security_cookie
  00017	33 c5		 xor	 eax, ebp
  00019	50		 push	 eax
  0001a	8d 45 f4	 lea	 eax, DWORD PTR __$EHRec$[ebp]
  0001d	64 a3 00 00 00
	00		 mov	 DWORD PTR fs:0, eax
  00023	89 4d f0	 mov	 DWORD PTR _this$[ebp], ecx
; File D:\Metin2 Server Files\mainline\SRC_2014\M2Data\include\boost\unordered\detail\implementation.hpp

; 3333 :         ~table() { delete_buckets(); }

  00026	83 65 fc 00	 and	 DWORD PTR __$EHRec$[ebp+8], 0
  0002a	8b 4d f0	 mov	 ecx, DWORD PTR _this$[ebp]
  0002d	e8 00 00 00 00	 call	 ?delete_buckets@?$table@U?$map@V?$allocator@U?$pair@$$CBKUSCache@CEterPackManager@@@std@@@std@@KUSCache@CEterPackManager@@U?$hash@K@boost@@U?$equal_to@K@2@@detail@unordered@boost@@@detail@unordered@boost@@QAEXXZ ; boost::unordered::detail::table<boost::unordered::detail::map<std::allocator<std::pair<unsigned long const ,CEterPackManager::SCache> >,unsigned long,CEterPackManager::SCache,boost::hash<unsigned long>,std::equal_to<unsigned long> > >::delete_buckets
  00032	83 4d fc ff	 or	 DWORD PTR __$EHRec$[ebp+8], -1
; File D:\Metin2 Server Files\mainline\SRC_2014\M2Data\include\boost\unordered\unordered_map.hpp

; 1646 :     }

  00036	8b 4d f4	 mov	 ecx, DWORD PTR __$EHRec$[ebp]
  00039	64 89 0d 00 00
	00 00		 mov	 DWORD PTR fs:0, ecx
  00040	59		 pop	 ecx
  00041	c9		 leave
  00042	c3		 ret	 0
  00043	cc		 int	 3
  00044	cc		 int	 3
  00045	cc		 int	 3
  00046	cc		 int	 3
  00047	cc		 int	 3
_TEXT	ENDS
;	COMDAT text$x
text$x	SEGMENT
__ehhandler$??1?$unordered_map@KUSCache@CEterPackManager@@U?$hash@K@boost@@U?$equal_to@K@std@@V?$allocator@U?$pair@$$CBKUSCache@CEterPackManager@@@std@@@6@@unordered@boost@@QAE@XZ:
  00000	90		 npad	 1
  00001	90		 npad	 1
  00002	8b 54 24 08	 mov	 edx, DWORD PTR [esp+8]
  00006	8d 42 0c	 lea	 eax, DWORD PTR [edx+12]
  00009	8b 4a f8	 mov	 ecx, DWORD PTR [edx-8]
  0000c	33 c8		 xor	 ecx, eax
  0000e	e8 00 00 00 00	 call	 @__security_check_cookie@4
  00013	b8 00 00 00 00	 mov	 eax, OFFSET __ehfuncinfo$??1?$unordered_map@KUSCache@CEterPackManager@@U?$hash@K@boost@@U?$equal_to@K@std@@V?$allocator@U?$pair@$$CBKUSCache@CEterPackManager@@@std@@@6@@unordered@boost@@QAE@XZ
  00018	e9 00 00 00 00	 jmp	 ___CxxFrameHandler3
text$x	ENDS
??1?$unordered_map@KUSCache@CEterPackManager@@U?$hash@K@boost@@U?$equal_to@K@std@@V?$allocator@U?$pair@$$CBKUSCache@CEterPackManager@@@std@@@6@@unordered@boost@@QAE@XZ ENDP ; boost::unordered::unordered_map<unsigned long,CEterPackManager::SCache,boost::hash<unsigned long>,std::equal_to<unsigned long>,std::allocator<std::pair<unsigned long const ,CEterPackManager::SCache> > >::~unordered_map<unsigned long,CEterPackManager::SCache,boost::hash<unsigned long>,std::equal_to<unsigned long>,std::allocator<std::pair<unsigned long const ,CEterPackManager::SCache> > >
; Function compile flags: /Odspy
; File D:\Metin2 Server Files\mainline\SRC_2014\M2Data\include\boost\unordered\unordered_map.hpp
;	COMDAT ??0?$unordered_map@KUSCache@CEterPackManager@@U?$hash@K@boost@@U?$equal_to@K@std@@V?$allocator@U?$pair@$$CBKUSCache@CEterPackManager@@@std@@@6@@unordered@boost@@QAE@XZ
_TEXT	SEGMENT
_this$ = -8						; size = 4
$T1 = -3						; size = 1
$T2 = -2						; size = 1
$T3 = -1						; size = 1
??0?$unordered_map@KUSCache@CEterPackManager@@U?$hash@K@boost@@U?$equal_to@K@std@@V?$allocator@U?$pair@$$CBKUSCache@CEterPackManager@@@std@@@6@@unordered@boost@@QAE@XZ PROC ; boost::unordered::unordered_map<unsigned long,CEterPackManager::SCache,boost::hash<unsigned long>,std::equal_to<unsigned long>,std::allocator<std::pair<unsigned long const ,CEterPackManager::SCache> > >::unordered_map<unsigned long,CEterPackManager::SCache,boost::hash<unsigned long>,std::equal_to<unsigned long>,std::allocator<std::pair<unsigned long const ,CEterPackManager::SCache> > >, COMDAT
; _this$ = ecx

; 1510 :     {

  00000	55		 push	 ebp
  00001	8b ec		 mov	 ebp, esp
  00003	51		 push	 ecx
  00004	51		 push	 ecx
  00005	89 4d f8	 mov	 DWORD PTR _this$[ebp], ecx

; 1508 :         : table_(boost::unordered::detail::default_bucket_count, hasher(),

  00008	8d 45 ff	 lea	 eax, DWORD PTR $T3[ebp]
  0000b	50		 push	 eax
  0000c	8d 45 fe	 lea	 eax, DWORD PTR $T2[ebp]
  0000f	50		 push	 eax
  00010	8d 45 fd	 lea	 eax, DWORD PTR $T1[ebp]
  00013	50		 push	 eax
  00014	6a 0b		 push	 11			; 0000000bH
  00016	8b 4d f8	 mov	 ecx, DWORD PTR _this$[ebp]
  00019	e8 00 00 00 00	 call	 ??0?$table@U?$map@V?$allocator@U?$pair@$$CBKUSCache@CEterPackManager@@@std@@@std@@KUSCache@CEterPackManager@@U?$hash@K@boost@@U?$equal_to@K@2@@detail@unordered@boost@@@detail@unordered@boost@@QAE@IABU?$hash@K@3@ABU?$equal_to@K@std@@ABV?$allocator@U?$ptr_node@U?$pair@$$CBKUSCache@CEterPackManager@@@std@@@detail@unordered@boost@@@6@@Z ; boost::unordered::detail::table<boost::unordered::detail::map<std::allocator<std::pair<unsigned long const ,CEterPackManager::SCache> >,unsigned long,CEterPackManager::SCache,boost::hash<unsigned long>,std::equal_to<unsigned long> > >::table<boost::unordered::detail::map<std::allocator<std::pair<unsigned long const ,CEterPackManager::SCache> >,unsigned long,CEterPackManager::SCache,boost::hash<unsigned long>,std::equal_to<unsigned long> > >

; 1511 :     }

  0001e	8b 45 f8	 mov	 eax, DWORD PTR _this$[ebp]
  00021	c9		 leave
  00022	c3		 ret	 0
??0?$unordered_map@KUSCache@CEterPackManager@@U?$hash@K@boost@@U?$equal_to@K@std@@V?$allocator@U?$pair@$$CBKUSCache@CEterPackManager@@@std@@@6@@unordered@boost@@QAE@XZ ENDP ; boost::unordered::unordered_map<unsigned long,CEterPackManager::SCache,boost::hash<unsigned long>,std::equal_to<unsigned long>,std::allocator<std::pair<unsigned long const ,CEterPackManager::SCache> > >::unordered_map<unsigned long,CEterPackManager::SCache,boost::hash<unsigned long>,std::equal_to<unsigned long>,std::allocator<std::pair<unsigned long const ,CEterPackManager::SCache> > >
_TEXT	ENDS
; Function compile flags: /Odspy
; File D:\Metin2 Server Files\mainline\SRC_2014\M2Data\include\boost\unordered\detail\implementation.hpp
;	COMDAT ?resize_and_add_node_unique@?$table@U?$map@V?$allocator@U?$pair@$$CBKUSCache@CEterPackManager@@@std@@@std@@KUSCache@CEterPackManager@@U?$hash@K@boost@@U?$equal_to@K@2@@detail@unordered@boost@@@detail@unordered@boost@@QAEPAU?$ptr_node@U?$pair@$$CBKUSCache@CEterPackManager@@@std@@@234@PAU5234@I@Z
_TEXT	SEGMENT
_b$ = -40						; size = 8
$T2 = -32						; size = 4
_p$3 = -28						; size = 4
$T4 = -24						; size = 4
_this$ = -20						; size = 4
_this$ = -16						; size = 4
__$EHRec$ = -12						; size = 12
_n$ = 8							; size = 4
_key_hash$ = 12						; size = 4
?resize_and_add_node_unique@?$table@U?$map@V?$allocator@U?$pair@$$CBKUSCache@CEterPackManager@@@std@@@std@@KUSCache@CEterPackManager@@U?$hash@K@boost@@U?$equal_to@K@2@@detail@unordered@boost@@@detail@unordered@boost@@QAEPAU?$ptr_node@U?$pair@$$CBKUSCache@CEterPackManager@@@std@@@234@PAU5234@I@Z PROC ; boost::unordered::detail::table<boost::unordered::detail::map<std::allocator<std::pair<unsigned long const ,CEterPackManager::SCache> >,unsigned long,CEterPackManager::SCache,boost::hash<unsigned long>,std::equal_to<unsigned long> > >::resize_and_add_node_unique, COMDAT
; _this$ = ecx

; 3715 :         {

  00000	55		 push	 ebp
  00001	8b ec		 mov	 ebp, esp
  00003	6a ff		 push	 -1
  00005	68 00 00 00 00	 push	 __ehhandler$?resize_and_add_node_unique@?$table@U?$map@V?$allocator@U?$pair@$$CBKUSCache@CEterPackManager@@@std@@@std@@KUSCache@CEterPackManager@@U?$hash@K@boost@@U?$equal_to@K@2@@detail@unordered@boost@@@detail@unordered@boost@@QAEPAU?$ptr_node@U?$pair@$$CBKUSCache@CEterPackManager@@@std@@@234@PAU5234@I@Z
  0000a	64 a1 00 00 00
	00		 mov	 eax, DWORD PTR fs:0
  00010	50		 push	 eax
  00011	83 ec 1c	 sub	 esp, 28			; 0000001cH
  00014	a1 00 00 00 00	 mov	 eax, DWORD PTR ___security_cookie
  00019	33 c5		 xor	 eax, ebp
  0001b	50		 push	 eax
  0001c	8d 45 f4	 lea	 eax, DWORD PTR __$EHRec$[ebp]
  0001f	64 a3 00 00 00
	00		 mov	 DWORD PTR fs:0, eax
  00025	89 4d f0	 mov	 DWORD PTR _this$[ebp], ecx

; 3014 :         node_allocator& node_alloc() { return allocators_.second(); }

  00028	8b 45 f0	 mov	 eax, DWORD PTR _this$[ebp]
  0002b	83 c0 03	 add	 eax, 3
  0002e	89 45 ec	 mov	 DWORD PTR _this$[ebp], eax

; 430  :         second_type& second() { return static_cast<base2*>(this)->get(); }

  00031	74 09		 je	 SHORT $LN8@resize_and
  00033	8b 45 ec	 mov	 eax, DWORD PTR _this$[ebp]
  00036	40		 inc	 eax
  00037	89 45 e8	 mov	 DWORD PTR $T4[ebp], eax
  0003a	eb 04		 jmp	 SHORT $LN4@resize_and
$LN8@resize_and:
  0003c	83 65 e8 00	 and	 DWORD PTR $T4[ebp], 0
$LN4@resize_and:

; 1999 :         explicit node_tmp(node_pointer n, NodeAlloc& a) : alloc_(a), node_(n) {}

  00040	8b 45 e8	 mov	 eax, DWORD PTR $T4[ebp]
  00043	89 45 d8	 mov	 DWORD PTR _b$[ebp], eax
  00046	8b 45 08	 mov	 eax, DWORD PTR _n$[ebp]
  00049	89 45 dc	 mov	 DWORD PTR _b$[ebp+4], eax

; 3716 :           node_tmp b(n, this->node_alloc());

  0004c	83 65 fc 00	 and	 DWORD PTR __$EHRec$[ebp+8], 0

; 3717 :           this->reserve_for_insert(this->size_ + 1);

  00050	8b 45 f0	 mov	 eax, DWORD PTR _this$[ebp]
  00053	8b 40 08	 mov	 eax, DWORD PTR [eax+8]
  00056	40		 inc	 eax
  00057	50		 push	 eax
  00058	8b 4d f0	 mov	 ecx, DWORD PTR _this$[ebp]
  0005b	e8 00 00 00 00	 call	 ?reserve_for_insert@?$table@U?$map@V?$allocator@U?$pair@$$CBKUSCache@CEterPackManager@@@std@@@std@@KUSCache@CEterPackManager@@U?$hash@K@boost@@U?$equal_to@K@2@@detail@unordered@boost@@@detail@unordered@boost@@QAEXI@Z ; boost::unordered::detail::table<boost::unordered::detail::map<std::allocator<std::pair<unsigned long const ,CEterPackManager::SCache> >,unsigned long,CEterPackManager::SCache,boost::hash<unsigned long>,std::equal_to<unsigned long> > >::reserve_for_insert

; 2006 :           node_pointer p = node_;

  00060	8b 45 dc	 mov	 eax, DWORD PTR _b$[ebp+4]
  00063	89 45 e4	 mov	 DWORD PTR _p$3[ebp], eax

; 2007 :           node_ = node_pointer();

  00066	83 65 dc 00	 and	 DWORD PTR _b$[ebp+4], 0

; 3718 :           return this->add_node_unique(b.release(), key_hash);

  0006a	ff 75 0c	 push	 DWORD PTR _key_hash$[ebp]
  0006d	ff 75 e4	 push	 DWORD PTR _p$3[ebp]
  00070	8b 4d f0	 mov	 ecx, DWORD PTR _this$[ebp]
  00073	e8 00 00 00 00	 call	 ?add_node_unique@?$table@U?$map@V?$allocator@U?$pair@$$CBKUSCache@CEterPackManager@@@std@@@std@@KUSCache@CEterPackManager@@U?$hash@K@boost@@U?$equal_to@K@2@@detail@unordered@boost@@@detail@unordered@boost@@QAEPAU?$ptr_node@U?$pair@$$CBKUSCache@CEterPackManager@@@std@@@234@PAU5234@I@Z ; boost::unordered::detail::table<boost::unordered::detail::map<std::allocator<std::pair<unsigned long const ,CEterPackManager::SCache> >,unsigned long,CEterPackManager::SCache,boost::hash<unsigned long>,std::equal_to<unsigned long> > >::add_node_unique
  00078	89 45 e0	 mov	 DWORD PTR $T2[ebp], eax
  0007b	83 4d fc ff	 or	 DWORD PTR __$EHRec$[ebp+8], -1
  0007f	8d 4d d8	 lea	 ecx, DWORD PTR _b$[ebp]
  00082	e8 00 00 00 00	 call	 ??1?$node_tmp@V?$allocator@U?$ptr_node@U?$pair@$$CBKUSCache@CEterPackManager@@@std@@@detail@unordered@boost@@@std@@@detail@unordered@boost@@QAE@XZ ; boost::unordered::detail::node_tmp<std::allocator<boost::unordered::detail::ptr_node<std::pair<unsigned long const ,CEterPackManager::SCache> > > >::~node_tmp<std::allocator<boost::unordered::detail::ptr_node<std::pair<unsigned long const ,CEterPackManager::SCache> > > >
  00087	8b 45 e0	 mov	 eax, DWORD PTR $T2[ebp]

; 3719 :         }

  0008a	8b 4d f4	 mov	 ecx, DWORD PTR __$EHRec$[ebp]
  0008d	64 89 0d 00 00
	00 00		 mov	 DWORD PTR fs:0, ecx
  00094	59		 pop	 ecx
  00095	c9		 leave
  00096	c2 08 00	 ret	 8
_TEXT	ENDS
;	COMDAT text$x
text$x	SEGMENT
__unwindfunclet$?resize_and_add_node_unique@?$table@U?$map@V?$allocator@U?$pair@$$CBKUSCache@CEterPackManager@@@std@@@std@@KUSCache@CEterPackManager@@U?$hash@K@boost@@U?$equal_to@K@2@@detail@unordered@boost@@@detail@unordered@boost@@QAEPAU?$ptr_node@U?$pair@$$CBKUSCache@CEterPackManager@@@std@@@234@PAU5234@I@Z$0:
  00000	8d 4d d8	 lea	 ecx, DWORD PTR _b$[ebp]
  00003	e9 00 00 00 00	 jmp	 ??1?$node_tmp@V?$allocator@U?$ptr_node@U?$pair@$$CBKUSCache@CEterPackManager@@@std@@@detail@unordered@boost@@@std@@@detail@unordered@boost@@QAE@XZ ; boost::unordered::detail::node_tmp<std::allocator<boost::unordered::detail::ptr_node<std::pair<unsigned long const ,CEterPackManager::SCache> > > >::~node_tmp<std::allocator<boost::unordered::detail::ptr_node<std::pair<unsigned long const ,CEterPackManager::SCache> > > >
  00008	cc		 int	 3
  00009	cc		 int	 3
  0000a	cc		 int	 3
  0000b	cc		 int	 3
  0000c	cc		 int	 3
__ehhandler$?resize_and_add_node_unique@?$table@U?$map@V?$allocator@U?$pair@$$CBKUSCache@CEterPackManager@@@std@@@std@@KUSCache@CEterPackManager@@U?$hash@K@boost@@U?$equal_to@K@2@@detail@unordered@boost@@@detail@unordered@boost@@QAEPAU?$ptr_node@U?$pair@$$CBKUSCache@CEterPackManager@@@std@@@234@PAU5234@I@Z:
  0000d	90		 npad	 1
  0000e	90		 npad	 1
  0000f	8b 54 24 08	 mov	 edx, DWORD PTR [esp+8]
  00013	8d 42 0c	 lea	 eax, DWORD PTR [edx+12]
  00016	8b 4a e0	 mov	 ecx, DWORD PTR [edx-32]
  00019	33 c8		 xor	 ecx, eax
  0001b	e8 00 00 00 00	 call	 @__security_check_cookie@4
  00020	b8 00 00 00 00	 mov	 eax, OFFSET __ehfuncinfo$?resize_and_add_node_unique@?$table@U?$map@V?$allocator@U?$pair@$$CBKUSCache@CEterPackManager@@@std@@@std@@KUSCache@CEterPackManager@@U?$hash@K@boost@@U?$equal_to@K@2@@detail@unordered@boost@@@detail@unordered@boost@@QAEPAU?$ptr_node@U?$pair@$$CBKUSCache@CEterPackManager@@@std@@@234@PAU5234@I@Z
  00025	e9 00 00 00 00	 jmp	 ___CxxFrameHandler3
text$x	ENDS
?resize_and_add_node_unique@?$table@U?$map@V?$allocator@U?$pair@$$CBKUSCache@CEterPackManager@@@std@@@std@@KUSCache@CEterPackManager@@U?$hash@K@boost@@U?$equal_to@K@2@@detail@unordered@boost@@@detail@unordered@boost@@QAEPAU?$ptr_node@U?$pair@$$CBKUSCache@CEterPackManager@@@std@@@234@PAU5234@I@Z ENDP ; boost::unordered::detail::table<boost::unordered::detail::map<std::allocator<std::pair<unsigned long const ,CEterPackManager::SCache> >,unsigned long,CEterPackManager::SCache,boost::hash<unsigned long>,std::equal_to<unsigned long> > >::resize_and_add_node_unique
; Function compile flags: /Odspy
; File D:\Metin2 Server Files\mainline\SRC_2014\M2Data\include\boost\unordered\detail\implementation.hpp
;	COMDAT ?add_node_unique@?$table@U?$map@V?$allocator@U?$pair@$$CBKUSCache@CEterPackManager@@@std@@@std@@KUSCache@CEterPackManager@@U?$hash@K@boost@@U?$equal_to@K@2@@detail@unordered@boost@@@detail@unordered@boost@@QAEPAU?$ptr_node@U?$pair@$$CBKUSCache@CEterPackManager@@@std@@@234@PAU5234@I@Z
_TEXT	SEGMENT
$T1 = -28						; size = 4
$T2 = -24						; size = 4
$T3 = -20						; size = 4
_bucket_index$ = -16					; size = 4
_b$ = -12						; size = 4
_start_node$4 = -8					; size = 4
_this$ = -4						; size = 4
_n$ = 8							; size = 4
_key_hash$ = 12						; size = 4
?add_node_unique@?$table@U?$map@V?$allocator@U?$pair@$$CBKUSCache@CEterPackManager@@@std@@@std@@KUSCache@CEterPackManager@@U?$hash@K@boost@@U?$equal_to@K@2@@detail@unordered@boost@@@detail@unordered@boost@@QAEPAU?$ptr_node@U?$pair@$$CBKUSCache@CEterPackManager@@@std@@@234@PAU5234@I@Z PROC ; boost::unordered::detail::table<boost::unordered::detail::map<std::allocator<std::pair<unsigned long const ,CEterPackManager::SCache> >,unsigned long,CEterPackManager::SCache,boost::hash<unsigned long>,std::equal_to<unsigned long> > >::add_node_unique, COMDAT
; _this$ = ecx

; 3686 :         {

  00000	55		 push	 ebp
  00001	8b ec		 mov	 ebp, esp
  00003	83 ec 1c	 sub	 esp, 28			; 0000001cH
  00006	89 4d fc	 mov	 DWORD PTR _this$[ebp], ecx

; 2604 :           return hash % bucket_count;

  00009	8b 4d fc	 mov	 ecx, DWORD PTR _this$[ebp]
  0000c	8b 45 0c	 mov	 eax, DWORD PTR _key_hash$[ebp]
  0000f	33 d2		 xor	 edx, edx
  00011	f7 71 04	 div	 DWORD PTR [ecx+4]

; 3687 :           std::size_t bucket_index = this->hash_to_bucket(key_hash);

  00014	89 55 f0	 mov	 DWORD PTR _bucket_index$[ebp], edx

; 3026 :           return buckets_ + static_cast<std::ptrdiff_t>(bucket_index);

  00017	8b 45 fc	 mov	 eax, DWORD PTR _this$[ebp]
  0001a	8b 40 14	 mov	 eax, DWORD PTR [eax+20]
  0001d	8b 4d f0	 mov	 ecx, DWORD PTR _bucket_index$[ebp]
  00020	8d 04 88	 lea	 eax, DWORD PTR [eax+ecx*4]

; 3688 :           bucket_pointer b = this->get_bucket_pointer(bucket_index);

  00023	89 45 f4	 mov	 DWORD PTR _b$[ebp], eax

; 3689 : 
; 3690 :           n->bucket_info_ = bucket_index;

  00026	8b 45 08	 mov	 eax, DWORD PTR _n$[ebp]
  00029	8b 4d f0	 mov	 ecx, DWORD PTR _bucket_index$[ebp]
  0002c	89 48 04	 mov	 DWORD PTR [eax+4], ecx

; 4883 :           bucket_info_ = bucket_info_ & ((std::size_t)-1 >> 1);

  0002f	8b 45 08	 mov	 eax, DWORD PTR _n$[ebp]
  00032	8b 40 04	 mov	 eax, DWORD PTR [eax+4]
  00035	25 ff ff ff 7f	 and	 eax, 2147483647		; 7fffffffH
  0003a	8b 4d 08	 mov	 ecx, DWORD PTR _n$[ebp]
  0003d	89 41 04	 mov	 DWORD PTR [ecx+4], eax

; 3691 :           n->set_first_in_group();
; 3692 : 
; 3693 :           if (!b->next_) {

  00040	8b 45 f4	 mov	 eax, DWORD PTR _b$[ebp]
  00043	83 38 00	 cmp	 DWORD PTR [eax], 0
  00046	75 61		 jne	 SHORT $LN2@add_node_u

; 3026 :           return buckets_ + static_cast<std::ptrdiff_t>(bucket_index);

  00048	8b 45 fc	 mov	 eax, DWORD PTR _this$[ebp]
  0004b	8b 40 04	 mov	 eax, DWORD PTR [eax+4]
  0004e	8b 4d fc	 mov	 ecx, DWORD PTR _this$[ebp]
  00051	8b 49 14	 mov	 ecx, DWORD PTR [ecx+20]
  00054	8d 04 81	 lea	 eax, DWORD PTR [ecx+eax*4]
  00057	89 45 ec	 mov	 DWORD PTR $T3[ebp], eax

; 3694 :             link_pointer start_node = this->get_previous_start();

  0005a	8b 45 ec	 mov	 eax, DWORD PTR $T3[ebp]
  0005d	89 45 f8	 mov	 DWORD PTR _start_node$4[ebp], eax

; 3695 : 
; 3696 :             if (start_node->next_) {

  00060	8b 45 f8	 mov	 eax, DWORD PTR _start_node$4[ebp]
  00063	83 38 00	 cmp	 DWORD PTR [eax], 0
  00066	74 25		 je	 SHORT $LN4@add_node_u

; 2964 :           return static_cast<node_pointer>(n->next_);

  00068	8b 45 f8	 mov	 eax, DWORD PTR _start_node$4[ebp]
  0006b	8b 00		 mov	 eax, DWORD PTR [eax]
  0006d	89 45 e8	 mov	 DWORD PTR $T2[ebp], eax

; 4873 :           return bucket_info_ & ((std::size_t)-1 >> 1);

  00070	8b 45 e8	 mov	 eax, DWORD PTR $T2[ebp]
  00073	8b 40 04	 mov	 eax, DWORD PTR [eax+4]
  00076	25 ff ff ff 7f	 and	 eax, 2147483647		; 7fffffffH

; 2999 :           return n->get_bucket();

  0007b	89 45 e4	 mov	 DWORD PTR $T1[ebp], eax

; 3697 :               this->get_bucket_pointer(node_bucket(next_node(start_node)))

  0007e	8b 45 fc	 mov	 eax, DWORD PTR _this$[ebp]
  00081	8b 40 14	 mov	 eax, DWORD PTR [eax+20]
  00084	8b 4d e4	 mov	 ecx, DWORD PTR $T1[ebp]
  00087	8b 55 08	 mov	 edx, DWORD PTR _n$[ebp]
  0008a	89 14 88	 mov	 DWORD PTR [eax+ecx*4], edx
$LN4@add_node_u:

; 3698 :                 ->next_ = n;
; 3699 :             }
; 3700 : 
; 3701 :             b->next_ = start_node;

  0008d	8b 45 f4	 mov	 eax, DWORD PTR _b$[ebp]
  00090	8b 4d f8	 mov	 ecx, DWORD PTR _start_node$4[ebp]
  00093	89 08		 mov	 DWORD PTR [eax], ecx

; 3702 :             n->next_ = start_node->next_;

  00095	8b 45 08	 mov	 eax, DWORD PTR _n$[ebp]
  00098	8b 4d f8	 mov	 ecx, DWORD PTR _start_node$4[ebp]
  0009b	8b 09		 mov	 ecx, DWORD PTR [ecx]
  0009d	89 08		 mov	 DWORD PTR [eax], ecx

; 3703 :             start_node->next_ = n;

  0009f	8b 45 f8	 mov	 eax, DWORD PTR _start_node$4[ebp]
  000a2	8b 4d 08	 mov	 ecx, DWORD PTR _n$[ebp]
  000a5	89 08		 mov	 DWORD PTR [eax], ecx

; 3704 :           } else {

  000a7	eb 16		 jmp	 SHORT $LN3@add_node_u
$LN2@add_node_u:

; 3705 :             n->next_ = b->next_->next_;

  000a9	8b 45 f4	 mov	 eax, DWORD PTR _b$[ebp]
  000ac	8b 00		 mov	 eax, DWORD PTR [eax]
  000ae	8b 4d 08	 mov	 ecx, DWORD PTR _n$[ebp]
  000b1	8b 00		 mov	 eax, DWORD PTR [eax]
  000b3	89 01		 mov	 DWORD PTR [ecx], eax

; 3706 :             b->next_->next_ = n;

  000b5	8b 45 f4	 mov	 eax, DWORD PTR _b$[ebp]
  000b8	8b 00		 mov	 eax, DWORD PTR [eax]
  000ba	8b 4d 08	 mov	 ecx, DWORD PTR _n$[ebp]
  000bd	89 08		 mov	 DWORD PTR [eax], ecx
$LN3@add_node_u:

; 3707 :           }
; 3708 : 
; 3709 :           ++this->size_;

  000bf	8b 45 fc	 mov	 eax, DWORD PTR _this$[ebp]
  000c2	8b 40 08	 mov	 eax, DWORD PTR [eax+8]
  000c5	40		 inc	 eax
  000c6	8b 4d fc	 mov	 ecx, DWORD PTR _this$[ebp]
  000c9	89 41 08	 mov	 DWORD PTR [ecx+8], eax

; 3710 :           return n;

  000cc	8b 45 08	 mov	 eax, DWORD PTR _n$[ebp]

; 3711 :         }

  000cf	c9		 leave
  000d0	c2 08 00	 ret	 8
?add_node_unique@?$table@U?$map@V?$allocator@U?$pair@$$CBKUSCache@CEterPackManager@@@std@@@std@@KUSCache@CEterPackManager@@U?$hash@K@boost@@U?$equal_to@K@2@@detail@unordered@boost@@@detail@unordered@boost@@QAEPAU?$ptr_node@U?$pair@$$CBKUSCache@CEterPackManager@@@std@@@234@PAU5234@I@Z ENDP ; boost::unordered::detail::table<boost::unordered::detail::map<std::allocator<std::pair<unsigned long const ,CEterPackManager::SCache> >,unsigned long,CEterPackManager::SCache,boost::hash<unsigned long>,std::equal_to<unsigned long> > >::add_node_unique
_TEXT	ENDS
; Function compile flags: /Odspy
; File D:\Metin2 Server Files\mainline\SRC_2014\M2Data\include\boost\unordered\detail\implementation.hpp
; File D:\Metin2 Server Files\mainline\SRC_2014\M2Data\include\boost\container_hash\hash.hpp
; File D:\Metin2 Server Files\mainline\SRC_2014\M2Data\include\boost\unordered\detail\implementation.hpp
;	COMDAT ?rehash_impl@?$table@U?$map@V?$allocator@U?$pair@$$CBKUSCache@CEterPackManager@@@std@@@std@@KUSCache@CEterPackManager@@U?$hash@K@boost@@U?$equal_to@K@2@@detail@unordered@boost@@@detail@unordered@boost@@QAEXI@Z
_TEXT	SEGMENT
$T2 = -76						; size = 4
_next$3 = -72						; size = 4
_next$4 = -68						; size = 4
_key_hash$5 = -64					; size = 4
tv129 = -60						; size = 4
_v$6 = -56						; size = 4
$T7 = -52						; size = 4
tv221 = -48						; size = 4
_bucket_index$8 = -44					; size = 4
_next$9 = -40						; size = 4
_n$10 = -36						; size = 4
_b$11 = -32						; size = 4
_prev$ = -28						; size = 4
_this$ = -24						; size = 4
_n$12 = -20						; size = 4
__$EHRec$ = -16						; size = 16
_num_buckets$ = 8					; size = 4
?rehash_impl@?$table@U?$map@V?$allocator@U?$pair@$$CBKUSCache@CEterPackManager@@@std@@@std@@KUSCache@CEterPackManager@@U?$hash@K@boost@@U?$equal_to@K@2@@detail@unordered@boost@@@detail@unordered@boost@@QAEXI@Z PROC ; boost::unordered::detail::table<boost::unordered::detail::map<std::allocator<std::pair<unsigned long const ,CEterPackManager::SCache> >,unsigned long,CEterPackManager::SCache,boost::hash<unsigned long>,std::equal_to<unsigned long> > >::rehash_impl, COMDAT
; _this$ = ecx

; 4577 :       {

  00000	55		 push	 ebp
  00001	8b ec		 mov	 ebp, esp
  00003	6a ff		 push	 -1
  00005	68 00 00 00 00	 push	 __ehhandler$?rehash_impl@?$table@U?$map@V?$allocator@U?$pair@$$CBKUSCache@CEterPackManager@@@std@@@std@@KUSCache@CEterPackManager@@U?$hash@K@boost@@U?$equal_to@K@2@@detail@unordered@boost@@@detail@unordered@boost@@QAEXI@Z
  0000a	64 a1 00 00 00
	00		 mov	 eax, DWORD PTR fs:0
  00010	50		 push	 eax
  00011	51		 push	 ecx
  00012	83 ec 3c	 sub	 esp, 60			; 0000003cH
  00015	53		 push	 ebx
  00016	56		 push	 esi
  00017	57		 push	 edi
  00018	a1 00 00 00 00	 mov	 eax, DWORD PTR ___security_cookie
  0001d	33 c5		 xor	 eax, ebp
  0001f	50		 push	 eax
  00020	8d 45 f4	 lea	 eax, DWORD PTR __$EHRec$[ebp+4]
  00023	64 a3 00 00 00
	00		 mov	 DWORD PTR fs:0, eax
  00029	89 65 f0	 mov	 DWORD PTR __$EHRec$[ebp], esp
  0002c	89 4d e8	 mov	 DWORD PTR _this$[ebp], ecx

; 4578 :         BOOST_ASSERT(this->buckets_);
; 4579 : 
; 4580 :         this->create_buckets(num_buckets);

  0002f	ff 75 08	 push	 DWORD PTR _num_buckets$[ebp]
  00032	8b 4d e8	 mov	 ecx, DWORD PTR _this$[ebp]
  00035	e8 00 00 00 00	 call	 ?create_buckets@?$table@U?$map@V?$allocator@U?$pair@$$CBKUSCache@CEterPackManager@@@std@@@std@@KUSCache@CEterPackManager@@U?$hash@K@boost@@U?$equal_to@K@2@@detail@unordered@boost@@@detail@unordered@boost@@QAEXI@Z ; boost::unordered::detail::table<boost::unordered::detail::map<std::allocator<std::pair<unsigned long const ,CEterPackManager::SCache> >,unsigned long,CEterPackManager::SCache,boost::hash<unsigned long>,std::equal_to<unsigned long> > >::create_buckets

; 3026 :           return buckets_ + static_cast<std::ptrdiff_t>(bucket_index);

  0003a	8b 45 e8	 mov	 eax, DWORD PTR _this$[ebp]
  0003d	8b 40 04	 mov	 eax, DWORD PTR [eax+4]
  00040	8b 4d e8	 mov	 ecx, DWORD PTR _this$[ebp]
  00043	8b 49 14	 mov	 ecx, DWORD PTR [ecx+20]
  00046	8d 04 81	 lea	 eax, DWORD PTR [ecx+eax*4]
  00049	89 45 cc	 mov	 DWORD PTR $T7[ebp], eax

; 4581 :         link_pointer prev = this->get_previous_start();

  0004c	8b 45 cc	 mov	 eax, DWORD PTR $T7[ebp]
  0004f	89 45 e4	 mov	 DWORD PTR _prev$[ebp], eax

; 4582 :         BOOST_TRY

  00052	83 65 fc 00	 and	 DWORD PTR __$EHRec$[ebp+12], 0
$LN2@rehash_imp:

; 4583 :         {
; 4584 :           while (prev->next_) {

  00056	8b 45 e4	 mov	 eax, DWORD PTR _prev$[ebp]
  00059	83 38 00	 cmp	 DWORD PTR [eax], 0
  0005c	0f 84 04 01 00
	00		 je	 $LN3@rehash_imp

; 2964 :           return static_cast<node_pointer>(n->next_);

  00062	8b 45 e4	 mov	 eax, DWORD PTR _prev$[ebp]
  00065	8b 00		 mov	 eax, DWORD PTR [eax]
  00067	89 45 ec	 mov	 DWORD PTR _n$12[ebp], eax

; 2791 :           return *static_cast<function_pair const*>(

  0006a	8b 45 e8	 mov	 eax, DWORD PTR _this$[ebp]
  0006d	0f b6 00	 movzx	 eax, BYTE PTR [eax]
  00070	83 e0 01	 and	 eax, 1
  00073	8b 4d e8	 mov	 ecx, DWORD PTR _this$[ebp]
  00076	8d 44 01 01	 lea	 eax, DWORD PTR [ecx+eax+1]
  0007a	89 45 b4	 mov	 DWORD PTR $T2[ebp], eax

; 2599 :           return hf(x);

  0007d	8b 45 ec	 mov	 eax, DWORD PTR _n$12[ebp]
  00080	8b 40 08	 mov	 eax, DWORD PTR [eax+8]
  00083	89 45 c8	 mov	 DWORD PTR _v$6[ebp], eax
; File D:\Metin2 Server Files\mainline\SRC_2014\M2Data\include\boost\container_hash\hash.hpp

; 621  :     BOOST_HASH_SPECIALIZE(unsigned long)

  00086	ff 75 c8	 push	 DWORD PTR _v$6[ebp]
  00089	e8 00 00 00 00	 call	 ??$hash_value@K@boost@@YAIK@Z ; boost::hash_value<unsigned long>
  0008e	59		 pop	 ecx
  0008f	89 45 c4	 mov	 DWORD PTR tv129[ebp], eax
; File D:\Metin2 Server Files\mainline\SRC_2014\M2Data\include\boost\unordered\detail\implementation.hpp

; 4586 :             std::size_t key_hash = this->hash(this->get_key(n));

  00092	8b 45 c4	 mov	 eax, DWORD PTR tv129[ebp]
  00095	89 45 c0	 mov	 DWORD PTR _key_hash$5[ebp], eax

; 2604 :           return hash % bucket_count;

  00098	8b 4d e8	 mov	 ecx, DWORD PTR _this$[ebp]
  0009b	8b 45 c0	 mov	 eax, DWORD PTR _key_hash$5[ebp]
  0009e	33 d2		 xor	 edx, edx
  000a0	f7 71 04	 div	 DWORD PTR [ecx+4]

; 4587 :             std::size_t bucket_index = this->hash_to_bucket(key_hash);

  000a3	89 55 d4	 mov	 DWORD PTR _bucket_index$8[ebp], edx

; 4588 : 
; 4589 :             n->bucket_info_ = bucket_index;

  000a6	8b 45 ec	 mov	 eax, DWORD PTR _n$12[ebp]
  000a9	8b 4d d4	 mov	 ecx, DWORD PTR _bucket_index$8[ebp]
  000ac	89 48 04	 mov	 DWORD PTR [eax+4], ecx

; 4883 :           bucket_info_ = bucket_info_ & ((std::size_t)-1 >> 1);

  000af	8b 45 ec	 mov	 eax, DWORD PTR _n$12[ebp]
  000b2	8b 40 04	 mov	 eax, DWORD PTR [eax+4]
  000b5	25 ff ff ff 7f	 and	 eax, 2147483647		; 7fffffffH
  000ba	8b 4d ec	 mov	 ecx, DWORD PTR _n$12[ebp]
  000bd	89 41 04	 mov	 DWORD PTR [ecx+4], eax
$LN6@rehash_imp:

; 2964 :           return static_cast<node_pointer>(n->next_);

  000c0	8b 45 ec	 mov	 eax, DWORD PTR _n$12[ebp]
  000c3	8b 00		 mov	 eax, DWORD PTR [eax]
  000c5	89 45 d8	 mov	 DWORD PTR _next$9[ebp], eax

; 4590 :             n->set_first_in_group();
; 4591 : 
; 4592 :             // Iterator through the rest of the group of equal nodes,
; 4593 :             // setting the bucket.
; 4594 :             for (;;) {
; 4595 :               node_pointer next = next_node(n);
; 4596 :               if (!next || next->is_first_in_group()) {

  000c8	83 7d d8 00	 cmp	 DWORD PTR _next$9[ebp], 0
  000cc	74 20		 je	 SHORT $LN11@rehash_imp

; 4878 :           return !(bucket_info_ & ~((std::size_t)-1 >> 1));

  000ce	8b 45 d8	 mov	 eax, DWORD PTR _next$9[ebp]
  000d1	8b 40 04	 mov	 eax, DWORD PTR [eax+4]
  000d4	25 00 00 00 80	 and	 eax, -2147483648	; 80000000H
  000d9	75 09		 jne	 SHORT $LN61@rehash_imp
  000db	c7 45 d0 01 00
	00 00		 mov	 DWORD PTR tv221[ebp], 1
  000e2	eb 04		 jmp	 SHORT $LN59@rehash_imp
$LN61@rehash_imp:
  000e4	83 65 d0 00	 and	 DWORD PTR tv221[ebp], 0
$LN59@rehash_imp:

; 4590 :             n->set_first_in_group();
; 4591 : 
; 4592 :             // Iterator through the rest of the group of equal nodes,
; 4593 :             // setting the bucket.
; 4594 :             for (;;) {
; 4595 :               node_pointer next = next_node(n);
; 4596 :               if (!next || next->is_first_in_group()) {

  000e8	83 7d d0 00	 cmp	 DWORD PTR tv221[ebp], 0
  000ec	74 02		 je	 SHORT $LN10@rehash_imp
$LN11@rehash_imp:

; 4597 :                 break;

  000ee	eb 22		 jmp	 SHORT $LN65@rehash_imp
$LN10@rehash_imp:

; 4598 :               }
; 4599 :               n = next;

  000f0	8b 45 d8	 mov	 eax, DWORD PTR _next$9[ebp]
  000f3	89 45 ec	 mov	 DWORD PTR _n$12[ebp], eax

; 4600 :               n->bucket_info_ = bucket_index;

  000f6	8b 45 ec	 mov	 eax, DWORD PTR _n$12[ebp]
  000f9	8b 4d d4	 mov	 ecx, DWORD PTR _bucket_index$8[ebp]
  000fc	89 48 04	 mov	 DWORD PTR [eax+4], ecx

; 4888 :           bucket_info_ = bucket_info_ | ~((std::size_t)-1 >> 1);

  000ff	8b 45 ec	 mov	 eax, DWORD PTR _n$12[ebp]
  00102	8b 40 04	 mov	 eax, DWORD PTR [eax+4]
  00105	0d 00 00 00 80	 or	 eax, -2147483648	; 80000000H
  0010a	8b 4d ec	 mov	 ecx, DWORD PTR _n$12[ebp]
  0010d	89 41 04	 mov	 DWORD PTR [ecx+4], eax

; 4601 :               n->reset_first_in_group();
; 4602 :             }

  00110	eb ae		 jmp	 SHORT $LN6@rehash_imp
$LN65@rehash_imp:

; 3026 :           return buckets_ + static_cast<std::ptrdiff_t>(bucket_index);

  00112	8b 45 e8	 mov	 eax, DWORD PTR _this$[ebp]
  00115	8b 40 14	 mov	 eax, DWORD PTR [eax+20]
  00118	8b 4d d4	 mov	 ecx, DWORD PTR _bucket_index$8[ebp]
  0011b	8d 04 88	 lea	 eax, DWORD PTR [eax+ecx*4]

; 4603 : 
; 4604 :             // n is now the last node in the group
; 4605 :             bucket_pointer b = this->get_bucket_pointer(bucket_index);

  0011e	89 45 e0	 mov	 DWORD PTR _b$11[ebp], eax

; 4606 :             if (!b->next_) {

  00121	8b 45 e0	 mov	 eax, DWORD PTR _b$11[ebp]
  00124	83 38 00	 cmp	 DWORD PTR [eax], 0
  00127	75 10		 jne	 SHORT $LN12@rehash_imp

; 4607 :               b->next_ = prev;

  00129	8b 45 e0	 mov	 eax, DWORD PTR _b$11[ebp]
  0012c	8b 4d e4	 mov	 ecx, DWORD PTR _prev$[ebp]
  0012f	89 08		 mov	 DWORD PTR [eax], ecx

; 4608 :               prev = n;

  00131	8b 45 ec	 mov	 eax, DWORD PTR _n$12[ebp]
  00134	89 45 e4	 mov	 DWORD PTR _prev$[ebp], eax

; 4609 :             } else {

  00137	eb 28		 jmp	 SHORT $LN13@rehash_imp
$LN12@rehash_imp:

; 4610 :               link_pointer next = n->next_;

  00139	8b 45 ec	 mov	 eax, DWORD PTR _n$12[ebp]
  0013c	8b 00		 mov	 eax, DWORD PTR [eax]
  0013e	89 45 bc	 mov	 DWORD PTR _next$4[ebp], eax

; 4611 :               n->next_ = b->next_->next_;

  00141	8b 45 e0	 mov	 eax, DWORD PTR _b$11[ebp]
  00144	8b 00		 mov	 eax, DWORD PTR [eax]
  00146	8b 4d ec	 mov	 ecx, DWORD PTR _n$12[ebp]
  00149	8b 00		 mov	 eax, DWORD PTR [eax]
  0014b	89 01		 mov	 DWORD PTR [ecx], eax

; 4612 :               b->next_->next_ = prev->next_;

  0014d	8b 45 e0	 mov	 eax, DWORD PTR _b$11[ebp]
  00150	8b 00		 mov	 eax, DWORD PTR [eax]
  00152	8b 4d e4	 mov	 ecx, DWORD PTR _prev$[ebp]
  00155	8b 09		 mov	 ecx, DWORD PTR [ecx]
  00157	89 08		 mov	 DWORD PTR [eax], ecx

; 4613 :               prev->next_ = next;

  00159	8b 45 e4	 mov	 eax, DWORD PTR _prev$[ebp]
  0015c	8b 4d bc	 mov	 ecx, DWORD PTR _next$4[ebp]
  0015f	89 08		 mov	 DWORD PTR [eax], ecx
$LN13@rehash_imp:

; 4614 :             }
; 4615 :           }

  00161	e9 f0 fe ff ff	 jmp	 $LN2@rehash_imp
$LN3@rehash_imp:

; 4616 :         }

  00166	eb 53		 jmp	 SHORT $LN15@rehash_imp
__catch$?rehash_impl@?$table@U?$map@V?$allocator@U?$pair@$$CBKUSCache@CEterPackManager@@@std@@@std@@KUSCache@CEterPackManager@@U?$hash@K@boost@@U?$equal_to@K@2@@detail@unordered@boost@@@detail@unordered@boost@@QAEXI@Z$0:

; 4617 :         BOOST_CATCH(...)
; 4618 :         {
; 4619 :           node_pointer n = next_node(prev);

  00168	ff 75 e4	 push	 DWORD PTR _prev$[ebp]
  0016b	e8 00 00 00 00	 call	 ?next_node@?$table@U?$map@V?$allocator@U?$pair@$$CBKUSCache@CEterPackManager@@@std@@@std@@KUSCache@CEterPackManager@@U?$hash@K@boost@@U?$equal_to@K@2@@detail@unordered@boost@@@detail@unordered@boost@@SAPAU?$ptr_node@U?$pair@$$CBKUSCache@CEterPackManager@@@std@@@234@PAUptr_bucket@234@@Z ; boost::unordered::detail::table<boost::unordered::detail::map<std::allocator<std::pair<unsigned long const ,CEterPackManager::SCache> >,unsigned long,CEterPackManager::SCache,boost::hash<unsigned long>,std::equal_to<unsigned long> > >::next_node
  00170	59		 pop	 ecx
  00171	89 45 dc	 mov	 DWORD PTR _n$10[ebp], eax

; 4620 :           prev->next_ = node_pointer();

  00174	8b 45 e4	 mov	 eax, DWORD PTR _prev$[ebp]
  00177	83 20 00	 and	 DWORD PTR [eax], 0
$LN7@rehash_imp:

; 4621 :           while (n) {

  0017a	83 7d dc 00	 cmp	 DWORD PTR _n$10[ebp], 0
  0017e	74 2c		 je	 SHORT $LN8@rehash_imp

; 4622 :             node_pointer next = next_node(n);

  00180	ff 75 dc	 push	 DWORD PTR _n$10[ebp]
  00183	e8 00 00 00 00	 call	 ?next_node@?$table@U?$map@V?$allocator@U?$pair@$$CBKUSCache@CEterPackManager@@@std@@@std@@KUSCache@CEterPackManager@@U?$hash@K@boost@@U?$equal_to@K@2@@detail@unordered@boost@@@detail@unordered@boost@@SAPAU?$ptr_node@U?$pair@$$CBKUSCache@CEterPackManager@@@std@@@234@PAUptr_bucket@234@@Z ; boost::unordered::detail::table<boost::unordered::detail::map<std::allocator<std::pair<unsigned long const ,CEterPackManager::SCache> >,unsigned long,CEterPackManager::SCache,boost::hash<unsigned long>,std::equal_to<unsigned long> > >::next_node
  00188	59		 pop	 ecx
  00189	89 45 b8	 mov	 DWORD PTR _next$3[ebp], eax

; 4623 :             destroy_node(n);

  0018c	ff 75 dc	 push	 DWORD PTR _n$10[ebp]
  0018f	8b 4d e8	 mov	 ecx, DWORD PTR _this$[ebp]
  00192	e8 00 00 00 00	 call	 ?destroy_node@?$table@U?$map@V?$allocator@U?$pair@$$CBKUSCache@CEterPackManager@@@std@@@std@@KUSCache@CEterPackManager@@U?$hash@K@boost@@U?$equal_to@K@2@@detail@unordered@boost@@@detail@unordered@boost@@QAEXPAU?$ptr_node@U?$pair@$$CBKUSCache@CEterPackManager@@@std@@@234@@Z ; boost::unordered::detail::table<boost::unordered::detail::map<std::allocator<std::pair<unsigned long const ,CEterPackManager::SCache> >,unsigned long,CEterPackManager::SCache,boost::hash<unsigned long>,std::equal_to<unsigned long> > >::destroy_node

; 4624 :             --size_;

  00197	8b 45 e8	 mov	 eax, DWORD PTR _this$[ebp]
  0019a	8b 40 08	 mov	 eax, DWORD PTR [eax+8]
  0019d	48		 dec	 eax
  0019e	8b 4d e8	 mov	 ecx, DWORD PTR _this$[ebp]
  001a1	89 41 08	 mov	 DWORD PTR [ecx+8], eax

; 4625 :             n = next;

  001a4	8b 45 b8	 mov	 eax, DWORD PTR _next$3[ebp]
  001a7	89 45 dc	 mov	 DWORD PTR _n$10[ebp], eax

; 4626 :           }

  001aa	eb ce		 jmp	 SHORT $LN7@rehash_imp
$LN8@rehash_imp:

; 4627 :           BOOST_RETHROW

  001ac	6a 00		 push	 0
  001ae	6a 00		 push	 0
  001b0	e8 00 00 00 00	 call	 __CxxThrowException@8

; 4628 :         }

  001b5	b8 00 00 00 00	 mov	 eax, $LN18@rehash_imp
  001ba	c3		 ret	 0
$LN15@rehash_imp:
  001bb	83 4d fc ff	 or	 DWORD PTR __$EHRec$[ebp+12], -1
  001bf	eb 04		 jmp	 SHORT $LN14@rehash_imp
$LN18@rehash_imp:
  001c1	83 4d fc ff	 or	 DWORD PTR __$EHRec$[ebp+12], -1
$LN14@rehash_imp:

; 4629 :         BOOST_CATCH_END
; 4630 :       }

  001c5	8b 4d f4	 mov	 ecx, DWORD PTR __$EHRec$[ebp+4]
  001c8	64 89 0d 00 00
	00 00		 mov	 DWORD PTR fs:0, ecx
  001cf	59		 pop	 ecx
  001d0	5f		 pop	 edi
  001d1	5e		 pop	 esi
  001d2	5b		 pop	 ebx
  001d3	c9		 leave
  001d4	c2 04 00	 ret	 4
  001d7	cc		 int	 3
  001d8	cc		 int	 3
  001d9	cc		 int	 3
  001da	cc		 int	 3
  001db	cc		 int	 3
_TEXT	ENDS
;	COMDAT text$x
text$x	SEGMENT
__ehhandler$?rehash_impl@?$table@U?$map@V?$allocator@U?$pair@$$CBKUSCache@CEterPackManager@@@std@@@std@@KUSCache@CEterPackManager@@U?$hash@K@boost@@U?$equal_to@K@2@@detail@unordered@boost@@@detail@unordered@boost@@QAEXI@Z:
  00000	90		 npad	 1
  00001	90		 npad	 1
  00002	8b 54 24 08	 mov	 edx, DWORD PTR [esp+8]
  00006	8d 42 0c	 lea	 eax, DWORD PTR [edx+12]
  00009	8b 4a b0	 mov	 ecx, DWORD PTR [edx-80]
  0000c	33 c8		 xor	 ecx, eax
  0000e	e8 00 00 00 00	 call	 @__security_check_cookie@4
  00013	b8 00 00 00 00	 mov	 eax, OFFSET __ehfuncinfo$?rehash_impl@?$table@U?$map@V?$allocator@U?$pair@$$CBKUSCache@CEterPackManager@@@std@@@std@@KUSCache@CEterPackManager@@U?$hash@K@boost@@U?$equal_to@K@2@@detail@unordered@boost@@@detail@unordered@boost@@QAEXI@Z
  00018	e9 00 00 00 00	 jmp	 ___CxxFrameHandler3
text$x	ENDS
?rehash_impl@?$table@U?$map@V?$allocator@U?$pair@$$CBKUSCache@CEterPackManager@@@std@@@std@@KUSCache@CEterPackManager@@U?$hash@K@boost@@U?$equal_to@K@2@@detail@unordered@boost@@@detail@unordered@boost@@QAEXI@Z ENDP ; boost::unordered::detail::table<boost::unordered::detail::map<std::allocator<std::pair<unsigned long const ,CEterPackManager::SCache> >,unsigned long,CEterPackManager::SCache,boost::hash<unsigned long>,std::equal_to<unsigned long> > >::rehash_impl
; Function compile flags: /Odspy
; File D:\Metin2 Server Files\mainline\SRC_2014\M2Data\include\boost\unordered\detail\implementation.hpp
; File C:\Program Files (x86)\Microsoft Visual Studio\2019\Community\VC\Tools\MSVC\14.28.29333\include\utility
; File D:\Metin2 Server Files\mainline\SRC_2014\M2Data\include\boost\unordered\detail\implementation.hpp
; File C:\Program Files (x86)\Microsoft Visual Studio\2019\Community\VC\Tools\MSVC\14.28.29333\include\utility
; File D:\Metin2 Server Files\mainline\SRC_2014\M2Data\include\boost\unordered\detail\implementation.hpp
;	COMDAT ?reserve_for_insert@?$table@U?$map@V?$allocator@U?$pair@$$CBKUSCache@CEterPackManager@@@std@@@std@@KUSCache@CEterPackManager@@U?$hash@K@boost@@U?$equal_to@K@2@@detail@unordered@boost@@@detail@unordered@boost@@QAEXI@Z
_TEXT	SEGMENT
$T1 = -44						; size = 4
$T2 = -40						; size = 4
$T3 = -36						; size = 4
$T4 = -32						; size = 4
_num_buckets$5 = -28					; size = 4
tv73 = -24						; size = 4
$T6 = -20						; size = 4
tv137 = -16						; size = 4
__Left$ = -12						; size = 4
$T7 = -8						; size = 4
_this$ = -4						; size = 4
_size$ = 8						; size = 4
?reserve_for_insert@?$table@U?$map@V?$allocator@U?$pair@$$CBKUSCache@CEterPackManager@@@std@@@std@@KUSCache@CEterPackManager@@U?$hash@K@boost@@U?$equal_to@K@2@@detail@unordered@boost@@@detail@unordered@boost@@QAEXI@Z PROC ; boost::unordered::detail::table<boost::unordered::detail::map<std::allocator<std::pair<unsigned long const ,CEterPackManager::SCache> >,unsigned long,CEterPackManager::SCache,boost::hash<unsigned long>,std::equal_to<unsigned long> > >::reserve_for_insert, COMDAT
; _this$ = ecx

; 4541 :       {

  00000	55		 push	 ebp
  00001	8b ec		 mov	 ebp, esp
  00003	83 ec 2c	 sub	 esp, 44			; 0000002cH
  00006	89 4d fc	 mov	 DWORD PTR _this$[ebp], ecx

; 4542 :         if (!buckets_) {

  00009	8b 45 fc	 mov	 eax, DWORD PTR _this$[ebp]
  0000c	83 78 14 00	 cmp	 DWORD PTR [eax+20], 0
  00010	75 4a		 jne	 SHORT $LN2@reserve_fo

; 4543 :           create_buckets((std::max)(bucket_count_, min_buckets_for_size(size)));

  00012	ff 75 08	 push	 DWORD PTR _size$[ebp]
  00015	8b 4d fc	 mov	 ecx, DWORD PTR _this$[ebp]
  00018	e8 00 00 00 00	 call	 ?min_buckets_for_size@?$table@U?$map@V?$allocator@U?$pair@$$CBKUSCache@CEterPackManager@@@std@@@std@@KUSCache@CEterPackManager@@U?$hash@K@boost@@U?$equal_to@K@2@@detail@unordered@boost@@@detail@unordered@boost@@QBEII@Z ; boost::unordered::detail::table<boost::unordered::detail::map<std::allocator<std::pair<unsigned long const ,CEterPackManager::SCache> >,unsigned long,CEterPackManager::SCache,boost::hash<unsigned long>,std::equal_to<unsigned long> > >::min_buckets_for_size
  0001d	89 45 f8	 mov	 DWORD PTR $T7[ebp], eax
  00020	8b 45 fc	 mov	 eax, DWORD PTR _this$[ebp]
  00023	83 c0 04	 add	 eax, 4
  00026	89 45 f4	 mov	 DWORD PTR __Left$[ebp], eax
; File C:\Program Files (x86)\Microsoft Visual Studio\2019\Community\VC\Tools\MSVC\14.28.29333\include\utility

; 44   :     return _Left < _Right ? _Right : _Left;

  00029	8b 45 f4	 mov	 eax, DWORD PTR __Left$[ebp]
  0002c	8b 00		 mov	 eax, DWORD PTR [eax]
  0002e	3b 45 f8	 cmp	 eax, DWORD PTR $T7[ebp]
  00031	73 08		 jae	 SHORT $LN55@reserve_fo
  00033	8d 45 f8	 lea	 eax, DWORD PTR $T7[ebp]
  00036	89 45 f0	 mov	 DWORD PTR tv137[ebp], eax
  00039	eb 06		 jmp	 SHORT $LN56@reserve_fo
$LN55@reserve_fo:
  0003b	8b 45 f4	 mov	 eax, DWORD PTR __Left$[ebp]
  0003e	89 45 f0	 mov	 DWORD PTR tv137[ebp], eax
$LN56@reserve_fo:
  00041	8b 45 f0	 mov	 eax, DWORD PTR tv137[ebp]
  00044	89 45 e0	 mov	 DWORD PTR $T4[ebp], eax
  00047	8b 45 e0	 mov	 eax, DWORD PTR $T4[ebp]
  0004a	89 45 dc	 mov	 DWORD PTR $T3[ebp], eax
; File D:\Metin2 Server Files\mainline\SRC_2014\M2Data\include\boost\unordered\detail\implementation.hpp

; 4543 :           create_buckets((std::max)(bucket_count_, min_buckets_for_size(size)));

  0004d	8b 45 dc	 mov	 eax, DWORD PTR $T3[ebp]
  00050	ff 30		 push	 DWORD PTR [eax]
  00052	8b 4d fc	 mov	 ecx, DWORD PTR _this$[ebp]
  00055	e8 00 00 00 00	 call	 ?create_buckets@?$table@U?$map@V?$allocator@U?$pair@$$CBKUSCache@CEterPackManager@@@std@@@std@@KUSCache@CEterPackManager@@U?$hash@K@boost@@U?$equal_to@K@2@@detail@unordered@boost@@@detail@unordered@boost@@QAEXI@Z ; boost::unordered::detail::table<boost::unordered::detail::map<std::allocator<std::pair<unsigned long const ,CEterPackManager::SCache> >,unsigned long,CEterPackManager::SCache,boost::hash<unsigned long>,std::equal_to<unsigned long> > >::create_buckets
  0005a	eb 64		 jmp	 SHORT $LN1@reserve_fo
$LN2@reserve_fo:

; 4544 :         } else if (size > max_load_) {

  0005c	8b 45 fc	 mov	 eax, DWORD PTR _this$[ebp]
  0005f	8b 4d 08	 mov	 ecx, DWORD PTR _size$[ebp]
  00062	3b 48 10	 cmp	 ecx, DWORD PTR [eax+16]
  00065	76 59		 jbe	 SHORT $LN1@reserve_fo

; 4545 :           std::size_t num_buckets =

  00067	8b 45 fc	 mov	 eax, DWORD PTR _this$[ebp]
  0006a	8b 40 08	 mov	 eax, DWORD PTR [eax+8]
  0006d	d1 e8		 shr	 eax, 1
  0006f	8b 4d fc	 mov	 ecx, DWORD PTR _this$[ebp]
  00072	03 41 08	 add	 eax, DWORD PTR [ecx+8]
  00075	89 45 ec	 mov	 DWORD PTR $T6[ebp], eax
; File C:\Program Files (x86)\Microsoft Visual Studio\2019\Community\VC\Tools\MSVC\14.28.29333\include\utility

; 44   :     return _Left < _Right ? _Right : _Left;

  00078	8b 45 08	 mov	 eax, DWORD PTR _size$[ebp]
  0007b	3b 45 ec	 cmp	 eax, DWORD PTR $T6[ebp]
  0007e	73 08		 jae	 SHORT $LN60@reserve_fo
  00080	8d 45 ec	 lea	 eax, DWORD PTR $T6[ebp]
  00083	89 45 e8	 mov	 DWORD PTR tv73[ebp], eax
  00086	eb 06		 jmp	 SHORT $LN61@reserve_fo
$LN60@reserve_fo:
  00088	8d 45 08	 lea	 eax, DWORD PTR _size$[ebp]
  0008b	89 45 e8	 mov	 DWORD PTR tv73[ebp], eax
$LN61@reserve_fo:
  0008e	8b 45 e8	 mov	 eax, DWORD PTR tv73[ebp]
  00091	89 45 d8	 mov	 DWORD PTR $T2[ebp], eax
  00094	8b 45 d8	 mov	 eax, DWORD PTR $T2[ebp]
  00097	89 45 d4	 mov	 DWORD PTR $T1[ebp], eax
; File D:\Metin2 Server Files\mainline\SRC_2014\M2Data\include\boost\unordered\detail\implementation.hpp

; 4545 :           std::size_t num_buckets =

  0009a	8b 45 d4	 mov	 eax, DWORD PTR $T1[ebp]
  0009d	ff 30		 push	 DWORD PTR [eax]
  0009f	8b 4d fc	 mov	 ecx, DWORD PTR _this$[ebp]
  000a2	e8 00 00 00 00	 call	 ?min_buckets_for_size@?$table@U?$map@V?$allocator@U?$pair@$$CBKUSCache@CEterPackManager@@@std@@@std@@KUSCache@CEterPackManager@@U?$hash@K@boost@@U?$equal_to@K@2@@detail@unordered@boost@@@detail@unordered@boost@@QBEII@Z ; boost::unordered::detail::table<boost::unordered::detail::map<std::allocator<std::pair<unsigned long const ,CEterPackManager::SCache> >,unsigned long,CEterPackManager::SCache,boost::hash<unsigned long>,std::equal_to<unsigned long> > >::min_buckets_for_size
  000a7	89 45 e4	 mov	 DWORD PTR _num_buckets$5[ebp], eax

; 4546 :             min_buckets_for_size((std::max)(size, size_ + (size_ >> 1)));
; 4547 : 
; 4548 :           if (num_buckets != bucket_count_)

  000aa	8b 45 fc	 mov	 eax, DWORD PTR _this$[ebp]
  000ad	8b 4d e4	 mov	 ecx, DWORD PTR _num_buckets$5[ebp]
  000b0	3b 48 04	 cmp	 ecx, DWORD PTR [eax+4]
  000b3	74 0b		 je	 SHORT $LN1@reserve_fo

; 4549 :             this->rehash_impl(num_buckets);

  000b5	ff 75 e4	 push	 DWORD PTR _num_buckets$5[ebp]
  000b8	8b 4d fc	 mov	 ecx, DWORD PTR _this$[ebp]
  000bb	e8 00 00 00 00	 call	 ?rehash_impl@?$table@U?$map@V?$allocator@U?$pair@$$CBKUSCache@CEterPackManager@@@std@@@std@@KUSCache@CEterPackManager@@U?$hash@K@boost@@U?$equal_to@K@2@@detail@unordered@boost@@@detail@unordered@boost@@QAEXI@Z ; boost::unordered::detail::table<boost::unordered::detail::map<std::allocator<std::pair<unsigned long const ,CEterPackManager::SCache> >,unsigned long,CEterPackManager::SCache,boost::hash<unsigned long>,std::equal_to<unsigned long> > >::rehash_impl
$LN1@reserve_fo:

; 4550 :         }
; 4551 :       }

  000c0	c9		 leave
  000c1	c2 04 00	 ret	 4
?reserve_for_insert@?$table@U?$map@V?$allocator@U?$pair@$$CBKUSCache@CEterPackManager@@@std@@@std@@KUSCache@CEterPackManager@@U?$hash@K@boost@@U?$equal_to@K@2@@detail@unordered@boost@@@detail@unordered@boost@@QAEXI@Z ENDP ; boost::unordered::detail::table<boost::unordered::detail::map<std::allocator<std::pair<unsigned long const ,CEterPackManager::SCache> >,unsigned long,CEterPackManager::SCache,boost::hash<unsigned long>,std::equal_to<unsigned long> > >::reserve_for_insert
_TEXT	ENDS
; Function compile flags: /Odspy
; File D:\Metin2 Server Files\mainline\SRC_2014\M2Data\include\boost\unordered\detail\implementation.hpp
; File D:\Metin2 Server Files\mainline\SRC_2014\M2Data\include\boost\container_hash\hash.hpp
; File D:\Metin2 Server Files\mainline\SRC_2014\M2Data\include\boost\unordered\detail\implementation.hpp
;	COMDAT ?find_node@?$table@U?$map@V?$allocator@U?$pair@$$CBKUSCache@CEterPackManager@@@std@@@std@@KUSCache@CEterPackManager@@U?$hash@K@boost@@U?$equal_to@K@2@@detail@unordered@boost@@@detail@unordered@boost@@QBEPAU?$ptr_node@U?$pair@$$CBKUSCache@CEterPackManager@@@std@@@234@ABK@Z
_TEXT	SEGMENT
$T1 = -16						; size = 4
$T2 = -12						; size = 4
_v$3 = -8						; size = 4
_this$ = -4						; size = 4
_k$ = 8							; size = 4
?find_node@?$table@U?$map@V?$allocator@U?$pair@$$CBKUSCache@CEterPackManager@@@std@@@std@@KUSCache@CEterPackManager@@U?$hash@K@boost@@U?$equal_to@K@2@@detail@unordered@boost@@@detail@unordered@boost@@QBEPAU?$ptr_node@U?$pair@$$CBKUSCache@CEterPackManager@@@std@@@234@ABK@Z PROC ; boost::unordered::detail::table<boost::unordered::detail::map<std::allocator<std::pair<unsigned long const ,CEterPackManager::SCache> >,unsigned long,CEterPackManager::SCache,boost::hash<unsigned long>,std::equal_to<unsigned long> > >::find_node, COMDAT
; _this$ = ecx

; 3580 :         {

  00000	55		 push	 ebp
  00001	8b ec		 mov	 ebp, esp
  00003	83 ec 10	 sub	 esp, 16			; 00000010H
  00006	89 4d fc	 mov	 DWORD PTR _this$[ebp], ecx

; 2791 :           return *static_cast<function_pair const*>(

  00009	8b 45 fc	 mov	 eax, DWORD PTR _this$[ebp]
  0000c	0f b6 00	 movzx	 eax, BYTE PTR [eax]
  0000f	83 e0 01	 and	 eax, 1
  00012	8b 4d fc	 mov	 ecx, DWORD PTR _this$[ebp]
  00015	8d 44 01 01	 lea	 eax, DWORD PTR [ecx+eax+1]
  00019	89 45 f0	 mov	 DWORD PTR $T1[ebp], eax

; 2599 :           return hf(x);

  0001c	8b 45 08	 mov	 eax, DWORD PTR _k$[ebp]
  0001f	8b 00		 mov	 eax, DWORD PTR [eax]
  00021	89 45 f8	 mov	 DWORD PTR _v$3[ebp], eax
; File D:\Metin2 Server Files\mainline\SRC_2014\M2Data\include\boost\container_hash\hash.hpp

; 621  :     BOOST_HASH_SPECIALIZE(unsigned long)

  00024	ff 75 f8	 push	 DWORD PTR _v$3[ebp]
  00027	e8 00 00 00 00	 call	 ??$hash_value@K@boost@@YAIK@Z ; boost::hash_value<unsigned long>
  0002c	59		 pop	 ecx
; File D:\Metin2 Server Files\mainline\SRC_2014\M2Data\include\boost\unordered\detail\implementation.hpp

; 3569 :           return policy::apply_hash(this->hash_function(), k);

  0002d	89 45 f4	 mov	 DWORD PTR $T2[ebp], eax

; 3581 :           return this->find_node_impl(hash(k), k, this->key_eq());

  00030	8b 4d fc	 mov	 ecx, DWORD PTR _this$[ebp]
  00033	e8 00 00 00 00	 call	 ?key_eq@?$functions@U?$hash@K@boost@@U?$equal_to@K@std@@@detail@unordered@boost@@QBEABU?$equal_to@K@std@@XZ ; boost::unordered::detail::functions<boost::hash<unsigned long>,std::equal_to<unsigned long> >::key_eq
  00038	50		 push	 eax
  00039	ff 75 08	 push	 DWORD PTR _k$[ebp]
  0003c	ff 75 f4	 push	 DWORD PTR $T2[ebp]
  0003f	8b 4d fc	 mov	 ecx, DWORD PTR _this$[ebp]
  00042	e8 00 00 00 00	 call	 ??$find_node_impl@KU?$equal_to@K@std@@@?$table@U?$map@V?$allocator@U?$pair@$$CBKUSCache@CEterPackManager@@@std@@@std@@KUSCache@CEterPackManager@@U?$hash@K@boost@@U?$equal_to@K@2@@detail@unordered@boost@@@detail@unordered@boost@@QBEPAU?$ptr_node@U?$pair@$$CBKUSCache@CEterPackManager@@@std@@@123@IABKABU?$equal_to@K@std@@@Z ; boost::unordered::detail::table<boost::unordered::detail::map<std::allocator<std::pair<unsigned long const ,CEterPackManager::SCache> >,unsigned long,CEterPackManager::SCache,boost::hash<unsigned long>,std::equal_to<unsigned long> > >::find_node_impl<unsigned long,std::equal_to<unsigned long> >

; 3582 :         }

  00047	c9		 leave
  00048	c2 04 00	 ret	 4
?find_node@?$table@U?$map@V?$allocator@U?$pair@$$CBKUSCache@CEterPackManager@@@std@@@std@@KUSCache@CEterPackManager@@U?$hash@K@boost@@U?$equal_to@K@2@@detail@unordered@boost@@@detail@unordered@boost@@QBEPAU?$ptr_node@U?$pair@$$CBKUSCache@CEterPackManager@@@std@@@234@ABK@Z ENDP ; boost::unordered::detail::table<boost::unordered::detail::map<std::allocator<std::pair<unsigned long const ,CEterPackManager::SCache> >,unsigned long,CEterPackManager::SCache,boost::hash<unsigned long>,std::equal_to<unsigned long> > >::find_node
_TEXT	ENDS
; Function compile flags: /Odspy
; File D:\Metin2 Server Files\mainline\SRC_2014\M2Data\include\boost\unordered\detail\implementation.hpp
;	COMDAT ?clear_impl@?$table@U?$map@V?$allocator@U?$pair@$$CBKUSCache@CEterPackManager@@@std@@@std@@KUSCache@CEterPackManager@@U?$hash@K@boost@@U?$equal_to@K@2@@detail@unordered@boost@@@detail@unordered@boost@@QAEXXZ
_TEXT	SEGMENT
_next$1 = -24						; size = 4
_prev$2 = -20						; size = 4
_end$3 = -16						; size = 4
_n$4 = -12						; size = 4
_it$5 = -8						; size = 4
_this$ = -4						; size = 4
?clear_impl@?$table@U?$map@V?$allocator@U?$pair@$$CBKUSCache@CEterPackManager@@@std@@@std@@KUSCache@CEterPackManager@@U?$hash@K@boost@@U?$equal_to@K@2@@detail@unordered@boost@@@detail@unordered@boost@@QAEXXZ PROC ; boost::unordered::detail::table<boost::unordered::detail::map<std::allocator<std::pair<unsigned long const ,CEterPackManager::SCache> >,unsigned long,CEterPackManager::SCache,boost::hash<unsigned long>,std::equal_to<unsigned long> > >::clear_impl, COMDAT
; _this$ = ecx

; 4515 :       {

  00000	55		 push	 ebp
  00001	8b ec		 mov	 ebp, esp
  00003	83 ec 18	 sub	 esp, 24			; 00000018H
  00006	89 4d fc	 mov	 DWORD PTR _this$[ebp], ecx

; 4516 :         if (size_) {

  00009	8b 45 fc	 mov	 eax, DWORD PTR _this$[ebp]
  0000c	83 78 08 00	 cmp	 DWORD PTR [eax+8], 0
  00010	74 72		 je	 SHORT $LN1@clear_impl

; 3026 :           return buckets_ + static_cast<std::ptrdiff_t>(bucket_index);

  00012	8b 45 fc	 mov	 eax, DWORD PTR _this$[ebp]
  00015	8b 40 04	 mov	 eax, DWORD PTR [eax+4]
  00018	8b 4d fc	 mov	 ecx, DWORD PTR _this$[ebp]
  0001b	8b 49 14	 mov	 ecx, DWORD PTR [ecx+20]
  0001e	8d 04 81	 lea	 eax, DWORD PTR [ecx+eax*4]

; 4517 :           bucket_pointer end = get_bucket_pointer(bucket_count_);

  00021	89 45 f0	 mov	 DWORD PTR _end$3[ebp], eax

; 4518 :           for (bucket_pointer it = buckets_; it != end; ++it) {

  00024	8b 45 fc	 mov	 eax, DWORD PTR _this$[ebp]
  00027	8b 40 14	 mov	 eax, DWORD PTR [eax+20]
  0002a	89 45 f8	 mov	 DWORD PTR _it$5[ebp], eax
  0002d	eb 09		 jmp	 SHORT $LN4@clear_impl
$LN2@clear_impl:
  0002f	8b 45 f8	 mov	 eax, DWORD PTR _it$5[ebp]
  00032	83 c0 04	 add	 eax, 4
  00035	89 45 f8	 mov	 DWORD PTR _it$5[ebp], eax
$LN4@clear_impl:
  00038	8b 45 f8	 mov	 eax, DWORD PTR _it$5[ebp]
  0003b	3b 45 f0	 cmp	 eax, DWORD PTR _end$3[ebp]
  0003e	74 08		 je	 SHORT $LN11@clear_impl

; 4519 :             it->next_ = node_pointer();

  00040	8b 45 f8	 mov	 eax, DWORD PTR _it$5[ebp]
  00043	83 20 00	 and	 DWORD PTR [eax], 0

; 4520 :           }

  00046	eb e7		 jmp	 SHORT $LN2@clear_impl
$LN11@clear_impl:

; 4521 : 
; 4522 :           link_pointer prev = end->first_from_start();

  00048	8b 45 f0	 mov	 eax, DWORD PTR _end$3[ebp]
  0004b	89 45 ec	 mov	 DWORD PTR _prev$2[ebp], eax

; 2964 :           return static_cast<node_pointer>(n->next_);

  0004e	8b 45 ec	 mov	 eax, DWORD PTR _prev$2[ebp]
  00051	8b 00		 mov	 eax, DWORD PTR [eax]
  00053	89 45 f4	 mov	 DWORD PTR _n$4[ebp], eax

; 4523 :           node_pointer n = next_node(prev);
; 4524 :           prev->next_ = node_pointer();

  00056	8b 45 ec	 mov	 eax, DWORD PTR _prev$2[ebp]
  00059	83 20 00	 and	 DWORD PTR [eax], 0

; 4525 :           size_ = 0;

  0005c	8b 45 fc	 mov	 eax, DWORD PTR _this$[ebp]
  0005f	83 60 08 00	 and	 DWORD PTR [eax+8], 0
$LN5@clear_impl:

; 4526 : 
; 4527 :           while (n) {

  00063	83 7d f4 00	 cmp	 DWORD PTR _n$4[ebp], 0
  00067	74 1b		 je	 SHORT $LN1@clear_impl

; 2964 :           return static_cast<node_pointer>(n->next_);

  00069	8b 45 f4	 mov	 eax, DWORD PTR _n$4[ebp]
  0006c	8b 00		 mov	 eax, DWORD PTR [eax]
  0006e	89 45 e8	 mov	 DWORD PTR _next$1[ebp], eax

; 4528 :             node_pointer next = next_node(n);
; 4529 :             destroy_node(n);

  00071	ff 75 f4	 push	 DWORD PTR _n$4[ebp]
  00074	8b 4d fc	 mov	 ecx, DWORD PTR _this$[ebp]
  00077	e8 00 00 00 00	 call	 ?destroy_node@?$table@U?$map@V?$allocator@U?$pair@$$CBKUSCache@CEterPackManager@@@std@@@std@@KUSCache@CEterPackManager@@U?$hash@K@boost@@U?$equal_to@K@2@@detail@unordered@boost@@@detail@unordered@boost@@QAEXPAU?$ptr_node@U?$pair@$$CBKUSCache@CEterPackManager@@@std@@@234@@Z ; boost::unordered::detail::table<boost::unordered::detail::map<std::allocator<std::pair<unsigned long const ,CEterPackManager::SCache> >,unsigned long,CEterPackManager::SCache,boost::hash<unsigned long>,std::equal_to<unsigned long> > >::destroy_node

; 4530 :             n = next;

  0007c	8b 45 e8	 mov	 eax, DWORD PTR _next$1[ebp]
  0007f	89 45 f4	 mov	 DWORD PTR _n$4[ebp], eax

; 4531 :           }

  00082	eb df		 jmp	 SHORT $LN5@clear_impl
$LN1@clear_impl:

; 4532 :         }
; 4533 :       }

  00084	c9		 leave
  00085	c3		 ret	 0
?clear_impl@?$table@U?$map@V?$allocator@U?$pair@$$CBKUSCache@CEterPackManager@@@std@@@std@@KUSCache@CEterPackManager@@U?$hash@K@boost@@U?$equal_to@K@2@@detail@unordered@boost@@@detail@unordered@boost@@QAEXXZ ENDP ; boost::unordered::detail::table<boost::unordered::detail::map<std::allocator<std::pair<unsigned long const ,CEterPackManager::SCache> >,unsigned long,CEterPackManager::SCache,boost::hash<unsigned long>,std::equal_to<unsigned long> > >::clear_impl
_TEXT	ENDS
; Function compile flags: /Odspy
; File D:\Metin2 Server Files\mainline\SRC_2014\M2Data\include\boost\unordered\detail\implementation.hpp
; File D:\Metin2 Server Files\mainline\SRC_2014\M2Data\include\boost\core\pointer_traits.hpp
; File D:\Metin2 Server Files\mainline\SRC_2014\M2Data\include\boost\unordered\detail\implementation.hpp
; File C:\Program Files (x86)\Microsoft Visual Studio\2019\Community\VC\Tools\MSVC\14.28.29333\include\xmemory
; File D:\Metin2 Server Files\mainline\SRC_2014\M2Data\include\boost\unordered\detail\implementation.hpp
;	COMDAT ?destroy_buckets@?$table@U?$map@V?$allocator@U?$pair@$$CBKUSCache@CEterPackManager@@@std@@@std@@KUSCache@CEterPackManager@@U?$hash@K@boost@@U?$equal_to@K@2@@detail@unordered@boost@@@detail@unordered@boost@@QAEXXZ
_TEXT	SEGMENT
$T1 = -24						; size = 4
__Ptr$ = -20						; size = 4
__Count$ = -16						; size = 4
_end$ = -12						; size = 4
_it$2 = -8						; size = 4
_this$ = -4						; size = 4
?destroy_buckets@?$table@U?$map@V?$allocator@U?$pair@$$CBKUSCache@CEterPackManager@@@std@@@std@@KUSCache@CEterPackManager@@U?$hash@K@boost@@U?$equal_to@K@2@@detail@unordered@boost@@@detail@unordered@boost@@QAEXXZ PROC ; boost::unordered::detail::table<boost::unordered::detail::map<std::allocator<std::pair<unsigned long const ,CEterPackManager::SCache> >,unsigned long,CEterPackManager::SCache,boost::hash<unsigned long>,std::equal_to<unsigned long> > >::destroy_buckets, COMDAT
; _this$ = ecx

; 3370 :         {

  00000	55		 push	 ebp
  00001	8b ec		 mov	 ebp, esp
  00003	83 ec 18	 sub	 esp, 24			; 00000018H
  00006	89 4d fc	 mov	 DWORD PTR _this$[ebp], ecx

; 3026 :           return buckets_ + static_cast<std::ptrdiff_t>(bucket_index);

  00009	8b 45 fc	 mov	 eax, DWORD PTR _this$[ebp]
  0000c	8b 40 04	 mov	 eax, DWORD PTR [eax+4]
  0000f	8b 4d fc	 mov	 ecx, DWORD PTR _this$[ebp]
  00012	8b 49 14	 mov	 ecx, DWORD PTR [ecx+20]
  00015	8d 44 81 04	 lea	 eax, DWORD PTR [ecx+eax*4+4]

; 3371 :           bucket_pointer end = get_bucket_pointer(bucket_count_ + 1);

  00019	89 45 f4	 mov	 DWORD PTR _end$[ebp], eax

; 3372 :           for (bucket_pointer it = buckets_; it != end; ++it) {

  0001c	8b 45 fc	 mov	 eax, DWORD PTR _this$[ebp]
  0001f	8b 40 14	 mov	 eax, DWORD PTR [eax+20]
  00022	89 45 f8	 mov	 DWORD PTR _it$2[ebp], eax
  00025	eb 09		 jmp	 SHORT $LN4@destroy_bu
$LN2@destroy_bu:
  00027	8b 45 f8	 mov	 eax, DWORD PTR _it$2[ebp]
  0002a	83 c0 04	 add	 eax, 4
  0002d	89 45 f8	 mov	 DWORD PTR _it$2[ebp], eax
$LN4@destroy_bu:
  00030	8b 45 f8	 mov	 eax, DWORD PTR _it$2[ebp]
  00033	3b 45 f4	 cmp	 eax, DWORD PTR _end$[ebp]
  00036	74 08		 je	 SHORT $LN13@destroy_bu
; File D:\Metin2 Server Files\mainline\SRC_2014\M2Data\include\boost\core\pointer_traits.hpp

; 186  :     return v;

  00038	8b 45 f8	 mov	 eax, DWORD PTR _it$2[ebp]
  0003b	89 45 e8	 mov	 DWORD PTR $T1[ebp], eax
; File D:\Metin2 Server Files\mainline\SRC_2014\M2Data\include\boost\unordered\detail\implementation.hpp

; 3374 :           }

  0003e	eb e7		 jmp	 SHORT $LN2@destroy_bu
$LN13@destroy_bu:

; 3375 : 
; 3376 :           bucket_allocator_traits::deallocate(

  00040	8b 45 fc	 mov	 eax, DWORD PTR _this$[ebp]
  00043	8b 40 04	 mov	 eax, DWORD PTR [eax+4]
  00046	40		 inc	 eax
  00047	89 45 f0	 mov	 DWORD PTR __Count$[ebp], eax
  0004a	8b 45 fc	 mov	 eax, DWORD PTR _this$[ebp]
  0004d	8b 40 14	 mov	 eax, DWORD PTR [eax+20]
  00050	89 45 ec	 mov	 DWORD PTR __Ptr$[ebp], eax
; File C:\Program Files (x86)\Microsoft Visual Studio\2019\Community\VC\Tools\MSVC\14.28.29333\include\xmemory

; 696  :         _Deallocate<_New_alignof<value_type>>(_Ptr, sizeof(value_type) * _Count);

  00053	8b 45 f0	 mov	 eax, DWORD PTR __Count$[ebp]
  00056	c1 e0 02	 shl	 eax, 2
  00059	50		 push	 eax
  0005a	ff 75 ec	 push	 DWORD PTR __Ptr$[ebp]
  0005d	e8 00 00 00 00	 call	 ??$_Deallocate@$07$0A@@std@@YAXPAXI@Z ; std::_Deallocate<8,0>
  00062	59		 pop	 ecx
  00063	59		 pop	 ecx
; File D:\Metin2 Server Files\mainline\SRC_2014\M2Data\include\boost\unordered\detail\implementation.hpp

; 3378 :         }

  00064	c9		 leave
  00065	c3		 ret	 0
?destroy_buckets@?$table@U?$map@V?$allocator@U?$pair@$$CBKUSCache@CEterPackManager@@@std@@@std@@KUSCache@CEterPackManager@@U?$hash@K@boost@@U?$equal_to@K@2@@detail@unordered@boost@@@detail@unordered@boost@@QAEXXZ ENDP ; boost::unordered::detail::table<boost::unordered::detail::map<std::allocator<std::pair<unsigned long const ,CEterPackManager::SCache> >,unsigned long,CEterPackManager::SCache,boost::hash<unsigned long>,std::equal_to<unsigned long> > >::destroy_buckets
_TEXT	ENDS
; Function compile flags: /Odspy
; File D:\Metin2 Server Files\mainline\SRC_2014\M2Data\include\boost\unordered\detail\implementation.hpp
; File D:\Metin2 Server Files\mainline\SRC_2014\M2Data\include\boost\core\pointer_traits.hpp
; File D:\Metin2 Server Files\mainline\SRC_2014\M2Data\include\boost\unordered\detail\implementation.hpp
; File C:\Program Files (x86)\Microsoft Visual Studio\2019\Community\VC\Tools\MSVC\14.28.29333\include\xmemory
; File D:\Metin2 Server Files\mainline\SRC_2014\M2Data\include\boost\unordered\detail\implementation.hpp
;	COMDAT ?delete_buckets@?$table@U?$map@V?$allocator@U?$pair@$$CBKUSCache@CEterPackManager@@@std@@@std@@KUSCache@CEterPackManager@@U?$hash@K@boost@@U?$equal_to@K@2@@detail@unordered@boost@@@detail@unordered@boost@@QAEXXZ
_TEXT	SEGMENT
$T1 = -28						; size = 4
_next$2 = -24						; size = 4
_next$3 = -20						; size = 4
$T4 = -16						; size = 4
_this$ = -12						; size = 4
_n$5 = -8						; size = 4
_this$ = -4						; size = 4
?delete_buckets@?$table@U?$map@V?$allocator@U?$pair@$$CBKUSCache@CEterPackManager@@@std@@@std@@KUSCache@CEterPackManager@@U?$hash@K@boost@@U?$equal_to@K@2@@detail@unordered@boost@@@detail@unordered@boost@@QAEXXZ PROC ; boost::unordered::detail::table<boost::unordered::detail::map<std::allocator<std::pair<unsigned long const ,CEterPackManager::SCache> >,unsigned long,CEterPackManager::SCache,boost::hash<unsigned long>,std::equal_to<unsigned long> > >::delete_buckets, COMDAT
; _this$ = ecx

; 3344 :         {

  00000	55		 push	 ebp
  00001	8b ec		 mov	 ebp, esp
  00003	83 ec 1c	 sub	 esp, 28			; 0000001cH
  00006	89 4d fc	 mov	 DWORD PTR _this$[ebp], ecx

; 3345 :           if (buckets_) {

  00009	8b 45 fc	 mov	 eax, DWORD PTR _this$[ebp]
  0000c	83 78 14 00	 cmp	 DWORD PTR [eax+20], 0
  00010	0f 84 91 00 00
	00		 je	 $LN1@delete_buc

; 3346 :             node_pointer n = static_cast<node_pointer>(

  00016	8b 45 fc	 mov	 eax, DWORD PTR _this$[ebp]
  00019	8b 40 04	 mov	 eax, DWORD PTR [eax+4]
  0001c	8b 4d fc	 mov	 ecx, DWORD PTR _this$[ebp]
  0001f	8b 49 14	 mov	 ecx, DWORD PTR [ecx+20]
  00022	8b 04 81	 mov	 eax, DWORD PTR [ecx+eax*4]
  00025	89 45 f8	 mov	 DWORD PTR _n$5[ebp], eax

; 3347 :               get_bucket_pointer(bucket_count_)->next_);
; 3348 : 
; 3349 :             if (bucket::extra_node) {

  00028	33 c0		 xor	 eax, eax
  0002a	74 3d		 je	 SHORT $LN2@delete_buc

; 2964 :           return static_cast<node_pointer>(n->next_);

  0002c	8b 45 f8	 mov	 eax, DWORD PTR _n$5[ebp]
  0002f	8b 00		 mov	 eax, DWORD PTR [eax]
  00031	89 45 ec	 mov	 DWORD PTR _next$3[ebp], eax
; File D:\Metin2 Server Files\mainline\SRC_2014\M2Data\include\boost\core\pointer_traits.hpp

; 186  :     return v;

  00034	8b 45 f8	 mov	 eax, DWORD PTR _n$5[ebp]
  00037	89 45 e4	 mov	 DWORD PTR $T1[ebp], eax
; File D:\Metin2 Server Files\mainline\SRC_2014\M2Data\include\boost\unordered\detail\implementation.hpp

; 3014 :         node_allocator& node_alloc() { return allocators_.second(); }

  0003a	8b 45 fc	 mov	 eax, DWORD PTR _this$[ebp]
  0003d	83 c0 03	 add	 eax, 3
  00040	89 45 f4	 mov	 DWORD PTR _this$[ebp], eax

; 430  :         second_type& second() { return static_cast<base2*>(this)->get(); }

  00043	74 09		 je	 SHORT $LN20@delete_buc
  00045	8b 45 f4	 mov	 eax, DWORD PTR _this$[ebp]
  00048	40		 inc	 eax
  00049	89 45 f0	 mov	 DWORD PTR $T4[ebp], eax
  0004c	eb 04		 jmp	 SHORT $LN16@delete_buc
$LN20@delete_buc:
  0004e	83 65 f0 00	 and	 DWORD PTR $T4[ebp], 0
$LN16@delete_buc:
; File C:\Program Files (x86)\Microsoft Visual Studio\2019\Community\VC\Tools\MSVC\14.28.29333\include\xmemory

; 696  :         _Deallocate<_New_alignof<value_type>>(_Ptr, sizeof(value_type) * _Count);

  00052	33 c0		 xor	 eax, eax
  00054	40		 inc	 eax
  00055	6b c0 14	 imul	 eax, eax, 20
  00058	50		 push	 eax
  00059	ff 75 f8	 push	 DWORD PTR _n$5[ebp]
  0005c	e8 00 00 00 00	 call	 ??$_Deallocate@$07$0A@@std@@YAXPAXI@Z ; std::_Deallocate<8,0>
  00061	59		 pop	 ecx
  00062	59		 pop	 ecx
; File D:\Metin2 Server Files\mainline\SRC_2014\M2Data\include\boost\unordered\detail\implementation.hpp

; 3353 :               n = next;

  00063	8b 45 ec	 mov	 eax, DWORD PTR _next$3[ebp]
  00066	89 45 f8	 mov	 DWORD PTR _n$5[ebp], eax
$LN2@delete_buc:

; 3354 :             }
; 3355 : 
; 3356 :             while (n) {

  00069	83 7d f8 00	 cmp	 DWORD PTR _n$5[ebp], 0
  0006d	74 1b		 je	 SHORT $LN3@delete_buc

; 2964 :           return static_cast<node_pointer>(n->next_);

  0006f	8b 45 f8	 mov	 eax, DWORD PTR _n$5[ebp]
  00072	8b 00		 mov	 eax, DWORD PTR [eax]
  00074	89 45 e8	 mov	 DWORD PTR _next$2[ebp], eax

; 3357 :               node_pointer next = next_node(n);
; 3358 :               destroy_node(n);

  00077	ff 75 f8	 push	 DWORD PTR _n$5[ebp]
  0007a	8b 4d fc	 mov	 ecx, DWORD PTR _this$[ebp]
  0007d	e8 00 00 00 00	 call	 ?destroy_node@?$table@U?$map@V?$allocator@U?$pair@$$CBKUSCache@CEterPackManager@@@std@@@std@@KUSCache@CEterPackManager@@U?$hash@K@boost@@U?$equal_to@K@2@@detail@unordered@boost@@@detail@unordered@boost@@QAEXPAU?$ptr_node@U?$pair@$$CBKUSCache@CEterPackManager@@@std@@@234@@Z ; boost::unordered::detail::table<boost::unordered::detail::map<std::allocator<std::pair<unsigned long const ,CEterPackManager::SCache> >,unsigned long,CEterPackManager::SCache,boost::hash<unsigned long>,std::equal_to<unsigned long> > >::destroy_node

; 3359 :               n = next;

  00082	8b 45 e8	 mov	 eax, DWORD PTR _next$2[ebp]
  00085	89 45 f8	 mov	 DWORD PTR _n$5[ebp], eax

; 3360 :             }

  00088	eb df		 jmp	 SHORT $LN2@delete_buc
$LN3@delete_buc:

; 3361 : 
; 3362 :             destroy_buckets();

  0008a	8b 4d fc	 mov	 ecx, DWORD PTR _this$[ebp]
  0008d	e8 00 00 00 00	 call	 ?destroy_buckets@?$table@U?$map@V?$allocator@U?$pair@$$CBKUSCache@CEterPackManager@@@std@@@std@@KUSCache@CEterPackManager@@U?$hash@K@boost@@U?$equal_to@K@2@@detail@unordered@boost@@@detail@unordered@boost@@QAEXXZ ; boost::unordered::detail::table<boost::unordered::detail::map<std::allocator<std::pair<unsigned long const ,CEterPackManager::SCache> >,unsigned long,CEterPackManager::SCache,boost::hash<unsigned long>,std::equal_to<unsigned long> > >::destroy_buckets

; 3363 :             buckets_ = bucket_pointer();

  00092	8b 45 fc	 mov	 eax, DWORD PTR _this$[ebp]
  00095	83 60 14 00	 and	 DWORD PTR [eax+20], 0

; 3364 :             max_load_ = 0;

  00099	8b 45 fc	 mov	 eax, DWORD PTR _this$[ebp]
  0009c	83 60 10 00	 and	 DWORD PTR [eax+16], 0

; 3365 :             size_ = 0;

  000a0	8b 45 fc	 mov	 eax, DWORD PTR _this$[ebp]
  000a3	83 60 08 00	 and	 DWORD PTR [eax+8], 0
$LN1@delete_buc:

; 3366 :           }
; 3367 :         }

  000a7	c9		 leave
  000a8	c3		 ret	 0
?delete_buckets@?$table@U?$map@V?$allocator@U?$pair@$$CBKUSCache@CEterPackManager@@@std@@@std@@KUSCache@CEterPackManager@@U?$hash@K@boost@@U?$equal_to@K@2@@detail@unordered@boost@@@detail@unordered@boost@@QAEXXZ ENDP ; boost::unordered::detail::table<boost::unordered::detail::map<std::allocator<std::pair<unsigned long const ,CEterPackManager::SCache> >,unsigned long,CEterPackManager::SCache,boost::hash<unsigned long>,std::equal_to<unsigned long> > >::delete_buckets
_TEXT	ENDS
; Function compile flags: /Odspy
; File D:\Metin2 Server Files\mainline\SRC_2014\M2Data\include\boost\unordered\detail\implementation.hpp
; File D:\Metin2 Server Files\mainline\SRC_2014\M2Data\include\boost\core\pointer_traits.hpp
; File D:\Metin2 Server Files\mainline\SRC_2014\M2Data\include\boost\unordered\detail\implementation.hpp
; File C:\Program Files (x86)\Microsoft Visual Studio\2019\Community\VC\Tools\MSVC\14.28.29333\include\xmemory
; File D:\Metin2 Server Files\mainline\SRC_2014\M2Data\include\boost\unordered\detail\implementation.hpp
;	COMDAT ?destroy_node@?$table@U?$map@V?$allocator@U?$pair@$$CBKUSCache@CEterPackManager@@@std@@@std@@KUSCache@CEterPackManager@@U?$hash@K@boost@@U?$equal_to@K@2@@detail@unordered@boost@@@detail@unordered@boost@@QAEXPAU?$ptr_node@U?$pair@$$CBKUSCache@CEterPackManager@@@std@@@234@@Z
_TEXT	SEGMENT
$T1 = -24						; size = 4
$T2 = -20						; size = 4
$T3 = -16						; size = 4
_this$ = -12						; size = 4
_this$ = -8						; size = 4
_this$ = -4						; size = 4
_n$ = 8							; size = 4
?destroy_node@?$table@U?$map@V?$allocator@U?$pair@$$CBKUSCache@CEterPackManager@@@std@@@std@@KUSCache@CEterPackManager@@U?$hash@K@boost@@U?$equal_to@K@2@@detail@unordered@boost@@@detail@unordered@boost@@QAEXPAU?$ptr_node@U?$pair@$$CBKUSCache@CEterPackManager@@@std@@@234@@Z PROC ; boost::unordered::detail::table<boost::unordered::detail::map<std::allocator<std::pair<unsigned long const ,CEterPackManager::SCache> >,unsigned long,CEterPackManager::SCache,boost::hash<unsigned long>,std::equal_to<unsigned long> > >::destroy_node, COMDAT
; _this$ = ecx

; 3336 :         {

  00000	55		 push	 ebp
  00001	8b ec		 mov	 ebp, esp
  00003	83 ec 18	 sub	 esp, 24			; 00000018H
  00006	89 4d f8	 mov	 DWORD PTR _this$[ebp], ecx

; 3014 :         node_allocator& node_alloc() { return allocators_.second(); }

  00009	8b 45 f8	 mov	 eax, DWORD PTR _this$[ebp]
  0000c	83 c0 03	 add	 eax, 3
  0000f	89 45 fc	 mov	 DWORD PTR _this$[ebp], eax

; 430  :         second_type& second() { return static_cast<base2*>(this)->get(); }

  00012	74 09		 je	 SHORT $LN11@destroy_no
  00014	8b 45 fc	 mov	 eax, DWORD PTR _this$[ebp]
  00017	40		 inc	 eax
  00018	89 45 f0	 mov	 DWORD PTR $T3[ebp], eax
  0001b	eb 04		 jmp	 SHORT $LN15@destroy_no
$LN11@destroy_no:
  0001d	83 65 f0 00	 and	 DWORD PTR $T3[ebp], 0
$LN15@destroy_no:
; File D:\Metin2 Server Files\mainline\SRC_2014\M2Data\include\boost\core\pointer_traits.hpp

; 186  :     return v;

  00021	8b 45 08	 mov	 eax, DWORD PTR _n$[ebp]
  00024	89 45 e8	 mov	 DWORD PTR $T1[ebp], eax
; File D:\Metin2 Server Files\mainline\SRC_2014\M2Data\include\boost\unordered\detail\implementation.hpp

; 3014 :         node_allocator& node_alloc() { return allocators_.second(); }

  00027	8b 45 f8	 mov	 eax, DWORD PTR _this$[ebp]
  0002a	83 c0 03	 add	 eax, 3
  0002d	89 45 f4	 mov	 DWORD PTR _this$[ebp], eax

; 430  :         second_type& second() { return static_cast<base2*>(this)->get(); }

  00030	74 09		 je	 SHORT $LN26@destroy_no
  00032	8b 45 f4	 mov	 eax, DWORD PTR _this$[ebp]
  00035	40		 inc	 eax
  00036	89 45 ec	 mov	 DWORD PTR $T2[ebp], eax
  00039	eb 04		 jmp	 SHORT $LN22@destroy_no
$LN26@destroy_no:
  0003b	83 65 ec 00	 and	 DWORD PTR $T2[ebp], 0
$LN22@destroy_no:
; File C:\Program Files (x86)\Microsoft Visual Studio\2019\Community\VC\Tools\MSVC\14.28.29333\include\xmemory

; 696  :         _Deallocate<_New_alignof<value_type>>(_Ptr, sizeof(value_type) * _Count);

  0003f	33 c0		 xor	 eax, eax
  00041	40		 inc	 eax
  00042	6b c0 14	 imul	 eax, eax, 20
  00045	50		 push	 eax
  00046	ff 75 08	 push	 DWORD PTR _n$[ebp]
  00049	e8 00 00 00 00	 call	 ??$_Deallocate@$07$0A@@std@@YAXPAXI@Z ; std::_Deallocate<8,0>
  0004e	59		 pop	 ecx
  0004f	59		 pop	 ecx
; File D:\Metin2 Server Files\mainline\SRC_2014\M2Data\include\boost\unordered\detail\implementation.hpp

; 3341 :         }

  00050	c9		 leave
  00051	c2 04 00	 ret	 4
?destroy_node@?$table@U?$map@V?$allocator@U?$pair@$$CBKUSCache@CEterPackManager@@@std@@@std@@KUSCache@CEterPackManager@@U?$hash@K@boost@@U?$equal_to@K@2@@detail@unordered@boost@@@detail@unordered@boost@@QAEXPAU?$ptr_node@U?$pair@$$CBKUSCache@CEterPackManager@@@std@@@234@@Z ENDP ; boost::unordered::detail::table<boost::unordered::detail::map<std::allocator<std::pair<unsigned long const ,CEterPackManager::SCache> >,unsigned long,CEterPackManager::SCache,boost::hash<unsigned long>,std::equal_to<unsigned long> > >::destroy_node
_TEXT	ENDS
; Function compile flags: /Odspy
; File D:\Metin2 Server Files\mainline\SRC_2014\M2Data\include\boost\unordered\detail\implementation.hpp
; File C:\Program Files (x86)\Microsoft Visual Studio\2019\Community\VC\Tools\MSVC\14.28.29333\include\xmemory
; File D:\Metin2 Server Files\mainline\SRC_2014\M2Data\include\boost\unordered\detail\implementation.hpp
; File C:\Program Files (x86)\Microsoft Visual Studio\2019\Community\VC\Tools\MSVC\14.28.29333\include\xmemory
; File D:\Metin2 Server Files\mainline\SRC_2014\M2Data\include\boost\unordered\detail\implementation.hpp
; File C:\Program Files (x86)\Microsoft Visual Studio\2019\Community\VC\Tools\MSVC\14.28.29333\include\xmemory
; File D:\Metin2 Server Files\mainline\SRC_2014\M2Data\include\boost\unordered\detail\implementation.hpp
; File D:\Metin2 Server Files\mainline\SRC_2014\M2Data\include\boost\core\pointer_traits.hpp
; File C:\Program Files (x86)\Microsoft Visual Studio\2019\Community\VC\Tools\MSVC\14.28.29333\include\vcruntime_new.h
; File D:\Metin2 Server Files\mainline\SRC_2014\M2Data\include\boost\unordered\detail\implementation.hpp
; File D:\Metin2 Server Files\mainline\SRC_2014\M2Data\include\boost\core\pointer_traits.hpp
; File C:\Program Files (x86)\Microsoft Visual Studio\2019\Community\VC\Tools\MSVC\14.28.29333\include\vcruntime_new.h
; File D:\Metin2 Server Files\mainline\SRC_2014\M2Data\include\boost\unordered\detail\implementation.hpp
;	COMDAT ?create_buckets@?$table@U?$map@V?$allocator@U?$pair@$$CBKUSCache@CEterPackManager@@@std@@@std@@KUSCache@CEterPackManager@@U?$hash@K@boost@@U?$equal_to@K@2@@detail@unordered@boost@@@detail@unordered@boost@@QAEXI@Z
_TEXT	SEGMENT
_a$2 = -116						; size = 8
__Max_possible$3 = -108					; size = 4
__Max_possible$4 = -104					; size = 4
__Max_possible$5 = -100					; size = 4
$T6 = -96						; size = 4
$T7 = -92						; size = 4
$T8 = -88						; size = 4
$T9 = -84						; size = 4
$T10 = -80						; size = 4
$T11 = -76						; size = 4
_p$12 = -72						; size = 4
$T13 = -68						; size = 4
$T14 = -64						; size = 4
_new_buckets$15 = -60					; size = 4
$T16 = -56						; size = 4
_end$ = -52						; size = 4
__Count$ = -48						; size = 4
__Count$ = -44						; size = 4
$T17 = -40						; size = 4
_this$ = -36						; size = 4
__Count$ = -32						; size = 4
_dummy_node$ = -28					; size = 4
_i$18 = -24						; size = 4
_this$ = -20						; size = 4
__Overflow_is_possible$19 = -15				; size = 1
__Overflow_is_possible$20 = -14				; size = 1
__Overflow_is_possible$21 = -13				; size = 1
__$EHRec$ = -12						; size = 12
_new_count$ = 8						; size = 4
?create_buckets@?$table@U?$map@V?$allocator@U?$pair@$$CBKUSCache@CEterPackManager@@@std@@@std@@KUSCache@CEterPackManager@@U?$hash@K@boost@@U?$equal_to@K@2@@detail@unordered@boost@@@detail@unordered@boost@@QAEXI@Z PROC ; boost::unordered::detail::table<boost::unordered::detail::map<std::allocator<std::pair<unsigned long const ,CEterPackManager::SCache> >,unsigned long,CEterPackManager::SCache,boost::hash<unsigned long>,std::equal_to<unsigned long> > >::create_buckets, COMDAT
; _this$ = ecx

; 3178 :         {

  00000	55		 push	 ebp
  00001	8b ec		 mov	 ebp, esp
  00003	6a ff		 push	 -1
  00005	68 00 00 00 00	 push	 __ehhandler$?create_buckets@?$table@U?$map@V?$allocator@U?$pair@$$CBKUSCache@CEterPackManager@@@std@@@std@@KUSCache@CEterPackManager@@U?$hash@K@boost@@U?$equal_to@K@2@@detail@unordered@boost@@@detail@unordered@boost@@QAEXI@Z
  0000a	64 a1 00 00 00
	00		 mov	 eax, DWORD PTR fs:0
  00010	50		 push	 eax
  00011	83 ec 68	 sub	 esp, 104		; 00000068H
  00014	a1 00 00 00 00	 mov	 eax, DWORD PTR ___security_cookie
  00019	33 c5		 xor	 eax, ebp
  0001b	50		 push	 eax
  0001c	8d 45 f4	 lea	 eax, DWORD PTR __$EHRec$[ebp]
  0001f	64 a3 00 00 00
	00		 mov	 DWORD PTR fs:0, eax
  00025	89 4d ec	 mov	 DWORD PTR _this$[ebp], ecx

; 3179 :           link_pointer dummy_node;
; 3180 : 
; 3181 :           // Construct the new buckets and dummy node, and destroy the old
; 3182 :           // buckets
; 3183 :           if (buckets_) {

  00028	8b 45 ec	 mov	 eax, DWORD PTR _this$[ebp]
  0002b	83 78 14 00	 cmp	 DWORD PTR [eax+20], 0
  0002f	74 5d		 je	 SHORT $LN5@create_buc

; 3184 :             dummy_node =

  00031	8b 45 ec	 mov	 eax, DWORD PTR _this$[ebp]
  00034	8b 40 04	 mov	 eax, DWORD PTR [eax+4]
  00037	8b 4d ec	 mov	 ecx, DWORD PTR _this$[ebp]
  0003a	8b 49 14	 mov	 ecx, DWORD PTR [ecx+20]
  0003d	8b 04 81	 mov	 eax, DWORD PTR [ecx+eax*4]
  00040	89 45 e4	 mov	 DWORD PTR _dummy_node$[ebp], eax

; 3185 :               (buckets_ + static_cast<std::ptrdiff_t>(bucket_count_))->next_;
; 3186 :             bucket_pointer new_buckets =

  00043	8b 45 08	 mov	 eax, DWORD PTR _new_count$[ebp]
  00046	40		 inc	 eax
  00047	89 45 e0	 mov	 DWORD PTR __Count$[ebp], eax
; File C:\Program Files (x86)\Microsoft Visual Studio\2019\Community\VC\Tools\MSVC\14.28.29333\include\xmemory

; 56   :     constexpr bool _Overflow_is_possible = _Ty_size > 1;

  0004a	c6 45 f3 01	 mov	 BYTE PTR __Overflow_is_possible$21[ebp], 1

; 57   : 
; 58   :     if _CONSTEXPR_IF (_Overflow_is_possible) {
; 59   :         constexpr size_t _Max_possible = static_cast<size_t>(-1) / _Ty_size;

  0004e	c7 45 9c ff ff
	ff 3f		 mov	 DWORD PTR __Max_possible$5[ebp], 1073741823 ; 3fffffffH

; 60   :         if (_Count > _Max_possible) {

  00055	81 7d e0 ff ff
	ff 3f		 cmp	 DWORD PTR __Count$[ebp], 1073741823 ; 3fffffffH
  0005c	76 05		 jbe	 SHORT $LN20@create_buc

; 61   :             _Throw_bad_array_new_length(); // multiply overflow

  0005e	e8 00 00 00 00	 call	 ?_Throw_bad_array_new_length@std@@YAXXZ ; std::_Throw_bad_array_new_length
$LN20@create_buc:

; 62   :         }
; 63   :     }
; 64   : 
; 65   :     return _Count * _Ty_size;

  00063	8b 45 e0	 mov	 eax, DWORD PTR __Count$[ebp]
  00066	c1 e0 02	 shl	 eax, 2
  00069	89 45 c8	 mov	 DWORD PTR $T16[ebp], eax

; 686  :         return static_cast<pointer>(_Allocate<_New_alignof<value_type>>(_Get_size_of_n<sizeof(value_type)>(_Count)));

  0006c	ff 75 c8	 push	 DWORD PTR $T16[ebp]
  0006f	e8 00 00 00 00	 call	 ??$_Allocate@$07U_Default_allocate_traits@std@@$0A@@std@@YAPAXI@Z ; std::_Allocate<8,std::_Default_allocate_traits,0>
  00074	59		 pop	 ecx
  00075	89 45 c4	 mov	 DWORD PTR _new_buckets$15[ebp], eax
; File D:\Metin2 Server Files\mainline\SRC_2014\M2Data\include\boost\unordered\detail\implementation.hpp

; 3188 :             destroy_buckets();

  00078	8b 4d ec	 mov	 ecx, DWORD PTR _this$[ebp]
  0007b	e8 00 00 00 00	 call	 ?destroy_buckets@?$table@U?$map@V?$allocator@U?$pair@$$CBKUSCache@CEterPackManager@@@std@@@std@@KUSCache@CEterPackManager@@U?$hash@K@boost@@U?$equal_to@K@2@@detail@unordered@boost@@@detail@unordered@boost@@QAEXXZ ; boost::unordered::detail::table<boost::unordered::detail::map<std::allocator<std::pair<unsigned long const ,CEterPackManager::SCache> >,unsigned long,CEterPackManager::SCache,boost::hash<unsigned long>,std::equal_to<unsigned long> > >::destroy_buckets

; 3189 :             buckets_ = new_buckets;

  00080	8b 45 ec	 mov	 eax, DWORD PTR _this$[ebp]
  00083	8b 4d c4	 mov	 ecx, DWORD PTR _new_buckets$15[ebp]
  00086	89 48 14	 mov	 DWORD PTR [eax+20], ecx
  00089	e9 d4 00 00 00	 jmp	 $LN6@create_buc
$LN5@create_buc:

; 3190 :           } else if (bucket::extra_node) {

  0008e	33 c0		 xor	 eax, eax
  00090	0f 84 8a 00 00
	00		 je	 $LN7@create_buc

; 3014 :         node_allocator& node_alloc() { return allocators_.second(); }

  00096	8b 45 ec	 mov	 eax, DWORD PTR _this$[ebp]
  00099	83 c0 03	 add	 eax, 3
  0009c	89 45 dc	 mov	 DWORD PTR _this$[ebp], eax

; 430  :         second_type& second() { return static_cast<base2*>(this)->get(); }

  0009f	74 09		 je	 SHORT $LN48@create_buc
  000a1	8b 45 dc	 mov	 eax, DWORD PTR _this$[ebp]
  000a4	40		 inc	 eax
  000a5	89 45 d8	 mov	 DWORD PTR $T17[ebp], eax
  000a8	eb 04		 jmp	 SHORT $LN44@create_buc
$LN48@create_buc:
  000aa	83 65 d8 00	 and	 DWORD PTR $T17[ebp], 0
$LN44@create_buc:

; 1946 :         node_constructor(node_allocator& n) : alloc_(n), node_() {}

  000ae	8b 45 d8	 mov	 eax, DWORD PTR $T17[ebp]
  000b1	89 45 8c	 mov	 DWORD PTR _a$2[ebp], eax
  000b4	83 65 90 00	 and	 DWORD PTR _a$2[ebp+4], 0

; 3191 :             node_constructor a(node_alloc());

  000b8	83 65 fc 00	 and	 DWORD PTR __$EHRec$[ebp+8], 0

; 3192 :             a.create_node();

  000bc	8d 4d 8c	 lea	 ecx, DWORD PTR _a$2[ebp]
  000bf	e8 00 00 00 00	 call	 ?create_node@?$node_constructor@V?$allocator@U?$ptr_node@U?$pair@$$CBKUSCache@CEterPackManager@@@std@@@detail@unordered@boost@@@std@@@detail@unordered@boost@@QAEXXZ ; boost::unordered::detail::node_constructor<std::allocator<boost::unordered::detail::ptr_node<std::pair<unsigned long const ,CEterPackManager::SCache> > > >::create_node

; 3193 :             buckets_ =

  000c4	8b 45 08	 mov	 eax, DWORD PTR _new_count$[ebp]
  000c7	40		 inc	 eax
  000c8	89 45 d4	 mov	 DWORD PTR __Count$[ebp], eax
; File C:\Program Files (x86)\Microsoft Visual Studio\2019\Community\VC\Tools\MSVC\14.28.29333\include\xmemory

; 56   :     constexpr bool _Overflow_is_possible = _Ty_size > 1;

  000cb	c6 45 f2 01	 mov	 BYTE PTR __Overflow_is_possible$20[ebp], 1

; 57   : 
; 58   :     if _CONSTEXPR_IF (_Overflow_is_possible) {
; 59   :         constexpr size_t _Max_possible = static_cast<size_t>(-1) / _Ty_size;

  000cf	c7 45 98 ff ff
	ff 3f		 mov	 DWORD PTR __Max_possible$4[ebp], 1073741823 ; 3fffffffH

; 60   :         if (_Count > _Max_possible) {

  000d6	81 7d d4 ff ff
	ff 3f		 cmp	 DWORD PTR __Count$[ebp], 1073741823 ; 3fffffffH
  000dd	76 05		 jbe	 SHORT $LN63@create_buc

; 61   :             _Throw_bad_array_new_length(); // multiply overflow

  000df	e8 00 00 00 00	 call	 ?_Throw_bad_array_new_length@std@@YAXXZ ; std::_Throw_bad_array_new_length
$LN63@create_buc:

; 62   :         }
; 63   :     }
; 64   : 
; 65   :     return _Count * _Ty_size;

  000e4	8b 45 d4	 mov	 eax, DWORD PTR __Count$[ebp]
  000e7	c1 e0 02	 shl	 eax, 2
  000ea	89 45 c0	 mov	 DWORD PTR $T14[ebp], eax

; 686  :         return static_cast<pointer>(_Allocate<_New_alignof<value_type>>(_Get_size_of_n<sizeof(value_type)>(_Count)));

  000ed	ff 75 c0	 push	 DWORD PTR $T14[ebp]
  000f0	e8 00 00 00 00	 call	 ??$_Allocate@$07U_Default_allocate_traits@std@@$0A@@std@@YAPAXI@Z ; std::_Allocate<8,std::_Default_allocate_traits,0>
  000f5	59		 pop	 ecx
  000f6	89 45 bc	 mov	 DWORD PTR $T13[ebp], eax
; File D:\Metin2 Server Files\mainline\SRC_2014\M2Data\include\boost\unordered\detail\implementation.hpp

; 3193 :             buckets_ =

  000f9	8b 45 ec	 mov	 eax, DWORD PTR _this$[ebp]
  000fc	8b 4d bc	 mov	 ecx, DWORD PTR $T13[ebp]
  000ff	89 48 14	 mov	 DWORD PTR [eax+20], ecx

; 1956 :           node_pointer p = node_;

  00102	8b 45 90	 mov	 eax, DWORD PTR _a$2[ebp+4]
  00105	89 45 b8	 mov	 DWORD PTR _p$12[ebp], eax

; 1957 :           node_ = node_pointer();

  00108	83 65 90 00	 and	 DWORD PTR _a$2[ebp+4], 0

; 3194 :               bucket_allocator_traits::allocate(bucket_alloc(), new_count + 1);
; 3195 :             dummy_node = a.release();

  0010c	8b 45 b8	 mov	 eax, DWORD PTR _p$12[ebp]
  0010f	89 45 e4	 mov	 DWORD PTR _dummy_node$[ebp], eax

; 3196 :           } else {

  00112	83 4d fc ff	 or	 DWORD PTR __$EHRec$[ebp+8], -1
  00116	8d 4d 8c	 lea	 ecx, DWORD PTR _a$2[ebp]
  00119	e8 00 00 00 00	 call	 ??1?$node_constructor@V?$allocator@U?$ptr_node@U?$pair@$$CBKUSCache@CEterPackManager@@@std@@@detail@unordered@boost@@@std@@@detail@unordered@boost@@QAE@XZ ; boost::unordered::detail::node_constructor<std::allocator<boost::unordered::detail::ptr_node<std::pair<unsigned long const ,CEterPackManager::SCache> > > >::~node_constructor<std::allocator<boost::unordered::detail::ptr_node<std::pair<unsigned long const ,CEterPackManager::SCache> > > >
  0011e	eb 42		 jmp	 SHORT $LN6@create_buc
$LN7@create_buc:

; 3197 :             dummy_node = link_pointer();

  00120	83 65 e4 00	 and	 DWORD PTR _dummy_node$[ebp], 0

; 3198 :             buckets_ =

  00124	8b 45 08	 mov	 eax, DWORD PTR _new_count$[ebp]
  00127	40		 inc	 eax
  00128	89 45 d0	 mov	 DWORD PTR __Count$[ebp], eax
; File C:\Program Files (x86)\Microsoft Visual Studio\2019\Community\VC\Tools\MSVC\14.28.29333\include\xmemory

; 56   :     constexpr bool _Overflow_is_possible = _Ty_size > 1;

  0012b	c6 45 f1 01	 mov	 BYTE PTR __Overflow_is_possible$19[ebp], 1

; 57   : 
; 58   :     if _CONSTEXPR_IF (_Overflow_is_possible) {
; 59   :         constexpr size_t _Max_possible = static_cast<size_t>(-1) / _Ty_size;

  0012f	c7 45 94 ff ff
	ff 3f		 mov	 DWORD PTR __Max_possible$3[ebp], 1073741823 ; 3fffffffH

; 60   :         if (_Count > _Max_possible) {

  00136	81 7d d0 ff ff
	ff 3f		 cmp	 DWORD PTR __Count$[ebp], 1073741823 ; 3fffffffH
  0013d	76 05		 jbe	 SHORT $LN77@create_buc

; 61   :             _Throw_bad_array_new_length(); // multiply overflow

  0013f	e8 00 00 00 00	 call	 ?_Throw_bad_array_new_length@std@@YAXXZ ; std::_Throw_bad_array_new_length
$LN77@create_buc:

; 62   :         }
; 63   :     }
; 64   : 
; 65   :     return _Count * _Ty_size;

  00144	8b 45 d0	 mov	 eax, DWORD PTR __Count$[ebp]
  00147	c1 e0 02	 shl	 eax, 2
  0014a	89 45 b4	 mov	 DWORD PTR $T11[ebp], eax

; 686  :         return static_cast<pointer>(_Allocate<_New_alignof<value_type>>(_Get_size_of_n<sizeof(value_type)>(_Count)));

  0014d	ff 75 b4	 push	 DWORD PTR $T11[ebp]
  00150	e8 00 00 00 00	 call	 ??$_Allocate@$07U_Default_allocate_traits@std@@$0A@@std@@YAPAXI@Z ; std::_Allocate<8,std::_Default_allocate_traits,0>
  00155	59		 pop	 ecx
  00156	89 45 b0	 mov	 DWORD PTR $T10[ebp], eax
; File D:\Metin2 Server Files\mainline\SRC_2014\M2Data\include\boost\unordered\detail\implementation.hpp

; 3198 :             buckets_ =

  00159	8b 45 ec	 mov	 eax, DWORD PTR _this$[ebp]
  0015c	8b 4d b0	 mov	 ecx, DWORD PTR $T10[ebp]
  0015f	89 48 14	 mov	 DWORD PTR [eax+20], ecx
$LN6@create_buc:

; 3199 :               bucket_allocator_traits::allocate(bucket_alloc(), new_count + 1);
; 3200 :           }
; 3201 : 
; 3202 :           // nothrow from here...
; 3203 :           bucket_count_ = new_count;

  00162	8b 45 ec	 mov	 eax, DWORD PTR _this$[ebp]
  00165	8b 4d 08	 mov	 ecx, DWORD PTR _new_count$[ebp]
  00168	89 48 04	 mov	 DWORD PTR [eax+4], ecx

; 3204 :           recalculate_max_load();

  0016b	8b 4d ec	 mov	 ecx, DWORD PTR _this$[ebp]
  0016e	e8 00 00 00 00	 call	 ?recalculate_max_load@?$table@U?$map@V?$allocator@U?$pair@$$CBKUSCache@CEterPackManager@@@std@@@std@@KUSCache@CEterPackManager@@U?$hash@K@boost@@U?$equal_to@K@2@@detail@unordered@boost@@@detail@unordered@boost@@QAEXXZ ; boost::unordered::detail::table<boost::unordered::detail::map<std::allocator<std::pair<unsigned long const ,CEterPackManager::SCache> >,unsigned long,CEterPackManager::SCache,boost::hash<unsigned long>,std::equal_to<unsigned long> > >::recalculate_max_load

; 3205 : 
; 3206 :           bucket_pointer end =

  00173	8b 45 ec	 mov	 eax, DWORD PTR _this$[ebp]
  00176	8b 40 14	 mov	 eax, DWORD PTR [eax+20]
  00179	8b 4d 08	 mov	 ecx, DWORD PTR _new_count$[ebp]
  0017c	8d 04 88	 lea	 eax, DWORD PTR [eax+ecx*4]
  0017f	89 45 cc	 mov	 DWORD PTR _end$[ebp], eax

; 3207 :             buckets_ + static_cast<std::ptrdiff_t>(new_count);
; 3208 :           for (bucket_pointer i = buckets_; i != end; ++i) {

  00182	8b 45 ec	 mov	 eax, DWORD PTR _this$[ebp]
  00185	8b 40 14	 mov	 eax, DWORD PTR [eax+20]
  00188	89 45 e8	 mov	 DWORD PTR _i$18[ebp], eax
  0018b	eb 09		 jmp	 SHORT $LN4@create_buc
$LN2@create_buc:
  0018d	8b 45 e8	 mov	 eax, DWORD PTR _i$18[ebp]
  00190	83 c0 04	 add	 eax, 4
  00193	89 45 e8	 mov	 DWORD PTR _i$18[ebp], eax
$LN4@create_buc:
  00196	8b 45 e8	 mov	 eax, DWORD PTR _i$18[ebp]
  00199	3b 45 cc	 cmp	 eax, DWORD PTR _end$[ebp]
  0019c	74 14		 je	 SHORT $LN3@create_buc
; File D:\Metin2 Server Files\mainline\SRC_2014\M2Data\include\boost\core\pointer_traits.hpp

; 186  :     return v;

  0019e	8b 45 e8	 mov	 eax, DWORD PTR _i$18[ebp]
  001a1	89 45 ac	 mov	 DWORD PTR $T9[ebp], eax
; File C:\Program Files (x86)\Microsoft Visual Studio\2019\Community\VC\Tools\MSVC\14.28.29333\include\vcruntime_new.h

; 169  :         return _Where;

  001a4	8b 45 ac	 mov	 eax, DWORD PTR $T9[ebp]
  001a7	89 45 a8	 mov	 DWORD PTR $T8[ebp], eax
; File D:\Metin2 Server Files\mainline\SRC_2014\M2Data\include\boost\unordered\detail\implementation.hpp

; 2579 :         ptr_bucket() : next_(0) {}

  001aa	8b 45 a8	 mov	 eax, DWORD PTR $T8[ebp]
  001ad	83 20 00	 and	 DWORD PTR [eax], 0

; 3209 :             new ((void*)boost::to_address(i)) bucket();
; 3210 :           }

  001b0	eb db		 jmp	 SHORT $LN2@create_buc
$LN3@create_buc:
; File D:\Metin2 Server Files\mainline\SRC_2014\M2Data\include\boost\core\pointer_traits.hpp

; 186  :     return v;

  001b2	8b 45 cc	 mov	 eax, DWORD PTR _end$[ebp]
  001b5	89 45 a4	 mov	 DWORD PTR $T7[ebp], eax
; File C:\Program Files (x86)\Microsoft Visual Studio\2019\Community\VC\Tools\MSVC\14.28.29333\include\vcruntime_new.h

; 169  :         return _Where;

  001b8	8b 45 a4	 mov	 eax, DWORD PTR $T7[ebp]
  001bb	89 45 a0	 mov	 DWORD PTR $T6[ebp], eax
; File D:\Metin2 Server Files\mainline\SRC_2014\M2Data\include\boost\unordered\detail\implementation.hpp

; 2580 :         ptr_bucket(link_pointer n) : next_(n) {}

  001be	8b 45 a0	 mov	 eax, DWORD PTR $T6[ebp]
  001c1	8b 4d e4	 mov	 ecx, DWORD PTR _dummy_node$[ebp]
  001c4	89 08		 mov	 DWORD PTR [eax], ecx
$LN23@create_buc:

; 3211 :           new ((void*)boost::to_address(end)) bucket(dummy_node);
; 3212 :         }

  001c6	8b 4d f4	 mov	 ecx, DWORD PTR __$EHRec$[ebp]
  001c9	64 89 0d 00 00
	00 00		 mov	 DWORD PTR fs:0, ecx
  001d0	59		 pop	 ecx
  001d1	c9		 leave
  001d2	c2 04 00	 ret	 4
_TEXT	ENDS
;	COMDAT text$x
text$x	SEGMENT
__unwindfunclet$?create_buckets@?$table@U?$map@V?$allocator@U?$pair@$$CBKUSCache@CEterPackManager@@@std@@@std@@KUSCache@CEterPackManager@@U?$hash@K@boost@@U?$equal_to@K@2@@detail@unordered@boost@@@detail@unordered@boost@@QAEXI@Z$0:
  00000	8d 4d 8c	 lea	 ecx, DWORD PTR _a$2[ebp]
  00003	e9 00 00 00 00	 jmp	 ??1?$node_constructor@V?$allocator@U?$ptr_node@U?$pair@$$CBKUSCache@CEterPackManager@@@std@@@detail@unordered@boost@@@std@@@detail@unordered@boost@@QAE@XZ ; boost::unordered::detail::node_constructor<std::allocator<boost::unordered::detail::ptr_node<std::pair<unsigned long const ,CEterPackManager::SCache> > > >::~node_constructor<std::allocator<boost::unordered::detail::ptr_node<std::pair<unsigned long const ,CEterPackManager::SCache> > > >
  00008	cc		 int	 3
  00009	cc		 int	 3
  0000a	cc		 int	 3
  0000b	cc		 int	 3
  0000c	cc		 int	 3
__ehhandler$?create_buckets@?$table@U?$map@V?$allocator@U?$pair@$$CBKUSCache@CEterPackManager@@@std@@@std@@KUSCache@CEterPackManager@@U?$hash@K@boost@@U?$equal_to@K@2@@detail@unordered@boost@@@detail@unordered@boost@@QAEXI@Z:
  0000d	90		 npad	 1
  0000e	90		 npad	 1
  0000f	8b 54 24 08	 mov	 edx, DWORD PTR [esp+8]
  00013	8d 42 0c	 lea	 eax, DWORD PTR [edx+12]
  00016	8b 4a 94	 mov	 ecx, DWORD PTR [edx-108]
  00019	33 c8		 xor	 ecx, eax
  0001b	e8 00 00 00 00	 call	 @__security_check_cookie@4
  00020	b8 00 00 00 00	 mov	 eax, OFFSET __ehfuncinfo$?create_buckets@?$table@U?$map@V?$allocator@U?$pair@$$CBKUSCache@CEterPackManager@@@std@@@std@@KUSCache@CEterPackManager@@U?$hash@K@boost@@U?$equal_to@K@2@@detail@unordered@boost@@@detail@unordered@boost@@QAEXI@Z
  00025	e9 00 00 00 00	 jmp	 ___CxxFrameHandler3
text$x	ENDS
?create_buckets@?$table@U?$map@V?$allocator@U?$pair@$$CBKUSCache@CEterPackManager@@@std@@@std@@KUSCache@CEterPackManager@@U?$hash@K@boost@@U?$equal_to@K@2@@detail@unordered@boost@@@detail@unordered@boost@@QAEXI@Z ENDP ; boost::unordered::detail::table<boost::unordered::detail::map<std::allocator<std::pair<unsigned long const ,CEterPackManager::SCache> >,unsigned long,CEterPackManager::SCache,boost::hash<unsigned long>,std::equal_to<unsigned long> > >::create_buckets
; Function compile flags: /Odspy
; File D:\Metin2 Server Files\mainline\SRC_2014\M2Data\include\boost\unordered\detail\implementation.hpp
; File C:\Program Files (x86)\Microsoft Visual Studio\2019\Community\VC\Tools\MSVC\14.28.29333\include\vcruntime_new.h
; File D:\Metin2 Server Files\mainline\SRC_2014\M2Data\include\boost\unordered\detail\implementation.hpp
;	COMDAT ??0?$table@U?$map@V?$allocator@U?$pair@$$CBKUSCache@CEterPackManager@@@std@@@std@@KUSCache@CEterPackManager@@U?$hash@K@boost@@U?$equal_to@K@2@@detail@unordered@boost@@@detail@unordered@boost@@QAE@IABU?$hash@K@3@ABU?$equal_to@K@std@@ABV?$allocator@U?$ptr_node@U?$pair@$$CBKUSCache@CEterPackManager@@@std@@@detail@unordered@boost@@@6@@Z
_TEXT	SEGMENT
$T2 = -24						; size = 4
_this$ = -20						; size = 4
_which$ = -16						; size = 1
__$EHRec$ = -12						; size = 12
_num_buckets$ = 8					; size = 4
_hf$ = 12						; size = 4
_eq$ = 16						; size = 4
_a$ = 20						; size = 4
??0?$table@U?$map@V?$allocator@U?$pair@$$CBKUSCache@CEterPackManager@@@std@@@std@@KUSCache@CEterPackManager@@U?$hash@K@boost@@U?$equal_to@K@2@@detail@unordered@boost@@@detail@unordered@boost@@QAE@IABU?$hash@K@3@ABU?$equal_to@K@std@@ABV?$allocator@U?$ptr_node@U?$pair@$$CBKUSCache@CEterPackManager@@@std@@@detail@unordered@boost@@@6@@Z PROC ; boost::unordered::detail::table<boost::unordered::detail::map<std::allocator<std::pair<unsigned long const ,CEterPackManager::SCache> >,unsigned long,CEterPackManager::SCache,boost::hash<unsigned long>,std::equal_to<unsigned long> > >::table<boost::unordered::detail::map<std::allocator<std::pair<unsigned long const ,CEterPackManager::SCache> >,unsigned long,CEterPackManager::SCache,boost::hash<unsigned long>,std::equal_to<unsigned long> > >, COMDAT
; _this$ = ecx

; 3123 :         {

  00000	55		 push	 ebp
  00001	8b ec		 mov	 ebp, esp
  00003	6a ff		 push	 -1
  00005	68 00 00 00 00	 push	 __ehhandler$??0?$table@U?$map@V?$allocator@U?$pair@$$CBKUSCache@CEterPackManager@@@std@@@std@@KUSCache@CEterPackManager@@U?$hash@K@boost@@U?$equal_to@K@2@@detail@unordered@boost@@@detail@unordered@boost@@QAE@IABU?$hash@K@3@ABU?$equal_to@K@std@@ABV?$allocator@U?$ptr_node@U?$pair@$$CBKUSCache@CEterPackManager@@@std@@@detail@unordered@boost@@@6@@Z
  0000a	64 a1 00 00 00
	00		 mov	 eax, DWORD PTR fs:0
  00010	50		 push	 eax
  00011	83 ec 0c	 sub	 esp, 12			; 0000000cH
  00014	a1 00 00 00 00	 mov	 eax, DWORD PTR ___security_cookie
  00019	33 c5		 xor	 eax, ebp
  0001b	50		 push	 eax
  0001c	8d 45 f4	 lea	 eax, DWORD PTR __$EHRec$[ebp]
  0001f	64 a3 00 00 00
	00		 mov	 DWORD PTR fs:0, eax
  00025	89 4d ec	 mov	 DWORD PTR _this$[ebp], ecx

; 2761 :         functions(H const& hf, P const& eq) : current_(0)

  00028	8b 45 ec	 mov	 eax, DWORD PTR _this$[ebp]
  0002b	c6 00 00	 mov	 BYTE PTR [eax], 0

; 2762 :         {
; 2763 :           construct_functions(current_, hf, eq);

  0002e	8b 45 ec	 mov	 eax, DWORD PTR _this$[ebp]
  00031	8a 00		 mov	 al, BYTE PTR [eax]
  00033	88 45 f0	 mov	 BYTE PTR _which$[ebp], al

; 2827 :           new ((void*)&funcs_[which]) function_pair(hf, eq);

  00036	0f b6 45 f0	 movzx	 eax, BYTE PTR _which$[ebp]
  0003a	8b 4d ec	 mov	 ecx, DWORD PTR _this$[ebp]
  0003d	8d 44 01 01	 lea	 eax, DWORD PTR [ecx+eax+1]
; File C:\Program Files (x86)\Microsoft Visual Studio\2019\Community\VC\Tools\MSVC\14.28.29333\include\vcruntime_new.h

; 169  :         return _Where;

  00041	89 45 e8	 mov	 DWORD PTR $T2[ebp], eax
; File D:\Metin2 Server Files\mainline\SRC_2014\M2Data\include\boost\unordered\detail\implementation.hpp

; 3120 :             : functions(hf, eq), allocators_(a, a),

  00044	83 65 fc 00	 and	 DWORD PTR __$EHRec$[ebp+8], 0

; 2609 :           return boost::unordered::detail::next_prime(min);

  00048	ff 75 08	 push	 DWORD PTR _num_buckets$[ebp]
  0004b	e8 00 00 00 00	 call	 ?next_prime@detail@unordered@boost@@YAII@Z ; boost::unordered::detail::next_prime
  00050	59		 pop	 ecx

; 3121 :               bucket_count_(policy::new_bucket_count(num_buckets)), size_(0),

  00051	8b 4d ec	 mov	 ecx, DWORD PTR _this$[ebp]
  00054	89 41 04	 mov	 DWORD PTR [ecx+4], eax
  00057	8b 45 ec	 mov	 eax, DWORD PTR _this$[ebp]
  0005a	83 60 08 00	 and	 DWORD PTR [eax+8], 0

; 3122 :               mlf_(1.0f), max_load_(0), buckets_()

  0005e	8b 45 ec	 mov	 eax, DWORD PTR _this$[ebp]
  00061	f3 0f 10 05 00
	00 00 00	 movss	 xmm0, DWORD PTR __real@3f800000
  00069	f3 0f 11 40 0c	 movss	 DWORD PTR [eax+12], xmm0
  0006e	8b 45 ec	 mov	 eax, DWORD PTR _this$[ebp]
  00071	83 60 10 00	 and	 DWORD PTR [eax+16], 0
  00075	8b 45 ec	 mov	 eax, DWORD PTR _this$[ebp]
  00078	83 60 14 00	 and	 DWORD PTR [eax+20], 0

; 3124 :         }

  0007c	83 4d fc ff	 or	 DWORD PTR __$EHRec$[ebp+8], -1
  00080	8b 45 ec	 mov	 eax, DWORD PTR _this$[ebp]
  00083	8b 4d f4	 mov	 ecx, DWORD PTR __$EHRec$[ebp]
  00086	64 89 0d 00 00
	00 00		 mov	 DWORD PTR fs:0, ecx
  0008d	59		 pop	 ecx
  0008e	c9		 leave
  0008f	c2 10 00	 ret	 16			; 00000010H
_TEXT	ENDS
;	COMDAT text$x
text$x	SEGMENT
__unwindfunclet$??0?$table@U?$map@V?$allocator@U?$pair@$$CBKUSCache@CEterPackManager@@@std@@@std@@KUSCache@CEterPackManager@@U?$hash@K@boost@@U?$equal_to@K@2@@detail@unordered@boost@@@detail@unordered@boost@@QAE@IABU?$hash@K@3@ABU?$equal_to@K@std@@ABV?$allocator@U?$ptr_node@U?$pair@$$CBKUSCache@CEterPackManager@@@std@@@detail@unordered@boost@@@6@@Z$0:
  00000	8b 4d ec	 mov	 ecx, DWORD PTR _this$[ebp]
  00003	e9 00 00 00 00	 jmp	 ??1?$functions@U?$hash@K@boost@@U?$equal_to@K@std@@@detail@unordered@boost@@QAE@XZ ; boost::unordered::detail::functions<boost::hash<unsigned long>,std::equal_to<unsigned long> >::~functions<boost::hash<unsigned long>,std::equal_to<unsigned long> >
  00008	cc		 int	 3
  00009	cc		 int	 3
  0000a	cc		 int	 3
  0000b	cc		 int	 3
  0000c	cc		 int	 3
__ehhandler$??0?$table@U?$map@V?$allocator@U?$pair@$$CBKUSCache@CEterPackManager@@@std@@@std@@KUSCache@CEterPackManager@@U?$hash@K@boost@@U?$equal_to@K@2@@detail@unordered@boost@@@detail@unordered@boost@@QAE@IABU?$hash@K@3@ABU?$equal_to@K@std@@ABV?$allocator@U?$ptr_node@U?$pair@$$CBKUSCache@CEterPackManager@@@std@@@detail@unordered@boost@@@6@@Z:
  0000d	90		 npad	 1
  0000e	90		 npad	 1
  0000f	8b 54 24 08	 mov	 edx, DWORD PTR [esp+8]
  00013	8d 42 0c	 lea	 eax, DWORD PTR [edx+12]
  00016	8b 4a f0	 mov	 ecx, DWORD PTR [edx-16]
  00019	33 c8		 xor	 ecx, eax
  0001b	e8 00 00 00 00	 call	 @__security_check_cookie@4
  00020	b8 00 00 00 00	 mov	 eax, OFFSET __ehfuncinfo$??0?$table@U?$map@V?$allocator@U?$pair@$$CBKUSCache@CEterPackManager@@@std@@@std@@KUSCache@CEterPackManager@@U?$hash@K@boost@@U?$equal_to@K@2@@detail@unordered@boost@@@detail@unordered@boost@@QAE@IABU?$hash@K@3@ABU?$equal_to@K@std@@ABV?$allocator@U?$ptr_node@U?$pair@$$CBKUSCache@CEterPackManager@@@std@@@detail@unordered@boost@@@6@@Z
  00025	e9 00 00 00 00	 jmp	 ___CxxFrameHandler3
text$x	ENDS
??0?$table@U?$map@V?$allocator@U?$pair@$$CBKUSCache@CEterPackManager@@@std@@@std@@KUSCache@CEterPackManager@@U?$hash@K@boost@@U?$equal_to@K@2@@detail@unordered@boost@@@detail@unordered@boost@@QAE@IABU?$hash@K@3@ABU?$equal_to@K@std@@ABV?$allocator@U?$ptr_node@U?$pair@$$CBKUSCache@CEterPackManager@@@std@@@detail@unordered@boost@@@6@@Z ENDP ; boost::unordered::detail::table<boost::unordered::detail::map<std::allocator<std::pair<unsigned long const ,CEterPackManager::SCache> >,unsigned long,CEterPackManager::SCache,boost::hash<unsigned long>,std::equal_to<unsigned long> > >::table<boost::unordered::detail::map<std::allocator<std::pair<unsigned long const ,CEterPackManager::SCache> >,unsigned long,CEterPackManager::SCache,boost::hash<unsigned long>,std::equal_to<unsigned long> > >
; Function compile flags: /Odspy
; File D:\Metin2 Server Files\mainline\SRC_2014\M2Data\include\boost\unordered\detail\implementation.hpp
; File C:\Program Files (x86)\Microsoft Visual Studio\2019\Community\VC\Tools\MSVC\14.28.29333\include\limits
; File D:\Metin2 Server Files\mainline\SRC_2014\M2Data\include\boost\unordered\detail\implementation.hpp
; File C:\Program Files (x86)\Microsoft Visual Studio\2019\Community\VC\Tools\MSVC\14.28.29333\include\limits
; File D:\Metin2 Server Files\mainline\SRC_2014\M2Data\include\boost\unordered\detail\implementation.hpp
;	COMDAT ?min_buckets_for_size@?$table@U?$map@V?$allocator@U?$pair@$$CBKUSCache@CEterPackManager@@@std@@@std@@KUSCache@CEterPackManager@@U?$hash@K@boost@@U?$equal_to@K@2@@detail@unordered@boost@@@detail@unordered@boost@@QBEII@Z
_TEXT	SEGMENT
tv91 = -40						; size = 8
_f$ = -32						; size = 8
$T1 = -24						; size = 4
$T2 = -20						; size = 4
_this$ = -16						; size = 4
tv81 = -12						; size = 4
tv87 = -8						; size = 4
$T3 = -4						; size = 4
_size$ = 8						; size = 4
?min_buckets_for_size@?$table@U?$map@V?$allocator@U?$pair@$$CBKUSCache@CEterPackManager@@@std@@@std@@KUSCache@CEterPackManager@@U?$hash@K@boost@@U?$equal_to@K@2@@detail@unordered@boost@@@detail@unordered@boost@@QBEII@Z PROC ; boost::unordered::detail::table<boost::unordered::detail::map<std::allocator<std::pair<unsigned long const ,CEterPackManager::SCache> >,unsigned long,CEterPackManager::SCache,boost::hash<unsigned long>,std::equal_to<unsigned long> > >::min_buckets_for_size, COMDAT
; _this$ = ecx

; 3095 :         {

  00000	55		 push	 ebp
  00001	8b ec		 mov	 ebp, esp
  00003	83 ec 28	 sub	 esp, 40			; 00000028H
  00006	89 4d f0	 mov	 DWORD PTR _this$[ebp], ecx

; 3096 :           BOOST_ASSERT(mlf_ >= minimum_max_load_factor);
; 3097 : 
; 3098 :           using namespace std;
; 3099 : 
; 3100 :           // From insert/emplace requirements:
; 3101 :           //
; 3102 :           // size <= mlf_ * count
; 3103 :           // => count >= size / mlf_
; 3104 :           //
; 3105 :           // Or from rehash post-condition:
; 3106 :           //
; 3107 :           // count >= size / mlf_
; 3108 : 
; 3109 :           return policy::new_bucket_count(

  00009	8b 45 f0	 mov	 eax, DWORD PTR _this$[ebp]
  0000c	f3 0f 5a 40 0c	 cvtss2sd xmm0, DWORD PTR [eax+12]
  00011	8b 45 08	 mov	 eax, DWORD PTR _size$[ebp]
  00014	89 45 f8	 mov	 DWORD PTR tv87[ebp], eax
  00017	f2 0f 2a 4d f8	 cvtsi2sd xmm1, DWORD PTR tv87[ebp]
  0001c	8b 45 f8	 mov	 eax, DWORD PTR tv87[ebp]
  0001f	c1 e8 1f	 shr	 eax, 31			; 0000001fH
  00022	f2 0f 58 0c c5
	00 00 00 00	 addsd	 xmm1, QWORD PTR __xmm@41f00000000000000000000000000000[eax*8]
  0002b	f2 0f 5e c8	 divsd	 xmm1, xmm0
  0002f	51		 push	 ecx
  00030	51		 push	 ecx
  00031	f2 0f 11 0c 24	 movsd	 QWORD PTR [esp], xmm1
  00036	e8 00 00 00 00	 call	 _floor
  0003b	59		 pop	 ecx
  0003c	59		 pop	 ecx
  0003d	dd 5d d8	 fstp	 QWORD PTR tv91[ebp]
  00040	f2 0f 10 45 d8	 movsd	 xmm0, QWORD PTR tv91[ebp]
  00045	f2 0f 58 05 00
	00 00 00	 addsd	 xmm0, QWORD PTR __real@3ff0000000000000
  0004d	f2 0f 11 45 e0	 movsd	 QWORD PTR _f$[ebp], xmm0
; File C:\Program Files (x86)\Microsoft Visual Studio\2019\Community\VC\Tools\MSVC\14.28.29333\include\limits

; 740  :         return UINT_MAX;

  00052	83 4d ec ff	 or	 DWORD PTR $T2[ebp], -1
; File D:\Metin2 Server Files\mainline\SRC_2014\M2Data\include\boost\unordered\detail\implementation.hpp

; 2893 :         return f >= static_cast<double>(

  00056	8b 45 ec	 mov	 eax, DWORD PTR $T2[ebp]
  00059	89 45 f4	 mov	 DWORD PTR tv81[ebp], eax
  0005c	f2 0f 2a 45 f4	 cvtsi2sd xmm0, DWORD PTR tv81[ebp]
  00061	8b 45 f4	 mov	 eax, DWORD PTR tv81[ebp]
  00064	c1 e8 1f	 shr	 eax, 31			; 0000001fH
  00067	f2 0f 58 04 c5
	00 00 00 00	 addsd	 xmm0, QWORD PTR __xmm@41f00000000000000000000000000000[eax*8]
  00070	f2 0f 10 4d e0	 movsd	 xmm1, QWORD PTR _f$[ebp]
  00075	66 0f 2f c8	 comisd	 xmm1, xmm0
  00079	72 0c		 jb	 SHORT $LN5@min_bucket
  0007b	8b 45 e8	 mov	 eax, DWORD PTR $T1[ebp]
  0007e	89 45 fc	 mov	 DWORD PTR $T3[ebp], eax
; File C:\Program Files (x86)\Microsoft Visual Studio\2019\Community\VC\Tools\MSVC\14.28.29333\include\limits

; 740  :         return UINT_MAX;

  00081	83 4d fc ff	 or	 DWORD PTR $T3[ebp], -1
; File D:\Metin2 Server Files\mainline\SRC_2014\M2Data\include\boost\unordered\detail\implementation.hpp

; 2893 :         return f >= static_cast<double>(

  00085	eb 0d		 jmp	 SHORT $LN6@min_bucket
$LN5@min_bucket:
  00087	f2 0f 10 45 e0	 movsd	 xmm0, QWORD PTR _f$[ebp]
  0008c	e8 00 00 00 00	 call	 __dtoui3
  00091	89 45 fc	 mov	 DWORD PTR $T3[ebp], eax
$LN6@min_bucket:

; 2609 :           return boost::unordered::detail::next_prime(min);

  00094	ff 75 fc	 push	 DWORD PTR $T3[ebp]
  00097	e8 00 00 00 00	 call	 ?next_prime@detail@unordered@boost@@YAII@Z ; boost::unordered::detail::next_prime
  0009c	59		 pop	 ecx

; 3110 :             boost::unordered::detail::double_to_size(
; 3111 :               floor(static_cast<double>(size) / static_cast<double>(mlf_)) +
; 3112 :               1));
; 3113 :         }

  0009d	c9		 leave
  0009e	c2 04 00	 ret	 4
?min_buckets_for_size@?$table@U?$map@V?$allocator@U?$pair@$$CBKUSCache@CEterPackManager@@@std@@@std@@KUSCache@CEterPackManager@@U?$hash@K@boost@@U?$equal_to@K@2@@detail@unordered@boost@@@detail@unordered@boost@@QBEII@Z ENDP ; boost::unordered::detail::table<boost::unordered::detail::map<std::allocator<std::pair<unsigned long const ,CEterPackManager::SCache> >,unsigned long,CEterPackManager::SCache,boost::hash<unsigned long>,std::equal_to<unsigned long> > >::min_buckets_for_size
_TEXT	ENDS
; Function compile flags: /Odspy
; File D:\Metin2 Server Files\mainline\SRC_2014\M2Data\include\boost\unordered\detail\implementation.hpp
; File C:\Program Files (x86)\Microsoft Visual Studio\2019\Community\VC\Tools\MSVC\14.28.29333\include\limits
; File D:\Metin2 Server Files\mainline\SRC_2014\M2Data\include\boost\unordered\detail\implementation.hpp
; File C:\Program Files (x86)\Microsoft Visual Studio\2019\Community\VC\Tools\MSVC\14.28.29333\include\limits
; File D:\Metin2 Server Files\mainline\SRC_2014\M2Data\include\boost\unordered\detail\implementation.hpp
;	COMDAT ?recalculate_max_load@?$table@U?$map@V?$allocator@U?$pair@$$CBKUSCache@CEterPackManager@@@std@@@std@@KUSCache@CEterPackManager@@U?$hash@K@boost@@U?$equal_to@K@2@@detail@unordered@boost@@@detail@unordered@boost@@QAEXXZ
_TEXT	SEGMENT
_f$ = -36						; size = 8
$T1 = -28						; size = 4
$T2 = -24						; size = 4
tv76 = -20						; size = 4
tv92 = -16						; size = 4
tv83 = -12						; size = 4
tv82 = -8						; size = 4
_this$ = -4						; size = 4
?recalculate_max_load@?$table@U?$map@V?$allocator@U?$pair@$$CBKUSCache@CEterPackManager@@@std@@@std@@KUSCache@CEterPackManager@@U?$hash@K@boost@@U?$equal_to@K@2@@detail@unordered@boost@@@detail@unordered@boost@@QAEXXZ PROC ; boost::unordered::detail::table<boost::unordered::detail::map<std::allocator<std::pair<unsigned long const ,CEterPackManager::SCache> >,unsigned long,CEterPackManager::SCache,boost::hash<unsigned long>,std::equal_to<unsigned long> > >::recalculate_max_load, COMDAT
; _this$ = ecx

; 3076 :         {

  00000	55		 push	 ebp
  00001	8b ec		 mov	 ebp, esp
  00003	83 ec 24	 sub	 esp, 36			; 00000024H
  00006	89 4d fc	 mov	 DWORD PTR _this$[ebp], ecx

; 3077 :           using namespace std;
; 3078 : 
; 3079 :           // From 6.3.1/13:
; 3080 :           // Only resize when size >= mlf_ * count
; 3081 :           max_load_ = buckets_ ? boost::unordered::detail::double_to_size(

  00009	8b 45 fc	 mov	 eax, DWORD PTR _this$[ebp]
  0000c	83 78 14 00	 cmp	 DWORD PTR [eax+20], 0
  00010	0f 84 84 00 00
	00		 je	 $LN3@recalculat
  00016	8b 45 fc	 mov	 eax, DWORD PTR _this$[ebp]
  00019	8b 40 04	 mov	 eax, DWORD PTR [eax+4]
  0001c	89 45 f4	 mov	 DWORD PTR tv83[ebp], eax
  0001f	f2 0f 2a 45 f4	 cvtsi2sd xmm0, DWORD PTR tv83[ebp]
  00024	8b 45 f4	 mov	 eax, DWORD PTR tv83[ebp]
  00027	c1 e8 1f	 shr	 eax, 31			; 0000001fH
  0002a	f2 0f 58 04 c5
	00 00 00 00	 addsd	 xmm0, QWORD PTR __xmm@41f00000000000000000000000000000[eax*8]
  00033	8b 45 fc	 mov	 eax, DWORD PTR _this$[ebp]
  00036	f3 0f 5a 48 0c	 cvtss2sd xmm1, DWORD PTR [eax+12]
  0003b	f2 0f 59 c8	 mulsd	 xmm1, xmm0
  0003f	51		 push	 ecx
  00040	51		 push	 ecx
  00041	f2 0f 11 0c 24	 movsd	 QWORD PTR [esp], xmm1
  00046	e8 00 00 00 00	 call	 _ceil
  0004b	59		 pop	 ecx
  0004c	59		 pop	 ecx
  0004d	dd 5d dc	 fstp	 QWORD PTR _f$[ebp]
; File C:\Program Files (x86)\Microsoft Visual Studio\2019\Community\VC\Tools\MSVC\14.28.29333\include\limits

; 740  :         return UINT_MAX;

  00050	83 4d e8 ff	 or	 DWORD PTR $T2[ebp], -1
; File D:\Metin2 Server Files\mainline\SRC_2014\M2Data\include\boost\unordered\detail\implementation.hpp

; 2893 :         return f >= static_cast<double>(

  00054	8b 45 e8	 mov	 eax, DWORD PTR $T2[ebp]
  00057	89 45 f0	 mov	 DWORD PTR tv92[ebp], eax
  0005a	f2 0f 2a 45 f0	 cvtsi2sd xmm0, DWORD PTR tv92[ebp]
  0005f	8b 45 f0	 mov	 eax, DWORD PTR tv92[ebp]
  00062	c1 e8 1f	 shr	 eax, 31			; 0000001fH
  00065	f2 0f 58 04 c5
	00 00 00 00	 addsd	 xmm0, QWORD PTR __xmm@41f00000000000000000000000000000[eax*8]
  0006e	f2 0f 10 4d dc	 movsd	 xmm1, QWORD PTR _f$[ebp]
  00073	66 0f 2f c8	 comisd	 xmm1, xmm0
  00077	72 0c		 jb	 SHORT $LN7@recalculat
  00079	8b 45 e4	 mov	 eax, DWORD PTR $T1[ebp]
  0007c	89 45 f8	 mov	 DWORD PTR tv82[ebp], eax
; File C:\Program Files (x86)\Microsoft Visual Studio\2019\Community\VC\Tools\MSVC\14.28.29333\include\limits

; 740  :         return UINT_MAX;

  0007f	83 4d f8 ff	 or	 DWORD PTR tv82[ebp], -1
; File D:\Metin2 Server Files\mainline\SRC_2014\M2Data\include\boost\unordered\detail\implementation.hpp

; 2893 :         return f >= static_cast<double>(

  00083	eb 0d		 jmp	 SHORT $LN8@recalculat
$LN7@recalculat:
  00085	f2 0f 10 45 dc	 movsd	 xmm0, QWORD PTR _f$[ebp]
  0008a	e8 00 00 00 00	 call	 __dtoui3
  0008f	89 45 f8	 mov	 DWORD PTR tv82[ebp], eax
$LN8@recalculat:

; 3077 :           using namespace std;
; 3078 : 
; 3079 :           // From 6.3.1/13:
; 3080 :           // Only resize when size >= mlf_ * count
; 3081 :           max_load_ = buckets_ ? boost::unordered::detail::double_to_size(

  00092	8b 45 f8	 mov	 eax, DWORD PTR tv82[ebp]
  00095	89 45 ec	 mov	 DWORD PTR tv76[ebp], eax
  00098	eb 04		 jmp	 SHORT $LN4@recalculat
$LN3@recalculat:
  0009a	83 65 ec 00	 and	 DWORD PTR tv76[ebp], 0
$LN4@recalculat:
  0009e	8b 45 fc	 mov	 eax, DWORD PTR _this$[ebp]
  000a1	8b 4d ec	 mov	 ecx, DWORD PTR tv76[ebp]
  000a4	89 48 10	 mov	 DWORD PTR [eax+16], ecx

; 3082 :                                    ceil(static_cast<double>(mlf_) *
; 3083 :                                         static_cast<double>(bucket_count_)))
; 3084 :                                : 0;
; 3085 :         }

  000a7	c9		 leave
  000a8	c3		 ret	 0
?recalculate_max_load@?$table@U?$map@V?$allocator@U?$pair@$$CBKUSCache@CEterPackManager@@@std@@@std@@KUSCache@CEterPackManager@@U?$hash@K@boost@@U?$equal_to@K@2@@detail@unordered@boost@@@detail@unordered@boost@@QAEXXZ ENDP ; boost::unordered::detail::table<boost::unordered::detail::map<std::allocator<std::pair<unsigned long const ,CEterPackManager::SCache> >,unsigned long,CEterPackManager::SCache,boost::hash<unsigned long>,std::equal_to<unsigned long> > >::recalculate_max_load
_TEXT	ENDS
; Function compile flags: /Odspy
; File D:\Metin2 Server Files\mainline\SRC_2014\M2Data\include\boost\unordered\detail\implementation.hpp
;	COMDAT ?begin@?$table@U?$map@V?$allocator@U?$pair@$$CBKUSCache@CEterPackManager@@@std@@@std@@KUSCache@CEterPackManager@@U?$hash@K@boost@@U?$equal_to@K@2@@detail@unordered@boost@@@detail@unordered@boost@@QBEPAU?$ptr_node@U?$pair@$$CBKUSCache@CEterPackManager@@@std@@@234@I@Z
_TEXT	SEGMENT
$T1 = -16						; size = 4
_prev$ = -12						; size = 4
_this$ = -8						; size = 4
tv72 = -4						; size = 4
_bucket_index$ = 8					; size = 4
?begin@?$table@U?$map@V?$allocator@U?$pair@$$CBKUSCache@CEterPackManager@@@std@@@std@@KUSCache@CEterPackManager@@U?$hash@K@boost@@U?$equal_to@K@2@@detail@unordered@boost@@@detail@unordered@boost@@QBEPAU?$ptr_node@U?$pair@$$CBKUSCache@CEterPackManager@@@std@@@234@I@Z PROC ; boost::unordered::detail::table<boost::unordered::detail::map<std::allocator<std::pair<unsigned long const ,CEterPackManager::SCache> >,unsigned long,CEterPackManager::SCache,boost::hash<unsigned long>,std::equal_to<unsigned long> > >::begin, COMDAT
; _this$ = ecx

; 3045 :         {

  00000	55		 push	 ebp
  00001	8b ec		 mov	 ebp, esp
  00003	83 ec 10	 sub	 esp, 16			; 00000010H
  00006	89 4d f8	 mov	 DWORD PTR _this$[ebp], ecx

; 3046 :           if (!size_)

  00009	8b 45 f8	 mov	 eax, DWORD PTR _this$[ebp]
  0000c	83 78 08 00	 cmp	 DWORD PTR [eax+8], 0
  00010	75 04		 jne	 SHORT $LN8@begin

; 3047 :             return node_pointer();

  00012	33 c0		 xor	 eax, eax
  00014	eb 2c		 jmp	 SHORT $LN1@begin
$LN8@begin:

; 3036 :           return get_bucket_pointer(bucket_index)->next_;

  00016	8b 45 f8	 mov	 eax, DWORD PTR _this$[ebp]
  00019	8b 40 14	 mov	 eax, DWORD PTR [eax+20]
  0001c	8b 4d 08	 mov	 ecx, DWORD PTR _bucket_index$[ebp]
  0001f	8b 04 88	 mov	 eax, DWORD PTR [eax+ecx*4]
  00022	89 45 f4	 mov	 DWORD PTR _prev$[ebp], eax

; 3048 :           link_pointer prev = get_previous_start(bucket_index);
; 3049 :           return prev ? next_node(prev) : node_pointer();

  00025	83 7d f4 00	 cmp	 DWORD PTR _prev$[ebp], 0
  00029	74 10		 je	 SHORT $LN4@begin
  0002b	8b 45 f0	 mov	 eax, DWORD PTR $T1[ebp]
  0002e	89 45 fc	 mov	 DWORD PTR tv72[ebp], eax

; 2964 :           return static_cast<node_pointer>(n->next_);

  00031	8b 45 f4	 mov	 eax, DWORD PTR _prev$[ebp]
  00034	8b 00		 mov	 eax, DWORD PTR [eax]
  00036	89 45 fc	 mov	 DWORD PTR tv72[ebp], eax

; 3048 :           link_pointer prev = get_previous_start(bucket_index);
; 3049 :           return prev ? next_node(prev) : node_pointer();

  00039	eb 04		 jmp	 SHORT $LN5@begin
$LN4@begin:
  0003b	83 65 fc 00	 and	 DWORD PTR tv72[ebp], 0
$LN5@begin:
  0003f	8b 45 fc	 mov	 eax, DWORD PTR tv72[ebp]
$LN1@begin:

; 3050 :         }

  00042	c9		 leave
  00043	c2 04 00	 ret	 4
?begin@?$table@U?$map@V?$allocator@U?$pair@$$CBKUSCache@CEterPackManager@@@std@@@std@@KUSCache@CEterPackManager@@U?$hash@K@boost@@U?$equal_to@K@2@@detail@unordered@boost@@@detail@unordered@boost@@QBEPAU?$ptr_node@U?$pair@$$CBKUSCache@CEterPackManager@@@std@@@234@I@Z ENDP ; boost::unordered::detail::table<boost::unordered::detail::map<std::allocator<std::pair<unsigned long const ,CEterPackManager::SCache> >,unsigned long,CEterPackManager::SCache,boost::hash<unsigned long>,std::equal_to<unsigned long> > >::begin
_TEXT	ENDS
; Function compile flags: /Odspy
; File D:\Metin2 Server Files\mainline\SRC_2014\M2Data\include\boost\unordered\detail\implementation.hpp
;	COMDAT ?next_for_find@?$table@U?$map@V?$allocator@U?$pair@$$CBKUSCache@CEterPackManager@@@std@@@std@@KUSCache@CEterPackManager@@U?$hash@K@boost@@U?$equal_to@K@2@@detail@unordered@boost@@@detail@unordered@boost@@SAPAU?$ptr_node@U?$pair@$$CBKUSCache@CEterPackManager@@@std@@@234@PAUptr_bucket@234@@Z
_TEXT	SEGMENT
tv84 = -8						; size = 4
_n2$ = -4						; size = 4
_n$ = 8							; size = 4
?next_for_find@?$table@U?$map@V?$allocator@U?$pair@$$CBKUSCache@CEterPackManager@@@std@@@std@@KUSCache@CEterPackManager@@U?$hash@K@boost@@U?$equal_to@K@2@@detail@unordered@boost@@@detail@unordered@boost@@SAPAU?$ptr_node@U?$pair@$$CBKUSCache@CEterPackManager@@@std@@@234@PAUptr_bucket@234@@Z PROC ; boost::unordered::detail::table<boost::unordered::detail::map<std::allocator<std::pair<unsigned long const ,CEterPackManager::SCache> >,unsigned long,CEterPackManager::SCache,boost::hash<unsigned long>,std::equal_to<unsigned long> > >::next_for_find, COMDAT

; 2968 :         {

  00000	55		 push	 ebp
  00001	8b ec		 mov	 ebp, esp
  00003	51		 push	 ecx
  00004	51		 push	 ecx

; 2969 :           node_pointer n2 = static_cast<node_pointer>(n);

  00005	8b 45 08	 mov	 eax, DWORD PTR _n$[ebp]
  00008	89 45 fc	 mov	 DWORD PTR _n2$[ebp], eax
$LN4@next_for_f:

; 2964 :           return static_cast<node_pointer>(n->next_);

  0000b	8b 45 fc	 mov	 eax, DWORD PTR _n2$[ebp]
  0000e	8b 00		 mov	 eax, DWORD PTR [eax]
  00010	89 45 fc	 mov	 DWORD PTR _n2$[ebp], eax

; 2970 :           do {
; 2971 :             n2 = next_node(n2);
; 2972 :           } while (n2 && !n2->is_first_in_group());

  00013	83 7d fc 00	 cmp	 DWORD PTR _n2$[ebp], 0
  00017	74 20		 je	 SHORT $LN3@next_for_f

; 4878 :           return !(bucket_info_ & ~((std::size_t)-1 >> 1));

  00019	8b 45 fc	 mov	 eax, DWORD PTR _n2$[ebp]
  0001c	8b 40 04	 mov	 eax, DWORD PTR [eax+4]
  0001f	25 00 00 00 80	 and	 eax, -2147483648	; 80000000H
  00024	75 09		 jne	 SHORT $LN11@next_for_f
  00026	c7 45 f8 01 00
	00 00		 mov	 DWORD PTR tv84[ebp], 1
  0002d	eb 04		 jmp	 SHORT $LN9@next_for_f
$LN11@next_for_f:
  0002f	83 65 f8 00	 and	 DWORD PTR tv84[ebp], 0
$LN9@next_for_f:

; 2970 :           do {
; 2971 :             n2 = next_node(n2);
; 2972 :           } while (n2 && !n2->is_first_in_group());

  00033	83 7d f8 00	 cmp	 DWORD PTR tv84[ebp], 0
  00037	74 d2		 je	 SHORT $LN4@next_for_f
$LN3@next_for_f:

; 2973 :           return n2;

  00039	8b 45 fc	 mov	 eax, DWORD PTR _n2$[ebp]

; 2974 :         }

  0003c	c9		 leave
  0003d	c3		 ret	 0
?next_for_find@?$table@U?$map@V?$allocator@U?$pair@$$CBKUSCache@CEterPackManager@@@std@@@std@@KUSCache@CEterPackManager@@U?$hash@K@boost@@U?$equal_to@K@2@@detail@unordered@boost@@@detail@unordered@boost@@SAPAU?$ptr_node@U?$pair@$$CBKUSCache@CEterPackManager@@@std@@@234@PAUptr_bucket@234@@Z ENDP ; boost::unordered::detail::table<boost::unordered::detail::map<std::allocator<std::pair<unsigned long const ,CEterPackManager::SCache> >,unsigned long,CEterPackManager::SCache,boost::hash<unsigned long>,std::equal_to<unsigned long> > >::next_for_find
_TEXT	ENDS
; Function compile flags: /Odspy
; File D:\Metin2 Server Files\mainline\SRC_2014\M2Data\include\boost\unordered\detail\implementation.hpp
;	COMDAT ?next_node@?$table@U?$map@V?$allocator@U?$pair@$$CBKUSCache@CEterPackManager@@@std@@@std@@KUSCache@CEterPackManager@@U?$hash@K@boost@@U?$equal_to@K@2@@detail@unordered@boost@@@detail@unordered@boost@@SAPAU?$ptr_node@U?$pair@$$CBKUSCache@CEterPackManager@@@std@@@234@PAUptr_bucket@234@@Z
_TEXT	SEGMENT
_n$ = 8							; size = 4
?next_node@?$table@U?$map@V?$allocator@U?$pair@$$CBKUSCache@CEterPackManager@@@std@@@std@@KUSCache@CEterPackManager@@U?$hash@K@boost@@U?$equal_to@K@2@@detail@unordered@boost@@@detail@unordered@boost@@SAPAU?$ptr_node@U?$pair@$$CBKUSCache@CEterPackManager@@@std@@@234@PAUptr_bucket@234@@Z PROC ; boost::unordered::detail::table<boost::unordered::detail::map<std::allocator<std::pair<unsigned long const ,CEterPackManager::SCache> >,unsigned long,CEterPackManager::SCache,boost::hash<unsigned long>,std::equal_to<unsigned long> > >::next_node, COMDAT

; 2963 :         {

  00000	55		 push	 ebp
  00001	8b ec		 mov	 ebp, esp

; 2964 :           return static_cast<node_pointer>(n->next_);

  00003	8b 45 08	 mov	 eax, DWORD PTR _n$[ebp]
  00006	8b 00		 mov	 eax, DWORD PTR [eax]

; 2965 :         }

  00008	5d		 pop	 ebp
  00009	c3		 ret	 0
?next_node@?$table@U?$map@V?$allocator@U?$pair@$$CBKUSCache@CEterPackManager@@@std@@@std@@KUSCache@CEterPackManager@@U?$hash@K@boost@@U?$equal_to@K@2@@detail@unordered@boost@@@detail@unordered@boost@@SAPAU?$ptr_node@U?$pair@$$CBKUSCache@CEterPackManager@@@std@@@234@PAUptr_bucket@234@@Z ENDP ; boost::unordered::detail::table<boost::unordered::detail::map<std::allocator<std::pair<unsigned long const ,CEterPackManager::SCache> >,unsigned long,CEterPackManager::SCache,boost::hash<unsigned long>,std::equal_to<unsigned long> > >::next_node
_TEXT	ENDS
; Function compile flags: /Odspy
; File D:\Metin2 Server Files\mainline\SRC_2014\M2Data\include\boost\unordered\unordered_map.hpp
; File D:\Metin2 Server Files\mainline\SRC_2014\M2Data\include\boost\unordered\detail\implementation.hpp
; File D:\Metin2 Server Files\mainline\SRC_2014\M2Data\include\boost\unordered\unordered_map.hpp
;	COMDAT ?find@?$unordered_map@V?$basic_string@DU?$char_traits@D@std@@V?$allocator@D@2@@std@@PAVCEterPack@@Ustringhash@@U?$equal_to@V?$basic_string@DU?$char_traits@D@std@@V?$allocator@D@2@@std@@@2@V?$allocator@U?$pair@$$CBV?$basic_string@DU?$char_traits@D@std@@V?$allocator@D@2@@std@@PAVCEterPack@@@std@@@2@@unordered@boost@@QAE?AU?$iterator@U?$ptr_node@U?$pair@$$CBV?$basic_string@DU?$char_traits@D@std@@V?$allocator@D@2@@std@@PAVCEterPack@@@std@@@detail@unordered@boost@@@iterator_detail@23@ABV?$basic_string@DU?$char_traits@D@std@@V?$allocator@D@2@@std@@@Z
_TEXT	SEGMENT
_x$ = -8						; size = 4
_this$ = -4						; size = 4
___$ReturnUdt$ = 8					; size = 4
_k$ = 12						; size = 4
?find@?$unordered_map@V?$basic_string@DU?$char_traits@D@std@@V?$allocator@D@2@@std@@PAVCEterPack@@Ustringhash@@U?$equal_to@V?$basic_string@DU?$char_traits@D@std@@V?$allocator@D@2@@std@@@2@V?$allocator@U?$pair@$$CBV?$basic_string@DU?$char_traits@D@std@@V?$allocator@D@2@@std@@PAVCEterPack@@@std@@@2@@unordered@boost@@QAE?AU?$iterator@U?$ptr_node@U?$pair@$$CBV?$basic_string@DU?$char_traits@D@std@@V?$allocator@D@2@@std@@PAVCEterPack@@@std@@@detail@unordered@boost@@@iterator_detail@23@ABV?$basic_string@DU?$char_traits@D@std@@V?$allocator@D@2@@std@@@Z PROC ; boost::unordered::unordered_map<std::basic_string<char,std::char_traits<char>,std::allocator<char> >,CEterPack *,stringhash,std::equal_to<std::basic_string<char,std::char_traits<char>,std::allocator<char> > >,std::allocator<std::pair<std::basic_string<char,std::char_traits<char>,std::allocator<char> > const ,CEterPack *> > >::find, COMDAT
; _this$ = ecx

; 1803 :     {

  00000	55		 push	 ebp
  00001	8b ec		 mov	 ebp, esp
  00003	51		 push	 ecx
  00004	51		 push	 ecx
  00005	89 4d fc	 mov	 DWORD PTR _this$[ebp], ecx

; 1804 :       return iterator(table_.find_node(k));

  00008	ff 75 0c	 push	 DWORD PTR _k$[ebp]
  0000b	8b 4d fc	 mov	 ecx, DWORD PTR _this$[ebp]
  0000e	e8 00 00 00 00	 call	 ?find_node@?$table@U?$map@V?$allocator@U?$pair@$$CBV?$basic_string@DU?$char_traits@D@std@@V?$allocator@D@2@@std@@PAVCEterPack@@@std@@@std@@V?$basic_string@DU?$char_traits@D@std@@V?$allocator@D@2@@2@PAVCEterPack@@Ustringhash@@U?$equal_to@V?$basic_string@DU?$char_traits@D@std@@V?$allocator@D@2@@std@@@2@@detail@unordered@boost@@@detail@unordered@boost@@QBEPAU?$ptr_node@U?$pair@$$CBV?$basic_string@DU?$char_traits@D@std@@V?$allocator@D@2@@std@@PAVCEterPack@@@std@@@234@ABV?$basic_string@DU?$char_traits@D@std@@V?$allocator@D@2@@std@@@Z ; boost::unordered::detail::table<boost::unordered::detail::map<std::allocator<std::pair<std::basic_string<char,std::char_traits<char>,std::allocator<char> > const ,CEterPack *> >,std::basic_string<char,std::char_traits<char>,std::allocator<char> >,CEterPack *,stringhash,std::equal_to<std::basic_string<char,std::char_traits<char>,std::allocator<char> > > > >::find_node
  00013	89 45 f8	 mov	 DWORD PTR _x$[ebp], eax
; File D:\Metin2 Server Files\mainline\SRC_2014\M2Data\include\boost\unordered\detail\implementation.hpp

; 2371 :           : node_(static_cast<node_pointer>(x))

  00016	8b 45 08	 mov	 eax, DWORD PTR ___$ReturnUdt$[ebp]
  00019	8b 4d f8	 mov	 ecx, DWORD PTR _x$[ebp]
  0001c	89 08		 mov	 DWORD PTR [eax], ecx
; File D:\Metin2 Server Files\mainline\SRC_2014\M2Data\include\boost\unordered\unordered_map.hpp

; 1804 :       return iterator(table_.find_node(k));

  0001e	8b 45 08	 mov	 eax, DWORD PTR ___$ReturnUdt$[ebp]

; 1805 :     }

  00021	c9		 leave
  00022	c2 08 00	 ret	 8
?find@?$unordered_map@V?$basic_string@DU?$char_traits@D@std@@V?$allocator@D@2@@std@@PAVCEterPack@@Ustringhash@@U?$equal_to@V?$basic_string@DU?$char_traits@D@std@@V?$allocator@D@2@@std@@@2@V?$allocator@U?$pair@$$CBV?$basic_string@DU?$char_traits@D@std@@V?$allocator@D@2@@std@@PAVCEterPack@@@std@@@2@@unordered@boost@@QAE?AU?$iterator@U?$ptr_node@U?$pair@$$CBV?$basic_string@DU?$char_traits@D@std@@V?$allocator@D@2@@std@@PAVCEterPack@@@std@@@detail@unordered@boost@@@iterator_detail@23@ABV?$basic_string@DU?$char_traits@D@std@@V?$allocator@D@2@@std@@@Z ENDP ; boost::unordered::unordered_map<std::basic_string<char,std::char_traits<char>,std::allocator<char> >,CEterPack *,stringhash,std::equal_to<std::basic_string<char,std::char_traits<char>,std::allocator<char> > >,std::allocator<std::pair<std::basic_string<char,std::char_traits<char>,std::allocator<char> > const ,CEterPack *> > >::find
_TEXT	ENDS
; Function compile flags: /Odspy
; File D:\Metin2 Server Files\mainline\SRC_2014\M2Data\include\boost\unordered\unordered_map.hpp
; File D:\Metin2 Server Files\mainline\SRC_2014\M2Data\include\boost\unordered\detail\implementation.hpp
; File D:\Metin2 Server Files\mainline\SRC_2014\M2Data\include\boost\unordered\unordered_map.hpp
;	COMDAT ??1?$unordered_map@V?$basic_string@DU?$char_traits@D@std@@V?$allocator@D@2@@std@@PAVCEterPack@@Ustringhash@@U?$equal_to@V?$basic_string@DU?$char_traits@D@std@@V?$allocator@D@2@@std@@@2@V?$allocator@U?$pair@$$CBV?$basic_string@DU?$char_traits@D@std@@V?$allocator@D@2@@std@@PAVCEterPack@@@std@@@2@@unordered@boost@@QAE@XZ
_TEXT	SEGMENT
_this$ = -16						; size = 4
__$EHRec$ = -12						; size = 12
??1?$unordered_map@V?$basic_string@DU?$char_traits@D@std@@V?$allocator@D@2@@std@@PAVCEterPack@@Ustringhash@@U?$equal_to@V?$basic_string@DU?$char_traits@D@std@@V?$allocator@D@2@@std@@@2@V?$allocator@U?$pair@$$CBV?$basic_string@DU?$char_traits@D@std@@V?$allocator@D@2@@std@@PAVCEterPack@@@std@@@2@@unordered@boost@@QAE@XZ PROC ; boost::unordered::unordered_map<std::basic_string<char,std::char_traits<char>,std::allocator<char> >,CEterPack *,stringhash,std::equal_to<std::basic_string<char,std::char_traits<char>,std::allocator<char> > >,std::allocator<std::pair<std::basic_string<char,std::char_traits<char>,std::allocator<char> > const ,CEterPack *> > >::~unordered_map<std::basic_string<char,std::char_traits<char>,std::allocator<char> >,CEterPack *,stringhash,std::equal_to<std::basic_string<char,std::char_traits<char>,std::allocator<char> > >,std::allocator<std::pair<std::basic_string<char,std::char_traits<char>,std::allocator<char> > const ,CEterPack *> > >, COMDAT
; _this$ = ecx

; 1645 :     {

  00000	55		 push	 ebp
  00001	8b ec		 mov	 ebp, esp
  00003	6a ff		 push	 -1
  00005	68 00 00 00 00	 push	 __ehhandler$??1?$unordered_map@V?$basic_string@DU?$char_traits@D@std@@V?$allocator@D@2@@std@@PAVCEterPack@@Ustringhash@@U?$equal_to@V?$basic_string@DU?$char_traits@D@std@@V?$allocator@D@2@@std@@@2@V?$allocator@U?$pair@$$CBV?$basic_string@DU?$char_traits@D@std@@V?$allocator@D@2@@std@@PAVCEterPack@@@std@@@2@@unordered@boost@@QAE@XZ
  0000a	64 a1 00 00 00
	00		 mov	 eax, DWORD PTR fs:0
  00010	50		 push	 eax
  00011	51		 push	 ecx
  00012	a1 00 00 00 00	 mov	 eax, DWORD PTR ___security_cookie
  00017	33 c5		 xor	 eax, ebp
  00019	50		 push	 eax
  0001a	8d 45 f4	 lea	 eax, DWORD PTR __$EHRec$[ebp]
  0001d	64 a3 00 00 00
	00		 mov	 DWORD PTR fs:0, eax
  00023	89 4d f0	 mov	 DWORD PTR _this$[ebp], ecx
; File D:\Metin2 Server Files\mainline\SRC_2014\M2Data\include\boost\unordered\detail\implementation.hpp

; 3333 :         ~table() { delete_buckets(); }

  00026	83 65 fc 00	 and	 DWORD PTR __$EHRec$[ebp+8], 0
  0002a	8b 4d f0	 mov	 ecx, DWORD PTR _this$[ebp]
  0002d	e8 00 00 00 00	 call	 ?delete_buckets@?$table@U?$map@V?$allocator@U?$pair@$$CBV?$basic_string@DU?$char_traits@D@std@@V?$allocator@D@2@@std@@PAVCEterPack@@@std@@@std@@V?$basic_string@DU?$char_traits@D@std@@V?$allocator@D@2@@2@PAVCEterPack@@Ustringhash@@U?$equal_to@V?$basic_string@DU?$char_traits@D@std@@V?$allocator@D@2@@std@@@2@@detail@unordered@boost@@@detail@unordered@boost@@QAEXXZ ; boost::unordered::detail::table<boost::unordered::detail::map<std::allocator<std::pair<std::basic_string<char,std::char_traits<char>,std::allocator<char> > const ,CEterPack *> >,std::basic_string<char,std::char_traits<char>,std::allocator<char> >,CEterPack *,stringhash,std::equal_to<std::basic_string<char,std::char_traits<char>,std::allocator<char> > > > >::delete_buckets
  00032	83 4d fc ff	 or	 DWORD PTR __$EHRec$[ebp+8], -1
; File D:\Metin2 Server Files\mainline\SRC_2014\M2Data\include\boost\unordered\unordered_map.hpp

; 1646 :     }

  00036	8b 4d f4	 mov	 ecx, DWORD PTR __$EHRec$[ebp]
  00039	64 89 0d 00 00
	00 00		 mov	 DWORD PTR fs:0, ecx
  00040	59		 pop	 ecx
  00041	c9		 leave
  00042	c3		 ret	 0
  00043	cc		 int	 3
  00044	cc		 int	 3
  00045	cc		 int	 3
  00046	cc		 int	 3
  00047	cc		 int	 3
_TEXT	ENDS
;	COMDAT text$x
text$x	SEGMENT
__ehhandler$??1?$unordered_map@V?$basic_string@DU?$char_traits@D@std@@V?$allocator@D@2@@std@@PAVCEterPack@@Ustringhash@@U?$equal_to@V?$basic_string@DU?$char_traits@D@std@@V?$allocator@D@2@@std@@@2@V?$allocator@U?$pair@$$CBV?$basic_string@DU?$char_traits@D@std@@V?$allocator@D@2@@std@@PAVCEterPack@@@std@@@2@@unordered@boost@@QAE@XZ:
  00000	90		 npad	 1
  00001	90		 npad	 1
  00002	8b 54 24 08	 mov	 edx, DWORD PTR [esp+8]
  00006	8d 42 0c	 lea	 eax, DWORD PTR [edx+12]
  00009	8b 4a f8	 mov	 ecx, DWORD PTR [edx-8]
  0000c	33 c8		 xor	 ecx, eax
  0000e	e8 00 00 00 00	 call	 @__security_check_cookie@4
  00013	b8 00 00 00 00	 mov	 eax, OFFSET __ehfuncinfo$??1?$unordered_map@V?$basic_string@DU?$char_traits@D@std@@V?$allocator@D@2@@std@@PAVCEterPack@@Ustringhash@@U?$equal_to@V?$basic_string@DU?$char_traits@D@std@@V?$allocator@D@2@@std@@@2@V?$allocator@U?$pair@$$CBV?$basic_string@DU?$char_traits@D@std@@V?$allocator@D@2@@std@@PAVCEterPack@@@std@@@2@@unordered@boost@@QAE@XZ
  00018	e9 00 00 00 00	 jmp	 ___CxxFrameHandler3
text$x	ENDS
??1?$unordered_map@V?$basic_string@DU?$char_traits@D@std@@V?$allocator@D@2@@std@@PAVCEterPack@@Ustringhash@@U?$equal_to@V?$basic_string@DU?$char_traits@D@std@@V?$allocator@D@2@@std@@@2@V?$allocator@U?$pair@$$CBV?$basic_string@DU?$char_traits@D@std@@V?$allocator@D@2@@std@@PAVCEterPack@@@std@@@2@@unordered@boost@@QAE@XZ ENDP ; boost::unordered::unordered_map<std::basic_string<char,std::char_traits<char>,std::allocator<char> >,CEterPack *,stringhash,std::equal_to<std::basic_string<char,std::char_traits<char>,std::allocator<char> > >,std::allocator<std::pair<std::basic_string<char,std::char_traits<char>,std::allocator<char> > const ,CEterPack *> > >::~unordered_map<std::basic_string<char,std::char_traits<char>,std::allocator<char> >,CEterPack *,stringhash,std::equal_to<std::basic_string<char,std::char_traits<char>,std::allocator<char> > >,std::allocator<std::pair<std::basic_string<char,std::char_traits<char>,std::allocator<char> > const ,CEterPack *> > >
; Function compile flags: /Odspy
; File D:\Metin2 Server Files\mainline\SRC_2014\M2Data\include\boost\unordered\unordered_map.hpp
;	COMDAT ??0?$unordered_map@V?$basic_string@DU?$char_traits@D@std@@V?$allocator@D@2@@std@@PAVCEterPack@@Ustringhash@@U?$equal_to@V?$basic_string@DU?$char_traits@D@std@@V?$allocator@D@2@@std@@@2@V?$allocator@U?$pair@$$CBV?$basic_string@DU?$char_traits@D@std@@V?$allocator@D@2@@std@@PAVCEterPack@@@std@@@2@@unordered@boost@@QAE@XZ
_TEXT	SEGMENT
_this$ = -8						; size = 4
$T1 = -3						; size = 1
$T2 = -2						; size = 1
$T3 = -1						; size = 1
??0?$unordered_map@V?$basic_string@DU?$char_traits@D@std@@V?$allocator@D@2@@std@@PAVCEterPack@@Ustringhash@@U?$equal_to@V?$basic_string@DU?$char_traits@D@std@@V?$allocator@D@2@@std@@@2@V?$allocator@U?$pair@$$CBV?$basic_string@DU?$char_traits@D@std@@V?$allocator@D@2@@std@@PAVCEterPack@@@std@@@2@@unordered@boost@@QAE@XZ PROC ; boost::unordered::unordered_map<std::basic_string<char,std::char_traits<char>,std::allocator<char> >,CEterPack *,stringhash,std::equal_to<std::basic_string<char,std::char_traits<char>,std::allocator<char> > >,std::allocator<std::pair<std::basic_string<char,std::char_traits<char>,std::allocator<char> > const ,CEterPack *> > >::unordered_map<std::basic_string<char,std::char_traits<char>,std::allocator<char> >,CEterPack *,stringhash,std::equal_to<std::basic_string<char,std::char_traits<char>,std::allocator<char> > >,std::allocator<std::pair<std::basic_string<char,std::char_traits<char>,std::allocator<char> > const ,CEterPack *> > >, COMDAT
; _this$ = ecx

; 1510 :     {

  00000	55		 push	 ebp
  00001	8b ec		 mov	 ebp, esp
  00003	51		 push	 ecx
  00004	51		 push	 ecx
  00005	89 4d f8	 mov	 DWORD PTR _this$[ebp], ecx

; 1508 :         : table_(boost::unordered::detail::default_bucket_count, hasher(),

  00008	8d 45 ff	 lea	 eax, DWORD PTR $T3[ebp]
  0000b	50		 push	 eax
  0000c	8d 45 fe	 lea	 eax, DWORD PTR $T2[ebp]
  0000f	50		 push	 eax
  00010	8d 45 fd	 lea	 eax, DWORD PTR $T1[ebp]
  00013	50		 push	 eax
  00014	6a 0b		 push	 11			; 0000000bH
  00016	8b 4d f8	 mov	 ecx, DWORD PTR _this$[ebp]
  00019	e8 00 00 00 00	 call	 ??0?$table@U?$map@V?$allocator@U?$pair@$$CBV?$basic_string@DU?$char_traits@D@std@@V?$allocator@D@2@@std@@PAVCEterPack@@@std@@@std@@V?$basic_string@DU?$char_traits@D@std@@V?$allocator@D@2@@2@PAVCEterPack@@Ustringhash@@U?$equal_to@V?$basic_string@DU?$char_traits@D@std@@V?$allocator@D@2@@std@@@2@@detail@unordered@boost@@@detail@unordered@boost@@QAE@IABUstringhash@@ABU?$equal_to@V?$basic_string@DU?$char_traits@D@std@@V?$allocator@D@2@@std@@@std@@ABV?$allocator@U?$ptr_node@U?$pair@$$CBV?$basic_string@DU?$char_traits@D@std@@V?$allocator@D@2@@std@@PAVCEterPack@@@std@@@detail@unordered@boost@@@6@@Z ; boost::unordered::detail::table<boost::unordered::detail::map<std::allocator<std::pair<std::basic_string<char,std::char_traits<char>,std::allocator<char> > const ,CEterPack *> >,std::basic_string<char,std::char_traits<char>,std::allocator<char> >,CEterPack *,stringhash,std::equal_to<std::basic_string<char,std::char_traits<char>,std::allocator<char> > > > >::table<boost::unordered::detail::map<std::allocator<std::pair<std::basic_string<char,std::char_traits<char>,std::allocator<char> > const ,CEterPack *> >,std::basic_string<char,std::char_traits<char>,std::allocator<char> >,CEterPack *,stringhash,std::equal_to<std::basic_string<char,std::char_traits<char>,std::allocator<char> > > > >

; 1511 :     }

  0001e	8b 45 f8	 mov	 eax, DWORD PTR _this$[ebp]
  00021	c9		 leave
  00022	c3		 ret	 0
??0?$unordered_map@V?$basic_string@DU?$char_traits@D@std@@V?$allocator@D@2@@std@@PAVCEterPack@@Ustringhash@@U?$equal_to@V?$basic_string@DU?$char_traits@D@std@@V?$allocator@D@2@@std@@@2@V?$allocator@U?$pair@$$CBV?$basic_string@DU?$char_traits@D@std@@V?$allocator@D@2@@std@@PAVCEterPack@@@std@@@2@@unordered@boost@@QAE@XZ ENDP ; boost::unordered::unordered_map<std::basic_string<char,std::char_traits<char>,std::allocator<char> >,CEterPack *,stringhash,std::equal_to<std::basic_string<char,std::char_traits<char>,std::allocator<char> > >,std::allocator<std::pair<std::basic_string<char,std::char_traits<char>,std::allocator<char> > const ,CEterPack *> > >::unordered_map<std::basic_string<char,std::char_traits<char>,std::allocator<char> >,CEterPack *,stringhash,std::equal_to<std::basic_string<char,std::char_traits<char>,std::allocator<char> > >,std::allocator<std::pair<std::basic_string<char,std::char_traits<char>,std::allocator<char> > const ,CEterPack *> > >
_TEXT	ENDS
; Function compile flags: /Odspy
; File D:\Metin2 Server Files\mainline\SRC_2014\M2Data\include\boost\unordered\detail\implementation.hpp
;	COMDAT ?resize_and_add_node_unique@?$table@U?$map@V?$allocator@U?$pair@$$CBV?$basic_string@DU?$char_traits@D@std@@V?$allocator@D@2@@std@@PAVCEterPack@@@std@@@std@@V?$basic_string@DU?$char_traits@D@std@@V?$allocator@D@2@@2@PAVCEterPack@@Ustringhash@@U?$equal_to@V?$basic_string@DU?$char_traits@D@std@@V?$allocator@D@2@@std@@@2@@detail@unordered@boost@@@detail@unordered@boost@@QAEPAU?$ptr_node@U?$pair@$$CBV?$basic_string@DU?$char_traits@D@std@@V?$allocator@D@2@@std@@PAVCEterPack@@@std@@@234@PAU5234@I@Z
_TEXT	SEGMENT
_b$ = -40						; size = 8
$T2 = -32						; size = 4
_p$3 = -28						; size = 4
$T4 = -24						; size = 4
_this$ = -20						; size = 4
_this$ = -16						; size = 4
__$EHRec$ = -12						; size = 12
_n$ = 8							; size = 4
_key_hash$ = 12						; size = 4
?resize_and_add_node_unique@?$table@U?$map@V?$allocator@U?$pair@$$CBV?$basic_string@DU?$char_traits@D@std@@V?$allocator@D@2@@std@@PAVCEterPack@@@std@@@std@@V?$basic_string@DU?$char_traits@D@std@@V?$allocator@D@2@@2@PAVCEterPack@@Ustringhash@@U?$equal_to@V?$basic_string@DU?$char_traits@D@std@@V?$allocator@D@2@@std@@@2@@detail@unordered@boost@@@detail@unordered@boost@@QAEPAU?$ptr_node@U?$pair@$$CBV?$basic_string@DU?$char_traits@D@std@@V?$allocator@D@2@@std@@PAVCEterPack@@@std@@@234@PAU5234@I@Z PROC ; boost::unordered::detail::table<boost::unordered::detail::map<std::allocator<std::pair<std::basic_string<char,std::char_traits<char>,std::allocator<char> > const ,CEterPack *> >,std::basic_string<char,std::char_traits<char>,std::allocator<char> >,CEterPack *,stringhash,std::equal_to<std::basic_string<char,std::char_traits<char>,std::allocator<char> > > > >::resize_and_add_node_unique, COMDAT
; _this$ = ecx

; 3715 :         {

  00000	55		 push	 ebp
  00001	8b ec		 mov	 ebp, esp
  00003	6a ff		 push	 -1
  00005	68 00 00 00 00	 push	 __ehhandler$?resize_and_add_node_unique@?$table@U?$map@V?$allocator@U?$pair@$$CBV?$basic_string@DU?$char_traits@D@std@@V?$allocator@D@2@@std@@PAVCEterPack@@@std@@@std@@V?$basic_string@DU?$char_traits@D@std@@V?$allocator@D@2@@2@PAVCEterPack@@Ustringhash@@U?$equal_to@V?$basic_string@DU?$char_traits@D@std@@V?$allocator@D@2@@std@@@2@@detail@unordered@boost@@@detail@unordered@boost@@QAEPAU?$ptr_node@U?$pair@$$CBV?$basic_string@DU?$char_traits@D@std@@V?$allocator@D@2@@std@@PAVCEterPack@@@std@@@234@PAU5234@I@Z
  0000a	64 a1 00 00 00
	00		 mov	 eax, DWORD PTR fs:0
  00010	50		 push	 eax
  00011	83 ec 1c	 sub	 esp, 28			; 0000001cH
  00014	a1 00 00 00 00	 mov	 eax, DWORD PTR ___security_cookie
  00019	33 c5		 xor	 eax, ebp
  0001b	50		 push	 eax
  0001c	8d 45 f4	 lea	 eax, DWORD PTR __$EHRec$[ebp]
  0001f	64 a3 00 00 00
	00		 mov	 DWORD PTR fs:0, eax
  00025	89 4d f0	 mov	 DWORD PTR _this$[ebp], ecx

; 3014 :         node_allocator& node_alloc() { return allocators_.second(); }

  00028	8b 45 f0	 mov	 eax, DWORD PTR _this$[ebp]
  0002b	83 c0 03	 add	 eax, 3
  0002e	89 45 ec	 mov	 DWORD PTR _this$[ebp], eax

; 430  :         second_type& second() { return static_cast<base2*>(this)->get(); }

  00031	74 09		 je	 SHORT $LN8@resize_and
  00033	8b 45 ec	 mov	 eax, DWORD PTR _this$[ebp]
  00036	40		 inc	 eax
  00037	89 45 e8	 mov	 DWORD PTR $T4[ebp], eax
  0003a	eb 04		 jmp	 SHORT $LN4@resize_and
$LN8@resize_and:
  0003c	83 65 e8 00	 and	 DWORD PTR $T4[ebp], 0
$LN4@resize_and:

; 1999 :         explicit node_tmp(node_pointer n, NodeAlloc& a) : alloc_(a), node_(n) {}

  00040	8b 45 e8	 mov	 eax, DWORD PTR $T4[ebp]
  00043	89 45 d8	 mov	 DWORD PTR _b$[ebp], eax
  00046	8b 45 08	 mov	 eax, DWORD PTR _n$[ebp]
  00049	89 45 dc	 mov	 DWORD PTR _b$[ebp+4], eax

; 3716 :           node_tmp b(n, this->node_alloc());

  0004c	83 65 fc 00	 and	 DWORD PTR __$EHRec$[ebp+8], 0

; 3717 :           this->reserve_for_insert(this->size_ + 1);

  00050	8b 45 f0	 mov	 eax, DWORD PTR _this$[ebp]
  00053	8b 40 08	 mov	 eax, DWORD PTR [eax+8]
  00056	40		 inc	 eax
  00057	50		 push	 eax
  00058	8b 4d f0	 mov	 ecx, DWORD PTR _this$[ebp]
  0005b	e8 00 00 00 00	 call	 ?reserve_for_insert@?$table@U?$map@V?$allocator@U?$pair@$$CBV?$basic_string@DU?$char_traits@D@std@@V?$allocator@D@2@@std@@PAVCEterPack@@@std@@@std@@V?$basic_string@DU?$char_traits@D@std@@V?$allocator@D@2@@2@PAVCEterPack@@Ustringhash@@U?$equal_to@V?$basic_string@DU?$char_traits@D@std@@V?$allocator@D@2@@std@@@2@@detail@unordered@boost@@@detail@unordered@boost@@QAEXI@Z ; boost::unordered::detail::table<boost::unordered::detail::map<std::allocator<std::pair<std::basic_string<char,std::char_traits<char>,std::allocator<char> > const ,CEterPack *> >,std::basic_string<char,std::char_traits<char>,std::allocator<char> >,CEterPack *,stringhash,std::equal_to<std::basic_string<char,std::char_traits<char>,std::allocator<char> > > > >::reserve_for_insert

; 2006 :           node_pointer p = node_;

  00060	8b 45 dc	 mov	 eax, DWORD PTR _b$[ebp+4]
  00063	89 45 e4	 mov	 DWORD PTR _p$3[ebp], eax

; 2007 :           node_ = node_pointer();

  00066	83 65 dc 00	 and	 DWORD PTR _b$[ebp+4], 0

; 3718 :           return this->add_node_unique(b.release(), key_hash);

  0006a	ff 75 0c	 push	 DWORD PTR _key_hash$[ebp]
  0006d	ff 75 e4	 push	 DWORD PTR _p$3[ebp]
  00070	8b 4d f0	 mov	 ecx, DWORD PTR _this$[ebp]
  00073	e8 00 00 00 00	 call	 ?add_node_unique@?$table@U?$map@V?$allocator@U?$pair@$$CBV?$basic_string@DU?$char_traits@D@std@@V?$allocator@D@2@@std@@PAVCEterPack@@@std@@@std@@V?$basic_string@DU?$char_traits@D@std@@V?$allocator@D@2@@2@PAVCEterPack@@Ustringhash@@U?$equal_to@V?$basic_string@DU?$char_traits@D@std@@V?$allocator@D@2@@std@@@2@@detail@unordered@boost@@@detail@unordered@boost@@QAEPAU?$ptr_node@U?$pair@$$CBV?$basic_string@DU?$char_traits@D@std@@V?$allocator@D@2@@std@@PAVCEterPack@@@std@@@234@PAU5234@I@Z ; boost::unordered::detail::table<boost::unordered::detail::map<std::allocator<std::pair<std::basic_string<char,std::char_traits<char>,std::allocator<char> > const ,CEterPack *> >,std::basic_string<char,std::char_traits<char>,std::allocator<char> >,CEterPack *,stringhash,std::equal_to<std::basic_string<char,std::char_traits<char>,std::allocator<char> > > > >::add_node_unique
  00078	89 45 e0	 mov	 DWORD PTR $T2[ebp], eax
  0007b	83 4d fc ff	 or	 DWORD PTR __$EHRec$[ebp+8], -1
  0007f	8d 4d d8	 lea	 ecx, DWORD PTR _b$[ebp]
  00082	e8 00 00 00 00	 call	 ??1?$node_tmp@V?$allocator@U?$ptr_node@U?$pair@$$CBV?$basic_string@DU?$char_traits@D@std@@V?$allocator@D@2@@std@@PAVCEterPack@@@std@@@detail@unordered@boost@@@std@@@detail@unordered@boost@@QAE@XZ ; boost::unordered::detail::node_tmp<std::allocator<boost::unordered::detail::ptr_node<std::pair<std::basic_string<char,std::char_traits<char>,std::allocator<char> > const ,CEterPack *> > > >::~node_tmp<std::allocator<boost::unordered::detail::ptr_node<std::pair<std::basic_string<char,std::char_traits<char>,std::allocator<char> > const ,CEterPack *> > > >
  00087	8b 45 e0	 mov	 eax, DWORD PTR $T2[ebp]

; 3719 :         }

  0008a	8b 4d f4	 mov	 ecx, DWORD PTR __$EHRec$[ebp]
  0008d	64 89 0d 00 00
	00 00		 mov	 DWORD PTR fs:0, ecx
  00094	59		 pop	 ecx
  00095	c9		 leave
  00096	c2 08 00	 ret	 8
_TEXT	ENDS
;	COMDAT text$x
text$x	SEGMENT
__unwindfunclet$?resize_and_add_node_unique@?$table@U?$map@V?$allocator@U?$pair@$$CBV?$basic_string@DU?$char_traits@D@std@@V?$allocator@D@2@@std@@PAVCEterPack@@@std@@@std@@V?$basic_string@DU?$char_traits@D@std@@V?$allocator@D@2@@2@PAVCEterPack@@Ustringhash@@U?$equal_to@V?$basic_string@DU?$char_traits@D@std@@V?$allocator@D@2@@std@@@2@@detail@unordered@boost@@@detail@unordered@boost@@QAEPAU?$ptr_node@U?$pair@$$CBV?$basic_string@DU?$char_traits@D@std@@V?$allocator@D@2@@std@@PAVCEterPack@@@std@@@234@PAU5234@I@Z$0:
  00000	8d 4d d8	 lea	 ecx, DWORD PTR _b$[ebp]
  00003	e9 00 00 00 00	 jmp	 ??1?$node_tmp@V?$allocator@U?$ptr_node@U?$pair@$$CBV?$basic_string@DU?$char_traits@D@std@@V?$allocator@D@2@@std@@PAVCEterPack@@@std@@@detail@unordered@boost@@@std@@@detail@unordered@boost@@QAE@XZ ; boost::unordered::detail::node_tmp<std::allocator<boost::unordered::detail::ptr_node<std::pair<std::basic_string<char,std::char_traits<char>,std::allocator<char> > const ,CEterPack *> > > >::~node_tmp<std::allocator<boost::unordered::detail::ptr_node<std::pair<std::basic_string<char,std::char_traits<char>,std::allocator<char> > const ,CEterPack *> > > >
  00008	cc		 int	 3
  00009	cc		 int	 3
  0000a	cc		 int	 3
  0000b	cc		 int	 3
  0000c	cc		 int	 3
__ehhandler$?resize_and_add_node_unique@?$table@U?$map@V?$allocator@U?$pair@$$CBV?$basic_string@DU?$char_traits@D@std@@V?$allocator@D@2@@std@@PAVCEterPack@@@std@@@std@@V?$basic_string@DU?$char_traits@D@std@@V?$allocator@D@2@@2@PAVCEterPack@@Ustringhash@@U?$equal_to@V?$basic_string@DU?$char_traits@D@std@@V?$allocator@D@2@@std@@@2@@detail@unordered@boost@@@detail@unordered@boost@@QAEPAU?$ptr_node@U?$pair@$$CBV?$basic_string@DU?$char_traits@D@std@@V?$allocator@D@2@@std@@PAVCEterPack@@@std@@@234@PAU5234@I@Z:
  0000d	90		 npad	 1
  0000e	90		 npad	 1
  0000f	8b 54 24 08	 mov	 edx, DWORD PTR [esp+8]
  00013	8d 42 0c	 lea	 eax, DWORD PTR [edx+12]
  00016	8b 4a e0	 mov	 ecx, DWORD PTR [edx-32]
  00019	33 c8		 xor	 ecx, eax
  0001b	e8 00 00 00 00	 call	 @__security_check_cookie@4
  00020	b8 00 00 00 00	 mov	 eax, OFFSET __ehfuncinfo$?resize_and_add_node_unique@?$table@U?$map@V?$allocator@U?$pair@$$CBV?$basic_string@DU?$char_traits@D@std@@V?$allocator@D@2@@std@@PAVCEterPack@@@std@@@std@@V?$basic_string@DU?$char_traits@D@std@@V?$allocator@D@2@@2@PAVCEterPack@@Ustringhash@@U?$equal_to@V?$basic_string@DU?$char_traits@D@std@@V?$allocator@D@2@@std@@@2@@detail@unordered@boost@@@detail@unordered@boost@@QAEPAU?$ptr_node@U?$pair@$$CBV?$basic_string@DU?$char_traits@D@std@@V?$allocator@D@2@@std@@PAVCEterPack@@@std@@@234@PAU5234@I@Z
  00025	e9 00 00 00 00	 jmp	 ___CxxFrameHandler3
text$x	ENDS
?resize_and_add_node_unique@?$table@U?$map@V?$allocator@U?$pair@$$CBV?$basic_string@DU?$char_traits@D@std@@V?$allocator@D@2@@std@@PAVCEterPack@@@std@@@std@@V?$basic_string@DU?$char_traits@D@std@@V?$allocator@D@2@@2@PAVCEterPack@@Ustringhash@@U?$equal_to@V?$basic_string@DU?$char_traits@D@std@@V?$allocator@D@2@@std@@@2@@detail@unordered@boost@@@detail@unordered@boost@@QAEPAU?$ptr_node@U?$pair@$$CBV?$basic_string@DU?$char_traits@D@std@@V?$allocator@D@2@@std@@PAVCEterPack@@@std@@@234@PAU5234@I@Z ENDP ; boost::unordered::detail::table<boost::unordered::detail::map<std::allocator<std::pair<std::basic_string<char,std::char_traits<char>,std::allocator<char> > const ,CEterPack *> >,std::basic_string<char,std::char_traits<char>,std::allocator<char> >,CEterPack *,stringhash,std::equal_to<std::basic_string<char,std::char_traits<char>,std::allocator<char> > > > >::resize_and_add_node_unique
; Function compile flags: /Odspy
; File D:\Metin2 Server Files\mainline\SRC_2014\M2Data\include\boost\unordered\detail\implementation.hpp
;	COMDAT ?add_node_unique@?$table@U?$map@V?$allocator@U?$pair@$$CBV?$basic_string@DU?$char_traits@D@std@@V?$allocator@D@2@@std@@PAVCEterPack@@@std@@@std@@V?$basic_string@DU?$char_traits@D@std@@V?$allocator@D@2@@2@PAVCEterPack@@Ustringhash@@U?$equal_to@V?$basic_string@DU?$char_traits@D@std@@V?$allocator@D@2@@std@@@2@@detail@unordered@boost@@@detail@unordered@boost@@QAEPAU?$ptr_node@U?$pair@$$CBV?$basic_string@DU?$char_traits@D@std@@V?$allocator@D@2@@std@@PAVCEterPack@@@std@@@234@PAU5234@I@Z
_TEXT	SEGMENT
$T1 = -28						; size = 4
$T2 = -24						; size = 4
$T3 = -20						; size = 4
_bucket_index$ = -16					; size = 4
_b$ = -12						; size = 4
_start_node$4 = -8					; size = 4
_this$ = -4						; size = 4
_n$ = 8							; size = 4
_key_hash$ = 12						; size = 4
?add_node_unique@?$table@U?$map@V?$allocator@U?$pair@$$CBV?$basic_string@DU?$char_traits@D@std@@V?$allocator@D@2@@std@@PAVCEterPack@@@std@@@std@@V?$basic_string@DU?$char_traits@D@std@@V?$allocator@D@2@@2@PAVCEterPack@@Ustringhash@@U?$equal_to@V?$basic_string@DU?$char_traits@D@std@@V?$allocator@D@2@@std@@@2@@detail@unordered@boost@@@detail@unordered@boost@@QAEPAU?$ptr_node@U?$pair@$$CBV?$basic_string@DU?$char_traits@D@std@@V?$allocator@D@2@@std@@PAVCEterPack@@@std@@@234@PAU5234@I@Z PROC ; boost::unordered::detail::table<boost::unordered::detail::map<std::allocator<std::pair<std::basic_string<char,std::char_traits<char>,std::allocator<char> > const ,CEterPack *> >,std::basic_string<char,std::char_traits<char>,std::allocator<char> >,CEterPack *,stringhash,std::equal_to<std::basic_string<char,std::char_traits<char>,std::allocator<char> > > > >::add_node_unique, COMDAT
; _this$ = ecx

; 3686 :         {

  00000	55		 push	 ebp
  00001	8b ec		 mov	 ebp, esp
  00003	83 ec 1c	 sub	 esp, 28			; 0000001cH
  00006	89 4d fc	 mov	 DWORD PTR _this$[ebp], ecx

; 2604 :           return hash % bucket_count;

  00009	8b 4d fc	 mov	 ecx, DWORD PTR _this$[ebp]
  0000c	8b 45 0c	 mov	 eax, DWORD PTR _key_hash$[ebp]
  0000f	33 d2		 xor	 edx, edx
  00011	f7 71 04	 div	 DWORD PTR [ecx+4]

; 3687 :           std::size_t bucket_index = this->hash_to_bucket(key_hash);

  00014	89 55 f0	 mov	 DWORD PTR _bucket_index$[ebp], edx

; 3026 :           return buckets_ + static_cast<std::ptrdiff_t>(bucket_index);

  00017	8b 45 fc	 mov	 eax, DWORD PTR _this$[ebp]
  0001a	8b 40 14	 mov	 eax, DWORD PTR [eax+20]
  0001d	8b 4d f0	 mov	 ecx, DWORD PTR _bucket_index$[ebp]
  00020	8d 04 88	 lea	 eax, DWORD PTR [eax+ecx*4]

; 3688 :           bucket_pointer b = this->get_bucket_pointer(bucket_index);

  00023	89 45 f4	 mov	 DWORD PTR _b$[ebp], eax

; 3689 : 
; 3690 :           n->bucket_info_ = bucket_index;

  00026	8b 45 08	 mov	 eax, DWORD PTR _n$[ebp]
  00029	8b 4d f0	 mov	 ecx, DWORD PTR _bucket_index$[ebp]
  0002c	89 48 04	 mov	 DWORD PTR [eax+4], ecx

; 4883 :           bucket_info_ = bucket_info_ & ((std::size_t)-1 >> 1);

  0002f	8b 45 08	 mov	 eax, DWORD PTR _n$[ebp]
  00032	8b 40 04	 mov	 eax, DWORD PTR [eax+4]
  00035	25 ff ff ff 7f	 and	 eax, 2147483647		; 7fffffffH
  0003a	8b 4d 08	 mov	 ecx, DWORD PTR _n$[ebp]
  0003d	89 41 04	 mov	 DWORD PTR [ecx+4], eax

; 3691 :           n->set_first_in_group();
; 3692 : 
; 3693 :           if (!b->next_) {

  00040	8b 45 f4	 mov	 eax, DWORD PTR _b$[ebp]
  00043	83 38 00	 cmp	 DWORD PTR [eax], 0
  00046	75 61		 jne	 SHORT $LN2@add_node_u

; 3026 :           return buckets_ + static_cast<std::ptrdiff_t>(bucket_index);

  00048	8b 45 fc	 mov	 eax, DWORD PTR _this$[ebp]
  0004b	8b 40 04	 mov	 eax, DWORD PTR [eax+4]
  0004e	8b 4d fc	 mov	 ecx, DWORD PTR _this$[ebp]
  00051	8b 49 14	 mov	 ecx, DWORD PTR [ecx+20]
  00054	8d 04 81	 lea	 eax, DWORD PTR [ecx+eax*4]
  00057	89 45 ec	 mov	 DWORD PTR $T3[ebp], eax

; 3694 :             link_pointer start_node = this->get_previous_start();

  0005a	8b 45 ec	 mov	 eax, DWORD PTR $T3[ebp]
  0005d	89 45 f8	 mov	 DWORD PTR _start_node$4[ebp], eax

; 3695 : 
; 3696 :             if (start_node->next_) {

  00060	8b 45 f8	 mov	 eax, DWORD PTR _start_node$4[ebp]
  00063	83 38 00	 cmp	 DWORD PTR [eax], 0
  00066	74 25		 je	 SHORT $LN4@add_node_u

; 2964 :           return static_cast<node_pointer>(n->next_);

  00068	8b 45 f8	 mov	 eax, DWORD PTR _start_node$4[ebp]
  0006b	8b 00		 mov	 eax, DWORD PTR [eax]
  0006d	89 45 e8	 mov	 DWORD PTR $T2[ebp], eax

; 4873 :           return bucket_info_ & ((std::size_t)-1 >> 1);

  00070	8b 45 e8	 mov	 eax, DWORD PTR $T2[ebp]
  00073	8b 40 04	 mov	 eax, DWORD PTR [eax+4]
  00076	25 ff ff ff 7f	 and	 eax, 2147483647		; 7fffffffH

; 2999 :           return n->get_bucket();

  0007b	89 45 e4	 mov	 DWORD PTR $T1[ebp], eax

; 3697 :               this->get_bucket_pointer(node_bucket(next_node(start_node)))

  0007e	8b 45 fc	 mov	 eax, DWORD PTR _this$[ebp]
  00081	8b 40 14	 mov	 eax, DWORD PTR [eax+20]
  00084	8b 4d e4	 mov	 ecx, DWORD PTR $T1[ebp]
  00087	8b 55 08	 mov	 edx, DWORD PTR _n$[ebp]
  0008a	89 14 88	 mov	 DWORD PTR [eax+ecx*4], edx
$LN4@add_node_u:

; 3698 :                 ->next_ = n;
; 3699 :             }
; 3700 : 
; 3701 :             b->next_ = start_node;

  0008d	8b 45 f4	 mov	 eax, DWORD PTR _b$[ebp]
  00090	8b 4d f8	 mov	 ecx, DWORD PTR _start_node$4[ebp]
  00093	89 08		 mov	 DWORD PTR [eax], ecx

; 3702 :             n->next_ = start_node->next_;

  00095	8b 45 08	 mov	 eax, DWORD PTR _n$[ebp]
  00098	8b 4d f8	 mov	 ecx, DWORD PTR _start_node$4[ebp]
  0009b	8b 09		 mov	 ecx, DWORD PTR [ecx]
  0009d	89 08		 mov	 DWORD PTR [eax], ecx

; 3703 :             start_node->next_ = n;

  0009f	8b 45 f8	 mov	 eax, DWORD PTR _start_node$4[ebp]
  000a2	8b 4d 08	 mov	 ecx, DWORD PTR _n$[ebp]
  000a5	89 08		 mov	 DWORD PTR [eax], ecx

; 3704 :           } else {

  000a7	eb 16		 jmp	 SHORT $LN3@add_node_u
$LN2@add_node_u:

; 3705 :             n->next_ = b->next_->next_;

  000a9	8b 45 f4	 mov	 eax, DWORD PTR _b$[ebp]
  000ac	8b 00		 mov	 eax, DWORD PTR [eax]
  000ae	8b 4d 08	 mov	 ecx, DWORD PTR _n$[ebp]
  000b1	8b 00		 mov	 eax, DWORD PTR [eax]
  000b3	89 01		 mov	 DWORD PTR [ecx], eax

; 3706 :             b->next_->next_ = n;

  000b5	8b 45 f4	 mov	 eax, DWORD PTR _b$[ebp]
  000b8	8b 00		 mov	 eax, DWORD PTR [eax]
  000ba	8b 4d 08	 mov	 ecx, DWORD PTR _n$[ebp]
  000bd	89 08		 mov	 DWORD PTR [eax], ecx
$LN3@add_node_u:

; 3707 :           }
; 3708 : 
; 3709 :           ++this->size_;

  000bf	8b 45 fc	 mov	 eax, DWORD PTR _this$[ebp]
  000c2	8b 40 08	 mov	 eax, DWORD PTR [eax+8]
  000c5	40		 inc	 eax
  000c6	8b 4d fc	 mov	 ecx, DWORD PTR _this$[ebp]
  000c9	89 41 08	 mov	 DWORD PTR [ecx+8], eax

; 3710 :           return n;

  000cc	8b 45 08	 mov	 eax, DWORD PTR _n$[ebp]

; 3711 :         }

  000cf	c9		 leave
  000d0	c2 08 00	 ret	 8
?add_node_unique@?$table@U?$map@V?$allocator@U?$pair@$$CBV?$basic_string@DU?$char_traits@D@std@@V?$allocator@D@2@@std@@PAVCEterPack@@@std@@@std@@V?$basic_string@DU?$char_traits@D@std@@V?$allocator@D@2@@2@PAVCEterPack@@Ustringhash@@U?$equal_to@V?$basic_string@DU?$char_traits@D@std@@V?$allocator@D@2@@std@@@2@@detail@unordered@boost@@@detail@unordered@boost@@QAEPAU?$ptr_node@U?$pair@$$CBV?$basic_string@DU?$char_traits@D@std@@V?$allocator@D@2@@std@@PAVCEterPack@@@std@@@234@PAU5234@I@Z ENDP ; boost::unordered::detail::table<boost::unordered::detail::map<std::allocator<std::pair<std::basic_string<char,std::char_traits<char>,std::allocator<char> > const ,CEterPack *> >,std::basic_string<char,std::char_traits<char>,std::allocator<char> >,CEterPack *,stringhash,std::equal_to<std::basic_string<char,std::char_traits<char>,std::allocator<char> > > > >::add_node_unique
_TEXT	ENDS
; Function compile flags: /Odspy
; File D:\Metin2 Server Files\mainline\SRC_2014\M2Data\include\boost\unordered\detail\implementation.hpp
; File D:\Metin2 Server Files\mainline\SRC_2014\Metin2Client\eterBase\Stl.h
; File D:\Metin2 Server Files\mainline\SRC_2014\M2Data\include\boost\unordered\detail\implementation.hpp
;	COMDAT ?rehash_impl@?$table@U?$map@V?$allocator@U?$pair@$$CBV?$basic_string@DU?$char_traits@D@std@@V?$allocator@D@2@@std@@PAVCEterPack@@@std@@@std@@V?$basic_string@DU?$char_traits@D@std@@V?$allocator@D@2@@2@PAVCEterPack@@Ustringhash@@U?$equal_to@V?$basic_string@DU?$char_traits@D@std@@V?$allocator@D@2@@std@@@2@@detail@unordered@boost@@@detail@unordered@boost@@QAEXI@Z
_TEXT	SEGMENT
_next$2 = -72						; size = 4
_next$3 = -68						; size = 4
_key_hash$4 = -64					; size = 4
tv129 = -60						; size = 4
$T5 = -56						; size = 4
$T6 = -52						; size = 4
tv225 = -48						; size = 4
_bucket_index$7 = -44					; size = 4
_next$8 = -40						; size = 4
_n$9 = -36						; size = 4
_b$10 = -32						; size = 4
_prev$ = -28						; size = 4
_this$ = -24						; size = 4
_n$11 = -20						; size = 4
__$EHRec$ = -16						; size = 16
_num_buckets$ = 8					; size = 4
?rehash_impl@?$table@U?$map@V?$allocator@U?$pair@$$CBV?$basic_string@DU?$char_traits@D@std@@V?$allocator@D@2@@std@@PAVCEterPack@@@std@@@std@@V?$basic_string@DU?$char_traits@D@std@@V?$allocator@D@2@@2@PAVCEterPack@@Ustringhash@@U?$equal_to@V?$basic_string@DU?$char_traits@D@std@@V?$allocator@D@2@@std@@@2@@detail@unordered@boost@@@detail@unordered@boost@@QAEXI@Z PROC ; boost::unordered::detail::table<boost::unordered::detail::map<std::allocator<std::pair<std::basic_string<char,std::char_traits<char>,std::allocator<char> > const ,CEterPack *> >,std::basic_string<char,std::char_traits<char>,std::allocator<char> >,CEterPack *,stringhash,std::equal_to<std::basic_string<char,std::char_traits<char>,std::allocator<char> > > > >::rehash_impl, COMDAT
; _this$ = ecx

; 4577 :       {

  00000	55		 push	 ebp
  00001	8b ec		 mov	 ebp, esp
  00003	6a ff		 push	 -1
  00005	68 00 00 00 00	 push	 __ehhandler$?rehash_impl@?$table@U?$map@V?$allocator@U?$pair@$$CBV?$basic_string@DU?$char_traits@D@std@@V?$allocator@D@2@@std@@PAVCEterPack@@@std@@@std@@V?$basic_string@DU?$char_traits@D@std@@V?$allocator@D@2@@2@PAVCEterPack@@Ustringhash@@U?$equal_to@V?$basic_string@DU?$char_traits@D@std@@V?$allocator@D@2@@std@@@2@@detail@unordered@boost@@@detail@unordered@boost@@QAEXI@Z
  0000a	64 a1 00 00 00
	00		 mov	 eax, DWORD PTR fs:0
  00010	50		 push	 eax
  00011	51		 push	 ecx
  00012	83 ec 38	 sub	 esp, 56			; 00000038H
  00015	53		 push	 ebx
  00016	56		 push	 esi
  00017	57		 push	 edi
  00018	a1 00 00 00 00	 mov	 eax, DWORD PTR ___security_cookie
  0001d	33 c5		 xor	 eax, ebp
  0001f	50		 push	 eax
  00020	8d 45 f4	 lea	 eax, DWORD PTR __$EHRec$[ebp+4]
  00023	64 a3 00 00 00
	00		 mov	 DWORD PTR fs:0, eax
  00029	89 65 f0	 mov	 DWORD PTR __$EHRec$[ebp], esp
  0002c	89 4d e8	 mov	 DWORD PTR _this$[ebp], ecx

; 4578 :         BOOST_ASSERT(this->buckets_);
; 4579 : 
; 4580 :         this->create_buckets(num_buckets);

  0002f	ff 75 08	 push	 DWORD PTR _num_buckets$[ebp]
  00032	8b 4d e8	 mov	 ecx, DWORD PTR _this$[ebp]
  00035	e8 00 00 00 00	 call	 ?create_buckets@?$table@U?$map@V?$allocator@U?$pair@$$CBV?$basic_string@DU?$char_traits@D@std@@V?$allocator@D@2@@std@@PAVCEterPack@@@std@@@std@@V?$basic_string@DU?$char_traits@D@std@@V?$allocator@D@2@@2@PAVCEterPack@@Ustringhash@@U?$equal_to@V?$basic_string@DU?$char_traits@D@std@@V?$allocator@D@2@@std@@@2@@detail@unordered@boost@@@detail@unordered@boost@@QAEXI@Z ; boost::unordered::detail::table<boost::unordered::detail::map<std::allocator<std::pair<std::basic_string<char,std::char_traits<char>,std::allocator<char> > const ,CEterPack *> >,std::basic_string<char,std::char_traits<char>,std::allocator<char> >,CEterPack *,stringhash,std::equal_to<std::basic_string<char,std::char_traits<char>,std::allocator<char> > > > >::create_buckets

; 3026 :           return buckets_ + static_cast<std::ptrdiff_t>(bucket_index);

  0003a	8b 45 e8	 mov	 eax, DWORD PTR _this$[ebp]
  0003d	8b 40 04	 mov	 eax, DWORD PTR [eax+4]
  00040	8b 4d e8	 mov	 ecx, DWORD PTR _this$[ebp]
  00043	8b 49 14	 mov	 ecx, DWORD PTR [ecx+20]
  00046	8d 04 81	 lea	 eax, DWORD PTR [ecx+eax*4]
  00049	89 45 cc	 mov	 DWORD PTR $T6[ebp], eax

; 4581 :         link_pointer prev = this->get_previous_start();

  0004c	8b 45 cc	 mov	 eax, DWORD PTR $T6[ebp]
  0004f	89 45 e4	 mov	 DWORD PTR _prev$[ebp], eax

; 4582 :         BOOST_TRY

  00052	83 65 fc 00	 and	 DWORD PTR __$EHRec$[ebp+12], 0
$LN2@rehash_imp:

; 4583 :         {
; 4584 :           while (prev->next_) {

  00056	8b 45 e4	 mov	 eax, DWORD PTR _prev$[ebp]
  00059	83 38 00	 cmp	 DWORD PTR [eax], 0
  0005c	0f 84 01 01 00
	00		 je	 $LN3@rehash_imp

; 2964 :           return static_cast<node_pointer>(n->next_);

  00062	8b 45 e4	 mov	 eax, DWORD PTR _prev$[ebp]
  00065	8b 00		 mov	 eax, DWORD PTR [eax]
  00067	89 45 ec	 mov	 DWORD PTR _n$11[ebp], eax

; 2791 :           return *static_cast<function_pair const*>(

  0006a	8b 45 e8	 mov	 eax, DWORD PTR _this$[ebp]
  0006d	0f b6 00	 movzx	 eax, BYTE PTR [eax]
  00070	83 e0 01	 and	 eax, 1
  00073	8b 4d e8	 mov	 ecx, DWORD PTR _this$[ebp]
  00076	8d 44 01 01	 lea	 eax, DWORD PTR [ecx+eax+1]
  0007a	89 45 c8	 mov	 DWORD PTR $T5[ebp], eax

; 4703 :         static key_type const& extract(value_type const& v) { return v.first; }

  0007d	8b 45 ec	 mov	 eax, DWORD PTR _n$11[ebp]
  00080	83 c0 08	 add	 eax, 8
; File D:\Metin2 Server Files\mainline\SRC_2014\Metin2Client\eterBase\Stl.h

; 492  : 		return GetHash(str);

  00083	50		 push	 eax
  00084	8b 4d c8	 mov	 ecx, DWORD PTR $T5[ebp]
  00087	e8 00 00 00 00	 call	 ?GetHash@stringhash@@QBEIABV?$basic_string@DU?$char_traits@D@std@@V?$allocator@D@2@@std@@@Z ; stringhash::GetHash
  0008c	89 45 c4	 mov	 DWORD PTR tv129[ebp], eax
; File D:\Metin2 Server Files\mainline\SRC_2014\M2Data\include\boost\unordered\detail\implementation.hpp

; 4586 :             std::size_t key_hash = this->hash(this->get_key(n));

  0008f	8b 45 c4	 mov	 eax, DWORD PTR tv129[ebp]
  00092	89 45 c0	 mov	 DWORD PTR _key_hash$4[ebp], eax

; 2604 :           return hash % bucket_count;

  00095	8b 4d e8	 mov	 ecx, DWORD PTR _this$[ebp]
  00098	8b 45 c0	 mov	 eax, DWORD PTR _key_hash$4[ebp]
  0009b	33 d2		 xor	 edx, edx
  0009d	f7 71 04	 div	 DWORD PTR [ecx+4]

; 4587 :             std::size_t bucket_index = this->hash_to_bucket(key_hash);

  000a0	89 55 d4	 mov	 DWORD PTR _bucket_index$7[ebp], edx

; 4588 : 
; 4589 :             n->bucket_info_ = bucket_index;

  000a3	8b 45 ec	 mov	 eax, DWORD PTR _n$11[ebp]
  000a6	8b 4d d4	 mov	 ecx, DWORD PTR _bucket_index$7[ebp]
  000a9	89 48 04	 mov	 DWORD PTR [eax+4], ecx

; 4883 :           bucket_info_ = bucket_info_ & ((std::size_t)-1 >> 1);

  000ac	8b 45 ec	 mov	 eax, DWORD PTR _n$11[ebp]
  000af	8b 40 04	 mov	 eax, DWORD PTR [eax+4]
  000b2	25 ff ff ff 7f	 and	 eax, 2147483647		; 7fffffffH
  000b7	8b 4d ec	 mov	 ecx, DWORD PTR _n$11[ebp]
  000ba	89 41 04	 mov	 DWORD PTR [ecx+4], eax
$LN6@rehash_imp:

; 2964 :           return static_cast<node_pointer>(n->next_);

  000bd	8b 45 ec	 mov	 eax, DWORD PTR _n$11[ebp]
  000c0	8b 00		 mov	 eax, DWORD PTR [eax]
  000c2	89 45 d8	 mov	 DWORD PTR _next$8[ebp], eax

; 4590 :             n->set_first_in_group();
; 4591 : 
; 4592 :             // Iterator through the rest of the group of equal nodes,
; 4593 :             // setting the bucket.
; 4594 :             for (;;) {
; 4595 :               node_pointer next = next_node(n);
; 4596 :               if (!next || next->is_first_in_group()) {

  000c5	83 7d d8 00	 cmp	 DWORD PTR _next$8[ebp], 0
  000c9	74 20		 je	 SHORT $LN11@rehash_imp

; 4878 :           return !(bucket_info_ & ~((std::size_t)-1 >> 1));

  000cb	8b 45 d8	 mov	 eax, DWORD PTR _next$8[ebp]
  000ce	8b 40 04	 mov	 eax, DWORD PTR [eax+4]
  000d1	25 00 00 00 80	 and	 eax, -2147483648	; 80000000H
  000d6	75 09		 jne	 SHORT $LN83@rehash_imp
  000d8	c7 45 d0 01 00
	00 00		 mov	 DWORD PTR tv225[ebp], 1
  000df	eb 04		 jmp	 SHORT $LN81@rehash_imp
$LN83@rehash_imp:
  000e1	83 65 d0 00	 and	 DWORD PTR tv225[ebp], 0
$LN81@rehash_imp:

; 4590 :             n->set_first_in_group();
; 4591 : 
; 4592 :             // Iterator through the rest of the group of equal nodes,
; 4593 :             // setting the bucket.
; 4594 :             for (;;) {
; 4595 :               node_pointer next = next_node(n);
; 4596 :               if (!next || next->is_first_in_group()) {

  000e5	83 7d d0 00	 cmp	 DWORD PTR tv225[ebp], 0
  000e9	74 02		 je	 SHORT $LN10@rehash_imp
$LN11@rehash_imp:

; 4597 :                 break;

  000eb	eb 22		 jmp	 SHORT $LN87@rehash_imp
$LN10@rehash_imp:

; 4598 :               }
; 4599 :               n = next;

  000ed	8b 45 d8	 mov	 eax, DWORD PTR _next$8[ebp]
  000f0	89 45 ec	 mov	 DWORD PTR _n$11[ebp], eax

; 4600 :               n->bucket_info_ = bucket_index;

  000f3	8b 45 ec	 mov	 eax, DWORD PTR _n$11[ebp]
  000f6	8b 4d d4	 mov	 ecx, DWORD PTR _bucket_index$7[ebp]
  000f9	89 48 04	 mov	 DWORD PTR [eax+4], ecx

; 4888 :           bucket_info_ = bucket_info_ | ~((std::size_t)-1 >> 1);

  000fc	8b 45 ec	 mov	 eax, DWORD PTR _n$11[ebp]
  000ff	8b 40 04	 mov	 eax, DWORD PTR [eax+4]
  00102	0d 00 00 00 80	 or	 eax, -2147483648	; 80000000H
  00107	8b 4d ec	 mov	 ecx, DWORD PTR _n$11[ebp]
  0010a	89 41 04	 mov	 DWORD PTR [ecx+4], eax

; 4601 :               n->reset_first_in_group();
; 4602 :             }

  0010d	eb ae		 jmp	 SHORT $LN6@rehash_imp
$LN87@rehash_imp:

; 3026 :           return buckets_ + static_cast<std::ptrdiff_t>(bucket_index);

  0010f	8b 45 e8	 mov	 eax, DWORD PTR _this$[ebp]
  00112	8b 40 14	 mov	 eax, DWORD PTR [eax+20]
  00115	8b 4d d4	 mov	 ecx, DWORD PTR _bucket_index$7[ebp]
  00118	8d 04 88	 lea	 eax, DWORD PTR [eax+ecx*4]

; 4603 : 
; 4604 :             // n is now the last node in the group
; 4605 :             bucket_pointer b = this->get_bucket_pointer(bucket_index);

  0011b	89 45 e0	 mov	 DWORD PTR _b$10[ebp], eax

; 4606 :             if (!b->next_) {

  0011e	8b 45 e0	 mov	 eax, DWORD PTR _b$10[ebp]
  00121	83 38 00	 cmp	 DWORD PTR [eax], 0
  00124	75 10		 jne	 SHORT $LN12@rehash_imp

; 4607 :               b->next_ = prev;

  00126	8b 45 e0	 mov	 eax, DWORD PTR _b$10[ebp]
  00129	8b 4d e4	 mov	 ecx, DWORD PTR _prev$[ebp]
  0012c	89 08		 mov	 DWORD PTR [eax], ecx

; 4608 :               prev = n;

  0012e	8b 45 ec	 mov	 eax, DWORD PTR _n$11[ebp]
  00131	89 45 e4	 mov	 DWORD PTR _prev$[ebp], eax

; 4609 :             } else {

  00134	eb 28		 jmp	 SHORT $LN13@rehash_imp
$LN12@rehash_imp:

; 4610 :               link_pointer next = n->next_;

  00136	8b 45 ec	 mov	 eax, DWORD PTR _n$11[ebp]
  00139	8b 00		 mov	 eax, DWORD PTR [eax]
  0013b	89 45 bc	 mov	 DWORD PTR _next$3[ebp], eax

; 4611 :               n->next_ = b->next_->next_;

  0013e	8b 45 e0	 mov	 eax, DWORD PTR _b$10[ebp]
  00141	8b 00		 mov	 eax, DWORD PTR [eax]
  00143	8b 4d ec	 mov	 ecx, DWORD PTR _n$11[ebp]
  00146	8b 00		 mov	 eax, DWORD PTR [eax]
  00148	89 01		 mov	 DWORD PTR [ecx], eax

; 4612 :               b->next_->next_ = prev->next_;

  0014a	8b 45 e0	 mov	 eax, DWORD PTR _b$10[ebp]
  0014d	8b 00		 mov	 eax, DWORD PTR [eax]
  0014f	8b 4d e4	 mov	 ecx, DWORD PTR _prev$[ebp]
  00152	8b 09		 mov	 ecx, DWORD PTR [ecx]
  00154	89 08		 mov	 DWORD PTR [eax], ecx

; 4613 :               prev->next_ = next;

  00156	8b 45 e4	 mov	 eax, DWORD PTR _prev$[ebp]
  00159	8b 4d bc	 mov	 ecx, DWORD PTR _next$3[ebp]
  0015c	89 08		 mov	 DWORD PTR [eax], ecx
$LN13@rehash_imp:

; 4614 :             }
; 4615 :           }

  0015e	e9 f3 fe ff ff	 jmp	 $LN2@rehash_imp
$LN3@rehash_imp:

; 4616 :         }

  00163	eb 53		 jmp	 SHORT $LN15@rehash_imp
__catch$?rehash_impl@?$table@U?$map@V?$allocator@U?$pair@$$CBV?$basic_string@DU?$char_traits@D@std@@V?$allocator@D@2@@std@@PAVCEterPack@@@std@@@std@@V?$basic_string@DU?$char_traits@D@std@@V?$allocator@D@2@@2@PAVCEterPack@@Ustringhash@@U?$equal_to@V?$basic_string@DU?$char_traits@D@std@@V?$allocator@D@2@@std@@@2@@detail@unordered@boost@@@detail@unordered@boost@@QAEXI@Z$0:

; 4617 :         BOOST_CATCH(...)
; 4618 :         {
; 4619 :           node_pointer n = next_node(prev);

  00165	ff 75 e4	 push	 DWORD PTR _prev$[ebp]
  00168	e8 00 00 00 00	 call	 ?next_node@?$table@U?$map@V?$allocator@U?$pair@$$CBV?$basic_string@DU?$char_traits@D@std@@V?$allocator@D@2@@std@@PAVCEterPack@@@std@@@std@@V?$basic_string@DU?$char_traits@D@std@@V?$allocator@D@2@@2@PAVCEterPack@@Ustringhash@@U?$equal_to@V?$basic_string@DU?$char_traits@D@std@@V?$allocator@D@2@@std@@@2@@detail@unordered@boost@@@detail@unordered@boost@@SAPAU?$ptr_node@U?$pair@$$CBV?$basic_string@DU?$char_traits@D@std@@V?$allocator@D@2@@std@@PAVCEterPack@@@std@@@234@PAUptr_bucket@234@@Z ; boost::unordered::detail::table<boost::unordered::detail::map<std::allocator<std::pair<std::basic_string<char,std::char_traits<char>,std::allocator<char> > const ,CEterPack *> >,std::basic_string<char,std::char_traits<char>,std::allocator<char> >,CEterPack *,stringhash,std::equal_to<std::basic_string<char,std::char_traits<char>,std::allocator<char> > > > >::next_node
  0016d	59		 pop	 ecx
  0016e	89 45 dc	 mov	 DWORD PTR _n$9[ebp], eax

; 4620 :           prev->next_ = node_pointer();

  00171	8b 45 e4	 mov	 eax, DWORD PTR _prev$[ebp]
  00174	83 20 00	 and	 DWORD PTR [eax], 0
$LN7@rehash_imp:

; 4621 :           while (n) {

  00177	83 7d dc 00	 cmp	 DWORD PTR _n$9[ebp], 0
  0017b	74 2c		 je	 SHORT $LN8@rehash_imp

; 4622 :             node_pointer next = next_node(n);

  0017d	ff 75 dc	 push	 DWORD PTR _n$9[ebp]
  00180	e8 00 00 00 00	 call	 ?next_node@?$table@U?$map@V?$allocator@U?$pair@$$CBV?$basic_string@DU?$char_traits@D@std@@V?$allocator@D@2@@std@@PAVCEterPack@@@std@@@std@@V?$basic_string@DU?$char_traits@D@std@@V?$allocator@D@2@@2@PAVCEterPack@@Ustringhash@@U?$equal_to@V?$basic_string@DU?$char_traits@D@std@@V?$allocator@D@2@@std@@@2@@detail@unordered@boost@@@detail@unordered@boost@@SAPAU?$ptr_node@U?$pair@$$CBV?$basic_string@DU?$char_traits@D@std@@V?$allocator@D@2@@std@@PAVCEterPack@@@std@@@234@PAUptr_bucket@234@@Z ; boost::unordered::detail::table<boost::unordered::detail::map<std::allocator<std::pair<std::basic_string<char,std::char_traits<char>,std::allocator<char> > const ,CEterPack *> >,std::basic_string<char,std::char_traits<char>,std::allocator<char> >,CEterPack *,stringhash,std::equal_to<std::basic_string<char,std::char_traits<char>,std::allocator<char> > > > >::next_node
  00185	59		 pop	 ecx
  00186	89 45 b8	 mov	 DWORD PTR _next$2[ebp], eax

; 4623 :             destroy_node(n);

  00189	ff 75 dc	 push	 DWORD PTR _n$9[ebp]
  0018c	8b 4d e8	 mov	 ecx, DWORD PTR _this$[ebp]
  0018f	e8 00 00 00 00	 call	 ?destroy_node@?$table@U?$map@V?$allocator@U?$pair@$$CBV?$basic_string@DU?$char_traits@D@std@@V?$allocator@D@2@@std@@PAVCEterPack@@@std@@@std@@V?$basic_string@DU?$char_traits@D@std@@V?$allocator@D@2@@2@PAVCEterPack@@Ustringhash@@U?$equal_to@V?$basic_string@DU?$char_traits@D@std@@V?$allocator@D@2@@std@@@2@@detail@unordered@boost@@@detail@unordered@boost@@QAEXPAU?$ptr_node@U?$pair@$$CBV?$basic_string@DU?$char_traits@D@std@@V?$allocator@D@2@@std@@PAVCEterPack@@@std@@@234@@Z ; boost::unordered::detail::table<boost::unordered::detail::map<std::allocator<std::pair<std::basic_string<char,std::char_traits<char>,std::allocator<char> > const ,CEterPack *> >,std::basic_string<char,std::char_traits<char>,std::allocator<char> >,CEterPack *,stringhash,std::equal_to<std::basic_string<char,std::char_traits<char>,std::allocator<char> > > > >::destroy_node

; 4624 :             --size_;

  00194	8b 45 e8	 mov	 eax, DWORD PTR _this$[ebp]
  00197	8b 40 08	 mov	 eax, DWORD PTR [eax+8]
  0019a	48		 dec	 eax
  0019b	8b 4d e8	 mov	 ecx, DWORD PTR _this$[ebp]
  0019e	89 41 08	 mov	 DWORD PTR [ecx+8], eax

; 4625 :             n = next;

  001a1	8b 45 b8	 mov	 eax, DWORD PTR _next$2[ebp]
  001a4	89 45 dc	 mov	 DWORD PTR _n$9[ebp], eax

; 4626 :           }

  001a7	eb ce		 jmp	 SHORT $LN7@rehash_imp
$LN8@rehash_imp:

; 4627 :           BOOST_RETHROW

  001a9	6a 00		 push	 0
  001ab	6a 00		 push	 0
  001ad	e8 00 00 00 00	 call	 __CxxThrowException@8

; 4628 :         }

  001b2	b8 00 00 00 00	 mov	 eax, $LN18@rehash_imp
  001b7	c3		 ret	 0
$LN15@rehash_imp:
  001b8	83 4d fc ff	 or	 DWORD PTR __$EHRec$[ebp+12], -1
  001bc	eb 04		 jmp	 SHORT $LN14@rehash_imp
$LN18@rehash_imp:
  001be	83 4d fc ff	 or	 DWORD PTR __$EHRec$[ebp+12], -1
$LN14@rehash_imp:

; 4629 :         BOOST_CATCH_END
; 4630 :       }

  001c2	8b 4d f4	 mov	 ecx, DWORD PTR __$EHRec$[ebp+4]
  001c5	64 89 0d 00 00
	00 00		 mov	 DWORD PTR fs:0, ecx
  001cc	59		 pop	 ecx
  001cd	5f		 pop	 edi
  001ce	5e		 pop	 esi
  001cf	5b		 pop	 ebx
  001d0	c9		 leave
  001d1	c2 04 00	 ret	 4
  001d4	cc		 int	 3
  001d5	cc		 int	 3
  001d6	cc		 int	 3
  001d7	cc		 int	 3
  001d8	cc		 int	 3
_TEXT	ENDS
;	COMDAT text$x
text$x	SEGMENT
__ehhandler$?rehash_impl@?$table@U?$map@V?$allocator@U?$pair@$$CBV?$basic_string@DU?$char_traits@D@std@@V?$allocator@D@2@@std@@PAVCEterPack@@@std@@@std@@V?$basic_string@DU?$char_traits@D@std@@V?$allocator@D@2@@2@PAVCEterPack@@Ustringhash@@U?$equal_to@V?$basic_string@DU?$char_traits@D@std@@V?$allocator@D@2@@std@@@2@@detail@unordered@boost@@@detail@unordered@boost@@QAEXI@Z:
  00000	90		 npad	 1
  00001	90		 npad	 1
  00002	8b 54 24 08	 mov	 edx, DWORD PTR [esp+8]
  00006	8d 42 0c	 lea	 eax, DWORD PTR [edx+12]
  00009	8b 4a b4	 mov	 ecx, DWORD PTR [edx-76]
  0000c	33 c8		 xor	 ecx, eax
  0000e	e8 00 00 00 00	 call	 @__security_check_cookie@4
  00013	b8 00 00 00 00	 mov	 eax, OFFSET __ehfuncinfo$?rehash_impl@?$table@U?$map@V?$allocator@U?$pair@$$CBV?$basic_string@DU?$char_traits@D@std@@V?$allocator@D@2@@std@@PAVCEterPack@@@std@@@std@@V?$basic_string@DU?$char_traits@D@std@@V?$allocator@D@2@@2@PAVCEterPack@@Ustringhash@@U?$equal_to@V?$basic_string@DU?$char_traits@D@std@@V?$allocator@D@2@@std@@@2@@detail@unordered@boost@@@detail@unordered@boost@@QAEXI@Z
  00018	e9 00 00 00 00	 jmp	 ___CxxFrameHandler3
text$x	ENDS
?rehash_impl@?$table@U?$map@V?$allocator@U?$pair@$$CBV?$basic_string@DU?$char_traits@D@std@@V?$allocator@D@2@@std@@PAVCEterPack@@@std@@@std@@V?$basic_string@DU?$char_traits@D@std@@V?$allocator@D@2@@2@PAVCEterPack@@Ustringhash@@U?$equal_to@V?$basic_string@DU?$char_traits@D@std@@V?$allocator@D@2@@std@@@2@@detail@unordered@boost@@@detail@unordered@boost@@QAEXI@Z ENDP ; boost::unordered::detail::table<boost::unordered::detail::map<std::allocator<std::pair<std::basic_string<char,std::char_traits<char>,std::allocator<char> > const ,CEterPack *> >,std::basic_string<char,std::char_traits<char>,std::allocator<char> >,CEterPack *,stringhash,std::equal_to<std::basic_string<char,std::char_traits<char>,std::allocator<char> > > > >::rehash_impl
; Function compile flags: /Odspy
; File D:\Metin2 Server Files\mainline\SRC_2014\M2Data\include\boost\unordered\detail\implementation.hpp
; File C:\Program Files (x86)\Microsoft Visual Studio\2019\Community\VC\Tools\MSVC\14.28.29333\include\utility
; File D:\Metin2 Server Files\mainline\SRC_2014\M2Data\include\boost\unordered\detail\implementation.hpp
; File C:\Program Files (x86)\Microsoft Visual Studio\2019\Community\VC\Tools\MSVC\14.28.29333\include\utility
; File D:\Metin2 Server Files\mainline\SRC_2014\M2Data\include\boost\unordered\detail\implementation.hpp
;	COMDAT ?reserve_for_insert@?$table@U?$map@V?$allocator@U?$pair@$$CBV?$basic_string@DU?$char_traits@D@std@@V?$allocator@D@2@@std@@PAVCEterPack@@@std@@@std@@V?$basic_string@DU?$char_traits@D@std@@V?$allocator@D@2@@2@PAVCEterPack@@Ustringhash@@U?$equal_to@V?$basic_string@DU?$char_traits@D@std@@V?$allocator@D@2@@std@@@2@@detail@unordered@boost@@@detail@unordered@boost@@QAEXI@Z
_TEXT	SEGMENT
$T1 = -44						; size = 4
$T2 = -40						; size = 4
$T3 = -36						; size = 4
$T4 = -32						; size = 4
_num_buckets$5 = -28					; size = 4
tv73 = -24						; size = 4
$T6 = -20						; size = 4
tv137 = -16						; size = 4
__Left$ = -12						; size = 4
$T7 = -8						; size = 4
_this$ = -4						; size = 4
_size$ = 8						; size = 4
?reserve_for_insert@?$table@U?$map@V?$allocator@U?$pair@$$CBV?$basic_string@DU?$char_traits@D@std@@V?$allocator@D@2@@std@@PAVCEterPack@@@std@@@std@@V?$basic_string@DU?$char_traits@D@std@@V?$allocator@D@2@@2@PAVCEterPack@@Ustringhash@@U?$equal_to@V?$basic_string@DU?$char_traits@D@std@@V?$allocator@D@2@@std@@@2@@detail@unordered@boost@@@detail@unordered@boost@@QAEXI@Z PROC ; boost::unordered::detail::table<boost::unordered::detail::map<std::allocator<std::pair<std::basic_string<char,std::char_traits<char>,std::allocator<char> > const ,CEterPack *> >,std::basic_string<char,std::char_traits<char>,std::allocator<char> >,CEterPack *,stringhash,std::equal_to<std::basic_string<char,std::char_traits<char>,std::allocator<char> > > > >::reserve_for_insert, COMDAT
; _this$ = ecx

; 4541 :       {

  00000	55		 push	 ebp
  00001	8b ec		 mov	 ebp, esp
  00003	83 ec 2c	 sub	 esp, 44			; 0000002cH
  00006	89 4d fc	 mov	 DWORD PTR _this$[ebp], ecx

; 4542 :         if (!buckets_) {

  00009	8b 45 fc	 mov	 eax, DWORD PTR _this$[ebp]
  0000c	83 78 14 00	 cmp	 DWORD PTR [eax+20], 0
  00010	75 4a		 jne	 SHORT $LN2@reserve_fo

; 4543 :           create_buckets((std::max)(bucket_count_, min_buckets_for_size(size)));

  00012	ff 75 08	 push	 DWORD PTR _size$[ebp]
  00015	8b 4d fc	 mov	 ecx, DWORD PTR _this$[ebp]
  00018	e8 00 00 00 00	 call	 ?min_buckets_for_size@?$table@U?$map@V?$allocator@U?$pair@$$CBV?$basic_string@DU?$char_traits@D@std@@V?$allocator@D@2@@std@@PAVCEterPack@@@std@@@std@@V?$basic_string@DU?$char_traits@D@std@@V?$allocator@D@2@@2@PAVCEterPack@@Ustringhash@@U?$equal_to@V?$basic_string@DU?$char_traits@D@std@@V?$allocator@D@2@@std@@@2@@detail@unordered@boost@@@detail@unordered@boost@@QBEII@Z ; boost::unordered::detail::table<boost::unordered::detail::map<std::allocator<std::pair<std::basic_string<char,std::char_traits<char>,std::allocator<char> > const ,CEterPack *> >,std::basic_string<char,std::char_traits<char>,std::allocator<char> >,CEterPack *,stringhash,std::equal_to<std::basic_string<char,std::char_traits<char>,std::allocator<char> > > > >::min_buckets_for_size
  0001d	89 45 f8	 mov	 DWORD PTR $T7[ebp], eax
  00020	8b 45 fc	 mov	 eax, DWORD PTR _this$[ebp]
  00023	83 c0 04	 add	 eax, 4
  00026	89 45 f4	 mov	 DWORD PTR __Left$[ebp], eax
; File C:\Program Files (x86)\Microsoft Visual Studio\2019\Community\VC\Tools\MSVC\14.28.29333\include\utility

; 44   :     return _Left < _Right ? _Right : _Left;

  00029	8b 45 f4	 mov	 eax, DWORD PTR __Left$[ebp]
  0002c	8b 00		 mov	 eax, DWORD PTR [eax]
  0002e	3b 45 f8	 cmp	 eax, DWORD PTR $T7[ebp]
  00031	73 08		 jae	 SHORT $LN55@reserve_fo
  00033	8d 45 f8	 lea	 eax, DWORD PTR $T7[ebp]
  00036	89 45 f0	 mov	 DWORD PTR tv137[ebp], eax
  00039	eb 06		 jmp	 SHORT $LN56@reserve_fo
$LN55@reserve_fo:
  0003b	8b 45 f4	 mov	 eax, DWORD PTR __Left$[ebp]
  0003e	89 45 f0	 mov	 DWORD PTR tv137[ebp], eax
$LN56@reserve_fo:
  00041	8b 45 f0	 mov	 eax, DWORD PTR tv137[ebp]
  00044	89 45 e0	 mov	 DWORD PTR $T4[ebp], eax
  00047	8b 45 e0	 mov	 eax, DWORD PTR $T4[ebp]
  0004a	89 45 dc	 mov	 DWORD PTR $T3[ebp], eax
; File D:\Metin2 Server Files\mainline\SRC_2014\M2Data\include\boost\unordered\detail\implementation.hpp

; 4543 :           create_buckets((std::max)(bucket_count_, min_buckets_for_size(size)));

  0004d	8b 45 dc	 mov	 eax, DWORD PTR $T3[ebp]
  00050	ff 30		 push	 DWORD PTR [eax]
  00052	8b 4d fc	 mov	 ecx, DWORD PTR _this$[ebp]
  00055	e8 00 00 00 00	 call	 ?create_buckets@?$table@U?$map@V?$allocator@U?$pair@$$CBV?$basic_string@DU?$char_traits@D@std@@V?$allocator@D@2@@std@@PAVCEterPack@@@std@@@std@@V?$basic_string@DU?$char_traits@D@std@@V?$allocator@D@2@@2@PAVCEterPack@@Ustringhash@@U?$equal_to@V?$basic_string@DU?$char_traits@D@std@@V?$allocator@D@2@@std@@@2@@detail@unordered@boost@@@detail@unordered@boost@@QAEXI@Z ; boost::unordered::detail::table<boost::unordered::detail::map<std::allocator<std::pair<std::basic_string<char,std::char_traits<char>,std::allocator<char> > const ,CEterPack *> >,std::basic_string<char,std::char_traits<char>,std::allocator<char> >,CEterPack *,stringhash,std::equal_to<std::basic_string<char,std::char_traits<char>,std::allocator<char> > > > >::create_buckets
  0005a	eb 64		 jmp	 SHORT $LN1@reserve_fo
$LN2@reserve_fo:

; 4544 :         } else if (size > max_load_) {

  0005c	8b 45 fc	 mov	 eax, DWORD PTR _this$[ebp]
  0005f	8b 4d 08	 mov	 ecx, DWORD PTR _size$[ebp]
  00062	3b 48 10	 cmp	 ecx, DWORD PTR [eax+16]
  00065	76 59		 jbe	 SHORT $LN1@reserve_fo

; 4545 :           std::size_t num_buckets =

  00067	8b 45 fc	 mov	 eax, DWORD PTR _this$[ebp]
  0006a	8b 40 08	 mov	 eax, DWORD PTR [eax+8]
  0006d	d1 e8		 shr	 eax, 1
  0006f	8b 4d fc	 mov	 ecx, DWORD PTR _this$[ebp]
  00072	03 41 08	 add	 eax, DWORD PTR [ecx+8]
  00075	89 45 ec	 mov	 DWORD PTR $T6[ebp], eax
; File C:\Program Files (x86)\Microsoft Visual Studio\2019\Community\VC\Tools\MSVC\14.28.29333\include\utility

; 44   :     return _Left < _Right ? _Right : _Left;

  00078	8b 45 08	 mov	 eax, DWORD PTR _size$[ebp]
  0007b	3b 45 ec	 cmp	 eax, DWORD PTR $T6[ebp]
  0007e	73 08		 jae	 SHORT $LN60@reserve_fo
  00080	8d 45 ec	 lea	 eax, DWORD PTR $T6[ebp]
  00083	89 45 e8	 mov	 DWORD PTR tv73[ebp], eax
  00086	eb 06		 jmp	 SHORT $LN61@reserve_fo
$LN60@reserve_fo:
  00088	8d 45 08	 lea	 eax, DWORD PTR _size$[ebp]
  0008b	89 45 e8	 mov	 DWORD PTR tv73[ebp], eax
$LN61@reserve_fo:
  0008e	8b 45 e8	 mov	 eax, DWORD PTR tv73[ebp]
  00091	89 45 d8	 mov	 DWORD PTR $T2[ebp], eax
  00094	8b 45 d8	 mov	 eax, DWORD PTR $T2[ebp]
  00097	89 45 d4	 mov	 DWORD PTR $T1[ebp], eax
; File D:\Metin2 Server Files\mainline\SRC_2014\M2Data\include\boost\unordered\detail\implementation.hpp

; 4545 :           std::size_t num_buckets =

  0009a	8b 45 d4	 mov	 eax, DWORD PTR $T1[ebp]
  0009d	ff 30		 push	 DWORD PTR [eax]
  0009f	8b 4d fc	 mov	 ecx, DWORD PTR _this$[ebp]
  000a2	e8 00 00 00 00	 call	 ?min_buckets_for_size@?$table@U?$map@V?$allocator@U?$pair@$$CBV?$basic_string@DU?$char_traits@D@std@@V?$allocator@D@2@@std@@PAVCEterPack@@@std@@@std@@V?$basic_string@DU?$char_traits@D@std@@V?$allocator@D@2@@2@PAVCEterPack@@Ustringhash@@U?$equal_to@V?$basic_string@DU?$char_traits@D@std@@V?$allocator@D@2@@std@@@2@@detail@unordered@boost@@@detail@unordered@boost@@QBEII@Z ; boost::unordered::detail::table<boost::unordered::detail::map<std::allocator<std::pair<std::basic_string<char,std::char_traits<char>,std::allocator<char> > const ,CEterPack *> >,std::basic_string<char,std::char_traits<char>,std::allocator<char> >,CEterPack *,stringhash,std::equal_to<std::basic_string<char,std::char_traits<char>,std::allocator<char> > > > >::min_buckets_for_size
  000a7	89 45 e4	 mov	 DWORD PTR _num_buckets$5[ebp], eax

; 4546 :             min_buckets_for_size((std::max)(size, size_ + (size_ >> 1)));
; 4547 : 
; 4548 :           if (num_buckets != bucket_count_)

  000aa	8b 45 fc	 mov	 eax, DWORD PTR _this$[ebp]
  000ad	8b 4d e4	 mov	 ecx, DWORD PTR _num_buckets$5[ebp]
  000b0	3b 48 04	 cmp	 ecx, DWORD PTR [eax+4]
  000b3	74 0b		 je	 SHORT $LN1@reserve_fo

; 4549 :             this->rehash_impl(num_buckets);

  000b5	ff 75 e4	 push	 DWORD PTR _num_buckets$5[ebp]
  000b8	8b 4d fc	 mov	 ecx, DWORD PTR _this$[ebp]
  000bb	e8 00 00 00 00	 call	 ?rehash_impl@?$table@U?$map@V?$allocator@U?$pair@$$CBV?$basic_string@DU?$char_traits@D@std@@V?$allocator@D@2@@std@@PAVCEterPack@@@std@@@std@@V?$basic_string@DU?$char_traits@D@std@@V?$allocator@D@2@@2@PAVCEterPack@@Ustringhash@@U?$equal_to@V?$basic_string@DU?$char_traits@D@std@@V?$allocator@D@2@@std@@@2@@detail@unordered@boost@@@detail@unordered@boost@@QAEXI@Z ; boost::unordered::detail::table<boost::unordered::detail::map<std::allocator<std::pair<std::basic_string<char,std::char_traits<char>,std::allocator<char> > const ,CEterPack *> >,std::basic_string<char,std::char_traits<char>,std::allocator<char> >,CEterPack *,stringhash,std::equal_to<std::basic_string<char,std::char_traits<char>,std::allocator<char> > > > >::rehash_impl
$LN1@reserve_fo:

; 4550 :         }
; 4551 :       }

  000c0	c9		 leave
  000c1	c2 04 00	 ret	 4
?reserve_for_insert@?$table@U?$map@V?$allocator@U?$pair@$$CBV?$basic_string@DU?$char_traits@D@std@@V?$allocator@D@2@@std@@PAVCEterPack@@@std@@@std@@V?$basic_string@DU?$char_traits@D@std@@V?$allocator@D@2@@2@PAVCEterPack@@Ustringhash@@U?$equal_to@V?$basic_string@DU?$char_traits@D@std@@V?$allocator@D@2@@std@@@2@@detail@unordered@boost@@@detail@unordered@boost@@QAEXI@Z ENDP ; boost::unordered::detail::table<boost::unordered::detail::map<std::allocator<std::pair<std::basic_string<char,std::char_traits<char>,std::allocator<char> > const ,CEterPack *> >,std::basic_string<char,std::char_traits<char>,std::allocator<char> >,CEterPack *,stringhash,std::equal_to<std::basic_string<char,std::char_traits<char>,std::allocator<char> > > > >::reserve_for_insert
_TEXT	ENDS
; Function compile flags: /Odspy
; File D:\Metin2 Server Files\mainline\SRC_2014\M2Data\include\boost\unordered\detail\implementation.hpp
; File D:\Metin2 Server Files\mainline\SRC_2014\Metin2Client\eterBase\Stl.h
; File D:\Metin2 Server Files\mainline\SRC_2014\M2Data\include\boost\unordered\detail\implementation.hpp
;	COMDAT ?find_node@?$table@U?$map@V?$allocator@U?$pair@$$CBV?$basic_string@DU?$char_traits@D@std@@V?$allocator@D@2@@std@@PAVCEterPack@@@std@@@std@@V?$basic_string@DU?$char_traits@D@std@@V?$allocator@D@2@@2@PAVCEterPack@@Ustringhash@@U?$equal_to@V?$basic_string@DU?$char_traits@D@std@@V?$allocator@D@2@@std@@@2@@detail@unordered@boost@@@detail@unordered@boost@@QBEPAU?$ptr_node@U?$pair@$$CBV?$basic_string@DU?$char_traits@D@std@@V?$allocator@D@2@@std@@PAVCEterPack@@@std@@@234@ABV?$basic_string@DU?$char_traits@D@std@@V?$allocator@D@2@@std@@@Z
_TEXT	SEGMENT
$T1 = -12						; size = 4
$T2 = -8						; size = 4
_this$ = -4						; size = 4
_k$ = 8							; size = 4
?find_node@?$table@U?$map@V?$allocator@U?$pair@$$CBV?$basic_string@DU?$char_traits@D@std@@V?$allocator@D@2@@std@@PAVCEterPack@@@std@@@std@@V?$basic_string@DU?$char_traits@D@std@@V?$allocator@D@2@@2@PAVCEterPack@@Ustringhash@@U?$equal_to@V?$basic_string@DU?$char_traits@D@std@@V?$allocator@D@2@@std@@@2@@detail@unordered@boost@@@detail@unordered@boost@@QBEPAU?$ptr_node@U?$pair@$$CBV?$basic_string@DU?$char_traits@D@std@@V?$allocator@D@2@@std@@PAVCEterPack@@@std@@@234@ABV?$basic_string@DU?$char_traits@D@std@@V?$allocator@D@2@@std@@@Z PROC ; boost::unordered::detail::table<boost::unordered::detail::map<std::allocator<std::pair<std::basic_string<char,std::char_traits<char>,std::allocator<char> > const ,CEterPack *> >,std::basic_string<char,std::char_traits<char>,std::allocator<char> >,CEterPack *,stringhash,std::equal_to<std::basic_string<char,std::char_traits<char>,std::allocator<char> > > > >::find_node, COMDAT
; _this$ = ecx

; 3580 :         {

  00000	55		 push	 ebp
  00001	8b ec		 mov	 ebp, esp
  00003	83 ec 0c	 sub	 esp, 12			; 0000000cH
  00006	89 4d fc	 mov	 DWORD PTR _this$[ebp], ecx

; 2791 :           return *static_cast<function_pair const*>(

  00009	8b 45 fc	 mov	 eax, DWORD PTR _this$[ebp]
  0000c	0f b6 00	 movzx	 eax, BYTE PTR [eax]
  0000f	83 e0 01	 and	 eax, 1
  00012	8b 4d fc	 mov	 ecx, DWORD PTR _this$[ebp]
  00015	8d 44 01 01	 lea	 eax, DWORD PTR [ecx+eax+1]
  00019	89 45 f8	 mov	 DWORD PTR $T2[ebp], eax
; File D:\Metin2 Server Files\mainline\SRC_2014\Metin2Client\eterBase\Stl.h

; 492  : 		return GetHash(str);

  0001c	ff 75 08	 push	 DWORD PTR _k$[ebp]
  0001f	8b 4d f8	 mov	 ecx, DWORD PTR $T2[ebp]
  00022	e8 00 00 00 00	 call	 ?GetHash@stringhash@@QBEIABV?$basic_string@DU?$char_traits@D@std@@V?$allocator@D@2@@std@@@Z ; stringhash::GetHash
; File D:\Metin2 Server Files\mainline\SRC_2014\M2Data\include\boost\unordered\detail\implementation.hpp

; 3569 :           return policy::apply_hash(this->hash_function(), k);

  00027	89 45 f4	 mov	 DWORD PTR $T1[ebp], eax

; 3581 :           return this->find_node_impl(hash(k), k, this->key_eq());

  0002a	8b 4d fc	 mov	 ecx, DWORD PTR _this$[ebp]
  0002d	e8 00 00 00 00	 call	 ?key_eq@?$functions@Ustringhash@@U?$equal_to@V?$basic_string@DU?$char_traits@D@std@@V?$allocator@D@2@@std@@@std@@@detail@unordered@boost@@QBEABU?$equal_to@V?$basic_string@DU?$char_traits@D@std@@V?$allocator@D@2@@std@@@std@@XZ ; boost::unordered::detail::functions<stringhash,std::equal_to<std::basic_string<char,std::char_traits<char>,std::allocator<char> > > >::key_eq
  00032	50		 push	 eax
  00033	ff 75 08	 push	 DWORD PTR _k$[ebp]
  00036	ff 75 f4	 push	 DWORD PTR $T1[ebp]
  00039	8b 4d fc	 mov	 ecx, DWORD PTR _this$[ebp]
  0003c	e8 00 00 00 00	 call	 ??$find_node_impl@V?$basic_string@DU?$char_traits@D@std@@V?$allocator@D@2@@std@@U?$equal_to@V?$basic_string@DU?$char_traits@D@std@@V?$allocator@D@2@@std@@@2@@?$table@U?$map@V?$allocator@U?$pair@$$CBV?$basic_string@DU?$char_traits@D@std@@V?$allocator@D@2@@std@@PAVCEterPack@@@std@@@std@@V?$basic_string@DU?$char_traits@D@std@@V?$allocator@D@2@@2@PAVCEterPack@@Ustringhash@@U?$equal_to@V?$basic_string@DU?$char_traits@D@std@@V?$allocator@D@2@@std@@@2@@detail@unordered@boost@@@detail@unordered@boost@@QBEPAU?$ptr_node@U?$pair@$$CBV?$basic_string@DU?$char_traits@D@std@@V?$allocator@D@2@@std@@PAVCEterPack@@@std@@@123@IABV?$basic_string@DU?$char_traits@D@std@@V?$allocator@D@2@@std@@ABU?$equal_to@V?$basic_string@DU?$char_traits@D@std@@V?$allocator@D@2@@std@@@6@@Z ; boost::unordered::detail::table<boost::unordered::detail::map<std::allocator<std::pair<std::basic_string<char,std::char_traits<char>,std::allocator<char> > const ,CEterPack *> >,std::basic_string<char,std::char_traits<char>,std::allocator<char> >,CEterPack *,stringhash,std::equal_to<std::basic_string<char,std::char_traits<char>,std::allocator<char> > > > >::find_node_impl<std::basic_string<char,std::char_traits<char>,std::allocator<char> >,std::equal_to<std::basic_string<char,std::char_traits<char>,std::allocator<char> > > >

; 3582 :         }

  00041	c9		 leave
  00042	c2 04 00	 ret	 4
?find_node@?$table@U?$map@V?$allocator@U?$pair@$$CBV?$basic_string@DU?$char_traits@D@std@@V?$allocator@D@2@@std@@PAVCEterPack@@@std@@@std@@V?$basic_string@DU?$char_traits@D@std@@V?$allocator@D@2@@2@PAVCEterPack@@Ustringhash@@U?$equal_to@V?$basic_string@DU?$char_traits@D@std@@V?$allocator@D@2@@std@@@2@@detail@unordered@boost@@@detail@unordered@boost@@QBEPAU?$ptr_node@U?$pair@$$CBV?$basic_string@DU?$char_traits@D@std@@V?$allocator@D@2@@std@@PAVCEterPack@@@std@@@234@ABV?$basic_string@DU?$char_traits@D@std@@V?$allocator@D@2@@std@@@Z ENDP ; boost::unordered::detail::table<boost::unordered::detail::map<std::allocator<std::pair<std::basic_string<char,std::char_traits<char>,std::allocator<char> > const ,CEterPack *> >,std::basic_string<char,std::char_traits<char>,std::allocator<char> >,CEterPack *,stringhash,std::equal_to<std::basic_string<char,std::char_traits<char>,std::allocator<char> > > > >::find_node
_TEXT	ENDS
; Function compile flags: /Odspy
; File D:\Metin2 Server Files\mainline\SRC_2014\M2Data\include\boost\unordered\detail\implementation.hpp
; File D:\Metin2 Server Files\mainline\SRC_2014\M2Data\include\boost\core\pointer_traits.hpp
; File D:\Metin2 Server Files\mainline\SRC_2014\M2Data\include\boost\unordered\detail\implementation.hpp
; File C:\Program Files (x86)\Microsoft Visual Studio\2019\Community\VC\Tools\MSVC\14.28.29333\include\xmemory
; File D:\Metin2 Server Files\mainline\SRC_2014\M2Data\include\boost\unordered\detail\implementation.hpp
;	COMDAT ?destroy_buckets@?$table@U?$map@V?$allocator@U?$pair@$$CBV?$basic_string@DU?$char_traits@D@std@@V?$allocator@D@2@@std@@PAVCEterPack@@@std@@@std@@V?$basic_string@DU?$char_traits@D@std@@V?$allocator@D@2@@2@PAVCEterPack@@Ustringhash@@U?$equal_to@V?$basic_string@DU?$char_traits@D@std@@V?$allocator@D@2@@std@@@2@@detail@unordered@boost@@@detail@unordered@boost@@QAEXXZ
_TEXT	SEGMENT
$T1 = -24						; size = 4
__Ptr$ = -20						; size = 4
__Count$ = -16						; size = 4
_end$ = -12						; size = 4
_it$2 = -8						; size = 4
_this$ = -4						; size = 4
?destroy_buckets@?$table@U?$map@V?$allocator@U?$pair@$$CBV?$basic_string@DU?$char_traits@D@std@@V?$allocator@D@2@@std@@PAVCEterPack@@@std@@@std@@V?$basic_string@DU?$char_traits@D@std@@V?$allocator@D@2@@2@PAVCEterPack@@Ustringhash@@U?$equal_to@V?$basic_string@DU?$char_traits@D@std@@V?$allocator@D@2@@std@@@2@@detail@unordered@boost@@@detail@unordered@boost@@QAEXXZ PROC ; boost::unordered::detail::table<boost::unordered::detail::map<std::allocator<std::pair<std::basic_string<char,std::char_traits<char>,std::allocator<char> > const ,CEterPack *> >,std::basic_string<char,std::char_traits<char>,std::allocator<char> >,CEterPack *,stringhash,std::equal_to<std::basic_string<char,std::char_traits<char>,std::allocator<char> > > > >::destroy_buckets, COMDAT
; _this$ = ecx

; 3370 :         {

  00000	55		 push	 ebp
  00001	8b ec		 mov	 ebp, esp
  00003	83 ec 18	 sub	 esp, 24			; 00000018H
  00006	89 4d fc	 mov	 DWORD PTR _this$[ebp], ecx

; 3026 :           return buckets_ + static_cast<std::ptrdiff_t>(bucket_index);

  00009	8b 45 fc	 mov	 eax, DWORD PTR _this$[ebp]
  0000c	8b 40 04	 mov	 eax, DWORD PTR [eax+4]
  0000f	8b 4d fc	 mov	 ecx, DWORD PTR _this$[ebp]
  00012	8b 49 14	 mov	 ecx, DWORD PTR [ecx+20]
  00015	8d 44 81 04	 lea	 eax, DWORD PTR [ecx+eax*4+4]

; 3371 :           bucket_pointer end = get_bucket_pointer(bucket_count_ + 1);

  00019	89 45 f4	 mov	 DWORD PTR _end$[ebp], eax

; 3372 :           for (bucket_pointer it = buckets_; it != end; ++it) {

  0001c	8b 45 fc	 mov	 eax, DWORD PTR _this$[ebp]
  0001f	8b 40 14	 mov	 eax, DWORD PTR [eax+20]
  00022	89 45 f8	 mov	 DWORD PTR _it$2[ebp], eax
  00025	eb 09		 jmp	 SHORT $LN4@destroy_bu
$LN2@destroy_bu:
  00027	8b 45 f8	 mov	 eax, DWORD PTR _it$2[ebp]
  0002a	83 c0 04	 add	 eax, 4
  0002d	89 45 f8	 mov	 DWORD PTR _it$2[ebp], eax
$LN4@destroy_bu:
  00030	8b 45 f8	 mov	 eax, DWORD PTR _it$2[ebp]
  00033	3b 45 f4	 cmp	 eax, DWORD PTR _end$[ebp]
  00036	74 08		 je	 SHORT $LN13@destroy_bu
; File D:\Metin2 Server Files\mainline\SRC_2014\M2Data\include\boost\core\pointer_traits.hpp

; 186  :     return v;

  00038	8b 45 f8	 mov	 eax, DWORD PTR _it$2[ebp]
  0003b	89 45 e8	 mov	 DWORD PTR $T1[ebp], eax
; File D:\Metin2 Server Files\mainline\SRC_2014\M2Data\include\boost\unordered\detail\implementation.hpp

; 3374 :           }

  0003e	eb e7		 jmp	 SHORT $LN2@destroy_bu
$LN13@destroy_bu:

; 3375 : 
; 3376 :           bucket_allocator_traits::deallocate(

  00040	8b 45 fc	 mov	 eax, DWORD PTR _this$[ebp]
  00043	8b 40 04	 mov	 eax, DWORD PTR [eax+4]
  00046	40		 inc	 eax
  00047	89 45 f0	 mov	 DWORD PTR __Count$[ebp], eax
  0004a	8b 45 fc	 mov	 eax, DWORD PTR _this$[ebp]
  0004d	8b 40 14	 mov	 eax, DWORD PTR [eax+20]
  00050	89 45 ec	 mov	 DWORD PTR __Ptr$[ebp], eax
; File C:\Program Files (x86)\Microsoft Visual Studio\2019\Community\VC\Tools\MSVC\14.28.29333\include\xmemory

; 696  :         _Deallocate<_New_alignof<value_type>>(_Ptr, sizeof(value_type) * _Count);

  00053	8b 45 f0	 mov	 eax, DWORD PTR __Count$[ebp]
  00056	c1 e0 02	 shl	 eax, 2
  00059	50		 push	 eax
  0005a	ff 75 ec	 push	 DWORD PTR __Ptr$[ebp]
  0005d	e8 00 00 00 00	 call	 ??$_Deallocate@$07$0A@@std@@YAXPAXI@Z ; std::_Deallocate<8,0>
  00062	59		 pop	 ecx
  00063	59		 pop	 ecx
; File D:\Metin2 Server Files\mainline\SRC_2014\M2Data\include\boost\unordered\detail\implementation.hpp

; 3378 :         }

  00064	c9		 leave
  00065	c3		 ret	 0
?destroy_buckets@?$table@U?$map@V?$allocator@U?$pair@$$CBV?$basic_string@DU?$char_traits@D@std@@V?$allocator@D@2@@std@@PAVCEterPack@@@std@@@std@@V?$basic_string@DU?$char_traits@D@std@@V?$allocator@D@2@@2@PAVCEterPack@@Ustringhash@@U?$equal_to@V?$basic_string@DU?$char_traits@D@std@@V?$allocator@D@2@@std@@@2@@detail@unordered@boost@@@detail@unordered@boost@@QAEXXZ ENDP ; boost::unordered::detail::table<boost::unordered::detail::map<std::allocator<std::pair<std::basic_string<char,std::char_traits<char>,std::allocator<char> > const ,CEterPack *> >,std::basic_string<char,std::char_traits<char>,std::allocator<char> >,CEterPack *,stringhash,std::equal_to<std::basic_string<char,std::char_traits<char>,std::allocator<char> > > > >::destroy_buckets
_TEXT	ENDS
; Function compile flags: /Odspy
; File D:\Metin2 Server Files\mainline\SRC_2014\M2Data\include\boost\unordered\detail\implementation.hpp
; File D:\Metin2 Server Files\mainline\SRC_2014\M2Data\include\boost\core\pointer_traits.hpp
; File D:\Metin2 Server Files\mainline\SRC_2014\M2Data\include\boost\unordered\detail\implementation.hpp
; File C:\Program Files (x86)\Microsoft Visual Studio\2019\Community\VC\Tools\MSVC\14.28.29333\include\xmemory
; File D:\Metin2 Server Files\mainline\SRC_2014\M2Data\include\boost\unordered\detail\implementation.hpp
;	COMDAT ?delete_buckets@?$table@U?$map@V?$allocator@U?$pair@$$CBV?$basic_string@DU?$char_traits@D@std@@V?$allocator@D@2@@std@@PAVCEterPack@@@std@@@std@@V?$basic_string@DU?$char_traits@D@std@@V?$allocator@D@2@@2@PAVCEterPack@@Ustringhash@@U?$equal_to@V?$basic_string@DU?$char_traits@D@std@@V?$allocator@D@2@@std@@@2@@detail@unordered@boost@@@detail@unordered@boost@@QAEXXZ
_TEXT	SEGMENT
$T1 = -28						; size = 4
_next$2 = -24						; size = 4
_next$3 = -20						; size = 4
$T4 = -16						; size = 4
_this$ = -12						; size = 4
_n$5 = -8						; size = 4
_this$ = -4						; size = 4
?delete_buckets@?$table@U?$map@V?$allocator@U?$pair@$$CBV?$basic_string@DU?$char_traits@D@std@@V?$allocator@D@2@@std@@PAVCEterPack@@@std@@@std@@V?$basic_string@DU?$char_traits@D@std@@V?$allocator@D@2@@2@PAVCEterPack@@Ustringhash@@U?$equal_to@V?$basic_string@DU?$char_traits@D@std@@V?$allocator@D@2@@std@@@2@@detail@unordered@boost@@@detail@unordered@boost@@QAEXXZ PROC ; boost::unordered::detail::table<boost::unordered::detail::map<std::allocator<std::pair<std::basic_string<char,std::char_traits<char>,std::allocator<char> > const ,CEterPack *> >,std::basic_string<char,std::char_traits<char>,std::allocator<char> >,CEterPack *,stringhash,std::equal_to<std::basic_string<char,std::char_traits<char>,std::allocator<char> > > > >::delete_buckets, COMDAT
; _this$ = ecx

; 3344 :         {

  00000	55		 push	 ebp
  00001	8b ec		 mov	 ebp, esp
  00003	83 ec 1c	 sub	 esp, 28			; 0000001cH
  00006	89 4d fc	 mov	 DWORD PTR _this$[ebp], ecx

; 3345 :           if (buckets_) {

  00009	8b 45 fc	 mov	 eax, DWORD PTR _this$[ebp]
  0000c	83 78 14 00	 cmp	 DWORD PTR [eax+20], 0
  00010	0f 84 91 00 00
	00		 je	 $LN1@delete_buc

; 3346 :             node_pointer n = static_cast<node_pointer>(

  00016	8b 45 fc	 mov	 eax, DWORD PTR _this$[ebp]
  00019	8b 40 04	 mov	 eax, DWORD PTR [eax+4]
  0001c	8b 4d fc	 mov	 ecx, DWORD PTR _this$[ebp]
  0001f	8b 49 14	 mov	 ecx, DWORD PTR [ecx+20]
  00022	8b 04 81	 mov	 eax, DWORD PTR [ecx+eax*4]
  00025	89 45 f8	 mov	 DWORD PTR _n$5[ebp], eax

; 3347 :               get_bucket_pointer(bucket_count_)->next_);
; 3348 : 
; 3349 :             if (bucket::extra_node) {

  00028	33 c0		 xor	 eax, eax
  0002a	74 3d		 je	 SHORT $LN2@delete_buc

; 2964 :           return static_cast<node_pointer>(n->next_);

  0002c	8b 45 f8	 mov	 eax, DWORD PTR _n$5[ebp]
  0002f	8b 00		 mov	 eax, DWORD PTR [eax]
  00031	89 45 ec	 mov	 DWORD PTR _next$3[ebp], eax
; File D:\Metin2 Server Files\mainline\SRC_2014\M2Data\include\boost\core\pointer_traits.hpp

; 186  :     return v;

  00034	8b 45 f8	 mov	 eax, DWORD PTR _n$5[ebp]
  00037	89 45 e4	 mov	 DWORD PTR $T1[ebp], eax
; File D:\Metin2 Server Files\mainline\SRC_2014\M2Data\include\boost\unordered\detail\implementation.hpp

; 3014 :         node_allocator& node_alloc() { return allocators_.second(); }

  0003a	8b 45 fc	 mov	 eax, DWORD PTR _this$[ebp]
  0003d	83 c0 03	 add	 eax, 3
  00040	89 45 f4	 mov	 DWORD PTR _this$[ebp], eax

; 430  :         second_type& second() { return static_cast<base2*>(this)->get(); }

  00043	74 09		 je	 SHORT $LN20@delete_buc
  00045	8b 45 f4	 mov	 eax, DWORD PTR _this$[ebp]
  00048	40		 inc	 eax
  00049	89 45 f0	 mov	 DWORD PTR $T4[ebp], eax
  0004c	eb 04		 jmp	 SHORT $LN16@delete_buc
$LN20@delete_buc:
  0004e	83 65 f0 00	 and	 DWORD PTR $T4[ebp], 0
$LN16@delete_buc:
; File C:\Program Files (x86)\Microsoft Visual Studio\2019\Community\VC\Tools\MSVC\14.28.29333\include\xmemory

; 696  :         _Deallocate<_New_alignof<value_type>>(_Ptr, sizeof(value_type) * _Count);

  00052	33 c0		 xor	 eax, eax
  00054	40		 inc	 eax
  00055	6b c0 24	 imul	 eax, eax, 36
  00058	50		 push	 eax
  00059	ff 75 f8	 push	 DWORD PTR _n$5[ebp]
  0005c	e8 00 00 00 00	 call	 ??$_Deallocate@$07$0A@@std@@YAXPAXI@Z ; std::_Deallocate<8,0>
  00061	59		 pop	 ecx
  00062	59		 pop	 ecx
; File D:\Metin2 Server Files\mainline\SRC_2014\M2Data\include\boost\unordered\detail\implementation.hpp

; 3353 :               n = next;

  00063	8b 45 ec	 mov	 eax, DWORD PTR _next$3[ebp]
  00066	89 45 f8	 mov	 DWORD PTR _n$5[ebp], eax
$LN2@delete_buc:

; 3354 :             }
; 3355 : 
; 3356 :             while (n) {

  00069	83 7d f8 00	 cmp	 DWORD PTR _n$5[ebp], 0
  0006d	74 1b		 je	 SHORT $LN3@delete_buc

; 2964 :           return static_cast<node_pointer>(n->next_);

  0006f	8b 45 f8	 mov	 eax, DWORD PTR _n$5[ebp]
  00072	8b 00		 mov	 eax, DWORD PTR [eax]
  00074	89 45 e8	 mov	 DWORD PTR _next$2[ebp], eax

; 3357 :               node_pointer next = next_node(n);
; 3358 :               destroy_node(n);

  00077	ff 75 f8	 push	 DWORD PTR _n$5[ebp]
  0007a	8b 4d fc	 mov	 ecx, DWORD PTR _this$[ebp]
  0007d	e8 00 00 00 00	 call	 ?destroy_node@?$table@U?$map@V?$allocator@U?$pair@$$CBV?$basic_string@DU?$char_traits@D@std@@V?$allocator@D@2@@std@@PAVCEterPack@@@std@@@std@@V?$basic_string@DU?$char_traits@D@std@@V?$allocator@D@2@@2@PAVCEterPack@@Ustringhash@@U?$equal_to@V?$basic_string@DU?$char_traits@D@std@@V?$allocator@D@2@@std@@@2@@detail@unordered@boost@@@detail@unordered@boost@@QAEXPAU?$ptr_node@U?$pair@$$CBV?$basic_string@DU?$char_traits@D@std@@V?$allocator@D@2@@std@@PAVCEterPack@@@std@@@234@@Z ; boost::unordered::detail::table<boost::unordered::detail::map<std::allocator<std::pair<std::basic_string<char,std::char_traits<char>,std::allocator<char> > const ,CEterPack *> >,std::basic_string<char,std::char_traits<char>,std::allocator<char> >,CEterPack *,stringhash,std::equal_to<std::basic_string<char,std::char_traits<char>,std::allocator<char> > > > >::destroy_node

; 3359 :               n = next;

  00082	8b 45 e8	 mov	 eax, DWORD PTR _next$2[ebp]
  00085	89 45 f8	 mov	 DWORD PTR _n$5[ebp], eax

; 3360 :             }

  00088	eb df		 jmp	 SHORT $LN2@delete_buc
$LN3@delete_buc:

; 3361 : 
; 3362 :             destroy_buckets();

  0008a	8b 4d fc	 mov	 ecx, DWORD PTR _this$[ebp]
  0008d	e8 00 00 00 00	 call	 ?destroy_buckets@?$table@U?$map@V?$allocator@U?$pair@$$CBV?$basic_string@DU?$char_traits@D@std@@V?$allocator@D@2@@std@@PAVCEterPack@@@std@@@std@@V?$basic_string@DU?$char_traits@D@std@@V?$allocator@D@2@@2@PAVCEterPack@@Ustringhash@@U?$equal_to@V?$basic_string@DU?$char_traits@D@std@@V?$allocator@D@2@@std@@@2@@detail@unordered@boost@@@detail@unordered@boost@@QAEXXZ ; boost::unordered::detail::table<boost::unordered::detail::map<std::allocator<std::pair<std::basic_string<char,std::char_traits<char>,std::allocator<char> > const ,CEterPack *> >,std::basic_string<char,std::char_traits<char>,std::allocator<char> >,CEterPack *,stringhash,std::equal_to<std::basic_string<char,std::char_traits<char>,std::allocator<char> > > > >::destroy_buckets

; 3363 :             buckets_ = bucket_pointer();

  00092	8b 45 fc	 mov	 eax, DWORD PTR _this$[ebp]
  00095	83 60 14 00	 and	 DWORD PTR [eax+20], 0

; 3364 :             max_load_ = 0;

  00099	8b 45 fc	 mov	 eax, DWORD PTR _this$[ebp]
  0009c	83 60 10 00	 and	 DWORD PTR [eax+16], 0

; 3365 :             size_ = 0;

  000a0	8b 45 fc	 mov	 eax, DWORD PTR _this$[ebp]
  000a3	83 60 08 00	 and	 DWORD PTR [eax+8], 0
$LN1@delete_buc:

; 3366 :           }
; 3367 :         }

  000a7	c9		 leave
  000a8	c3		 ret	 0
?delete_buckets@?$table@U?$map@V?$allocator@U?$pair@$$CBV?$basic_string@DU?$char_traits@D@std@@V?$allocator@D@2@@std@@PAVCEterPack@@@std@@@std@@V?$basic_string@DU?$char_traits@D@std@@V?$allocator@D@2@@2@PAVCEterPack@@Ustringhash@@U?$equal_to@V?$basic_string@DU?$char_traits@D@std@@V?$allocator@D@2@@std@@@2@@detail@unordered@boost@@@detail@unordered@boost@@QAEXXZ ENDP ; boost::unordered::detail::table<boost::unordered::detail::map<std::allocator<std::pair<std::basic_string<char,std::char_traits<char>,std::allocator<char> > const ,CEterPack *> >,std::basic_string<char,std::char_traits<char>,std::allocator<char> >,CEterPack *,stringhash,std::equal_to<std::basic_string<char,std::char_traits<char>,std::allocator<char> > > > >::delete_buckets
_TEXT	ENDS
; Function compile flags: /Odspy
; File D:\Metin2 Server Files\mainline\SRC_2014\M2Data\include\boost\unordered\detail\implementation.hpp
; File C:\Program Files (x86)\Microsoft Visual Studio\2019\Community\VC\Tools\MSVC\14.28.29333\include\xstring
; File D:\Metin2 Server Files\mainline\SRC_2014\M2Data\include\boost\core\pointer_traits.hpp
; File D:\Metin2 Server Files\mainline\SRC_2014\M2Data\include\boost\unordered\detail\implementation.hpp
; File C:\Program Files (x86)\Microsoft Visual Studio\2019\Community\VC\Tools\MSVC\14.28.29333\include\xmemory
; File D:\Metin2 Server Files\mainline\SRC_2014\M2Data\include\boost\unordered\detail\implementation.hpp
;	COMDAT ?destroy_node@?$table@U?$map@V?$allocator@U?$pair@$$CBV?$basic_string@DU?$char_traits@D@std@@V?$allocator@D@2@@std@@PAVCEterPack@@@std@@@std@@V?$basic_string@DU?$char_traits@D@std@@V?$allocator@D@2@@2@PAVCEterPack@@Ustringhash@@U?$equal_to@V?$basic_string@DU?$char_traits@D@std@@V?$allocator@D@2@@std@@@2@@detail@unordered@boost@@@detail@unordered@boost@@QAEXPAU?$ptr_node@U?$pair@$$CBV?$basic_string@DU?$char_traits@D@std@@V?$allocator@D@2@@std@@PAVCEterPack@@@std@@@234@@Z
_TEXT	SEGMENT
$T1 = -28						; size = 4
$T2 = -24						; size = 4
$T3 = -20						; size = 4
_this$ = -16						; size = 4
_this$ = -12						; size = 4
__Ptr$ = -8						; size = 4
_this$ = -4						; size = 4
_n$ = 8							; size = 4
?destroy_node@?$table@U?$map@V?$allocator@U?$pair@$$CBV?$basic_string@DU?$char_traits@D@std@@V?$allocator@D@2@@std@@PAVCEterPack@@@std@@@std@@V?$basic_string@DU?$char_traits@D@std@@V?$allocator@D@2@@2@PAVCEterPack@@Ustringhash@@U?$equal_to@V?$basic_string@DU?$char_traits@D@std@@V?$allocator@D@2@@std@@@2@@detail@unordered@boost@@@detail@unordered@boost@@QAEXPAU?$ptr_node@U?$pair@$$CBV?$basic_string@DU?$char_traits@D@std@@V?$allocator@D@2@@std@@PAVCEterPack@@@std@@@234@@Z PROC ; boost::unordered::detail::table<boost::unordered::detail::map<std::allocator<std::pair<std::basic_string<char,std::char_traits<char>,std::allocator<char> > const ,CEterPack *> >,std::basic_string<char,std::char_traits<char>,std::allocator<char> >,CEterPack *,stringhash,std::equal_to<std::basic_string<char,std::char_traits<char>,std::allocator<char> > > > >::destroy_node, COMDAT
; _this$ = ecx

; 3336 :         {

  00000	55		 push	 ebp
  00001	8b ec		 mov	 ebp, esp
  00003	83 ec 1c	 sub	 esp, 28			; 0000001cH
  00006	89 4d f4	 mov	 DWORD PTR _this$[ebp], ecx

; 3014 :         node_allocator& node_alloc() { return allocators_.second(); }

  00009	8b 45 f4	 mov	 eax, DWORD PTR _this$[ebp]
  0000c	83 c0 03	 add	 eax, 3
  0000f	89 45 fc	 mov	 DWORD PTR _this$[ebp], eax

; 430  :         second_type& second() { return static_cast<base2*>(this)->get(); }

  00012	74 09		 je	 SHORT $LN11@destroy_no
  00014	8b 45 fc	 mov	 eax, DWORD PTR _this$[ebp]
  00017	40		 inc	 eax
  00018	89 45 ec	 mov	 DWORD PTR $T3[ebp], eax
  0001b	eb 04		 jmp	 SHORT $LN7@destroy_no
$LN11@destroy_no:
  0001d	83 65 ec 00	 and	 DWORD PTR $T3[ebp], 0
$LN7@destroy_no:

; 4869 :         value_type* value_ptr() { return value_base_.value_ptr(); }

  00021	8b 45 08	 mov	 eax, DWORD PTR _n$[ebp]
  00024	83 c0 08	 add	 eax, 8

; 3337 :           BOOST_UNORDERED_CALL_DESTROY(

  00027	89 45 f8	 mov	 DWORD PTR __Ptr$[ebp], eax
; File C:\Program Files (x86)\Microsoft Visual Studio\2019\Community\VC\Tools\MSVC\14.28.29333\include\xstring

; 2801 :         _Tidy_deallocate();

  0002a	8b 4d f8	 mov	 ecx, DWORD PTR __Ptr$[ebp]
  0002d	e8 00 00 00 00	 call	 ?_Tidy_deallocate@?$basic_string@DU?$char_traits@D@std@@V?$allocator@D@2@@std@@AAEXXZ ; std::basic_string<char,std::char_traits<char>,std::allocator<char> >::_Tidy_deallocate
  00032	33 c0		 xor	 eax, eax
  00034	83 e0 01	 and	 eax, 1
  00037	74 0c		 je	 SHORT $LN15@destroy_no
  00039	6a 1c		 push	 28			; 0000001cH
  0003b	ff 75 f8	 push	 DWORD PTR __Ptr$[ebp]
  0003e	e8 00 00 00 00	 call	 ??3@YAXPAXI@Z		; operator delete
  00043	59		 pop	 ecx
  00044	59		 pop	 ecx
$LN15@destroy_no:
; File D:\Metin2 Server Files\mainline\SRC_2014\M2Data\include\boost\core\pointer_traits.hpp

; 186  :     return v;

  00045	8b 45 08	 mov	 eax, DWORD PTR _n$[ebp]
  00048	89 45 e4	 mov	 DWORD PTR $T1[ebp], eax
; File D:\Metin2 Server Files\mainline\SRC_2014\M2Data\include\boost\unordered\detail\implementation.hpp

; 3014 :         node_allocator& node_alloc() { return allocators_.second(); }

  0004b	8b 45 f4	 mov	 eax, DWORD PTR _this$[ebp]
  0004e	83 c0 03	 add	 eax, 3
  00051	89 45 f0	 mov	 DWORD PTR _this$[ebp], eax

; 430  :         second_type& second() { return static_cast<base2*>(this)->get(); }

  00054	74 09		 je	 SHORT $LN45@destroy_no
  00056	8b 45 f0	 mov	 eax, DWORD PTR _this$[ebp]
  00059	40		 inc	 eax
  0005a	89 45 e8	 mov	 DWORD PTR $T2[ebp], eax
  0005d	eb 04		 jmp	 SHORT $LN41@destroy_no
$LN45@destroy_no:
  0005f	83 65 e8 00	 and	 DWORD PTR $T2[ebp], 0
$LN41@destroy_no:
; File C:\Program Files (x86)\Microsoft Visual Studio\2019\Community\VC\Tools\MSVC\14.28.29333\include\xmemory

; 696  :         _Deallocate<_New_alignof<value_type>>(_Ptr, sizeof(value_type) * _Count);

  00063	33 c0		 xor	 eax, eax
  00065	40		 inc	 eax
  00066	6b c0 24	 imul	 eax, eax, 36
  00069	50		 push	 eax
  0006a	ff 75 08	 push	 DWORD PTR _n$[ebp]
  0006d	e8 00 00 00 00	 call	 ??$_Deallocate@$07$0A@@std@@YAXPAXI@Z ; std::_Deallocate<8,0>
  00072	59		 pop	 ecx
  00073	59		 pop	 ecx
; File D:\Metin2 Server Files\mainline\SRC_2014\M2Data\include\boost\unordered\detail\implementation.hpp

; 3341 :         }

  00074	c9		 leave
  00075	c2 04 00	 ret	 4
?destroy_node@?$table@U?$map@V?$allocator@U?$pair@$$CBV?$basic_string@DU?$char_traits@D@std@@V?$allocator@D@2@@std@@PAVCEterPack@@@std@@@std@@V?$basic_string@DU?$char_traits@D@std@@V?$allocator@D@2@@2@PAVCEterPack@@Ustringhash@@U?$equal_to@V?$basic_string@DU?$char_traits@D@std@@V?$allocator@D@2@@std@@@2@@detail@unordered@boost@@@detail@unordered@boost@@QAEXPAU?$ptr_node@U?$pair@$$CBV?$basic_string@DU?$char_traits@D@std@@V?$allocator@D@2@@std@@PAVCEterPack@@@std@@@234@@Z ENDP ; boost::unordered::detail::table<boost::unordered::detail::map<std::allocator<std::pair<std::basic_string<char,std::char_traits<char>,std::allocator<char> > const ,CEterPack *> >,std::basic_string<char,std::char_traits<char>,std::allocator<char> >,CEterPack *,stringhash,std::equal_to<std::basic_string<char,std::char_traits<char>,std::allocator<char> > > > >::destroy_node
_TEXT	ENDS
; Function compile flags: /Odspy
; File D:\Metin2 Server Files\mainline\SRC_2014\M2Data\include\boost\unordered\detail\implementation.hpp
; File C:\Program Files (x86)\Microsoft Visual Studio\2019\Community\VC\Tools\MSVC\14.28.29333\include\xmemory
; File D:\Metin2 Server Files\mainline\SRC_2014\M2Data\include\boost\unordered\detail\implementation.hpp
; File C:\Program Files (x86)\Microsoft Visual Studio\2019\Community\VC\Tools\MSVC\14.28.29333\include\xmemory
; File D:\Metin2 Server Files\mainline\SRC_2014\M2Data\include\boost\unordered\detail\implementation.hpp
; File C:\Program Files (x86)\Microsoft Visual Studio\2019\Community\VC\Tools\MSVC\14.28.29333\include\xmemory
; File D:\Metin2 Server Files\mainline\SRC_2014\M2Data\include\boost\unordered\detail\implementation.hpp
; File D:\Metin2 Server Files\mainline\SRC_2014\M2Data\include\boost\core\pointer_traits.hpp
; File C:\Program Files (x86)\Microsoft Visual Studio\2019\Community\VC\Tools\MSVC\14.28.29333\include\vcruntime_new.h
; File D:\Metin2 Server Files\mainline\SRC_2014\M2Data\include\boost\unordered\detail\implementation.hpp
; File D:\Metin2 Server Files\mainline\SRC_2014\M2Data\include\boost\core\pointer_traits.hpp
; File C:\Program Files (x86)\Microsoft Visual Studio\2019\Community\VC\Tools\MSVC\14.28.29333\include\vcruntime_new.h
; File D:\Metin2 Server Files\mainline\SRC_2014\M2Data\include\boost\unordered\detail\implementation.hpp
;	COMDAT ?create_buckets@?$table@U?$map@V?$allocator@U?$pair@$$CBV?$basic_string@DU?$char_traits@D@std@@V?$allocator@D@2@@std@@PAVCEterPack@@@std@@@std@@V?$basic_string@DU?$char_traits@D@std@@V?$allocator@D@2@@2@PAVCEterPack@@Ustringhash@@U?$equal_to@V?$basic_string@DU?$char_traits@D@std@@V?$allocator@D@2@@std@@@2@@detail@unordered@boost@@@detail@unordered@boost@@QAEXI@Z
_TEXT	SEGMENT
_a$2 = -116						; size = 8
__Max_possible$3 = -108					; size = 4
__Max_possible$4 = -104					; size = 4
__Max_possible$5 = -100					; size = 4
$T6 = -96						; size = 4
$T7 = -92						; size = 4
$T8 = -88						; size = 4
$T9 = -84						; size = 4
$T10 = -80						; size = 4
$T11 = -76						; size = 4
_p$12 = -72						; size = 4
$T13 = -68						; size = 4
$T14 = -64						; size = 4
_new_buckets$15 = -60					; size = 4
$T16 = -56						; size = 4
_end$ = -52						; size = 4
__Count$ = -48						; size = 4
__Count$ = -44						; size = 4
$T17 = -40						; size = 4
_this$ = -36						; size = 4
__Count$ = -32						; size = 4
_dummy_node$ = -28					; size = 4
_i$18 = -24						; size = 4
_this$ = -20						; size = 4
__Overflow_is_possible$19 = -15				; size = 1
__Overflow_is_possible$20 = -14				; size = 1
__Overflow_is_possible$21 = -13				; size = 1
__$EHRec$ = -12						; size = 12
_new_count$ = 8						; size = 4
?create_buckets@?$table@U?$map@V?$allocator@U?$pair@$$CBV?$basic_string@DU?$char_traits@D@std@@V?$allocator@D@2@@std@@PAVCEterPack@@@std@@@std@@V?$basic_string@DU?$char_traits@D@std@@V?$allocator@D@2@@2@PAVCEterPack@@Ustringhash@@U?$equal_to@V?$basic_string@DU?$char_traits@D@std@@V?$allocator@D@2@@std@@@2@@detail@unordered@boost@@@detail@unordered@boost@@QAEXI@Z PROC ; boost::unordered::detail::table<boost::unordered::detail::map<std::allocator<std::pair<std::basic_string<char,std::char_traits<char>,std::allocator<char> > const ,CEterPack *> >,std::basic_string<char,std::char_traits<char>,std::allocator<char> >,CEterPack *,stringhash,std::equal_to<std::basic_string<char,std::char_traits<char>,std::allocator<char> > > > >::create_buckets, COMDAT
; _this$ = ecx

; 3178 :         {

  00000	55		 push	 ebp
  00001	8b ec		 mov	 ebp, esp
  00003	6a ff		 push	 -1
  00005	68 00 00 00 00	 push	 __ehhandler$?create_buckets@?$table@U?$map@V?$allocator@U?$pair@$$CBV?$basic_string@DU?$char_traits@D@std@@V?$allocator@D@2@@std@@PAVCEterPack@@@std@@@std@@V?$basic_string@DU?$char_traits@D@std@@V?$allocator@D@2@@2@PAVCEterPack@@Ustringhash@@U?$equal_to@V?$basic_string@DU?$char_traits@D@std@@V?$allocator@D@2@@std@@@2@@detail@unordered@boost@@@detail@unordered@boost@@QAEXI@Z
  0000a	64 a1 00 00 00
	00		 mov	 eax, DWORD PTR fs:0
  00010	50		 push	 eax
  00011	83 ec 68	 sub	 esp, 104		; 00000068H
  00014	a1 00 00 00 00	 mov	 eax, DWORD PTR ___security_cookie
  00019	33 c5		 xor	 eax, ebp
  0001b	50		 push	 eax
  0001c	8d 45 f4	 lea	 eax, DWORD PTR __$EHRec$[ebp]
  0001f	64 a3 00 00 00
	00		 mov	 DWORD PTR fs:0, eax
  00025	89 4d ec	 mov	 DWORD PTR _this$[ebp], ecx

; 3179 :           link_pointer dummy_node;
; 3180 : 
; 3181 :           // Construct the new buckets and dummy node, and destroy the old
; 3182 :           // buckets
; 3183 :           if (buckets_) {

  00028	8b 45 ec	 mov	 eax, DWORD PTR _this$[ebp]
  0002b	83 78 14 00	 cmp	 DWORD PTR [eax+20], 0
  0002f	74 5d		 je	 SHORT $LN5@create_buc

; 3184 :             dummy_node =

  00031	8b 45 ec	 mov	 eax, DWORD PTR _this$[ebp]
  00034	8b 40 04	 mov	 eax, DWORD PTR [eax+4]
  00037	8b 4d ec	 mov	 ecx, DWORD PTR _this$[ebp]
  0003a	8b 49 14	 mov	 ecx, DWORD PTR [ecx+20]
  0003d	8b 04 81	 mov	 eax, DWORD PTR [ecx+eax*4]
  00040	89 45 e4	 mov	 DWORD PTR _dummy_node$[ebp], eax

; 3185 :               (buckets_ + static_cast<std::ptrdiff_t>(bucket_count_))->next_;
; 3186 :             bucket_pointer new_buckets =

  00043	8b 45 08	 mov	 eax, DWORD PTR _new_count$[ebp]
  00046	40		 inc	 eax
  00047	89 45 e0	 mov	 DWORD PTR __Count$[ebp], eax
; File C:\Program Files (x86)\Microsoft Visual Studio\2019\Community\VC\Tools\MSVC\14.28.29333\include\xmemory

; 56   :     constexpr bool _Overflow_is_possible = _Ty_size > 1;

  0004a	c6 45 f3 01	 mov	 BYTE PTR __Overflow_is_possible$21[ebp], 1

; 57   : 
; 58   :     if _CONSTEXPR_IF (_Overflow_is_possible) {
; 59   :         constexpr size_t _Max_possible = static_cast<size_t>(-1) / _Ty_size;

  0004e	c7 45 9c ff ff
	ff 3f		 mov	 DWORD PTR __Max_possible$5[ebp], 1073741823 ; 3fffffffH

; 60   :         if (_Count > _Max_possible) {

  00055	81 7d e0 ff ff
	ff 3f		 cmp	 DWORD PTR __Count$[ebp], 1073741823 ; 3fffffffH
  0005c	76 05		 jbe	 SHORT $LN20@create_buc

; 61   :             _Throw_bad_array_new_length(); // multiply overflow

  0005e	e8 00 00 00 00	 call	 ?_Throw_bad_array_new_length@std@@YAXXZ ; std::_Throw_bad_array_new_length
$LN20@create_buc:

; 62   :         }
; 63   :     }
; 64   : 
; 65   :     return _Count * _Ty_size;

  00063	8b 45 e0	 mov	 eax, DWORD PTR __Count$[ebp]
  00066	c1 e0 02	 shl	 eax, 2
  00069	89 45 c8	 mov	 DWORD PTR $T16[ebp], eax

; 686  :         return static_cast<pointer>(_Allocate<_New_alignof<value_type>>(_Get_size_of_n<sizeof(value_type)>(_Count)));

  0006c	ff 75 c8	 push	 DWORD PTR $T16[ebp]
  0006f	e8 00 00 00 00	 call	 ??$_Allocate@$07U_Default_allocate_traits@std@@$0A@@std@@YAPAXI@Z ; std::_Allocate<8,std::_Default_allocate_traits,0>
  00074	59		 pop	 ecx
  00075	89 45 c4	 mov	 DWORD PTR _new_buckets$15[ebp], eax
; File D:\Metin2 Server Files\mainline\SRC_2014\M2Data\include\boost\unordered\detail\implementation.hpp

; 3188 :             destroy_buckets();

  00078	8b 4d ec	 mov	 ecx, DWORD PTR _this$[ebp]
  0007b	e8 00 00 00 00	 call	 ?destroy_buckets@?$table@U?$map@V?$allocator@U?$pair@$$CBV?$basic_string@DU?$char_traits@D@std@@V?$allocator@D@2@@std@@PAVCEterPack@@@std@@@std@@V?$basic_string@DU?$char_traits@D@std@@V?$allocator@D@2@@2@PAVCEterPack@@Ustringhash@@U?$equal_to@V?$basic_string@DU?$char_traits@D@std@@V?$allocator@D@2@@std@@@2@@detail@unordered@boost@@@detail@unordered@boost@@QAEXXZ ; boost::unordered::detail::table<boost::unordered::detail::map<std::allocator<std::pair<std::basic_string<char,std::char_traits<char>,std::allocator<char> > const ,CEterPack *> >,std::basic_string<char,std::char_traits<char>,std::allocator<char> >,CEterPack *,stringhash,std::equal_to<std::basic_string<char,std::char_traits<char>,std::allocator<char> > > > >::destroy_buckets

; 3189 :             buckets_ = new_buckets;

  00080	8b 45 ec	 mov	 eax, DWORD PTR _this$[ebp]
  00083	8b 4d c4	 mov	 ecx, DWORD PTR _new_buckets$15[ebp]
  00086	89 48 14	 mov	 DWORD PTR [eax+20], ecx
  00089	e9 d4 00 00 00	 jmp	 $LN6@create_buc
$LN5@create_buc:

; 3190 :           } else if (bucket::extra_node) {

  0008e	33 c0		 xor	 eax, eax
  00090	0f 84 8a 00 00
	00		 je	 $LN7@create_buc

; 3014 :         node_allocator& node_alloc() { return allocators_.second(); }

  00096	8b 45 ec	 mov	 eax, DWORD PTR _this$[ebp]
  00099	83 c0 03	 add	 eax, 3
  0009c	89 45 dc	 mov	 DWORD PTR _this$[ebp], eax

; 430  :         second_type& second() { return static_cast<base2*>(this)->get(); }

  0009f	74 09		 je	 SHORT $LN48@create_buc
  000a1	8b 45 dc	 mov	 eax, DWORD PTR _this$[ebp]
  000a4	40		 inc	 eax
  000a5	89 45 d8	 mov	 DWORD PTR $T17[ebp], eax
  000a8	eb 04		 jmp	 SHORT $LN44@create_buc
$LN48@create_buc:
  000aa	83 65 d8 00	 and	 DWORD PTR $T17[ebp], 0
$LN44@create_buc:

; 1946 :         node_constructor(node_allocator& n) : alloc_(n), node_() {}

  000ae	8b 45 d8	 mov	 eax, DWORD PTR $T17[ebp]
  000b1	89 45 8c	 mov	 DWORD PTR _a$2[ebp], eax
  000b4	83 65 90 00	 and	 DWORD PTR _a$2[ebp+4], 0

; 3191 :             node_constructor a(node_alloc());

  000b8	83 65 fc 00	 and	 DWORD PTR __$EHRec$[ebp+8], 0

; 3192 :             a.create_node();

  000bc	8d 4d 8c	 lea	 ecx, DWORD PTR _a$2[ebp]
  000bf	e8 00 00 00 00	 call	 ?create_node@?$node_constructor@V?$allocator@U?$ptr_node@U?$pair@$$CBV?$basic_string@DU?$char_traits@D@std@@V?$allocator@D@2@@std@@PAVCEterPack@@@std@@@detail@unordered@boost@@@std@@@detail@unordered@boost@@QAEXXZ ; boost::unordered::detail::node_constructor<std::allocator<boost::unordered::detail::ptr_node<std::pair<std::basic_string<char,std::char_traits<char>,std::allocator<char> > const ,CEterPack *> > > >::create_node

; 3193 :             buckets_ =

  000c4	8b 45 08	 mov	 eax, DWORD PTR _new_count$[ebp]
  000c7	40		 inc	 eax
  000c8	89 45 d4	 mov	 DWORD PTR __Count$[ebp], eax
; File C:\Program Files (x86)\Microsoft Visual Studio\2019\Community\VC\Tools\MSVC\14.28.29333\include\xmemory

; 56   :     constexpr bool _Overflow_is_possible = _Ty_size > 1;

  000cb	c6 45 f2 01	 mov	 BYTE PTR __Overflow_is_possible$20[ebp], 1

; 57   : 
; 58   :     if _CONSTEXPR_IF (_Overflow_is_possible) {
; 59   :         constexpr size_t _Max_possible = static_cast<size_t>(-1) / _Ty_size;

  000cf	c7 45 98 ff ff
	ff 3f		 mov	 DWORD PTR __Max_possible$4[ebp], 1073741823 ; 3fffffffH

; 60   :         if (_Count > _Max_possible) {

  000d6	81 7d d4 ff ff
	ff 3f		 cmp	 DWORD PTR __Count$[ebp], 1073741823 ; 3fffffffH
  000dd	76 05		 jbe	 SHORT $LN63@create_buc

; 61   :             _Throw_bad_array_new_length(); // multiply overflow

  000df	e8 00 00 00 00	 call	 ?_Throw_bad_array_new_length@std@@YAXXZ ; std::_Throw_bad_array_new_length
$LN63@create_buc:

; 62   :         }
; 63   :     }
; 64   : 
; 65   :     return _Count * _Ty_size;

  000e4	8b 45 d4	 mov	 eax, DWORD PTR __Count$[ebp]
  000e7	c1 e0 02	 shl	 eax, 2
  000ea	89 45 c0	 mov	 DWORD PTR $T14[ebp], eax

; 686  :         return static_cast<pointer>(_Allocate<_New_alignof<value_type>>(_Get_size_of_n<sizeof(value_type)>(_Count)));

  000ed	ff 75 c0	 push	 DWORD PTR $T14[ebp]
  000f0	e8 00 00 00 00	 call	 ??$_Allocate@$07U_Default_allocate_traits@std@@$0A@@std@@YAPAXI@Z ; std::_Allocate<8,std::_Default_allocate_traits,0>
  000f5	59		 pop	 ecx
  000f6	89 45 bc	 mov	 DWORD PTR $T13[ebp], eax
; File D:\Metin2 Server Files\mainline\SRC_2014\M2Data\include\boost\unordered\detail\implementation.hpp

; 3193 :             buckets_ =

  000f9	8b 45 ec	 mov	 eax, DWORD PTR _this$[ebp]
  000fc	8b 4d bc	 mov	 ecx, DWORD PTR $T13[ebp]
  000ff	89 48 14	 mov	 DWORD PTR [eax+20], ecx

; 1956 :           node_pointer p = node_;

  00102	8b 45 90	 mov	 eax, DWORD PTR _a$2[ebp+4]
  00105	89 45 b8	 mov	 DWORD PTR _p$12[ebp], eax

; 1957 :           node_ = node_pointer();

  00108	83 65 90 00	 and	 DWORD PTR _a$2[ebp+4], 0

; 3194 :               bucket_allocator_traits::allocate(bucket_alloc(), new_count + 1);
; 3195 :             dummy_node = a.release();

  0010c	8b 45 b8	 mov	 eax, DWORD PTR _p$12[ebp]
  0010f	89 45 e4	 mov	 DWORD PTR _dummy_node$[ebp], eax

; 3196 :           } else {

  00112	83 4d fc ff	 or	 DWORD PTR __$EHRec$[ebp+8], -1
  00116	8d 4d 8c	 lea	 ecx, DWORD PTR _a$2[ebp]
  00119	e8 00 00 00 00	 call	 ??1?$node_constructor@V?$allocator@U?$ptr_node@U?$pair@$$CBV?$basic_string@DU?$char_traits@D@std@@V?$allocator@D@2@@std@@PAVCEterPack@@@std@@@detail@unordered@boost@@@std@@@detail@unordered@boost@@QAE@XZ ; boost::unordered::detail::node_constructor<std::allocator<boost::unordered::detail::ptr_node<std::pair<std::basic_string<char,std::char_traits<char>,std::allocator<char> > const ,CEterPack *> > > >::~node_constructor<std::allocator<boost::unordered::detail::ptr_node<std::pair<std::basic_string<char,std::char_traits<char>,std::allocator<char> > const ,CEterPack *> > > >
  0011e	eb 42		 jmp	 SHORT $LN6@create_buc
$LN7@create_buc:

; 3197 :             dummy_node = link_pointer();

  00120	83 65 e4 00	 and	 DWORD PTR _dummy_node$[ebp], 0

; 3198 :             buckets_ =

  00124	8b 45 08	 mov	 eax, DWORD PTR _new_count$[ebp]
  00127	40		 inc	 eax
  00128	89 45 d0	 mov	 DWORD PTR __Count$[ebp], eax
; File C:\Program Files (x86)\Microsoft Visual Studio\2019\Community\VC\Tools\MSVC\14.28.29333\include\xmemory

; 56   :     constexpr bool _Overflow_is_possible = _Ty_size > 1;

  0012b	c6 45 f1 01	 mov	 BYTE PTR __Overflow_is_possible$19[ebp], 1

; 57   : 
; 58   :     if _CONSTEXPR_IF (_Overflow_is_possible) {
; 59   :         constexpr size_t _Max_possible = static_cast<size_t>(-1) / _Ty_size;

  0012f	c7 45 94 ff ff
	ff 3f		 mov	 DWORD PTR __Max_possible$3[ebp], 1073741823 ; 3fffffffH

; 60   :         if (_Count > _Max_possible) {

  00136	81 7d d0 ff ff
	ff 3f		 cmp	 DWORD PTR __Count$[ebp], 1073741823 ; 3fffffffH
  0013d	76 05		 jbe	 SHORT $LN77@create_buc

; 61   :             _Throw_bad_array_new_length(); // multiply overflow

  0013f	e8 00 00 00 00	 call	 ?_Throw_bad_array_new_length@std@@YAXXZ ; std::_Throw_bad_array_new_length
$LN77@create_buc:

; 62   :         }
; 63   :     }
; 64   : 
; 65   :     return _Count * _Ty_size;

  00144	8b 45 d0	 mov	 eax, DWORD PTR __Count$[ebp]
  00147	c1 e0 02	 shl	 eax, 2
  0014a	89 45 b4	 mov	 DWORD PTR $T11[ebp], eax

; 686  :         return static_cast<pointer>(_Allocate<_New_alignof<value_type>>(_Get_size_of_n<sizeof(value_type)>(_Count)));

  0014d	ff 75 b4	 push	 DWORD PTR $T11[ebp]
  00150	e8 00 00 00 00	 call	 ??$_Allocate@$07U_Default_allocate_traits@std@@$0A@@std@@YAPAXI@Z ; std::_Allocate<8,std::_Default_allocate_traits,0>
  00155	59		 pop	 ecx
  00156	89 45 b0	 mov	 DWORD PTR $T10[ebp], eax
; File D:\Metin2 Server Files\mainline\SRC_2014\M2Data\include\boost\unordered\detail\implementation.hpp

; 3198 :             buckets_ =

  00159	8b 45 ec	 mov	 eax, DWORD PTR _this$[ebp]
  0015c	8b 4d b0	 mov	 ecx, DWORD PTR $T10[ebp]
  0015f	89 48 14	 mov	 DWORD PTR [eax+20], ecx
$LN6@create_buc:

; 3199 :               bucket_allocator_traits::allocate(bucket_alloc(), new_count + 1);
; 3200 :           }
; 3201 : 
; 3202 :           // nothrow from here...
; 3203 :           bucket_count_ = new_count;

  00162	8b 45 ec	 mov	 eax, DWORD PTR _this$[ebp]
  00165	8b 4d 08	 mov	 ecx, DWORD PTR _new_count$[ebp]
  00168	89 48 04	 mov	 DWORD PTR [eax+4], ecx

; 3204 :           recalculate_max_load();

  0016b	8b 4d ec	 mov	 ecx, DWORD PTR _this$[ebp]
  0016e	e8 00 00 00 00	 call	 ?recalculate_max_load@?$table@U?$map@V?$allocator@U?$pair@$$CBV?$basic_string@DU?$char_traits@D@std@@V?$allocator@D@2@@std@@PAVCEterPack@@@std@@@std@@V?$basic_string@DU?$char_traits@D@std@@V?$allocator@D@2@@2@PAVCEterPack@@Ustringhash@@U?$equal_to@V?$basic_string@DU?$char_traits@D@std@@V?$allocator@D@2@@std@@@2@@detail@unordered@boost@@@detail@unordered@boost@@QAEXXZ ; boost::unordered::detail::table<boost::unordered::detail::map<std::allocator<std::pair<std::basic_string<char,std::char_traits<char>,std::allocator<char> > const ,CEterPack *> >,std::basic_string<char,std::char_traits<char>,std::allocator<char> >,CEterPack *,stringhash,std::equal_to<std::basic_string<char,std::char_traits<char>,std::allocator<char> > > > >::recalculate_max_load

; 3205 : 
; 3206 :           bucket_pointer end =

  00173	8b 45 ec	 mov	 eax, DWORD PTR _this$[ebp]
  00176	8b 40 14	 mov	 eax, DWORD PTR [eax+20]
  00179	8b 4d 08	 mov	 ecx, DWORD PTR _new_count$[ebp]
  0017c	8d 04 88	 lea	 eax, DWORD PTR [eax+ecx*4]
  0017f	89 45 cc	 mov	 DWORD PTR _end$[ebp], eax

; 3207 :             buckets_ + static_cast<std::ptrdiff_t>(new_count);
; 3208 :           for (bucket_pointer i = buckets_; i != end; ++i) {

  00182	8b 45 ec	 mov	 eax, DWORD PTR _this$[ebp]
  00185	8b 40 14	 mov	 eax, DWORD PTR [eax+20]
  00188	89 45 e8	 mov	 DWORD PTR _i$18[ebp], eax
  0018b	eb 09		 jmp	 SHORT $LN4@create_buc
$LN2@create_buc:
  0018d	8b 45 e8	 mov	 eax, DWORD PTR _i$18[ebp]
  00190	83 c0 04	 add	 eax, 4
  00193	89 45 e8	 mov	 DWORD PTR _i$18[ebp], eax
$LN4@create_buc:
  00196	8b 45 e8	 mov	 eax, DWORD PTR _i$18[ebp]
  00199	3b 45 cc	 cmp	 eax, DWORD PTR _end$[ebp]
  0019c	74 14		 je	 SHORT $LN3@create_buc
; File D:\Metin2 Server Files\mainline\SRC_2014\M2Data\include\boost\core\pointer_traits.hpp

; 186  :     return v;

  0019e	8b 45 e8	 mov	 eax, DWORD PTR _i$18[ebp]
  001a1	89 45 ac	 mov	 DWORD PTR $T9[ebp], eax
; File C:\Program Files (x86)\Microsoft Visual Studio\2019\Community\VC\Tools\MSVC\14.28.29333\include\vcruntime_new.h

; 169  :         return _Where;

  001a4	8b 45 ac	 mov	 eax, DWORD PTR $T9[ebp]
  001a7	89 45 a8	 mov	 DWORD PTR $T8[ebp], eax
; File D:\Metin2 Server Files\mainline\SRC_2014\M2Data\include\boost\unordered\detail\implementation.hpp

; 2579 :         ptr_bucket() : next_(0) {}

  001aa	8b 45 a8	 mov	 eax, DWORD PTR $T8[ebp]
  001ad	83 20 00	 and	 DWORD PTR [eax], 0

; 3209 :             new ((void*)boost::to_address(i)) bucket();
; 3210 :           }

  001b0	eb db		 jmp	 SHORT $LN2@create_buc
$LN3@create_buc:
; File D:\Metin2 Server Files\mainline\SRC_2014\M2Data\include\boost\core\pointer_traits.hpp

; 186  :     return v;

  001b2	8b 45 cc	 mov	 eax, DWORD PTR _end$[ebp]
  001b5	89 45 a4	 mov	 DWORD PTR $T7[ebp], eax
; File C:\Program Files (x86)\Microsoft Visual Studio\2019\Community\VC\Tools\MSVC\14.28.29333\include\vcruntime_new.h

; 169  :         return _Where;

  001b8	8b 45 a4	 mov	 eax, DWORD PTR $T7[ebp]
  001bb	89 45 a0	 mov	 DWORD PTR $T6[ebp], eax
; File D:\Metin2 Server Files\mainline\SRC_2014\M2Data\include\boost\unordered\detail\implementation.hpp

; 2580 :         ptr_bucket(link_pointer n) : next_(n) {}

  001be	8b 45 a0	 mov	 eax, DWORD PTR $T6[ebp]
  001c1	8b 4d e4	 mov	 ecx, DWORD PTR _dummy_node$[ebp]
  001c4	89 08		 mov	 DWORD PTR [eax], ecx
$LN23@create_buc:

; 3211 :           new ((void*)boost::to_address(end)) bucket(dummy_node);
; 3212 :         }

  001c6	8b 4d f4	 mov	 ecx, DWORD PTR __$EHRec$[ebp]
  001c9	64 89 0d 00 00
	00 00		 mov	 DWORD PTR fs:0, ecx
  001d0	59		 pop	 ecx
  001d1	c9		 leave
  001d2	c2 04 00	 ret	 4
_TEXT	ENDS
;	COMDAT text$x
text$x	SEGMENT
__unwindfunclet$?create_buckets@?$table@U?$map@V?$allocator@U?$pair@$$CBV?$basic_string@DU?$char_traits@D@std@@V?$allocator@D@2@@std@@PAVCEterPack@@@std@@@std@@V?$basic_string@DU?$char_traits@D@std@@V?$allocator@D@2@@2@PAVCEterPack@@Ustringhash@@U?$equal_to@V?$basic_string@DU?$char_traits@D@std@@V?$allocator@D@2@@std@@@2@@detail@unordered@boost@@@detail@unordered@boost@@QAEXI@Z$0:
  00000	8d 4d 8c	 lea	 ecx, DWORD PTR _a$2[ebp]
  00003	e9 00 00 00 00	 jmp	 ??1?$node_constructor@V?$allocator@U?$ptr_node@U?$pair@$$CBV?$basic_string@DU?$char_traits@D@std@@V?$allocator@D@2@@std@@PAVCEterPack@@@std@@@detail@unordered@boost@@@std@@@detail@unordered@boost@@QAE@XZ ; boost::unordered::detail::node_constructor<std::allocator<boost::unordered::detail::ptr_node<std::pair<std::basic_string<char,std::char_traits<char>,std::allocator<char> > const ,CEterPack *> > > >::~node_constructor<std::allocator<boost::unordered::detail::ptr_node<std::pair<std::basic_string<char,std::char_traits<char>,std::allocator<char> > const ,CEterPack *> > > >
  00008	cc		 int	 3
  00009	cc		 int	 3
  0000a	cc		 int	 3
  0000b	cc		 int	 3
  0000c	cc		 int	 3
__ehhandler$?create_buckets@?$table@U?$map@V?$allocator@U?$pair@$$CBV?$basic_string@DU?$char_traits@D@std@@V?$allocator@D@2@@std@@PAVCEterPack@@@std@@@std@@V?$basic_string@DU?$char_traits@D@std@@V?$allocator@D@2@@2@PAVCEterPack@@Ustringhash@@U?$equal_to@V?$basic_string@DU?$char_traits@D@std@@V?$allocator@D@2@@std@@@2@@detail@unordered@boost@@@detail@unordered@boost@@QAEXI@Z:
  0000d	90		 npad	 1
  0000e	90		 npad	 1
  0000f	8b 54 24 08	 mov	 edx, DWORD PTR [esp+8]
  00013	8d 42 0c	 lea	 eax, DWORD PTR [edx+12]
  00016	8b 4a 94	 mov	 ecx, DWORD PTR [edx-108]
  00019	33 c8		 xor	 ecx, eax
  0001b	e8 00 00 00 00	 call	 @__security_check_cookie@4
  00020	b8 00 00 00 00	 mov	 eax, OFFSET __ehfuncinfo$?create_buckets@?$table@U?$map@V?$allocator@U?$pair@$$CBV?$basic_string@DU?$char_traits@D@std@@V?$allocator@D@2@@std@@PAVCEterPack@@@std@@@std@@V?$basic_string@DU?$char_traits@D@std@@V?$allocator@D@2@@2@PAVCEterPack@@Ustringhash@@U?$equal_to@V?$basic_string@DU?$char_traits@D@std@@V?$allocator@D@2@@std@@@2@@detail@unordered@boost@@@detail@unordered@boost@@QAEXI@Z
  00025	e9 00 00 00 00	 jmp	 ___CxxFrameHandler3
text$x	ENDS
?create_buckets@?$table@U?$map@V?$allocator@U?$pair@$$CBV?$basic_string@DU?$char_traits@D@std@@V?$allocator@D@2@@std@@PAVCEterPack@@@std@@@std@@V?$basic_string@DU?$char_traits@D@std@@V?$allocator@D@2@@2@PAVCEterPack@@Ustringhash@@U?$equal_to@V?$basic_string@DU?$char_traits@D@std@@V?$allocator@D@2@@std@@@2@@detail@unordered@boost@@@detail@unordered@boost@@QAEXI@Z ENDP ; boost::unordered::detail::table<boost::unordered::detail::map<std::allocator<std::pair<std::basic_string<char,std::char_traits<char>,std::allocator<char> > const ,CEterPack *> >,std::basic_string<char,std::char_traits<char>,std::allocator<char> >,CEterPack *,stringhash,std::equal_to<std::basic_string<char,std::char_traits<char>,std::allocator<char> > > > >::create_buckets
; Function compile flags: /Odspy
; File D:\Metin2 Server Files\mainline\SRC_2014\M2Data\include\boost\unordered\detail\implementation.hpp
; File C:\Program Files (x86)\Microsoft Visual Studio\2019\Community\VC\Tools\MSVC\14.28.29333\include\vcruntime_new.h
; File D:\Metin2 Server Files\mainline\SRC_2014\M2Data\include\boost\unordered\detail\implementation.hpp
;	COMDAT ??0?$table@U?$map@V?$allocator@U?$pair@$$CBV?$basic_string@DU?$char_traits@D@std@@V?$allocator@D@2@@std@@PAVCEterPack@@@std@@@std@@V?$basic_string@DU?$char_traits@D@std@@V?$allocator@D@2@@2@PAVCEterPack@@Ustringhash@@U?$equal_to@V?$basic_string@DU?$char_traits@D@std@@V?$allocator@D@2@@std@@@2@@detail@unordered@boost@@@detail@unordered@boost@@QAE@IABUstringhash@@ABU?$equal_to@V?$basic_string@DU?$char_traits@D@std@@V?$allocator@D@2@@std@@@std@@ABV?$allocator@U?$ptr_node@U?$pair@$$CBV?$basic_string@DU?$char_traits@D@std@@V?$allocator@D@2@@std@@PAVCEterPack@@@std@@@detail@unordered@boost@@@6@@Z
_TEXT	SEGMENT
$T2 = -24						; size = 4
_this$ = -20						; size = 4
_which$ = -16						; size = 1
__$EHRec$ = -12						; size = 12
_num_buckets$ = 8					; size = 4
_hf$ = 12						; size = 4
_eq$ = 16						; size = 4
_a$ = 20						; size = 4
??0?$table@U?$map@V?$allocator@U?$pair@$$CBV?$basic_string@DU?$char_traits@D@std@@V?$allocator@D@2@@std@@PAVCEterPack@@@std@@@std@@V?$basic_string@DU?$char_traits@D@std@@V?$allocator@D@2@@2@PAVCEterPack@@Ustringhash@@U?$equal_to@V?$basic_string@DU?$char_traits@D@std@@V?$allocator@D@2@@std@@@2@@detail@unordered@boost@@@detail@unordered@boost@@QAE@IABUstringhash@@ABU?$equal_to@V?$basic_string@DU?$char_traits@D@std@@V?$allocator@D@2@@std@@@std@@ABV?$allocator@U?$ptr_node@U?$pair@$$CBV?$basic_string@DU?$char_traits@D@std@@V?$allocator@D@2@@std@@PAVCEterPack@@@std@@@detail@unordered@boost@@@6@@Z PROC ; boost::unordered::detail::table<boost::unordered::detail::map<std::allocator<std::pair<std::basic_string<char,std::char_traits<char>,std::allocator<char> > const ,CEterPack *> >,std::basic_string<char,std::char_traits<char>,std::allocator<char> >,CEterPack *,stringhash,std::equal_to<std::basic_string<char,std::char_traits<char>,std::allocator<char> > > > >::table<boost::unordered::detail::map<std::allocator<std::pair<std::basic_string<char,std::char_traits<char>,std::allocator<char> > const ,CEterPack *> >,std::basic_string<char,std::char_traits<char>,std::allocator<char> >,CEterPack *,stringhash,std::equal_to<std::basic_string<char,std::char_traits<char>,std::allocator<char> > > > >, COMDAT
; _this$ = ecx

; 3123 :         {

  00000	55		 push	 ebp
  00001	8b ec		 mov	 ebp, esp
  00003	6a ff		 push	 -1
  00005	68 00 00 00 00	 push	 __ehhandler$??0?$table@U?$map@V?$allocator@U?$pair@$$CBV?$basic_string@DU?$char_traits@D@std@@V?$allocator@D@2@@std@@PAVCEterPack@@@std@@@std@@V?$basic_string@DU?$char_traits@D@std@@V?$allocator@D@2@@2@PAVCEterPack@@Ustringhash@@U?$equal_to@V?$basic_string@DU?$char_traits@D@std@@V?$allocator@D@2@@std@@@2@@detail@unordered@boost@@@detail@unordered@boost@@QAE@IABUstringhash@@ABU?$equal_to@V?$basic_string@DU?$char_traits@D@std@@V?$allocator@D@2@@std@@@std@@ABV?$allocator@U?$ptr_node@U?$pair@$$CBV?$basic_string@DU?$char_traits@D@std@@V?$allocator@D@2@@std@@PAVCEterPack@@@std@@@detail@unordered@boost@@@6@@Z
  0000a	64 a1 00 00 00
	00		 mov	 eax, DWORD PTR fs:0
  00010	50		 push	 eax
  00011	83 ec 0c	 sub	 esp, 12			; 0000000cH
  00014	a1 00 00 00 00	 mov	 eax, DWORD PTR ___security_cookie
  00019	33 c5		 xor	 eax, ebp
  0001b	50		 push	 eax
  0001c	8d 45 f4	 lea	 eax, DWORD PTR __$EHRec$[ebp]
  0001f	64 a3 00 00 00
	00		 mov	 DWORD PTR fs:0, eax
  00025	89 4d ec	 mov	 DWORD PTR _this$[ebp], ecx

; 2761 :         functions(H const& hf, P const& eq) : current_(0)

  00028	8b 45 ec	 mov	 eax, DWORD PTR _this$[ebp]
  0002b	c6 00 00	 mov	 BYTE PTR [eax], 0

; 2762 :         {
; 2763 :           construct_functions(current_, hf, eq);

  0002e	8b 45 ec	 mov	 eax, DWORD PTR _this$[ebp]
  00031	8a 00		 mov	 al, BYTE PTR [eax]
  00033	88 45 f0	 mov	 BYTE PTR _which$[ebp], al

; 2827 :           new ((void*)&funcs_[which]) function_pair(hf, eq);

  00036	0f b6 45 f0	 movzx	 eax, BYTE PTR _which$[ebp]
  0003a	8b 4d ec	 mov	 ecx, DWORD PTR _this$[ebp]
  0003d	8d 44 01 01	 lea	 eax, DWORD PTR [ecx+eax+1]
; File C:\Program Files (x86)\Microsoft Visual Studio\2019\Community\VC\Tools\MSVC\14.28.29333\include\vcruntime_new.h

; 169  :         return _Where;

  00041	89 45 e8	 mov	 DWORD PTR $T2[ebp], eax
; File D:\Metin2 Server Files\mainline\SRC_2014\M2Data\include\boost\unordered\detail\implementation.hpp

; 3120 :             : functions(hf, eq), allocators_(a, a),

  00044	83 65 fc 00	 and	 DWORD PTR __$EHRec$[ebp+8], 0

; 2609 :           return boost::unordered::detail::next_prime(min);

  00048	ff 75 08	 push	 DWORD PTR _num_buckets$[ebp]
  0004b	e8 00 00 00 00	 call	 ?next_prime@detail@unordered@boost@@YAII@Z ; boost::unordered::detail::next_prime
  00050	59		 pop	 ecx

; 3121 :               bucket_count_(policy::new_bucket_count(num_buckets)), size_(0),

  00051	8b 4d ec	 mov	 ecx, DWORD PTR _this$[ebp]
  00054	89 41 04	 mov	 DWORD PTR [ecx+4], eax
  00057	8b 45 ec	 mov	 eax, DWORD PTR _this$[ebp]
  0005a	83 60 08 00	 and	 DWORD PTR [eax+8], 0

; 3122 :               mlf_(1.0f), max_load_(0), buckets_()

  0005e	8b 45 ec	 mov	 eax, DWORD PTR _this$[ebp]
  00061	f3 0f 10 05 00
	00 00 00	 movss	 xmm0, DWORD PTR __real@3f800000
  00069	f3 0f 11 40 0c	 movss	 DWORD PTR [eax+12], xmm0
  0006e	8b 45 ec	 mov	 eax, DWORD PTR _this$[ebp]
  00071	83 60 10 00	 and	 DWORD PTR [eax+16], 0
  00075	8b 45 ec	 mov	 eax, DWORD PTR _this$[ebp]
  00078	83 60 14 00	 and	 DWORD PTR [eax+20], 0

; 3124 :         }

  0007c	83 4d fc ff	 or	 DWORD PTR __$EHRec$[ebp+8], -1
  00080	8b 45 ec	 mov	 eax, DWORD PTR _this$[ebp]
  00083	8b 4d f4	 mov	 ecx, DWORD PTR __$EHRec$[ebp]
  00086	64 89 0d 00 00
	00 00		 mov	 DWORD PTR fs:0, ecx
  0008d	59		 pop	 ecx
  0008e	c9		 leave
  0008f	c2 10 00	 ret	 16			; 00000010H
_TEXT	ENDS
;	COMDAT text$x
text$x	SEGMENT
__unwindfunclet$??0?$table@U?$map@V?$allocator@U?$pair@$$CBV?$basic_string@DU?$char_traits@D@std@@V?$allocator@D@2@@std@@PAVCEterPack@@@std@@@std@@V?$basic_string@DU?$char_traits@D@std@@V?$allocator@D@2@@2@PAVCEterPack@@Ustringhash@@U?$equal_to@V?$basic_string@DU?$char_traits@D@std@@V?$allocator@D@2@@std@@@2@@detail@unordered@boost@@@detail@unordered@boost@@QAE@IABUstringhash@@ABU?$equal_to@V?$basic_string@DU?$char_traits@D@std@@V?$allocator@D@2@@std@@@std@@ABV?$allocator@U?$ptr_node@U?$pair@$$CBV?$basic_string@DU?$char_traits@D@std@@V?$allocator@D@2@@std@@PAVCEterPack@@@std@@@detail@unordered@boost@@@6@@Z$0:
  00000	8b 4d ec	 mov	 ecx, DWORD PTR _this$[ebp]
  00003	e9 00 00 00 00	 jmp	 ??1?$functions@Ustringhash@@U?$equal_to@V?$basic_string@DU?$char_traits@D@std@@V?$allocator@D@2@@std@@@std@@@detail@unordered@boost@@QAE@XZ ; boost::unordered::detail::functions<stringhash,std::equal_to<std::basic_string<char,std::char_traits<char>,std::allocator<char> > > >::~functions<stringhash,std::equal_to<std::basic_string<char,std::char_traits<char>,std::allocator<char> > > >
  00008	cc		 int	 3
  00009	cc		 int	 3
  0000a	cc		 int	 3
  0000b	cc		 int	 3
  0000c	cc		 int	 3
__ehhandler$??0?$table@U?$map@V?$allocator@U?$pair@$$CBV?$basic_string@DU?$char_traits@D@std@@V?$allocator@D@2@@std@@PAVCEterPack@@@std@@@std@@V?$basic_string@DU?$char_traits@D@std@@V?$allocator@D@2@@2@PAVCEterPack@@Ustringhash@@U?$equal_to@V?$basic_string@DU?$char_traits@D@std@@V?$allocator@D@2@@std@@@2@@detail@unordered@boost@@@detail@unordered@boost@@QAE@IABUstringhash@@ABU?$equal_to@V?$basic_string@DU?$char_traits@D@std@@V?$allocator@D@2@@std@@@std@@ABV?$allocator@U?$ptr_node@U?$pair@$$CBV?$basic_string@DU?$char_traits@D@std@@V?$allocator@D@2@@std@@PAVCEterPack@@@std@@@detail@unordered@boost@@@6@@Z:
  0000d	90		 npad	 1
  0000e	90		 npad	 1
  0000f	8b 54 24 08	 mov	 edx, DWORD PTR [esp+8]
  00013	8d 42 0c	 lea	 eax, DWORD PTR [edx+12]
  00016	8b 4a f0	 mov	 ecx, DWORD PTR [edx-16]
  00019	33 c8		 xor	 ecx, eax
  0001b	e8 00 00 00 00	 call	 @__security_check_cookie@4
  00020	b8 00 00 00 00	 mov	 eax, OFFSET __ehfuncinfo$??0?$table@U?$map@V?$allocator@U?$pair@$$CBV?$basic_string@DU?$char_traits@D@std@@V?$allocator@D@2@@std@@PAVCEterPack@@@std@@@std@@V?$basic_string@DU?$char_traits@D@std@@V?$allocator@D@2@@2@PAVCEterPack@@Ustringhash@@U?$equal_to@V?$basic_string@DU?$char_traits@D@std@@V?$allocator@D@2@@std@@@2@@detail@unordered@boost@@@detail@unordered@boost@@QAE@IABUstringhash@@ABU?$equal_to@V?$basic_string@DU?$char_traits@D@std@@V?$allocator@D@2@@std@@@std@@ABV?$allocator@U?$ptr_node@U?$pair@$$CBV?$basic_string@DU?$char_traits@D@std@@V?$allocator@D@2@@std@@PAVCEterPack@@@std@@@detail@unordered@boost@@@6@@Z
  00025	e9 00 00 00 00	 jmp	 ___CxxFrameHandler3
text$x	ENDS
??0?$table@U?$map@V?$allocator@U?$pair@$$CBV?$basic_string@DU?$char_traits@D@std@@V?$allocator@D@2@@std@@PAVCEterPack@@@std@@@std@@V?$basic_string@DU?$char_traits@D@std@@V?$allocator@D@2@@2@PAVCEterPack@@Ustringhash@@U?$equal_to@V?$basic_string@DU?$char_traits@D@std@@V?$allocator@D@2@@std@@@2@@detail@unordered@boost@@@detail@unordered@boost@@QAE@IABUstringhash@@ABU?$equal_to@V?$basic_string@DU?$char_traits@D@std@@V?$allocator@D@2@@std@@@std@@ABV?$allocator@U?$ptr_node@U?$pair@$$CBV?$basic_string@DU?$char_traits@D@std@@V?$allocator@D@2@@std@@PAVCEterPack@@@std@@@detail@unordered@boost@@@6@@Z ENDP ; boost::unordered::detail::table<boost::unordered::detail::map<std::allocator<std::pair<std::basic_string<char,std::char_traits<char>,std::allocator<char> > const ,CEterPack *> >,std::basic_string<char,std::char_traits<char>,std::allocator<char> >,CEterPack *,stringhash,std::equal_to<std::basic_string<char,std::char_traits<char>,std::allocator<char> > > > >::table<boost::unordered::detail::map<std::allocator<std::pair<std::basic_string<char,std::char_traits<char>,std::allocator<char> > const ,CEterPack *> >,std::basic_string<char,std::char_traits<char>,std::allocator<char> >,CEterPack *,stringhash,std::equal_to<std::basic_string<char,std::char_traits<char>,std::allocator<char> > > > >
; Function compile flags: /Odspy
; File D:\Metin2 Server Files\mainline\SRC_2014\M2Data\include\boost\unordered\detail\implementation.hpp
; File C:\Program Files (x86)\Microsoft Visual Studio\2019\Community\VC\Tools\MSVC\14.28.29333\include\limits
; File D:\Metin2 Server Files\mainline\SRC_2014\M2Data\include\boost\unordered\detail\implementation.hpp
; File C:\Program Files (x86)\Microsoft Visual Studio\2019\Community\VC\Tools\MSVC\14.28.29333\include\limits
; File D:\Metin2 Server Files\mainline\SRC_2014\M2Data\include\boost\unordered\detail\implementation.hpp
;	COMDAT ?min_buckets_for_size@?$table@U?$map@V?$allocator@U?$pair@$$CBV?$basic_string@DU?$char_traits@D@std@@V?$allocator@D@2@@std@@PAVCEterPack@@@std@@@std@@V?$basic_string@DU?$char_traits@D@std@@V?$allocator@D@2@@2@PAVCEterPack@@Ustringhash@@U?$equal_to@V?$basic_string@DU?$char_traits@D@std@@V?$allocator@D@2@@std@@@2@@detail@unordered@boost@@@detail@unordered@boost@@QBEII@Z
_TEXT	SEGMENT
tv91 = -40						; size = 8
_f$ = -32						; size = 8
$T1 = -24						; size = 4
$T2 = -20						; size = 4
_this$ = -16						; size = 4
tv81 = -12						; size = 4
tv87 = -8						; size = 4
$T3 = -4						; size = 4
_size$ = 8						; size = 4
?min_buckets_for_size@?$table@U?$map@V?$allocator@U?$pair@$$CBV?$basic_string@DU?$char_traits@D@std@@V?$allocator@D@2@@std@@PAVCEterPack@@@std@@@std@@V?$basic_string@DU?$char_traits@D@std@@V?$allocator@D@2@@2@PAVCEterPack@@Ustringhash@@U?$equal_to@V?$basic_string@DU?$char_traits@D@std@@V?$allocator@D@2@@std@@@2@@detail@unordered@boost@@@detail@unordered@boost@@QBEII@Z PROC ; boost::unordered::detail::table<boost::unordered::detail::map<std::allocator<std::pair<std::basic_string<char,std::char_traits<char>,std::allocator<char> > const ,CEterPack *> >,std::basic_string<char,std::char_traits<char>,std::allocator<char> >,CEterPack *,stringhash,std::equal_to<std::basic_string<char,std::char_traits<char>,std::allocator<char> > > > >::min_buckets_for_size, COMDAT
; _this$ = ecx

; 3095 :         {

  00000	55		 push	 ebp
  00001	8b ec		 mov	 ebp, esp
  00003	83 ec 28	 sub	 esp, 40			; 00000028H
  00006	89 4d f0	 mov	 DWORD PTR _this$[ebp], ecx

; 3096 :           BOOST_ASSERT(mlf_ >= minimum_max_load_factor);
; 3097 : 
; 3098 :           using namespace std;
; 3099 : 
; 3100 :           // From insert/emplace requirements:
; 3101 :           //
; 3102 :           // size <= mlf_ * count
; 3103 :           // => count >= size / mlf_
; 3104 :           //
; 3105 :           // Or from rehash post-condition:
; 3106 :           //
; 3107 :           // count >= size / mlf_
; 3108 : 
; 3109 :           return policy::new_bucket_count(

  00009	8b 45 f0	 mov	 eax, DWORD PTR _this$[ebp]
  0000c	f3 0f 5a 40 0c	 cvtss2sd xmm0, DWORD PTR [eax+12]
  00011	8b 45 08	 mov	 eax, DWORD PTR _size$[ebp]
  00014	89 45 f8	 mov	 DWORD PTR tv87[ebp], eax
  00017	f2 0f 2a 4d f8	 cvtsi2sd xmm1, DWORD PTR tv87[ebp]
  0001c	8b 45 f8	 mov	 eax, DWORD PTR tv87[ebp]
  0001f	c1 e8 1f	 shr	 eax, 31			; 0000001fH
  00022	f2 0f 58 0c c5
	00 00 00 00	 addsd	 xmm1, QWORD PTR __xmm@41f00000000000000000000000000000[eax*8]
  0002b	f2 0f 5e c8	 divsd	 xmm1, xmm0
  0002f	51		 push	 ecx
  00030	51		 push	 ecx
  00031	f2 0f 11 0c 24	 movsd	 QWORD PTR [esp], xmm1
  00036	e8 00 00 00 00	 call	 _floor
  0003b	59		 pop	 ecx
  0003c	59		 pop	 ecx
  0003d	dd 5d d8	 fstp	 QWORD PTR tv91[ebp]
  00040	f2 0f 10 45 d8	 movsd	 xmm0, QWORD PTR tv91[ebp]
  00045	f2 0f 58 05 00
	00 00 00	 addsd	 xmm0, QWORD PTR __real@3ff0000000000000
  0004d	f2 0f 11 45 e0	 movsd	 QWORD PTR _f$[ebp], xmm0
; File C:\Program Files (x86)\Microsoft Visual Studio\2019\Community\VC\Tools\MSVC\14.28.29333\include\limits

; 740  :         return UINT_MAX;

  00052	83 4d ec ff	 or	 DWORD PTR $T2[ebp], -1
; File D:\Metin2 Server Files\mainline\SRC_2014\M2Data\include\boost\unordered\detail\implementation.hpp

; 2893 :         return f >= static_cast<double>(

  00056	8b 45 ec	 mov	 eax, DWORD PTR $T2[ebp]
  00059	89 45 f4	 mov	 DWORD PTR tv81[ebp], eax
  0005c	f2 0f 2a 45 f4	 cvtsi2sd xmm0, DWORD PTR tv81[ebp]
  00061	8b 45 f4	 mov	 eax, DWORD PTR tv81[ebp]
  00064	c1 e8 1f	 shr	 eax, 31			; 0000001fH
  00067	f2 0f 58 04 c5
	00 00 00 00	 addsd	 xmm0, QWORD PTR __xmm@41f00000000000000000000000000000[eax*8]
  00070	f2 0f 10 4d e0	 movsd	 xmm1, QWORD PTR _f$[ebp]
  00075	66 0f 2f c8	 comisd	 xmm1, xmm0
  00079	72 0c		 jb	 SHORT $LN5@min_bucket
  0007b	8b 45 e8	 mov	 eax, DWORD PTR $T1[ebp]
  0007e	89 45 fc	 mov	 DWORD PTR $T3[ebp], eax
; File C:\Program Files (x86)\Microsoft Visual Studio\2019\Community\VC\Tools\MSVC\14.28.29333\include\limits

; 740  :         return UINT_MAX;

  00081	83 4d fc ff	 or	 DWORD PTR $T3[ebp], -1
; File D:\Metin2 Server Files\mainline\SRC_2014\M2Data\include\boost\unordered\detail\implementation.hpp

; 2893 :         return f >= static_cast<double>(

  00085	eb 0d		 jmp	 SHORT $LN6@min_bucket
$LN5@min_bucket:
  00087	f2 0f 10 45 e0	 movsd	 xmm0, QWORD PTR _f$[ebp]
  0008c	e8 00 00 00 00	 call	 __dtoui3
  00091	89 45 fc	 mov	 DWORD PTR $T3[ebp], eax
$LN6@min_bucket:

; 2609 :           return boost::unordered::detail::next_prime(min);

  00094	ff 75 fc	 push	 DWORD PTR $T3[ebp]
  00097	e8 00 00 00 00	 call	 ?next_prime@detail@unordered@boost@@YAII@Z ; boost::unordered::detail::next_prime
  0009c	59		 pop	 ecx

; 3110 :             boost::unordered::detail::double_to_size(
; 3111 :               floor(static_cast<double>(size) / static_cast<double>(mlf_)) +
; 3112 :               1));
; 3113 :         }

  0009d	c9		 leave
  0009e	c2 04 00	 ret	 4
?min_buckets_for_size@?$table@U?$map@V?$allocator@U?$pair@$$CBV?$basic_string@DU?$char_traits@D@std@@V?$allocator@D@2@@std@@PAVCEterPack@@@std@@@std@@V?$basic_string@DU?$char_traits@D@std@@V?$allocator@D@2@@2@PAVCEterPack@@Ustringhash@@U?$equal_to@V?$basic_string@DU?$char_traits@D@std@@V?$allocator@D@2@@std@@@2@@detail@unordered@boost@@@detail@unordered@boost@@QBEII@Z ENDP ; boost::unordered::detail::table<boost::unordered::detail::map<std::allocator<std::pair<std::basic_string<char,std::char_traits<char>,std::allocator<char> > const ,CEterPack *> >,std::basic_string<char,std::char_traits<char>,std::allocator<char> >,CEterPack *,stringhash,std::equal_to<std::basic_string<char,std::char_traits<char>,std::allocator<char> > > > >::min_buckets_for_size
_TEXT	ENDS
; Function compile flags: /Odspy
; File D:\Metin2 Server Files\mainline\SRC_2014\M2Data\include\boost\unordered\detail\implementation.hpp
; File C:\Program Files (x86)\Microsoft Visual Studio\2019\Community\VC\Tools\MSVC\14.28.29333\include\limits
; File D:\Metin2 Server Files\mainline\SRC_2014\M2Data\include\boost\unordered\detail\implementation.hpp
; File C:\Program Files (x86)\Microsoft Visual Studio\2019\Community\VC\Tools\MSVC\14.28.29333\include\limits
; File D:\Metin2 Server Files\mainline\SRC_2014\M2Data\include\boost\unordered\detail\implementation.hpp
;	COMDAT ?recalculate_max_load@?$table@U?$map@V?$allocator@U?$pair@$$CBV?$basic_string@DU?$char_traits@D@std@@V?$allocator@D@2@@std@@PAVCEterPack@@@std@@@std@@V?$basic_string@DU?$char_traits@D@std@@V?$allocator@D@2@@2@PAVCEterPack@@Ustringhash@@U?$equal_to@V?$basic_string@DU?$char_traits@D@std@@V?$allocator@D@2@@std@@@2@@detail@unordered@boost@@@detail@unordered@boost@@QAEXXZ
_TEXT	SEGMENT
_f$ = -36						; size = 8
$T1 = -28						; size = 4
$T2 = -24						; size = 4
tv76 = -20						; size = 4
tv92 = -16						; size = 4
tv83 = -12						; size = 4
tv82 = -8						; size = 4
_this$ = -4						; size = 4
?recalculate_max_load@?$table@U?$map@V?$allocator@U?$pair@$$CBV?$basic_string@DU?$char_traits@D@std@@V?$allocator@D@2@@std@@PAVCEterPack@@@std@@@std@@V?$basic_string@DU?$char_traits@D@std@@V?$allocator@D@2@@2@PAVCEterPack@@Ustringhash@@U?$equal_to@V?$basic_string@DU?$char_traits@D@std@@V?$allocator@D@2@@std@@@2@@detail@unordered@boost@@@detail@unordered@boost@@QAEXXZ PROC ; boost::unordered::detail::table<boost::unordered::detail::map<std::allocator<std::pair<std::basic_string<char,std::char_traits<char>,std::allocator<char> > const ,CEterPack *> >,std::basic_string<char,std::char_traits<char>,std::allocator<char> >,CEterPack *,stringhash,std::equal_to<std::basic_string<char,std::char_traits<char>,std::allocator<char> > > > >::recalculate_max_load, COMDAT
; _this$ = ecx

; 3076 :         {

  00000	55		 push	 ebp
  00001	8b ec		 mov	 ebp, esp
  00003	83 ec 24	 sub	 esp, 36			; 00000024H
  00006	89 4d fc	 mov	 DWORD PTR _this$[ebp], ecx

; 3077 :           using namespace std;
; 3078 : 
; 3079 :           // From 6.3.1/13:
; 3080 :           // Only resize when size >= mlf_ * count
; 3081 :           max_load_ = buckets_ ? boost::unordered::detail::double_to_size(

  00009	8b 45 fc	 mov	 eax, DWORD PTR _this$[ebp]
  0000c	83 78 14 00	 cmp	 DWORD PTR [eax+20], 0
  00010	0f 84 84 00 00
	00		 je	 $LN3@recalculat
  00016	8b 45 fc	 mov	 eax, DWORD PTR _this$[ebp]
  00019	8b 40 04	 mov	 eax, DWORD PTR [eax+4]
  0001c	89 45 f4	 mov	 DWORD PTR tv83[ebp], eax
  0001f	f2 0f 2a 45 f4	 cvtsi2sd xmm0, DWORD PTR tv83[ebp]
  00024	8b 45 f4	 mov	 eax, DWORD PTR tv83[ebp]
  00027	c1 e8 1f	 shr	 eax, 31			; 0000001fH
  0002a	f2 0f 58 04 c5
	00 00 00 00	 addsd	 xmm0, QWORD PTR __xmm@41f00000000000000000000000000000[eax*8]
  00033	8b 45 fc	 mov	 eax, DWORD PTR _this$[ebp]
  00036	f3 0f 5a 48 0c	 cvtss2sd xmm1, DWORD PTR [eax+12]
  0003b	f2 0f 59 c8	 mulsd	 xmm1, xmm0
  0003f	51		 push	 ecx
  00040	51		 push	 ecx
  00041	f2 0f 11 0c 24	 movsd	 QWORD PTR [esp], xmm1
  00046	e8 00 00 00 00	 call	 _ceil
  0004b	59		 pop	 ecx
  0004c	59		 pop	 ecx
  0004d	dd 5d dc	 fstp	 QWORD PTR _f$[ebp]
; File C:\Program Files (x86)\Microsoft Visual Studio\2019\Community\VC\Tools\MSVC\14.28.29333\include\limits

; 740  :         return UINT_MAX;

  00050	83 4d e8 ff	 or	 DWORD PTR $T2[ebp], -1
; File D:\Metin2 Server Files\mainline\SRC_2014\M2Data\include\boost\unordered\detail\implementation.hpp

; 2893 :         return f >= static_cast<double>(

  00054	8b 45 e8	 mov	 eax, DWORD PTR $T2[ebp]
  00057	89 45 f0	 mov	 DWORD PTR tv92[ebp], eax
  0005a	f2 0f 2a 45 f0	 cvtsi2sd xmm0, DWORD PTR tv92[ebp]
  0005f	8b 45 f0	 mov	 eax, DWORD PTR tv92[ebp]
  00062	c1 e8 1f	 shr	 eax, 31			; 0000001fH
  00065	f2 0f 58 04 c5
	00 00 00 00	 addsd	 xmm0, QWORD PTR __xmm@41f00000000000000000000000000000[eax*8]
  0006e	f2 0f 10 4d dc	 movsd	 xmm1, QWORD PTR _f$[ebp]
  00073	66 0f 2f c8	 comisd	 xmm1, xmm0
  00077	72 0c		 jb	 SHORT $LN7@recalculat
  00079	8b 45 e4	 mov	 eax, DWORD PTR $T1[ebp]
  0007c	89 45 f8	 mov	 DWORD PTR tv82[ebp], eax
; File C:\Program Files (x86)\Microsoft Visual Studio\2019\Community\VC\Tools\MSVC\14.28.29333\include\limits

; 740  :         return UINT_MAX;

  0007f	83 4d f8 ff	 or	 DWORD PTR tv82[ebp], -1
; File D:\Metin2 Server Files\mainline\SRC_2014\M2Data\include\boost\unordered\detail\implementation.hpp

; 2893 :         return f >= static_cast<double>(

  00083	eb 0d		 jmp	 SHORT $LN8@recalculat
$LN7@recalculat:
  00085	f2 0f 10 45 dc	 movsd	 xmm0, QWORD PTR _f$[ebp]
  0008a	e8 00 00 00 00	 call	 __dtoui3
  0008f	89 45 f8	 mov	 DWORD PTR tv82[ebp], eax
$LN8@recalculat:

; 3077 :           using namespace std;
; 3078 : 
; 3079 :           // From 6.3.1/13:
; 3080 :           // Only resize when size >= mlf_ * count
; 3081 :           max_load_ = buckets_ ? boost::unordered::detail::double_to_size(

  00092	8b 45 f8	 mov	 eax, DWORD PTR tv82[ebp]
  00095	89 45 ec	 mov	 DWORD PTR tv76[ebp], eax
  00098	eb 04		 jmp	 SHORT $LN4@recalculat
$LN3@recalculat:
  0009a	83 65 ec 00	 and	 DWORD PTR tv76[ebp], 0
$LN4@recalculat:
  0009e	8b 45 fc	 mov	 eax, DWORD PTR _this$[ebp]
  000a1	8b 4d ec	 mov	 ecx, DWORD PTR tv76[ebp]
  000a4	89 48 10	 mov	 DWORD PTR [eax+16], ecx

; 3082 :                                    ceil(static_cast<double>(mlf_) *
; 3083 :                                         static_cast<double>(bucket_count_)))
; 3084 :                                : 0;
; 3085 :         }

  000a7	c9		 leave
  000a8	c3		 ret	 0
?recalculate_max_load@?$table@U?$map@V?$allocator@U?$pair@$$CBV?$basic_string@DU?$char_traits@D@std@@V?$allocator@D@2@@std@@PAVCEterPack@@@std@@@std@@V?$basic_string@DU?$char_traits@D@std@@V?$allocator@D@2@@2@PAVCEterPack@@Ustringhash@@U?$equal_to@V?$basic_string@DU?$char_traits@D@std@@V?$allocator@D@2@@std@@@2@@detail@unordered@boost@@@detail@unordered@boost@@QAEXXZ ENDP ; boost::unordered::detail::table<boost::unordered::detail::map<std::allocator<std::pair<std::basic_string<char,std::char_traits<char>,std::allocator<char> > const ,CEterPack *> >,std::basic_string<char,std::char_traits<char>,std::allocator<char> >,CEterPack *,stringhash,std::equal_to<std::basic_string<char,std::char_traits<char>,std::allocator<char> > > > >::recalculate_max_load
_TEXT	ENDS
; Function compile flags: /Odspy
; File D:\Metin2 Server Files\mainline\SRC_2014\M2Data\include\boost\unordered\detail\implementation.hpp
;	COMDAT ?begin@?$table@U?$map@V?$allocator@U?$pair@$$CBV?$basic_string@DU?$char_traits@D@std@@V?$allocator@D@2@@std@@PAVCEterPack@@@std@@@std@@V?$basic_string@DU?$char_traits@D@std@@V?$allocator@D@2@@2@PAVCEterPack@@Ustringhash@@U?$equal_to@V?$basic_string@DU?$char_traits@D@std@@V?$allocator@D@2@@std@@@2@@detail@unordered@boost@@@detail@unordered@boost@@QBEPAU?$ptr_node@U?$pair@$$CBV?$basic_string@DU?$char_traits@D@std@@V?$allocator@D@2@@std@@PAVCEterPack@@@std@@@234@I@Z
_TEXT	SEGMENT
$T1 = -16						; size = 4
_prev$ = -12						; size = 4
_this$ = -8						; size = 4
tv72 = -4						; size = 4
_bucket_index$ = 8					; size = 4
?begin@?$table@U?$map@V?$allocator@U?$pair@$$CBV?$basic_string@DU?$char_traits@D@std@@V?$allocator@D@2@@std@@PAVCEterPack@@@std@@@std@@V?$basic_string@DU?$char_traits@D@std@@V?$allocator@D@2@@2@PAVCEterPack@@Ustringhash@@U?$equal_to@V?$basic_string@DU?$char_traits@D@std@@V?$allocator@D@2@@std@@@2@@detail@unordered@boost@@@detail@unordered@boost@@QBEPAU?$ptr_node@U?$pair@$$CBV?$basic_string@DU?$char_traits@D@std@@V?$allocator@D@2@@std@@PAVCEterPack@@@std@@@234@I@Z PROC ; boost::unordered::detail::table<boost::unordered::detail::map<std::allocator<std::pair<std::basic_string<char,std::char_traits<char>,std::allocator<char> > const ,CEterPack *> >,std::basic_string<char,std::char_traits<char>,std::allocator<char> >,CEterPack *,stringhash,std::equal_to<std::basic_string<char,std::char_traits<char>,std::allocator<char> > > > >::begin, COMDAT
; _this$ = ecx

; 3045 :         {

  00000	55		 push	 ebp
  00001	8b ec		 mov	 ebp, esp
  00003	83 ec 10	 sub	 esp, 16			; 00000010H
  00006	89 4d f8	 mov	 DWORD PTR _this$[ebp], ecx

; 3046 :           if (!size_)

  00009	8b 45 f8	 mov	 eax, DWORD PTR _this$[ebp]
  0000c	83 78 08 00	 cmp	 DWORD PTR [eax+8], 0
  00010	75 04		 jne	 SHORT $LN8@begin

; 3047 :             return node_pointer();

  00012	33 c0		 xor	 eax, eax
  00014	eb 2c		 jmp	 SHORT $LN1@begin
$LN8@begin:

; 3036 :           return get_bucket_pointer(bucket_index)->next_;

  00016	8b 45 f8	 mov	 eax, DWORD PTR _this$[ebp]
  00019	8b 40 14	 mov	 eax, DWORD PTR [eax+20]
  0001c	8b 4d 08	 mov	 ecx, DWORD PTR _bucket_index$[ebp]
  0001f	8b 04 88	 mov	 eax, DWORD PTR [eax+ecx*4]
  00022	89 45 f4	 mov	 DWORD PTR _prev$[ebp], eax

; 3048 :           link_pointer prev = get_previous_start(bucket_index);
; 3049 :           return prev ? next_node(prev) : node_pointer();

  00025	83 7d f4 00	 cmp	 DWORD PTR _prev$[ebp], 0
  00029	74 10		 je	 SHORT $LN4@begin
  0002b	8b 45 f0	 mov	 eax, DWORD PTR $T1[ebp]
  0002e	89 45 fc	 mov	 DWORD PTR tv72[ebp], eax

; 2964 :           return static_cast<node_pointer>(n->next_);

  00031	8b 45 f4	 mov	 eax, DWORD PTR _prev$[ebp]
  00034	8b 00		 mov	 eax, DWORD PTR [eax]
  00036	89 45 fc	 mov	 DWORD PTR tv72[ebp], eax

; 3048 :           link_pointer prev = get_previous_start(bucket_index);
; 3049 :           return prev ? next_node(prev) : node_pointer();

  00039	eb 04		 jmp	 SHORT $LN5@begin
$LN4@begin:
  0003b	83 65 fc 00	 and	 DWORD PTR tv72[ebp], 0
$LN5@begin:
  0003f	8b 45 fc	 mov	 eax, DWORD PTR tv72[ebp]
$LN1@begin:

; 3050 :         }

  00042	c9		 leave
  00043	c2 04 00	 ret	 4
?begin@?$table@U?$map@V?$allocator@U?$pair@$$CBV?$basic_string@DU?$char_traits@D@std@@V?$allocator@D@2@@std@@PAVCEterPack@@@std@@@std@@V?$basic_string@DU?$char_traits@D@std@@V?$allocator@D@2@@2@PAVCEterPack@@Ustringhash@@U?$equal_to@V?$basic_string@DU?$char_traits@D@std@@V?$allocator@D@2@@std@@@2@@detail@unordered@boost@@@detail@unordered@boost@@QBEPAU?$ptr_node@U?$pair@$$CBV?$basic_string@DU?$char_traits@D@std@@V?$allocator@D@2@@std@@PAVCEterPack@@@std@@@234@I@Z ENDP ; boost::unordered::detail::table<boost::unordered::detail::map<std::allocator<std::pair<std::basic_string<char,std::char_traits<char>,std::allocator<char> > const ,CEterPack *> >,std::basic_string<char,std::char_traits<char>,std::allocator<char> >,CEterPack *,stringhash,std::equal_to<std::basic_string<char,std::char_traits<char>,std::allocator<char> > > > >::begin
_TEXT	ENDS
; Function compile flags: /Odspy
; File D:\Metin2 Server Files\mainline\SRC_2014\M2Data\include\boost\unordered\detail\implementation.hpp
;	COMDAT ?begin@?$table@U?$map@V?$allocator@U?$pair@$$CBV?$basic_string@DU?$char_traits@D@std@@V?$allocator@D@2@@std@@PAVCEterPack@@@std@@@std@@V?$basic_string@DU?$char_traits@D@std@@V?$allocator@D@2@@2@PAVCEterPack@@Ustringhash@@U?$equal_to@V?$basic_string@DU?$char_traits@D@std@@V?$allocator@D@2@@std@@@2@@detail@unordered@boost@@@detail@unordered@boost@@QBEPAU?$ptr_node@U?$pair@$$CBV?$basic_string@DU?$char_traits@D@std@@V?$allocator@D@2@@std@@PAVCEterPack@@@std@@@234@XZ
_TEXT	SEGMENT
$T1 = -16						; size = 4
$T2 = -12						; size = 4
tv70 = -8						; size = 4
_this$ = -4						; size = 4
?begin@?$table@U?$map@V?$allocator@U?$pair@$$CBV?$basic_string@DU?$char_traits@D@std@@V?$allocator@D@2@@std@@PAVCEterPack@@@std@@@std@@V?$basic_string@DU?$char_traits@D@std@@V?$allocator@D@2@@2@PAVCEterPack@@Ustringhash@@U?$equal_to@V?$basic_string@DU?$char_traits@D@std@@V?$allocator@D@2@@std@@@2@@detail@unordered@boost@@@detail@unordered@boost@@QBEPAU?$ptr_node@U?$pair@$$CBV?$basic_string@DU?$char_traits@D@std@@V?$allocator@D@2@@std@@PAVCEterPack@@@std@@@234@XZ PROC ; boost::unordered::detail::table<boost::unordered::detail::map<std::allocator<std::pair<std::basic_string<char,std::char_traits<char>,std::allocator<char> > const ,CEterPack *> >,std::basic_string<char,std::char_traits<char>,std::allocator<char> >,CEterPack *,stringhash,std::equal_to<std::basic_string<char,std::char_traits<char>,std::allocator<char> > > > >::begin, COMDAT
; _this$ = ecx

; 3040 :         {

  00000	55		 push	 ebp
  00001	8b ec		 mov	 ebp, esp
  00003	83 ec 10	 sub	 esp, 16			; 00000010H
  00006	89 4d fc	 mov	 DWORD PTR _this$[ebp], ecx

; 3041 :           return size_ ? next_node(get_previous_start()) : node_pointer();

  00009	8b 45 fc	 mov	 eax, DWORD PTR _this$[ebp]
  0000c	83 78 08 00	 cmp	 DWORD PTR [eax+8], 0
  00010	74 22		 je	 SHORT $LN3@begin

; 3026 :           return buckets_ + static_cast<std::ptrdiff_t>(bucket_index);

  00012	8b 45 fc	 mov	 eax, DWORD PTR _this$[ebp]
  00015	8b 40 04	 mov	 eax, DWORD PTR [eax+4]
  00018	8b 4d fc	 mov	 ecx, DWORD PTR _this$[ebp]
  0001b	8b 49 14	 mov	 ecx, DWORD PTR [ecx+20]
  0001e	8d 04 81	 lea	 eax, DWORD PTR [ecx+eax*4]
  00021	89 45 f4	 mov	 DWORD PTR $T2[ebp], eax

; 3041 :           return size_ ? next_node(get_previous_start()) : node_pointer();

  00024	8b 45 f0	 mov	 eax, DWORD PTR $T1[ebp]
  00027	89 45 f8	 mov	 DWORD PTR tv70[ebp], eax

; 2964 :           return static_cast<node_pointer>(n->next_);

  0002a	8b 45 f4	 mov	 eax, DWORD PTR $T2[ebp]
  0002d	8b 00		 mov	 eax, DWORD PTR [eax]
  0002f	89 45 f8	 mov	 DWORD PTR tv70[ebp], eax

; 3041 :           return size_ ? next_node(get_previous_start()) : node_pointer();

  00032	eb 04		 jmp	 SHORT $LN4@begin
$LN3@begin:
  00034	83 65 f8 00	 and	 DWORD PTR tv70[ebp], 0
$LN4@begin:
  00038	8b 45 f8	 mov	 eax, DWORD PTR tv70[ebp]

; 3042 :         }

  0003b	c9		 leave
  0003c	c3		 ret	 0
?begin@?$table@U?$map@V?$allocator@U?$pair@$$CBV?$basic_string@DU?$char_traits@D@std@@V?$allocator@D@2@@std@@PAVCEterPack@@@std@@@std@@V?$basic_string@DU?$char_traits@D@std@@V?$allocator@D@2@@2@PAVCEterPack@@Ustringhash@@U?$equal_to@V?$basic_string@DU?$char_traits@D@std@@V?$allocator@D@2@@std@@@2@@detail@unordered@boost@@@detail@unordered@boost@@QBEPAU?$ptr_node@U?$pair@$$CBV?$basic_string@DU?$char_traits@D@std@@V?$allocator@D@2@@std@@PAVCEterPack@@@std@@@234@XZ ENDP ; boost::unordered::detail::table<boost::unordered::detail::map<std::allocator<std::pair<std::basic_string<char,std::char_traits<char>,std::allocator<char> > const ,CEterPack *> >,std::basic_string<char,std::char_traits<char>,std::allocator<char> >,CEterPack *,stringhash,std::equal_to<std::basic_string<char,std::char_traits<char>,std::allocator<char> > > > >::begin
_TEXT	ENDS
; Function compile flags: /Odspy
; File D:\Metin2 Server Files\mainline\SRC_2014\M2Data\include\boost\unordered\detail\implementation.hpp
;	COMDAT ?next_for_find@?$table@U?$map@V?$allocator@U?$pair@$$CBV?$basic_string@DU?$char_traits@D@std@@V?$allocator@D@2@@std@@PAVCEterPack@@@std@@@std@@V?$basic_string@DU?$char_traits@D@std@@V?$allocator@D@2@@2@PAVCEterPack@@Ustringhash@@U?$equal_to@V?$basic_string@DU?$char_traits@D@std@@V?$allocator@D@2@@std@@@2@@detail@unordered@boost@@@detail@unordered@boost@@SAPAU?$ptr_node@U?$pair@$$CBV?$basic_string@DU?$char_traits@D@std@@V?$allocator@D@2@@std@@PAVCEterPack@@@std@@@234@PAUptr_bucket@234@@Z
_TEXT	SEGMENT
tv84 = -8						; size = 4
_n2$ = -4						; size = 4
_n$ = 8							; size = 4
?next_for_find@?$table@U?$map@V?$allocator@U?$pair@$$CBV?$basic_string@DU?$char_traits@D@std@@V?$allocator@D@2@@std@@PAVCEterPack@@@std@@@std@@V?$basic_string@DU?$char_traits@D@std@@V?$allocator@D@2@@2@PAVCEterPack@@Ustringhash@@U?$equal_to@V?$basic_string@DU?$char_traits@D@std@@V?$allocator@D@2@@std@@@2@@detail@unordered@boost@@@detail@unordered@boost@@SAPAU?$ptr_node@U?$pair@$$CBV?$basic_string@DU?$char_traits@D@std@@V?$allocator@D@2@@std@@PAVCEterPack@@@std@@@234@PAUptr_bucket@234@@Z PROC ; boost::unordered::detail::table<boost::unordered::detail::map<std::allocator<std::pair<std::basic_string<char,std::char_traits<char>,std::allocator<char> > const ,CEterPack *> >,std::basic_string<char,std::char_traits<char>,std::allocator<char> >,CEterPack *,stringhash,std::equal_to<std::basic_string<char,std::char_traits<char>,std::allocator<char> > > > >::next_for_find, COMDAT

; 2968 :         {

  00000	55		 push	 ebp
  00001	8b ec		 mov	 ebp, esp
  00003	51		 push	 ecx
  00004	51		 push	 ecx

; 2969 :           node_pointer n2 = static_cast<node_pointer>(n);

  00005	8b 45 08	 mov	 eax, DWORD PTR _n$[ebp]
  00008	89 45 fc	 mov	 DWORD PTR _n2$[ebp], eax
$LN4@next_for_f:

; 2964 :           return static_cast<node_pointer>(n->next_);

  0000b	8b 45 fc	 mov	 eax, DWORD PTR _n2$[ebp]
  0000e	8b 00		 mov	 eax, DWORD PTR [eax]
  00010	89 45 fc	 mov	 DWORD PTR _n2$[ebp], eax

; 2970 :           do {
; 2971 :             n2 = next_node(n2);
; 2972 :           } while (n2 && !n2->is_first_in_group());

  00013	83 7d fc 00	 cmp	 DWORD PTR _n2$[ebp], 0
  00017	74 20		 je	 SHORT $LN3@next_for_f

; 4878 :           return !(bucket_info_ & ~((std::size_t)-1 >> 1));

  00019	8b 45 fc	 mov	 eax, DWORD PTR _n2$[ebp]
  0001c	8b 40 04	 mov	 eax, DWORD PTR [eax+4]
  0001f	25 00 00 00 80	 and	 eax, -2147483648	; 80000000H
  00024	75 09		 jne	 SHORT $LN11@next_for_f
  00026	c7 45 f8 01 00
	00 00		 mov	 DWORD PTR tv84[ebp], 1
  0002d	eb 04		 jmp	 SHORT $LN9@next_for_f
$LN11@next_for_f:
  0002f	83 65 f8 00	 and	 DWORD PTR tv84[ebp], 0
$LN9@next_for_f:

; 2970 :           do {
; 2971 :             n2 = next_node(n2);
; 2972 :           } while (n2 && !n2->is_first_in_group());

  00033	83 7d f8 00	 cmp	 DWORD PTR tv84[ebp], 0
  00037	74 d2		 je	 SHORT $LN4@next_for_f
$LN3@next_for_f:

; 2973 :           return n2;

  00039	8b 45 fc	 mov	 eax, DWORD PTR _n2$[ebp]

; 2974 :         }

  0003c	c9		 leave
  0003d	c3		 ret	 0
?next_for_find@?$table@U?$map@V?$allocator@U?$pair@$$CBV?$basic_string@DU?$char_traits@D@std@@V?$allocator@D@2@@std@@PAVCEterPack@@@std@@@std@@V?$basic_string@DU?$char_traits@D@std@@V?$allocator@D@2@@2@PAVCEterPack@@Ustringhash@@U?$equal_to@V?$basic_string@DU?$char_traits@D@std@@V?$allocator@D@2@@std@@@2@@detail@unordered@boost@@@detail@unordered@boost@@SAPAU?$ptr_node@U?$pair@$$CBV?$basic_string@DU?$char_traits@D@std@@V?$allocator@D@2@@std@@PAVCEterPack@@@std@@@234@PAUptr_bucket@234@@Z ENDP ; boost::unordered::detail::table<boost::unordered::detail::map<std::allocator<std::pair<std::basic_string<char,std::char_traits<char>,std::allocator<char> > const ,CEterPack *> >,std::basic_string<char,std::char_traits<char>,std::allocator<char> >,CEterPack *,stringhash,std::equal_to<std::basic_string<char,std::char_traits<char>,std::allocator<char> > > > >::next_for_find
_TEXT	ENDS
; Function compile flags: /Odspy
; File D:\Metin2 Server Files\mainline\SRC_2014\M2Data\include\boost\unordered\detail\implementation.hpp
;	COMDAT ?next_node@?$table@U?$map@V?$allocator@U?$pair@$$CBV?$basic_string@DU?$char_traits@D@std@@V?$allocator@D@2@@std@@PAVCEterPack@@@std@@@std@@V?$basic_string@DU?$char_traits@D@std@@V?$allocator@D@2@@2@PAVCEterPack@@Ustringhash@@U?$equal_to@V?$basic_string@DU?$char_traits@D@std@@V?$allocator@D@2@@std@@@2@@detail@unordered@boost@@@detail@unordered@boost@@SAPAU?$ptr_node@U?$pair@$$CBV?$basic_string@DU?$char_traits@D@std@@V?$allocator@D@2@@std@@PAVCEterPack@@@std@@@234@PAUptr_bucket@234@@Z
_TEXT	SEGMENT
_n$ = 8							; size = 4
?next_node@?$table@U?$map@V?$allocator@U?$pair@$$CBV?$basic_string@DU?$char_traits@D@std@@V?$allocator@D@2@@std@@PAVCEterPack@@@std@@@std@@V?$basic_string@DU?$char_traits@D@std@@V?$allocator@D@2@@2@PAVCEterPack@@Ustringhash@@U?$equal_to@V?$basic_string@DU?$char_traits@D@std@@V?$allocator@D@2@@std@@@2@@detail@unordered@boost@@@detail@unordered@boost@@SAPAU?$ptr_node@U?$pair@$$CBV?$basic_string@DU?$char_traits@D@std@@V?$allocator@D@2@@std@@PAVCEterPack@@@std@@@234@PAUptr_bucket@234@@Z PROC ; boost::unordered::detail::table<boost::unordered::detail::map<std::allocator<std::pair<std::basic_string<char,std::char_traits<char>,std::allocator<char> > const ,CEterPack *> >,std::basic_string<char,std::char_traits<char>,std::allocator<char> >,CEterPack *,stringhash,std::equal_to<std::basic_string<char,std::char_traits<char>,std::allocator<char> > > > >::next_node, COMDAT

; 2963 :         {

  00000	55		 push	 ebp
  00001	8b ec		 mov	 ebp, esp

; 2964 :           return static_cast<node_pointer>(n->next_);

  00003	8b 45 08	 mov	 eax, DWORD PTR _n$[ebp]
  00006	8b 00		 mov	 eax, DWORD PTR [eax]

; 2965 :         }

  00008	5d		 pop	 ebp
  00009	c3		 ret	 0
?next_node@?$table@U?$map@V?$allocator@U?$pair@$$CBV?$basic_string@DU?$char_traits@D@std@@V?$allocator@D@2@@std@@PAVCEterPack@@@std@@@std@@V?$basic_string@DU?$char_traits@D@std@@V?$allocator@D@2@@2@PAVCEterPack@@Ustringhash@@U?$equal_to@V?$basic_string@DU?$char_traits@D@std@@V?$allocator@D@2@@std@@@2@@detail@unordered@boost@@@detail@unordered@boost@@SAPAU?$ptr_node@U?$pair@$$CBV?$basic_string@DU?$char_traits@D@std@@V?$allocator@D@2@@std@@PAVCEterPack@@@std@@@234@PAUptr_bucket@234@@Z ENDP ; boost::unordered::detail::table<boost::unordered::detail::map<std::allocator<std::pair<std::basic_string<char,std::char_traits<char>,std::allocator<char> > const ,CEterPack *> >,std::basic_string<char,std::char_traits<char>,std::allocator<char> >,CEterPack *,stringhash,std::equal_to<std::basic_string<char,std::char_traits<char>,std::allocator<char> > > > >::next_node
_TEXT	ENDS
; Function compile flags: /Odspy
; File D:\Metin2 Server Files\mainline\SRC_2014\M2Data\include\boost\unordered\detail\implementation.hpp
;	COMDAT ?key_eq@?$functions@Ustringhash@@U?$equal_to@V?$basic_string@DU?$char_traits@D@std@@V?$allocator@D@2@@std@@@std@@@detail@unordered@boost@@QBEABU?$equal_to@V?$basic_string@DU?$char_traits@D@std@@V?$allocator@D@2@@std@@@std@@XZ
_TEXT	SEGMENT
$T1 = -12						; size = 4
$T2 = -8						; size = 4
_this$ = -4						; size = 4
?key_eq@?$functions@Ustringhash@@U?$equal_to@V?$basic_string@DU?$char_traits@D@std@@V?$allocator@D@2@@std@@@std@@@detail@unordered@boost@@QBEABU?$equal_to@V?$basic_string@DU?$char_traits@D@std@@V?$allocator@D@2@@std@@@std@@XZ PROC ; boost::unordered::detail::functions<stringhash,std::equal_to<std::basic_string<char,std::char_traits<char>,std::allocator<char> > > >::key_eq, COMDAT
; _this$ = ecx

; 2787 :         P const& key_eq() const { return current_functions().second(); }

  00000	55		 push	 ebp
  00001	8b ec		 mov	 ebp, esp
  00003	83 ec 0c	 sub	 esp, 12			; 0000000cH
  00006	89 4d fc	 mov	 DWORD PTR _this$[ebp], ecx

; 2791 :           return *static_cast<function_pair const*>(

  00009	8b 45 fc	 mov	 eax, DWORD PTR _this$[ebp]
  0000c	0f b6 00	 movzx	 eax, BYTE PTR [eax]
  0000f	83 e0 01	 and	 eax, 1
  00012	8b 4d fc	 mov	 ecx, DWORD PTR _this$[ebp]
  00015	8d 44 01 01	 lea	 eax, DWORD PTR [ecx+eax+1]
  00019	89 45 f8	 mov	 DWORD PTR $T2[ebp], eax

; 434  :           return static_cast<base2 const*>(this)->get();

  0001c	83 7d f8 00	 cmp	 DWORD PTR $T2[ebp], 0
  00020	74 09		 je	 SHORT $LN9@key_eq
  00022	8b 45 f8	 mov	 eax, DWORD PTR $T2[ebp]
  00025	40		 inc	 eax
  00026	89 45 f4	 mov	 DWORD PTR $T1[ebp], eax
  00029	eb 04		 jmp	 SHORT $LN7@key_eq
$LN9@key_eq:
  0002b	83 65 f4 00	 and	 DWORD PTR $T1[ebp], 0
$LN7@key_eq:

; 2787 :         P const& key_eq() const { return current_functions().second(); }

  0002f	8b 45 f4	 mov	 eax, DWORD PTR $T1[ebp]
  00032	c9		 leave
  00033	c3		 ret	 0
?key_eq@?$functions@Ustringhash@@U?$equal_to@V?$basic_string@DU?$char_traits@D@std@@V?$allocator@D@2@@std@@@std@@@detail@unordered@boost@@QBEABU?$equal_to@V?$basic_string@DU?$char_traits@D@std@@V?$allocator@D@2@@std@@@std@@XZ ENDP ; boost::unordered::detail::functions<stringhash,std::equal_to<std::basic_string<char,std::char_traits<char>,std::allocator<char> > > >::key_eq
_TEXT	ENDS
; Function compile flags: /Odspy
; File D:\Metin2 Server Files\mainline\SRC_2014\M2Data\include\boost\unordered\detail\implementation.hpp
;	COMDAT ??1?$functions@Ustringhash@@U?$equal_to@V?$basic_string@DU?$char_traits@D@std@@V?$allocator@D@2@@std@@@std@@@detail@unordered@boost@@QAE@XZ
_TEXT	SEGMENT
_this$ = -4						; size = 4
??1?$functions@Ustringhash@@U?$equal_to@V?$basic_string@DU?$char_traits@D@std@@V?$allocator@D@2@@std@@@std@@@detail@unordered@boost@@QAE@XZ PROC ; boost::unordered::detail::functions<stringhash,std::equal_to<std::basic_string<char,std::char_traits<char>,std::allocator<char> > > >::~functions<stringhash,std::equal_to<std::basic_string<char,std::char_traits<char>,std::allocator<char> > > >, COMDAT
; _this$ = ecx

; 2780 :         {

  00000	55		 push	 ebp
  00001	8b ec		 mov	 ebp, esp
  00003	51		 push	 ecx
  00004	89 4d fc	 mov	 DWORD PTR _this$[ebp], ecx

; 2781 :           BOOST_ASSERT(!(current_ & 2));
; 2782 :           destroy_functions(current_);
; 2783 :         }

  00007	c9		 leave
  00008	c3		 ret	 0
??1?$functions@Ustringhash@@U?$equal_to@V?$basic_string@DU?$char_traits@D@std@@V?$allocator@D@2@@std@@@std@@@detail@unordered@boost@@QAE@XZ ENDP ; boost::unordered::detail::functions<stringhash,std::equal_to<std::basic_string<char,std::char_traits<char>,std::allocator<char> > > >::~functions<stringhash,std::equal_to<std::basic_string<char,std::char_traits<char>,std::allocator<char> > > >
_TEXT	ENDS
; Function compile flags: /Odspy
; File C:\Program Files (x86)\Microsoft Visual Studio\2019\Community\VC\Tools\MSVC\14.28.29333\include\list
; File C:\Program Files (x86)\Microsoft Visual Studio\2019\Community\VC\Tools\MSVC\14.28.29333\include\xmemory
; File C:\Program Files (x86)\Microsoft Visual Studio\2019\Community\VC\Tools\MSVC\14.28.29333\include\list
; File C:\Program Files (x86)\Microsoft Visual Studio\2019\Community\VC\Tools\MSVC\14.28.29333\include\xmemory
; File C:\Program Files (x86)\Microsoft Visual Studio\2019\Community\VC\Tools\MSVC\14.28.29333\include\list
;	COMDAT ?_Alloc_sentinel_and_proxy@?$list@PAVCEterPack@@V?$allocator@PAVCEterPack@@@std@@@std@@AAEXXZ
_TEXT	SEGMENT
__Max_possible$1 = -36					; size = 4
__Al$ = -32						; size = 4
__Alproxy$ = -28					; size = 4
$T2 = -24						; size = 4
$T3 = -20						; size = 4
$T4 = -16						; size = 4
_this$ = -12						; size = 4
__Newhead$ = -8						; size = 4
__Overflow_is_possible$5 = -2				; size = 1
_$S10$ = -1						; size = 1
?_Alloc_sentinel_and_proxy@?$list@PAVCEterPack@@V?$allocator@PAVCEterPack@@@std@@@std@@AAEXXZ PROC ; std::list<CEterPack *,std::allocator<CEterPack *> >::_Alloc_sentinel_and_proxy, COMDAT
; _this$ = ecx

; 1771 :     void _Alloc_sentinel_and_proxy() {

  00000	55		 push	 ebp
  00001	8b ec		 mov	 ebp, esp
  00003	83 ec 24	 sub	 esp, 36			; 00000024H
  00006	89 4d f4	 mov	 DWORD PTR _this$[ebp], ecx

; 1772 :         auto&& _Alproxy = _GET_PROXY_ALLOCATOR(_Alnode, _Getal());

  00009	8d 45 ff	 lea	 eax, DWORD PTR _$S10$[ebp]
  0000c	89 45 e4	 mov	 DWORD PTR __Alproxy$[ebp], eax

; 1787 :         return _Mypair._Get_first();

  0000f	8b 45 f4	 mov	 eax, DWORD PTR _this$[ebp]
; File C:\Program Files (x86)\Microsoft Visual Studio\2019\Community\VC\Tools\MSVC\14.28.29333\include\xmemory

; 1347 :         return *this;

  00012	89 45 f0	 mov	 DWORD PTR $T4[ebp], eax
; File C:\Program Files (x86)\Microsoft Visual Studio\2019\Community\VC\Tools\MSVC\14.28.29333\include\list

; 1787 :         return _Mypair._Get_first();

  00015	8b 45 f0	 mov	 eax, DWORD PTR $T4[ebp]
  00018	89 45 e0	 mov	 DWORD PTR __Al$[ebp], eax
; File C:\Program Files (x86)\Microsoft Visual Studio\2019\Community\VC\Tools\MSVC\14.28.29333\include\xmemory

; 56   :     constexpr bool _Overflow_is_possible = _Ty_size > 1;

  0001b	c6 45 fe 01	 mov	 BYTE PTR __Overflow_is_possible$5[ebp], 1

; 57   : 
; 58   :     if _CONSTEXPR_IF (_Overflow_is_possible) {
; 59   :         constexpr size_t _Max_possible = static_cast<size_t>(-1) / _Ty_size;

  0001f	c7 45 dc 55 55
	55 15		 mov	 DWORD PTR __Max_possible$1[ebp], 357913941 ; 15555555H

; 60   :         if (_Count > _Max_possible) {

  00026	33 c0		 xor	 eax, eax
  00028	40		 inc	 eax
  00029	3d 55 55 55 15	 cmp	 eax, 357913941		; 15555555H
  0002e	76 05		 jbe	 SHORT $LN15@Alloc_sent

; 61   :             _Throw_bad_array_new_length(); // multiply overflow

  00030	e8 00 00 00 00	 call	 ?_Throw_bad_array_new_length@std@@YAXXZ ; std::_Throw_bad_array_new_length
$LN15@Alloc_sent:

; 62   :         }
; 63   :     }
; 64   : 
; 65   :     return _Count * _Ty_size;

  00035	33 c0		 xor	 eax, eax
  00037	40		 inc	 eax
  00038	6b c0 0c	 imul	 eax, eax, 12
  0003b	89 45 ec	 mov	 DWORD PTR $T3[ebp], eax

; 814  :         return static_cast<_Ty*>(_Allocate<_New_alignof<_Ty>>(_Get_size_of_n<sizeof(_Ty)>(_Count)));

  0003e	ff 75 ec	 push	 DWORD PTR $T3[ebp]
  00041	e8 00 00 00 00	 call	 ??$_Allocate@$07U_Default_allocate_traits@std@@$0A@@std@@YAPAXI@Z ; std::_Allocate<8,std::_Default_allocate_traits,0>
  00046	59		 pop	 ecx
  00047	89 45 e8	 mov	 DWORD PTR $T2[ebp], eax
; File C:\Program Files (x86)\Microsoft Visual Studio\2019\Community\VC\Tools\MSVC\14.28.29333\include\list

; 1775 :         auto _Newhead = _Al.allocate(1);

  0004a	8b 45 e8	 mov	 eax, DWORD PTR $T2[ebp]
  0004d	89 45 f8	 mov	 DWORD PTR __Newhead$[ebp], eax

; 1776 :         _Construct_in_place(_Newhead->_Next, _Newhead);

  00050	8d 45 f8	 lea	 eax, DWORD PTR __Newhead$[ebp]
  00053	50		 push	 eax
  00054	ff 75 f8	 push	 DWORD PTR __Newhead$[ebp]
  00057	e8 00 00 00 00	 call	 ??$_Construct_in_place@PAU?$_List_node@PAVCEterPack@@PAX@std@@AAPAU12@@std@@YAXAAPAU?$_List_node@PAVCEterPack@@PAX@0@0@Z ; std::_Construct_in_place<std::_List_node<CEterPack *,void *> *,std::_List_node<CEterPack *,void *> * &>
  0005c	59		 pop	 ecx
  0005d	59		 pop	 ecx

; 1777 :         _Construct_in_place(_Newhead->_Prev, _Newhead);

  0005e	8d 45 f8	 lea	 eax, DWORD PTR __Newhead$[ebp]
  00061	50		 push	 eax
  00062	8b 45 f8	 mov	 eax, DWORD PTR __Newhead$[ebp]
  00065	83 c0 04	 add	 eax, 4
  00068	50		 push	 eax
  00069	e8 00 00 00 00	 call	 ??$_Construct_in_place@PAU?$_List_node@PAVCEterPack@@PAX@std@@AAPAU12@@std@@YAXAAPAU?$_List_node@PAVCEterPack@@PAX@0@0@Z ; std::_Construct_in_place<std::_List_node<CEterPack *,void *> *,std::_List_node<CEterPack *,void *> * &>
  0006e	59		 pop	 ecx
  0006f	59		 pop	 ecx

; 1778 :         _Mypair._Myval2._Myhead = _Newhead;

  00070	8b 45 f4	 mov	 eax, DWORD PTR _this$[ebp]
  00073	8b 4d f8	 mov	 ecx, DWORD PTR __Newhead$[ebp]
  00076	89 08		 mov	 DWORD PTR [eax], ecx
$LN18@Alloc_sent:

; 1779 :         _Proxy._Release();
; 1780 :     }

  00078	c9		 leave
  00079	c3		 ret	 0
?_Alloc_sentinel_and_proxy@?$list@PAVCEterPack@@V?$allocator@PAVCEterPack@@@std@@@std@@AAEXXZ ENDP ; std::list<CEterPack *,std::allocator<CEterPack *> >::_Alloc_sentinel_and_proxy
_TEXT	ENDS
; Function compile flags: /Odspy
; File C:\Program Files (x86)\Microsoft Visual Studio\2019\Community\VC\Tools\MSVC\14.28.29333\include\list
; File C:\Program Files (x86)\Microsoft Visual Studio\2019\Community\VC\Tools\MSVC\14.28.29333\include\xmemory
; File C:\Program Files (x86)\Microsoft Visual Studio\2019\Community\VC\Tools\MSVC\14.28.29333\include\list
;	COMDAT ?_Tidy@?$list@PAVCEterPack@@V?$allocator@PAVCEterPack@@@std@@@std@@AAEXXZ
_TEXT	SEGMENT
$T1 = -16						; size = 4
__Al$ = -12						; size = 4
__My_data$ = -8						; size = 4
_this$ = -4						; size = 4
?_Tidy@?$list@PAVCEterPack@@V?$allocator@PAVCEterPack@@@std@@@std@@AAEXXZ PROC ; std::list<CEterPack *,std::allocator<CEterPack *> >::_Tidy, COMDAT
; _this$ = ecx

; 1436 :     void _Tidy() noexcept {

  00000	55		 push	 ebp
  00001	8b ec		 mov	 ebp, esp
  00003	83 ec 10	 sub	 esp, 16			; 00000010H
  00006	89 4d fc	 mov	 DWORD PTR _this$[ebp], ecx

; 1787 :         return _Mypair._Get_first();

  00009	8b 45 fc	 mov	 eax, DWORD PTR _this$[ebp]
; File C:\Program Files (x86)\Microsoft Visual Studio\2019\Community\VC\Tools\MSVC\14.28.29333\include\xmemory

; 1347 :         return *this;

  0000c	89 45 f0	 mov	 DWORD PTR $T1[ebp], eax
; File C:\Program Files (x86)\Microsoft Visual Studio\2019\Community\VC\Tools\MSVC\14.28.29333\include\list

; 1787 :         return _Mypair._Get_first();

  0000f	8b 45 f0	 mov	 eax, DWORD PTR $T1[ebp]
  00012	89 45 f4	 mov	 DWORD PTR __Al$[ebp], eax

; 1437 :         auto& _Al      = _Getal();
; 1438 :         auto& _My_data = _Mypair._Myval2;

  00015	8b 45 fc	 mov	 eax, DWORD PTR _this$[ebp]
  00018	89 45 f8	 mov	 DWORD PTR __My_data$[ebp], eax

; 1439 :         _My_data._Orphan_all();
; 1440 :         _Node::_Free_non_head(_Al, _My_data._Myhead);

  0001b	8b 45 f8	 mov	 eax, DWORD PTR __My_data$[ebp]
  0001e	ff 30		 push	 DWORD PTR [eax]
  00020	ff 75 f4	 push	 DWORD PTR __Al$[ebp]
  00023	e8 00 00 00 00	 call	 ??$_Free_non_head@V?$allocator@U?$_List_node@PAVCEterPack@@PAX@std@@@std@@@?$_List_node@PAVCEterPack@@PAX@std@@SAXAAV?$allocator@U?$_List_node@PAVCEterPack@@PAX@std@@@1@PAU01@@Z ; std::_List_node<CEterPack *,void *>::_Free_non_head<std::allocator<std::_List_node<CEterPack *,void *> > >
  00028	59		 pop	 ecx
  00029	59		 pop	 ecx

; 1441 :         _Node::_Freenode0(_Al, _My_data._Myhead);

  0002a	8b 45 f8	 mov	 eax, DWORD PTR __My_data$[ebp]
  0002d	ff 30		 push	 DWORD PTR [eax]
  0002f	ff 75 f4	 push	 DWORD PTR __Al$[ebp]
  00032	e8 00 00 00 00	 call	 ??$_Freenode0@V?$allocator@U?$_List_node@PAVCEterPack@@PAX@std@@@std@@@?$_List_node@PAVCEterPack@@PAX@std@@SAXAAV?$allocator@U?$_List_node@PAVCEterPack@@PAX@std@@@1@PAU01@@Z ; std::_List_node<CEterPack *,void *>::_Freenode0<std::allocator<std::_List_node<CEterPack *,void *> > >
  00037	59		 pop	 ecx
  00038	59		 pop	 ecx

; 1442 :     }

  00039	c9		 leave
  0003a	c3		 ret	 0
?_Tidy@?$list@PAVCEterPack@@V?$allocator@PAVCEterPack@@@std@@@std@@AAEXXZ ENDP ; std::list<CEterPack *,std::allocator<CEterPack *> >::_Tidy
_TEXT	ENDS
; Function compile flags: /Odspy
; File C:\Program Files (x86)\Microsoft Visual Studio\2019\Community\VC\Tools\MSVC\14.28.29333\include\list
;	COMDAT ??1?$list@PAVCEterPack@@V?$allocator@PAVCEterPack@@@std@@@std@@QAE@XZ
_TEXT	SEGMENT
_this$ = -4						; size = 4
??1?$list@PAVCEterPack@@V?$allocator@PAVCEterPack@@@std@@@std@@QAE@XZ PROC ; std::list<CEterPack *,std::allocator<CEterPack *> >::~list<CEterPack *,std::allocator<CEterPack *> >, COMDAT
; _this$ = ecx

; 1045 :     ~list() noexcept {

  00000	55		 push	 ebp
  00001	8b ec		 mov	 ebp, esp
  00003	51		 push	 ecx
  00004	89 4d fc	 mov	 DWORD PTR _this$[ebp], ecx

; 1046 :         _Tidy();

  00007	8b 4d fc	 mov	 ecx, DWORD PTR _this$[ebp]
  0000a	e8 00 00 00 00	 call	 ?_Tidy@?$list@PAVCEterPack@@V?$allocator@PAVCEterPack@@@std@@@std@@AAEXXZ ; std::list<CEterPack *,std::allocator<CEterPack *> >::_Tidy

; 1047 : #if _ITERATOR_DEBUG_LEVEL != 0 // TRANSITION, ABI
; 1048 :         auto&& _Alproxy = _GET_PROXY_ALLOCATOR(_Alnode, _Getal());
; 1049 :         _Delete_plain_internal(_Alproxy, _Mypair._Myval2._Myproxy);
; 1050 : #endif // _ITERATOR_DEBUG_LEVEL != 0
; 1051 :     }

  0000f	c9		 leave
  00010	c3		 ret	 0
??1?$list@PAVCEterPack@@V?$allocator@PAVCEterPack@@@std@@@std@@QAE@XZ ENDP ; std::list<CEterPack *,std::allocator<CEterPack *> >::~list<CEterPack *,std::allocator<CEterPack *> >
_TEXT	ENDS
; Function compile flags: /Odspy
; File C:\Program Files (x86)\Microsoft Visual Studio\2019\Community\VC\Tools\MSVC\14.28.29333\include\list
; File C:\Program Files (x86)\Microsoft Visual Studio\2019\Community\VC\Tools\MSVC\14.28.29333\include\xmemory
; File C:\Program Files (x86)\Microsoft Visual Studio\2019\Community\VC\Tools\MSVC\14.28.29333\include\list
;	COMDAT ??0?$list@PAVCEterPack@@V?$allocator@PAVCEterPack@@@std@@@std@@QAE@XZ
_TEXT	SEGMENT
_this$ = -12						; size = 4
_this$ = -8						; size = 4
_this$ = -4						; size = 4
??0?$list@PAVCEterPack@@V?$allocator@PAVCEterPack@@@std@@@std@@QAE@XZ PROC ; std::list<CEterPack *,std::allocator<CEterPack *> >::list<CEterPack *,std::allocator<CEterPack *> >, COMDAT
; _this$ = ecx

; 804  :     list() : _Mypair(_Zero_then_variadic_args_t{}) {

  00000	55		 push	 ebp
  00001	8b ec		 mov	 ebp, esp
  00003	83 ec 0c	 sub	 esp, 12			; 0000000cH
  00006	89 4d fc	 mov	 DWORD PTR _this$[ebp], ecx
  00009	8b 45 fc	 mov	 eax, DWORD PTR _this$[ebp]
  0000c	89 45 f4	 mov	 DWORD PTR _this$[ebp], eax
; File C:\Program Files (x86)\Microsoft Visual Studio\2019\Community\VC\Tools\MSVC\14.28.29333\include\xmemory

; 1339 :         : _Ty1(), _Myval2(_STD forward<_Other2>(_Val2)...) {}

  0000f	8b 45 f4	 mov	 eax, DWORD PTR _this$[ebp]
  00012	89 45 f8	 mov	 DWORD PTR _this$[ebp], eax
; File C:\Program Files (x86)\Microsoft Visual Studio\2019\Community\VC\Tools\MSVC\14.28.29333\include\list

; 354  :     _List_val() noexcept : _Myhead(), _Mysize(0) {} // initialize data

  00015	8b 45 f8	 mov	 eax, DWORD PTR _this$[ebp]
  00018	83 20 00	 and	 DWORD PTR [eax], 0
  0001b	8b 45 f8	 mov	 eax, DWORD PTR _this$[ebp]
  0001e	83 60 04 00	 and	 DWORD PTR [eax+4], 0

; 805  :         _Alloc_sentinel_and_proxy();

  00022	8b 4d fc	 mov	 ecx, DWORD PTR _this$[ebp]
  00025	e8 00 00 00 00	 call	 ?_Alloc_sentinel_and_proxy@?$list@PAVCEterPack@@V?$allocator@PAVCEterPack@@@std@@@std@@AAEXXZ ; std::list<CEterPack *,std::allocator<CEterPack *> >::_Alloc_sentinel_and_proxy

; 806  :     }

  0002a	8b 45 fc	 mov	 eax, DWORD PTR _this$[ebp]
  0002d	c9		 leave
  0002e	c3		 ret	 0
??0?$list@PAVCEterPack@@V?$allocator@PAVCEterPack@@@std@@@std@@QAE@XZ ENDP ; std::list<CEterPack *,std::allocator<CEterPack *> >::list<CEterPack *,std::allocator<CEterPack *> >
_TEXT	ENDS
; Function compile flags: /Odspy
; File D:\Metin2 Server Files\mainline\SRC_2014\Metin2Client\EterPack\EterPackManager.cpp
; File D:\Metin2 Server Files\mainline\SRC_2014\M2Data\include\boost\unordered\detail\implementation.hpp
; File D:\Metin2 Server Files\mainline\SRC_2014\M2Data\include\boost\unordered\unordered_map.hpp
; File D:\Metin2 Server Files\mainline\SRC_2014\M2Data\include\boost\unordered\detail\implementation.hpp
; File D:\Metin2 Server Files\mainline\SRC_2014\M2Data\include\boost\unordered\unordered_map.hpp
; File D:\Metin2 Server Files\mainline\SRC_2014\Metin2Client\EterPack\EterPackManager.cpp
; File D:\Metin2 Server Files\mainline\SRC_2014\M2Data\include\boost\unordered\detail\implementation.hpp
; File D:\Metin2 Server Files\mainline\SRC_2014\M2Data\include\boost\unordered\unordered_map.hpp
; File D:\Metin2 Server Files\mainline\SRC_2014\M2Data\include\boost\unordered\detail\implementation.hpp
; File D:\Metin2 Server Files\mainline\SRC_2014\Metin2Client\EterPack\EterPackManager.cpp
; File D:\Metin2 Server Files\mainline\SRC_2014\M2Data\include\boost\unordered\unordered_map.hpp
; File D:\Metin2 Server Files\mainline\SRC_2014\Metin2Client\EterPack\EterPackManager.cpp
;	COMDAT ?__ClearCacheMap@CEterPackManager@@IAEXXZ
_TEXT	SEGMENT
$T2 = -64						; size = 4
$T3 = -60						; size = 4
$T4 = -56						; size = 4
$T5 = -52						; size = 4
$T6 = -48						; size = 4
$T7 = -44						; size = 4
$T8 = -40						; size = 4
_this$ = -36						; size = 4
tv70 = -32						; size = 4
$T9 = -28						; size = 4
_this$ = -24						; size = 4
_i$ = -20						; size = 4
$T10 = -13						; size = 1
__$EHRec$ = -12						; size = 12
?__ClearCacheMap@CEterPackManager@@IAEXXZ PROC		; CEterPackManager::__ClearCacheMap, COMDAT
; _this$ = ecx

; 134  : {

  00000	55		 push	 ebp
  00001	8b ec		 mov	 ebp, esp
  00003	6a ff		 push	 -1
  00005	68 00 00 00 00	 push	 __ehhandler$?__ClearCacheMap@CEterPackManager@@IAEXXZ
  0000a	64 a1 00 00 00
	00		 mov	 eax, DWORD PTR fs:0
  00010	50		 push	 eax
  00011	83 ec 34	 sub	 esp, 52			; 00000034H
  00014	a1 00 00 00 00	 mov	 eax, DWORD PTR ___security_cookie
  00019	33 c5		 xor	 eax, ebp
  0001b	50		 push	 eax
  0001c	8d 45 f4	 lea	 eax, DWORD PTR __$EHRec$[ebp]
  0001f	64 a3 00 00 00
	00		 mov	 DWORD PTR fs:0, eax
  00025	89 4d dc	 mov	 DWORD PTR _this$[ebp], ecx
; File D:\Metin2 Server Files\mainline\SRC_2014\M2Data\include\boost\unordered\detail\implementation.hpp

; 2368 :         iterator() BOOST_NOEXCEPT : node_() {}

  00028	83 65 ec 00	 and	 DWORD PTR _i$[ebp], 0
; File D:\Metin2 Server Files\mainline\SRC_2014\M2Data\include\boost\unordered\unordered_map.hpp

; 193  :       iterator begin() BOOST_NOEXCEPT { return iterator(table_.begin()); }

  0002c	8b 45 dc	 mov	 eax, DWORD PTR _this$[ebp]
  0002f	05 48 14 00 00	 add	 eax, 5192		; 00001448H
  00034	89 45 e8	 mov	 DWORD PTR _this$[ebp], eax
; File D:\Metin2 Server Files\mainline\SRC_2014\M2Data\include\boost\unordered\detail\implementation.hpp

; 3041 :           return size_ ? next_node(get_previous_start()) : node_pointer();

  00037	8b 45 e8	 mov	 eax, DWORD PTR _this$[ebp]
  0003a	83 78 08 00	 cmp	 DWORD PTR [eax+8], 0
  0003e	74 22		 je	 SHORT $LN14@ClearCache

; 3026 :           return buckets_ + static_cast<std::ptrdiff_t>(bucket_index);

  00040	8b 45 e8	 mov	 eax, DWORD PTR _this$[ebp]
  00043	8b 40 04	 mov	 eax, DWORD PTR [eax+4]
  00046	8b 4d e8	 mov	 ecx, DWORD PTR _this$[ebp]
  00049	8b 49 14	 mov	 ecx, DWORD PTR [ecx+20]
  0004c	8d 04 81	 lea	 eax, DWORD PTR [ecx+eax*4]
  0004f	89 45 d8	 mov	 DWORD PTR $T8[ebp], eax

; 3041 :           return size_ ? next_node(get_previous_start()) : node_pointer();

  00052	8b 45 c0	 mov	 eax, DWORD PTR $T2[ebp]
  00055	89 45 e4	 mov	 DWORD PTR $T9[ebp], eax

; 2964 :           return static_cast<node_pointer>(n->next_);

  00058	8b 45 d8	 mov	 eax, DWORD PTR $T8[ebp]
  0005b	8b 00		 mov	 eax, DWORD PTR [eax]
  0005d	89 45 e4	 mov	 DWORD PTR $T9[ebp], eax

; 3041 :           return size_ ? next_node(get_previous_start()) : node_pointer();

  00060	eb 04		 jmp	 SHORT $LN12@ClearCache
$LN14@ClearCache:
  00062	83 65 e4 00	 and	 DWORD PTR $T9[ebp], 0
$LN12@ClearCache:

; 2371 :           : node_(static_cast<node_pointer>(x))

  00066	8b 45 e4	 mov	 eax, DWORD PTR $T9[ebp]
  00069	89 45 d4	 mov	 DWORD PTR $T7[ebp], eax
; File D:\Metin2 Server Files\mainline\SRC_2014\M2Data\include\boost\unordered\unordered_map.hpp

; 193  :       iterator begin() BOOST_NOEXCEPT { return iterator(table_.begin()); }

  0006c	8d 45 d4	 lea	 eax, DWORD PTR $T7[ebp]
  0006f	89 45 d0	 mov	 DWORD PTR $T6[ebp], eax
; File D:\Metin2 Server Files\mainline\SRC_2014\Metin2Client\EterPack\EterPackManager.cpp

; 137  : 	for (i = m_kMap_dwNameKey_kCache.begin(); i != m_kMap_dwNameKey_kCache.end(); ++i)

  00072	8b 45 d0	 mov	 eax, DWORD PTR $T6[ebp]
  00075	8b 00		 mov	 eax, DWORD PTR [eax]
  00077	89 45 ec	 mov	 DWORD PTR _i$[ebp], eax
  0007a	eb 08		 jmp	 SHORT $LN4@ClearCache
$LN2@ClearCache:
; File D:\Metin2 Server Files\mainline\SRC_2014\M2Data\include\boost\unordered\detail\implementation.hpp

; 2381 :           node_ = static_cast<node_pointer>(node_->next_);

  0007c	8b 45 ec	 mov	 eax, DWORD PTR _i$[ebp]
  0007f	8b 00		 mov	 eax, DWORD PTR [eax]
  00081	89 45 ec	 mov	 DWORD PTR _i$[ebp], eax
$LN4@ClearCache:

; 2368 :         iterator() BOOST_NOEXCEPT : node_() {}

  00084	83 65 cc 00	 and	 DWORD PTR $T5[ebp], 0
; File D:\Metin2 Server Files\mainline\SRC_2014\M2Data\include\boost\unordered\unordered_map.hpp

; 200  :       iterator end() BOOST_NOEXCEPT { return iterator(); }

  00088	8d 45 cc	 lea	 eax, DWORD PTR $T5[ebp]
  0008b	89 45 c8	 mov	 DWORD PTR $T4[ebp], eax
; File D:\Metin2 Server Files\mainline\SRC_2014\M2Data\include\boost\unordered\detail\implementation.hpp

; 2399 :           return node_ != x.node_;

  0008e	8b 45 c8	 mov	 eax, DWORD PTR $T4[ebp]
  00091	8b 4d ec	 mov	 ecx, DWORD PTR _i$[ebp]
  00094	3b 08		 cmp	 ecx, DWORD PTR [eax]
  00096	74 09		 je	 SHORT $LN37@ClearCache
  00098	c7 45 e0 01 00
	00 00		 mov	 DWORD PTR tv70[ebp], 1
  0009f	eb 04		 jmp	 SHORT $LN38@ClearCache
$LN37@ClearCache:
  000a1	83 65 e0 00	 and	 DWORD PTR tv70[ebp], 0
$LN38@ClearCache:
  000a5	8a 45 e0	 mov	 al, BYTE PTR tv70[ebp]
  000a8	88 45 f3	 mov	 BYTE PTR $T10[ebp], al
; File D:\Metin2 Server Files\mainline\SRC_2014\Metin2Client\EterPack\EterPackManager.cpp

; 137  : 	for (i = m_kMap_dwNameKey_kCache.begin(); i != m_kMap_dwNameKey_kCache.end(); ++i)

  000ab	0f b6 45 f3	 movzx	 eax, BYTE PTR $T10[ebp]
  000af	85 c0		 test	 eax, eax
  000b1	74 14		 je	 SHORT $LN3@ClearCache

; 138  : 		delete [] i->second.m_abBufData;

  000b3	8b 45 ec	 mov	 eax, DWORD PTR _i$[ebp]
  000b6	8b 40 0c	 mov	 eax, DWORD PTR [eax+12]
  000b9	89 45 c4	 mov	 DWORD PTR $T3[ebp], eax
  000bc	ff 75 c4	 push	 DWORD PTR $T3[ebp]
  000bf	e8 00 00 00 00	 call	 ??_V@YAXPAX@Z		; operator delete[]
  000c4	59		 pop	 ecx
  000c5	eb b5		 jmp	 SHORT $LN2@ClearCache
$LN3@ClearCache:
; File D:\Metin2 Server Files\mainline\SRC_2014\M2Data\include\boost\unordered\unordered_map.hpp

; 722  :       void clear() BOOST_NOEXCEPT { table_.clear_impl(); }

  000c7	83 65 fc 00	 and	 DWORD PTR __$EHRec$[ebp+8], 0
  000cb	8b 4d dc	 mov	 ecx, DWORD PTR _this$[ebp]
  000ce	81 c1 48 14 00
	00		 add	 ecx, 5192		; 00001448H
  000d4	e8 00 00 00 00	 call	 ?clear_impl@?$table@U?$map@V?$allocator@U?$pair@$$CBKUSCache@CEterPackManager@@@std@@@std@@KUSCache@CEterPackManager@@U?$hash@K@boost@@U?$equal_to@K@2@@detail@unordered@boost@@@detail@unordered@boost@@QAEXXZ ; boost::unordered::detail::table<boost::unordered::detail::map<std::allocator<std::pair<unsigned long const ,CEterPackManager::SCache> >,unsigned long,CEterPackManager::SCache,boost::hash<unsigned long>,std::equal_to<unsigned long> > >::clear_impl
  000d9	83 4d fc ff	 or	 DWORD PTR __$EHRec$[ebp+8], -1
; File D:\Metin2 Server Files\mainline\SRC_2014\Metin2Client\EterPack\EterPackManager.cpp

; 141  : }

  000dd	8b 4d f4	 mov	 ecx, DWORD PTR __$EHRec$[ebp]
  000e0	64 89 0d 00 00
	00 00		 mov	 DWORD PTR fs:0, ecx
  000e7	59		 pop	 ecx
  000e8	c9		 leave
  000e9	c3		 ret	 0
  000ea	cc		 int	 3
  000eb	cc		 int	 3
  000ec	cc		 int	 3
  000ed	cc		 int	 3
  000ee	cc		 int	 3
_TEXT	ENDS
;	COMDAT text$x
text$x	SEGMENT
__ehhandler$?__ClearCacheMap@CEterPackManager@@IAEXXZ:
  00000	90		 npad	 1
  00001	90		 npad	 1
  00002	8b 54 24 08	 mov	 edx, DWORD PTR [esp+8]
  00006	8d 42 0c	 lea	 eax, DWORD PTR [edx+12]
  00009	8b 4a c8	 mov	 ecx, DWORD PTR [edx-56]
  0000c	33 c8		 xor	 ecx, eax
  0000e	e8 00 00 00 00	 call	 @__security_check_cookie@4
  00013	b8 00 00 00 00	 mov	 eax, OFFSET __ehfuncinfo$?__ClearCacheMap@CEterPackManager@@IAEXXZ
  00018	e9 00 00 00 00	 jmp	 ___CxxFrameHandler3
text$x	ENDS
?__ClearCacheMap@CEterPackManager@@IAEXXZ ENDP		; CEterPackManager::__ClearCacheMap
; Function compile flags: /Odspy
; File D:\Metin2 Server Files\mainline\SRC_2014\Metin2Client\EterPack\EterPackManager.cpp
; File D:\Metin2 Server Files\mainline\SRC_2014\M2Data\include\boost\unordered\detail\implementation.hpp
; File D:\Metin2 Server Files\mainline\SRC_2014\M2Data\include\boost\unordered\unordered_map.hpp
; File D:\Metin2 Server Files\mainline\SRC_2014\M2Data\include\boost\unordered\detail\implementation.hpp
; File D:\Metin2 Server Files\mainline\SRC_2014\Metin2Client\EterPack\EterPackManager.cpp
;	COMDAT ?__FindCache@CEterPackManager@@IAEPAUSCache@1@K@Z
_TEXT	SEGMENT
$T1 = -24						; size = 4
$T2 = -20						; size = 4
_this$ = -16						; size = 4
_f$ = -12						; size = 4
tv80 = -8						; size = 4
$T3 = -1						; size = 1
_dwFileNameHash$ = 8					; size = 4
?__FindCache@CEterPackManager@@IAEPAUSCache@1@K@Z PROC	; CEterPackManager::__FindCache, COMDAT
; _this$ = ecx

; 125  : {	

  00000	55		 push	 ebp
  00001	8b ec		 mov	 ebp, esp
  00003	83 ec 18	 sub	 esp, 24			; 00000018H
  00006	89 4d f0	 mov	 DWORD PTR _this$[ebp], ecx

; 126  : 	boost::unordered_map<DWORD, SCache>::iterator f=m_kMap_dwNameKey_kCache.find(dwFileNameHash);

  00009	8d 45 08	 lea	 eax, DWORD PTR _dwFileNameHash$[ebp]
  0000c	50		 push	 eax
  0000d	8d 45 f4	 lea	 eax, DWORD PTR _f$[ebp]
  00010	50		 push	 eax
  00011	8b 4d f0	 mov	 ecx, DWORD PTR _this$[ebp]
  00014	81 c1 48 14 00
	00		 add	 ecx, 5192		; 00001448H
  0001a	e8 00 00 00 00	 call	 ?find@?$unordered_map@KUSCache@CEterPackManager@@U?$hash@K@boost@@U?$equal_to@K@std@@V?$allocator@U?$pair@$$CBKUSCache@CEterPackManager@@@std@@@6@@unordered@boost@@QAE?AU?$iterator@U?$ptr_node@U?$pair@$$CBKUSCache@CEterPackManager@@@std@@@detail@unordered@boost@@@iterator_detail@23@ABK@Z ; boost::unordered::unordered_map<unsigned long,CEterPackManager::SCache,boost::hash<unsigned long>,std::equal_to<unsigned long>,std::allocator<std::pair<unsigned long const ,CEterPackManager::SCache> > >::find
; File D:\Metin2 Server Files\mainline\SRC_2014\M2Data\include\boost\unordered\detail\implementation.hpp

; 2368 :         iterator() BOOST_NOEXCEPT : node_() {}

  0001f	83 65 ec 00	 and	 DWORD PTR $T2[ebp], 0
; File D:\Metin2 Server Files\mainline\SRC_2014\M2Data\include\boost\unordered\unordered_map.hpp

; 200  :       iterator end() BOOST_NOEXCEPT { return iterator(); }

  00023	8d 45 ec	 lea	 eax, DWORD PTR $T2[ebp]
  00026	89 45 e8	 mov	 DWORD PTR $T1[ebp], eax
; File D:\Metin2 Server Files\mainline\SRC_2014\M2Data\include\boost\unordered\detail\implementation.hpp

; 2394 :           return node_ == x.node_;

  00029	8b 45 e8	 mov	 eax, DWORD PTR $T1[ebp]
  0002c	8b 00		 mov	 eax, DWORD PTR [eax]
  0002e	3b 45 f4	 cmp	 eax, DWORD PTR _f$[ebp]
  00031	75 09		 jne	 SHORT $LN12@FindCache
  00033	c7 45 f8 01 00
	00 00		 mov	 DWORD PTR tv80[ebp], 1
  0003a	eb 04		 jmp	 SHORT $LN13@FindCache
$LN12@FindCache:
  0003c	83 65 f8 00	 and	 DWORD PTR tv80[ebp], 0
$LN13@FindCache:
  00040	8a 45 f8	 mov	 al, BYTE PTR tv80[ebp]
  00043	88 45 ff	 mov	 BYTE PTR $T3[ebp], al
; File D:\Metin2 Server Files\mainline\SRC_2014\Metin2Client\EterPack\EterPackManager.cpp

; 127  : 	if (m_kMap_dwNameKey_kCache.end()==f)

  00046	0f b6 45 ff	 movzx	 eax, BYTE PTR $T3[ebp]
  0004a	85 c0		 test	 eax, eax
  0004c	74 04		 je	 SHORT $LN15@FindCache

; 128  : 		return NULL;

  0004e	33 c0		 xor	 eax, eax
  00050	eb 06		 jmp	 SHORT $LN1@FindCache
$LN15@FindCache:

; 129  : 
; 130  : 	return &f->second;

  00052	8b 45 f4	 mov	 eax, DWORD PTR _f$[ebp]
  00055	83 c0 0c	 add	 eax, 12			; 0000000cH
$LN1@FindCache:

; 131  : }

  00058	c9		 leave
  00059	c2 04 00	 ret	 4
?__FindCache@CEterPackManager@@IAEPAUSCache@1@K@Z ENDP	; CEterPackManager::__FindCache
_TEXT	ENDS
; Function compile flags: /Odspy
; File D:\Metin2 Server Files\mainline\SRC_2014\Metin2Client\EterPack\EterPackManager.cpp
; File C:\Program Files (x86)\Microsoft Visual Studio\2019\Community\VC\Tools\MSVC\14.28.29333\include\xstring
; File C:\Program Files (x86)\Microsoft Visual Studio\2019\Community\VC\Tools\MSVC\14.28.29333\include\xmemory
; File C:\Program Files (x86)\Microsoft Visual Studio\2019\Community\VC\Tools\MSVC\14.28.29333\include\xstring
; File D:\Metin2 Server Files\mainline\SRC_2014\Metin2Client\EterPack\EterPackManager.cpp
; File C:\Program Files (x86)\Microsoft Visual Studio\2019\Community\VC\Tools\MSVC\14.28.29333\include\xstring
; File D:\Metin2 Server Files\mainline\SRC_2014\Metin2Client\EterPack\EterPackManager.cpp
; File D:\Metin2 Server Files\mainline\SRC_2014\M2Data\include\boost\unordered\unordered_map.hpp
; File D:\Metin2 Server Files\mainline\SRC_2014\M2Data\include\boost\unordered\detail\implementation.hpp
; File D:\Metin2 Server Files\mainline\SRC_2014\Metin2Client\EterPack\EterPackManager.cpp
; File D:\Metin2 Server Files\mainline\SRC_2014\M2Data\include\boost\unordered\detail\implementation.hpp
; File D:\Metin2 Server Files\mainline\SRC_2014\M2Data\include\boost\unordered\unordered_map.hpp
; File D:\Metin2 Server Files\mainline\SRC_2014\M2Data\include\boost\unordered\detail\implementation.hpp
; File D:\Metin2 Server Files\mainline\SRC_2014\Metin2Client\EterPack\EterPackManager.cpp
; File C:\Program Files (x86)\Microsoft Visual Studio\2019\Community\VC\Tools\MSVC\14.28.29333\include\xstring
; File D:\Metin2 Server Files\mainline\SRC_2014\Metin2Client\EterPack\EterPackManager.cpp
; File C:\Program Files (x86)\Microsoft Visual Studio\2019\Community\VC\Tools\MSVC\14.28.29333\include\xstring
; File D:\Metin2 Server Files\mainline\SRC_2014\Metin2Client\EterPack\EterPackManager.cpp
; File C:\Program Files (x86)\Microsoft Visual Studio\2019\Community\VC\Tools\MSVC\14.28.29333\include\xstring
; File D:\Metin2 Server Files\mainline\SRC_2014\Metin2Client\EterPack\EterPackManager.cpp
;	COMDAT ?FindPack@CEterPackManager@@IAEPAVCEterPack@@PBD@Z
_TEXT	SEGMENT
$T2 = -108						; size = 4
$T3 = -104						; size = 4
$T4 = -100						; size = 4
_pEterPack$5 = -96					; size = 4
$T6 = -92						; size = 4
$T7 = -88						; size = 4
$T8 = -84						; size = 4
$T9 = -80						; size = 4
$T10 = -76						; size = 4
_this$ = -72						; size = 4
_c_rstrName$11 = -68					; size = 4
tv75 = -64						; size = 4
$T12 = -60						; size = 4
_this$ = -56						; size = 4
_this$ = -52						; size = 4
_itor$13 = -48						; size = 4
$T14 = -41						; size = 1
_strFileName$ = -40					; size = 24
__$ArrayPad$ = -16					; size = 4
__$EHRec$ = -12						; size = 12
_c_szPathName$ = 8					; size = 4
?FindPack@CEterPackManager@@IAEPAVCEterPack@@PBD@Z PROC	; CEterPackManager::FindPack, COMDAT
; _this$ = ecx

; 21   : {

  00000	55		 push	 ebp
  00001	8b ec		 mov	 ebp, esp
  00003	6a ff		 push	 -1
  00005	68 00 00 00 00	 push	 __ehhandler$?FindPack@CEterPackManager@@IAEPAVCEterPack@@PBD@Z
  0000a	64 a1 00 00 00
	00		 mov	 eax, DWORD PTR fs:0
  00010	50		 push	 eax
  00011	83 ec 60	 sub	 esp, 96			; 00000060H
  00014	a1 00 00 00 00	 mov	 eax, DWORD PTR ___security_cookie
  00019	33 c5		 xor	 eax, ebp
  0001b	89 45 f0	 mov	 DWORD PTR __$ArrayPad$[ebp], eax
  0001e	50		 push	 eax
  0001f	8d 45 f4	 lea	 eax, DWORD PTR __$EHRec$[ebp]
  00022	64 a3 00 00 00
	00		 mov	 DWORD PTR fs:0, eax
  00028	89 4d cc	 mov	 DWORD PTR _this$[ebp], ecx
; File C:\Program Files (x86)\Microsoft Visual Studio\2019\Community\VC\Tools\MSVC\14.28.29333\include\xstring

; 2365 :     basic_string() noexcept(is_nothrow_default_constructible_v<_Alty>) : _Mypair(_Zero_then_variadic_args_t{}) {

  0002b	8d 45 d8	 lea	 eax, DWORD PTR _strFileName$[ebp]
  0002e	89 45 b8	 mov	 DWORD PTR _this$[ebp], eax
; File C:\Program Files (x86)\Microsoft Visual Studio\2019\Community\VC\Tools\MSVC\14.28.29333\include\xmemory

; 1339 :         : _Ty1(), _Myval2(_STD forward<_Other2>(_Val2)...) {}

  00031	8b 4d b8	 mov	 ecx, DWORD PTR _this$[ebp]
  00034	e8 00 00 00 00	 call	 ??0?$_String_val@U?$_Simple_types@D@std@@@std@@QAE@XZ ; std::_String_val<std::_Simple_types<char> >::_String_val<std::_Simple_types<char> >
; File C:\Program Files (x86)\Microsoft Visual Studio\2019\Community\VC\Tools\MSVC\14.28.29333\include\xstring

; 2367 :         _Tidy_init();

  00039	8d 4d d8	 lea	 ecx, DWORD PTR _strFileName$[ebp]
  0003c	e8 00 00 00 00	 call	 ?_Tidy_init@?$basic_string@DU?$char_traits@D@std@@V?$allocator@D@2@@std@@AAEXXZ ; std::basic_string<char,std::char_traits<char>,std::allocator<char> >::_Tidy_init
; File D:\Metin2 Server Files\mainline\SRC_2014\Metin2Client\EterPack\EterPackManager.cpp

; 22   : 	std::string strFileName;

  00041	83 65 fc 00	 and	 DWORD PTR __$EHRec$[ebp+8], 0

; 23   : 
; 24   : 	if (0 == ConvertFileName(c_szPathName, strFileName))

  00045	8d 45 d8	 lea	 eax, DWORD PTR _strFileName$[ebp]
  00048	50		 push	 eax
  00049	ff 75 08	 push	 DWORD PTR _c_szPathName$[ebp]
  0004c	8b 4d cc	 mov	 ecx, DWORD PTR _this$[ebp]
  0004f	e8 00 00 00 00	 call	 ?ConvertFileName@CEterPackManager@@IAEHPBDAAV?$basic_string@DU?$char_traits@D@std@@V?$allocator@D@2@@std@@@Z ; CEterPackManager::ConvertFileName
  00054	85 c0		 test	 eax, eax
  00056	75 22		 jne	 SHORT $LN5@FindPack

; 26   : 		return &m_RootPack;

  00058	8b 45 cc	 mov	 eax, DWORD PTR _this$[ebp]
  0005b	83 c0 24	 add	 eax, 36			; 00000024H
  0005e	89 45 b4	 mov	 DWORD PTR $T10[ebp], eax
  00061	83 4d fc ff	 or	 DWORD PTR __$EHRec$[ebp+8], -1
; File C:\Program Files (x86)\Microsoft Visual Studio\2019\Community\VC\Tools\MSVC\14.28.29333\include\xstring

; 2801 :         _Tidy_deallocate();

  00065	8d 4d d8	 lea	 ecx, DWORD PTR _strFileName$[ebp]
  00068	e8 00 00 00 00	 call	 ?_Tidy_deallocate@?$basic_string@DU?$char_traits@D@std@@V?$allocator@D@2@@std@@AAEXXZ ; std::basic_string<char,std::char_traits<char>,std::allocator<char> >::_Tidy_deallocate
; File D:\Metin2 Server Files\mainline\SRC_2014\Metin2Client\EterPack\EterPackManager.cpp

; 26   : 		return &m_RootPack;

  0006d	8b 45 b4	 mov	 eax, DWORD PTR $T10[ebp]
  00070	e9 ec 00 00 00	 jmp	 $LN1@FindPack

; 27   : 	}

  00075	e9 d4 00 00 00	 jmp	 $LN6@FindPack
$LN5@FindPack:
; File D:\Metin2 Server Files\mainline\SRC_2014\M2Data\include\boost\unordered\unordered_map.hpp

; 193  :       iterator begin() BOOST_NOEXCEPT { return iterator(table_.begin()); }

  0007a	8b 45 cc	 mov	 eax, DWORD PTR _this$[ebp]
  0007d	05 30 14 00 00	 add	 eax, 5168		; 00001430H
  00082	89 45 c8	 mov	 DWORD PTR _this$[ebp], eax
; File D:\Metin2 Server Files\mainline\SRC_2014\M2Data\include\boost\unordered\detail\implementation.hpp

; 3041 :           return size_ ? next_node(get_previous_start()) : node_pointer();

  00085	8b 45 c8	 mov	 eax, DWORD PTR _this$[ebp]
  00088	83 78 08 00	 cmp	 DWORD PTR [eax+8], 0
  0008c	74 22		 je	 SHORT $LN39@FindPack

; 3026 :           return buckets_ + static_cast<std::ptrdiff_t>(bucket_index);

  0008e	8b 45 c8	 mov	 eax, DWORD PTR _this$[ebp]
  00091	8b 40 04	 mov	 eax, DWORD PTR [eax+4]
  00094	8b 4d c8	 mov	 ecx, DWORD PTR _this$[ebp]
  00097	8b 49 14	 mov	 ecx, DWORD PTR [ecx+20]
  0009a	8d 04 81	 lea	 eax, DWORD PTR [ecx+eax*4]
  0009d	89 45 b0	 mov	 DWORD PTR $T9[ebp], eax

; 3041 :           return size_ ? next_node(get_previous_start()) : node_pointer();

  000a0	8b 45 94	 mov	 eax, DWORD PTR $T2[ebp]
  000a3	89 45 c4	 mov	 DWORD PTR $T12[ebp], eax

; 2964 :           return static_cast<node_pointer>(n->next_);

  000a6	8b 45 b0	 mov	 eax, DWORD PTR $T9[ebp]
  000a9	8b 00		 mov	 eax, DWORD PTR [eax]
  000ab	89 45 c4	 mov	 DWORD PTR $T12[ebp], eax

; 3041 :           return size_ ? next_node(get_previous_start()) : node_pointer();

  000ae	eb 04		 jmp	 SHORT $LN37@FindPack
$LN39@FindPack:
  000b0	83 65 c4 00	 and	 DWORD PTR $T12[ebp], 0
$LN37@FindPack:

; 2371 :           : node_(static_cast<node_pointer>(x))

  000b4	8b 45 c4	 mov	 eax, DWORD PTR $T12[ebp]
  000b7	89 45 d0	 mov	 DWORD PTR _itor$13[ebp], eax
; File D:\Metin2 Server Files\mainline\SRC_2014\Metin2Client\EterPack\EterPackManager.cpp

; 30   : 		for (TEterPackMap::iterator itor = m_DirPackMap.begin(); itor != m_DirPackMap.end(); ++itor)

  000ba	eb 08		 jmp	 SHORT $LN4@FindPack
$LN2@FindPack:
; File D:\Metin2 Server Files\mainline\SRC_2014\M2Data\include\boost\unordered\detail\implementation.hpp

; 2381 :           node_ = static_cast<node_pointer>(node_->next_);

  000bc	8b 45 d0	 mov	 eax, DWORD PTR _itor$13[ebp]
  000bf	8b 00		 mov	 eax, DWORD PTR [eax]
  000c1	89 45 d0	 mov	 DWORD PTR _itor$13[ebp], eax
$LN4@FindPack:

; 2368 :         iterator() BOOST_NOEXCEPT : node_() {}

  000c4	83 65 ac 00	 and	 DWORD PTR $T8[ebp], 0
; File D:\Metin2 Server Files\mainline\SRC_2014\M2Data\include\boost\unordered\unordered_map.hpp

; 200  :       iterator end() BOOST_NOEXCEPT { return iterator(); }

  000c8	8d 45 ac	 lea	 eax, DWORD PTR $T8[ebp]
  000cb	89 45 a8	 mov	 DWORD PTR $T7[ebp], eax
; File D:\Metin2 Server Files\mainline\SRC_2014\M2Data\include\boost\unordered\detail\implementation.hpp

; 2399 :           return node_ != x.node_;

  000ce	8b 45 a8	 mov	 eax, DWORD PTR $T7[ebp]
  000d1	8b 4d d0	 mov	 ecx, DWORD PTR _itor$13[ebp]
  000d4	3b 08		 cmp	 ecx, DWORD PTR [eax]
  000d6	74 09		 je	 SHORT $LN62@FindPack
  000d8	c7 45 c0 01 00
	00 00		 mov	 DWORD PTR tv75[ebp], 1
  000df	eb 04		 jmp	 SHORT $LN63@FindPack
$LN62@FindPack:
  000e1	83 65 c0 00	 and	 DWORD PTR tv75[ebp], 0
$LN63@FindPack:
  000e5	8a 45 c0	 mov	 al, BYTE PTR tv75[ebp]
  000e8	88 45 d7	 mov	 BYTE PTR $T14[ebp], al
; File D:\Metin2 Server Files\mainline\SRC_2014\Metin2Client\EterPack\EterPackManager.cpp

; 30   : 		for (TEterPackMap::iterator itor = m_DirPackMap.begin(); itor != m_DirPackMap.end(); ++itor)

  000eb	0f b6 45 d7	 movzx	 eax, BYTE PTR $T14[ebp]
  000ef	85 c0		 test	 eax, eax
  000f1	74 5b		 je	 SHORT $LN6@FindPack

; 31   : 		{
; 32   : 			const std::string & c_rstrName = itor->first;

  000f3	8b 45 d0	 mov	 eax, DWORD PTR _itor$13[ebp]
  000f6	83 c0 08	 add	 eax, 8
  000f9	89 45 bc	 mov	 DWORD PTR _c_rstrName$11[ebp], eax

; 33   : 			CEterPack * pEterPack = itor->second;

  000fc	8b 45 d0	 mov	 eax, DWORD PTR _itor$13[ebp]
  000ff	8b 40 20	 mov	 eax, DWORD PTR [eax+32]
  00102	89 45 a0	 mov	 DWORD PTR _pEterPack$5[ebp], eax
; File C:\Program Files (x86)\Microsoft Visual Studio\2019\Community\VC\Tools\MSVC\14.28.29333\include\xstring

; 3766 :         return _Mypair._Myval2._Mysize;

  00105	8b 45 bc	 mov	 eax, DWORD PTR _c_rstrName$11[ebp]
  00108	8b 40 10	 mov	 eax, DWORD PTR [eax+16]
  0010b	89 45 a4	 mov	 DWORD PTR $T6[ebp], eax
; File D:\Metin2 Server Files\mainline\SRC_2014\Metin2Client\EterPack\EterPackManager.cpp

; 35   : 			if (CompareName(c_rstrName.c_str(), c_rstrName.length(), strFileName.c_str()))

  0010e	8d 4d d8	 lea	 ecx, DWORD PTR _strFileName$[ebp]
  00111	e8 00 00 00 00	 call	 ?c_str@?$basic_string@DU?$char_traits@D@std@@V?$allocator@D@2@@std@@QBEPBDXZ ; std::basic_string<char,std::char_traits<char>,std::allocator<char> >::c_str
  00116	50		 push	 eax
  00117	ff 75 a4	 push	 DWORD PTR $T6[ebp]
  0011a	8b 4d bc	 mov	 ecx, DWORD PTR _c_rstrName$11[ebp]
  0011d	e8 00 00 00 00	 call	 ?c_str@?$basic_string@DU?$char_traits@D@std@@V?$allocator@D@2@@std@@QBEPBDXZ ; std::basic_string<char,std::char_traits<char>,std::allocator<char> >::c_str
  00122	50		 push	 eax
  00123	8b 4d cc	 mov	 ecx, DWORD PTR _this$[ebp]
  00126	e8 00 00 00 00	 call	 ?CompareName@CEterPackManager@@IAE_NPBDK0@Z ; CEterPackManager::CompareName
  0012b	0f b6 c0	 movzx	 eax, al
  0012e	85 c0		 test	 eax, eax
  00130	74 17		 je	 SHORT $LN7@FindPack

; 37   : 				return pEterPack;

  00132	8b 45 a0	 mov	 eax, DWORD PTR _pEterPack$5[ebp]
  00135	89 45 9c	 mov	 DWORD PTR $T4[ebp], eax
  00138	83 4d fc ff	 or	 DWORD PTR __$EHRec$[ebp+8], -1
; File C:\Program Files (x86)\Microsoft Visual Studio\2019\Community\VC\Tools\MSVC\14.28.29333\include\xstring

; 2801 :         _Tidy_deallocate();

  0013c	8d 4d d8	 lea	 ecx, DWORD PTR _strFileName$[ebp]
  0013f	e8 00 00 00 00	 call	 ?_Tidy_deallocate@?$basic_string@DU?$char_traits@D@std@@V?$allocator@D@2@@std@@AAEXXZ ; std::basic_string<char,std::char_traits<char>,std::allocator<char> >::_Tidy_deallocate
; File D:\Metin2 Server Files\mainline\SRC_2014\Metin2Client\EterPack\EterPackManager.cpp

; 37   : 				return pEterPack;

  00144	8b 45 9c	 mov	 eax, DWORD PTR $T4[ebp]
  00147	eb 18		 jmp	 SHORT $LN1@FindPack
$LN7@FindPack:

; 38   : 			}
; 39   : 		}

  00149	e9 6e ff ff ff	 jmp	 $LN2@FindPack
$LN6@FindPack:

; 42   : 	return NULL;

  0014e	83 65 98 00	 and	 DWORD PTR $T3[ebp], 0
  00152	83 4d fc ff	 or	 DWORD PTR __$EHRec$[ebp+8], -1
; File C:\Program Files (x86)\Microsoft Visual Studio\2019\Community\VC\Tools\MSVC\14.28.29333\include\xstring

; 2801 :         _Tidy_deallocate();

  00156	8d 4d d8	 lea	 ecx, DWORD PTR _strFileName$[ebp]
  00159	e8 00 00 00 00	 call	 ?_Tidy_deallocate@?$basic_string@DU?$char_traits@D@std@@V?$allocator@D@2@@std@@AAEXXZ ; std::basic_string<char,std::char_traits<char>,std::allocator<char> >::_Tidy_deallocate
; File D:\Metin2 Server Files\mainline\SRC_2014\Metin2Client\EterPack\EterPackManager.cpp

; 42   : 	return NULL;

  0015e	8b 45 98	 mov	 eax, DWORD PTR $T3[ebp]
$LN1@FindPack:

; 43   : }

  00161	8b 4d f4	 mov	 ecx, DWORD PTR __$EHRec$[ebp]
  00164	64 89 0d 00 00
	00 00		 mov	 DWORD PTR fs:0, ecx
  0016b	59		 pop	 ecx
  0016c	8b 4d f0	 mov	 ecx, DWORD PTR __$ArrayPad$[ebp]
  0016f	33 cd		 xor	 ecx, ebp
  00171	e8 00 00 00 00	 call	 @__security_check_cookie@4
  00176	c9		 leave
  00177	c2 04 00	 ret	 4
_TEXT	ENDS
;	COMDAT text$x
text$x	SEGMENT
__unwindfunclet$?FindPack@CEterPackManager@@IAEPAVCEterPack@@PBD@Z$0:
  00000	8d 4d d8	 lea	 ecx, DWORD PTR _strFileName$[ebp]
  00003	e9 00 00 00 00	 jmp	 ??1?$basic_string@DU?$char_traits@D@std@@V?$allocator@D@2@@std@@QAE@XZ ; std::basic_string<char,std::char_traits<char>,std::allocator<char> >::~basic_string<char,std::char_traits<char>,std::allocator<char> >
  00008	cc		 int	 3
  00009	cc		 int	 3
  0000a	cc		 int	 3
  0000b	cc		 int	 3
  0000c	cc		 int	 3
__ehhandler$?FindPack@CEterPackManager@@IAEPAVCEterPack@@PBD@Z:
  0000d	90		 npad	 1
  0000e	90		 npad	 1
  0000f	8b 54 24 08	 mov	 edx, DWORD PTR [esp+8]
  00013	8d 42 0c	 lea	 eax, DWORD PTR [edx+12]
  00016	8b 4a 9c	 mov	 ecx, DWORD PTR [edx-100]
  00019	33 c8		 xor	 ecx, eax
  0001b	e8 00 00 00 00	 call	 @__security_check_cookie@4
  00020	8b 4a fc	 mov	 ecx, DWORD PTR [edx-4]
  00023	33 c8		 xor	 ecx, eax
  00025	e8 00 00 00 00	 call	 @__security_check_cookie@4
  0002a	b8 00 00 00 00	 mov	 eax, OFFSET __ehfuncinfo$?FindPack@CEterPackManager@@IAEPAVCEterPack@@PBD@Z
  0002f	e9 00 00 00 00	 jmp	 ___CxxFrameHandler3
text$x	ENDS
?FindPack@CEterPackManager@@IAEPAVCEterPack@@PBD@Z ENDP	; CEterPackManager::FindPack
; Function compile flags: /Odspy
; File D:\Metin2 Server Files\mainline\SRC_2014\Metin2Client\EterPack\EterPackManager.cpp
;	COMDAT ?CompareName@CEterPackManager@@IAE_NPBDK0@Z
_TEXT	SEGMENT
_this$ = -20						; size = 4
tv72 = -16						; size = 4
tv71 = -12						; size = 4
_c_pszCmp$ = -8						; size = 4
_c_pszSrc$ = -4						; size = 4
_c_szDirectoryName$ = 8					; size = 4
___formal$ = 12						; size = 4
_c_szFileName$ = 16					; size = 4
?CompareName@CEterPackManager@@IAE_NPBDK0@Z PROC	; CEterPackManager::CompareName, COMDAT
; _this$ = ecx

; 79   : {

  00000	55		 push	 ebp
  00001	8b ec		 mov	 ebp, esp
  00003	83 ec 14	 sub	 esp, 20			; 00000014H
  00006	89 4d ec	 mov	 DWORD PTR _this$[ebp], ecx

; 80   : 	const char * c_pszSrc = c_szDirectoryName;

  00009	8b 45 08	 mov	 eax, DWORD PTR _c_szDirectoryName$[ebp]
  0000c	89 45 fc	 mov	 DWORD PTR _c_pszSrc$[ebp], eax

; 81   : 	const char * c_pszCmp = c_szFileName;

  0000f	8b 45 10	 mov	 eax, DWORD PTR _c_szFileName$[ebp]
  00012	89 45 f8	 mov	 DWORD PTR _c_pszCmp$[ebp], eax
$LN2@CompareNam:

; 82   : 
; 83   : 	while (*c_pszSrc)

  00015	8b 45 fc	 mov	 eax, DWORD PTR _c_pszSrc$[ebp]
  00018	0f be 00	 movsx	 eax, BYTE PTR [eax]
  0001b	85 c0		 test	 eax, eax
  0001d	74 3c		 je	 SHORT $LN3@CompareNam

; 84   : 	{
; 85   : 		if (*(c_pszSrc++) != *(c_pszCmp++))

  0001f	8b 45 fc	 mov	 eax, DWORD PTR _c_pszSrc$[ebp]
  00022	0f be 00	 movsx	 eax, BYTE PTR [eax]
  00025	89 45 f4	 mov	 DWORD PTR tv71[ebp], eax
  00028	8b 45 f8	 mov	 eax, DWORD PTR _c_pszCmp$[ebp]
  0002b	0f be 00	 movsx	 eax, BYTE PTR [eax]
  0002e	89 45 f0	 mov	 DWORD PTR tv72[ebp], eax
  00031	8b 45 f8	 mov	 eax, DWORD PTR _c_pszCmp$[ebp]
  00034	40		 inc	 eax
  00035	89 45 f8	 mov	 DWORD PTR _c_pszCmp$[ebp], eax
  00038	8b 45 fc	 mov	 eax, DWORD PTR _c_pszSrc$[ebp]
  0003b	40		 inc	 eax
  0003c	89 45 fc	 mov	 DWORD PTR _c_pszSrc$[ebp], eax
  0003f	8b 45 f4	 mov	 eax, DWORD PTR tv71[ebp]
  00042	3b 45 f0	 cmp	 eax, DWORD PTR tv72[ebp]
  00045	74 04		 je	 SHORT $LN4@CompareNam

; 86   : 			return false;

  00047	32 c0		 xor	 al, al
  00049	eb 12		 jmp	 SHORT $LN1@CompareNam
$LN4@CompareNam:

; 87   : 
; 88   : 		if (!*c_pszCmp)

  0004b	8b 45 f8	 mov	 eax, DWORD PTR _c_pszCmp$[ebp]
  0004e	0f be 00	 movsx	 eax, BYTE PTR [eax]
  00051	85 c0		 test	 eax, eax
  00053	75 04		 jne	 SHORT $LN5@CompareNam

; 89   : 			return false;

  00055	32 c0		 xor	 al, al
  00057	eb 04		 jmp	 SHORT $LN1@CompareNam
$LN5@CompareNam:

; 90   : 	}

  00059	eb ba		 jmp	 SHORT $LN2@CompareNam
$LN3@CompareNam:

; 91   : 
; 92   : 	return true;

  0005b	b0 01		 mov	 al, 1
$LN1@CompareNam:

; 93   : }

  0005d	c9		 leave
  0005e	c2 0c 00	 ret	 12			; 0000000cH
?CompareName@CEterPackManager@@IAE_NPBDK0@Z ENDP	; CEterPackManager::CompareName
_TEXT	ENDS
; Function compile flags: /Odspy
; File D:\Metin2 Server Files\mainline\SRC_2014\Metin2Client\EterPack\EterPackManager.cpp
; File C:\Program Files (x86)\Microsoft Visual Studio\2019\Community\VC\Tools\MSVC\14.28.29333\include\xstring
; File C:\Program Files (x86)\Microsoft Visual Studio\2019\Community\VC\Tools\MSVC\14.28.29333\include\xmemory
; File C:\Program Files (x86)\Microsoft Visual Studio\2019\Community\VC\Tools\MSVC\14.28.29333\include\xstring
; File D:\Metin2 Server Files\mainline\SRC_2014\Metin2Client\EterPack\EterPackManager.cpp
; File C:\Program Files (x86)\Microsoft Visual Studio\2019\Community\VC\Tools\MSVC\14.28.29333\include\xstring
; File D:\Metin2 Server Files\mainline\SRC_2014\Metin2Client\EterPack\EterPackManager.cpp
;	COMDAT ?ConvertFileName@CEterPackManager@@IAEHPBDAAV?$basic_string@DU?$char_traits@D@std@@V?$allocator@D@2@@std@@@Z
_TEXT	SEGMENT
_this$ = -24						; size = 4
$T1 = -20						; size = 4
$T2 = -16						; size = 4
$T3 = -12						; size = 4
_iCount$ = -8						; size = 4
_i$4 = -4						; size = 4
_c_szFileName$ = 8					; size = 4
_rstrFileName$ = 12					; size = 4
?ConvertFileName@CEterPackManager@@IAEHPBDAAV?$basic_string@DU?$char_traits@D@std@@V?$allocator@D@2@@std@@@Z PROC ; CEterPackManager::ConvertFileName, COMDAT
; _this$ = ecx

; 58   : {

  00000	55		 push	 ebp
  00001	8b ec		 mov	 ebp, esp
  00003	83 ec 18	 sub	 esp, 24			; 00000018H
  00006	89 4d e8	 mov	 DWORD PTR _this$[ebp], ecx
; File C:\Program Files (x86)\Microsoft Visual Studio\2019\Community\VC\Tools\MSVC\14.28.29333\include\xstring

; 389  :         return _CSTD strlen(reinterpret_cast<const char*>(_First));

  00009	ff 75 08	 push	 DWORD PTR _c_szFileName$[ebp]
  0000c	e8 00 00 00 00	 call	 _strlen
  00011	59		 pop	 ecx
  00012	89 45 f4	 mov	 DWORD PTR $T3[ebp], eax
; File C:\Program Files (x86)\Microsoft Visual Studio\2019\Community\VC\Tools\MSVC\14.28.29333\include\xmemory

; 997  :     return _Len;

  00015	8b 45 f4	 mov	 eax, DWORD PTR $T3[ebp]
  00018	89 45 f0	 mov	 DWORD PTR $T2[ebp], eax
; File C:\Program Files (x86)\Microsoft Visual Studio\2019\Community\VC\Tools\MSVC\14.28.29333\include\xstring

; 3062 :         return assign(_Ptr, _Convert_size<size_type>(_Traits::length(_Ptr)));

  0001b	ff 75 f0	 push	 DWORD PTR $T2[ebp]
  0001e	ff 75 08	 push	 DWORD PTR _c_szFileName$[ebp]
  00021	8b 4d 0c	 mov	 ecx, DWORD PTR _rstrFileName$[ebp]
  00024	e8 00 00 00 00	 call	 ?assign@?$basic_string@DU?$char_traits@D@std@@V?$allocator@D@2@@std@@QAEAAV12@QBDI@Z ; std::basic_string<char,std::char_traits<char>,std::allocator<char> >::assign
; File D:\Metin2 Server Files\mainline\SRC_2014\Metin2Client\EterPack\EterPackManager.cpp

; 60   : 	stl_lowers(rstrFileName);

  00029	ff 75 0c	 push	 DWORD PTR _rstrFileName$[ebp]
  0002c	e8 00 00 00 00	 call	 ?stl_lowers@@YAXAAV?$basic_string@DU?$char_traits@D@std@@V?$allocator@D@2@@std@@@Z ; stl_lowers
  00031	59		 pop	 ecx

; 61   : 
; 62   : 	int iCount = 0;

  00032	83 65 f8 00	 and	 DWORD PTR _iCount$[ebp], 0

; 64   : 	for (DWORD i = 0; i < rstrFileName.length(); ++i)

  00036	83 65 fc 00	 and	 DWORD PTR _i$4[ebp], 0
  0003a	eb 07		 jmp	 SHORT $LN4@ConvertFil
$LN2@ConvertFil:
  0003c	8b 45 fc	 mov	 eax, DWORD PTR _i$4[ebp]
  0003f	40		 inc	 eax
  00040	89 45 fc	 mov	 DWORD PTR _i$4[ebp], eax
$LN4@ConvertFil:
; File C:\Program Files (x86)\Microsoft Visual Studio\2019\Community\VC\Tools\MSVC\14.28.29333\include\xstring

; 3766 :         return _Mypair._Myval2._Mysize;

  00043	8b 45 0c	 mov	 eax, DWORD PTR _rstrFileName$[ebp]
  00046	8b 40 10	 mov	 eax, DWORD PTR [eax+16]
  00049	89 45 ec	 mov	 DWORD PTR $T1[ebp], eax
; File D:\Metin2 Server Files\mainline\SRC_2014\Metin2Client\EterPack\EterPackManager.cpp

; 64   : 	for (DWORD i = 0; i < rstrFileName.length(); ++i)

  0004c	8b 45 fc	 mov	 eax, DWORD PTR _i$4[ebp]
  0004f	3b 45 ec	 cmp	 eax, DWORD PTR $T1[ebp]
  00052	73 46		 jae	 SHORT $LN3@ConvertFil

; 65   : 	{
; 66   : 		if (rstrFileName[i] == '/')

  00054	ff 75 fc	 push	 DWORD PTR _i$4[ebp]
  00057	8b 4d 0c	 mov	 ecx, DWORD PTR _rstrFileName$[ebp]
  0005a	e8 00 00 00 00	 call	 ??A?$basic_string@DU?$char_traits@D@std@@V?$allocator@D@2@@std@@QAEAADI@Z ; std::basic_string<char,std::char_traits<char>,std::allocator<char> >::operator[]
  0005f	0f be 00	 movsx	 eax, BYTE PTR [eax]
  00062	83 f8 2f	 cmp	 eax, 47			; 0000002fH
  00065	75 09		 jne	 SHORT $LN5@ConvertFil

; 67   : 			++iCount;

  00067	8b 45 f8	 mov	 eax, DWORD PTR _iCount$[ebp]
  0006a	40		 inc	 eax
  0006b	89 45 f8	 mov	 DWORD PTR _iCount$[ebp], eax
  0006e	eb 28		 jmp	 SHORT $LN6@ConvertFil
$LN5@ConvertFil:

; 68   : 		else if (rstrFileName[i] == '\\')

  00070	ff 75 fc	 push	 DWORD PTR _i$4[ebp]
  00073	8b 4d 0c	 mov	 ecx, DWORD PTR _rstrFileName$[ebp]
  00076	e8 00 00 00 00	 call	 ??A?$basic_string@DU?$char_traits@D@std@@V?$allocator@D@2@@std@@QAEAADI@Z ; std::basic_string<char,std::char_traits<char>,std::allocator<char> >::operator[]
  0007b	0f be 00	 movsx	 eax, BYTE PTR [eax]
  0007e	83 f8 5c	 cmp	 eax, 92			; 0000005cH
  00081	75 15		 jne	 SHORT $LN6@ConvertFil

; 69   : 		{
; 70   : 			rstrFileName[i] = '/';

  00083	ff 75 fc	 push	 DWORD PTR _i$4[ebp]
  00086	8b 4d 0c	 mov	 ecx, DWORD PTR _rstrFileName$[ebp]
  00089	e8 00 00 00 00	 call	 ??A?$basic_string@DU?$char_traits@D@std@@V?$allocator@D@2@@std@@QAEAADI@Z ; std::basic_string<char,std::char_traits<char>,std::allocator<char> >::operator[]
  0008e	c6 00 2f	 mov	 BYTE PTR [eax], 47	; 0000002fH

; 71   : 			++iCount;

  00091	8b 45 f8	 mov	 eax, DWORD PTR _iCount$[ebp]
  00094	40		 inc	 eax
  00095	89 45 f8	 mov	 DWORD PTR _iCount$[ebp], eax
$LN6@ConvertFil:

; 72   : 		}
; 73   : 	}

  00098	eb a2		 jmp	 SHORT $LN2@ConvertFil
$LN3@ConvertFil:

; 74   : 
; 75   : 	return iCount;

  0009a	8b 45 f8	 mov	 eax, DWORD PTR _iCount$[ebp]

; 76   : }

  0009d	c9		 leave
  0009e	c2 08 00	 ret	 8
?ConvertFileName@CEterPackManager@@IAEHPBDAAV?$basic_string@DU?$char_traits@D@std@@V?$allocator@D@2@@std@@@Z ENDP ; CEterPackManager::ConvertFileName
_TEXT	ENDS
; Function compile flags: /Odspy
; File D:\Metin2 Server Files\mainline\SRC_2014\Metin2Client\EterPack\EterPackManager.cpp
;	COMDAT ?ArrangeMemoryMappedPack@CEterPackManager@@QAEXXZ
_TEXT	SEGMENT
_this$ = -4						; size = 4
?ArrangeMemoryMappedPack@CEterPackManager@@QAEXXZ PROC	; CEterPackManager::ArrangeMemoryMappedPack, COMDAT
; _this$ = ecx

; 236  : {

  00000	55		 push	 ebp
  00001	8b ec		 mov	 ebp, esp
  00003	51		 push	 ecx
  00004	89 4d fc	 mov	 DWORD PTR _this$[ebp], ecx

; 237  : 	//time_t curTime = time(NULL);
; 238  : 	//CEterFileDict::TDict dict = m_FileDict.GetDict();
; 239  : 	//for (CEterFileDict::TDict::iterator it = dict.begin(); it != dict.end(); ++it)
; 240  : 	//{
; 241  : 	//	CEterFileDict::Item &rFileItem = it->second;
; 242  : 	//	CEterPack* pkPack = rFileItem.pkPack;
; 243  : 	//	if (pkPack)
; 244  : 	//	{
; 245  : 	//		if (curTime - pkPack->GetLastAccessTime() > g_tCachingInterval)
; 246  : 	//		{
; 247  : 	//			pkPack->ClearDataMemoryMap();
; 248  : 	//		}
; 249  : 	//	}
; 250  : 	//}
; 251  : }

  00007	c9		 leave
  00008	c3		 ret	 0
?ArrangeMemoryMappedPack@CEterPackManager@@QAEXXZ ENDP	; CEterPackManager::ArrangeMemoryMappedPack
_TEXT	ENDS
; Function compile flags: /Odspy
; File D:\Metin2 Server Files\mainline\SRC_2014\Metin2Client\EterPack\EterPackManager.cpp
; File D:\Metin2 Server Files\mainline\SRC_2014\M2Data\include\boost\unordered\detail\implementation.hpp
; File D:\Metin2 Server Files\mainline\SRC_2014\M2Data\include\boost\unordered\unordered_map.hpp
; File D:\Metin2 Server Files\mainline\SRC_2014\M2Data\include\boost\unordered\detail\implementation.hpp
; File D:\Metin2 Server Files\mainline\SRC_2014\M2Data\include\boost\unordered\unordered_map.hpp
; File D:\Metin2 Server Files\mainline\SRC_2014\M2Data\include\boost\unordered\detail\implementation.hpp
; File D:\Metin2 Server Files\mainline\SRC_2014\Metin2Client\EterPack\EterPackManager.cpp
; File D:\Metin2 Server Files\mainline\SRC_2014\M2Data\include\boost\unordered\detail\implementation.hpp
; File D:\Metin2 Server Files\mainline\SRC_2014\M2Data\include\boost\unordered\unordered_map.hpp
; File D:\Metin2 Server Files\mainline\SRC_2014\M2Data\include\boost\unordered\detail\implementation.hpp
; File D:\Metin2 Server Files\mainline\SRC_2014\Metin2Client\EterPack\EterPackManager.cpp
; File D:\Metin2 Server Files\mainline\SRC_2014\M2Data\include\boost\unordered\detail\implementation.hpp
; File D:\Metin2 Server Files\mainline\SRC_2014\Metin2Client\EterPack\EterPackManager.cpp
; File C:\Program Files (x86)\Microsoft Visual Studio\2019\Community\VC\Tools\MSVC\14.28.29333\include\xstring
; File D:\Metin2 Server Files\mainline\SRC_2014\Metin2Client\EterPack\EterPackManager.cpp
; File D:\Metin2 Server Files\mainline\SRC_2014\M2Data\include\boost\unordered\detail\implementation.hpp
; File D:\Metin2 Server Files\mainline\SRC_2014\Metin2Client\EterPack\EterPackManager.cpp
; File C:\Program Files (x86)\Microsoft Visual Studio\2019\Community\VC\Tools\MSVC\14.28.29333\include\xstring
; File D:\Metin2 Server Files\mainline\SRC_2014\Metin2Client\EterPack\EterPackManager.cpp
; File C:\Program Files (x86)\Microsoft Visual Studio\2019\Community\VC\Tools\MSVC\14.28.29333\include\xstring
; File D:\Metin2 Server Files\mainline\SRC_2014\Metin2Client\EterPack\EterPackManager.cpp
;	COMDAT ?RetrieveHybridCryptPackSDB@CEterPackManager@@QAEXPBE@Z
_TEXT	SEGMENT
$T2 = -44						; size = 4
_pCryptPolicy$3 = -40					; size = 4
$T4 = -36						; size = 4
_dwPackgeIdentifier$5 = -32				; size = 4
tv154 = -28						; size = 4
tv138 = -24						; size = 4
$T6 = -20						; size = 4
$T7 = -16						; size = 4
__$EHRec$ = -12						; size = 12
$T8 = 0							; size = 4
$T9 = 4							; size = 4
$T10 = 8						; size = 4
$T11 = 12						; size = 4
$T12 = 16						; size = 4
$T13 = 20						; size = 4
_this$ = 24						; size = 4
tv78 = 28						; size = 4
_iSDBInfoCount$ = 32					; size = 4
$T14 = 36						; size = 4
_this$ = 40						; size = 4
_i$15 = 44						; size = 4
$T16 = 51						; size = 1
_cit$17 = 52						; size = 4
$T18 = 59						; size = 1
_iReadOffset$ = 60					; size = 4
$T19 = 64						; size = 24
_noPathName$20 = 88					; size = 24
__$ArrayPad$ = 112					; size = 4
_pStream$ = 124						; size = 4
?RetrieveHybridCryptPackSDB@CEterPackManager@@QAEXPBE@Z PROC ; CEterPackManager::RetrieveHybridCryptPackSDB, COMDAT
; _this$ = ecx

; 481  : {

  00000	55		 push	 ebp
  00001	8d 6c 24 8c	 lea	 ebp, DWORD PTR [esp-116]
  00005	83 ec 74	 sub	 esp, 116		; 00000074H
  00008	6a ff		 push	 -1
  0000a	68 00 00 00 00	 push	 __ehhandler$?RetrieveHybridCryptPackSDB@CEterPackManager@@QAEXPBE@Z
  0000f	64 a1 00 00 00
	00		 mov	 eax, DWORD PTR fs:0
  00015	50		 push	 eax
  00016	83 ec 20	 sub	 esp, 32			; 00000020H
  00019	a1 00 00 00 00	 mov	 eax, DWORD PTR ___security_cookie
  0001e	33 c5		 xor	 eax, ebp
  00020	89 45 70	 mov	 DWORD PTR __$ArrayPad$[ebp], eax
  00023	50		 push	 eax
  00024	8d 45 f4	 lea	 eax, DWORD PTR __$EHRec$[ebp]
  00027	64 a3 00 00 00
	00		 mov	 DWORD PTR fs:0, eax
  0002d	89 4d 18	 mov	 DWORD PTR _this$[ebp], ecx

; 482  : 	//cnt
; 483  : 	//for cnt
; 484  : 	//DWORD				dwPackageIdentifier;
; 485  : 	//DWORD				dwFileIdentifier;
; 486  : 	//std::vector<BYTE>	vecSDBStream;
; 487  : 	int iReadOffset = 0;

  00030	83 65 3c 00	 and	 DWORD PTR _iReadOffset$[ebp], 0

; 488  : 	int iSDBInfoCount = 0;

  00034	83 65 20 00	 and	 DWORD PTR _iSDBInfoCount$[ebp], 0

; 489  : 
; 490  : 	memcpy( &iSDBInfoCount, pStream+iReadOffset, sizeof(int) );

  00038	6a 04		 push	 4
  0003a	8b 45 7c	 mov	 eax, DWORD PTR _pStream$[ebp]
  0003d	03 45 3c	 add	 eax, DWORD PTR _iReadOffset$[ebp]
  00040	50		 push	 eax
  00041	8d 45 20	 lea	 eax, DWORD PTR _iSDBInfoCount$[ebp]
  00044	50		 push	 eax
  00045	e8 00 00 00 00	 call	 _memcpy
  0004a	83 c4 0c	 add	 esp, 12			; 0000000cH

; 491  : 	iReadOffset += sizeof(int);

  0004d	8b 45 3c	 mov	 eax, DWORD PTR _iReadOffset$[ebp]
  00050	83 c0 04	 add	 eax, 4
  00053	89 45 3c	 mov	 DWORD PTR _iReadOffset$[ebp], eax

; 492  : 
; 493  : 	for( int i = 0; i < iSDBInfoCount; ++i )

  00056	83 65 2c 00	 and	 DWORD PTR _i$15[ebp], 0
  0005a	eb 07		 jmp	 SHORT $LN4@RetrieveHy
$LN2@RetrieveHy:
  0005c	8b 45 2c	 mov	 eax, DWORD PTR _i$15[ebp]
  0005f	40		 inc	 eax
  00060	89 45 2c	 mov	 DWORD PTR _i$15[ebp], eax
$LN4@RetrieveHy:
  00063	8b 45 2c	 mov	 eax, DWORD PTR _i$15[ebp]
  00066	3b 45 20	 cmp	 eax, DWORD PTR _iSDBInfoCount$[ebp]
  00069	0f 8d 55 01 00
	00		 jge	 $LN1@RetrieveHy

; 494  : 	{
; 495  : 		DWORD dwPackgeIdentifier;
; 496  : 		memcpy( &dwPackgeIdentifier, pStream+iReadOffset, sizeof(DWORD) );

  0006f	6a 04		 push	 4
  00071	8b 45 7c	 mov	 eax, DWORD PTR _pStream$[ebp]
  00074	03 45 3c	 add	 eax, DWORD PTR _iReadOffset$[ebp]
  00077	50		 push	 eax
  00078	8d 45 e0	 lea	 eax, DWORD PTR _dwPackgeIdentifier$5[ebp]
  0007b	50		 push	 eax
  0007c	e8 00 00 00 00	 call	 _memcpy
  00081	83 c4 0c	 add	 esp, 12			; 0000000cH

; 497  : 		iReadOffset += sizeof(DWORD);

  00084	8b 45 3c	 mov	 eax, DWORD PTR _iReadOffset$[ebp]
  00087	83 c0 04	 add	 eax, 4
  0008a	89 45 3c	 mov	 DWORD PTR _iReadOffset$[ebp], eax
; File D:\Metin2 Server Files\mainline\SRC_2014\M2Data\include\boost\unordered\detail\implementation.hpp

; 2424 :         c_iterator() BOOST_NOEXCEPT : node_() {}

  0008d	83 65 34 00	 and	 DWORD PTR _cit$17[ebp], 0
; File D:\Metin2 Server Files\mainline\SRC_2014\M2Data\include\boost\unordered\unordered_map.hpp

; 193  :       iterator begin() BOOST_NOEXCEPT { return iterator(table_.begin()); }

  00091	8b 45 18	 mov	 eax, DWORD PTR _this$[ebp]
  00094	05 18 14 00 00	 add	 eax, 5144		; 00001418H
  00099	89 45 28	 mov	 DWORD PTR _this$[ebp], eax
; File D:\Metin2 Server Files\mainline\SRC_2014\M2Data\include\boost\unordered\detail\implementation.hpp

; 3041 :           return size_ ? next_node(get_previous_start()) : node_pointer();

  0009c	8b 45 28	 mov	 eax, DWORD PTR _this$[ebp]
  0009f	83 78 08 00	 cmp	 DWORD PTR [eax+8], 0
  000a3	74 22		 je	 SHORT $LN20@RetrieveHy

; 3026 :           return buckets_ + static_cast<std::ptrdiff_t>(bucket_index);

  000a5	8b 45 28	 mov	 eax, DWORD PTR _this$[ebp]
  000a8	8b 40 04	 mov	 eax, DWORD PTR [eax+4]
  000ab	8b 4d 28	 mov	 ecx, DWORD PTR _this$[ebp]
  000ae	8b 49 14	 mov	 ecx, DWORD PTR [ecx+20]
  000b1	8d 04 81	 lea	 eax, DWORD PTR [ecx+eax*4]
  000b4	89 45 14	 mov	 DWORD PTR $T13[ebp], eax

; 3041 :           return size_ ? next_node(get_previous_start()) : node_pointer();

  000b7	8b 45 d4	 mov	 eax, DWORD PTR $T2[ebp]
  000ba	89 45 24	 mov	 DWORD PTR $T14[ebp], eax

; 2964 :           return static_cast<node_pointer>(n->next_);

  000bd	8b 45 14	 mov	 eax, DWORD PTR $T13[ebp]
  000c0	8b 00		 mov	 eax, DWORD PTR [eax]
  000c2	89 45 24	 mov	 DWORD PTR $T14[ebp], eax

; 3041 :           return size_ ? next_node(get_previous_start()) : node_pointer();

  000c5	eb 04		 jmp	 SHORT $LN18@RetrieveHy
$LN20@RetrieveHy:
  000c7	83 65 24 00	 and	 DWORD PTR $T14[ebp], 0
$LN18@RetrieveHy:

; 2371 :           : node_(static_cast<node_pointer>(x))

  000cb	8b 45 24	 mov	 eax, DWORD PTR $T14[ebp]
  000ce	89 45 10	 mov	 DWORD PTR $T12[ebp], eax
; File D:\Metin2 Server Files\mainline\SRC_2014\M2Data\include\boost\unordered\unordered_map.hpp

; 193  :       iterator begin() BOOST_NOEXCEPT { return iterator(table_.begin()); }

  000d1	8d 45 10	 lea	 eax, DWORD PTR $T12[ebp]
  000d4	89 45 0c	 mov	 DWORD PTR $T11[ebp], eax
; File D:\Metin2 Server Files\mainline\SRC_2014\M2Data\include\boost\unordered\detail\implementation.hpp

; 2431 :         c_iterator(n_iterator const& x) BOOST_NOEXCEPT : node_(x.node_) {}

  000d7	8b 45 0c	 mov	 eax, DWORD PTR $T11[ebp]
  000da	8b 00		 mov	 eax, DWORD PTR [eax]
  000dc	89 45 08	 mov	 DWORD PTR $T10[ebp], eax
; File D:\Metin2 Server Files\mainline\SRC_2014\Metin2Client\EterPack\EterPackManager.cpp

; 500  : 		for( cit = m_PackMap.begin(); cit != m_PackMap.end(); ++cit )

  000df	8b 45 08	 mov	 eax, DWORD PTR $T10[ebp]
  000e2	89 45 34	 mov	 DWORD PTR _cit$17[ebp], eax
  000e5	eb 08		 jmp	 SHORT $LN7@RetrieveHy
$LN5@RetrieveHy:
; File D:\Metin2 Server Files\mainline\SRC_2014\M2Data\include\boost\unordered\detail\implementation.hpp

; 2439 :           node_ = static_cast<node_pointer>(node_->next_);

  000e7	8b 45 34	 mov	 eax, DWORD PTR _cit$17[ebp]
  000ea	8b 00		 mov	 eax, DWORD PTR [eax]
  000ec	89 45 34	 mov	 DWORD PTR _cit$17[ebp], eax
$LN7@RetrieveHy:

; 2368 :         iterator() BOOST_NOEXCEPT : node_() {}

  000ef	83 65 04 00	 and	 DWORD PTR $T9[ebp], 0
; File D:\Metin2 Server Files\mainline\SRC_2014\M2Data\include\boost\unordered\unordered_map.hpp

; 200  :       iterator end() BOOST_NOEXCEPT { return iterator(); }

  000f3	8d 45 04	 lea	 eax, DWORD PTR $T9[ebp]
  000f6	89 45 00	 mov	 DWORD PTR $T8[ebp], eax
; File D:\Metin2 Server Files\mainline\SRC_2014\M2Data\include\boost\unordered\detail\implementation.hpp

; 2431 :         c_iterator(n_iterator const& x) BOOST_NOEXCEPT : node_(x.node_) {}

  000f9	8b 45 00	 mov	 eax, DWORD PTR $T8[ebp]
  000fc	8b 00		 mov	 eax, DWORD PTR [eax]
  000fe	89 45 f0	 mov	 DWORD PTR $T7[ebp], eax

; 2459 :           return x.node_ != y.node_;

  00101	8b 45 34	 mov	 eax, DWORD PTR _cit$17[ebp]
  00104	3b 45 f0	 cmp	 eax, DWORD PTR $T7[ebp]
  00107	74 09		 je	 SHORT $LN49@RetrieveHy
  00109	c7 45 1c 01 00
	00 00		 mov	 DWORD PTR tv78[ebp], 1
  00110	eb 04		 jmp	 SHORT $LN50@RetrieveHy
$LN49@RetrieveHy:
  00112	83 65 1c 00	 and	 DWORD PTR tv78[ebp], 0
$LN50@RetrieveHy:
  00116	8a 45 1c	 mov	 al, BYTE PTR tv78[ebp]
  00119	88 45 3b	 mov	 BYTE PTR $T18[ebp], al
; File D:\Metin2 Server Files\mainline\SRC_2014\Metin2Client\EterPack\EterPackManager.cpp

; 500  : 		for( cit = m_PackMap.begin(); cit != m_PackMap.end(); ++cit )

  0011c	0f b6 45 3b	 movzx	 eax, BYTE PTR $T18[ebp]
  00120	85 c0		 test	 eax, eax
  00122	0f 84 97 00 00
	00		 je	 $LN6@RetrieveHy
; File D:\Metin2 Server Files\mainline\SRC_2014\M2Data\include\boost\unordered\detail\implementation.hpp

; 4869 :         value_type* value_ptr() { return value_base_.value_ptr(); }

  00128	8b 45 34	 mov	 eax, DWORD PTR _cit$17[ebp]
  0012b	83 c0 08	 add	 eax, 8

; 2435 :         value_type const* operator->() const { return node_->value_ptr(); }

  0012e	89 45 ec	 mov	 DWORD PTR $T6[ebp], eax
; File D:\Metin2 Server Files\mainline\SRC_2014\Metin2Client\EterPack\EterPackManager.cpp

; 502  : 			std::string noPathName = CFileNameHelper::NoPath(string(cit->first));

  00131	ff 75 ec	 push	 DWORD PTR $T6[ebp]
  00134	8d 4d 40	 lea	 ecx, DWORD PTR $T19[ebp]
  00137	e8 00 00 00 00	 call	 ??0?$basic_string@DU?$char_traits@D@std@@V?$allocator@D@2@@std@@QAE@ABV01@@Z ; std::basic_string<char,std::char_traits<char>,std::allocator<char> >::basic_string<char,std::char_traits<char>,std::allocator<char> >
  0013c	89 45 e8	 mov	 DWORD PTR tv138[ebp], eax
  0013f	8b 45 e8	 mov	 eax, DWORD PTR tv138[ebp]
  00142	89 45 e4	 mov	 DWORD PTR tv154[ebp], eax
  00145	83 65 fc 00	 and	 DWORD PTR __$EHRec$[ebp+8], 0
  00149	ff 75 e4	 push	 DWORD PTR tv154[ebp]
  0014c	8d 45 58	 lea	 eax, DWORD PTR _noPathName$20[ebp]
  0014f	50		 push	 eax
  00150	e8 00 00 00 00	 call	 ?NoPath@CFileNameHelper@@SA?AV?$basic_string@DU?$char_traits@D@std@@V?$allocator@D@2@@std@@AAV23@@Z ; CFileNameHelper::NoPath
  00155	59		 pop	 ecx
  00156	59		 pop	 ecx
  00157	c6 45 fc 02	 mov	 BYTE PTR __$EHRec$[ebp+8], 2
; File C:\Program Files (x86)\Microsoft Visual Studio\2019\Community\VC\Tools\MSVC\14.28.29333\include\xstring

; 2801 :         _Tidy_deallocate();

  0015b	8d 4d 40	 lea	 ecx, DWORD PTR $T19[ebp]
  0015e	e8 00 00 00 00	 call	 ?_Tidy_deallocate@?$basic_string@DU?$char_traits@D@std@@V?$allocator@D@2@@std@@AAEXXZ ; std::basic_string<char,std::char_traits<char>,std::allocator<char> >::_Tidy_deallocate
; File D:\Metin2 Server Files\mainline\SRC_2014\Metin2Client\EterPack\EterPackManager.cpp

; 503  : 			if( dwPackgeIdentifier == stringhash().GetHash(noPathName) )

  00163	8d 45 58	 lea	 eax, DWORD PTR _noPathName$20[ebp]
  00166	50		 push	 eax
  00167	8d 4d 33	 lea	 ecx, DWORD PTR $T16[ebp]
  0016a	e8 00 00 00 00	 call	 ?GetHash@stringhash@@QBEIABV?$basic_string@DU?$char_traits@D@std@@V?$allocator@D@2@@std@@@Z ; stringhash::GetHash
  0016f	39 45 e0	 cmp	 DWORD PTR _dwPackgeIdentifier$5[ebp], eax
  00172	75 3a		 jne	 SHORT $LN8@RetrieveHy
; File D:\Metin2 Server Files\mainline\SRC_2014\M2Data\include\boost\unordered\detail\implementation.hpp

; 4869 :         value_type* value_ptr() { return value_base_.value_ptr(); }

  00174	8b 45 34	 mov	 eax, DWORD PTR _cit$17[ebp]
  00177	83 c0 08	 add	 eax, 8

; 2435 :         value_type const* operator->() const { return node_->value_ptr(); }

  0017a	89 45 dc	 mov	 DWORD PTR $T4[ebp], eax
; File D:\Metin2 Server Files\mainline\SRC_2014\Metin2Client\EterPack\EterPackManager.cpp

; 505  : 				EterPackPolicy_CSHybridCrypt* pCryptPolicy = cit->second->GetPackPolicy_HybridCrypt();

  0017d	8b 45 dc	 mov	 eax, DWORD PTR $T4[ebp]
  00180	8b 48 18	 mov	 ecx, DWORD PTR [eax+24]
  00183	e8 00 00 00 00	 call	 ?GetPackPolicy_HybridCrypt@CEterPack@@QBEPAVEterPackPolicy_CSHybridCrypt@@XZ ; CEterPack::GetPackPolicy_HybridCrypt
  00188	89 45 d8	 mov	 DWORD PTR _pCryptPolicy$3[ebp], eax

; 506  : 				iReadOffset += pCryptPolicy->ReadSupplementatyDataBlockFromStream( pStream+iReadOffset );

  0018b	8b 45 7c	 mov	 eax, DWORD PTR _pStream$[ebp]
  0018e	03 45 3c	 add	 eax, DWORD PTR _iReadOffset$[ebp]
  00191	50		 push	 eax
  00192	8b 4d d8	 mov	 ecx, DWORD PTR _pCryptPolicy$3[ebp]
  00195	e8 00 00 00 00	 call	 ?ReadSupplementatyDataBlockFromStream@EterPackPolicy_CSHybridCrypt@@QAEHPBE@Z ; EterPackPolicy_CSHybridCrypt::ReadSupplementatyDataBlockFromStream
  0019a	03 45 3c	 add	 eax, DWORD PTR _iReadOffset$[ebp]
  0019d	89 45 3c	 mov	 DWORD PTR _iReadOffset$[ebp], eax

; 507  : 				break;

  001a0	83 4d fc ff	 or	 DWORD PTR __$EHRec$[ebp+8], -1
; File C:\Program Files (x86)\Microsoft Visual Studio\2019\Community\VC\Tools\MSVC\14.28.29333\include\xstring

; 2801 :         _Tidy_deallocate();

  001a4	8d 4d 58	 lea	 ecx, DWORD PTR _noPathName$20[ebp]
  001a7	e8 00 00 00 00	 call	 ?_Tidy_deallocate@?$basic_string@DU?$char_traits@D@std@@V?$allocator@D@2@@std@@AAEXXZ ; std::basic_string<char,std::char_traits<char>,std::allocator<char> >::_Tidy_deallocate
; File D:\Metin2 Server Files\mainline\SRC_2014\Metin2Client\EterPack\EterPackManager.cpp

; 507  : 				break;

  001ac	eb 11		 jmp	 SHORT $LN6@RetrieveHy
$LN8@RetrieveHy:

; 509  : 		}

  001ae	83 4d fc ff	 or	 DWORD PTR __$EHRec$[ebp+8], -1
; File C:\Program Files (x86)\Microsoft Visual Studio\2019\Community\VC\Tools\MSVC\14.28.29333\include\xstring

; 2801 :         _Tidy_deallocate();

  001b2	8d 4d 58	 lea	 ecx, DWORD PTR _noPathName$20[ebp]
  001b5	e8 00 00 00 00	 call	 ?_Tidy_deallocate@?$basic_string@DU?$char_traits@D@std@@V?$allocator@D@2@@std@@AAEXXZ ; std::basic_string<char,std::char_traits<char>,std::allocator<char> >::_Tidy_deallocate
; File D:\Metin2 Server Files\mainline\SRC_2014\Metin2Client\EterPack\EterPackManager.cpp

; 509  : 		}

  001ba	e9 28 ff ff ff	 jmp	 $LN5@RetrieveHy
$LN6@RetrieveHy:

; 510  : 	}

  001bf	e9 98 fe ff ff	 jmp	 $LN2@RetrieveHy
$LN1@RetrieveHy:

; 511  : }

  001c4	8b 4d f4	 mov	 ecx, DWORD PTR __$EHRec$[ebp]
  001c7	64 89 0d 00 00
	00 00		 mov	 DWORD PTR fs:0, ecx
  001ce	59		 pop	 ecx
  001cf	8b 4d 70	 mov	 ecx, DWORD PTR __$ArrayPad$[ebp]
  001d2	33 cd		 xor	 ecx, ebp
  001d4	e8 00 00 00 00	 call	 @__security_check_cookie@4
  001d9	83 c5 74	 add	 ebp, 116		; 00000074H
  001dc	c9		 leave
  001dd	c2 04 00	 ret	 4
_TEXT	ENDS
;	COMDAT text$x
text$x	SEGMENT
__unwindfunclet$?RetrieveHybridCryptPackSDB@CEterPackManager@@QAEXPBE@Z$0:
  00000	8d 4d 40	 lea	 ecx, DWORD PTR $T19[ebp]
  00003	e9 00 00 00 00	 jmp	 ??1?$basic_string@DU?$char_traits@D@std@@V?$allocator@D@2@@std@@QAE@XZ ; std::basic_string<char,std::char_traits<char>,std::allocator<char> >::~basic_string<char,std::char_traits<char>,std::allocator<char> >
__unwindfunclet$?RetrieveHybridCryptPackSDB@CEterPackManager@@QAEXPBE@Z$1:
  00008	8d 4d 58	 lea	 ecx, DWORD PTR _noPathName$20[ebp]
  0000b	e9 00 00 00 00	 jmp	 ??1?$basic_string@DU?$char_traits@D@std@@V?$allocator@D@2@@std@@QAE@XZ ; std::basic_string<char,std::char_traits<char>,std::allocator<char> >::~basic_string<char,std::char_traits<char>,std::allocator<char> >
  00010	cc		 int	 3
  00011	cc		 int	 3
  00012	cc		 int	 3
  00013	cc		 int	 3
  00014	cc		 int	 3
__ehhandler$?RetrieveHybridCryptPackSDB@CEterPackManager@@QAEXPBE@Z:
  00015	90		 npad	 1
  00016	90		 npad	 1
  00017	8b 54 24 08	 mov	 edx, DWORD PTR [esp+8]
  0001b	8d 42 0c	 lea	 eax, DWORD PTR [edx+12]
  0001e	8b 4a dc	 mov	 ecx, DWORD PTR [edx-36]
  00021	33 c8		 xor	 ecx, eax
  00023	e8 00 00 00 00	 call	 @__security_check_cookie@4
  00028	8b 4a 7c	 mov	 ecx, DWORD PTR [edx+124]
  0002b	33 c8		 xor	 ecx, eax
  0002d	e8 00 00 00 00	 call	 @__security_check_cookie@4
  00032	b8 00 00 00 00	 mov	 eax, OFFSET __ehfuncinfo$?RetrieveHybridCryptPackSDB@CEterPackManager@@QAEXPBE@Z
  00037	e9 00 00 00 00	 jmp	 ___CxxFrameHandler3
text$x	ENDS
?RetrieveHybridCryptPackSDB@CEterPackManager@@QAEXPBE@Z ENDP ; CEterPackManager::RetrieveHybridCryptPackSDB
; Function compile flags: /Odspy
; File D:\Metin2 Server Files\mainline\SRC_2014\Metin2Client\EterPack\EterPackManager.cpp
; File D:\Metin2 Server Files\mainline\SRC_2014\M2Data\include\boost\unordered\detail\implementation.hpp
; File D:\Metin2 Server Files\mainline\SRC_2014\M2Data\include\boost\unordered\unordered_map.hpp
; File D:\Metin2 Server Files\mainline\SRC_2014\M2Data\include\boost\unordered\detail\implementation.hpp
; File D:\Metin2 Server Files\mainline\SRC_2014\M2Data\include\boost\unordered\unordered_map.hpp
; File D:\Metin2 Server Files\mainline\SRC_2014\M2Data\include\boost\unordered\detail\implementation.hpp
; File D:\Metin2 Server Files\mainline\SRC_2014\Metin2Client\EterPack\EterPackManager.cpp
; File D:\Metin2 Server Files\mainline\SRC_2014\M2Data\include\boost\unordered\detail\implementation.hpp
; File D:\Metin2 Server Files\mainline\SRC_2014\M2Data\include\boost\unordered\unordered_map.hpp
; File D:\Metin2 Server Files\mainline\SRC_2014\M2Data\include\boost\unordered\detail\implementation.hpp
; File D:\Metin2 Server Files\mainline\SRC_2014\Metin2Client\EterPack\EterPackManager.cpp
; File D:\Metin2 Server Files\mainline\SRC_2014\M2Data\include\boost\unordered\detail\implementation.hpp
; File D:\Metin2 Server Files\mainline\SRC_2014\Metin2Client\EterPack\EterPackManager.cpp
; File C:\Program Files (x86)\Microsoft Visual Studio\2019\Community\VC\Tools\MSVC\14.28.29333\include\xstring
; File D:\Metin2 Server Files\mainline\SRC_2014\Metin2Client\EterPack\EterPackManager.cpp
; File D:\Metin2 Server Files\mainline\SRC_2014\M2Data\include\boost\unordered\detail\implementation.hpp
; File D:\Metin2 Server Files\mainline\SRC_2014\Metin2Client\EterPack\EterPackManager.cpp
; File C:\Program Files (x86)\Microsoft Visual Studio\2019\Community\VC\Tools\MSVC\14.28.29333\include\xstring
; File D:\Metin2 Server Files\mainline\SRC_2014\Metin2Client\EterPack\EterPackManager.cpp
; File C:\Program Files (x86)\Microsoft Visual Studio\2019\Community\VC\Tools\MSVC\14.28.29333\include\xstring
; File D:\Metin2 Server Files\mainline\SRC_2014\Metin2Client\EterPack\EterPackManager.cpp
;	COMDAT ?RetrieveHybridCryptPackKeys@CEterPackManager@@QAEXPBE@Z
_TEXT	SEGMENT
$T2 = -52						; size = 4
_pCryptPolicy$3 = -48					; size = 4
$T4 = -44						; size = 4
_dwPackageNameHash$ = -40				; size = 4
tv167 = -36						; size = 4
tv144 = -32						; size = 4
$T5 = -28						; size = 4
$T6 = -24						; size = 4
$T7 = -20						; size = 4
$T8 = -16						; size = 4
__$EHRec$ = -12						; size = 12
$T9 = 0							; size = 4
$T10 = 4						; size = 4
$T11 = 8						; size = 4
$T12 = 12						; size = 4
_this$ = 16						; size = 4
_iPackageCnt$ = 20					; size = 4
_iHavedCryptKeySize$13 = 24				; size = 4
tv84 = 28						; size = 4
$T14 = 32						; size = 4
_this$ = 36						; size = 4
_i$15 = 40						; size = 4
$T16 = 47						; size = 1
_iRecvedCryptKeySize$17 = 48				; size = 4
_cit$18 = 52						; size = 4
$T19 = 59						; size = 1
_iMemOffset$ = 60					; size = 4
$T20 = 64						; size = 24
_noPathName$21 = 88					; size = 24
__$ArrayPad$ = 112					; size = 4
_pStream$ = 124						; size = 4
?RetrieveHybridCryptPackKeys@CEterPackManager@@QAEXPBE@Z PROC ; CEterPackManager::RetrieveHybridCryptPackKeys, COMDAT
; _this$ = ecx

; 433  : {

  00000	55		 push	 ebp
  00001	8d 6c 24 8c	 lea	 ebp, DWORD PTR [esp-116]
  00005	83 ec 74	 sub	 esp, 116		; 00000074H
  00008	6a ff		 push	 -1
  0000a	68 00 00 00 00	 push	 __ehhandler$?RetrieveHybridCryptPackKeys@CEterPackManager@@QAEXPBE@Z
  0000f	64 a1 00 00 00
	00		 mov	 eax, DWORD PTR fs:0
  00015	50		 push	 eax
  00016	83 ec 28	 sub	 esp, 40			; 00000028H
  00019	a1 00 00 00 00	 mov	 eax, DWORD PTR ___security_cookie
  0001e	33 c5		 xor	 eax, ebp
  00020	89 45 70	 mov	 DWORD PTR __$ArrayPad$[ebp], eax
  00023	50		 push	 eax
  00024	8d 45 f4	 lea	 eax, DWORD PTR __$EHRec$[ebp]
  00027	64 a3 00 00 00
	00		 mov	 DWORD PTR fs:0, eax
  0002d	89 4d 10	 mov	 DWORD PTR _this$[ebp], ecx

; 434  : 	////dump file format
; 435  : 	//total packagecnt (4byte)
; 436  : 	//	for	packagecntpackage 
; 437  : 	//		db name hash ( stl.h stringhash )
; 438  : 	//		extension cnt( 4byte)
; 439  : 	//		for	extension cnt
; 440  : 	//			ext hash ( stl.h stringhash )
; 441  : 	//			key-16byte 
; 442  : 	//			iv-16byte
; 443  : 	int iMemOffset = 0;

  00030	83 65 3c 00	 and	 DWORD PTR _iMemOffset$[ebp], 0

; 444  : 
; 445  : 	int		iPackageCnt;
; 446  : 	DWORD	dwPackageNameHash;
; 447  : 
; 448  : 	memcpy( &iPackageCnt, pStream + iMemOffset, sizeof(int) );

  00034	6a 04		 push	 4
  00036	8b 45 7c	 mov	 eax, DWORD PTR _pStream$[ebp]
  00039	03 45 3c	 add	 eax, DWORD PTR _iMemOffset$[ebp]
  0003c	50		 push	 eax
  0003d	8d 45 14	 lea	 eax, DWORD PTR _iPackageCnt$[ebp]
  00040	50		 push	 eax
  00041	e8 00 00 00 00	 call	 _memcpy
  00046	83 c4 0c	 add	 esp, 12			; 0000000cH

; 449  : 	iMemOffset += sizeof(iPackageCnt);

  00049	8b 45 3c	 mov	 eax, DWORD PTR _iMemOffset$[ebp]
  0004c	83 c0 04	 add	 eax, 4
  0004f	89 45 3c	 mov	 DWORD PTR _iMemOffset$[ebp], eax

; 450  : 
; 451  : 	for( int i = 0; i < iPackageCnt; ++i )

  00052	83 65 28 00	 and	 DWORD PTR _i$15[ebp], 0
  00056	eb 07		 jmp	 SHORT $LN4@RetrieveHy
$LN2@RetrieveHy:
  00058	8b 45 28	 mov	 eax, DWORD PTR _i$15[ebp]
  0005b	40		 inc	 eax
  0005c	89 45 28	 mov	 DWORD PTR _i$15[ebp], eax
$LN4@RetrieveHy:
  0005f	8b 45 28	 mov	 eax, DWORD PTR _i$15[ebp]
  00062	3b 45 14	 cmp	 eax, DWORD PTR _iPackageCnt$[ebp]
  00065	0f 8d aa 01 00
	00		 jge	 $LN1@RetrieveHy

; 452  : 	{
; 453  : 		int iRecvedCryptKeySize = 0;

  0006b	83 65 30 00	 and	 DWORD PTR _iRecvedCryptKeySize$17[ebp], 0

; 454  : 		memcpy( &iRecvedCryptKeySize, pStream + iMemOffset, sizeof(iRecvedCryptKeySize) );

  0006f	6a 04		 push	 4
  00071	8b 45 7c	 mov	 eax, DWORD PTR _pStream$[ebp]
  00074	03 45 3c	 add	 eax, DWORD PTR _iMemOffset$[ebp]
  00077	50		 push	 eax
  00078	8d 45 30	 lea	 eax, DWORD PTR _iRecvedCryptKeySize$17[ebp]
  0007b	50		 push	 eax
  0007c	e8 00 00 00 00	 call	 _memcpy
  00081	83 c4 0c	 add	 esp, 12			; 0000000cH

; 455  : 		iRecvedCryptKeySize -= sizeof(dwPackageNameHash); //   key stream filename hash  , hash   .

  00084	8b 45 30	 mov	 eax, DWORD PTR _iRecvedCryptKeySize$17[ebp]
  00087	83 e8 04	 sub	 eax, 4
  0008a	89 45 30	 mov	 DWORD PTR _iRecvedCryptKeySize$17[ebp], eax

; 456  : 		iMemOffset += sizeof(iRecvedCryptKeySize); 

  0008d	8b 45 3c	 mov	 eax, DWORD PTR _iMemOffset$[ebp]
  00090	83 c0 04	 add	 eax, 4
  00093	89 45 3c	 mov	 DWORD PTR _iMemOffset$[ebp], eax

; 457  : 
; 458  : 		memcpy( &dwPackageNameHash, pStream + iMemOffset, sizeof(dwPackageNameHash) );

  00096	6a 04		 push	 4
  00098	8b 45 7c	 mov	 eax, DWORD PTR _pStream$[ebp]
  0009b	03 45 3c	 add	 eax, DWORD PTR _iMemOffset$[ebp]
  0009e	50		 push	 eax
  0009f	8d 45 d8	 lea	 eax, DWORD PTR _dwPackageNameHash$[ebp]
  000a2	50		 push	 eax
  000a3	e8 00 00 00 00	 call	 _memcpy
  000a8	83 c4 0c	 add	 esp, 12			; 0000000cH

; 459  : 		iMemOffset += sizeof(dwPackageNameHash);

  000ab	8b 45 3c	 mov	 eax, DWORD PTR _iMemOffset$[ebp]
  000ae	83 c0 04	 add	 eax, 4
  000b1	89 45 3c	 mov	 DWORD PTR _iMemOffset$[ebp], eax
; File D:\Metin2 Server Files\mainline\SRC_2014\M2Data\include\boost\unordered\detail\implementation.hpp

; 2424 :         c_iterator() BOOST_NOEXCEPT : node_() {}

  000b4	83 65 34 00	 and	 DWORD PTR _cit$18[ebp], 0
; File D:\Metin2 Server Files\mainline\SRC_2014\M2Data\include\boost\unordered\unordered_map.hpp

; 193  :       iterator begin() BOOST_NOEXCEPT { return iterator(table_.begin()); }

  000b8	8b 45 10	 mov	 eax, DWORD PTR _this$[ebp]
  000bb	05 18 14 00 00	 add	 eax, 5144		; 00001418H
  000c0	89 45 24	 mov	 DWORD PTR _this$[ebp], eax
; File D:\Metin2 Server Files\mainline\SRC_2014\M2Data\include\boost\unordered\detail\implementation.hpp

; 3041 :           return size_ ? next_node(get_previous_start()) : node_pointer();

  000c3	8b 45 24	 mov	 eax, DWORD PTR _this$[ebp]
  000c6	83 78 08 00	 cmp	 DWORD PTR [eax+8], 0
  000ca	74 22		 je	 SHORT $LN21@RetrieveHy

; 3026 :           return buckets_ + static_cast<std::ptrdiff_t>(bucket_index);

  000cc	8b 45 24	 mov	 eax, DWORD PTR _this$[ebp]
  000cf	8b 40 04	 mov	 eax, DWORD PTR [eax+4]
  000d2	8b 4d 24	 mov	 ecx, DWORD PTR _this$[ebp]
  000d5	8b 49 14	 mov	 ecx, DWORD PTR [ecx+20]
  000d8	8d 04 81	 lea	 eax, DWORD PTR [ecx+eax*4]
  000db	89 45 0c	 mov	 DWORD PTR $T12[ebp], eax

; 3041 :           return size_ ? next_node(get_previous_start()) : node_pointer();

  000de	8b 45 cc	 mov	 eax, DWORD PTR $T2[ebp]
  000e1	89 45 20	 mov	 DWORD PTR $T14[ebp], eax

; 2964 :           return static_cast<node_pointer>(n->next_);

  000e4	8b 45 0c	 mov	 eax, DWORD PTR $T12[ebp]
  000e7	8b 00		 mov	 eax, DWORD PTR [eax]
  000e9	89 45 20	 mov	 DWORD PTR $T14[ebp], eax

; 3041 :           return size_ ? next_node(get_previous_start()) : node_pointer();

  000ec	eb 04		 jmp	 SHORT $LN19@RetrieveHy
$LN21@RetrieveHy:
  000ee	83 65 20 00	 and	 DWORD PTR $T14[ebp], 0
$LN19@RetrieveHy:

; 2371 :           : node_(static_cast<node_pointer>(x))

  000f2	8b 45 20	 mov	 eax, DWORD PTR $T14[ebp]
  000f5	89 45 08	 mov	 DWORD PTR $T11[ebp], eax
; File D:\Metin2 Server Files\mainline\SRC_2014\M2Data\include\boost\unordered\unordered_map.hpp

; 193  :       iterator begin() BOOST_NOEXCEPT { return iterator(table_.begin()); }

  000f8	8d 45 08	 lea	 eax, DWORD PTR $T11[ebp]
  000fb	89 45 04	 mov	 DWORD PTR $T10[ebp], eax
; File D:\Metin2 Server Files\mainline\SRC_2014\M2Data\include\boost\unordered\detail\implementation.hpp

; 2431 :         c_iterator(n_iterator const& x) BOOST_NOEXCEPT : node_(x.node_) {}

  000fe	8b 45 04	 mov	 eax, DWORD PTR $T10[ebp]
  00101	8b 00		 mov	 eax, DWORD PTR [eax]
  00103	89 45 00	 mov	 DWORD PTR $T9[ebp], eax
; File D:\Metin2 Server Files\mainline\SRC_2014\Metin2Client\EterPack\EterPackManager.cpp

; 462  : 		for( cit = m_PackMap.begin(); cit != m_PackMap.end(); ++cit )

  00106	8b 45 00	 mov	 eax, DWORD PTR $T9[ebp]
  00109	89 45 34	 mov	 DWORD PTR _cit$18[ebp], eax
  0010c	eb 08		 jmp	 SHORT $LN7@RetrieveHy
$LN5@RetrieveHy:
; File D:\Metin2 Server Files\mainline\SRC_2014\M2Data\include\boost\unordered\detail\implementation.hpp

; 2439 :           node_ = static_cast<node_pointer>(node_->next_);

  0010e	8b 45 34	 mov	 eax, DWORD PTR _cit$18[ebp]
  00111	8b 00		 mov	 eax, DWORD PTR [eax]
  00113	89 45 34	 mov	 DWORD PTR _cit$18[ebp], eax
$LN7@RetrieveHy:

; 2368 :         iterator() BOOST_NOEXCEPT : node_() {}

  00116	83 65 f0 00	 and	 DWORD PTR $T8[ebp], 0
; File D:\Metin2 Server Files\mainline\SRC_2014\M2Data\include\boost\unordered\unordered_map.hpp

; 200  :       iterator end() BOOST_NOEXCEPT { return iterator(); }

  0011a	8d 45 f0	 lea	 eax, DWORD PTR $T8[ebp]
  0011d	89 45 ec	 mov	 DWORD PTR $T7[ebp], eax
; File D:\Metin2 Server Files\mainline\SRC_2014\M2Data\include\boost\unordered\detail\implementation.hpp

; 2431 :         c_iterator(n_iterator const& x) BOOST_NOEXCEPT : node_(x.node_) {}

  00120	8b 45 ec	 mov	 eax, DWORD PTR $T7[ebp]
  00123	8b 00		 mov	 eax, DWORD PTR [eax]
  00125	89 45 e8	 mov	 DWORD PTR $T6[ebp], eax

; 2459 :           return x.node_ != y.node_;

  00128	8b 45 34	 mov	 eax, DWORD PTR _cit$18[ebp]
  0012b	3b 45 e8	 cmp	 eax, DWORD PTR $T6[ebp]
  0012e	74 09		 je	 SHORT $LN50@RetrieveHy
  00130	c7 45 1c 01 00
	00 00		 mov	 DWORD PTR tv84[ebp], 1
  00137	eb 04		 jmp	 SHORT $LN51@RetrieveHy
$LN50@RetrieveHy:
  00139	83 65 1c 00	 and	 DWORD PTR tv84[ebp], 0
$LN51@RetrieveHy:
  0013d	8a 45 1c	 mov	 al, BYTE PTR tv84[ebp]
  00140	88 45 3b	 mov	 BYTE PTR $T19[ebp], al
; File D:\Metin2 Server Files\mainline\SRC_2014\Metin2Client\EterPack\EterPackManager.cpp

; 462  : 		for( cit = m_PackMap.begin(); cit != m_PackMap.end(); ++cit )

  00143	0f b6 45 3b	 movzx	 eax, BYTE PTR $T19[ebp]
  00147	85 c0		 test	 eax, eax
  00149	0f 84 b8 00 00
	00		 je	 $LN6@RetrieveHy
; File D:\Metin2 Server Files\mainline\SRC_2014\M2Data\include\boost\unordered\detail\implementation.hpp

; 4869 :         value_type* value_ptr() { return value_base_.value_ptr(); }

  0014f	8b 45 34	 mov	 eax, DWORD PTR _cit$18[ebp]
  00152	83 c0 08	 add	 eax, 8

; 2435 :         value_type const* operator->() const { return node_->value_ptr(); }

  00155	89 45 e4	 mov	 DWORD PTR $T5[ebp], eax
; File D:\Metin2 Server Files\mainline\SRC_2014\Metin2Client\EterPack\EterPackManager.cpp

; 464  : 			std::string noPathName = CFileNameHelper::NoPath(string(cit->first));

  00158	ff 75 e4	 push	 DWORD PTR $T5[ebp]
  0015b	8d 4d 40	 lea	 ecx, DWORD PTR $T20[ebp]
  0015e	e8 00 00 00 00	 call	 ??0?$basic_string@DU?$char_traits@D@std@@V?$allocator@D@2@@std@@QAE@ABV01@@Z ; std::basic_string<char,std::char_traits<char>,std::allocator<char> >::basic_string<char,std::char_traits<char>,std::allocator<char> >
  00163	89 45 e0	 mov	 DWORD PTR tv144[ebp], eax
  00166	8b 45 e0	 mov	 eax, DWORD PTR tv144[ebp]
  00169	89 45 dc	 mov	 DWORD PTR tv167[ebp], eax
  0016c	83 65 fc 00	 and	 DWORD PTR __$EHRec$[ebp+8], 0
  00170	ff 75 dc	 push	 DWORD PTR tv167[ebp]
  00173	8d 45 58	 lea	 eax, DWORD PTR _noPathName$21[ebp]
  00176	50		 push	 eax
  00177	e8 00 00 00 00	 call	 ?NoPath@CFileNameHelper@@SA?AV?$basic_string@DU?$char_traits@D@std@@V?$allocator@D@2@@std@@AAV23@@Z ; CFileNameHelper::NoPath
  0017c	59		 pop	 ecx
  0017d	59		 pop	 ecx
  0017e	c6 45 fc 02	 mov	 BYTE PTR __$EHRec$[ebp+8], 2
; File C:\Program Files (x86)\Microsoft Visual Studio\2019\Community\VC\Tools\MSVC\14.28.29333\include\xstring

; 2801 :         _Tidy_deallocate();

  00182	8d 4d 40	 lea	 ecx, DWORD PTR $T20[ebp]
  00185	e8 00 00 00 00	 call	 ?_Tidy_deallocate@?$basic_string@DU?$char_traits@D@std@@V?$allocator@D@2@@std@@AAEXXZ ; std::basic_string<char,std::char_traits<char>,std::allocator<char> >::_Tidy_deallocate
; File D:\Metin2 Server Files\mainline\SRC_2014\Metin2Client\EterPack\EterPackManager.cpp

; 465  : 			if( dwPackageNameHash == stringhash().GetHash(noPathName) )

  0018a	8d 45 58	 lea	 eax, DWORD PTR _noPathName$21[ebp]
  0018d	50		 push	 eax
  0018e	8d 4d 2f	 lea	 ecx, DWORD PTR $T16[ebp]
  00191	e8 00 00 00 00	 call	 ?GetHash@stringhash@@QBEIABV?$basic_string@DU?$char_traits@D@std@@V?$allocator@D@2@@std@@@Z ; stringhash::GetHash
  00196	39 45 d8	 cmp	 DWORD PTR _dwPackageNameHash$[ebp], eax
  00199	75 5b		 jne	 SHORT $LN8@RetrieveHy
; File D:\Metin2 Server Files\mainline\SRC_2014\M2Data\include\boost\unordered\detail\implementation.hpp

; 4869 :         value_type* value_ptr() { return value_base_.value_ptr(); }

  0019b	8b 45 34	 mov	 eax, DWORD PTR _cit$18[ebp]
  0019e	83 c0 08	 add	 eax, 8

; 2435 :         value_type const* operator->() const { return node_->value_ptr(); }

  001a1	89 45 d4	 mov	 DWORD PTR $T4[ebp], eax
; File D:\Metin2 Server Files\mainline\SRC_2014\Metin2Client\EterPack\EterPackManager.cpp

; 467  : 				EterPackPolicy_CSHybridCrypt* pCryptPolicy = cit->second->GetPackPolicy_HybridCrypt();

  001a4	8b 45 d4	 mov	 eax, DWORD PTR $T4[ebp]
  001a7	8b 48 18	 mov	 ecx, DWORD PTR [eax+24]
  001aa	e8 00 00 00 00	 call	 ?GetPackPolicy_HybridCrypt@CEterPack@@QBEPAVEterPackPolicy_CSHybridCrypt@@XZ ; CEterPack::GetPackPolicy_HybridCrypt
  001af	89 45 d0	 mov	 DWORD PTR _pCryptPolicy$3[ebp], eax

; 468  : 				int iHavedCryptKeySize = pCryptPolicy->ReadCryptKeyInfoFromStream( pStream + iMemOffset );

  001b2	8b 45 7c	 mov	 eax, DWORD PTR _pStream$[ebp]
  001b5	03 45 3c	 add	 eax, DWORD PTR _iMemOffset$[ebp]
  001b8	50		 push	 eax
  001b9	8b 4d d0	 mov	 ecx, DWORD PTR _pCryptPolicy$3[ebp]
  001bc	e8 00 00 00 00	 call	 ?ReadCryptKeyInfoFromStream@EterPackPolicy_CSHybridCrypt@@QAEHPBE@Z ; EterPackPolicy_CSHybridCrypt::ReadCryptKeyInfoFromStream
  001c1	89 45 18	 mov	 DWORD PTR _iHavedCryptKeySize$13[ebp], eax

; 469  : 				if (iRecvedCryptKeySize != iHavedCryptKeySize)

  001c4	8b 45 30	 mov	 eax, DWORD PTR _iRecvedCryptKeySize$17[ebp]
  001c7	3b 45 18	 cmp	 eax, DWORD PTR _iHavedCryptKeySize$13[ebp]
  001ca	74 1c		 je	 SHORT $LN9@RetrieveHy

; 470  : 				{
; 471  : 					TraceError("CEterPackManager::RetrieveHybridCryptPackKeys	cryptokey length of file(%s) is not matched. received(%d) != haved(%d)", noPathName.c_str(), iRecvedCryptKeySize, iHavedCryptKeySize);

  001cc	ff 75 18	 push	 DWORD PTR _iHavedCryptKeySize$13[ebp]
  001cf	ff 75 30	 push	 DWORD PTR _iRecvedCryptKeySize$17[ebp]
  001d2	8d 4d 58	 lea	 ecx, DWORD PTR _noPathName$21[ebp]
  001d5	e8 00 00 00 00	 call	 ?c_str@?$basic_string@DU?$char_traits@D@std@@V?$allocator@D@2@@std@@QBEPBDXZ ; std::basic_string<char,std::char_traits<char>,std::allocator<char> >::c_str
  001da	50		 push	 eax
  001db	68 00 00 00 00	 push	 OFFSET ??_C@_0HF@OJFMMEDP@CEterPackManager?3?3RetrieveHybri@
  001e0	e8 00 00 00 00	 call	 ?TraceError@@YAXPBDZZ	; TraceError
  001e5	83 c4 10	 add	 esp, 16			; 00000010H
$LN9@RetrieveHy:

; 473  : 				break;

  001e8	83 4d fc ff	 or	 DWORD PTR __$EHRec$[ebp+8], -1
; File C:\Program Files (x86)\Microsoft Visual Studio\2019\Community\VC\Tools\MSVC\14.28.29333\include\xstring

; 2801 :         _Tidy_deallocate();

  001ec	8d 4d 58	 lea	 ecx, DWORD PTR _noPathName$21[ebp]
  001ef	e8 00 00 00 00	 call	 ?_Tidy_deallocate@?$basic_string@DU?$char_traits@D@std@@V?$allocator@D@2@@std@@AAEXXZ ; std::basic_string<char,std::char_traits<char>,std::allocator<char> >::_Tidy_deallocate
; File D:\Metin2 Server Files\mainline\SRC_2014\Metin2Client\EterPack\EterPackManager.cpp

; 473  : 				break;

  001f4	eb 11		 jmp	 SHORT $LN6@RetrieveHy
$LN8@RetrieveHy:

; 475  : 		}

  001f6	83 4d fc ff	 or	 DWORD PTR __$EHRec$[ebp+8], -1
; File C:\Program Files (x86)\Microsoft Visual Studio\2019\Community\VC\Tools\MSVC\14.28.29333\include\xstring

; 2801 :         _Tidy_deallocate();

  001fa	8d 4d 58	 lea	 ecx, DWORD PTR _noPathName$21[ebp]
  001fd	e8 00 00 00 00	 call	 ?_Tidy_deallocate@?$basic_string@DU?$char_traits@D@std@@V?$allocator@D@2@@std@@AAEXXZ ; std::basic_string<char,std::char_traits<char>,std::allocator<char> >::_Tidy_deallocate
; File D:\Metin2 Server Files\mainline\SRC_2014\Metin2Client\EterPack\EterPackManager.cpp

; 475  : 		}

  00202	e9 07 ff ff ff	 jmp	 $LN5@RetrieveHy
$LN6@RetrieveHy:

; 476  : 		iMemOffset += iRecvedCryptKeySize;

  00207	8b 45 3c	 mov	 eax, DWORD PTR _iMemOffset$[ebp]
  0020a	03 45 30	 add	 eax, DWORD PTR _iRecvedCryptKeySize$17[ebp]
  0020d	89 45 3c	 mov	 DWORD PTR _iMemOffset$[ebp], eax

; 477  : 	}

  00210	e9 43 fe ff ff	 jmp	 $LN2@RetrieveHy
$LN1@RetrieveHy:

; 478  : }

  00215	8b 4d f4	 mov	 ecx, DWORD PTR __$EHRec$[ebp]
  00218	64 89 0d 00 00
	00 00		 mov	 DWORD PTR fs:0, ecx
  0021f	59		 pop	 ecx
  00220	8b 4d 70	 mov	 ecx, DWORD PTR __$ArrayPad$[ebp]
  00223	33 cd		 xor	 ecx, ebp
  00225	e8 00 00 00 00	 call	 @__security_check_cookie@4
  0022a	83 c5 74	 add	 ebp, 116		; 00000074H
  0022d	c9		 leave
  0022e	c2 04 00	 ret	 4
_TEXT	ENDS
;	COMDAT text$x
text$x	SEGMENT
__unwindfunclet$?RetrieveHybridCryptPackKeys@CEterPackManager@@QAEXPBE@Z$0:
  00000	8d 4d 40	 lea	 ecx, DWORD PTR $T20[ebp]
  00003	e9 00 00 00 00	 jmp	 ??1?$basic_string@DU?$char_traits@D@std@@V?$allocator@D@2@@std@@QAE@XZ ; std::basic_string<char,std::char_traits<char>,std::allocator<char> >::~basic_string<char,std::char_traits<char>,std::allocator<char> >
__unwindfunclet$?RetrieveHybridCryptPackKeys@CEterPackManager@@QAEXPBE@Z$1:
  00008	8d 4d 58	 lea	 ecx, DWORD PTR _noPathName$21[ebp]
  0000b	e9 00 00 00 00	 jmp	 ??1?$basic_string@DU?$char_traits@D@std@@V?$allocator@D@2@@std@@QAE@XZ ; std::basic_string<char,std::char_traits<char>,std::allocator<char> >::~basic_string<char,std::char_traits<char>,std::allocator<char> >
  00010	cc		 int	 3
  00011	cc		 int	 3
  00012	cc		 int	 3
  00013	cc		 int	 3
  00014	cc		 int	 3
__ehhandler$?RetrieveHybridCryptPackKeys@CEterPackManager@@QAEXPBE@Z:
  00015	90		 npad	 1
  00016	90		 npad	 1
  00017	8b 54 24 08	 mov	 edx, DWORD PTR [esp+8]
  0001b	8d 42 0c	 lea	 eax, DWORD PTR [edx+12]
  0001e	8b 4a d4	 mov	 ecx, DWORD PTR [edx-44]
  00021	33 c8		 xor	 ecx, eax
  00023	e8 00 00 00 00	 call	 @__security_check_cookie@4
  00028	8b 4a 7c	 mov	 ecx, DWORD PTR [edx+124]
  0002b	33 c8		 xor	 ecx, eax
  0002d	e8 00 00 00 00	 call	 @__security_check_cookie@4
  00032	b8 00 00 00 00	 mov	 eax, OFFSET __ehfuncinfo$?RetrieveHybridCryptPackKeys@CEterPackManager@@QAEXPBE@Z
  00037	e9 00 00 00 00	 jmp	 ___CxxFrameHandler3
text$x	ENDS
?RetrieveHybridCryptPackKeys@CEterPackManager@@QAEXPBE@Z ENDP ; CEterPackManager::RetrieveHybridCryptPackKeys
; Function compile flags: /Odspy
; File D:\Metin2 Server Files\mainline\SRC_2014\Metin2Client\EterPack\EterPackManager.cpp
; File D:\Metin2 Server Files\mainline\SRC_2014\M2Data\include\boost\unordered\detail\implementation.hpp
; File D:\Metin2 Server Files\mainline\SRC_2014\M2Data\include\boost\unordered\unordered_map.hpp
; File D:\Metin2 Server Files\mainline\SRC_2014\M2Data\include\boost\unordered\detail\implementation.hpp
; File D:\Metin2 Server Files\mainline\SRC_2014\M2Data\include\boost\unordered\unordered_map.hpp
; File D:\Metin2 Server Files\mainline\SRC_2014\M2Data\include\boost\unordered\detail\implementation.hpp
; File D:\Metin2 Server Files\mainline\SRC_2014\Metin2Client\EterPack\EterPackManager.cpp
; File D:\Metin2 Server Files\mainline\SRC_2014\M2Data\include\boost\unordered\detail\implementation.hpp
; File D:\Metin2 Server Files\mainline\SRC_2014\M2Data\include\boost\unordered\unordered_map.hpp
; File D:\Metin2 Server Files\mainline\SRC_2014\M2Data\include\boost\unordered\detail\implementation.hpp
; File D:\Metin2 Server Files\mainline\SRC_2014\Metin2Client\EterPack\EterPackManager.cpp
; File D:\Metin2 Server Files\mainline\SRC_2014\M2Data\include\boost\unordered\detail\implementation.hpp
; File D:\Metin2 Server Files\mainline\SRC_2014\Metin2Client\EterPack\EterPackManager.cpp
; File D:\Metin2 Server Files\mainline\SRC_2014\M2Data\include\boost\unordered\detail\implementation.hpp
; File D:\Metin2 Server Files\mainline\SRC_2014\Metin2Client\EterPack\EterPackManager.cpp
; File C:\Program Files (x86)\Microsoft Visual Studio\2019\Community\VC\Tools\MSVC\14.28.29333\include\xstring
; File D:\Metin2 Server Files\mainline\SRC_2014\Metin2Client\EterPack\EterPackManager.cpp
; File C:\Program Files (x86)\Microsoft Visual Studio\2019\Community\VC\Tools\MSVC\14.28.29333\include\xstring
; File D:\Metin2 Server Files\mainline\SRC_2014\Metin2Client\EterPack\EterPackManager.cpp
; File D:\Metin2 Server Files\mainline\SRC_2014\M2Data\include\boost\unordered\unordered_map.hpp
; File D:\Metin2 Server Files\mainline\SRC_2014\M2Data\include\boost\unordered\detail\implementation.hpp
; File D:\Metin2 Server Files\mainline\SRC_2014\M2Data\include\boost\unordered\unordered_map.hpp
; File D:\Metin2 Server Files\mainline\SRC_2014\M2Data\include\boost\unordered\detail\implementation.hpp
; File D:\Metin2 Server Files\mainline\SRC_2014\Metin2Client\EterPack\EterPackManager.cpp
; File D:\Metin2 Server Files\mainline\SRC_2014\M2Data\include\boost\unordered\detail\implementation.hpp
; File D:\Metin2 Server Files\mainline\SRC_2014\M2Data\include\boost\unordered\unordered_map.hpp
; File D:\Metin2 Server Files\mainline\SRC_2014\M2Data\include\boost\unordered\detail\implementation.hpp
; File D:\Metin2 Server Files\mainline\SRC_2014\Metin2Client\EterPack\EterPackManager.cpp
; File D:\Metin2 Server Files\mainline\SRC_2014\M2Data\include\boost\unordered\detail\implementation.hpp
; File D:\Metin2 Server Files\mainline\SRC_2014\Metin2Client\EterPack\EterPackManager.cpp
; File D:\Metin2 Server Files\mainline\SRC_2014\M2Data\include\boost\unordered\detail\implementation.hpp
; File D:\Metin2 Server Files\mainline\SRC_2014\Metin2Client\EterPack\EterPackManager.cpp
; File C:\Program Files (x86)\Microsoft Visual Studio\2019\Community\VC\Tools\MSVC\14.28.29333\include\xstring
; File D:\Metin2 Server Files\mainline\SRC_2014\Metin2Client\EterPack\EterPackManager.cpp
; File C:\Program Files (x86)\Microsoft Visual Studio\2019\Community\VC\Tools\MSVC\14.28.29333\include\xstring
; File D:\Metin2 Server Files\mainline\SRC_2014\Metin2Client\EterPack\EterPackManager.cpp
;	COMDAT ?WriteHybridCryptPackInfo@CEterPackManager@@QAEXPBD@Z
_TEXT	SEGMENT
$T2 = -184						; size = 4
$T3 = -180						; size = 4
$T4 = -176						; size = 4
$T5 = -172						; size = 4
$T6 = -168						; size = 4
$T7 = -164						; size = 4
$T8 = -160						; size = 4
_iSDBSize$9 = -156					; size = 4
_dwPackNamehash$10 = -152				; size = 4
tv251 = -148						; size = 4
tv136 = -144						; size = 4
$T11 = -140						; size = 4
$T12 = -136						; size = 4
$T13 = -132						; size = 4
$T14 = -128						; size = 4
$T15 = -124						; size = 4
$T16 = -120						; size = 4
$T17 = -116						; size = 4
$T18 = -112						; size = 4
$T19 = -108						; size = 4
tv248 = -104						; size = 4
tv65 = -100						; size = 4
$T20 = -96						; size = 4
$T21 = -92						; size = 4
$T22 = -88						; size = 4
$T23 = -84						; size = 4
_iSDBDataOffset$ = -80					; size = 4
_iSDBSizeAfterWrite$24 = -76				; size = 4
_iSDBSizeWriteOffset$25 = -72				; size = 4
tv168 = -68						; size = 4
_this$ = -64						; size = 4
_dwPackNamehash$26 = -60				; size = 4
tv76 = -56						; size = 4
_iSDBPackageCnt$ = -52					; size = 4
_iKeyPackageCount$ = -48				; size = 4
_pPolicy$27 = -44					; size = 4
$T28 = -40						; size = 4
_this$ = -36						; size = 4
_pPolicy$29 = -32					; size = 4
$T30 = -28						; size = 4
_this$ = -24						; size = 4
$T31 = -20						; size = 1
$T32 = -19						; size = 1
$T33 = -18						; size = 1
$T34 = -17						; size = 1
_cit$ = -16						; size = 4
__$EHRec$ = -12						; size = 12
_keyFile$ = 0						; size = 280
$T35 = 280						; size = 24
$T36 = 304						; size = 24
_noPathName$37 = 328					; size = 24
_noPathName$38 = 352					; size = 24
__$ArrayPad$ = 376					; size = 4
_pFileName$ = 388					; size = 4
?WriteHybridCryptPackInfo@CEterPackManager@@QAEXPBD@Z PROC ; CEterPackManager::WriteHybridCryptPackInfo, COMDAT
; _this$ = ecx

; 515  : {

  00000	55		 push	 ebp
  00001	8d ac 24 84 fe
	ff ff		 lea	 ebp, DWORD PTR [esp-380]
  00008	81 ec 7c 01 00
	00		 sub	 esp, 380		; 0000017cH
  0000e	6a ff		 push	 -1
  00010	68 00 00 00 00	 push	 __ehhandler$?WriteHybridCryptPackInfo@CEterPackManager@@QAEXPBD@Z
  00015	64 a1 00 00 00
	00		 mov	 eax, DWORD PTR fs:0
  0001b	50		 push	 eax
  0001c	81 ec ac 00 00
	00		 sub	 esp, 172		; 000000acH
  00022	a1 00 00 00 00	 mov	 eax, DWORD PTR ___security_cookie
  00027	33 c5		 xor	 eax, ebp
  00029	89 85 78 01 00
	00		 mov	 DWORD PTR __$ArrayPad$[ebp], eax
  0002f	50		 push	 eax
  00030	8d 45 f4	 lea	 eax, DWORD PTR __$EHRec$[ebp]
  00033	64 a3 00 00 00
	00		 mov	 DWORD PTR fs:0, eax
  00039	89 4d c0	 mov	 DWORD PTR _this$[ebp], ecx

; 516  : 	//NOTE : this file format contains a little bit of redundant data.
; 517  : 	//however it`s better for seperating cryptkey & supplementary data block.
; 518  : 
; 519  : 	//dump file format
; 520  : 
; 521  : 	//SDB data offset(4)
; 522  : 
; 523  : 	// about cryptkey
; 524  : 	//total packagecnt (4byte)
; 525  : 	//	for	packagecnt 
; 526  : 	//		db name hash 4byte( stl.h stringhash )
; 527  : 	//		extension cnt( 4byte)
; 528  : 	//		for	extension cnt
; 529  : 	//			ext hash ( stl.h stringhash )
; 530  : 	//			key-16byte 
; 531  : 	//			iv-16byte
; 532  : 
; 533  : 	//about SDB data
; 534  : 	//total packagecnt (4byte)
; 535  : 	//	for	packagecnt 
; 536  : 	//		db name hash 4byte( stl.h stringhash ) +child node size(4byte)
; 537  : 	//		sdb file cnt( 4byte )
; 538  : 	//		for	sdb file cnt
; 539  : 	//			filename hash ( stl.h stringhash )
; 540  : 	//			related map name size(4), relate map name
; 541  : 	//			sdb block size( 1byte )
; 542  : 	//			sdb blocks 
; 543  : 
; 544  : 	CFileBase keyFile;

  0003c	8d 4d 00	 lea	 ecx, DWORD PTR _keyFile$[ebp]
  0003f	e8 00 00 00 00	 call	 ??0CFileBase@@QAE@XZ	; CFileBase::CFileBase
  00044	83 65 fc 00	 and	 DWORD PTR __$EHRec$[ebp+8], 0

; 545  : 
; 546  : 	if( !keyFile.Create( pFileName, CFileBase::FILEMODE_WRITE) )

  00048	6a 02		 push	 2
  0004a	ff b5 84 01 00
	00		 push	 DWORD PTR _pFileName$[ebp]
  00050	8d 4d 00	 lea	 ecx, DWORD PTR _keyFile$[ebp]
  00053	e8 00 00 00 00	 call	 ?Create@CFileBase@@QAEHPBDW4EFileMode@1@@Z ; CFileBase::Create
  00058	85 c0		 test	 eax, eax
  0005a	75 11		 jne	 SHORT $LN8@WriteHybri

; 547  : 	{
; 548  : 		//TODO : write log
; 549  : 		return;

  0005c	83 4d fc ff	 or	 DWORD PTR __$EHRec$[ebp+8], -1
  00060	8d 4d 00	 lea	 ecx, DWORD PTR _keyFile$[ebp]
  00063	e8 00 00 00 00	 call	 ??1CFileBase@@UAE@XZ	; CFileBase::~CFileBase
  00068	e9 e0 03 00 00	 jmp	 $LN1@WriteHybri
$LN8@WriteHybri:

; 550  : 	}
; 551  : 
; 552  : 	int iKeyPackageCount = 0;

  0006d	83 65 d0 00	 and	 DWORD PTR _iKeyPackageCount$[ebp], 0

; 553  : 
; 554  : 	//write later ( SDB Offset & PackageCnt for Key )
; 555  : 	keyFile.SeekCur(2*sizeof(int));

  00071	6a 08		 push	 8
  00073	8d 4d 00	 lea	 ecx, DWORD PTR _keyFile$[ebp]
  00076	e8 00 00 00 00	 call	 ?SeekCur@CFileBase@@QAEXK@Z ; CFileBase::SeekCur
; File D:\Metin2 Server Files\mainline\SRC_2014\M2Data\include\boost\unordered\detail\implementation.hpp

; 2424 :         c_iterator() BOOST_NOEXCEPT : node_() {}

  0007b	83 65 f0 00	 and	 DWORD PTR _cit$[ebp], 0
; File D:\Metin2 Server Files\mainline\SRC_2014\M2Data\include\boost\unordered\unordered_map.hpp

; 193  :       iterator begin() BOOST_NOEXCEPT { return iterator(table_.begin()); }

  0007f	8b 45 c0	 mov	 eax, DWORD PTR _this$[ebp]
  00082	05 18 14 00 00	 add	 eax, 5144		; 00001418H
  00087	89 45 e8	 mov	 DWORD PTR _this$[ebp], eax
; File D:\Metin2 Server Files\mainline\SRC_2014\M2Data\include\boost\unordered\detail\implementation.hpp

; 3041 :           return size_ ? next_node(get_previous_start()) : node_pointer();

  0008a	8b 45 e8	 mov	 eax, DWORD PTR _this$[ebp]
  0008d	83 78 08 00	 cmp	 DWORD PTR [eax+8], 0
  00091	74 2b		 je	 SHORT $LN27@WriteHybri

; 3026 :           return buckets_ + static_cast<std::ptrdiff_t>(bucket_index);

  00093	8b 45 e8	 mov	 eax, DWORD PTR _this$[ebp]
  00096	8b 40 04	 mov	 eax, DWORD PTR [eax+4]
  00099	8b 4d e8	 mov	 ecx, DWORD PTR _this$[ebp]
  0009c	8b 49 14	 mov	 ecx, DWORD PTR [ecx+20]
  0009f	8d 04 81	 lea	 eax, DWORD PTR [ecx+eax*4]
  000a2	89 85 78 ff ff
	ff		 mov	 DWORD PTR $T12[ebp], eax

; 3041 :           return size_ ? next_node(get_previous_start()) : node_pointer();

  000a8	8b 85 48 ff ff
	ff		 mov	 eax, DWORD PTR $T2[ebp]
  000ae	89 45 e4	 mov	 DWORD PTR $T30[ebp], eax

; 2964 :           return static_cast<node_pointer>(n->next_);

  000b1	8b 85 78 ff ff
	ff		 mov	 eax, DWORD PTR $T12[ebp]
  000b7	8b 00		 mov	 eax, DWORD PTR [eax]
  000b9	89 45 e4	 mov	 DWORD PTR $T30[ebp], eax

; 3041 :           return size_ ? next_node(get_previous_start()) : node_pointer();

  000bc	eb 04		 jmp	 SHORT $LN25@WriteHybri
$LN27@WriteHybri:
  000be	83 65 e4 00	 and	 DWORD PTR $T30[ebp], 0
$LN25@WriteHybri:

; 2371 :           : node_(static_cast<node_pointer>(x))

  000c2	8b 45 e4	 mov	 eax, DWORD PTR $T30[ebp]
  000c5	89 85 5c ff ff
	ff		 mov	 DWORD PTR $T7[ebp], eax
; File D:\Metin2 Server Files\mainline\SRC_2014\M2Data\include\boost\unordered\unordered_map.hpp

; 193  :       iterator begin() BOOST_NOEXCEPT { return iterator(table_.begin()); }

  000cb	8d 85 5c ff ff
	ff		 lea	 eax, DWORD PTR $T7[ebp]
  000d1	89 85 58 ff ff
	ff		 mov	 DWORD PTR $T6[ebp], eax
; File D:\Metin2 Server Files\mainline\SRC_2014\M2Data\include\boost\unordered\detail\implementation.hpp

; 2431 :         c_iterator(n_iterator const& x) BOOST_NOEXCEPT : node_(x.node_) {}

  000d7	8b 85 58 ff ff
	ff		 mov	 eax, DWORD PTR $T6[ebp]
  000dd	8b 00		 mov	 eax, DWORD PTR [eax]
  000df	89 85 54 ff ff
	ff		 mov	 DWORD PTR $T5[ebp], eax
; File D:\Metin2 Server Files\mainline\SRC_2014\Metin2Client\EterPack\EterPackManager.cpp

; 558  : 	for( cit = m_PackMap.begin(); cit != m_PackMap.end(); ++cit )

  000e5	8b 85 54 ff ff
	ff		 mov	 eax, DWORD PTR $T5[ebp]
  000eb	89 45 f0	 mov	 DWORD PTR _cit$[ebp], eax
  000ee	eb 08		 jmp	 SHORT $LN4@WriteHybri
$LN2@WriteHybri:
; File D:\Metin2 Server Files\mainline\SRC_2014\M2Data\include\boost\unordered\detail\implementation.hpp

; 2439 :           node_ = static_cast<node_pointer>(node_->next_);

  000f0	8b 45 f0	 mov	 eax, DWORD PTR _cit$[ebp]
  000f3	8b 00		 mov	 eax, DWORD PTR [eax]
  000f5	89 45 f0	 mov	 DWORD PTR _cit$[ebp], eax
$LN4@WriteHybri:

; 2368 :         iterator() BOOST_NOEXCEPT : node_() {}

  000f8	83 a5 50 ff ff
	ff 00		 and	 DWORD PTR $T4[ebp], 0
; File D:\Metin2 Server Files\mainline\SRC_2014\M2Data\include\boost\unordered\unordered_map.hpp

; 200  :       iterator end() BOOST_NOEXCEPT { return iterator(); }

  000ff	8d 85 50 ff ff
	ff		 lea	 eax, DWORD PTR $T4[ebp]
  00105	89 45 ac	 mov	 DWORD PTR $T23[ebp], eax
; File D:\Metin2 Server Files\mainline\SRC_2014\M2Data\include\boost\unordered\detail\implementation.hpp

; 2431 :         c_iterator(n_iterator const& x) BOOST_NOEXCEPT : node_(x.node_) {}

  00108	8b 45 ac	 mov	 eax, DWORD PTR $T23[ebp]
  0010b	8b 00		 mov	 eax, DWORD PTR [eax]
  0010d	89 45 a8	 mov	 DWORD PTR $T22[ebp], eax

; 2459 :           return x.node_ != y.node_;

  00110	8b 45 f0	 mov	 eax, DWORD PTR _cit$[ebp]
  00113	3b 45 a8	 cmp	 eax, DWORD PTR $T22[ebp]
  00116	74 09		 je	 SHORT $LN56@WriteHybri
  00118	c7 45 c8 01 00
	00 00		 mov	 DWORD PTR tv76[ebp], 1
  0011f	eb 04		 jmp	 SHORT $LN57@WriteHybri
$LN56@WriteHybri:
  00121	83 65 c8 00	 and	 DWORD PTR tv76[ebp], 0
$LN57@WriteHybri:
  00125	8a 45 c8	 mov	 al, BYTE PTR tv76[ebp]
  00128	88 45 ef	 mov	 BYTE PTR $T34[ebp], al
; File D:\Metin2 Server Files\mainline\SRC_2014\Metin2Client\EterPack\EterPackManager.cpp

; 558  : 	for( cit = m_PackMap.begin(); cit != m_PackMap.end(); ++cit )

  0012b	0f b6 45 ef	 movzx	 eax, BYTE PTR $T34[ebp]
  0012f	85 c0		 test	 eax, eax
  00131	0f 84 db 00 00
	00		 je	 $LN3@WriteHybri
; File D:\Metin2 Server Files\mainline\SRC_2014\M2Data\include\boost\unordered\detail\implementation.hpp

; 4869 :         value_type* value_ptr() { return value_base_.value_ptr(); }

  00137	8b 45 f0	 mov	 eax, DWORD PTR _cit$[ebp]
  0013a	83 c0 08	 add	 eax, 8

; 2435 :         value_type const* operator->() const { return node_->value_ptr(); }

  0013d	89 45 a4	 mov	 DWORD PTR $T21[ebp], eax
; File D:\Metin2 Server Files\mainline\SRC_2014\Metin2Client\EterPack\EterPackManager.cpp

; 560  : 		EterPackPolicy_CSHybridCrypt* pPolicy = cit->second->GetPackPolicy_HybridCrypt();

  00140	8b 45 a4	 mov	 eax, DWORD PTR $T21[ebp]
  00143	8b 48 18	 mov	 ecx, DWORD PTR [eax+24]
  00146	e8 00 00 00 00	 call	 ?GetPackPolicy_HybridCrypt@CEterPack@@QBEPAVEterPackPolicy_CSHybridCrypt@@XZ ; CEterPack::GetPackPolicy_HybridCrypt
  0014b	89 45 e0	 mov	 DWORD PTR _pPolicy$29[ebp], eax

; 561  : 		if( !pPolicy || !pPolicy->IsContainingCryptKey() )

  0014e	83 7d e0 00	 cmp	 DWORD PTR _pPolicy$29[ebp], 0
  00152	74 0f		 je	 SHORT $LN10@WriteHybri
  00154	8b 4d e0	 mov	 ecx, DWORD PTR _pPolicy$29[ebp]
  00157	e8 00 00 00 00	 call	 ?IsContainingCryptKey@EterPackPolicy_CSHybridCrypt@@QBE_NXZ ; EterPackPolicy_CSHybridCrypt::IsContainingCryptKey
  0015c	0f b6 c0	 movzx	 eax, al
  0015f	85 c0		 test	 eax, eax
  00161	75 02		 jne	 SHORT $LN9@WriteHybri
$LN10@WriteHybri:

; 562  : 			continue;

  00163	eb 8b		 jmp	 SHORT $LN2@WriteHybri
$LN9@WriteHybri:

; 563  : 
; 564  : 		iKeyPackageCount++;

  00165	8b 45 d0	 mov	 eax, DWORD PTR _iKeyPackageCount$[ebp]
  00168	40		 inc	 eax
  00169	89 45 d0	 mov	 DWORD PTR _iKeyPackageCount$[ebp], eax
; File D:\Metin2 Server Files\mainline\SRC_2014\M2Data\include\boost\unordered\detail\implementation.hpp

; 4869 :         value_type* value_ptr() { return value_base_.value_ptr(); }

  0016c	8b 45 f0	 mov	 eax, DWORD PTR _cit$[ebp]
  0016f	83 c0 08	 add	 eax, 8

; 2435 :         value_type const* operator->() const { return node_->value_ptr(); }

  00172	89 45 a0	 mov	 DWORD PTR $T20[ebp], eax
; File D:\Metin2 Server Files\mainline\SRC_2014\Metin2Client\EterPack\EterPackManager.cpp

; 566  : 		std::string noPathName = CFileNameHelper::NoPath(string(cit->first));

  00175	ff 75 a0	 push	 DWORD PTR $T20[ebp]
  00178	8d 8d 30 01 00
	00		 lea	 ecx, DWORD PTR $T36[ebp]
  0017e	e8 00 00 00 00	 call	 ??0?$basic_string@DU?$char_traits@D@std@@V?$allocator@D@2@@std@@QAE@ABV01@@Z ; std::basic_string<char,std::char_traits<char>,std::allocator<char> >::basic_string<char,std::char_traits<char>,std::allocator<char> >
  00183	89 45 9c	 mov	 DWORD PTR tv65[ebp], eax
  00186	8b 45 9c	 mov	 eax, DWORD PTR tv65[ebp]
  00189	89 45 98	 mov	 DWORD PTR tv248[ebp], eax
  0018c	c6 45 fc 01	 mov	 BYTE PTR __$EHRec$[ebp+8], 1
  00190	ff 75 98	 push	 DWORD PTR tv248[ebp]
  00193	8d 85 60 01 00
	00		 lea	 eax, DWORD PTR _noPathName$38[ebp]
  00199	50		 push	 eax
  0019a	e8 00 00 00 00	 call	 ?NoPath@CFileNameHelper@@SA?AV?$basic_string@DU?$char_traits@D@std@@V?$allocator@D@2@@std@@AAV23@@Z ; CFileNameHelper::NoPath
  0019f	59		 pop	 ecx
  001a0	59		 pop	 ecx
  001a1	c6 45 fc 03	 mov	 BYTE PTR __$EHRec$[ebp+8], 3
; File C:\Program Files (x86)\Microsoft Visual Studio\2019\Community\VC\Tools\MSVC\14.28.29333\include\xstring

; 2801 :         _Tidy_deallocate();

  001a5	8d 8d 30 01 00
	00		 lea	 ecx, DWORD PTR $T36[ebp]
  001ab	e8 00 00 00 00	 call	 ?_Tidy_deallocate@?$basic_string@DU?$char_traits@D@std@@V?$allocator@D@2@@std@@AAEXXZ ; std::basic_string<char,std::char_traits<char>,std::allocator<char> >::_Tidy_deallocate
; File D:\Metin2 Server Files\mainline\SRC_2014\Metin2Client\EterPack\EterPackManager.cpp

; 568  : 		DWORD dwPackNamehash = stringhash().GetHash(noPathName);

  001b0	8d 85 60 01 00
	00		 lea	 eax, DWORD PTR _noPathName$38[ebp]
  001b6	50		 push	 eax
  001b7	8d 4d ed	 lea	 ecx, DWORD PTR $T32[ebp]
  001ba	e8 00 00 00 00	 call	 ?GetHash@stringhash@@QBEIABV?$basic_string@DU?$char_traits@D@std@@V?$allocator@D@2@@std@@@Z ; stringhash::GetHash
  001bf	89 45 c4	 mov	 DWORD PTR _dwPackNamehash$26[ebp], eax

; 569  : 
; 570  : 		CMakePackLog::GetSingleton().Writef("CEterPackManager::WriteHybridCryptPackInfo PackName : %s, Hash : %x", noPathName.c_str(), dwPackNamehash);

  001c2	ff 75 c4	 push	 DWORD PTR _dwPackNamehash$26[ebp]
  001c5	8d 8d 60 01 00
	00		 lea	 ecx, DWORD PTR _noPathName$38[ebp]
  001cb	e8 00 00 00 00	 call	 ?c_str@?$basic_string@DU?$char_traits@D@std@@V?$allocator@D@2@@std@@QBEPBDXZ ; std::basic_string<char,std::char_traits<char>,std::allocator<char> >::c_str
  001d0	50		 push	 eax
  001d1	68 00 00 00 00	 push	 OFFSET ??_C@_0EE@JEJDAIPD@CEterPackManager?3?3WriteHybridCr@
  001d6	e8 00 00 00 00	 call	 ?GetSingleton@CMakePackLog@@SAAAV1@XZ ; CMakePackLog::GetSingleton
  001db	50		 push	 eax
  001dc	e8 00 00 00 00	 call	 ?Writef@CMakePackLog@@QAAXPBDZZ ; CMakePackLog::Writef
  001e1	83 c4 10	 add	 esp, 16			; 00000010H

; 571  : 		keyFile.Write( &dwPackNamehash, sizeof(DWORD) );

  001e4	6a 04		 push	 4
  001e6	8d 45 c4	 lea	 eax, DWORD PTR _dwPackNamehash$26[ebp]
  001e9	50		 push	 eax
  001ea	8d 4d 00	 lea	 ecx, DWORD PTR _keyFile$[ebp]
  001ed	e8 00 00 00 00	 call	 ?Write@CFileBase@@UAEHPBXH@Z ; CFileBase::Write

; 572  : 
; 573  : 		pPolicy->WriteCryptKeyToFile( keyFile );

  001f2	8d 45 00	 lea	 eax, DWORD PTR _keyFile$[ebp]
  001f5	50		 push	 eax
  001f6	8b 4d e0	 mov	 ecx, DWORD PTR _pPolicy$29[ebp]
  001f9	e8 00 00 00 00	 call	 ?WriteCryptKeyToFile@EterPackPolicy_CSHybridCrypt@@QAEXAAVCFileBase@@@Z ; EterPackPolicy_CSHybridCrypt::WriteCryptKeyToFile

; 574  : 	}

  001fe	c6 45 fc 00	 mov	 BYTE PTR __$EHRec$[ebp+8], 0
; File C:\Program Files (x86)\Microsoft Visual Studio\2019\Community\VC\Tools\MSVC\14.28.29333\include\xstring

; 2801 :         _Tidy_deallocate();

  00202	8d 8d 60 01 00
	00		 lea	 ecx, DWORD PTR _noPathName$38[ebp]
  00208	e8 00 00 00 00	 call	 ?_Tidy_deallocate@?$basic_string@DU?$char_traits@D@std@@V?$allocator@D@2@@std@@AAEXXZ ; std::basic_string<char,std::char_traits<char>,std::allocator<char> >::_Tidy_deallocate
; File D:\Metin2 Server Files\mainline\SRC_2014\Metin2Client\EterPack\EterPackManager.cpp

; 574  : 	}

  0020d	e9 de fe ff ff	 jmp	 $LN2@WriteHybri
$LN3@WriteHybri:

; 575  : 
; 576  : 	//Write SDB Data
; 577  : 	int iSDBDataOffset = keyFile.GetPosition();

  00212	8d 4d 00	 lea	 ecx, DWORD PTR _keyFile$[ebp]
  00215	e8 00 00 00 00	 call	 ?GetPosition@CFileBase@@QAEKXZ ; CFileBase::GetPosition
  0021a	89 45 b0	 mov	 DWORD PTR _iSDBDataOffset$[ebp], eax

; 578  : 	int iSDBPackageCnt = 0;

  0021d	83 65 cc 00	 and	 DWORD PTR _iSDBPackageCnt$[ebp], 0

; 579  : 
; 580  : 	//Write SDB PackageCnt Later
; 581  : 	keyFile.SeekCur(sizeof(int));

  00221	6a 04		 push	 4
  00223	8d 4d 00	 lea	 ecx, DWORD PTR _keyFile$[ebp]
  00226	e8 00 00 00 00	 call	 ?SeekCur@CFileBase@@QAEXK@Z ; CFileBase::SeekCur
; File D:\Metin2 Server Files\mainline\SRC_2014\M2Data\include\boost\unordered\unordered_map.hpp

; 193  :       iterator begin() BOOST_NOEXCEPT { return iterator(table_.begin()); }

  0022b	8b 45 c0	 mov	 eax, DWORD PTR _this$[ebp]
  0022e	05 18 14 00 00	 add	 eax, 5144		; 00001418H
  00233	89 45 dc	 mov	 DWORD PTR _this$[ebp], eax
; File D:\Metin2 Server Files\mainline\SRC_2014\M2Data\include\boost\unordered\detail\implementation.hpp

; 3041 :           return size_ ? next_node(get_previous_start()) : node_pointer();

  00236	8b 45 dc	 mov	 eax, DWORD PTR _this$[ebp]
  00239	83 78 08 00	 cmp	 DWORD PTR [eax+8], 0
  0023d	74 25		 je	 SHORT $LN148@WriteHybri

; 3026 :           return buckets_ + static_cast<std::ptrdiff_t>(bucket_index);

  0023f	8b 45 dc	 mov	 eax, DWORD PTR _this$[ebp]
  00242	8b 40 04	 mov	 eax, DWORD PTR [eax+4]
  00245	8b 4d dc	 mov	 ecx, DWORD PTR _this$[ebp]
  00248	8b 49 14	 mov	 ecx, DWORD PTR [ecx+20]
  0024b	8d 04 81	 lea	 eax, DWORD PTR [ecx+eax*4]
  0024e	89 45 94	 mov	 DWORD PTR $T19[ebp], eax

; 3041 :           return size_ ? next_node(get_previous_start()) : node_pointer();

  00251	8b 85 4c ff ff
	ff		 mov	 eax, DWORD PTR $T3[ebp]
  00257	89 45 d8	 mov	 DWORD PTR $T28[ebp], eax

; 2964 :           return static_cast<node_pointer>(n->next_);

  0025a	8b 45 94	 mov	 eax, DWORD PTR $T19[ebp]
  0025d	8b 00		 mov	 eax, DWORD PTR [eax]
  0025f	89 45 d8	 mov	 DWORD PTR $T28[ebp], eax

; 3041 :           return size_ ? next_node(get_previous_start()) : node_pointer();

  00262	eb 04		 jmp	 SHORT $LN146@WriteHybri
$LN148@WriteHybri:
  00264	83 65 d8 00	 and	 DWORD PTR $T28[ebp], 0
$LN146@WriteHybri:

; 2371 :           : node_(static_cast<node_pointer>(x))

  00268	8b 45 d8	 mov	 eax, DWORD PTR $T28[ebp]
  0026b	89 45 90	 mov	 DWORD PTR $T18[ebp], eax
; File D:\Metin2 Server Files\mainline\SRC_2014\M2Data\include\boost\unordered\unordered_map.hpp

; 193  :       iterator begin() BOOST_NOEXCEPT { return iterator(table_.begin()); }

  0026e	8d 45 90	 lea	 eax, DWORD PTR $T18[ebp]
  00271	89 45 8c	 mov	 DWORD PTR $T17[ebp], eax
; File D:\Metin2 Server Files\mainline\SRC_2014\M2Data\include\boost\unordered\detail\implementation.hpp

; 2431 :         c_iterator(n_iterator const& x) BOOST_NOEXCEPT : node_(x.node_) {}

  00274	8b 45 8c	 mov	 eax, DWORD PTR $T17[ebp]
  00277	8b 00		 mov	 eax, DWORD PTR [eax]
  00279	89 45 88	 mov	 DWORD PTR $T16[ebp], eax
; File D:\Metin2 Server Files\mainline\SRC_2014\Metin2Client\EterPack\EterPackManager.cpp

; 582  : 	for( cit = m_PackMap.begin(); cit != m_PackMap.end(); ++cit )

  0027c	8b 45 88	 mov	 eax, DWORD PTR $T16[ebp]
  0027f	89 45 f0	 mov	 DWORD PTR _cit$[ebp], eax
  00282	eb 08		 jmp	 SHORT $LN7@WriteHybri
$LN5@WriteHybri:
; File D:\Metin2 Server Files\mainline\SRC_2014\M2Data\include\boost\unordered\detail\implementation.hpp

; 2439 :           node_ = static_cast<node_pointer>(node_->next_);

  00284	8b 45 f0	 mov	 eax, DWORD PTR _cit$[ebp]
  00287	8b 00		 mov	 eax, DWORD PTR [eax]
  00289	89 45 f0	 mov	 DWORD PTR _cit$[ebp], eax
$LN7@WriteHybri:

; 2368 :         iterator() BOOST_NOEXCEPT : node_() {}

  0028c	83 65 84 00	 and	 DWORD PTR $T15[ebp], 0
; File D:\Metin2 Server Files\mainline\SRC_2014\M2Data\include\boost\unordered\unordered_map.hpp

; 200  :       iterator end() BOOST_NOEXCEPT { return iterator(); }

  00290	8d 45 84	 lea	 eax, DWORD PTR $T15[ebp]
  00293	89 45 80	 mov	 DWORD PTR $T14[ebp], eax
; File D:\Metin2 Server Files\mainline\SRC_2014\M2Data\include\boost\unordered\detail\implementation.hpp

; 2431 :         c_iterator(n_iterator const& x) BOOST_NOEXCEPT : node_(x.node_) {}

  00296	8b 45 80	 mov	 eax, DWORD PTR $T14[ebp]
  00299	8b 00		 mov	 eax, DWORD PTR [eax]
  0029b	89 85 7c ff ff
	ff		 mov	 DWORD PTR $T13[ebp], eax

; 2459 :           return x.node_ != y.node_;

  002a1	8b 45 f0	 mov	 eax, DWORD PTR _cit$[ebp]
  002a4	3b 85 7c ff ff
	ff		 cmp	 eax, DWORD PTR $T13[ebp]
  002aa	74 09		 je	 SHORT $LN177@WriteHybri
  002ac	c7 45 bc 01 00
	00 00		 mov	 DWORD PTR tv168[ebp], 1
  002b3	eb 04		 jmp	 SHORT $LN178@WriteHybri
$LN177@WriteHybri:
  002b5	83 65 bc 00	 and	 DWORD PTR tv168[ebp], 0
$LN178@WriteHybri:
  002b9	8a 45 bc	 mov	 al, BYTE PTR tv168[ebp]
  002bc	88 45 ee	 mov	 BYTE PTR $T33[ebp], al
; File D:\Metin2 Server Files\mainline\SRC_2014\Metin2Client\EterPack\EterPackManager.cpp

; 582  : 	for( cit = m_PackMap.begin(); cit != m_PackMap.end(); ++cit )

  002bf	0f b6 45 ee	 movzx	 eax, BYTE PTR $T33[ebp]
  002c3	85 c0		 test	 eax, eax
  002c5	0f 84 2f 01 00
	00		 je	 $LN6@WriteHybri
; File D:\Metin2 Server Files\mainline\SRC_2014\M2Data\include\boost\unordered\detail\implementation.hpp

; 4869 :         value_type* value_ptr() { return value_base_.value_ptr(); }

  002cb	8b 45 f0	 mov	 eax, DWORD PTR _cit$[ebp]
  002ce	83 c0 08	 add	 eax, 8

; 2435 :         value_type const* operator->() const { return node_->value_ptr(); }

  002d1	89 85 60 ff ff
	ff		 mov	 DWORD PTR $T8[ebp], eax
; File D:\Metin2 Server Files\mainline\SRC_2014\Metin2Client\EterPack\EterPackManager.cpp

; 584  : 		EterPackPolicy_CSHybridCrypt* pPolicy = cit->second->GetPackPolicy_HybridCrypt();

  002d7	8b 85 60 ff ff
	ff		 mov	 eax, DWORD PTR $T8[ebp]
  002dd	8b 48 18	 mov	 ecx, DWORD PTR [eax+24]
  002e0	e8 00 00 00 00	 call	 ?GetPackPolicy_HybridCrypt@CEterPack@@QBEPAVEterPackPolicy_CSHybridCrypt@@XZ ; CEterPack::GetPackPolicy_HybridCrypt
  002e5	89 45 d4	 mov	 DWORD PTR _pPolicy$27[ebp], eax

; 585  : 		if( !pPolicy || !pPolicy->IsContainingSDBFile() )

  002e8	83 7d d4 00	 cmp	 DWORD PTR _pPolicy$27[ebp], 0
  002ec	74 0f		 je	 SHORT $LN12@WriteHybri
  002ee	8b 4d d4	 mov	 ecx, DWORD PTR _pPolicy$27[ebp]
  002f1	e8 00 00 00 00	 call	 ?IsContainingSDBFile@EterPackPolicy_CSHybridCrypt@@QBE_NXZ ; EterPackPolicy_CSHybridCrypt::IsContainingSDBFile
  002f6	0f b6 c0	 movzx	 eax, al
  002f9	85 c0		 test	 eax, eax
  002fb	75 02		 jne	 SHORT $LN11@WriteHybri
$LN12@WriteHybri:

; 586  : 			continue;

  002fd	eb 85		 jmp	 SHORT $LN5@WriteHybri
$LN11@WriteHybri:

; 587  : 
; 588  : 		iSDBPackageCnt++;

  002ff	8b 45 cc	 mov	 eax, DWORD PTR _iSDBPackageCnt$[ebp]
  00302	40		 inc	 eax
  00303	89 45 cc	 mov	 DWORD PTR _iSDBPackageCnt$[ebp], eax
; File D:\Metin2 Server Files\mainline\SRC_2014\M2Data\include\boost\unordered\detail\implementation.hpp

; 4869 :         value_type* value_ptr() { return value_base_.value_ptr(); }

  00306	8b 45 f0	 mov	 eax, DWORD PTR _cit$[ebp]
  00309	83 c0 08	 add	 eax, 8

; 2435 :         value_type const* operator->() const { return node_->value_ptr(); }

  0030c	89 85 74 ff ff
	ff		 mov	 DWORD PTR $T11[ebp], eax
; File D:\Metin2 Server Files\mainline\SRC_2014\Metin2Client\EterPack\EterPackManager.cpp

; 590  : 		std::string noPathName = CFileNameHelper::NoPath(string(cit->first));

  00312	ff b5 74 ff ff
	ff		 push	 DWORD PTR $T11[ebp]
  00318	8d 8d 18 01 00
	00		 lea	 ecx, DWORD PTR $T35[ebp]
  0031e	e8 00 00 00 00	 call	 ??0?$basic_string@DU?$char_traits@D@std@@V?$allocator@D@2@@std@@QAE@ABV01@@Z ; std::basic_string<char,std::char_traits<char>,std::allocator<char> >::basic_string<char,std::char_traits<char>,std::allocator<char> >
  00323	89 85 70 ff ff
	ff		 mov	 DWORD PTR tv136[ebp], eax
  00329	8b 85 70 ff ff
	ff		 mov	 eax, DWORD PTR tv136[ebp]
  0032f	89 85 6c ff ff
	ff		 mov	 DWORD PTR tv251[ebp], eax
  00335	c6 45 fc 04	 mov	 BYTE PTR __$EHRec$[ebp+8], 4
  00339	ff b5 6c ff ff
	ff		 push	 DWORD PTR tv251[ebp]
  0033f	8d 85 48 01 00
	00		 lea	 eax, DWORD PTR _noPathName$37[ebp]
  00345	50		 push	 eax
  00346	e8 00 00 00 00	 call	 ?NoPath@CFileNameHelper@@SA?AV?$basic_string@DU?$char_traits@D@std@@V?$allocator@D@2@@std@@AAV23@@Z ; CFileNameHelper::NoPath
  0034b	59		 pop	 ecx
  0034c	59		 pop	 ecx
  0034d	c6 45 fc 06	 mov	 BYTE PTR __$EHRec$[ebp+8], 6
; File C:\Program Files (x86)\Microsoft Visual Studio\2019\Community\VC\Tools\MSVC\14.28.29333\include\xstring

; 2801 :         _Tidy_deallocate();

  00351	8d 8d 18 01 00
	00		 lea	 ecx, DWORD PTR $T35[ebp]
  00357	e8 00 00 00 00	 call	 ?_Tidy_deallocate@?$basic_string@DU?$char_traits@D@std@@V?$allocator@D@2@@std@@AAEXXZ ; std::basic_string<char,std::char_traits<char>,std::allocator<char> >::_Tidy_deallocate
; File D:\Metin2 Server Files\mainline\SRC_2014\Metin2Client\EterPack\EterPackManager.cpp

; 592  : 		DWORD dwPackNamehash = stringhash().GetHash(noPathName);

  0035c	8d 85 48 01 00
	00		 lea	 eax, DWORD PTR _noPathName$37[ebp]
  00362	50		 push	 eax
  00363	8d 4d ec	 lea	 ecx, DWORD PTR $T31[ebp]
  00366	e8 00 00 00 00	 call	 ?GetHash@stringhash@@QBEIABV?$basic_string@DU?$char_traits@D@std@@V?$allocator@D@2@@std@@@Z ; stringhash::GetHash
  0036b	89 85 68 ff ff
	ff		 mov	 DWORD PTR _dwPackNamehash$10[ebp], eax

; 593  : 		keyFile.Write( &dwPackNamehash, sizeof(DWORD) );

  00371	6a 04		 push	 4
  00373	8d 85 68 ff ff
	ff		 lea	 eax, DWORD PTR _dwPackNamehash$10[ebp]
  00379	50		 push	 eax
  0037a	8d 4d 00	 lea	 ecx, DWORD PTR _keyFile$[ebp]
  0037d	e8 00 00 00 00	 call	 ?Write@CFileBase@@UAEHPBXH@Z ; CFileBase::Write

; 594  : 
; 595  : 		int iSDBSizeWriteOffset = keyFile.GetPosition();

  00382	8d 4d 00	 lea	 ecx, DWORD PTR _keyFile$[ebp]
  00385	e8 00 00 00 00	 call	 ?GetPosition@CFileBase@@QAEKXZ ; CFileBase::GetPosition
  0038a	89 45 b8	 mov	 DWORD PTR _iSDBSizeWriteOffset$25[ebp], eax

; 596  : 		keyFile.SeekCur(sizeof(int));

  0038d	6a 04		 push	 4
  0038f	8d 4d 00	 lea	 ecx, DWORD PTR _keyFile$[ebp]
  00392	e8 00 00 00 00	 call	 ?SeekCur@CFileBase@@QAEXK@Z ; CFileBase::SeekCur

; 597  : 
; 598  : 		pPolicy->WriteSupplementaryDataBlockToFile( keyFile );

  00397	8d 45 00	 lea	 eax, DWORD PTR _keyFile$[ebp]
  0039a	50		 push	 eax
  0039b	8b 4d d4	 mov	 ecx, DWORD PTR _pPolicy$27[ebp]
  0039e	e8 00 00 00 00	 call	 ?WriteSupplementaryDataBlockToFile@EterPackPolicy_CSHybridCrypt@@QAEXAAVCFileBase@@@Z ; EterPackPolicy_CSHybridCrypt::WriteSupplementaryDataBlockToFile

; 599  : 		int iSDBSizeAfterWrite = keyFile.GetPosition();

  003a3	8d 4d 00	 lea	 ecx, DWORD PTR _keyFile$[ebp]
  003a6	e8 00 00 00 00	 call	 ?GetPosition@CFileBase@@QAEKXZ ; CFileBase::GetPosition
  003ab	89 45 b4	 mov	 DWORD PTR _iSDBSizeAfterWrite$24[ebp], eax

; 600  : 
; 601  : 		keyFile.Seek(iSDBSizeWriteOffset);

  003ae	ff 75 b8	 push	 DWORD PTR _iSDBSizeWriteOffset$25[ebp]
  003b1	8d 4d 00	 lea	 ecx, DWORD PTR _keyFile$[ebp]
  003b4	e8 00 00 00 00	 call	 ?Seek@CFileBase@@QAEXK@Z ; CFileBase::Seek

; 602  : 
; 603  : 		int iSDBSize = iSDBSizeAfterWrite-(iSDBSizeWriteOffset+4);

  003b9	8b 45 b8	 mov	 eax, DWORD PTR _iSDBSizeWriteOffset$25[ebp]
  003bc	83 c0 04	 add	 eax, 4
  003bf	8b 4d b4	 mov	 ecx, DWORD PTR _iSDBSizeAfterWrite$24[ebp]
  003c2	2b c8		 sub	 ecx, eax
  003c4	89 8d 64 ff ff
	ff		 mov	 DWORD PTR _iSDBSize$9[ebp], ecx

; 604  : 		keyFile.Write( &iSDBSize, sizeof(int) );

  003ca	6a 04		 push	 4
  003cc	8d 85 64 ff ff
	ff		 lea	 eax, DWORD PTR _iSDBSize$9[ebp]
  003d2	50		 push	 eax
  003d3	8d 4d 00	 lea	 ecx, DWORD PTR _keyFile$[ebp]
  003d6	e8 00 00 00 00	 call	 ?Write@CFileBase@@UAEHPBXH@Z ; CFileBase::Write

; 605  : 
; 606  : 		keyFile.Seek(iSDBSizeAfterWrite);

  003db	ff 75 b4	 push	 DWORD PTR _iSDBSizeAfterWrite$24[ebp]
  003de	8d 4d 00	 lea	 ecx, DWORD PTR _keyFile$[ebp]
  003e1	e8 00 00 00 00	 call	 ?Seek@CFileBase@@QAEXK@Z ; CFileBase::Seek

; 607  : 	}

  003e6	c6 45 fc 00	 mov	 BYTE PTR __$EHRec$[ebp+8], 0
; File C:\Program Files (x86)\Microsoft Visual Studio\2019\Community\VC\Tools\MSVC\14.28.29333\include\xstring

; 2801 :         _Tidy_deallocate();

  003ea	8d 8d 48 01 00
	00		 lea	 ecx, DWORD PTR _noPathName$37[ebp]
  003f0	e8 00 00 00 00	 call	 ?_Tidy_deallocate@?$basic_string@DU?$char_traits@D@std@@V?$allocator@D@2@@std@@AAEXXZ ; std::basic_string<char,std::char_traits<char>,std::allocator<char> >::_Tidy_deallocate
; File D:\Metin2 Server Files\mainline\SRC_2014\Metin2Client\EterPack\EterPackManager.cpp

; 607  : 	}

  003f5	e9 8a fe ff ff	 jmp	 $LN5@WriteHybri
$LN6@WriteHybri:

; 608  : 
; 609  : 	//write sdb data start offset & package cnt
; 610  : 	keyFile.Seek(0);

  003fa	6a 00		 push	 0
  003fc	8d 4d 00	 lea	 ecx, DWORD PTR _keyFile$[ebp]
  003ff	e8 00 00 00 00	 call	 ?Seek@CFileBase@@QAEXK@Z ; CFileBase::Seek

; 611  : 	keyFile.Write( &iSDBDataOffset, sizeof(int));

  00404	6a 04		 push	 4
  00406	8d 45 b0	 lea	 eax, DWORD PTR _iSDBDataOffset$[ebp]
  00409	50		 push	 eax
  0040a	8d 4d 00	 lea	 ecx, DWORD PTR _keyFile$[ebp]
  0040d	e8 00 00 00 00	 call	 ?Write@CFileBase@@UAEHPBXH@Z ; CFileBase::Write

; 612  : 	keyFile.Write( &iKeyPackageCount, sizeof(int));

  00412	6a 04		 push	 4
  00414	8d 45 d0	 lea	 eax, DWORD PTR _iKeyPackageCount$[ebp]
  00417	50		 push	 eax
  00418	8d 4d 00	 lea	 ecx, DWORD PTR _keyFile$[ebp]
  0041b	e8 00 00 00 00	 call	 ?Write@CFileBase@@UAEHPBXH@Z ; CFileBase::Write

; 613  : 
; 614  : 	keyFile.Seek(iSDBDataOffset);

  00420	ff 75 b0	 push	 DWORD PTR _iSDBDataOffset$[ebp]
  00423	8d 4d 00	 lea	 ecx, DWORD PTR _keyFile$[ebp]
  00426	e8 00 00 00 00	 call	 ?Seek@CFileBase@@QAEXK@Z ; CFileBase::Seek

; 615  : 	keyFile.Write( &iSDBPackageCnt, sizeof(int));

  0042b	6a 04		 push	 4
  0042d	8d 45 cc	 lea	 eax, DWORD PTR _iSDBPackageCnt$[ebp]
  00430	50		 push	 eax
  00431	8d 4d 00	 lea	 ecx, DWORD PTR _keyFile$[ebp]
  00434	e8 00 00 00 00	 call	 ?Write@CFileBase@@UAEHPBXH@Z ; CFileBase::Write

; 616  : 
; 617  : 	keyFile.Close();

  00439	8d 4d 00	 lea	 ecx, DWORD PTR _keyFile$[ebp]
  0043c	e8 00 00 00 00	 call	 ?Close@CFileBase@@QAEXXZ ; CFileBase::Close

; 618  : }

  00441	83 4d fc ff	 or	 DWORD PTR __$EHRec$[ebp+8], -1
  00445	8d 4d 00	 lea	 ecx, DWORD PTR _keyFile$[ebp]
  00448	e8 00 00 00 00	 call	 ??1CFileBase@@UAE@XZ	; CFileBase::~CFileBase
$LN1@WriteHybri:
  0044d	8b 4d f4	 mov	 ecx, DWORD PTR __$EHRec$[ebp]
  00450	64 89 0d 00 00
	00 00		 mov	 DWORD PTR fs:0, ecx
  00457	59		 pop	 ecx
  00458	8b 8d 78 01 00
	00		 mov	 ecx, DWORD PTR __$ArrayPad$[ebp]
  0045e	33 cd		 xor	 ecx, ebp
  00460	e8 00 00 00 00	 call	 @__security_check_cookie@4
  00465	81 c5 7c 01 00
	00		 add	 ebp, 380		; 0000017cH
  0046b	c9		 leave
  0046c	c2 04 00	 ret	 4
_TEXT	ENDS
;	COMDAT text$x
text$x	SEGMENT
__unwindfunclet$?WriteHybridCryptPackInfo@CEterPackManager@@QAEXPBD@Z$0:
  00000	8d 4d 00	 lea	 ecx, DWORD PTR _keyFile$[ebp]
  00003	e9 00 00 00 00	 jmp	 ??1CFileBase@@UAE@XZ	; CFileBase::~CFileBase
__unwindfunclet$?WriteHybridCryptPackInfo@CEterPackManager@@QAEXPBD@Z$1:
  00008	8d 8d 30 01 00
	00		 lea	 ecx, DWORD PTR $T36[ebp]
  0000e	e9 00 00 00 00	 jmp	 ??1?$basic_string@DU?$char_traits@D@std@@V?$allocator@D@2@@std@@QAE@XZ ; std::basic_string<char,std::char_traits<char>,std::allocator<char> >::~basic_string<char,std::char_traits<char>,std::allocator<char> >
__unwindfunclet$?WriteHybridCryptPackInfo@CEterPackManager@@QAEXPBD@Z$2:
  00013	8d 8d 60 01 00
	00		 lea	 ecx, DWORD PTR _noPathName$38[ebp]
  00019	e9 00 00 00 00	 jmp	 ??1?$basic_string@DU?$char_traits@D@std@@V?$allocator@D@2@@std@@QAE@XZ ; std::basic_string<char,std::char_traits<char>,std::allocator<char> >::~basic_string<char,std::char_traits<char>,std::allocator<char> >
__unwindfunclet$?WriteHybridCryptPackInfo@CEterPackManager@@QAEXPBD@Z$3:
  0001e	8d 8d 18 01 00
	00		 lea	 ecx, DWORD PTR $T35[ebp]
  00024	e9 00 00 00 00	 jmp	 ??1?$basic_string@DU?$char_traits@D@std@@V?$allocator@D@2@@std@@QAE@XZ ; std::basic_string<char,std::char_traits<char>,std::allocator<char> >::~basic_string<char,std::char_traits<char>,std::allocator<char> >
__unwindfunclet$?WriteHybridCryptPackInfo@CEterPackManager@@QAEXPBD@Z$4:
  00029	8d 8d 48 01 00
	00		 lea	 ecx, DWORD PTR _noPathName$37[ebp]
  0002f	e9 00 00 00 00	 jmp	 ??1?$basic_string@DU?$char_traits@D@std@@V?$allocator@D@2@@std@@QAE@XZ ; std::basic_string<char,std::char_traits<char>,std::allocator<char> >::~basic_string<char,std::char_traits<char>,std::allocator<char> >
  00034	cc		 int	 3
  00035	cc		 int	 3
  00036	cc		 int	 3
  00037	cc		 int	 3
  00038	cc		 int	 3
__ehhandler$?WriteHybridCryptPackInfo@CEterPackManager@@QAEXPBD@Z:
  00039	90		 npad	 1
  0003a	90		 npad	 1
  0003b	8b 54 24 08	 mov	 edx, DWORD PTR [esp+8]
  0003f	8d 42 0c	 lea	 eax, DWORD PTR [edx+12]
  00042	8b 8a 50 ff ff
	ff		 mov	 ecx, DWORD PTR [edx-176]
  00048	33 c8		 xor	 ecx, eax
  0004a	e8 00 00 00 00	 call	 @__security_check_cookie@4
  0004f	8b 8a 84 01 00
	00		 mov	 ecx, DWORD PTR [edx+388]
  00055	33 c8		 xor	 ecx, eax
  00057	e8 00 00 00 00	 call	 @__security_check_cookie@4
  0005c	b8 00 00 00 00	 mov	 eax, OFFSET __ehfuncinfo$?WriteHybridCryptPackInfo@CEterPackManager@@QAEXPBD@Z
  00061	e9 00 00 00 00	 jmp	 ___CxxFrameHandler3
text$x	ENDS
?WriteHybridCryptPackInfo@CEterPackManager@@QAEXPBD@Z ENDP ; CEterPackManager::WriteHybridCryptPackInfo
; Function compile flags: /Odspy
; File D:\Metin2 Server Files\mainline\SRC_2014\Metin2Client\EterPack\EterPackManager.cpp
;	COMDAT ?GetRootPackFileName@CEterPackManager@@QAEPBDXZ
_TEXT	SEGMENT
_this$ = -4						; size = 4
?GetRootPackFileName@CEterPackManager@@QAEPBDXZ PROC	; CEterPackManager::GetRootPackFileName, COMDAT
; _this$ = ecx

; 334  : {

  00000	55		 push	 ebp
  00001	8b ec		 mov	 ebp, esp
  00003	51		 push	 ecx
  00004	89 4d fc	 mov	 DWORD PTR _this$[ebp], ecx

; 335  : 	return m_RootPack.GetDBName();

  00007	8b 4d fc	 mov	 ecx, DWORD PTR _this$[ebp]
  0000a	83 c1 24	 add	 ecx, 36			; 00000024H
  0000d	e8 00 00 00 00	 call	 ?GetDBName@CEterPack@@QAEPBDXZ ; CEterPack::GetDBName

; 336  : }

  00012	c9		 leave
  00013	c3		 ret	 0
?GetRootPackFileName@CEterPackManager@@QAEPBDXZ ENDP	; CEterPackManager::GetRootPackFileName
_TEXT	ENDS
; Function compile flags: /Odspy
; File D:\Metin2 Server Files\mainline\SRC_2014\Metin2Client\EterPack\EterPackManager.cpp
; File D:\Metin2 Server Files\mainline\SRC_2014\M2Data\include\boost\unordered\unordered_map.hpp
; File D:\Metin2 Server Files\mainline\SRC_2014\M2Data\include\boost\unordered\detail\implementation.hpp
; File D:\Metin2 Server Files\mainline\SRC_2014\M2Data\include\boost\unordered\unordered_map.hpp
; File D:\Metin2 Server Files\mainline\SRC_2014\M2Data\include\boost\unordered\detail\implementation.hpp
; File D:\Metin2 Server Files\mainline\SRC_2014\M2Data\include\boost\unordered\unordered_map.hpp
; File D:\Metin2 Server Files\mainline\SRC_2014\M2Data\include\boost\unordered\detail\implementation.hpp
; File D:\Metin2 Server Files\mainline\SRC_2014\Metin2Client\EterPack\EterPackManager.cpp
; File D:\Metin2 Server Files\mainline\SRC_2014\M2Data\include\boost\unordered\detail\implementation.hpp
; File D:\Metin2 Server Files\mainline\SRC_2014\Metin2Client\EterPack\EterPackManager.cpp
;	COMDAT ?DecryptPackIV@CEterPackManager@@QAE_NK@Z
_TEXT	SEGMENT
$T2 = -52						; size = 4
_tmp$3 = -48						; size = 4
_x$ = -44						; size = 4
$T4 = -40						; size = 4
$T5 = -36						; size = 4
_x$ = -32						; size = 4
_this$ = -28						; size = 4
tv67 = -24						; size = 4
_itor$ = -20						; size = 4
$T6 = -13						; size = 1
__$EHRec$ = -12						; size = 12
_dwPanamaKey$ = 8					; size = 4
?DecryptPackIV@CEterPackManager@@QAE_NK@Z PROC		; CEterPackManager::DecryptPackIV, COMDAT
; _this$ = ecx

; 339  : {

  00000	55		 push	 ebp
  00001	8b ec		 mov	 ebp, esp
  00003	6a ff		 push	 -1
  00005	68 00 00 00 00	 push	 __ehhandler$?DecryptPackIV@CEterPackManager@@QAE_NK@Z
  0000a	64 a1 00 00 00
	00		 mov	 eax, DWORD PTR fs:0
  00010	50		 push	 eax
  00011	83 ec 28	 sub	 esp, 40			; 00000028H
  00014	a1 00 00 00 00	 mov	 eax, DWORD PTR ___security_cookie
  00019	33 c5		 xor	 eax, ebp
  0001b	50		 push	 eax
  0001c	8d 45 f4	 lea	 eax, DWORD PTR __$EHRec$[ebp]
  0001f	64 a3 00 00 00
	00		 mov	 DWORD PTR fs:0, eax
  00025	89 4d e4	 mov	 DWORD PTR _this$[ebp], ecx
; File D:\Metin2 Server Files\mainline\SRC_2014\M2Data\include\boost\unordered\unordered_map.hpp

; 193  :       iterator begin() BOOST_NOEXCEPT { return iterator(table_.begin()); }

  00028	83 65 fc 00	 and	 DWORD PTR __$EHRec$[ebp+8], 0
  0002c	8b 4d e4	 mov	 ecx, DWORD PTR _this$[ebp]
  0002f	81 c1 18 14 00
	00		 add	 ecx, 5144		; 00001418H
  00035	e8 00 00 00 00	 call	 ?begin@?$table@U?$map@V?$allocator@U?$pair@$$CBV?$basic_string@DU?$char_traits@D@std@@V?$allocator@D@2@@std@@PAVCEterPack@@@std@@@std@@V?$basic_string@DU?$char_traits@D@std@@V?$allocator@D@2@@2@PAVCEterPack@@Ustringhash@@U?$equal_to@V?$basic_string@DU?$char_traits@D@std@@V?$allocator@D@2@@std@@@2@@detail@unordered@boost@@@detail@unordered@boost@@QBEPAU?$ptr_node@U?$pair@$$CBV?$basic_string@DU?$char_traits@D@std@@V?$allocator@D@2@@std@@PAVCEterPack@@@std@@@234@XZ ; boost::unordered::detail::table<boost::unordered::detail::map<std::allocator<std::pair<std::basic_string<char,std::char_traits<char>,std::allocator<char> > const ,CEterPack *> >,std::basic_string<char,std::char_traits<char>,std::allocator<char> >,CEterPack *,stringhash,std::equal_to<std::basic_string<char,std::char_traits<char>,std::allocator<char> > > > >::begin
  0003a	89 45 e0	 mov	 DWORD PTR _x$[ebp], eax
; File D:\Metin2 Server Files\mainline\SRC_2014\M2Data\include\boost\unordered\detail\implementation.hpp

; 2371 :           : node_(static_cast<node_pointer>(x))

  0003d	8b 45 e0	 mov	 eax, DWORD PTR _x$[ebp]
  00040	89 45 ec	 mov	 DWORD PTR _itor$[ebp], eax
; File D:\Metin2 Server Files\mainline\SRC_2014\M2Data\include\boost\unordered\unordered_map.hpp

; 193  :       iterator begin() BOOST_NOEXCEPT { return iterator(table_.begin()); }

  00043	83 4d fc ff	 or	 DWORD PTR __$EHRec$[ebp+8], -1
$LN2@DecryptPac:
; File D:\Metin2 Server Files\mainline\SRC_2014\M2Data\include\boost\unordered\detail\implementation.hpp

; 2368 :         iterator() BOOST_NOEXCEPT : node_() {}

  00047	83 65 dc 00	 and	 DWORD PTR $T5[ebp], 0
; File D:\Metin2 Server Files\mainline\SRC_2014\M2Data\include\boost\unordered\unordered_map.hpp

; 200  :       iterator end() BOOST_NOEXCEPT { return iterator(); }

  0004b	8d 45 dc	 lea	 eax, DWORD PTR $T5[ebp]
  0004e	89 45 d8	 mov	 DWORD PTR $T4[ebp], eax
; File D:\Metin2 Server Files\mainline\SRC_2014\M2Data\include\boost\unordered\detail\implementation.hpp

; 2399 :           return node_ != x.node_;

  00051	8b 45 d8	 mov	 eax, DWORD PTR $T4[ebp]
  00054	8b 4d ec	 mov	 ecx, DWORD PTR _itor$[ebp]
  00057	3b 08		 cmp	 ecx, DWORD PTR [eax]
  00059	74 09		 je	 SHORT $LN31@DecryptPac
  0005b	c7 45 e8 01 00
	00 00		 mov	 DWORD PTR tv67[ebp], 1
  00062	eb 04		 jmp	 SHORT $LN32@DecryptPac
$LN31@DecryptPac:
  00064	83 65 e8 00	 and	 DWORD PTR tv67[ebp], 0
$LN32@DecryptPac:
  00068	8a 45 e8	 mov	 al, BYTE PTR tv67[ebp]
  0006b	88 45 f3	 mov	 BYTE PTR $T6[ebp], al
; File D:\Metin2 Server Files\mainline\SRC_2014\Metin2Client\EterPack\EterPackManager.cpp

; 341  : 	while (itor != m_PackMap.end())

  0006e	0f b6 45 f3	 movzx	 eax, BYTE PTR $T6[ebp]
  00072	85 c0		 test	 eax, eax
  00074	74 2a		 je	 SHORT $LN3@DecryptPac

; 342  : 	{
; 343  : 		itor->second->DecryptIV(dwPanamaKey);

  00076	ff 75 08	 push	 DWORD PTR _dwPanamaKey$[ebp]
  00079	8b 45 ec	 mov	 eax, DWORD PTR _itor$[ebp]
  0007c	8b 48 20	 mov	 ecx, DWORD PTR [eax+32]
  0007f	e8 00 00 00 00	 call	 ?DecryptIV@CEterPack@@QAE_NK@Z ; CEterPack::DecryptIV
; File D:\Metin2 Server Files\mainline\SRC_2014\M2Data\include\boost\unordered\detail\implementation.hpp

; 2387 :           iterator tmp(node_);

  00084	8b 45 ec	 mov	 eax, DWORD PTR _itor$[ebp]
  00087	89 45 d4	 mov	 DWORD PTR _x$[ebp], eax

; 2371 :           : node_(static_cast<node_pointer>(x))

  0008a	8b 45 d4	 mov	 eax, DWORD PTR _x$[ebp]
  0008d	89 45 d0	 mov	 DWORD PTR _tmp$3[ebp], eax

; 2388 :           node_ = static_cast<node_pointer>(node_->next_);

  00090	8b 45 ec	 mov	 eax, DWORD PTR _itor$[ebp]
  00093	8b 00		 mov	 eax, DWORD PTR [eax]
  00095	89 45 ec	 mov	 DWORD PTR _itor$[ebp], eax

; 2389 :           return tmp;

  00098	8b 45 d0	 mov	 eax, DWORD PTR _tmp$3[ebp]
  0009b	89 45 cc	 mov	 DWORD PTR $T2[ebp], eax
; File D:\Metin2 Server Files\mainline\SRC_2014\Metin2Client\EterPack\EterPackManager.cpp

; 345  : 	}

  0009e	eb a7		 jmp	 SHORT $LN2@DecryptPac
$LN3@DecryptPac:

; 346  : 	return true;

  000a0	b0 01		 mov	 al, 1

; 347  : }

  000a2	8b 4d f4	 mov	 ecx, DWORD PTR __$EHRec$[ebp]
  000a5	64 89 0d 00 00
	00 00		 mov	 DWORD PTR fs:0, ecx
  000ac	59		 pop	 ecx
  000ad	c9		 leave
  000ae	c2 04 00	 ret	 4
  000b1	cc		 int	 3
  000b2	cc		 int	 3
  000b3	cc		 int	 3
  000b4	cc		 int	 3
  000b5	cc		 int	 3
_TEXT	ENDS
;	COMDAT text$x
text$x	SEGMENT
__ehhandler$?DecryptPackIV@CEterPackManager@@QAE_NK@Z:
  00000	90		 npad	 1
  00001	90		 npad	 1
  00002	8b 54 24 08	 mov	 edx, DWORD PTR [esp+8]
  00006	8d 42 0c	 lea	 eax, DWORD PTR [edx+12]
  00009	8b 4a d4	 mov	 ecx, DWORD PTR [edx-44]
  0000c	33 c8		 xor	 ecx, eax
  0000e	e8 00 00 00 00	 call	 @__security_check_cookie@4
  00013	b8 00 00 00 00	 mov	 eax, OFFSET __ehfuncinfo$?DecryptPackIV@CEterPackManager@@QAE_NK@Z
  00018	e9 00 00 00 00	 jmp	 ___CxxFrameHandler3
text$x	ENDS
?DecryptPackIV@CEterPackManager@@QAE_NK@Z ENDP		; CEterPackManager::DecryptPackIV
; Function compile flags: /Odspy
; File D:\Metin2 Server Files\mainline\SRC_2014\Metin2Client\EterPack\EterPackManager.cpp
; File C:\Program Files (x86)\Microsoft Visual Studio\2019\Community\VC\Tools\MSVC\14.28.29333\include\type_traits
; File C:\Program Files (x86)\Microsoft Visual Studio\2019\Community\VC\Tools\MSVC\14.28.29333\include\utility
; File C:\Program Files (x86)\Microsoft Visual Studio\2019\Community\VC\Tools\MSVC\14.28.29333\include\type_traits
; File C:\Program Files (x86)\Microsoft Visual Studio\2019\Community\VC\Tools\MSVC\14.28.29333\include\utility
; File D:\Metin2 Server Files\mainline\SRC_2014\Metin2Client\EterPack\EterPackManager.cpp
; File D:\Metin2 Server Files\mainline\SRC_2014\M2Data\include\boost\move\utility_core.hpp
; File D:\Metin2 Server Files\mainline\SRC_2014\M2Data\include\boost\unordered\unordered_map.hpp
; File D:\Metin2 Server Files\mainline\SRC_2014\Metin2Client\EterPack\EterPackManager.cpp
; File C:\Program Files (x86)\Microsoft Visual Studio\2019\Community\VC\Tools\MSVC\14.28.29333\include\xstring
; File D:\Metin2 Server Files\mainline\SRC_2014\Metin2Client\EterPack\EterPackManager.cpp
; File C:\Program Files (x86)\Microsoft Visual Studio\2019\Community\VC\Tools\MSVC\14.28.29333\include\list
; File C:\Program Files (x86)\Microsoft Visual Studio\2019\Community\VC\Tools\MSVC\14.28.29333\include\type_traits
; File C:\Program Files (x86)\Microsoft Visual Studio\2019\Community\VC\Tools\MSVC\14.28.29333\include\utility
; File C:\Program Files (x86)\Microsoft Visual Studio\2019\Community\VC\Tools\MSVC\14.28.29333\include\type_traits
; File C:\Program Files (x86)\Microsoft Visual Studio\2019\Community\VC\Tools\MSVC\14.28.29333\include\utility
; File D:\Metin2 Server Files\mainline\SRC_2014\Metin2Client\EterPack\EterPackManager.cpp
; File D:\Metin2 Server Files\mainline\SRC_2014\M2Data\include\boost\move\utility_core.hpp
; File D:\Metin2 Server Files\mainline\SRC_2014\M2Data\include\boost\unordered\unordered_map.hpp
; File D:\Metin2 Server Files\mainline\SRC_2014\Metin2Client\EterPack\EterPackManager.cpp
; File C:\Program Files (x86)\Microsoft Visual Studio\2019\Community\VC\Tools\MSVC\14.28.29333\include\xstring
; File D:\Metin2 Server Files\mainline\SRC_2014\Metin2Client\EterPack\EterPackManager.cpp
;	COMDAT ?RegisterPackWhenPackMaking@CEterPackManager@@QAE_NPBD0PAVCEterPack@@@Z
_TEXT	SEGMENT
$T2 = -144						; size = 8
$T3 = -136						; size = 8
$T4 = -128						; size = 4
$T5 = -124						; size = 4
$T6 = -120						; size = 4
$T7 = -116						; size = 4
$T8 = -112						; size = 4
$T9 = -108						; size = 4
$T10 = -104						; size = 4
$T11 = -100						; size = 4
$T12 = -96						; size = 4
$T13 = -92						; size = 4
$T14 = -88						; size = 4
_this$ = -84						; size = 4
$T15 = -80						; size = 4
_this$ = -76						; size = 4
$T16 = -72						; size = 28
$T17 = -44						; size = 28
__$ArrayPad$ = -16					; size = 4
__$EHRec$ = -12						; size = 12
_c_szName$ = 8						; size = 4
_c_szDirectory$ = 12					; size = 4
_pPack$ = 16						; size = 4
?RegisterPackWhenPackMaking@CEterPackManager@@QAE_NPBD0PAVCEterPack@@@Z PROC ; CEterPackManager::RegisterPackWhenPackMaking, COMDAT
; _this$ = ecx

; 350  : {

  00000	55		 push	 ebp
  00001	8b ec		 mov	 ebp, esp
  00003	6a ff		 push	 -1
  00005	68 00 00 00 00	 push	 __ehhandler$?RegisterPackWhenPackMaking@CEterPackManager@@QAE_NPBD0PAVCEterPack@@@Z
  0000a	64 a1 00 00 00
	00		 mov	 eax, DWORD PTR fs:0
  00010	50		 push	 eax
  00011	81 ec 84 00 00
	00		 sub	 esp, 132		; 00000084H
  00017	a1 00 00 00 00	 mov	 eax, DWORD PTR ___security_cookie
  0001c	33 c5		 xor	 eax, ebp
  0001e	89 45 f0	 mov	 DWORD PTR __$ArrayPad$[ebp], eax
  00021	50		 push	 eax
  00022	8d 45 f4	 lea	 eax, DWORD PTR __$EHRec$[ebp]
  00025	64 a3 00 00 00
	00		 mov	 DWORD PTR fs:0, eax
  0002b	89 4d b4	 mov	 DWORD PTR _this$[ebp], ecx
; File C:\Program Files (x86)\Microsoft Visual Studio\2019\Community\VC\Tools\MSVC\14.28.29333\include\type_traits

; 1443 :     return static_cast<_Ty&&>(_Arg);

  0002e	8d 45 08	 lea	 eax, DWORD PTR _c_szName$[ebp]
  00031	89 45 a4	 mov	 DWORD PTR $T13[ebp], eax
; File C:\Program Files (x86)\Microsoft Visual Studio\2019\Community\VC\Tools\MSVC\14.28.29333\include\utility

; 190  :         : first(_STD forward<_Other1>(_Val1)), second(_STD forward<_Other2>(_Val2)) {}

  00034	8b 45 a4	 mov	 eax, DWORD PTR $T13[ebp]
  00037	ff 30		 push	 DWORD PTR [eax]
  00039	8d 4d d4	 lea	 ecx, DWORD PTR $T17[ebp]
  0003c	e8 00 00 00 00	 call	 ??0?$basic_string@DU?$char_traits@D@std@@V?$allocator@D@2@@std@@QAE@QBD@Z ; std::basic_string<char,std::char_traits<char>,std::allocator<char> >::basic_string<char,std::char_traits<char>,std::allocator<char> >
; File C:\Program Files (x86)\Microsoft Visual Studio\2019\Community\VC\Tools\MSVC\14.28.29333\include\type_traits

; 1443 :     return static_cast<_Ty&&>(_Arg);

  00041	8d 45 10	 lea	 eax, DWORD PTR _pPack$[ebp]
  00044	89 45 a0	 mov	 DWORD PTR $T12[ebp], eax
; File C:\Program Files (x86)\Microsoft Visual Studio\2019\Community\VC\Tools\MSVC\14.28.29333\include\utility

; 190  :         : first(_STD forward<_Other1>(_Val1)), second(_STD forward<_Other2>(_Val2)) {}

  00047	8b 45 a0	 mov	 eax, DWORD PTR $T12[ebp]
  0004a	8b 00		 mov	 eax, DWORD PTR [eax]
  0004c	89 45 ec	 mov	 DWORD PTR $T17[ebp+24], eax
; File D:\Metin2 Server Files\mainline\SRC_2014\Metin2Client\EterPack\EterPackManager.cpp

; 351  : 	m_PackMap.insert(TEterPackMap::value_type(c_szName, pPack));

  0004f	8d 45 d4	 lea	 eax, DWORD PTR $T17[ebp]
  00052	89 45 9c	 mov	 DWORD PTR $T11[ebp], eax
  00055	83 65 fc 00	 and	 DWORD PTR __$EHRec$[ebp+8], 0
; File D:\Metin2 Server Files\mainline\SRC_2014\M2Data\include\boost\move\utility_core.hpp

; 213  :          { return static_cast<typename ::boost::move_detail::remove_reference<T>::type &&>(t); }

  00059	8b 45 9c	 mov	 eax, DWORD PTR $T11[ebp]
  0005c	89 45 b0	 mov	 DWORD PTR $T15[ebp], eax

; 249  :          {  return static_cast<T&&>(t);   }

  0005f	8b 45 b0	 mov	 eax, DWORD PTR $T15[ebp]
  00062	89 45 98	 mov	 DWORD PTR $T10[ebp], eax
  00065	8b 45 b0	 mov	 eax, DWORD PTR $T15[ebp]
  00068	89 45 94	 mov	 DWORD PTR $T9[ebp], eax
; File D:\Metin2 Server Files\mainline\SRC_2014\M2Data\include\boost\unordered\unordered_map.hpp

; 226  :         return table_.emplace_unique(

  0006b	ff 75 98	 push	 DWORD PTR $T10[ebp]
  0006e	ff 75 94	 push	 DWORD PTR $T9[ebp]
  00071	8d 85 78 ff ff
	ff		 lea	 eax, DWORD PTR $T3[ebp]
  00077	50		 push	 eax
  00078	8b 4d b4	 mov	 ecx, DWORD PTR _this$[ebp]
  0007b	81 c1 18 14 00
	00		 add	 ecx, 5144		; 00001418H
  00081	e8 00 00 00 00	 call	 ??$emplace_unique@U?$pair@$$CBV?$basic_string@DU?$char_traits@D@std@@V?$allocator@D@2@@std@@PAVCEterPack@@@std@@@?$table@U?$map@V?$allocator@U?$pair@$$CBV?$basic_string@DU?$char_traits@D@std@@V?$allocator@D@2@@std@@PAVCEterPack@@@std@@@std@@V?$basic_string@DU?$char_traits@D@std@@V?$allocator@D@2@@2@PAVCEterPack@@Ustringhash@@U?$equal_to@V?$basic_string@DU?$char_traits@D@std@@V?$allocator@D@2@@std@@@2@@detail@unordered@boost@@@detail@unordered@boost@@QAE?AU?$pair@U?$iterator@U?$ptr_node@U?$pair@$$CBV?$basic_string@DU?$char_traits@D@std@@V?$allocator@D@2@@std@@PAVCEterPack@@@std@@@detail@unordered@boost@@@iterator_detail@unordered@boost@@_N@std@@ABV?$basic_string@DU?$char_traits@D@std@@V?$allocator@D@2@@5@$$QAU?$pair@$$CBV?$basic_string@DU?$char_traits@D@std@@V?$allocator@D@2@@std@@PAVCEterPack@@@5@@Z ; boost::unordered::detail::table<boost::unordered::detail::map<std::allocator<std::pair<std::basic_string<char,std::char_traits<char>,std::allocator<char> > const ,CEterPack *> >,std::basic_string<char,std::char_traits<char>,std::allocator<char> >,CEterPack *,stringhash,std::equal_to<std::basic_string<char,std::char_traits<char>,std::allocator<char> > > > >::emplace_unique<std::pair<std::basic_string<char,std::char_traits<char>,std::allocator<char> > const ,CEterPack *> >
; File D:\Metin2 Server Files\mainline\SRC_2014\Metin2Client\EterPack\EterPackManager.cpp

; 351  : 	m_PackMap.insert(TEterPackMap::value_type(c_szName, pPack));

  00086	83 4d fc ff	 or	 DWORD PTR __$EHRec$[ebp+8], -1
  0008a	8d 4d d4	 lea	 ecx, DWORD PTR $T17[ebp]
; File C:\Program Files (x86)\Microsoft Visual Studio\2019\Community\VC\Tools\MSVC\14.28.29333\include\xstring

; 2801 :         _Tidy_deallocate();

  0008d	e8 00 00 00 00	 call	 ?_Tidy_deallocate@?$basic_string@DU?$char_traits@D@std@@V?$allocator@D@2@@std@@AAEXXZ ; std::basic_string<char,std::char_traits<char>,std::allocator<char> >::_Tidy_deallocate
; File D:\Metin2 Server Files\mainline\SRC_2014\Metin2Client\EterPack\EterPackManager.cpp

; 352  : 	m_PackList.push_front(pPack);

  00092	8b 45 b4	 mov	 eax, DWORD PTR _this$[ebp]
  00095	05 10 14 00 00	 add	 eax, 5136		; 00001410H
  0009a	89 45 ac	 mov	 DWORD PTR _this$[ebp], eax
; File C:\Program Files (x86)\Microsoft Visual Studio\2019\Community\VC\Tools\MSVC\14.28.29333\include\list

; 1240 :         _Emplace(_Mypair._Myval2._Myhead->_Next, _Val);

  0009d	8d 45 10	 lea	 eax, DWORD PTR _pPack$[ebp]
  000a0	50		 push	 eax
  000a1	8b 45 ac	 mov	 eax, DWORD PTR _this$[ebp]
  000a4	8b 00		 mov	 eax, DWORD PTR [eax]
  000a6	ff 30		 push	 DWORD PTR [eax]
  000a8	8b 4d ac	 mov	 ecx, DWORD PTR _this$[ebp]
  000ab	e8 00 00 00 00	 call	 ??$_Emplace@ABQAVCEterPack@@@?$list@PAVCEterPack@@V?$allocator@PAVCEterPack@@@std@@@std@@QAEPAU?$_List_node@PAVCEterPack@@PAX@1@QAU21@ABQAVCEterPack@@@Z ; std::list<CEterPack *,std::allocator<CEterPack *> >::_Emplace<CEterPack * const &>
; File C:\Program Files (x86)\Microsoft Visual Studio\2019\Community\VC\Tools\MSVC\14.28.29333\include\type_traits

; 1443 :     return static_cast<_Ty&&>(_Arg);

  000b0	8d 45 0c	 lea	 eax, DWORD PTR _c_szDirectory$[ebp]
  000b3	89 45 90	 mov	 DWORD PTR $T8[ebp], eax
; File C:\Program Files (x86)\Microsoft Visual Studio\2019\Community\VC\Tools\MSVC\14.28.29333\include\utility

; 190  :         : first(_STD forward<_Other1>(_Val1)), second(_STD forward<_Other2>(_Val2)) {}

  000b6	8b 45 90	 mov	 eax, DWORD PTR $T8[ebp]
  000b9	ff 30		 push	 DWORD PTR [eax]
  000bb	8d 4d b8	 lea	 ecx, DWORD PTR $T16[ebp]
  000be	e8 00 00 00 00	 call	 ??0?$basic_string@DU?$char_traits@D@std@@V?$allocator@D@2@@std@@QAE@QBD@Z ; std::basic_string<char,std::char_traits<char>,std::allocator<char> >::basic_string<char,std::char_traits<char>,std::allocator<char> >
; File C:\Program Files (x86)\Microsoft Visual Studio\2019\Community\VC\Tools\MSVC\14.28.29333\include\type_traits

; 1443 :     return static_cast<_Ty&&>(_Arg);

  000c3	8d 45 10	 lea	 eax, DWORD PTR _pPack$[ebp]
  000c6	89 45 8c	 mov	 DWORD PTR $T7[ebp], eax
; File C:\Program Files (x86)\Microsoft Visual Studio\2019\Community\VC\Tools\MSVC\14.28.29333\include\utility

; 190  :         : first(_STD forward<_Other1>(_Val1)), second(_STD forward<_Other2>(_Val2)) {}

  000c9	8b 45 8c	 mov	 eax, DWORD PTR $T7[ebp]
  000cc	8b 00		 mov	 eax, DWORD PTR [eax]
  000ce	89 45 d0	 mov	 DWORD PTR $T16[ebp+24], eax
; File D:\Metin2 Server Files\mainline\SRC_2014\Metin2Client\EterPack\EterPackManager.cpp

; 354  : 	m_DirPackMap.insert(TEterPackMap::value_type(c_szDirectory, pPack));

  000d1	8d 45 b8	 lea	 eax, DWORD PTR $T16[ebp]
  000d4	89 45 88	 mov	 DWORD PTR $T6[ebp], eax
  000d7	c7 45 fc 01 00
	00 00		 mov	 DWORD PTR __$EHRec$[ebp+8], 1
; File D:\Metin2 Server Files\mainline\SRC_2014\M2Data\include\boost\move\utility_core.hpp

; 213  :          { return static_cast<typename ::boost::move_detail::remove_reference<T>::type &&>(t); }

  000de	8b 45 88	 mov	 eax, DWORD PTR $T6[ebp]
  000e1	89 45 a8	 mov	 DWORD PTR $T14[ebp], eax

; 249  :          {  return static_cast<T&&>(t);   }

  000e4	8b 45 a8	 mov	 eax, DWORD PTR $T14[ebp]
  000e7	89 45 84	 mov	 DWORD PTR $T5[ebp], eax
  000ea	8b 45 a8	 mov	 eax, DWORD PTR $T14[ebp]
  000ed	89 45 80	 mov	 DWORD PTR $T4[ebp], eax
; File D:\Metin2 Server Files\mainline\SRC_2014\M2Data\include\boost\unordered\unordered_map.hpp

; 226  :         return table_.emplace_unique(

  000f0	ff 75 84	 push	 DWORD PTR $T5[ebp]
  000f3	ff 75 80	 push	 DWORD PTR $T4[ebp]
  000f6	8d 85 70 ff ff
	ff		 lea	 eax, DWORD PTR $T2[ebp]
  000fc	50		 push	 eax
  000fd	8b 4d b4	 mov	 ecx, DWORD PTR _this$[ebp]
  00100	81 c1 30 14 00
	00		 add	 ecx, 5168		; 00001430H
  00106	e8 00 00 00 00	 call	 ??$emplace_unique@U?$pair@$$CBV?$basic_string@DU?$char_traits@D@std@@V?$allocator@D@2@@std@@PAVCEterPack@@@std@@@?$table@U?$map@V?$allocator@U?$pair@$$CBV?$basic_string@DU?$char_traits@D@std@@V?$allocator@D@2@@std@@PAVCEterPack@@@std@@@std@@V?$basic_string@DU?$char_traits@D@std@@V?$allocator@D@2@@2@PAVCEterPack@@Ustringhash@@U?$equal_to@V?$basic_string@DU?$char_traits@D@std@@V?$allocator@D@2@@std@@@2@@detail@unordered@boost@@@detail@unordered@boost@@QAE?AU?$pair@U?$iterator@U?$ptr_node@U?$pair@$$CBV?$basic_string@DU?$char_traits@D@std@@V?$allocator@D@2@@std@@PAVCEterPack@@@std@@@detail@unordered@boost@@@iterator_detail@unordered@boost@@_N@std@@ABV?$basic_string@DU?$char_traits@D@std@@V?$allocator@D@2@@5@$$QAU?$pair@$$CBV?$basic_string@DU?$char_traits@D@std@@V?$allocator@D@2@@std@@PAVCEterPack@@@5@@Z ; boost::unordered::detail::table<boost::unordered::detail::map<std::allocator<std::pair<std::basic_string<char,std::char_traits<char>,std::allocator<char> > const ,CEterPack *> >,std::basic_string<char,std::char_traits<char>,std::allocator<char> >,CEterPack *,stringhash,std::equal_to<std::basic_string<char,std::char_traits<char>,std::allocator<char> > > > >::emplace_unique<std::pair<std::basic_string<char,std::char_traits<char>,std::allocator<char> > const ,CEterPack *> >
; File D:\Metin2 Server Files\mainline\SRC_2014\Metin2Client\EterPack\EterPackManager.cpp

; 354  : 	m_DirPackMap.insert(TEterPackMap::value_type(c_szDirectory, pPack));

  0010b	83 4d fc ff	 or	 DWORD PTR __$EHRec$[ebp+8], -1
  0010f	8d 4d b8	 lea	 ecx, DWORD PTR $T16[ebp]
; File C:\Program Files (x86)\Microsoft Visual Studio\2019\Community\VC\Tools\MSVC\14.28.29333\include\xstring

; 2801 :         _Tidy_deallocate();

  00112	e8 00 00 00 00	 call	 ?_Tidy_deallocate@?$basic_string@DU?$char_traits@D@std@@V?$allocator@D@2@@std@@AAEXXZ ; std::basic_string<char,std::char_traits<char>,std::allocator<char> >::_Tidy_deallocate
; File D:\Metin2 Server Files\mainline\SRC_2014\Metin2Client\EterPack\EterPackManager.cpp

; 355  : 	return true;

  00117	b0 01		 mov	 al, 1

; 356  : }

  00119	8b 4d f4	 mov	 ecx, DWORD PTR __$EHRec$[ebp]
  0011c	64 89 0d 00 00
	00 00		 mov	 DWORD PTR fs:0, ecx
  00123	59		 pop	 ecx
  00124	8b 4d f0	 mov	 ecx, DWORD PTR __$ArrayPad$[ebp]
  00127	33 cd		 xor	 ecx, ebp
  00129	e8 00 00 00 00	 call	 @__security_check_cookie@4
  0012e	c9		 leave
  0012f	c2 0c 00	 ret	 12			; 0000000cH
_TEXT	ENDS
;	COMDAT text$x
text$x	SEGMENT
__unwindfunclet$?RegisterPackWhenPackMaking@CEterPackManager@@QAE_NPBD0PAVCEterPack@@@Z$0:
  00000	8d 4d d4	 lea	 ecx, DWORD PTR $T17[ebp]
  00003	e9 00 00 00 00	 jmp	 ??1?$pair@$$CBV?$basic_string@DU?$char_traits@D@std@@V?$allocator@D@2@@std@@PAVCEterPack@@@std@@QAE@XZ
__unwindfunclet$?RegisterPackWhenPackMaking@CEterPackManager@@QAE_NPBD0PAVCEterPack@@@Z$1:
  00008	8d 4d b8	 lea	 ecx, DWORD PTR $T16[ebp]
  0000b	e9 00 00 00 00	 jmp	 ??1?$pair@$$CBV?$basic_string@DU?$char_traits@D@std@@V?$allocator@D@2@@std@@PAVCEterPack@@@std@@QAE@XZ
  00010	cc		 int	 3
  00011	cc		 int	 3
  00012	cc		 int	 3
  00013	cc		 int	 3
  00014	cc		 int	 3
__ehhandler$?RegisterPackWhenPackMaking@CEterPackManager@@QAE_NPBD0PAVCEterPack@@@Z:
  00015	90		 npad	 1
  00016	90		 npad	 1
  00017	8b 54 24 08	 mov	 edx, DWORD PTR [esp+8]
  0001b	8d 42 0c	 lea	 eax, DWORD PTR [edx+12]
  0001e	8b 8a 78 ff ff
	ff		 mov	 ecx, DWORD PTR [edx-136]
  00024	33 c8		 xor	 ecx, eax
  00026	e8 00 00 00 00	 call	 @__security_check_cookie@4
  0002b	8b 4a fc	 mov	 ecx, DWORD PTR [edx-4]
  0002e	33 c8		 xor	 ecx, eax
  00030	e8 00 00 00 00	 call	 @__security_check_cookie@4
  00035	b8 00 00 00 00	 mov	 eax, OFFSET __ehfuncinfo$?RegisterPackWhenPackMaking@CEterPackManager@@QAE_NPBD0PAVCEterPack@@@Z
  0003a	e9 00 00 00 00	 jmp	 ___CxxFrameHandler3
text$x	ENDS
?RegisterPackWhenPackMaking@CEterPackManager@@QAE_NPBD0PAVCEterPack@@@Z ENDP ; CEterPackManager::RegisterPackWhenPackMaking
; Function compile flags: /Odspy
; File D:\Metin2 Server Files\mainline\SRC_2014\Metin2Client\EterPack\EterPackManager.cpp
;	COMDAT ?RegisterRootPack@CEterPackManager@@QAEXPBD@Z
_TEXT	SEGMENT
_this$ = -4						; size = 4
_c_szName$ = 8						; size = 4
?RegisterRootPack@CEterPackManager@@QAEXPBD@Z PROC	; CEterPackManager::RegisterRootPack, COMDAT
; _this$ = ecx

; 326  : {

  00000	55		 push	 ebp
  00001	8b ec		 mov	 ebp, esp
  00003	51		 push	 ecx
  00004	89 4d fc	 mov	 DWORD PTR _this$[ebp], ecx

; 327  : 	if (!m_RootPack.Create(m_FileDict, c_szName, ""))

  00007	6a 00		 push	 0
  00009	6a 01		 push	 1
  0000b	68 00 00 00 00	 push	 OFFSET ??_C@_00CNPNBAHC@@
  00010	ff 75 08	 push	 DWORD PTR _c_szName$[ebp]
  00013	8b 45 fc	 mov	 eax, DWORD PTR _this$[ebp]
  00016	83 c0 0c	 add	 eax, 12			; 0000000cH
  00019	50		 push	 eax
  0001a	8b 4d fc	 mov	 ecx, DWORD PTR _this$[ebp]
  0001d	83 c1 24	 add	 ecx, 36			; 00000024H
  00020	e8 00 00 00 00	 call	 ?Create@CEterPack@@QAE_NAAVCEterFileDict@@PBD1_NPBE@Z ; CEterPack::Create
  00025	0f b6 c0	 movzx	 eax, al
  00028	85 c0		 test	 eax, eax
  0002a	75 0f		 jne	 SHORT $LN1@RegisterRo

; 328  : 	{
; 329  : 		TraceError("%s: Pack file does not exist", c_szName);

  0002c	ff 75 08	 push	 DWORD PTR _c_szName$[ebp]
  0002f	68 00 00 00 00	 push	 OFFSET ??_C@_0BN@HIHPGCNI@?$CFs?3?5Pack?5file?5does?5not?5exist@
  00034	e8 00 00 00 00	 call	 ?TraceError@@YAXPBDZZ	; TraceError
  00039	59		 pop	 ecx
  0003a	59		 pop	 ecx
$LN1@RegisterRo:

; 330  : 	}
; 331  : }

  0003b	c9		 leave
  0003c	c2 04 00	 ret	 4
?RegisterRootPack@CEterPackManager@@QAEXPBD@Z ENDP	; CEterPackManager::RegisterRootPack
_TEXT	ENDS
; Function compile flags: /Odspy
; File D:\Metin2 Server Files\mainline\SRC_2014\Metin2Client\EterPack\EterPackManager.cpp
; File C:\Program Files (x86)\Microsoft Visual Studio\2019\Community\VC\Tools\MSVC\14.28.29333\include\xstring
; File D:\Metin2 Server Files\mainline\SRC_2014\M2Data\include\boost\unordered\detail\implementation.hpp
; File D:\Metin2 Server Files\mainline\SRC_2014\M2Data\include\boost\unordered\unordered_map.hpp
; File D:\Metin2 Server Files\mainline\SRC_2014\M2Data\include\boost\unordered\detail\implementation.hpp
; File D:\Metin2 Server Files\mainline\SRC_2014\Metin2Client\EterPack\EterPackManager.cpp
; File C:\Program Files (x86)\Microsoft Visual Studio\2019\Community\VC\Tools\MSVC\14.28.29333\include\type_traits
; File C:\Program Files (x86)\Microsoft Visual Studio\2019\Community\VC\Tools\MSVC\14.28.29333\include\utility
; File C:\Program Files (x86)\Microsoft Visual Studio\2019\Community\VC\Tools\MSVC\14.28.29333\include\type_traits
; File C:\Program Files (x86)\Microsoft Visual Studio\2019\Community\VC\Tools\MSVC\14.28.29333\include\utility
; File D:\Metin2 Server Files\mainline\SRC_2014\Metin2Client\EterPack\EterPackManager.cpp
; File D:\Metin2 Server Files\mainline\SRC_2014\M2Data\include\boost\move\utility_core.hpp
; File D:\Metin2 Server Files\mainline\SRC_2014\M2Data\include\boost\unordered\unordered_map.hpp
; File D:\Metin2 Server Files\mainline\SRC_2014\Metin2Client\EterPack\EterPackManager.cpp
; File C:\Program Files (x86)\Microsoft Visual Studio\2019\Community\VC\Tools\MSVC\14.28.29333\include\xstring
; File D:\Metin2 Server Files\mainline\SRC_2014\Metin2Client\EterPack\EterPackManager.cpp
; File C:\Program Files (x86)\Microsoft Visual Studio\2019\Community\VC\Tools\MSVC\14.28.29333\include\xstring
; File D:\Metin2 Server Files\mainline\SRC_2014\M2Data\include\boost\unordered\detail\implementation.hpp
; File D:\Metin2 Server Files\mainline\SRC_2014\M2Data\include\boost\unordered\unordered_map.hpp
; File D:\Metin2 Server Files\mainline\SRC_2014\M2Data\include\boost\unordered\detail\implementation.hpp
; File D:\Metin2 Server Files\mainline\SRC_2014\Metin2Client\EterPack\EterPackManager.cpp
; File C:\Program Files (x86)\Microsoft Visual Studio\2019\Community\VC\Tools\MSVC\14.28.29333\include\list
; File C:\Program Files (x86)\Microsoft Visual Studio\2019\Community\VC\Tools\MSVC\14.28.29333\include\type_traits
; File C:\Program Files (x86)\Microsoft Visual Studio\2019\Community\VC\Tools\MSVC\14.28.29333\include\utility
; File C:\Program Files (x86)\Microsoft Visual Studio\2019\Community\VC\Tools\MSVC\14.28.29333\include\type_traits
; File C:\Program Files (x86)\Microsoft Visual Studio\2019\Community\VC\Tools\MSVC\14.28.29333\include\utility
; File D:\Metin2 Server Files\mainline\SRC_2014\Metin2Client\EterPack\EterPackManager.cpp
; File D:\Metin2 Server Files\mainline\SRC_2014\M2Data\include\boost\move\utility_core.hpp
; File D:\Metin2 Server Files\mainline\SRC_2014\M2Data\include\boost\unordered\unordered_map.hpp
; File D:\Metin2 Server Files\mainline\SRC_2014\Metin2Client\EterPack\EterPackManager.cpp
; File C:\Program Files (x86)\Microsoft Visual Studio\2019\Community\VC\Tools\MSVC\14.28.29333\include\xstring
; File D:\Metin2 Server Files\mainline\SRC_2014\Metin2Client\EterPack\EterPackManager.cpp
;	COMDAT ?RegisterPack@CEterPackManager@@QAE_NPBD0PBE@Z
_TEXT	SEGMENT
$T2 = -148						; size = 8
$T3 = -140						; size = 8
$T4 = -132						; size = 4
$T5 = -128						; size = 4
_bReadOnly$6 = -124					; size = 1
$T7 = -120						; size = 4
$T8 = -116						; size = 4
$T9 = -112						; size = 4
$T10 = -108						; size = 4
$T11 = -104						; size = 4
$T12 = -100						; size = 4
_itor$13 = -96						; size = 4
$T14 = -92						; size = 4
$T15 = -88						; size = 4
tv150 = -84						; size = 4
$T16 = -80						; size = 4
$T17 = -76						; size = 4
$T18 = -72						; size = 4
$T19 = -68						; size = 4
$T20 = -64						; size = 4
$T21 = -60						; size = 4
_this$ = -56						; size = 4
tv165 = -52						; size = 4
_itor$22 = -48						; size = 4
$T23 = -44						; size = 4
tv92 = -40						; size = 4
$T24 = -36						; size = 4
tv70 = -32						; size = 4
$T25 = -28						; size = 4
_this$ = -24						; size = 4
$T26 = -18						; size = 1
$T27 = -17						; size = 1
_pEterPack$ = -16					; size = 4
__$EHRec$ = -12						; size = 12
$T28 = 0						; size = 24
$T29 = 24						; size = 24
$T30 = 48						; size = 28
$T31 = 76						; size = 28
__$ArrayPad$ = 104					; size = 4
_c_szName$ = 116					; size = 4
_c_szDirectory$ = 120					; size = 4
_c_pbIV$ = 124						; size = 4
?RegisterPack@CEterPackManager@@QAE_NPBD0PBE@Z PROC	; CEterPackManager::RegisterPack, COMDAT
; _this$ = ecx

; 360  : {

  00000	55		 push	 ebp
  00001	8d 6c 24 94	 lea	 ebp, DWORD PTR [esp-108]
  00005	83 ec 6c	 sub	 esp, 108		; 0000006cH
  00008	6a ff		 push	 -1
  0000a	68 00 00 00 00	 push	 __ehhandler$?RegisterPack@CEterPackManager@@QAE_NPBD0PBE@Z
  0000f	64 a1 00 00 00
	00		 mov	 eax, DWORD PTR fs:0
  00015	50		 push	 eax
  00016	81 ec 88 00 00
	00		 sub	 esp, 136		; 00000088H
  0001c	a1 00 00 00 00	 mov	 eax, DWORD PTR ___security_cookie
  00021	33 c5		 xor	 eax, ebp
  00023	89 45 68	 mov	 DWORD PTR __$ArrayPad$[ebp], eax
  00026	50		 push	 eax
  00027	8d 45 f4	 lea	 eax, DWORD PTR __$EHRec$[ebp]
  0002a	64 a3 00 00 00
	00		 mov	 DWORD PTR fs:0, eax
  00030	89 4d e8	 mov	 DWORD PTR _this$[ebp], ecx

; 361  : 	CEterPack * pEterPack = NULL;

  00033	83 65 f0 00	 and	 DWORD PTR _pEterPack$[ebp], 0

; 362  : 	{
; 363  : 		TEterPackMap::iterator itor = m_PackMap.find(c_szName);

  00037	ff 75 74	 push	 DWORD PTR _c_szName$[ebp]
  0003a	8d 4d 18	 lea	 ecx, DWORD PTR $T29[ebp]
  0003d	e8 00 00 00 00	 call	 ??0?$basic_string@DU?$char_traits@D@std@@V?$allocator@D@2@@std@@QAE@QBD@Z ; std::basic_string<char,std::char_traits<char>,std::allocator<char> >::basic_string<char,std::char_traits<char>,std::allocator<char> >
  00042	83 65 fc 00	 and	 DWORD PTR __$EHRec$[ebp+8], 0
  00046	8d 45 18	 lea	 eax, DWORD PTR $T29[ebp]
  00049	50		 push	 eax
  0004a	8d 45 d0	 lea	 eax, DWORD PTR _itor$22[ebp]
  0004d	50		 push	 eax
  0004e	8b 4d e8	 mov	 ecx, DWORD PTR _this$[ebp]
  00051	81 c1 18 14 00
	00		 add	 ecx, 5144		; 00001418H
  00057	e8 00 00 00 00	 call	 ?find@?$unordered_map@V?$basic_string@DU?$char_traits@D@std@@V?$allocator@D@2@@std@@PAVCEterPack@@Ustringhash@@U?$equal_to@V?$basic_string@DU?$char_traits@D@std@@V?$allocator@D@2@@std@@@2@V?$allocator@U?$pair@$$CBV?$basic_string@DU?$char_traits@D@std@@V?$allocator@D@2@@std@@PAVCEterPack@@@std@@@2@@unordered@boost@@QAE?AU?$iterator@U?$ptr_node@U?$pair@$$CBV?$basic_string@DU?$char_traits@D@std@@V?$allocator@D@2@@std@@PAVCEterPack@@@std@@@detail@unordered@boost@@@iterator_detail@23@ABV?$basic_string@DU?$char_traits@D@std@@V?$allocator@D@2@@std@@@Z ; boost::unordered::unordered_map<std::basic_string<char,std::char_traits<char>,std::allocator<char> >,CEterPack *,stringhash,std::equal_to<std::basic_string<char,std::char_traits<char>,std::allocator<char> > >,std::allocator<std::pair<std::basic_string<char,std::char_traits<char>,std::allocator<char> > const ,CEterPack *> > >::find
  0005c	83 4d fc ff	 or	 DWORD PTR __$EHRec$[ebp+8], -1
; File C:\Program Files (x86)\Microsoft Visual Studio\2019\Community\VC\Tools\MSVC\14.28.29333\include\xstring

; 2801 :         _Tidy_deallocate();

  00060	8d 4d 18	 lea	 ecx, DWORD PTR $T29[ebp]
  00063	e8 00 00 00 00	 call	 ?_Tidy_deallocate@?$basic_string@DU?$char_traits@D@std@@V?$allocator@D@2@@std@@AAEXXZ ; std::basic_string<char,std::char_traits<char>,std::allocator<char> >::_Tidy_deallocate
; File D:\Metin2 Server Files\mainline\SRC_2014\M2Data\include\boost\unordered\detail\implementation.hpp

; 2368 :         iterator() BOOST_NOEXCEPT : node_() {}

  00068	83 65 c0 00	 and	 DWORD PTR $T20[ebp], 0
; File D:\Metin2 Server Files\mainline\SRC_2014\M2Data\include\boost\unordered\unordered_map.hpp

; 200  :       iterator end() BOOST_NOEXCEPT { return iterator(); }

  0006c	8d 45 c0	 lea	 eax, DWORD PTR $T20[ebp]
  0006f	89 45 bc	 mov	 DWORD PTR $T19[ebp], eax
; File D:\Metin2 Server Files\mainline\SRC_2014\M2Data\include\boost\unordered\detail\implementation.hpp

; 2394 :           return node_ == x.node_;

  00072	8b 45 bc	 mov	 eax, DWORD PTR $T19[ebp]
  00075	8b 00		 mov	 eax, DWORD PTR [eax]
  00077	3b 45 d0	 cmp	 eax, DWORD PTR _itor$22[ebp]
  0007a	75 09		 jne	 SHORT $LN61@RegisterPa
  0007c	c7 45 e0 01 00
	00 00		 mov	 DWORD PTR tv70[ebp], 1
  00083	eb 04		 jmp	 SHORT $LN62@RegisterPa
$LN61@RegisterPa:
  00085	83 65 e0 00	 and	 DWORD PTR tv70[ebp], 0
$LN62@RegisterPa:
  00089	8a 45 e0	 mov	 al, BYTE PTR tv70[ebp]
  0008c	88 45 ee	 mov	 BYTE PTR $T26[ebp], al
; File D:\Metin2 Server Files\mainline\SRC_2014\Metin2Client\EterPack\EterPackManager.cpp

; 365  : 		if (m_PackMap.end() == itor)

  0008f	0f b6 45 ee	 movzx	 eax, BYTE PTR $T26[ebp]
  00093	85 c0		 test	 eax, eax
  00095	0f 84 ff 00 00
	00		 je	 $LN103@RegisterPa

; 366  : 		{
; 367  : 			bool bReadOnly = true;

  0009b	c6 45 84 01	 mov	 BYTE PTR _bReadOnly$6[ebp], 1

; 368  : 
; 369  : 			pEterPack = new CEterPack;

  0009f	68 ec 13 00 00	 push	 5100			; 000013ecH
  000a4	e8 00 00 00 00	 call	 ??2@YAPAXI@Z		; operator new
  000a9	59		 pop	 ecx
  000aa	89 45 dc	 mov	 DWORD PTR $T24[ebp], eax
  000ad	c7 45 fc 01 00
	00 00		 mov	 DWORD PTR __$EHRec$[ebp+8], 1
  000b4	83 7d dc 00	 cmp	 DWORD PTR $T24[ebp], 0
  000b8	74 0d		 je	 SHORT $LN9@RegisterPa
  000ba	8b 4d dc	 mov	 ecx, DWORD PTR $T24[ebp]
  000bd	e8 00 00 00 00	 call	 ??0CEterPack@@QAE@XZ	; CEterPack::CEterPack
  000c2	89 45 d8	 mov	 DWORD PTR tv92[ebp], eax
  000c5	eb 04		 jmp	 SHORT $LN10@RegisterPa
$LN9@RegisterPa:
  000c7	83 65 d8 00	 and	 DWORD PTR tv92[ebp], 0
$LN10@RegisterPa:
  000cb	8b 45 d8	 mov	 eax, DWORD PTR tv92[ebp]
  000ce	89 45 80	 mov	 DWORD PTR $T5[ebp], eax
  000d1	83 4d fc ff	 or	 DWORD PTR __$EHRec$[ebp+8], -1
  000d5	8b 45 80	 mov	 eax, DWORD PTR $T5[ebp]
  000d8	89 45 f0	 mov	 DWORD PTR _pEterPack$[ebp], eax

; 370  : 			if (pEterPack->Create(m_FileDict, c_szName, c_szDirectory, bReadOnly, c_pbIV))

  000db	ff 75 7c	 push	 DWORD PTR _c_pbIV$[ebp]
  000de	ff 75 84	 push	 DWORD PTR _bReadOnly$6[ebp]
  000e1	ff 75 78	 push	 DWORD PTR _c_szDirectory$[ebp]
  000e4	ff 75 74	 push	 DWORD PTR _c_szName$[ebp]
  000e7	8b 45 e8	 mov	 eax, DWORD PTR _this$[ebp]
  000ea	83 c0 0c	 add	 eax, 12			; 0000000cH
  000ed	50		 push	 eax
  000ee	8b 4d f0	 mov	 ecx, DWORD PTR _pEterPack$[ebp]
  000f1	e8 00 00 00 00	 call	 ?Create@CEterPack@@QAE_NAAVCEterFileDict@@PBD1_NPBE@Z ; CEterPack::Create
  000f6	0f b6 c0	 movzx	 eax, al
  000f9	85 c0		 test	 eax, eax
  000fb	74 6f		 je	 SHORT $LN4@RegisterPa
; File C:\Program Files (x86)\Microsoft Visual Studio\2019\Community\VC\Tools\MSVC\14.28.29333\include\type_traits

; 1443 :     return static_cast<_Ty&&>(_Arg);

  000fd	8d 45 74	 lea	 eax, DWORD PTR _c_szName$[ebp]
  00100	89 45 88	 mov	 DWORD PTR $T7[ebp], eax
; File C:\Program Files (x86)\Microsoft Visual Studio\2019\Community\VC\Tools\MSVC\14.28.29333\include\utility

; 190  :         : first(_STD forward<_Other1>(_Val1)), second(_STD forward<_Other2>(_Val2)) {}

  00103	8b 45 88	 mov	 eax, DWORD PTR $T7[ebp]
  00106	ff 30		 push	 DWORD PTR [eax]
  00108	8d 4d 30	 lea	 ecx, DWORD PTR $T30[ebp]
  0010b	e8 00 00 00 00	 call	 ??0?$basic_string@DU?$char_traits@D@std@@V?$allocator@D@2@@std@@QAE@QBD@Z ; std::basic_string<char,std::char_traits<char>,std::allocator<char> >::basic_string<char,std::char_traits<char>,std::allocator<char> >
; File C:\Program Files (x86)\Microsoft Visual Studio\2019\Community\VC\Tools\MSVC\14.28.29333\include\type_traits

; 1443 :     return static_cast<_Ty&&>(_Arg);

  00110	8d 45 f0	 lea	 eax, DWORD PTR _pEterPack$[ebp]
  00113	89 85 7c ff ff
	ff		 mov	 DWORD PTR $T4[ebp], eax
; File C:\Program Files (x86)\Microsoft Visual Studio\2019\Community\VC\Tools\MSVC\14.28.29333\include\utility

; 190  :         : first(_STD forward<_Other1>(_Val1)), second(_STD forward<_Other2>(_Val2)) {}

  00119	8b 85 7c ff ff
	ff		 mov	 eax, DWORD PTR $T4[ebp]
  0011f	8b 00		 mov	 eax, DWORD PTR [eax]
  00121	89 45 48	 mov	 DWORD PTR $T30[ebp+24], eax
; File D:\Metin2 Server Files\mainline\SRC_2014\Metin2Client\EterPack\EterPackManager.cpp

; 372  : 				m_PackMap.insert(TEterPackMap::value_type(c_szName, pEterPack));

  00124	8d 45 30	 lea	 eax, DWORD PTR $T30[ebp]
  00127	89 45 b8	 mov	 DWORD PTR $T18[ebp], eax
  0012a	c7 45 fc 02 00
	00 00		 mov	 DWORD PTR __$EHRec$[ebp+8], 2
; File D:\Metin2 Server Files\mainline\SRC_2014\M2Data\include\boost\move\utility_core.hpp

; 213  :          { return static_cast<typename ::boost::move_detail::remove_reference<T>::type &&>(t); }

  00131	8b 45 b8	 mov	 eax, DWORD PTR $T18[ebp]
  00134	89 45 d4	 mov	 DWORD PTR $T23[ebp], eax

; 249  :          {  return static_cast<T&&>(t);   }

  00137	8b 45 d4	 mov	 eax, DWORD PTR $T23[ebp]
  0013a	89 45 b4	 mov	 DWORD PTR $T17[ebp], eax
  0013d	8b 45 d4	 mov	 eax, DWORD PTR $T23[ebp]
  00140	89 45 b0	 mov	 DWORD PTR $T16[ebp], eax
; File D:\Metin2 Server Files\mainline\SRC_2014\M2Data\include\boost\unordered\unordered_map.hpp

; 226  :         return table_.emplace_unique(

  00143	ff 75 b4	 push	 DWORD PTR $T17[ebp]
  00146	ff 75 b0	 push	 DWORD PTR $T16[ebp]
  00149	8d 85 74 ff ff
	ff		 lea	 eax, DWORD PTR $T3[ebp]
  0014f	50		 push	 eax
  00150	8b 4d e8	 mov	 ecx, DWORD PTR _this$[ebp]
  00153	81 c1 18 14 00
	00		 add	 ecx, 5144		; 00001418H
  00159	e8 00 00 00 00	 call	 ??$emplace_unique@U?$pair@$$CBV?$basic_string@DU?$char_traits@D@std@@V?$allocator@D@2@@std@@PAVCEterPack@@@std@@@?$table@U?$map@V?$allocator@U?$pair@$$CBV?$basic_string@DU?$char_traits@D@std@@V?$allocator@D@2@@std@@PAVCEterPack@@@std@@@std@@V?$basic_string@DU?$char_traits@D@std@@V?$allocator@D@2@@2@PAVCEterPack@@Ustringhash@@U?$equal_to@V?$basic_string@DU?$char_traits@D@std@@V?$allocator@D@2@@std@@@2@@detail@unordered@boost@@@detail@unordered@boost@@QAE?AU?$pair@U?$iterator@U?$ptr_node@U?$pair@$$CBV?$basic_string@DU?$char_traits@D@std@@V?$allocator@D@2@@std@@PAVCEterPack@@@std@@@detail@unordered@boost@@@iterator_detail@unordered@boost@@_N@std@@ABV?$basic_string@DU?$char_traits@D@std@@V?$allocator@D@2@@5@$$QAU?$pair@$$CBV?$basic_string@DU?$char_traits@D@std@@V?$allocator@D@2@@std@@PAVCEterPack@@@5@@Z ; boost::unordered::detail::table<boost::unordered::detail::map<std::allocator<std::pair<std::basic_string<char,std::char_traits<char>,std::allocator<char> > const ,CEterPack *> >,std::basic_string<char,std::char_traits<char>,std::allocator<char> >,CEterPack *,stringhash,std::equal_to<std::basic_string<char,std::char_traits<char>,std::allocator<char> > > > >::emplace_unique<std::pair<std::basic_string<char,std::char_traits<char>,std::allocator<char> > const ,CEterPack *> >
; File D:\Metin2 Server Files\mainline\SRC_2014\Metin2Client\EterPack\EterPackManager.cpp

; 372  : 				m_PackMap.insert(TEterPackMap::value_type(c_szName, pEterPack));

  0015e	83 4d fc ff	 or	 DWORD PTR __$EHRec$[ebp+8], -1
  00162	8d 4d 30	 lea	 ecx, DWORD PTR $T30[ebp]
; File C:\Program Files (x86)\Microsoft Visual Studio\2019\Community\VC\Tools\MSVC\14.28.29333\include\xstring

; 2801 :         _Tidy_deallocate();

  00165	e8 00 00 00 00	 call	 ?_Tidy_deallocate@?$basic_string@DU?$char_traits@D@std@@V?$allocator@D@2@@std@@AAEXXZ ; std::basic_string<char,std::char_traits<char>,std::allocator<char> >::_Tidy_deallocate
; File D:\Metin2 Server Files\mainline\SRC_2014\Metin2Client\EterPack\EterPackManager.cpp

; 373  : 			}

  0016a	eb 2c		 jmp	 SHORT $LN5@RegisterPa
$LN4@RegisterPa:

; 374  : 			else
; 375  : 			{
; 376  : #ifdef _DEBUG
; 377  : 				Tracef("The eterpack doesn't exist [%s]\n", c_szName);
; 378  : #endif
; 379  : 				delete pEterPack;

  0016c	8b 45 f0	 mov	 eax, DWORD PTR _pEterPack$[ebp]
  0016f	89 45 e4	 mov	 DWORD PTR $T25[ebp], eax
  00172	83 7d e4 00	 cmp	 DWORD PTR $T25[ebp], 0
  00176	74 11		 je	 SHORT $LN11@RegisterPa
  00178	6a 01		 push	 1
  0017a	8b 45 e4	 mov	 eax, DWORD PTR $T25[ebp]
  0017d	8b 00		 mov	 eax, DWORD PTR [eax]
  0017f	8b 4d e4	 mov	 ecx, DWORD PTR $T25[ebp]
  00182	ff 10		 call	 DWORD PTR [eax]
  00184	89 45 ac	 mov	 DWORD PTR tv150[ebp], eax
  00187	eb 04		 jmp	 SHORT $LN12@RegisterPa
$LN11@RegisterPa:
  00189	83 65 ac 00	 and	 DWORD PTR tv150[ebp], 0
$LN12@RegisterPa:

; 380  : 				pEterPack = NULL;

  0018d	83 65 f0 00	 and	 DWORD PTR _pEterPack$[ebp], 0

; 381  : 				return false;

  00191	32 c0		 xor	 al, al
  00193	e9 19 01 00 00	 jmp	 $LN1@RegisterPa
$LN5@RegisterPa:

; 382  : 			}
; 383  : 		}

  00198	eb 09		 jmp	 SHORT $LN3@RegisterPa
$LN103@RegisterPa:

; 384  : 		else
; 385  : 		{
; 386  : 			pEterPack = itor->second;

  0019a	8b 45 d0	 mov	 eax, DWORD PTR _itor$22[ebp]
  0019d	8b 40 20	 mov	 eax, DWORD PTR [eax+32]
  001a0	89 45 f0	 mov	 DWORD PTR _pEterPack$[ebp], eax
$LN3@RegisterPa:

; 387  : 		}		
; 388  : 	}
; 389  : 
; 390  : 	if (c_szDirectory && c_szDirectory[0] != '*')

  001a3	83 7d 78 00	 cmp	 DWORD PTR _c_szDirectory$[ebp], 0
  001a7	0f 84 02 01 00
	00		 je	 $LN6@RegisterPa
  001ad	33 c0		 xor	 eax, eax
  001af	40		 inc	 eax
  001b0	6b c0 00	 imul	 eax, eax, 0
  001b3	8b 4d 78	 mov	 ecx, DWORD PTR _c_szDirectory$[ebp]
  001b6	0f be 04 01	 movsx	 eax, BYTE PTR [ecx+eax]
  001ba	83 f8 2a	 cmp	 eax, 42			; 0000002aH
  001bd	0f 84 ec 00 00
	00		 je	 $LN6@RegisterPa

; 391  : 	{
; 392  : 		TEterPackMap::iterator itor = m_DirPackMap.find(c_szDirectory);

  001c3	ff 75 78	 push	 DWORD PTR _c_szDirectory$[ebp]
  001c6	8d 4d 00	 lea	 ecx, DWORD PTR $T28[ebp]
  001c9	e8 00 00 00 00	 call	 ??0?$basic_string@DU?$char_traits@D@std@@V?$allocator@D@2@@std@@QAE@QBD@Z ; std::basic_string<char,std::char_traits<char>,std::allocator<char> >::basic_string<char,std::char_traits<char>,std::allocator<char> >
  001ce	c7 45 fc 03 00
	00 00		 mov	 DWORD PTR __$EHRec$[ebp+8], 3
  001d5	8d 45 00	 lea	 eax, DWORD PTR $T28[ebp]
  001d8	50		 push	 eax
  001d9	8d 45 a0	 lea	 eax, DWORD PTR _itor$13[ebp]
  001dc	50		 push	 eax
  001dd	8b 4d e8	 mov	 ecx, DWORD PTR _this$[ebp]
  001e0	81 c1 30 14 00
	00		 add	 ecx, 5168		; 00001430H
  001e6	e8 00 00 00 00	 call	 ?find@?$unordered_map@V?$basic_string@DU?$char_traits@D@std@@V?$allocator@D@2@@std@@PAVCEterPack@@Ustringhash@@U?$equal_to@V?$basic_string@DU?$char_traits@D@std@@V?$allocator@D@2@@std@@@2@V?$allocator@U?$pair@$$CBV?$basic_string@DU?$char_traits@D@std@@V?$allocator@D@2@@std@@PAVCEterPack@@@std@@@2@@unordered@boost@@QAE?AU?$iterator@U?$ptr_node@U?$pair@$$CBV?$basic_string@DU?$char_traits@D@std@@V?$allocator@D@2@@std@@PAVCEterPack@@@std@@@detail@unordered@boost@@@iterator_detail@23@ABV?$basic_string@DU?$char_traits@D@std@@V?$allocator@D@2@@std@@@Z ; boost::unordered::unordered_map<std::basic_string<char,std::char_traits<char>,std::allocator<char> >,CEterPack *,stringhash,std::equal_to<std::basic_string<char,std::char_traits<char>,std::allocator<char> > >,std::allocator<std::pair<std::basic_string<char,std::char_traits<char>,std::allocator<char> > const ,CEterPack *> > >::find
  001eb	83 4d fc ff	 or	 DWORD PTR __$EHRec$[ebp+8], -1
; File C:\Program Files (x86)\Microsoft Visual Studio\2019\Community\VC\Tools\MSVC\14.28.29333\include\xstring

; 2801 :         _Tidy_deallocate();

  001ef	8d 4d 00	 lea	 ecx, DWORD PTR $T28[ebp]
  001f2	e8 00 00 00 00	 call	 ?_Tidy_deallocate@?$basic_string@DU?$char_traits@D@std@@V?$allocator@D@2@@std@@AAEXXZ ; std::basic_string<char,std::char_traits<char>,std::allocator<char> >::_Tidy_deallocate
; File D:\Metin2 Server Files\mainline\SRC_2014\M2Data\include\boost\unordered\detail\implementation.hpp

; 2368 :         iterator() BOOST_NOEXCEPT : node_() {}

  001f7	83 65 a8 00	 and	 DWORD PTR $T15[ebp], 0
; File D:\Metin2 Server Files\mainline\SRC_2014\M2Data\include\boost\unordered\unordered_map.hpp

; 200  :       iterator end() BOOST_NOEXCEPT { return iterator(); }

  001fb	8d 45 a8	 lea	 eax, DWORD PTR $T15[ebp]
  001fe	89 45 a4	 mov	 DWORD PTR $T14[ebp], eax
; File D:\Metin2 Server Files\mainline\SRC_2014\M2Data\include\boost\unordered\detail\implementation.hpp

; 2394 :           return node_ == x.node_;

  00201	8b 45 a4	 mov	 eax, DWORD PTR $T14[ebp]
  00204	8b 00		 mov	 eax, DWORD PTR [eax]
  00206	3b 45 a0	 cmp	 eax, DWORD PTR _itor$13[ebp]
  00209	75 09		 jne	 SHORT $LN152@RegisterPa
  0020b	c7 45 cc 01 00
	00 00		 mov	 DWORD PTR tv165[ebp], 1
  00212	eb 04		 jmp	 SHORT $LN153@RegisterPa
$LN152@RegisterPa:
  00214	83 65 cc 00	 and	 DWORD PTR tv165[ebp], 0
$LN153@RegisterPa:
  00218	8a 45 cc	 mov	 al, BYTE PTR tv165[ebp]
  0021b	88 45 ef	 mov	 BYTE PTR $T27[ebp], al
; File D:\Metin2 Server Files\mainline\SRC_2014\Metin2Client\EterPack\EterPackManager.cpp

; 393  : 		if (m_DirPackMap.end() == itor)

  0021e	0f b6 45 ef	 movzx	 eax, BYTE PTR $T27[ebp]
  00222	85 c0		 test	 eax, eax
  00224	0f 84 85 00 00
	00		 je	 $LN6@RegisterPa

; 394  : 		{
; 395  : 			m_PackList.push_front(pEterPack);

  0022a	8b 45 e8	 mov	 eax, DWORD PTR _this$[ebp]
  0022d	05 10 14 00 00	 add	 eax, 5136		; 00001410H
  00232	89 45 c8	 mov	 DWORD PTR _this$[ebp], eax
; File C:\Program Files (x86)\Microsoft Visual Studio\2019\Community\VC\Tools\MSVC\14.28.29333\include\list

; 1240 :         _Emplace(_Mypair._Myval2._Myhead->_Next, _Val);

  00235	8d 45 f0	 lea	 eax, DWORD PTR _pEterPack$[ebp]
  00238	50		 push	 eax
  00239	8b 45 c8	 mov	 eax, DWORD PTR _this$[ebp]
  0023c	8b 00		 mov	 eax, DWORD PTR [eax]
  0023e	ff 30		 push	 DWORD PTR [eax]
  00240	8b 4d c8	 mov	 ecx, DWORD PTR _this$[ebp]
  00243	e8 00 00 00 00	 call	 ??$_Emplace@ABQAVCEterPack@@@?$list@PAVCEterPack@@V?$allocator@PAVCEterPack@@@std@@@std@@QAEPAU?$_List_node@PAVCEterPack@@PAX@1@QAU21@ABQAVCEterPack@@@Z ; std::list<CEterPack *,std::allocator<CEterPack *> >::_Emplace<CEterPack * const &>
; File C:\Program Files (x86)\Microsoft Visual Studio\2019\Community\VC\Tools\MSVC\14.28.29333\include\type_traits

; 1443 :     return static_cast<_Ty&&>(_Arg);

  00248	8d 45 78	 lea	 eax, DWORD PTR _c_szDirectory$[ebp]
  0024b	89 45 9c	 mov	 DWORD PTR $T12[ebp], eax
; File C:\Program Files (x86)\Microsoft Visual Studio\2019\Community\VC\Tools\MSVC\14.28.29333\include\utility

; 190  :         : first(_STD forward<_Other1>(_Val1)), second(_STD forward<_Other2>(_Val2)) {}

  0024e	8b 45 9c	 mov	 eax, DWORD PTR $T12[ebp]
  00251	ff 30		 push	 DWORD PTR [eax]
  00253	8d 4d 4c	 lea	 ecx, DWORD PTR $T31[ebp]
  00256	e8 00 00 00 00	 call	 ??0?$basic_string@DU?$char_traits@D@std@@V?$allocator@D@2@@std@@QAE@QBD@Z ; std::basic_string<char,std::char_traits<char>,std::allocator<char> >::basic_string<char,std::char_traits<char>,std::allocator<char> >
; File C:\Program Files (x86)\Microsoft Visual Studio\2019\Community\VC\Tools\MSVC\14.28.29333\include\type_traits

; 1443 :     return static_cast<_Ty&&>(_Arg);

  0025b	8d 45 f0	 lea	 eax, DWORD PTR _pEterPack$[ebp]
  0025e	89 45 98	 mov	 DWORD PTR $T11[ebp], eax
; File C:\Program Files (x86)\Microsoft Visual Studio\2019\Community\VC\Tools\MSVC\14.28.29333\include\utility

; 190  :         : first(_STD forward<_Other1>(_Val1)), second(_STD forward<_Other2>(_Val2)) {}

  00261	8b 45 98	 mov	 eax, DWORD PTR $T11[ebp]
  00264	8b 00		 mov	 eax, DWORD PTR [eax]
  00266	89 45 64	 mov	 DWORD PTR $T31[ebp+24], eax
; File D:\Metin2 Server Files\mainline\SRC_2014\Metin2Client\EterPack\EterPackManager.cpp

; 396  : 			m_DirPackMap.insert(TEterPackMap::value_type(c_szDirectory, pEterPack));

  00269	8d 45 4c	 lea	 eax, DWORD PTR $T31[ebp]
  0026c	89 45 94	 mov	 DWORD PTR $T10[ebp], eax
  0026f	c7 45 fc 04 00
	00 00		 mov	 DWORD PTR __$EHRec$[ebp+8], 4
; File D:\Metin2 Server Files\mainline\SRC_2014\M2Data\include\boost\move\utility_core.hpp

; 213  :          { return static_cast<typename ::boost::move_detail::remove_reference<T>::type &&>(t); }

  00276	8b 45 94	 mov	 eax, DWORD PTR $T10[ebp]
  00279	89 45 c4	 mov	 DWORD PTR $T21[ebp], eax

; 249  :          {  return static_cast<T&&>(t);   }

  0027c	8b 45 c4	 mov	 eax, DWORD PTR $T21[ebp]
  0027f	89 45 90	 mov	 DWORD PTR $T9[ebp], eax
  00282	8b 45 c4	 mov	 eax, DWORD PTR $T21[ebp]
  00285	89 45 8c	 mov	 DWORD PTR $T8[ebp], eax
; File D:\Metin2 Server Files\mainline\SRC_2014\M2Data\include\boost\unordered\unordered_map.hpp

; 226  :         return table_.emplace_unique(

  00288	ff 75 90	 push	 DWORD PTR $T9[ebp]
  0028b	ff 75 8c	 push	 DWORD PTR $T8[ebp]
  0028e	8d 85 6c ff ff
	ff		 lea	 eax, DWORD PTR $T2[ebp]
  00294	50		 push	 eax
  00295	8b 4d e8	 mov	 ecx, DWORD PTR _this$[ebp]
  00298	81 c1 30 14 00
	00		 add	 ecx, 5168		; 00001430H
  0029e	e8 00 00 00 00	 call	 ??$emplace_unique@U?$pair@$$CBV?$basic_string@DU?$char_traits@D@std@@V?$allocator@D@2@@std@@PAVCEterPack@@@std@@@?$table@U?$map@V?$allocator@U?$pair@$$CBV?$basic_string@DU?$char_traits@D@std@@V?$allocator@D@2@@std@@PAVCEterPack@@@std@@@std@@V?$basic_string@DU?$char_traits@D@std@@V?$allocator@D@2@@2@PAVCEterPack@@Ustringhash@@U?$equal_to@V?$basic_string@DU?$char_traits@D@std@@V?$allocator@D@2@@std@@@2@@detail@unordered@boost@@@detail@unordered@boost@@QAE?AU?$pair@U?$iterator@U?$ptr_node@U?$pair@$$CBV?$basic_string@DU?$char_traits@D@std@@V?$allocator@D@2@@std@@PAVCEterPack@@@std@@@detail@unordered@boost@@@iterator_detail@unordered@boost@@_N@std@@ABV?$basic_string@DU?$char_traits@D@std@@V?$allocator@D@2@@5@$$QAU?$pair@$$CBV?$basic_string@DU?$char_traits@D@std@@V?$allocator@D@2@@std@@PAVCEterPack@@@5@@Z ; boost::unordered::detail::table<boost::unordered::detail::map<std::allocator<std::pair<std::basic_string<char,std::char_traits<char>,std::allocator<char> > const ,CEterPack *> >,std::basic_string<char,std::char_traits<char>,std::allocator<char> >,CEterPack *,stringhash,std::equal_to<std::basic_string<char,std::char_traits<char>,std::allocator<char> > > > >::emplace_unique<std::pair<std::basic_string<char,std::char_traits<char>,std::allocator<char> > const ,CEterPack *> >
; File D:\Metin2 Server Files\mainline\SRC_2014\Metin2Client\EterPack\EterPackManager.cpp

; 396  : 			m_DirPackMap.insert(TEterPackMap::value_type(c_szDirectory, pEterPack));

  002a3	83 4d fc ff	 or	 DWORD PTR __$EHRec$[ebp+8], -1
  002a7	8d 4d 4c	 lea	 ecx, DWORD PTR $T31[ebp]
; File C:\Program Files (x86)\Microsoft Visual Studio\2019\Community\VC\Tools\MSVC\14.28.29333\include\xstring

; 2801 :         _Tidy_deallocate();

  002aa	e8 00 00 00 00	 call	 ?_Tidy_deallocate@?$basic_string@DU?$char_traits@D@std@@V?$allocator@D@2@@std@@AAEXXZ ; std::basic_string<char,std::char_traits<char>,std::allocator<char> >::_Tidy_deallocate
$LN6@RegisterPa:
; File D:\Metin2 Server Files\mainline\SRC_2014\Metin2Client\EterPack\EterPackManager.cpp

; 400  : 	return true;

  002af	b0 01		 mov	 al, 1
$LN1@RegisterPa:

; 401  : }

  002b1	8b 4d f4	 mov	 ecx, DWORD PTR __$EHRec$[ebp]
  002b4	64 89 0d 00 00
	00 00		 mov	 DWORD PTR fs:0, ecx
  002bb	59		 pop	 ecx
  002bc	8b 4d 68	 mov	 ecx, DWORD PTR __$ArrayPad$[ebp]
  002bf	33 cd		 xor	 ecx, ebp
  002c1	e8 00 00 00 00	 call	 @__security_check_cookie@4
  002c6	83 c5 6c	 add	 ebp, 108		; 0000006cH
  002c9	c9		 leave
  002ca	c2 0c 00	 ret	 12			; 0000000cH
_TEXT	ENDS
;	COMDAT text$x
text$x	SEGMENT
__unwindfunclet$?RegisterPack@CEterPackManager@@QAE_NPBD0PBE@Z$0:
  00000	8d 4d 18	 lea	 ecx, DWORD PTR $T29[ebp]
  00003	e9 00 00 00 00	 jmp	 ??1?$basic_string@DU?$char_traits@D@std@@V?$allocator@D@2@@std@@QAE@XZ ; std::basic_string<char,std::char_traits<char>,std::allocator<char> >::~basic_string<char,std::char_traits<char>,std::allocator<char> >
__unwindfunclet$?RegisterPack@CEterPackManager@@QAE_NPBD0PBE@Z$1:
  00008	68 ec 13 00 00	 push	 5100			; 000013ecH
  0000d	ff 75 dc	 push	 DWORD PTR $T24[ebp]
  00010	e8 00 00 00 00	 call	 ??3@YAXPAXI@Z		; operator delete
  00015	59		 pop	 ecx
  00016	59		 pop	 ecx
  00017	c3		 ret	 0
__unwindfunclet$?RegisterPack@CEterPackManager@@QAE_NPBD0PBE@Z$2:
  00018	8d 4d 30	 lea	 ecx, DWORD PTR $T30[ebp]
  0001b	e9 00 00 00 00	 jmp	 ??1?$pair@$$CBV?$basic_string@DU?$char_traits@D@std@@V?$allocator@D@2@@std@@PAVCEterPack@@@std@@QAE@XZ
__unwindfunclet$?RegisterPack@CEterPackManager@@QAE_NPBD0PBE@Z$3:
  00020	8d 4d 00	 lea	 ecx, DWORD PTR $T28[ebp]
  00023	e9 00 00 00 00	 jmp	 ??1?$basic_string@DU?$char_traits@D@std@@V?$allocator@D@2@@std@@QAE@XZ ; std::basic_string<char,std::char_traits<char>,std::allocator<char> >::~basic_string<char,std::char_traits<char>,std::allocator<char> >
__unwindfunclet$?RegisterPack@CEterPackManager@@QAE_NPBD0PBE@Z$4:
  00028	8d 4d 4c	 lea	 ecx, DWORD PTR $T31[ebp]
  0002b	e9 00 00 00 00	 jmp	 ??1?$pair@$$CBV?$basic_string@DU?$char_traits@D@std@@V?$allocator@D@2@@std@@PAVCEterPack@@@std@@QAE@XZ
  00030	cc		 int	 3
  00031	cc		 int	 3
  00032	cc		 int	 3
  00033	cc		 int	 3
  00034	cc		 int	 3
__ehhandler$?RegisterPack@CEterPackManager@@QAE_NPBD0PBE@Z:
  00035	90		 npad	 1
  00036	90		 npad	 1
  00037	8b 54 24 08	 mov	 edx, DWORD PTR [esp+8]
  0003b	8d 42 0c	 lea	 eax, DWORD PTR [edx+12]
  0003e	8b 8a 74 ff ff
	ff		 mov	 ecx, DWORD PTR [edx-140]
  00044	33 c8		 xor	 ecx, eax
  00046	e8 00 00 00 00	 call	 @__security_check_cookie@4
  0004b	8b 4a 74	 mov	 ecx, DWORD PTR [edx+116]
  0004e	33 c8		 xor	 ecx, eax
  00050	e8 00 00 00 00	 call	 @__security_check_cookie@4
  00055	b8 00 00 00 00	 mov	 eax, OFFSET __ehfuncinfo$?RegisterPack@CEterPackManager@@QAE_NPBD0PBE@Z
  0005a	e9 00 00 00 00	 jmp	 ___CxxFrameHandler3
text$x	ENDS
?RegisterPack@CEterPackManager@@QAE_NPBD0PBE@Z ENDP	; CEterPackManager::RegisterPack
; Function compile flags: /Odspy
; File D:\Metin2 Server Files\mainline\SRC_2014\Metin2Client\EterPack\EterPackManager.cpp
; File C:\Program Files (x86)\Microsoft Visual Studio\2019\Community\VC\Tools\MSVC\14.28.29333\include\xstring
; File C:\Program Files (x86)\Microsoft Visual Studio\2019\Community\VC\Tools\MSVC\14.28.29333\include\xmemory
; File C:\Program Files (x86)\Microsoft Visual Studio\2019\Community\VC\Tools\MSVC\14.28.29333\include\xstring
; File D:\Metin2 Server Files\mainline\SRC_2014\Metin2Client\EterPack\EterPackManager.cpp
; File C:\Program Files (x86)\Microsoft Visual Studio\2019\Community\VC\Tools\MSVC\14.28.29333\include\xstring
; File D:\Metin2 Server Files\mainline\SRC_2014\Metin2Client\EterPack\EterPackManager.cpp
; File C:\Program Files (x86)\Microsoft Visual Studio\2019\Community\VC\Tools\MSVC\14.28.29333\include\xstring
; File D:\Metin2 Server Files\mainline\SRC_2014\Metin2Client\EterPack\EterPackManager.cpp
; File C:\Program Files (x86)\Microsoft Visual Studio\2019\Community\VC\Tools\MSVC\14.28.29333\include\xstring
; File D:\Metin2 Server Files\mainline\SRC_2014\Metin2Client\EterPack\EterPackManager.cpp
; File C:\Program Files (x86)\Microsoft Visual Studio\2019\Community\VC\Tools\MSVC\14.28.29333\include\xstring
; File D:\Metin2 Server Files\mainline\SRC_2014\Metin2Client\EterPack\EterPackManager.cpp
;	COMDAT ?isExistInPack@CEterPackManager@@QAE_NPBD@Z
_TEXT	SEGMENT
_dwFileNameHash$2 = -64					; size = 4
$T3 = -60						; size = 4
_this$ = -56						; size = 4
_pkFileItem$4 = -52					; size = 4
_this$ = -48						; size = 4
$T5 = -43						; size = 1
$T6 = -42						; size = 1
$T7 = -41						; size = 1
_strFileName$ = -40					; size = 24
__$ArrayPad$ = -16					; size = 4
__$EHRec$ = -12						; size = 12
_c_szFileName$ = 8					; size = 4
?isExistInPack@CEterPackManager@@QAE_NPBD@Z PROC	; CEterPackManager::isExistInPack, COMDAT
; _this$ = ecx

; 280  : {

  00000	55		 push	 ebp
  00001	8b ec		 mov	 ebp, esp
  00003	6a ff		 push	 -1
  00005	68 00 00 00 00	 push	 __ehhandler$?isExistInPack@CEterPackManager@@QAE_NPBD@Z
  0000a	64 a1 00 00 00
	00		 mov	 eax, DWORD PTR fs:0
  00010	50		 push	 eax
  00011	83 ec 34	 sub	 esp, 52			; 00000034H
  00014	a1 00 00 00 00	 mov	 eax, DWORD PTR ___security_cookie
  00019	33 c5		 xor	 eax, ebp
  0001b	89 45 f0	 mov	 DWORD PTR __$ArrayPad$[ebp], eax
  0001e	50		 push	 eax
  0001f	8d 45 f4	 lea	 eax, DWORD PTR __$EHRec$[ebp]
  00022	64 a3 00 00 00
	00		 mov	 DWORD PTR fs:0, eax
  00028	89 4d d0	 mov	 DWORD PTR _this$[ebp], ecx
; File C:\Program Files (x86)\Microsoft Visual Studio\2019\Community\VC\Tools\MSVC\14.28.29333\include\xstring

; 2365 :     basic_string() noexcept(is_nothrow_default_constructible_v<_Alty>) : _Mypair(_Zero_then_variadic_args_t{}) {

  0002b	8d 45 d8	 lea	 eax, DWORD PTR _strFileName$[ebp]
  0002e	89 45 c8	 mov	 DWORD PTR _this$[ebp], eax
; File C:\Program Files (x86)\Microsoft Visual Studio\2019\Community\VC\Tools\MSVC\14.28.29333\include\xmemory

; 1339 :         : _Ty1(), _Myval2(_STD forward<_Other2>(_Val2)...) {}

  00031	8b 4d c8	 mov	 ecx, DWORD PTR _this$[ebp]
  00034	e8 00 00 00 00	 call	 ??0?$_String_val@U?$_Simple_types@D@std@@@std@@QAE@XZ ; std::_String_val<std::_Simple_types<char> >::_String_val<std::_Simple_types<char> >
; File C:\Program Files (x86)\Microsoft Visual Studio\2019\Community\VC\Tools\MSVC\14.28.29333\include\xstring

; 2367 :         _Tidy_init();

  00039	8d 4d d8	 lea	 ecx, DWORD PTR _strFileName$[ebp]
  0003c	e8 00 00 00 00	 call	 ?_Tidy_init@?$basic_string@DU?$char_traits@D@std@@V?$allocator@D@2@@std@@AAEXXZ ; std::basic_string<char,std::char_traits<char>,std::allocator<char> >::_Tidy_init
; File D:\Metin2 Server Files\mainline\SRC_2014\Metin2Client\EterPack\EterPackManager.cpp

; 281  : 	std::string strFileName;

  00041	83 65 fc 00	 and	 DWORD PTR __$EHRec$[ebp+8], 0

; 282  : 
; 283  : 	if (0 == ConvertFileName(c_szFileName, strFileName))

  00045	8d 45 d8	 lea	 eax, DWORD PTR _strFileName$[ebp]
  00048	50		 push	 eax
  00049	ff 75 08	 push	 DWORD PTR _c_szFileName$[ebp]
  0004c	8b 4d d0	 mov	 ecx, DWORD PTR _this$[ebp]
  0004f	e8 00 00 00 00	 call	 ?ConvertFileName@CEterPackManager@@IAEHPBDAAV?$basic_string@DU?$char_traits@D@std@@V?$allocator@D@2@@std@@@Z ; CEterPackManager::ConvertFileName
  00054	85 c0		 test	 eax, eax
  00056	75 2d		 jne	 SHORT $LN2@isExistInP

; 285  : 		return m_RootPack.IsExist(strFileName.c_str());

  00058	8d 4d d8	 lea	 ecx, DWORD PTR _strFileName$[ebp]
  0005b	e8 00 00 00 00	 call	 ?c_str@?$basic_string@DU?$char_traits@D@std@@V?$allocator@D@2@@std@@QBEPBDXZ ; std::basic_string<char,std::char_traits<char>,std::allocator<char> >::c_str
  00060	50		 push	 eax
  00061	8b 4d d0	 mov	 ecx, DWORD PTR _this$[ebp]
  00064	83 c1 24	 add	 ecx, 36			; 00000024H
  00067	e8 00 00 00 00	 call	 ?IsExist@CEterPack@@QAE_NPBD@Z ; CEterPack::IsExist
  0006c	88 45 d7	 mov	 BYTE PTR $T7[ebp], al
  0006f	83 4d fc ff	 or	 DWORD PTR __$EHRec$[ebp+8], -1
; File C:\Program Files (x86)\Microsoft Visual Studio\2019\Community\VC\Tools\MSVC\14.28.29333\include\xstring

; 2801 :         _Tidy_deallocate();

  00073	8d 4d d8	 lea	 ecx, DWORD PTR _strFileName$[ebp]
  00076	e8 00 00 00 00	 call	 ?_Tidy_deallocate@?$basic_string@DU?$char_traits@D@std@@V?$allocator@D@2@@std@@AAEXXZ ; std::basic_string<char,std::char_traits<char>,std::allocator<char> >::_Tidy_deallocate
; File D:\Metin2 Server Files\mainline\SRC_2014\Metin2Client\EterPack\EterPackManager.cpp

; 285  : 		return m_RootPack.IsExist(strFileName.c_str());

  0007b	8a 45 d7	 mov	 al, BYTE PTR $T7[ebp]
  0007e	e9 80 00 00 00	 jmp	 $LN1@isExistInP

; 286  : 	}

  00083	eb 6b		 jmp	 SHORT $LN3@isExistInP
$LN2@isExistInP:
; File C:\Program Files (x86)\Microsoft Visual Studio\2019\Community\VC\Tools\MSVC\14.28.29333\include\xstring

; 3766 :         return _Mypair._Myval2._Mysize;

  00085	8b 45 e8	 mov	 eax, DWORD PTR _strFileName$[ebp+16]
  00088	89 45 c4	 mov	 DWORD PTR $T3[ebp], eax
; File D:\Metin2 Server Files\mainline\SRC_2014\Metin2Client\EterPack\EterPackManager.cpp

; 289  : 		DWORD dwFileNameHash = GetCRC32(strFileName.c_str(), strFileName.length());

  0008b	ff 75 c4	 push	 DWORD PTR $T3[ebp]
  0008e	8d 4d d8	 lea	 ecx, DWORD PTR _strFileName$[ebp]
  00091	e8 00 00 00 00	 call	 ?c_str@?$basic_string@DU?$char_traits@D@std@@V?$allocator@D@2@@std@@QBEPBDXZ ; std::basic_string<char,std::char_traits<char>,std::allocator<char> >::c_str
  00096	50		 push	 eax
  00097	e8 00 00 00 00	 call	 ?GetCRC32@@YAKPBDI@Z	; GetCRC32
  0009c	59		 pop	 ecx
  0009d	59		 pop	 ecx
  0009e	89 45 c0	 mov	 DWORD PTR _dwFileNameHash$2[ebp], eax

; 290  : 		CEterFileDict::Item* pkFileItem = m_FileDict.GetItem(dwFileNameHash, strFileName.c_str());

  000a1	8d 4d d8	 lea	 ecx, DWORD PTR _strFileName$[ebp]
  000a4	e8 00 00 00 00	 call	 ?c_str@?$basic_string@DU?$char_traits@D@std@@V?$allocator@D@2@@std@@QBEPBDXZ ; std::basic_string<char,std::char_traits<char>,std::allocator<char> >::c_str
  000a9	50		 push	 eax
  000aa	ff 75 c0	 push	 DWORD PTR _dwFileNameHash$2[ebp]
  000ad	8b 4d d0	 mov	 ecx, DWORD PTR _this$[ebp]
  000b0	83 c1 0c	 add	 ecx, 12			; 0000000cH
  000b3	e8 00 00 00 00	 call	 ?GetItem@CEterFileDict@@QAEPAUItem@1@KPBD@Z ; CEterFileDict::GetItem
  000b8	89 45 cc	 mov	 DWORD PTR _pkFileItem$4[ebp], eax

; 291  : 
; 292  : 		if (pkFileItem)

  000bb	83 7d cc 00	 cmp	 DWORD PTR _pkFileItem$4[ebp], 0
  000bf	74 2f		 je	 SHORT $LN3@isExistInP

; 293  : 			if (pkFileItem->pkPack)

  000c1	8b 45 cc	 mov	 eax, DWORD PTR _pkFileItem$4[ebp]
  000c4	83 38 00	 cmp	 DWORD PTR [eax], 0
  000c7	74 27		 je	 SHORT $LN3@isExistInP

; 294  : 				return pkFileItem->pkPack->IsExist(strFileName.c_str());

  000c9	8d 4d d8	 lea	 ecx, DWORD PTR _strFileName$[ebp]
  000cc	e8 00 00 00 00	 call	 ?c_str@?$basic_string@DU?$char_traits@D@std@@V?$allocator@D@2@@std@@QBEPBDXZ ; std::basic_string<char,std::char_traits<char>,std::allocator<char> >::c_str
  000d1	50		 push	 eax
  000d2	8b 45 cc	 mov	 eax, DWORD PTR _pkFileItem$4[ebp]
  000d5	8b 08		 mov	 ecx, DWORD PTR [eax]
  000d7	e8 00 00 00 00	 call	 ?IsExist@CEterPack@@QAE_NPBD@Z ; CEterPack::IsExist
  000dc	88 45 d6	 mov	 BYTE PTR $T6[ebp], al
  000df	83 4d fc ff	 or	 DWORD PTR __$EHRec$[ebp+8], -1
; File C:\Program Files (x86)\Microsoft Visual Studio\2019\Community\VC\Tools\MSVC\14.28.29333\include\xstring

; 2801 :         _Tidy_deallocate();

  000e3	8d 4d d8	 lea	 ecx, DWORD PTR _strFileName$[ebp]
  000e6	e8 00 00 00 00	 call	 ?_Tidy_deallocate@?$basic_string@DU?$char_traits@D@std@@V?$allocator@D@2@@std@@AAEXXZ ; std::basic_string<char,std::char_traits<char>,std::allocator<char> >::_Tidy_deallocate
; File D:\Metin2 Server Files\mainline\SRC_2014\Metin2Client\EterPack\EterPackManager.cpp

; 294  : 				return pkFileItem->pkPack->IsExist(strFileName.c_str());

  000eb	8a 45 d6	 mov	 al, BYTE PTR $T6[ebp]
  000ee	eb 13		 jmp	 SHORT $LN1@isExistInP
$LN3@isExistInP:

; 298  : 	return false;

  000f0	c6 45 d5 00	 mov	 BYTE PTR $T5[ebp], 0
  000f4	83 4d fc ff	 or	 DWORD PTR __$EHRec$[ebp+8], -1
; File C:\Program Files (x86)\Microsoft Visual Studio\2019\Community\VC\Tools\MSVC\14.28.29333\include\xstring

; 2801 :         _Tidy_deallocate();

  000f8	8d 4d d8	 lea	 ecx, DWORD PTR _strFileName$[ebp]
  000fb	e8 00 00 00 00	 call	 ?_Tidy_deallocate@?$basic_string@DU?$char_traits@D@std@@V?$allocator@D@2@@std@@AAEXXZ ; std::basic_string<char,std::char_traits<char>,std::allocator<char> >::_Tidy_deallocate
; File D:\Metin2 Server Files\mainline\SRC_2014\Metin2Client\EterPack\EterPackManager.cpp

; 298  : 	return false;

  00100	8a 45 d5	 mov	 al, BYTE PTR $T5[ebp]
$LN1@isExistInP:

; 299  : }

  00103	8b 4d f4	 mov	 ecx, DWORD PTR __$EHRec$[ebp]
  00106	64 89 0d 00 00
	00 00		 mov	 DWORD PTR fs:0, ecx
  0010d	59		 pop	 ecx
  0010e	8b 4d f0	 mov	 ecx, DWORD PTR __$ArrayPad$[ebp]
  00111	33 cd		 xor	 ecx, ebp
  00113	e8 00 00 00 00	 call	 @__security_check_cookie@4
  00118	c9		 leave
  00119	c2 04 00	 ret	 4
_TEXT	ENDS
;	COMDAT text$x
text$x	SEGMENT
__unwindfunclet$?isExistInPack@CEterPackManager@@QAE_NPBD@Z$0:
  00000	8d 4d d8	 lea	 ecx, DWORD PTR _strFileName$[ebp]
  00003	e9 00 00 00 00	 jmp	 ??1?$basic_string@DU?$char_traits@D@std@@V?$allocator@D@2@@std@@QAE@XZ ; std::basic_string<char,std::char_traits<char>,std::allocator<char> >::~basic_string<char,std::char_traits<char>,std::allocator<char> >
  00008	cc		 int	 3
  00009	cc		 int	 3
  0000a	cc		 int	 3
  0000b	cc		 int	 3
  0000c	cc		 int	 3
__ehhandler$?isExistInPack@CEterPackManager@@QAE_NPBD@Z:
  0000d	90		 npad	 1
  0000e	90		 npad	 1
  0000f	8b 54 24 08	 mov	 edx, DWORD PTR [esp+8]
  00013	8d 42 0c	 lea	 eax, DWORD PTR [edx+12]
  00016	8b 4a c8	 mov	 ecx, DWORD PTR [edx-56]
  00019	33 c8		 xor	 ecx, eax
  0001b	e8 00 00 00 00	 call	 @__security_check_cookie@4
  00020	8b 4a fc	 mov	 ecx, DWORD PTR [edx-4]
  00023	33 c8		 xor	 ecx, eax
  00025	e8 00 00 00 00	 call	 @__security_check_cookie@4
  0002a	b8 00 00 00 00	 mov	 eax, OFFSET __ehfuncinfo$?isExistInPack@CEterPackManager@@QAE_NPBD@Z
  0002f	e9 00 00 00 00	 jmp	 ___CxxFrameHandler3
text$x	ENDS
?isExistInPack@CEterPackManager@@QAE_NPBD@Z ENDP	; CEterPackManager::isExistInPack
; Function compile flags: /Odspy
; File D:\Metin2 Server Files\mainline\SRC_2014\Metin2Client\EterPack\EterPackManager.cpp
;	COMDAT ?isExist@CEterPackManager@@QAE_NPBD@Z
_TEXT	SEGMENT
_this$ = -8						; size = 4
tv75 = -1						; size = 1
_c_szFileName$ = 8					; size = 4
?isExist@CEterPackManager@@QAE_NPBD@Z PROC		; CEterPackManager::isExist, COMDAT
; _this$ = ecx

; 302  : {

  00000	55		 push	 ebp
  00001	8b ec		 mov	 ebp, esp
  00003	51		 push	 ecx
  00004	51		 push	 ecx
  00005	89 4d f8	 mov	 DWORD PTR _this$[ebp], ecx

; 303  : 	if (m_iSearchMode == SEARCH_PACK_FIRST)

  00008	8b 45 f8	 mov	 eax, DWORD PTR _this$[ebp]
  0000b	83 78 08 01	 cmp	 DWORD PTR [eax+8], 1
  0000f	75 35		 jne	 SHORT $LN2@isExist

; 304  : 	{
; 305  : 		if (isExistInPack(c_szFileName))

  00011	ff 75 08	 push	 DWORD PTR _c_szFileName$[ebp]
  00014	8b 4d f8	 mov	 ecx, DWORD PTR _this$[ebp]
  00017	e8 00 00 00 00	 call	 ?isExistInPack@CEterPackManager@@QAE_NPBD@Z ; CEterPackManager::isExistInPack
  0001c	0f b6 c0	 movzx	 eax, al
  0001f	85 c0		 test	 eax, eax
  00021	74 04		 je	 SHORT $LN3@isExist

; 306  : 			return true;

  00023	b0 01		 mov	 al, 1
  00025	eb 3e		 jmp	 SHORT $LN1@isExist
$LN3@isExist:

; 307  : 
; 308  : 		return _access(c_szFileName, 0) == 0 ? true : false;

  00027	6a 00		 push	 0
  00029	ff 75 08	 push	 DWORD PTR _c_szFileName$[ebp]
  0002c	e8 00 00 00 00	 call	 __access
  00031	59		 pop	 ecx
  00032	59		 pop	 ecx
  00033	85 c0		 test	 eax, eax
  00035	75 06		 jne	 SHORT $LN6@isExist
  00037	c6 45 ff 01	 mov	 BYTE PTR tv75[ebp], 1
  0003b	eb 04		 jmp	 SHORT $LN7@isExist
$LN6@isExist:
  0003d	c6 45 ff 00	 mov	 BYTE PTR tv75[ebp], 0
$LN7@isExist:
  00041	8a 45 ff	 mov	 al, BYTE PTR tv75[ebp]
  00044	eb 1f		 jmp	 SHORT $LN1@isExist
$LN2@isExist:

; 309  : 	}
; 310  : 
; 311  : 	//if(m_bTryRelativePath) {
; 312  : 	//	if (strnicmp(c_szFileName, PATH_ABSOLUTE_YMIRWORK1, strlen(PATH_ABSOLUTE_YMIRWORK1)) == 0 || strnicmp(c_szFileName, PATH_ABSOLUTE_YMIRWORK2, strlen(PATH_ABSOLUTE_YMIRWORK2)) == 0) {
; 313  : 	//		if(access(c_szFileName+strlen(PATH_ABSOLUTE_YMIRWORK1), 0) == 0)
; 314  : 	//			return true;
; 315  : 	//	}
; 316  : 	//}
; 317  : 
; 318  : 	if (_access(c_szFileName, 0) == 0)

  00046	6a 00		 push	 0
  00048	ff 75 08	 push	 DWORD PTR _c_szFileName$[ebp]
  0004b	e8 00 00 00 00	 call	 __access
  00050	59		 pop	 ecx
  00051	59		 pop	 ecx
  00052	85 c0		 test	 eax, eax
  00054	75 04		 jne	 SHORT $LN4@isExist

; 319  : 		return true;

  00056	b0 01		 mov	 al, 1
  00058	eb 0b		 jmp	 SHORT $LN1@isExist
$LN4@isExist:

; 320  : 
; 321  : 	return isExistInPack(c_szFileName);

  0005a	ff 75 08	 push	 DWORD PTR _c_szFileName$[ebp]
  0005d	8b 4d f8	 mov	 ecx, DWORD PTR _this$[ebp]
  00060	e8 00 00 00 00	 call	 ?isExistInPack@CEterPackManager@@QAE_NPBD@Z ; CEterPackManager::isExistInPack
$LN1@isExist:

; 322  : }

  00065	c9		 leave
  00066	c2 04 00	 ret	 4
?isExist@CEterPackManager@@QAE_NPBD@Z ENDP		; CEterPackManager::isExist
_TEXT	ENDS
; Function compile flags: /Odspy
; File D:\Metin2 Server Files\mainline\SRC_2014\Metin2Client\EterPack\EterPackManager.cpp
;	COMDAT ?GetFromFile@CEterPackManager@@QAE_NAAVCMappedFile@@PBDPAPBX@Z
_TEXT	SEGMENT
_this$ = -8						; size = 4
tv71 = -1						; size = 1
_rMappedFile$ = 8					; size = 4
_c_szFileName$ = 12					; size = 4
_pData$ = 16						; size = 4
?GetFromFile@CEterPackManager@@QAE_NAAVCMappedFile@@PBDPAPBX@Z PROC ; CEterPackManager::GetFromFile, COMDAT
; _this$ = ecx

; 254  : {

  00000	55		 push	 ebp
  00001	8b ec		 mov	 ebp, esp
  00003	51		 push	 ecx
  00004	51		 push	 ecx
  00005	89 4d f8	 mov	 DWORD PTR _this$[ebp], ecx

; 255  : #ifndef _DEBUG
; 256  : 	//const char *pcExt = strchr(c_szFileName, '.');
; 257  : 	//if (pcExt && 
; 258  : 	//	_strnicmp(pcExt, ".py", 3) == 0 && // python  
; 259  : 	//	stricmp(c_szFileName, "logininfo.py") != 0 && //    
; 260  : 	//	strnicmp(c_szFileName, "locale", 6) != 0
; 261  : 	//	)
; 262  : 	//{
; 263  : 	//	return false;
; 264  : 	//}
; 265  : #endif
; 266  : 
; 267  : 	//if(m_bTryRelativePath) {
; 268  : 	//	if (strnicmp(c_szFileName, PATH_ABSOLUTE_YMIRWORK1, strlen(PATH_ABSOLUTE_YMIRWORK1)) == 0 || strnicmp(c_szFileName, PATH_ABSOLUTE_YMIRWORK2, strlen(PATH_ABSOLUTE_YMIRWORK2)) == 0) {
; 269  : 	//		if(rMappedFile.Create(c_szFileName+strlen(PATH_ABSOLUTE_YMIRWORK1), pData, 0, 0))
; 270  : 	//		{
; 271  : 	//			return true;
; 272  : 	//		}
; 273  : 	//	}
; 274  : 	//}
; 275  : 
; 276  : 	return rMappedFile.Create(c_szFileName, pData, 0, 0) ? true : false;

  00008	6a 00		 push	 0
  0000a	6a 00		 push	 0
  0000c	ff 75 10	 push	 DWORD PTR _pData$[ebp]
  0000f	ff 75 0c	 push	 DWORD PTR _c_szFileName$[ebp]
  00012	8b 4d 08	 mov	 ecx, DWORD PTR _rMappedFile$[ebp]
  00015	e8 00 00 00 00	 call	 ?Create@CMappedFile@@QAEHPBDPAPBXHH@Z ; CMappedFile::Create
  0001a	85 c0		 test	 eax, eax
  0001c	74 06		 je	 SHORT $LN3@GetFromFil
  0001e	c6 45 ff 01	 mov	 BYTE PTR tv71[ebp], 1
  00022	eb 04		 jmp	 SHORT $LN4@GetFromFil
$LN3@GetFromFil:
  00024	c6 45 ff 00	 mov	 BYTE PTR tv71[ebp], 0
$LN4@GetFromFil:
  00028	8a 45 ff	 mov	 al, BYTE PTR tv71[ebp]

; 277  : }

  0002b	c9		 leave
  0002c	c2 0c 00	 ret	 12			; 0000000cH
?GetFromFile@CEterPackManager@@QAE_NAAVCMappedFile@@PBDPAPBX@Z ENDP ; CEterPackManager::GetFromFile
_TEXT	ENDS
; Function compile flags: /Odspy
; File D:\Metin2 Server Files\mainline\SRC_2014\Metin2Client\EterPack\EterPackManager.cpp
; File C:\Program Files (x86)\Microsoft Visual Studio\2019\Community\VC\Tools\MSVC\14.28.29333\include\xstring
; File C:\Program Files (x86)\Microsoft Visual Studio\2019\Community\VC\Tools\MSVC\14.28.29333\include\xmemory
; File C:\Program Files (x86)\Microsoft Visual Studio\2019\Community\VC\Tools\MSVC\14.28.29333\include\xstring
; File D:\Metin2 Server Files\mainline\SRC_2014\Metin2Client\EterPack\EterPackManager.cpp
; File C:\Program Files (x86)\Microsoft Visual Studio\2019\Community\VC\Tools\MSVC\14.28.29333\include\xstring
; File D:\Metin2 Server Files\mainline\SRC_2014\Metin2Client\EterPack\EterPackManager.cpp
;	COMDAT ?GetFromPack@CEterPackManager@@QAE_NAAVCMappedFile@@PBDPAPBX@Z
_TEXT	SEGMENT
$T2 = -48						; size = 4
_this$ = -44						; size = 4
_dwFileNameHash$3 = -40					; size = 4
_pkCache$4 = -36					; size = 4
_pkFileItem$5 = -32					; size = 4
_lock$ = -28						; size = 4
_this$ = -24						; size = 4
$T6 = -17						; size = 1
$T7 = -16						; size = 1
_r$8 = -15						; size = 1
$T9 = -14						; size = 1
$T10 = -13						; size = 1
__$EHRec$ = -12						; size = 12
_rMappedFile$ = 8					; size = 4
_c_szFileName$ = 12					; size = 4
_pData$ = 16						; size = 4
?GetFromPack@CEterPackManager@@QAE_NAAVCMappedFile@@PBDPAPBX@Z PROC ; CEterPackManager::GetFromPack, COMDAT
; _this$ = ecx

; 197  : {

  00000	55		 push	 ebp
  00001	8b ec		 mov	 ebp, esp
  00003	6a ff		 push	 -1
  00005	68 00 00 00 00	 push	 __ehhandler$?GetFromPack@CEterPackManager@@QAE_NAAVCMappedFile@@PBDPAPBX@Z
  0000a	64 a1 00 00 00
	00		 mov	 eax, DWORD PTR fs:0
  00010	50		 push	 eax
  00011	83 ec 24	 sub	 esp, 36			; 00000024H
  00014	a1 00 00 00 00	 mov	 eax, DWORD PTR ___security_cookie
  00019	33 c5		 xor	 eax, ebp
  0001b	50		 push	 eax
  0001c	8d 45 f4	 lea	 eax, DWORD PTR __$EHRec$[ebp]
  0001f	64 a3 00 00 00
	00		 mov	 DWORD PTR fs:0, eax
  00025	89 4d e8	 mov	 DWORD PTR _this$[ebp], ecx

; 198  : 	FinderLock lock(m_csFinder);

  00028	8b 45 e8	 mov	 eax, DWORD PTR _this$[ebp]
  0002b	05 60 14 00 00	 add	 eax, 5216		; 00001460H

; 183  : 	FinderLock(CRITICAL_SECTION& cs) : p_cs(&cs)

  00030	89 45 e4	 mov	 DWORD PTR _lock$[ebp], eax

; 184  : 	{
; 185  : 		EnterCriticalSection(p_cs);

  00033	ff 75 e4	 push	 DWORD PTR _lock$[ebp]
  00036	ff 15 00 00 00
	00		 call	 DWORD PTR __imp__EnterCriticalSection@4

; 198  : 	FinderLock lock(m_csFinder);

  0003c	83 65 fc 00	 and	 DWORD PTR __$EHRec$[ebp+8], 0

; 200  : 	static std::string strFileName;

  00040	a1 00 00 00 00	 mov	 eax, DWORD PTR __tls_index
  00045	64 8b 0d 00 00
	00 00		 mov	 ecx, DWORD PTR fs:__tls_array
  0004c	8b 04 81	 mov	 eax, DWORD PTR [ecx+eax*4]
  0004f	8b 0d 00 00 00
	00		 mov	 ecx, DWORD PTR ?$TSS0@?1??GetFromPack@CEterPackManager@@QAE_NAAVCMappedFile@@PBDPAPBX@Z@4HA
  00055	3b 88 00 00 00
	00		 cmp	 ecx, DWORD PTR __Init_thread_epoch[eax]
  0005b	7e 43		 jle	 SHORT $LN2@GetFromPac
  0005d	68 00 00 00 00	 push	 OFFSET ?$TSS0@?1??GetFromPack@CEterPackManager@@QAE_NAAVCMappedFile@@PBDPAPBX@Z@4HA
  00062	e8 00 00 00 00	 call	 __Init_thread_header
  00067	59		 pop	 ecx
  00068	83 3d 00 00 00
	00 ff		 cmp	 DWORD PTR ?$TSS0@?1??GetFromPack@CEterPackManager@@QAE_NAAVCMappedFile@@PBDPAPBX@Z@4HA, -1
  0006f	75 2f		 jne	 SHORT $LN2@GetFromPac
; File C:\Program Files (x86)\Microsoft Visual Studio\2019\Community\VC\Tools\MSVC\14.28.29333\include\xstring

; 2365 :     basic_string() noexcept(is_nothrow_default_constructible_v<_Alty>) : _Mypair(_Zero_then_variadic_args_t{}) {

  00071	c7 45 d4 00 00
	00 00		 mov	 DWORD PTR _this$[ebp], OFFSET ?strFileName@?1??GetFromPack@CEterPackManager@@QAE_NAAVCMappedFile@@PBDPAPBX@Z@4V?$basic_string@DU?$char_traits@D@std@@V?$allocator@D@2@@std@@A
; File C:\Program Files (x86)\Microsoft Visual Studio\2019\Community\VC\Tools\MSVC\14.28.29333\include\xmemory

; 1339 :         : _Ty1(), _Myval2(_STD forward<_Other2>(_Val2)...) {}

  00078	8b 4d d4	 mov	 ecx, DWORD PTR _this$[ebp]
  0007b	e8 00 00 00 00	 call	 ??0?$_String_val@U?$_Simple_types@D@std@@@std@@QAE@XZ ; std::_String_val<std::_Simple_types<char> >::_String_val<std::_Simple_types<char> >
; File C:\Program Files (x86)\Microsoft Visual Studio\2019\Community\VC\Tools\MSVC\14.28.29333\include\xstring

; 2367 :         _Tidy_init();

  00080	b9 00 00 00 00	 mov	 ecx, OFFSET ?strFileName@?1??GetFromPack@CEterPackManager@@QAE_NAAVCMappedFile@@PBDPAPBX@Z@4V?$basic_string@DU?$char_traits@D@std@@V?$allocator@D@2@@std@@A
  00085	e8 00 00 00 00	 call	 ?_Tidy_init@?$basic_string@DU?$char_traits@D@std@@V?$allocator@D@2@@std@@AAEXXZ ; std::basic_string<char,std::char_traits<char>,std::allocator<char> >::_Tidy_init
; File D:\Metin2 Server Files\mainline\SRC_2014\Metin2Client\EterPack\EterPackManager.cpp

; 200  : 	static std::string strFileName;

  0008a	68 00 00 00 00	 push	 OFFSET ??__FstrFileName@?1??GetFromPack@CEterPackManager@@QAE_NAAVCMappedFile@@PBDPAPBX@Z@YAXXZ ; `CEterPackManager::GetFromPack'::`2'::`dynamic atexit destructor for 'strFileName''
  0008f	e8 00 00 00 00	 call	 _atexit
  00094	59		 pop	 ecx
  00095	68 00 00 00 00	 push	 OFFSET ?$TSS0@?1??GetFromPack@CEterPackManager@@QAE_NAAVCMappedFile@@PBDPAPBX@Z@4HA
  0009a	e8 00 00 00 00	 call	 __Init_thread_footer
  0009f	59		 pop	 ecx
$LN2@GetFromPac:

; 201  : 	
; 202  : 	if (0 == ConvertFileName(c_szFileName, strFileName))

  000a0	68 00 00 00 00	 push	 OFFSET ?strFileName@?1??GetFromPack@CEterPackManager@@QAE_NAAVCMappedFile@@PBDPAPBX@Z@4V?$basic_string@DU?$char_traits@D@std@@V?$allocator@D@2@@std@@A
  000a5	ff 75 0c	 push	 DWORD PTR _c_szFileName$[ebp]
  000a8	8b 4d e8	 mov	 ecx, DWORD PTR _this$[ebp]
  000ab	e8 00 00 00 00	 call	 ?ConvertFileName@CEterPackManager@@IAEHPBDAAV?$basic_string@DU?$char_traits@D@std@@V?$allocator@D@2@@std@@@Z ; CEterPackManager::ConvertFileName
  000b0	85 c0		 test	 eax, eax
  000b2	75 39		 jne	 SHORT $LN3@GetFromPac

; 203  : 	{
; 204  : 		return m_RootPack.Get(rMappedFile, strFileName.c_str(), pData);

  000b4	ff 75 10	 push	 DWORD PTR _pData$[ebp]
  000b7	b9 00 00 00 00	 mov	 ecx, OFFSET ?strFileName@?1??GetFromPack@CEterPackManager@@QAE_NAAVCMappedFile@@PBDPAPBX@Z@4V?$basic_string@DU?$char_traits@D@std@@V?$allocator@D@2@@std@@A
  000bc	e8 00 00 00 00	 call	 ?c_str@?$basic_string@DU?$char_traits@D@std@@V?$allocator@D@2@@std@@QBEPBDXZ ; std::basic_string<char,std::char_traits<char>,std::allocator<char> >::c_str
  000c1	50		 push	 eax
  000c2	ff 75 08	 push	 DWORD PTR _rMappedFile$[ebp]
  000c5	8b 4d e8	 mov	 ecx, DWORD PTR _this$[ebp]
  000c8	83 c1 24	 add	 ecx, 36			; 00000024H
  000cb	e8 00 00 00 00	 call	 ?Get@CEterPack@@QAE_NAAVCMappedFile@@PBDPAPBX@Z ; CEterPack::Get
  000d0	88 45 f3	 mov	 BYTE PTR $T10[ebp], al
  000d3	83 4d fc ff	 or	 DWORD PTR __$EHRec$[ebp+8], -1

; 190  : 		LeaveCriticalSection(p_cs);

  000d7	ff 75 e4	 push	 DWORD PTR _lock$[ebp]
  000da	ff 15 00 00 00
	00		 call	 DWORD PTR __imp__LeaveCriticalSection@4

; 203  : 	{
; 204  : 		return m_RootPack.Get(rMappedFile, strFileName.c_str(), pData);

  000e0	8a 45 f3	 mov	 al, BYTE PTR $T10[ebp]
  000e3	e9 dc 00 00 00	 jmp	 $LN1@GetFromPac

; 205  : 	}

  000e8	e9 c3 00 00 00	 jmp	 $LN4@GetFromPac
$LN3@GetFromPac:
; File C:\Program Files (x86)\Microsoft Visual Studio\2019\Community\VC\Tools\MSVC\14.28.29333\include\xstring

; 3766 :         return _Mypair._Myval2._Mysize;

  000ed	a1 10 00 00 00	 mov	 eax, DWORD PTR ?strFileName@?1??GetFromPack@CEterPackManager@@QAE_NAAVCMappedFile@@PBDPAPBX@Z@4V?$basic_string@DU?$char_traits@D@std@@V?$allocator@D@2@@std@@A+16
  000f2	89 45 d0	 mov	 DWORD PTR $T2[ebp], eax
; File D:\Metin2 Server Files\mainline\SRC_2014\Metin2Client\EterPack\EterPackManager.cpp

; 208  : 		DWORD dwFileNameHash = GetCRC32(strFileName.c_str(), strFileName.length());

  000f5	ff 75 d0	 push	 DWORD PTR $T2[ebp]
  000f8	b9 00 00 00 00	 mov	 ecx, OFFSET ?strFileName@?1??GetFromPack@CEterPackManager@@QAE_NAAVCMappedFile@@PBDPAPBX@Z@4V?$basic_string@DU?$char_traits@D@std@@V?$allocator@D@2@@std@@A
  000fd	e8 00 00 00 00	 call	 ?c_str@?$basic_string@DU?$char_traits@D@std@@V?$allocator@D@2@@std@@QBEPBDXZ ; std::basic_string<char,std::char_traits<char>,std::allocator<char> >::c_str
  00102	50		 push	 eax
  00103	e8 00 00 00 00	 call	 ?GetCRC32@@YAKPBDI@Z	; GetCRC32
  00108	59		 pop	 ecx
  00109	59		 pop	 ecx
  0010a	89 45 d8	 mov	 DWORD PTR _dwFileNameHash$3[ebp], eax

; 209  : 		SCache* pkCache = __FindCache(dwFileNameHash);

  0010d	ff 75 d8	 push	 DWORD PTR _dwFileNameHash$3[ebp]
  00110	8b 4d e8	 mov	 ecx, DWORD PTR _this$[ebp]
  00113	e8 00 00 00 00	 call	 ?__FindCache@CEterPackManager@@IAEPAUSCache@1@K@Z ; CEterPackManager::__FindCache
  00118	89 45 dc	 mov	 DWORD PTR _pkCache$4[ebp], eax

; 210  : 
; 211  : 		if (pkCache)

  0011b	83 7d dc 00	 cmp	 DWORD PTR _pkCache$4[ebp], 0
  0011f	74 29		 je	 SHORT $LN5@GetFromPac

; 212  : 		{
; 213  : 			rMappedFile.Link(pkCache->m_dwBufSize, pkCache->m_abBufData);

  00121	8b 45 dc	 mov	 eax, DWORD PTR _pkCache$4[ebp]
  00124	ff 30		 push	 DWORD PTR [eax]
  00126	8b 45 dc	 mov	 eax, DWORD PTR _pkCache$4[ebp]
  00129	ff 70 04	 push	 DWORD PTR [eax+4]
  0012c	8b 4d 08	 mov	 ecx, DWORD PTR _rMappedFile$[ebp]
  0012f	e8 00 00 00 00	 call	 ?Link@CMappedFile@@QAEXKPBX@Z ; CMappedFile::Link

; 214  : 			return true;

  00134	c6 45 f2 01	 mov	 BYTE PTR $T9[ebp], 1
  00138	83 4d fc ff	 or	 DWORD PTR __$EHRec$[ebp+8], -1

; 190  : 		LeaveCriticalSection(p_cs);

  0013c	ff 75 e4	 push	 DWORD PTR _lock$[ebp]
  0013f	ff 15 00 00 00
	00		 call	 DWORD PTR __imp__LeaveCriticalSection@4

; 214  : 			return true;

  00145	8a 45 f2	 mov	 al, BYTE PTR $T9[ebp]
  00148	eb 7a		 jmp	 SHORT $LN1@GetFromPac
$LN5@GetFromPac:

; 215  : 		}
; 216  : 
; 217  : 		CEterFileDict::Item* pkFileItem = m_FileDict.GetItem(dwFileNameHash, strFileName.c_str());

  0014a	b9 00 00 00 00	 mov	 ecx, OFFSET ?strFileName@?1??GetFromPack@CEterPackManager@@QAE_NAAVCMappedFile@@PBDPAPBX@Z@4V?$basic_string@DU?$char_traits@D@std@@V?$allocator@D@2@@std@@A
  0014f	e8 00 00 00 00	 call	 ?c_str@?$basic_string@DU?$char_traits@D@std@@V?$allocator@D@2@@std@@QBEPBDXZ ; std::basic_string<char,std::char_traits<char>,std::allocator<char> >::c_str
  00154	50		 push	 eax
  00155	ff 75 d8	 push	 DWORD PTR _dwFileNameHash$3[ebp]
  00158	8b 4d e8	 mov	 ecx, DWORD PTR _this$[ebp]
  0015b	83 c1 0c	 add	 ecx, 12			; 0000000cH
  0015e	e8 00 00 00 00	 call	 ?GetItem@CEterFileDict@@QAEPAUItem@1@KPBD@Z ; CEterFileDict::GetItem
  00163	89 45 e0	 mov	 DWORD PTR _pkFileItem$5[ebp], eax

; 218  : 
; 219  : 		if (pkFileItem)

  00166	83 7d e0 00	 cmp	 DWORD PTR _pkFileItem$5[ebp], 0
  0016a	74 44		 je	 SHORT $LN4@GetFromPac

; 220  : 			if (pkFileItem->pkPack)

  0016c	8b 45 e0	 mov	 eax, DWORD PTR _pkFileItem$5[ebp]
  0016f	83 38 00	 cmp	 DWORD PTR [eax], 0
  00172	74 3c		 je	 SHORT $LN4@GetFromPac

; 221  : 			{
; 222  : 				bool r = pkFileItem->pkPack->Get2(rMappedFile, strFileName.c_str(), pkFileItem->pkInfo, pData);	

  00174	ff 75 10	 push	 DWORD PTR _pData$[ebp]
  00177	8b 45 e0	 mov	 eax, DWORD PTR _pkFileItem$5[ebp]
  0017a	ff 70 04	 push	 DWORD PTR [eax+4]
  0017d	b9 00 00 00 00	 mov	 ecx, OFFSET ?strFileName@?1??GetFromPack@CEterPackManager@@QAE_NAAVCMappedFile@@PBDPAPBX@Z@4V?$basic_string@DU?$char_traits@D@std@@V?$allocator@D@2@@std@@A
  00182	e8 00 00 00 00	 call	 ?c_str@?$basic_string@DU?$char_traits@D@std@@V?$allocator@D@2@@std@@QBEPBDXZ ; std::basic_string<char,std::char_traits<char>,std::allocator<char> >::c_str
  00187	50		 push	 eax
  00188	ff 75 08	 push	 DWORD PTR _rMappedFile$[ebp]
  0018b	8b 45 e0	 mov	 eax, DWORD PTR _pkFileItem$5[ebp]
  0018e	8b 08		 mov	 ecx, DWORD PTR [eax]
  00190	e8 00 00 00 00	 call	 ?Get2@CEterPack@@QAE_NAAVCMappedFile@@PBDPAUSEterPackIndex@@PAPBX@Z ; CEterPack::Get2
  00195	88 45 f1	 mov	 BYTE PTR _r$8[ebp], al

; 223  : 				//pkFileItem->pkPack->ClearDataMemoryMap();
; 224  : 				return r;

  00198	8a 45 f1	 mov	 al, BYTE PTR _r$8[ebp]
  0019b	88 45 f0	 mov	 BYTE PTR $T7[ebp], al
  0019e	83 4d fc ff	 or	 DWORD PTR __$EHRec$[ebp+8], -1

; 190  : 		LeaveCriticalSection(p_cs);

  001a2	ff 75 e4	 push	 DWORD PTR _lock$[ebp]
  001a5	ff 15 00 00 00
	00		 call	 DWORD PTR __imp__LeaveCriticalSection@4

; 223  : 				//pkFileItem->pkPack->ClearDataMemoryMap();
; 224  : 				return r;

  001ab	8a 45 f0	 mov	 al, BYTE PTR $T7[ebp]
  001ae	eb 14		 jmp	 SHORT $LN1@GetFromPac
$LN4@GetFromPac:

; 225  : 			}
; 226  : 	}
; 227  : #ifdef _DEBUG
; 228  : 	TraceError("CANNOT_FIND_PACK_FILE [%s]", strFileName.c_str());
; 229  : #endif
; 230  : 
; 231  : 	return false;

  001b0	c6 45 ef 00	 mov	 BYTE PTR $T6[ebp], 0
  001b4	83 4d fc ff	 or	 DWORD PTR __$EHRec$[ebp+8], -1

; 190  : 		LeaveCriticalSection(p_cs);

  001b8	ff 75 e4	 push	 DWORD PTR _lock$[ebp]
  001bb	ff 15 00 00 00
	00		 call	 DWORD PTR __imp__LeaveCriticalSection@4

; 225  : 			}
; 226  : 	}
; 227  : #ifdef _DEBUG
; 228  : 	TraceError("CANNOT_FIND_PACK_FILE [%s]", strFileName.c_str());
; 229  : #endif
; 230  : 
; 231  : 	return false;

  001c1	8a 45 ef	 mov	 al, BYTE PTR $T6[ebp]
$LN1@GetFromPac:

; 232  : }

  001c4	8b 4d f4	 mov	 ecx, DWORD PTR __$EHRec$[ebp]
  001c7	64 89 0d 00 00
	00 00		 mov	 DWORD PTR fs:0, ecx
  001ce	59		 pop	 ecx
  001cf	c9		 leave
  001d0	c2 0c 00	 ret	 12			; 0000000cH
_TEXT	ENDS
;	COMDAT text$x
text$x	SEGMENT
__unwindfunclet$?GetFromPack@CEterPackManager@@QAE_NAAVCMappedFile@@PBDPAPBX@Z$0:
  00000	8d 4d e4	 lea	 ecx, DWORD PTR _lock$[ebp]
  00003	e9 00 00 00 00	 jmp	 ??1FinderLock@@QAE@XZ	; FinderLock::~FinderLock
  00008	cc		 int	 3
  00009	cc		 int	 3
  0000a	cc		 int	 3
  0000b	cc		 int	 3
  0000c	cc		 int	 3
__ehhandler$?GetFromPack@CEterPackManager@@QAE_NAAVCMappedFile@@PBDPAPBX@Z:
  0000d	90		 npad	 1
  0000e	90		 npad	 1
  0000f	8b 54 24 08	 mov	 edx, DWORD PTR [esp+8]
  00013	8d 42 0c	 lea	 eax, DWORD PTR [edx+12]
  00016	8b 4a d8	 mov	 ecx, DWORD PTR [edx-40]
  00019	33 c8		 xor	 ecx, eax
  0001b	e8 00 00 00 00	 call	 @__security_check_cookie@4
  00020	b8 00 00 00 00	 mov	 eax, OFFSET __ehfuncinfo$?GetFromPack@CEterPackManager@@QAE_NAAVCMappedFile@@PBDPAPBX@Z
  00025	e9 00 00 00 00	 jmp	 ___CxxFrameHandler3
text$x	ENDS
?GetFromPack@CEterPackManager@@QAE_NAAVCMappedFile@@PBDPAPBX@Z ENDP ; CEterPackManager::GetFromPack
; Function compile flags: /Odspy
; File D:\Metin2 Server Files\mainline\SRC_2014\Metin2Client\EterPack\EterPackManager.cpp
;	COMDAT ?Get@CEterPackManager@@QAE_NAAVCMappedFile@@PBDPAPBX@Z
_TEXT	SEGMENT
_this$ = -4						; size = 4
_rMappedFile$ = 8					; size = 4
_c_szFileName$ = 12					; size = 4
_pData$ = 16						; size = 4
?Get@CEterPackManager@@QAE_NAAVCMappedFile@@PBDPAPBX@Z PROC ; CEterPackManager::Get, COMDAT
; _this$ = ecx

; 159  : {

  00000	55		 push	 ebp
  00001	8b ec		 mov	 ebp, esp
  00003	51		 push	 ecx
  00004	89 4d fc	 mov	 DWORD PTR _this$[ebp], ecx

; 160  : 	//TimeChecker timeChecker(c_szFileName);
; 161  : 	//Logf(1, "Load %s\n", c_szFileName);
; 162  : 
; 163  : 	if (m_iSearchMode == SEARCH_FILE_FIRST)

  00007	8b 45 fc	 mov	 eax, DWORD PTR _this$[ebp]
  0000a	83 78 08 00	 cmp	 DWORD PTR [eax+8], 0
  0000e	75 2f		 jne	 SHORT $LN2@Get

; 164  : 	{
; 165  : 		if (GetFromFile(rMappedFile, c_szFileName, pData))

  00010	ff 75 10	 push	 DWORD PTR _pData$[ebp]
  00013	ff 75 0c	 push	 DWORD PTR _c_szFileName$[ebp]
  00016	ff 75 08	 push	 DWORD PTR _rMappedFile$[ebp]
  00019	8b 4d fc	 mov	 ecx, DWORD PTR _this$[ebp]
  0001c	e8 00 00 00 00	 call	 ?GetFromFile@CEterPackManager@@QAE_NAAVCMappedFile@@PBDPAPBX@Z ; CEterPackManager::GetFromFile
  00021	0f b6 c0	 movzx	 eax, al
  00024	85 c0		 test	 eax, eax
  00026	74 04		 je	 SHORT $LN3@Get

; 166  : 		{
; 167  : 			return true;

  00028	b0 01		 mov	 al, 1
  0002a	eb 40		 jmp	 SHORT $LN1@Get
$LN3@Get:

; 168  : 		}
; 169  : 
; 170  : 		return GetFromPack(rMappedFile, c_szFileName, pData);

  0002c	ff 75 10	 push	 DWORD PTR _pData$[ebp]
  0002f	ff 75 0c	 push	 DWORD PTR _c_szFileName$[ebp]
  00032	ff 75 08	 push	 DWORD PTR _rMappedFile$[ebp]
  00035	8b 4d fc	 mov	 ecx, DWORD PTR _this$[ebp]
  00038	e8 00 00 00 00	 call	 ?GetFromPack@CEterPackManager@@QAE_NAAVCMappedFile@@PBDPAPBX@Z ; CEterPackManager::GetFromPack
  0003d	eb 2d		 jmp	 SHORT $LN1@Get
$LN2@Get:

; 171  : 	}
; 172  : 	
; 173  : 	if (GetFromPack(rMappedFile, c_szFileName, pData))

  0003f	ff 75 10	 push	 DWORD PTR _pData$[ebp]
  00042	ff 75 0c	 push	 DWORD PTR _c_szFileName$[ebp]
  00045	ff 75 08	 push	 DWORD PTR _rMappedFile$[ebp]
  00048	8b 4d fc	 mov	 ecx, DWORD PTR _this$[ebp]
  0004b	e8 00 00 00 00	 call	 ?GetFromPack@CEterPackManager@@QAE_NAAVCMappedFile@@PBDPAPBX@Z ; CEterPackManager::GetFromPack
  00050	0f b6 c0	 movzx	 eax, al
  00053	85 c0		 test	 eax, eax
  00055	74 04		 je	 SHORT $LN4@Get

; 174  : 	{
; 175  : 		return true;

  00057	b0 01		 mov	 al, 1
  00059	eb 11		 jmp	 SHORT $LN1@Get
$LN4@Get:

; 176  : 	}
; 177  : 
; 178  : 	return GetFromFile(rMappedFile, c_szFileName, pData);

  0005b	ff 75 10	 push	 DWORD PTR _pData$[ebp]
  0005e	ff 75 0c	 push	 DWORD PTR _c_szFileName$[ebp]
  00061	ff 75 08	 push	 DWORD PTR _rMappedFile$[ebp]
  00064	8b 4d fc	 mov	 ecx, DWORD PTR _this$[ebp]
  00067	e8 00 00 00 00	 call	 ?GetFromFile@CEterPackManager@@QAE_NAAVCMappedFile@@PBDPAPBX@Z ; CEterPackManager::GetFromFile
$LN1@Get:

; 179  : }

  0006c	c9		 leave
  0006d	c2 0c 00	 ret	 12			; 0000000cH
?Get@CEterPackManager@@QAE_NAAVCMappedFile@@PBDPAPBX@Z ENDP ; CEterPackManager::Get
_TEXT	ENDS
; Function compile flags: /Odspy
; File D:\Metin2 Server Files\mainline\SRC_2014\Metin2Client\EterPack\EterPackManager.cpp
;	COMDAT ?GetSearchMode@CEterPackManager@@QAEHXZ
_TEXT	SEGMENT
_this$ = -4						; size = 4
?GetSearchMode@CEterPackManager@@QAEHXZ PROC		; CEterPackManager::GetSearchMode, COMDAT
; _this$ = ecx

; 409  : {

  00000	55		 push	 ebp
  00001	8b ec		 mov	 ebp, esp
  00003	51		 push	 ecx
  00004	89 4d fc	 mov	 DWORD PTR _this$[ebp], ecx

; 410  : 	return m_iSearchMode;

  00007	8b 45 fc	 mov	 eax, DWORD PTR _this$[ebp]
  0000a	8b 40 08	 mov	 eax, DWORD PTR [eax+8]

; 411  : }

  0000d	c9		 leave
  0000e	c3		 ret	 0
?GetSearchMode@CEterPackManager@@QAEHXZ ENDP		; CEterPackManager::GetSearchMode
_TEXT	ENDS
; Function compile flags: /Odspy
; File D:\Metin2 Server Files\mainline\SRC_2014\Metin2Client\EterPack\EterPackManager.cpp
;	COMDAT ?SetSearchMode@CEterPackManager@@QAEX_N@Z
_TEXT	SEGMENT
_this$ = -8						; size = 4
tv67 = -4						; size = 4
_bPackFirst$ = 8					; size = 1
?SetSearchMode@CEterPackManager@@QAEX_N@Z PROC		; CEterPackManager::SetSearchMode, COMDAT
; _this$ = ecx

; 404  : {

  00000	55		 push	 ebp
  00001	8b ec		 mov	 ebp, esp
  00003	51		 push	 ecx
  00004	51		 push	 ecx
  00005	89 4d f8	 mov	 DWORD PTR _this$[ebp], ecx

; 405  : 	m_iSearchMode = bPackFirst ? SEARCH_PACK_FIRST : SEARCH_FILE_FIRST;

  00008	0f b6 45 08	 movzx	 eax, BYTE PTR _bPackFirst$[ebp]
  0000c	85 c0		 test	 eax, eax
  0000e	74 09		 je	 SHORT $LN3@SetSearchM
  00010	c7 45 fc 01 00
	00 00		 mov	 DWORD PTR tv67[ebp], 1
  00017	eb 04		 jmp	 SHORT $LN4@SetSearchM
$LN3@SetSearchM:
  00019	83 65 fc 00	 and	 DWORD PTR tv67[ebp], 0
$LN4@SetSearchM:
  0001d	8b 45 f8	 mov	 eax, DWORD PTR _this$[ebp]
  00020	8b 4d fc	 mov	 ecx, DWORD PTR tv67[ebp]
  00023	89 48 08	 mov	 DWORD PTR [eax+8], ecx

; 406  : }

  00026	c9		 leave
  00027	c2 04 00	 ret	 4
?SetSearchMode@CEterPackManager@@QAEX_N@Z ENDP		; CEterPackManager::SetSearchMode
_TEXT	ENDS
; Function compile flags: /Odspy
; File D:\Metin2 Server Files\mainline\SRC_2014\Metin2Client\EterPack\EterPackManager.cpp
; File C:\Program Files (x86)\Microsoft Visual Studio\2019\Community\VC\Tools\MSVC\14.28.29333\include\xstring
; File C:\Program Files (x86)\Microsoft Visual Studio\2019\Community\VC\Tools\MSVC\14.28.29333\include\xmemory
; File C:\Program Files (x86)\Microsoft Visual Studio\2019\Community\VC\Tools\MSVC\14.28.29333\include\xstring
; File D:\Metin2 Server Files\mainline\SRC_2014\Metin2Client\EterPack\EterPackManager.cpp
; File C:\Program Files (x86)\Microsoft Visual Studio\2019\Community\VC\Tools\MSVC\14.28.29333\include\xstring
; File D:\Metin2 Server Files\mainline\SRC_2014\Metin2Client\EterPack\EterPackManager.cpp
; File C:\Program Files (x86)\Microsoft Visual Studio\2019\Community\VC\Tools\MSVC\14.28.29333\include\xstring
; File D:\Metin2 Server Files\mainline\SRC_2014\Metin2Client\EterPack\EterPackManager.cpp
; File D:\Metin2 Server Files\mainline\SRC_2014\M2Data\include\boost\unordered\detail\implementation.hpp
; File D:\Metin2 Server Files\mainline\SRC_2014\M2Data\include\boost\unordered\unordered_map.hpp
; File D:\Metin2 Server Files\mainline\SRC_2014\M2Data\include\boost\unordered\detail\implementation.hpp
; File D:\Metin2 Server Files\mainline\SRC_2014\Metin2Client\EterPack\EterPackManager.cpp
; File C:\Program Files (x86)\Microsoft Visual Studio\2019\Community\VC\Tools\MSVC\14.28.29333\include\xstring
; File D:\Metin2 Server Files\mainline\SRC_2014\Metin2Client\EterPack\EterPackManager.cpp
; File C:\Program Files (x86)\Microsoft Visual Studio\2019\Community\VC\Tools\MSVC\14.28.29333\include\xstring
; File D:\Metin2 Server Files\mainline\SRC_2014\Metin2Client\EterPack\EterPackManager.cpp
; File C:\Program Files (x86)\Microsoft Visual Studio\2019\Community\VC\Tools\MSVC\14.28.29333\include\type_traits
; File C:\Program Files (x86)\Microsoft Visual Studio\2019\Community\VC\Tools\MSVC\14.28.29333\include\utility
; File C:\Program Files (x86)\Microsoft Visual Studio\2019\Community\VC\Tools\MSVC\14.28.29333\include\type_traits
; File C:\Program Files (x86)\Microsoft Visual Studio\2019\Community\VC\Tools\MSVC\14.28.29333\include\utility
; File D:\Metin2 Server Files\mainline\SRC_2014\M2Data\include\boost\move\utility_core.hpp
; File D:\Metin2 Server Files\mainline\SRC_2014\M2Data\include\boost\unordered\unordered_map.hpp
; File D:\Metin2 Server Files\mainline\SRC_2014\Metin2Client\EterPack\EterPackManager.cpp
; File C:\Program Files (x86)\Microsoft Visual Studio\2019\Community\VC\Tools\MSVC\14.28.29333\include\xstring
; File D:\Metin2 Server Files\mainline\SRC_2014\Metin2Client\EterPack\EterPackManager.cpp
;	COMDAT ?LoadStaticCache@CEterPackManager@@QAEXPBD@Z
_TEXT	SEGMENT
$T2 = -104						; size = 8
$T3 = -96						; size = 12
$T4 = -84						; size = 4
$T5 = -80						; size = 4
$T6 = -76						; size = 4
$T7 = -72						; size = 4
_c_pvData$ = -68					; size = 4
$T8 = -64						; size = 4
_f$ = -60						; size = 4
$T9 = -56						; size = 4
$T10 = -52						; size = 4
$T11 = -48						; size = 4
_this$ = -44						; size = 4
_kNewCache$ = -40					; size = 8
$T12 = -32						; size = 4
_dwFileNameHash$ = -28					; size = 4
tv190 = -24						; size = 4
_this$ = -20						; size = 4
$T13 = -13						; size = 1
__$EHRec$ = -12						; size = 12
_kMapFile$ = 0						; size = 324
_strFileName$ = 324					; size = 24
__$ArrayPad$ = 348					; size = 4
_c_szFileName$ = 360					; size = 4
?LoadStaticCache@CEterPackManager@@QAEXPBD@Z PROC	; CEterPackManager::LoadStaticCache, COMDAT
; _this$ = ecx

; 96   : {

  00000	55		 push	 ebp
  00001	8d ac 24 a0 fe
	ff ff		 lea	 ebp, DWORD PTR [esp-352]
  00008	81 ec 60 01 00
	00		 sub	 esp, 352		; 00000160H
  0000e	6a ff		 push	 -1
  00010	68 00 00 00 00	 push	 __ehhandler$?LoadStaticCache@CEterPackManager@@QAEXPBD@Z
  00015	64 a1 00 00 00
	00		 mov	 eax, DWORD PTR fs:0
  0001b	50		 push	 eax
  0001c	83 ec 5c	 sub	 esp, 92			; 0000005cH
  0001f	a1 00 00 00 00	 mov	 eax, DWORD PTR ___security_cookie
  00024	33 c5		 xor	 eax, ebp
  00026	89 85 5c 01 00
	00		 mov	 DWORD PTR __$ArrayPad$[ebp], eax
  0002c	50		 push	 eax
  0002d	8d 45 f4	 lea	 eax, DWORD PTR __$EHRec$[ebp]
  00030	64 a3 00 00 00
	00		 mov	 DWORD PTR fs:0, eax
  00036	89 4d ec	 mov	 DWORD PTR _this$[ebp], ecx

; 97   : 	if (!m_isCacheMode)

  00039	8b 45 ec	 mov	 eax, DWORD PTR _this$[ebp]
  0003c	0f b6 40 05	 movzx	 eax, BYTE PTR [eax+5]
  00040	85 c0		 test	 eax, eax
  00042	75 05		 jne	 SHORT $LN2@LoadStatic

; 98   : 		return;

  00044	e9 a6 01 00 00	 jmp	 $LN1@LoadStatic
$LN2@LoadStatic:
; File C:\Program Files (x86)\Microsoft Visual Studio\2019\Community\VC\Tools\MSVC\14.28.29333\include\xstring

; 2365 :     basic_string() noexcept(is_nothrow_default_constructible_v<_Alty>) : _Mypair(_Zero_then_variadic_args_t{}) {

  00049	8d 85 44 01 00
	00		 lea	 eax, DWORD PTR _strFileName$[ebp]
  0004f	89 45 d4	 mov	 DWORD PTR _this$[ebp], eax
; File C:\Program Files (x86)\Microsoft Visual Studio\2019\Community\VC\Tools\MSVC\14.28.29333\include\xmemory

; 1339 :         : _Ty1(), _Myval2(_STD forward<_Other2>(_Val2)...) {}

  00052	8b 4d d4	 mov	 ecx, DWORD PTR _this$[ebp]
  00055	e8 00 00 00 00	 call	 ??0?$_String_val@U?$_Simple_types@D@std@@@std@@QAE@XZ ; std::_String_val<std::_Simple_types<char> >::_String_val<std::_Simple_types<char> >
; File C:\Program Files (x86)\Microsoft Visual Studio\2019\Community\VC\Tools\MSVC\14.28.29333\include\xstring

; 2367 :         _Tidy_init();

  0005a	8d 8d 44 01 00
	00		 lea	 ecx, DWORD PTR _strFileName$[ebp]
  00060	e8 00 00 00 00	 call	 ?_Tidy_init@?$basic_string@DU?$char_traits@D@std@@V?$allocator@D@2@@std@@AAEXXZ ; std::basic_string<char,std::char_traits<char>,std::allocator<char> >::_Tidy_init
; File D:\Metin2 Server Files\mainline\SRC_2014\Metin2Client\EterPack\EterPackManager.cpp

; 100  : 	std::string strFileName;

  00065	83 65 fc 00	 and	 DWORD PTR __$EHRec$[ebp+8], 0

; 101  : 	if (0 == ConvertFileName(c_szFileName, strFileName))

  00069	8d 85 44 01 00
	00		 lea	 eax, DWORD PTR _strFileName$[ebp]
  0006f	50		 push	 eax
  00070	ff b5 68 01 00
	00		 push	 DWORD PTR _c_szFileName$[ebp]
  00076	8b 4d ec	 mov	 ecx, DWORD PTR _this$[ebp]
  00079	e8 00 00 00 00	 call	 ?ConvertFileName@CEterPackManager@@IAEHPBDAAV?$basic_string@DU?$char_traits@D@std@@V?$allocator@D@2@@std@@@Z ; CEterPackManager::ConvertFileName
  0007e	85 c0		 test	 eax, eax
  00080	75 14		 jne	 SHORT $LN3@LoadStatic

; 103  : 		return;

  00082	83 4d fc ff	 or	 DWORD PTR __$EHRec$[ebp+8], -1
; File C:\Program Files (x86)\Microsoft Visual Studio\2019\Community\VC\Tools\MSVC\14.28.29333\include\xstring

; 2801 :         _Tidy_deallocate();

  00086	8d 8d 44 01 00
	00		 lea	 ecx, DWORD PTR _strFileName$[ebp]
  0008c	e8 00 00 00 00	 call	 ?_Tidy_deallocate@?$basic_string@DU?$char_traits@D@std@@V?$allocator@D@2@@std@@AAEXXZ ; std::basic_string<char,std::char_traits<char>,std::allocator<char> >::_Tidy_deallocate
; File D:\Metin2 Server Files\mainline\SRC_2014\Metin2Client\EterPack\EterPackManager.cpp

; 103  : 		return;

  00091	e9 59 01 00 00	 jmp	 $LN1@LoadStatic
$LN3@LoadStatic:
; File C:\Program Files (x86)\Microsoft Visual Studio\2019\Community\VC\Tools\MSVC\14.28.29333\include\xstring

; 3766 :         return _Mypair._Myval2._Mysize;

  00096	8b 85 54 01 00
	00		 mov	 eax, DWORD PTR _strFileName$[ebp+16]
  0009c	89 45 d0	 mov	 DWORD PTR $T11[ebp], eax
; File D:\Metin2 Server Files\mainline\SRC_2014\Metin2Client\EterPack\EterPackManager.cpp

; 106  : 	DWORD dwFileNameHash = GetCRC32(strFileName.c_str(), strFileName.length());

  0009f	ff 75 d0	 push	 DWORD PTR $T11[ebp]
  000a2	8d 8d 44 01 00
	00		 lea	 ecx, DWORD PTR _strFileName$[ebp]
  000a8	e8 00 00 00 00	 call	 ?c_str@?$basic_string@DU?$char_traits@D@std@@V?$allocator@D@2@@std@@QBEPBDXZ ; std::basic_string<char,std::char_traits<char>,std::allocator<char> >::c_str
  000ad	50		 push	 eax
  000ae	e8 00 00 00 00	 call	 ?GetCRC32@@YAKPBDI@Z	; GetCRC32
  000b3	59		 pop	 ecx
  000b4	59		 pop	 ecx
  000b5	89 45 e4	 mov	 DWORD PTR _dwFileNameHash$[ebp], eax

; 107  : 
; 108  : 	boost::unordered_map<DWORD, SCache>::iterator f = m_kMap_dwNameKey_kCache.find(dwFileNameHash);

  000b8	8d 45 e4	 lea	 eax, DWORD PTR _dwFileNameHash$[ebp]
  000bb	50		 push	 eax
  000bc	8d 45 c4	 lea	 eax, DWORD PTR _f$[ebp]
  000bf	50		 push	 eax
  000c0	8b 4d ec	 mov	 ecx, DWORD PTR _this$[ebp]
  000c3	81 c1 48 14 00
	00		 add	 ecx, 5192		; 00001448H
  000c9	e8 00 00 00 00	 call	 ?find@?$unordered_map@KUSCache@CEterPackManager@@U?$hash@K@boost@@U?$equal_to@K@std@@V?$allocator@U?$pair@$$CBKUSCache@CEterPackManager@@@std@@@6@@unordered@boost@@QAE?AU?$iterator@U?$ptr_node@U?$pair@$$CBKUSCache@CEterPackManager@@@std@@@detail@unordered@boost@@@iterator_detail@23@ABK@Z ; boost::unordered::unordered_map<unsigned long,CEterPackManager::SCache,boost::hash<unsigned long>,std::equal_to<unsigned long>,std::allocator<std::pair<unsigned long const ,CEterPackManager::SCache> > >::find
; File D:\Metin2 Server Files\mainline\SRC_2014\M2Data\include\boost\unordered\detail\implementation.hpp

; 2368 :         iterator() BOOST_NOEXCEPT : node_() {}

  000ce	83 65 cc 00	 and	 DWORD PTR $T10[ebp], 0
; File D:\Metin2 Server Files\mainline\SRC_2014\M2Data\include\boost\unordered\unordered_map.hpp

; 200  :       iterator end() BOOST_NOEXCEPT { return iterator(); }

  000d2	8d 45 cc	 lea	 eax, DWORD PTR $T10[ebp]
  000d5	89 45 c8	 mov	 DWORD PTR $T9[ebp], eax
; File D:\Metin2 Server Files\mainline\SRC_2014\M2Data\include\boost\unordered\detail\implementation.hpp

; 2399 :           return node_ != x.node_;

  000d8	8b 45 c8	 mov	 eax, DWORD PTR $T9[ebp]
  000db	8b 00		 mov	 eax, DWORD PTR [eax]
  000dd	3b 45 c4	 cmp	 eax, DWORD PTR _f$[ebp]
  000e0	74 09		 je	 SHORT $LN59@LoadStatic
  000e2	c7 45 e8 01 00
	00 00		 mov	 DWORD PTR tv190[ebp], 1
  000e9	eb 04		 jmp	 SHORT $LN60@LoadStatic
$LN59@LoadStatic:
  000eb	83 65 e8 00	 and	 DWORD PTR tv190[ebp], 0
$LN60@LoadStatic:
  000ef	8a 45 e8	 mov	 al, BYTE PTR tv190[ebp]
  000f2	88 45 f3	 mov	 BYTE PTR $T13[ebp], al
; File D:\Metin2 Server Files\mainline\SRC_2014\Metin2Client\EterPack\EterPackManager.cpp

; 109  : 	if (m_kMap_dwNameKey_kCache.end() != f)

  000f5	0f b6 45 f3	 movzx	 eax, BYTE PTR $T13[ebp]
  000f9	85 c0		 test	 eax, eax
  000fb	74 14		 je	 SHORT $LN4@LoadStatic

; 110  : 		return;	

  000fd	83 4d fc ff	 or	 DWORD PTR __$EHRec$[ebp+8], -1
; File C:\Program Files (x86)\Microsoft Visual Studio\2019\Community\VC\Tools\MSVC\14.28.29333\include\xstring

; 2801 :         _Tidy_deallocate();

  00101	8d 8d 44 01 00
	00		 lea	 ecx, DWORD PTR _strFileName$[ebp]
  00107	e8 00 00 00 00	 call	 ?_Tidy_deallocate@?$basic_string@DU?$char_traits@D@std@@V?$allocator@D@2@@std@@AAEXXZ ; std::basic_string<char,std::char_traits<char>,std::allocator<char> >::_Tidy_deallocate
; File D:\Metin2 Server Files\mainline\SRC_2014\Metin2Client\EterPack\EterPackManager.cpp

; 110  : 		return;	

  0010c	e9 de 00 00 00	 jmp	 $LN1@LoadStatic
$LN4@LoadStatic:

; 111  : 	
; 112  : 	CMappedFile kMapFile;

  00111	8d 4d 00	 lea	 ecx, DWORD PTR _kMapFile$[ebp]
  00114	e8 00 00 00 00	 call	 ??0CMappedFile@@QAE@XZ	; CMappedFile::CMappedFile
  00119	c6 45 fc 01	 mov	 BYTE PTR __$EHRec$[ebp+8], 1

; 113  : 	const void* c_pvData;
; 114  : 	if (!Get(kMapFile, c_szFileName, &c_pvData))

  0011d	8d 45 bc	 lea	 eax, DWORD PTR _c_pvData$[ebp]
  00120	50		 push	 eax
  00121	ff b5 68 01 00
	00		 push	 DWORD PTR _c_szFileName$[ebp]
  00127	8d 45 00	 lea	 eax, DWORD PTR _kMapFile$[ebp]
  0012a	50		 push	 eax
  0012b	8b 4d ec	 mov	 ecx, DWORD PTR _this$[ebp]
  0012e	e8 00 00 00 00	 call	 ?Get@CEterPackManager@@QAE_NAAVCMappedFile@@PBDPAPBX@Z ; CEterPackManager::Get
  00133	0f b6 c0	 movzx	 eax, al
  00136	85 c0		 test	 eax, eax
  00138	75 20		 jne	 SHORT $LN5@LoadStatic

; 115  : 		return;

  0013a	c6 45 fc 00	 mov	 BYTE PTR __$EHRec$[ebp+8], 0
  0013e	8d 4d 00	 lea	 ecx, DWORD PTR _kMapFile$[ebp]
  00141	e8 00 00 00 00	 call	 ??1CMappedFile@@UAE@XZ	; CMappedFile::~CMappedFile
  00146	83 4d fc ff	 or	 DWORD PTR __$EHRec$[ebp+8], -1
; File C:\Program Files (x86)\Microsoft Visual Studio\2019\Community\VC\Tools\MSVC\14.28.29333\include\xstring

; 2801 :         _Tidy_deallocate();

  0014a	8d 8d 44 01 00
	00		 lea	 ecx, DWORD PTR _strFileName$[ebp]
  00150	e8 00 00 00 00	 call	 ?_Tidy_deallocate@?$basic_string@DU?$char_traits@D@std@@V?$allocator@D@2@@std@@AAEXXZ ; std::basic_string<char,std::char_traits<char>,std::allocator<char> >::_Tidy_deallocate
; File D:\Metin2 Server Files\mainline\SRC_2014\Metin2Client\EterPack\EterPackManager.cpp

; 115  : 		return;

  00155	e9 95 00 00 00	 jmp	 $LN1@LoadStatic
$LN5@LoadStatic:

; 116  : 
; 117  : 	SCache kNewCache;
; 118  : 	kNewCache.m_dwBufSize = kMapFile.Size();

  0015a	8d 4d 00	 lea	 ecx, DWORD PTR _kMapFile$[ebp]
  0015d	e8 00 00 00 00	 call	 ?Size@CMappedFile@@QAEKXZ ; CMappedFile::Size
  00162	89 45 dc	 mov	 DWORD PTR _kNewCache$[ebp+4], eax

; 119  : 	kNewCache.m_abBufData = new BYTE[kNewCache.m_dwBufSize];

  00165	ff 75 dc	 push	 DWORD PTR _kNewCache$[ebp+4]
  00168	e8 00 00 00 00	 call	 ??_U@YAPAXI@Z		; operator new[]
  0016d	59		 pop	 ecx
  0016e	89 45 c0	 mov	 DWORD PTR $T8[ebp], eax
  00171	8b 45 c0	 mov	 eax, DWORD PTR $T8[ebp]
  00174	89 45 d8	 mov	 DWORD PTR _kNewCache$[ebp], eax

; 120  : 	memcpy(kNewCache.m_abBufData, c_pvData, kNewCache.m_dwBufSize);

  00177	ff 75 dc	 push	 DWORD PTR _kNewCache$[ebp+4]
  0017a	ff 75 bc	 push	 DWORD PTR _c_pvData$[ebp]
  0017d	ff 75 d8	 push	 DWORD PTR _kNewCache$[ebp]
  00180	e8 00 00 00 00	 call	 _memcpy
  00185	83 c4 0c	 add	 esp, 12			; 0000000cH
; File C:\Program Files (x86)\Microsoft Visual Studio\2019\Community\VC\Tools\MSVC\14.28.29333\include\type_traits

; 1443 :     return static_cast<_Ty&&>(_Arg);

  00188	8d 45 e4	 lea	 eax, DWORD PTR _dwFileNameHash$[ebp]
  0018b	89 45 b8	 mov	 DWORD PTR $T7[ebp], eax
; File C:\Program Files (x86)\Microsoft Visual Studio\2019\Community\VC\Tools\MSVC\14.28.29333\include\utility

; 190  :         : first(_STD forward<_Other1>(_Val1)), second(_STD forward<_Other2>(_Val2)) {}

  0018e	8b 45 b8	 mov	 eax, DWORD PTR $T7[ebp]
  00191	8b 00		 mov	 eax, DWORD PTR [eax]
  00193	89 45 a0	 mov	 DWORD PTR $T3[ebp], eax
; File C:\Program Files (x86)\Microsoft Visual Studio\2019\Community\VC\Tools\MSVC\14.28.29333\include\type_traits

; 1443 :     return static_cast<_Ty&&>(_Arg);

  00196	8d 45 d8	 lea	 eax, DWORD PTR _kNewCache$[ebp]
  00199	89 45 b4	 mov	 DWORD PTR $T6[ebp], eax
; File C:\Program Files (x86)\Microsoft Visual Studio\2019\Community\VC\Tools\MSVC\14.28.29333\include\utility

; 190  :         : first(_STD forward<_Other1>(_Val1)), second(_STD forward<_Other2>(_Val2)) {}

  0019c	8b 45 b4	 mov	 eax, DWORD PTR $T6[ebp]
  0019f	8b 08		 mov	 ecx, DWORD PTR [eax]
  001a1	8b 40 04	 mov	 eax, DWORD PTR [eax+4]
  001a4	89 4d a4	 mov	 DWORD PTR $T3[ebp+4], ecx
  001a7	89 45 a8	 mov	 DWORD PTR $T3[ebp+8], eax
; File D:\Metin2 Server Files\mainline\SRC_2014\M2Data\include\boost\move\utility_core.hpp

; 213  :          { return static_cast<typename ::boost::move_detail::remove_reference<T>::type &&>(t); }

  001aa	8d 45 a0	 lea	 eax, DWORD PTR $T3[ebp]
  001ad	89 45 e0	 mov	 DWORD PTR $T12[ebp], eax

; 249  :          {  return static_cast<T&&>(t);   }

  001b0	8b 45 e0	 mov	 eax, DWORD PTR $T12[ebp]
  001b3	89 45 b0	 mov	 DWORD PTR $T5[ebp], eax
  001b6	8b 45 e0	 mov	 eax, DWORD PTR $T12[ebp]
  001b9	89 45 ac	 mov	 DWORD PTR $T4[ebp], eax
; File D:\Metin2 Server Files\mainline\SRC_2014\M2Data\include\boost\unordered\unordered_map.hpp

; 226  :         return table_.emplace_unique(

  001bc	ff 75 b0	 push	 DWORD PTR $T5[ebp]
  001bf	ff 75 ac	 push	 DWORD PTR $T4[ebp]
  001c2	8d 45 98	 lea	 eax, DWORD PTR $T2[ebp]
  001c5	50		 push	 eax
  001c6	8b 4d ec	 mov	 ecx, DWORD PTR _this$[ebp]
  001c9	81 c1 48 14 00
	00		 add	 ecx, 5192		; 00001448H
  001cf	e8 00 00 00 00	 call	 ??$emplace_unique@U?$pair@$$CBKUSCache@CEterPackManager@@@std@@@?$table@U?$map@V?$allocator@U?$pair@$$CBKUSCache@CEterPackManager@@@std@@@std@@KUSCache@CEterPackManager@@U?$hash@K@boost@@U?$equal_to@K@2@@detail@unordered@boost@@@detail@unordered@boost@@QAE?AU?$pair@U?$iterator@U?$ptr_node@U?$pair@$$CBKUSCache@CEterPackManager@@@std@@@detail@unordered@boost@@@iterator_detail@unordered@boost@@_N@std@@ABK$$QAU?$pair@$$CBKUSCache@CEterPackManager@@@5@@Z ; boost::unordered::detail::table<boost::unordered::detail::map<std::allocator<std::pair<unsigned long const ,CEterPackManager::SCache> >,unsigned long,CEterPackManager::SCache,boost::hash<unsigned long>,std::equal_to<unsigned long> > >::emplace_unique<std::pair<unsigned long const ,CEterPackManager::SCache> >
; File D:\Metin2 Server Files\mainline\SRC_2014\Metin2Client\EterPack\EterPackManager.cpp

; 122  : }

  001d4	c6 45 fc 00	 mov	 BYTE PTR __$EHRec$[ebp+8], 0
  001d8	8d 4d 00	 lea	 ecx, DWORD PTR _kMapFile$[ebp]
  001db	e8 00 00 00 00	 call	 ??1CMappedFile@@UAE@XZ	; CMappedFile::~CMappedFile
  001e0	83 4d fc ff	 or	 DWORD PTR __$EHRec$[ebp+8], -1
; File C:\Program Files (x86)\Microsoft Visual Studio\2019\Community\VC\Tools\MSVC\14.28.29333\include\xstring

; 2801 :         _Tidy_deallocate();

  001e4	8d 8d 44 01 00
	00		 lea	 ecx, DWORD PTR _strFileName$[ebp]
  001ea	e8 00 00 00 00	 call	 ?_Tidy_deallocate@?$basic_string@DU?$char_traits@D@std@@V?$allocator@D@2@@std@@AAEXXZ ; std::basic_string<char,std::char_traits<char>,std::allocator<char> >::_Tidy_deallocate
$LN1@LoadStatic:
; File D:\Metin2 Server Files\mainline\SRC_2014\Metin2Client\EterPack\EterPackManager.cpp

; 122  : }

  001ef	8b 4d f4	 mov	 ecx, DWORD PTR __$EHRec$[ebp]
  001f2	64 89 0d 00 00
	00 00		 mov	 DWORD PTR fs:0, ecx
  001f9	59		 pop	 ecx
  001fa	8b 8d 5c 01 00
	00		 mov	 ecx, DWORD PTR __$ArrayPad$[ebp]
  00200	33 cd		 xor	 ecx, ebp
  00202	e8 00 00 00 00	 call	 @__security_check_cookie@4
  00207	81 c5 60 01 00
	00		 add	 ebp, 352		; 00000160H
  0020d	c9		 leave
  0020e	c2 04 00	 ret	 4
_TEXT	ENDS
;	COMDAT text$x
text$x	SEGMENT
__unwindfunclet$?LoadStaticCache@CEterPackManager@@QAEXPBD@Z$0:
  00000	8d 8d 44 01 00
	00		 lea	 ecx, DWORD PTR _strFileName$[ebp]
  00006	e9 00 00 00 00	 jmp	 ??1?$basic_string@DU?$char_traits@D@std@@V?$allocator@D@2@@std@@QAE@XZ ; std::basic_string<char,std::char_traits<char>,std::allocator<char> >::~basic_string<char,std::char_traits<char>,std::allocator<char> >
__unwindfunclet$?LoadStaticCache@CEterPackManager@@QAEXPBD@Z$1:
  0000b	8d 4d 00	 lea	 ecx, DWORD PTR _kMapFile$[ebp]
  0000e	e9 00 00 00 00	 jmp	 ??1CMappedFile@@UAE@XZ	; CMappedFile::~CMappedFile
  00013	cc		 int	 3
  00014	cc		 int	 3
  00015	cc		 int	 3
  00016	cc		 int	 3
  00017	cc		 int	 3
__ehhandler$?LoadStaticCache@CEterPackManager@@QAEXPBD@Z:
  00018	90		 npad	 1
  00019	90		 npad	 1
  0001a	8b 54 24 08	 mov	 edx, DWORD PTR [esp+8]
  0001e	8d 42 0c	 lea	 eax, DWORD PTR [edx+12]
  00021	8b 4a a0	 mov	 ecx, DWORD PTR [edx-96]
  00024	33 c8		 xor	 ecx, eax
  00026	e8 00 00 00 00	 call	 @__security_check_cookie@4
  0002b	8b 8a 68 01 00
	00		 mov	 ecx, DWORD PTR [edx+360]
  00031	33 c8		 xor	 ecx, eax
  00033	e8 00 00 00 00	 call	 @__security_check_cookie@4
  00038	b8 00 00 00 00	 mov	 eax, OFFSET __ehfuncinfo$?LoadStaticCache@CEterPackManager@@QAEXPBD@Z
  0003d	e9 00 00 00 00	 jmp	 ___CxxFrameHandler3
text$x	ENDS
?LoadStaticCache@CEterPackManager@@QAEXPBD@Z ENDP	; CEterPackManager::LoadStaticCache
; Function compile flags: /Odspy
; File D:\Metin2 Server Files\mainline\SRC_2014\Metin2Client\EterPack\EterPackManager.cpp
;	COMDAT ?SetRelativePathMode@CEterPackManager@@QAEXXZ
_TEXT	SEGMENT
_this$ = -4						; size = 4
?SetRelativePathMode@CEterPackManager@@QAEXXZ PROC	; CEterPackManager::SetRelativePathMode, COMDAT
; _this$ = ecx

; 51   : {

  00000	55		 push	 ebp
  00001	8b ec		 mov	 ebp, esp
  00003	51		 push	 ecx
  00004	89 4d fc	 mov	 DWORD PTR _this$[ebp], ecx

; 52   : 	m_bTryRelativePath = true;

  00007	8b 45 fc	 mov	 eax, DWORD PTR _this$[ebp]
  0000a	c6 40 04 01	 mov	 BYTE PTR [eax+4], 1

; 53   : }

  0000e	c9		 leave
  0000f	c3		 ret	 0
?SetRelativePathMode@CEterPackManager@@QAEXXZ ENDP	; CEterPackManager::SetRelativePathMode
_TEXT	ENDS
; Function compile flags: /Odspy
; File D:\Metin2 Server Files\mainline\SRC_2014\Metin2Client\EterPack\EterPackManager.cpp
;	COMDAT ?SetCacheMode@CEterPackManager@@QAEXXZ
_TEXT	SEGMENT
_this$ = -4						; size = 4
?SetCacheMode@CEterPackManager@@QAEXXZ PROC		; CEterPackManager::SetCacheMode, COMDAT
; _this$ = ecx

; 46   : {

  00000	55		 push	 ebp
  00001	8b ec		 mov	 ebp, esp
  00003	51		 push	 ecx
  00004	89 4d fc	 mov	 DWORD PTR _this$[ebp], ecx

; 47   : 	m_isCacheMode=true;

  00007	8b 45 fc	 mov	 eax, DWORD PTR _this$[ebp]
  0000a	c6 40 05 01	 mov	 BYTE PTR [eax+5], 1

; 48   : }

  0000e	c9		 leave
  0000f	c3		 ret	 0
?SetCacheMode@CEterPackManager@@QAEXXZ ENDP		; CEterPackManager::SetCacheMode
_TEXT	ENDS
; Function compile flags: /Odspy
; File D:\Metin2 Server Files\mainline\SRC_2014\Metin2Client\EterPack\EterPackManager.cpp
; File D:\Metin2 Server Files\mainline\SRC_2014\M2Data\include\boost\unordered\unordered_map.hpp
; File D:\Metin2 Server Files\mainline\SRC_2014\M2Data\include\boost\unordered\detail\implementation.hpp
; File D:\Metin2 Server Files\mainline\SRC_2014\Metin2Client\EterPack\EterPackManager.cpp
; File D:\Metin2 Server Files\mainline\SRC_2014\M2Data\include\boost\unordered\detail\implementation.hpp
; File D:\Metin2 Server Files\mainline\SRC_2014\Metin2Client\EterPack\EterPackManager.cpp
; File C:\Program Files (x86)\Microsoft Visual Studio\2019\Community\VC\Tools\MSVC\14.28.29333\include\list
; File D:\Metin2 Server Files\mainline\SRC_2014\Metin2Client\EterPack\EterPackManager.cpp
; File D:\Metin2 Server Files\mainline\SRC_2014\Metin2Client\eterBase\Singleton.h
; File D:\Metin2 Server Files\mainline\SRC_2014\Metin2Client\EterPack\EterPackManager.cpp
;	COMDAT ??1CEterPackManager@@UAE@XZ
_TEXT	SEGMENT
$T2 = -68						; size = 4
$T3 = -64						; size = 4
_tmp$4 = -60						; size = 4
_x$ = -56						; size = 4
tv139 = -52						; size = 4
_e$ = -48						; size = 4
$T5 = -44						; size = 4
tv90 = -40						; size = 4
$T6 = -36						; size = 4
$T7 = -32						; size = 4
_this$ = -28						; size = 4
_i$ = -24						; size = 4
_this$ = -20						; size = 4
$T8 = -13						; size = 1
__$EHRec$ = -12						; size = 12
??1CEterPackManager@@UAE@XZ PROC			; CEterPackManager::~CEterPackManager, COMDAT
; _this$ = ecx

; 419  : {

  00000	55		 push	 ebp
  00001	8b ec		 mov	 ebp, esp
  00003	6a ff		 push	 -1
  00005	68 00 00 00 00	 push	 __ehhandler$??1CEterPackManager@@UAE@XZ
  0000a	64 a1 00 00 00
	00		 mov	 eax, DWORD PTR fs:0
  00010	50		 push	 eax
  00011	83 ec 38	 sub	 esp, 56			; 00000038H
  00014	a1 00 00 00 00	 mov	 eax, DWORD PTR ___security_cookie
  00019	33 c5		 xor	 eax, ebp
  0001b	50		 push	 eax
  0001c	8d 45 f4	 lea	 eax, DWORD PTR __$EHRec$[ebp]
  0001f	64 a3 00 00 00
	00		 mov	 DWORD PTR fs:0, eax
  00025	89 4d ec	 mov	 DWORD PTR _this$[ebp], ecx
  00028	8b 45 ec	 mov	 eax, DWORD PTR _this$[ebp]
  0002b	c7 00 00 00 00
	00		 mov	 DWORD PTR [eax], OFFSET ??_7CEterPackManager@@6B@

; 420  : 	__ClearCacheMap();

  00031	8b 4d ec	 mov	 ecx, DWORD PTR _this$[ebp]
  00034	e8 00 00 00 00	 call	 ?__ClearCacheMap@CEterPackManager@@IAEXXZ ; CEterPackManager::__ClearCacheMap
; File D:\Metin2 Server Files\mainline\SRC_2014\M2Data\include\boost\unordered\unordered_map.hpp

; 193  :       iterator begin() BOOST_NOEXCEPT { return iterator(table_.begin()); }

  00039	8b 45 ec	 mov	 eax, DWORD PTR _this$[ebp]
  0003c	05 18 14 00 00	 add	 eax, 5144		; 00001418H
  00041	89 45 e4	 mov	 DWORD PTR _this$[ebp], eax
; File D:\Metin2 Server Files\mainline\SRC_2014\M2Data\include\boost\unordered\detail\implementation.hpp

; 3041 :           return size_ ? next_node(get_previous_start()) : node_pointer();

  00044	8b 45 e4	 mov	 eax, DWORD PTR _this$[ebp]
  00047	83 78 08 00	 cmp	 DWORD PTR [eax+8], 0
  0004b	74 22		 je	 SHORT $LN12@CEterPackM

; 3026 :           return buckets_ + static_cast<std::ptrdiff_t>(bucket_index);

  0004d	8b 45 e4	 mov	 eax, DWORD PTR _this$[ebp]
  00050	8b 40 04	 mov	 eax, DWORD PTR [eax+4]
  00053	8b 4d e4	 mov	 ecx, DWORD PTR _this$[ebp]
  00056	8b 49 14	 mov	 ecx, DWORD PTR [ecx+20]
  00059	8d 04 81	 lea	 eax, DWORD PTR [ecx+eax*4]
  0005c	89 45 d4	 mov	 DWORD PTR $T5[ebp], eax

; 3041 :           return size_ ? next_node(get_previous_start()) : node_pointer();

  0005f	8b 45 c0	 mov	 eax, DWORD PTR $T3[ebp]
  00062	89 45 e0	 mov	 DWORD PTR $T7[ebp], eax

; 2964 :           return static_cast<node_pointer>(n->next_);

  00065	8b 45 d4	 mov	 eax, DWORD PTR $T5[ebp]
  00068	8b 00		 mov	 eax, DWORD PTR [eax]
  0006a	89 45 e0	 mov	 DWORD PTR $T7[ebp], eax

; 3041 :           return size_ ? next_node(get_previous_start()) : node_pointer();

  0006d	eb 04		 jmp	 SHORT $LN10@CEterPackM
$LN12@CEterPackM:
  0006f	83 65 e0 00	 and	 DWORD PTR $T7[ebp], 0
$LN10@CEterPackM:

; 2371 :           : node_(static_cast<node_pointer>(x))

  00073	8b 45 e0	 mov	 eax, DWORD PTR $T7[ebp]
  00076	89 45 e8	 mov	 DWORD PTR _i$[ebp], eax

; 2368 :         iterator() BOOST_NOEXCEPT : node_() {}

  00079	83 65 d0 00	 and	 DWORD PTR _e$[ebp], 0
$LN2@CEterPackM:

; 2399 :           return node_ != x.node_;

  0007d	8b 45 e8	 mov	 eax, DWORD PTR _i$[ebp]
  00080	3b 45 d0	 cmp	 eax, DWORD PTR _e$[ebp]
  00083	74 09		 je	 SHORT $LN33@CEterPackM
  00085	c7 45 d8 01 00
	00 00		 mov	 DWORD PTR tv90[ebp], 1
  0008c	eb 04		 jmp	 SHORT $LN34@CEterPackM
$LN33@CEterPackM:
  0008e	83 65 d8 00	 and	 DWORD PTR tv90[ebp], 0
$LN34@CEterPackM:
  00092	8a 45 d8	 mov	 al, BYTE PTR tv90[ebp]
  00095	88 45 f3	 mov	 BYTE PTR $T8[ebp], al
; File D:\Metin2 Server Files\mainline\SRC_2014\Metin2Client\EterPack\EterPackManager.cpp

; 424  : 	while (i != e)

  00098	0f b6 45 f3	 movzx	 eax, BYTE PTR $T8[ebp]
  0009c	85 c0		 test	 eax, eax
  0009e	74 40		 je	 SHORT $LN3@CEterPackM

; 425  : 	{
; 426  : 		delete i->second;

  000a0	8b 45 e8	 mov	 eax, DWORD PTR _i$[ebp]
  000a3	8b 40 20	 mov	 eax, DWORD PTR [eax+32]
  000a6	89 45 dc	 mov	 DWORD PTR $T6[ebp], eax
  000a9	83 7d dc 00	 cmp	 DWORD PTR $T6[ebp], 0
  000ad	74 11		 je	 SHORT $LN5@CEterPackM
  000af	6a 01		 push	 1
  000b1	8b 45 dc	 mov	 eax, DWORD PTR $T6[ebp]
  000b4	8b 00		 mov	 eax, DWORD PTR [eax]
  000b6	8b 4d dc	 mov	 ecx, DWORD PTR $T6[ebp]
  000b9	ff 10		 call	 DWORD PTR [eax]
  000bb	89 45 cc	 mov	 DWORD PTR tv139[ebp], eax
  000be	eb 04		 jmp	 SHORT $LN6@CEterPackM
$LN5@CEterPackM:
  000c0	83 65 cc 00	 and	 DWORD PTR tv139[ebp], 0
$LN6@CEterPackM:
; File D:\Metin2 Server Files\mainline\SRC_2014\M2Data\include\boost\unordered\detail\implementation.hpp

; 2387 :           iterator tmp(node_);

  000c4	8b 45 e8	 mov	 eax, DWORD PTR _i$[ebp]
  000c7	89 45 c8	 mov	 DWORD PTR _x$[ebp], eax

; 2371 :           : node_(static_cast<node_pointer>(x))

  000ca	8b 45 c8	 mov	 eax, DWORD PTR _x$[ebp]
  000cd	89 45 c4	 mov	 DWORD PTR _tmp$4[ebp], eax

; 2388 :           node_ = static_cast<node_pointer>(node_->next_);

  000d0	8b 45 e8	 mov	 eax, DWORD PTR _i$[ebp]
  000d3	8b 00		 mov	 eax, DWORD PTR [eax]
  000d5	89 45 e8	 mov	 DWORD PTR _i$[ebp], eax

; 2389 :           return tmp;

  000d8	8b 45 c4	 mov	 eax, DWORD PTR _tmp$4[ebp]
  000db	89 45 bc	 mov	 DWORD PTR $T2[ebp], eax
; File D:\Metin2 Server Files\mainline\SRC_2014\Metin2Client\EterPack\EterPackManager.cpp

; 428  : 	}	

  000de	eb 9d		 jmp	 SHORT $LN2@CEterPackM
$LN3@CEterPackM:

; 429  : 	DeleteCriticalSection(&m_csFinder);

  000e0	8b 45 ec	 mov	 eax, DWORD PTR _this$[ebp]
  000e3	05 60 14 00 00	 add	 eax, 5216		; 00001460H
  000e8	50		 push	 eax
  000e9	ff 15 00 00 00
	00		 call	 DWORD PTR __imp__DeleteCriticalSection@4

; 430  : }

  000ef	8b 4d ec	 mov	 ecx, DWORD PTR _this$[ebp]
  000f2	81 c1 48 14 00
	00		 add	 ecx, 5192		; 00001448H
  000f8	e8 00 00 00 00	 call	 ??1?$unordered_map@KUSCache@CEterPackManager@@U?$hash@K@boost@@U?$equal_to@K@std@@V?$allocator@U?$pair@$$CBKUSCache@CEterPackManager@@@std@@@6@@unordered@boost@@QAE@XZ ; boost::unordered::unordered_map<unsigned long,CEterPackManager::SCache,boost::hash<unsigned long>,std::equal_to<unsigned long>,std::allocator<std::pair<unsigned long const ,CEterPackManager::SCache> > >::~unordered_map<unsigned long,CEterPackManager::SCache,boost::hash<unsigned long>,std::equal_to<unsigned long>,std::allocator<std::pair<unsigned long const ,CEterPackManager::SCache> > >
  000fd	8b 4d ec	 mov	 ecx, DWORD PTR _this$[ebp]
  00100	81 c1 30 14 00
	00		 add	 ecx, 5168		; 00001430H
  00106	e8 00 00 00 00	 call	 ??1?$unordered_map@V?$basic_string@DU?$char_traits@D@std@@V?$allocator@D@2@@std@@PAVCEterPack@@Ustringhash@@U?$equal_to@V?$basic_string@DU?$char_traits@D@std@@V?$allocator@D@2@@std@@@2@V?$allocator@U?$pair@$$CBV?$basic_string@DU?$char_traits@D@std@@V?$allocator@D@2@@std@@PAVCEterPack@@@std@@@2@@unordered@boost@@QAE@XZ ; boost::unordered::unordered_map<std::basic_string<char,std::char_traits<char>,std::allocator<char> >,CEterPack *,stringhash,std::equal_to<std::basic_string<char,std::char_traits<char>,std::allocator<char> > >,std::allocator<std::pair<std::basic_string<char,std::char_traits<char>,std::allocator<char> > const ,CEterPack *> > >::~unordered_map<std::basic_string<char,std::char_traits<char>,std::allocator<char> >,CEterPack *,stringhash,std::equal_to<std::basic_string<char,std::char_traits<char>,std::allocator<char> > >,std::allocator<std::pair<std::basic_string<char,std::char_traits<char>,std::allocator<char> > const ,CEterPack *> > >
  0010b	8b 4d ec	 mov	 ecx, DWORD PTR _this$[ebp]
  0010e	81 c1 18 14 00
	00		 add	 ecx, 5144		; 00001418H
  00114	e8 00 00 00 00	 call	 ??1?$unordered_map@V?$basic_string@DU?$char_traits@D@std@@V?$allocator@D@2@@std@@PAVCEterPack@@Ustringhash@@U?$equal_to@V?$basic_string@DU?$char_traits@D@std@@V?$allocator@D@2@@std@@@2@V?$allocator@U?$pair@$$CBV?$basic_string@DU?$char_traits@D@std@@V?$allocator@D@2@@std@@PAVCEterPack@@@std@@@2@@unordered@boost@@QAE@XZ ; boost::unordered::unordered_map<std::basic_string<char,std::char_traits<char>,std::allocator<char> >,CEterPack *,stringhash,std::equal_to<std::basic_string<char,std::char_traits<char>,std::allocator<char> > >,std::allocator<std::pair<std::basic_string<char,std::char_traits<char>,std::allocator<char> > const ,CEterPack *> > >::~unordered_map<std::basic_string<char,std::char_traits<char>,std::allocator<char> >,CEterPack *,stringhash,std::equal_to<std::basic_string<char,std::char_traits<char>,std::allocator<char> > >,std::allocator<std::pair<std::basic_string<char,std::char_traits<char>,std::allocator<char> > const ,CEterPack *> > >
  00119	8b 4d ec	 mov	 ecx, DWORD PTR _this$[ebp]
  0011c	81 c1 10 14 00
	00		 add	 ecx, 5136		; 00001410H
; File C:\Program Files (x86)\Microsoft Visual Studio\2019\Community\VC\Tools\MSVC\14.28.29333\include\list

; 1046 :         _Tidy();

  00122	e8 00 00 00 00	 call	 ?_Tidy@?$list@PAVCEterPack@@V?$allocator@PAVCEterPack@@@std@@@std@@AAEXXZ ; std::list<CEterPack *,std::allocator<CEterPack *> >::_Tidy
; File D:\Metin2 Server Files\mainline\SRC_2014\Metin2Client\EterPack\EterPackManager.cpp

; 430  : }

  00127	8b 4d ec	 mov	 ecx, DWORD PTR _this$[ebp]
  0012a	83 c1 24	 add	 ecx, 36			; 00000024H
  0012d	e8 00 00 00 00	 call	 ??1CEterPack@@UAE@XZ	; CEterPack::~CEterPack
  00132	8b 4d ec	 mov	 ecx, DWORD PTR _this$[ebp]
  00135	83 c1 0c	 add	 ecx, 12			; 0000000cH
  00138	e8 00 00 00 00	 call	 ??1?$unordered_multimap@KUItem@CEterFileDict@@U?$hash@K@boost@@U?$equal_to@K@std@@V?$allocator@U?$pair@$$CBKUItem@CEterFileDict@@@std@@@6@@unordered@boost@@QAE@XZ ; boost::unordered::unordered_multimap<unsigned long,CEterFileDict::Item,boost::hash<unsigned long>,std::equal_to<unsigned long>,std::allocator<std::pair<unsigned long const ,CEterFileDict::Item> > >::~unordered_multimap<unsigned long,CEterFileDict::Item,boost::hash<unsigned long>,std::equal_to<unsigned long>,std::allocator<std::pair<unsigned long const ,CEterFileDict::Item> > >
; File D:\Metin2 Server Files\mainline\SRC_2014\Metin2Client\eterBase\Singleton.h

; 19   : 	{ 

  0013d	8b 45 ec	 mov	 eax, DWORD PTR _this$[ebp]
  00140	c7 00 00 00 00
	00		 mov	 DWORD PTR [eax], OFFSET ??_7?$CSingleton@VCEterPackManager@@@@6B@

; 20   : 		assert(ms_singleton);
; 21   : 		ms_singleton = 0; 

  00146	83 25 00 00 00
	00 00		 and	 DWORD PTR ?ms_singleton@?$CSingleton@VCEterPackManager@@@@0PAVCEterPackManager@@A, 0 ; CSingleton<CEterPackManager>::ms_singleton
; File D:\Metin2 Server Files\mainline\SRC_2014\Metin2Client\EterPack\EterPackManager.cpp

; 430  : }

  0014d	8b 4d f4	 mov	 ecx, DWORD PTR __$EHRec$[ebp]
  00150	64 89 0d 00 00
	00 00		 mov	 DWORD PTR fs:0, ecx
  00157	59		 pop	 ecx
  00158	c9		 leave
  00159	c3		 ret	 0
  0015a	cc		 int	 3
  0015b	cc		 int	 3
  0015c	cc		 int	 3
  0015d	cc		 int	 3
  0015e	cc		 int	 3
_TEXT	ENDS
;	COMDAT text$x
text$x	SEGMENT
__ehhandler$??1CEterPackManager@@UAE@XZ:
  00000	90		 npad	 1
  00001	90		 npad	 1
  00002	8b 54 24 08	 mov	 edx, DWORD PTR [esp+8]
  00006	8d 42 0c	 lea	 eax, DWORD PTR [edx+12]
  00009	8b 4a c4	 mov	 ecx, DWORD PTR [edx-60]
  0000c	33 c8		 xor	 ecx, eax
  0000e	e8 00 00 00 00	 call	 @__security_check_cookie@4
  00013	b8 00 00 00 00	 mov	 eax, OFFSET __ehfuncinfo$??1CEterPackManager@@UAE@XZ
  00018	e9 00 00 00 00	 jmp	 ___CxxFrameHandler3
text$x	ENDS
??1CEterPackManager@@UAE@XZ ENDP			; CEterPackManager::~CEterPackManager
; Function compile flags: /Odspy
; File D:\Metin2 Server Files\mainline\SRC_2014\Metin2Client\EterPack\EterPackManager.cpp
; File D:\Metin2 Server Files\mainline\SRC_2014\Metin2Client\eterBase\Singleton.h
; File D:\Metin2 Server Files\mainline\SRC_2014\Metin2Client\EterPack\EterPackManager.cpp
;	COMDAT ??0CEterPackManager@@QAE@XZ
_TEXT	SEGMENT
_this$ = -24						; size = 4
_offset$2 = -20						; size = 4
_this$ = -16						; size = 4
__$EHRec$ = -12						; size = 12
??0CEterPackManager@@QAE@XZ PROC			; CEterPackManager::CEterPackManager, COMDAT
; _this$ = ecx

; 414  : {

  00000	55		 push	 ebp
  00001	8b ec		 mov	 ebp, esp
  00003	6a ff		 push	 -1
  00005	68 00 00 00 00	 push	 __ehhandler$??0CEterPackManager@@QAE@XZ
  0000a	64 a1 00 00 00
	00		 mov	 eax, DWORD PTR fs:0
  00010	50		 push	 eax
  00011	83 ec 0c	 sub	 esp, 12			; 0000000cH
  00014	a1 00 00 00 00	 mov	 eax, DWORD PTR ___security_cookie
  00019	33 c5		 xor	 eax, ebp
  0001b	50		 push	 eax
  0001c	8d 45 f4	 lea	 eax, DWORD PTR __$EHRec$[ebp]
  0001f	64 a3 00 00 00
	00		 mov	 DWORD PTR fs:0, eax
  00025	89 4d f0	 mov	 DWORD PTR _this$[ebp], ecx
; File D:\Metin2 Server Files\mainline\SRC_2014\Metin2Client\eterBase\Singleton.h

; 12   : 	{ 

  00028	8b 45 f0	 mov	 eax, DWORD PTR _this$[ebp]
  0002b	c7 00 00 00 00
	00		 mov	 DWORD PTR [eax], OFFSET ??_7?$CSingleton@VCEterPackManager@@@@6B@

; 13   : 		assert(!ms_singleton);
; 14   : 		int offset = (int) (T*) 1 - (int) (CSingleton <T>*) (T*) 1; 

  00031	33 c0		 xor	 eax, eax
  00033	89 45 ec	 mov	 DWORD PTR _offset$2[ebp], eax

; 15   : 		ms_singleton = (T*) ((int) this + offset);

  00036	8b 45 f0	 mov	 eax, DWORD PTR _this$[ebp]
  00039	03 45 ec	 add	 eax, DWORD PTR _offset$2[ebp]
  0003c	a3 00 00 00 00	 mov	 DWORD PTR ?ms_singleton@?$CSingleton@VCEterPackManager@@@@0PAVCEterPackManager@@A, eax ; CSingleton<CEterPackManager>::ms_singleton
; File D:\Metin2 Server Files\mainline\SRC_2014\Metin2Client\EterPack\EterPackManager.cpp

; 414  : {

  00041	83 65 fc 00	 and	 DWORD PTR __$EHRec$[ebp+8], 0
  00045	8b 45 f0	 mov	 eax, DWORD PTR _this$[ebp]
  00048	c7 00 00 00 00
	00		 mov	 DWORD PTR [eax], OFFSET ??_7CEterPackManager@@6B@

; 413  : CEterPackManager::CEterPackManager() : m_bTryRelativePath(false), m_iSearchMode(SEARCH_FILE_FIRST), m_isCacheMode(false)

  0004e	8b 45 f0	 mov	 eax, DWORD PTR _this$[ebp]
  00051	c6 40 04 00	 mov	 BYTE PTR [eax+4], 0
  00055	8b 45 f0	 mov	 eax, DWORD PTR _this$[ebp]
  00058	c6 40 05 00	 mov	 BYTE PTR [eax+5], 0
  0005c	8b 45 f0	 mov	 eax, DWORD PTR _this$[ebp]
  0005f	83 60 08 00	 and	 DWORD PTR [eax+8], 0

; 414  : {

  00063	8b 45 f0	 mov	 eax, DWORD PTR _this$[ebp]
  00066	83 c0 0c	 add	 eax, 12			; 0000000cH
  00069	89 45 e8	 mov	 DWORD PTR _this$[ebp], eax
  0006c	8b 4d e8	 mov	 ecx, DWORD PTR _this$[ebp]
  0006f	e8 00 00 00 00	 call	 ??0?$unordered_multimap@KUItem@CEterFileDict@@U?$hash@K@boost@@U?$equal_to@K@std@@V?$allocator@U?$pair@$$CBKUItem@CEterFileDict@@@std@@@6@@unordered@boost@@QAE@XZ ; boost::unordered::unordered_multimap<unsigned long,CEterFileDict::Item,boost::hash<unsigned long>,std::equal_to<unsigned long>,std::allocator<std::pair<unsigned long const ,CEterFileDict::Item> > >::unordered_multimap<unsigned long,CEterFileDict::Item,boost::hash<unsigned long>,std::equal_to<unsigned long>,std::allocator<std::pair<unsigned long const ,CEterFileDict::Item> > >
  00074	c6 45 fc 01	 mov	 BYTE PTR __$EHRec$[ebp+8], 1
  00078	8b 4d f0	 mov	 ecx, DWORD PTR _this$[ebp]
  0007b	83 c1 24	 add	 ecx, 36			; 00000024H
  0007e	e8 00 00 00 00	 call	 ??0CEterPack@@QAE@XZ	; CEterPack::CEterPack
  00083	c6 45 fc 02	 mov	 BYTE PTR __$EHRec$[ebp+8], 2
  00087	8b 4d f0	 mov	 ecx, DWORD PTR _this$[ebp]
  0008a	81 c1 10 14 00
	00		 add	 ecx, 5136		; 00001410H
  00090	e8 00 00 00 00	 call	 ??0?$list@PAVCEterPack@@V?$allocator@PAVCEterPack@@@std@@@std@@QAE@XZ ; std::list<CEterPack *,std::allocator<CEterPack *> >::list<CEterPack *,std::allocator<CEterPack *> >
  00095	c6 45 fc 03	 mov	 BYTE PTR __$EHRec$[ebp+8], 3
  00099	8b 4d f0	 mov	 ecx, DWORD PTR _this$[ebp]
  0009c	81 c1 18 14 00
	00		 add	 ecx, 5144		; 00001418H
  000a2	e8 00 00 00 00	 call	 ??0?$unordered_map@V?$basic_string@DU?$char_traits@D@std@@V?$allocator@D@2@@std@@PAVCEterPack@@Ustringhash@@U?$equal_to@V?$basic_string@DU?$char_traits@D@std@@V?$allocator@D@2@@std@@@2@V?$allocator@U?$pair@$$CBV?$basic_string@DU?$char_traits@D@std@@V?$allocator@D@2@@std@@PAVCEterPack@@@std@@@2@@unordered@boost@@QAE@XZ ; boost::unordered::unordered_map<std::basic_string<char,std::char_traits<char>,std::allocator<char> >,CEterPack *,stringhash,std::equal_to<std::basic_string<char,std::char_traits<char>,std::allocator<char> > >,std::allocator<std::pair<std::basic_string<char,std::char_traits<char>,std::allocator<char> > const ,CEterPack *> > >::unordered_map<std::basic_string<char,std::char_traits<char>,std::allocator<char> >,CEterPack *,stringhash,std::equal_to<std::basic_string<char,std::char_traits<char>,std::allocator<char> > >,std::allocator<std::pair<std::basic_string<char,std::char_traits<char>,std::allocator<char> > const ,CEterPack *> > >
  000a7	c6 45 fc 04	 mov	 BYTE PTR __$EHRec$[ebp+8], 4
  000ab	8b 4d f0	 mov	 ecx, DWORD PTR _this$[ebp]
  000ae	81 c1 30 14 00
	00		 add	 ecx, 5168		; 00001430H
  000b4	e8 00 00 00 00	 call	 ??0?$unordered_map@V?$basic_string@DU?$char_traits@D@std@@V?$allocator@D@2@@std@@PAVCEterPack@@Ustringhash@@U?$equal_to@V?$basic_string@DU?$char_traits@D@std@@V?$allocator@D@2@@std@@@2@V?$allocator@U?$pair@$$CBV?$basic_string@DU?$char_traits@D@std@@V?$allocator@D@2@@std@@PAVCEterPack@@@std@@@2@@unordered@boost@@QAE@XZ ; boost::unordered::unordered_map<std::basic_string<char,std::char_traits<char>,std::allocator<char> >,CEterPack *,stringhash,std::equal_to<std::basic_string<char,std::char_traits<char>,std::allocator<char> > >,std::allocator<std::pair<std::basic_string<char,std::char_traits<char>,std::allocator<char> > const ,CEterPack *> > >::unordered_map<std::basic_string<char,std::char_traits<char>,std::allocator<char> >,CEterPack *,stringhash,std::equal_to<std::basic_string<char,std::char_traits<char>,std::allocator<char> > >,std::allocator<std::pair<std::basic_string<char,std::char_traits<char>,std::allocator<char> > const ,CEterPack *> > >
  000b9	c6 45 fc 05	 mov	 BYTE PTR __$EHRec$[ebp+8], 5
  000bd	8b 4d f0	 mov	 ecx, DWORD PTR _this$[ebp]
  000c0	81 c1 48 14 00
	00		 add	 ecx, 5192		; 00001448H
  000c6	e8 00 00 00 00	 call	 ??0?$unordered_map@KUSCache@CEterPackManager@@U?$hash@K@boost@@U?$equal_to@K@std@@V?$allocator@U?$pair@$$CBKUSCache@CEterPackManager@@@std@@@6@@unordered@boost@@QAE@XZ ; boost::unordered::unordered_map<unsigned long,CEterPackManager::SCache,boost::hash<unsigned long>,std::equal_to<unsigned long>,std::allocator<std::pair<unsigned long const ,CEterPackManager::SCache> > >::unordered_map<unsigned long,CEterPackManager::SCache,boost::hash<unsigned long>,std::equal_to<unsigned long>,std::allocator<std::pair<unsigned long const ,CEterPackManager::SCache> > >

; 415  : 	InitializeCriticalSection(&m_csFinder);

  000cb	8b 45 f0	 mov	 eax, DWORD PTR _this$[ebp]
  000ce	05 60 14 00 00	 add	 eax, 5216		; 00001460H
  000d3	50		 push	 eax
  000d4	ff 15 00 00 00
	00		 call	 DWORD PTR __imp__InitializeCriticalSection@4

; 416  : }

  000da	83 4d fc ff	 or	 DWORD PTR __$EHRec$[ebp+8], -1
  000de	8b 45 f0	 mov	 eax, DWORD PTR _this$[ebp]
  000e1	8b 4d f4	 mov	 ecx, DWORD PTR __$EHRec$[ebp]
  000e4	64 89 0d 00 00
	00 00		 mov	 DWORD PTR fs:0, ecx
  000eb	59		 pop	 ecx
  000ec	c9		 leave
  000ed	c3		 ret	 0
_TEXT	ENDS
;	COMDAT text$x
text$x	SEGMENT
__unwindfunclet$??0CEterPackManager@@QAE@XZ$0:
  00000	8b 4d f0	 mov	 ecx, DWORD PTR _this$[ebp]
  00003	e9 00 00 00 00	 jmp	 ??1?$CSingleton@VCEterPackManager@@@@UAE@XZ ; CSingleton<CEterPackManager>::~CSingleton<CEterPackManager>
__unwindfunclet$??0CEterPackManager@@QAE@XZ$1:
  00008	8b 4d f0	 mov	 ecx, DWORD PTR _this$[ebp]
  0000b	83 c1 0c	 add	 ecx, 12			; 0000000cH
  0000e	e9 00 00 00 00	 jmp	 ??1CEterFileDict@@QAE@XZ
__unwindfunclet$??0CEterPackManager@@QAE@XZ$2:
  00013	8b 4d f0	 mov	 ecx, DWORD PTR _this$[ebp]
  00016	83 c1 24	 add	 ecx, 36			; 00000024H
  00019	e9 00 00 00 00	 jmp	 ??1CEterPack@@UAE@XZ	; CEterPack::~CEterPack
__unwindfunclet$??0CEterPackManager@@QAE@XZ$3:
  0001e	8b 4d f0	 mov	 ecx, DWORD PTR _this$[ebp]
  00021	81 c1 10 14 00
	00		 add	 ecx, 5136		; 00001410H
  00027	e9 00 00 00 00	 jmp	 ??1?$list@PAVCEterPack@@V?$allocator@PAVCEterPack@@@std@@@std@@QAE@XZ ; std::list<CEterPack *,std::allocator<CEterPack *> >::~list<CEterPack *,std::allocator<CEterPack *> >
__unwindfunclet$??0CEterPackManager@@QAE@XZ$4:
  0002c	8b 4d f0	 mov	 ecx, DWORD PTR _this$[ebp]
  0002f	81 c1 18 14 00
	00		 add	 ecx, 5144		; 00001418H
  00035	e9 00 00 00 00	 jmp	 ??1?$unordered_map@V?$basic_string@DU?$char_traits@D@std@@V?$allocator@D@2@@std@@PAVCEterPack@@Ustringhash@@U?$equal_to@V?$basic_string@DU?$char_traits@D@std@@V?$allocator@D@2@@std@@@2@V?$allocator@U?$pair@$$CBV?$basic_string@DU?$char_traits@D@std@@V?$allocator@D@2@@std@@PAVCEterPack@@@std@@@2@@unordered@boost@@QAE@XZ ; boost::unordered::unordered_map<std::basic_string<char,std::char_traits<char>,std::allocator<char> >,CEterPack *,stringhash,std::equal_to<std::basic_string<char,std::char_traits<char>,std::allocator<char> > >,std::allocator<std::pair<std::basic_string<char,std::char_traits<char>,std::allocator<char> > const ,CEterPack *> > >::~unordered_map<std::basic_string<char,std::char_traits<char>,std::allocator<char> >,CEterPack *,stringhash,std::equal_to<std::basic_string<char,std::char_traits<char>,std::allocator<char> > >,std::allocator<std::pair<std::basic_string<char,std::char_traits<char>,std::allocator<char> > const ,CEterPack *> > >
__unwindfunclet$??0CEterPackManager@@QAE@XZ$5:
  0003a	8b 4d f0	 mov	 ecx, DWORD PTR _this$[ebp]
  0003d	81 c1 30 14 00
	00		 add	 ecx, 5168		; 00001430H
  00043	e9 00 00 00 00	 jmp	 ??1?$unordered_map@V?$basic_string@DU?$char_traits@D@std@@V?$allocator@D@2@@std@@PAVCEterPack@@Ustringhash@@U?$equal_to@V?$basic_string@DU?$char_traits@D@std@@V?$allocator@D@2@@std@@@2@V?$allocator@U?$pair@$$CBV?$basic_string@DU?$char_traits@D@std@@V?$allocator@D@2@@std@@PAVCEterPack@@@std@@@2@@unordered@boost@@QAE@XZ ; boost::unordered::unordered_map<std::basic_string<char,std::char_traits<char>,std::allocator<char> >,CEterPack *,stringhash,std::equal_to<std::basic_string<char,std::char_traits<char>,std::allocator<char> > >,std::allocator<std::pair<std::basic_string<char,std::char_traits<char>,std::allocator<char> > const ,CEterPack *> > >::~unordered_map<std::basic_string<char,std::char_traits<char>,std::allocator<char> >,CEterPack *,stringhash,std::equal_to<std::basic_string<char,std::char_traits<char>,std::allocator<char> > >,std::allocator<std::pair<std::basic_string<char,std::char_traits<char>,std::allocator<char> > const ,CEterPack *> > >
  00048	cc		 int	 3
  00049	cc		 int	 3
  0004a	cc		 int	 3
  0004b	cc		 int	 3
  0004c	cc		 int	 3
__ehhandler$??0CEterPackManager@@QAE@XZ:
  0004d	90		 npad	 1
  0004e	90		 npad	 1
  0004f	8b 54 24 08	 mov	 edx, DWORD PTR [esp+8]
  00053	8d 42 0c	 lea	 eax, DWORD PTR [edx+12]
  00056	8b 4a f0	 mov	 ecx, DWORD PTR [edx-16]
  00059	33 c8		 xor	 ecx, eax
  0005b	e8 00 00 00 00	 call	 @__security_check_cookie@4
  00060	b8 00 00 00 00	 mov	 eax, OFFSET __ehfuncinfo$??0CEterPackManager@@QAE@XZ
  00065	e9 00 00 00 00	 jmp	 ___CxxFrameHandler3
text$x	ENDS
??0CEterPackManager@@QAE@XZ ENDP			; CEterPackManager::CEterPackManager
; Function compile flags: /Odspy
; File D:\Metin2 Server Files\mainline\SRC_2014\Metin2Client\eterBase\Singleton.h
;	COMDAT ??_G?$CSingleton@VCEterPackManager@@@@UAEPAXI@Z
_TEXT	SEGMENT
_this$ = -4						; size = 4
___flags$ = 8						; size = 4
??_G?$CSingleton@VCEterPackManager@@@@UAEPAXI@Z PROC	; CSingleton<CEterPackManager>::`scalar deleting destructor', COMDAT
; _this$ = ecx
  00000	55		 push	 ebp
  00001	8b ec		 mov	 ebp, esp
  00003	51		 push	 ecx
  00004	89 4d fc	 mov	 DWORD PTR _this$[ebp], ecx

; 19   : 	{ 

  00007	8b 45 fc	 mov	 eax, DWORD PTR _this$[ebp]
  0000a	c7 00 00 00 00
	00		 mov	 DWORD PTR [eax], OFFSET ??_7?$CSingleton@VCEterPackManager@@@@6B@

; 20   : 		assert(ms_singleton);
; 21   : 		ms_singleton = 0; 

  00010	83 25 00 00 00
	00 00		 and	 DWORD PTR ?ms_singleton@?$CSingleton@VCEterPackManager@@@@0PAVCEterPackManager@@A, 0 ; CSingleton<CEterPackManager>::ms_singleton
  00017	8b 45 08	 mov	 eax, DWORD PTR ___flags$[ebp]
  0001a	83 e0 01	 and	 eax, 1
  0001d	74 0c		 je	 SHORT $LN2@scalar
  0001f	6a 04		 push	 4
  00021	ff 75 fc	 push	 DWORD PTR _this$[ebp]
  00024	e8 00 00 00 00	 call	 ??3@YAXPAXI@Z		; operator delete
  00029	59		 pop	 ecx
  0002a	59		 pop	 ecx
$LN2@scalar:
  0002b	8b 45 fc	 mov	 eax, DWORD PTR _this$[ebp]
  0002e	c9		 leave
  0002f	c2 04 00	 ret	 4
??_G?$CSingleton@VCEterPackManager@@@@UAEPAXI@Z ENDP	; CSingleton<CEterPackManager>::`scalar deleting destructor'
_TEXT	ENDS
; Function compile flags: /Odspy
; File D:\Metin2 Server Files\mainline\SRC_2014\Metin2Client\eterBase\Singleton.h
;	COMDAT ??1?$CSingleton@VCEterPackManager@@@@UAE@XZ
_TEXT	SEGMENT
_this$ = -4						; size = 4
??1?$CSingleton@VCEterPackManager@@@@UAE@XZ PROC	; CSingleton<CEterPackManager>::~CSingleton<CEterPackManager>, COMDAT
; _this$ = ecx

; 19   : 	{ 

  00000	55		 push	 ebp
  00001	8b ec		 mov	 ebp, esp
  00003	51		 push	 ecx
  00004	89 4d fc	 mov	 DWORD PTR _this$[ebp], ecx
  00007	8b 45 fc	 mov	 eax, DWORD PTR _this$[ebp]
  0000a	c7 00 00 00 00
	00		 mov	 DWORD PTR [eax], OFFSET ??_7?$CSingleton@VCEterPackManager@@@@6B@

; 20   : 		assert(ms_singleton);
; 21   : 		ms_singleton = 0; 

  00010	83 25 00 00 00
	00 00		 and	 DWORD PTR ?ms_singleton@?$CSingleton@VCEterPackManager@@@@0PAVCEterPackManager@@A, 0 ; CSingleton<CEterPackManager>::ms_singleton

; 22   : 	}

  00017	c9		 leave
  00018	c3		 ret	 0
??1?$CSingleton@VCEterPackManager@@@@UAE@XZ ENDP	; CSingleton<CEterPackManager>::~CSingleton<CEterPackManager>
_TEXT	ENDS
; Function compile flags: /Odspy
;	COMDAT ??1CEterFileDict@@QAE@XZ
_TEXT	SEGMENT
_this$ = -4						; size = 4
??1CEterFileDict@@QAE@XZ PROC				; CEterFileDict::~CEterFileDict, COMDAT
; _this$ = ecx
  00000	55		 push	 ebp
  00001	8b ec		 mov	 ebp, esp
  00003	51		 push	 ecx
  00004	89 4d fc	 mov	 DWORD PTR _this$[ebp], ecx
  00007	8b 4d fc	 mov	 ecx, DWORD PTR _this$[ebp]
  0000a	e8 00 00 00 00	 call	 ??1?$unordered_multimap@KUItem@CEterFileDict@@U?$hash@K@boost@@U?$equal_to@K@std@@V?$allocator@U?$pair@$$CBKUItem@CEterFileDict@@@std@@@6@@unordered@boost@@QAE@XZ ; boost::unordered::unordered_multimap<unsigned long,CEterFileDict::Item,boost::hash<unsigned long>,std::equal_to<unsigned long>,std::allocator<std::pair<unsigned long const ,CEterFileDict::Item> > >::~unordered_multimap<unsigned long,CEterFileDict::Item,boost::hash<unsigned long>,std::equal_to<unsigned long>,std::allocator<std::pair<unsigned long const ,CEterFileDict::Item> > >
  0000f	c9		 leave
  00010	c3		 ret	 0
??1CEterFileDict@@QAE@XZ ENDP				; CEterFileDict::~CEterFileDict
_TEXT	ENDS
; Function compile flags: /Odspy
; File D:\Metin2 Server Files\mainline\SRC_2014\M2Data\include\boost\unordered\unordered_map.hpp
; File D:\Metin2 Server Files\mainline\SRC_2014\M2Data\include\boost\unordered\detail\implementation.hpp
; File D:\Metin2 Server Files\mainline\SRC_2014\M2Data\include\boost\unordered\unordered_map.hpp
;	COMDAT ??1?$unordered_multimap@KUItem@CEterFileDict@@U?$hash@K@boost@@U?$equal_to@K@std@@V?$allocator@U?$pair@$$CBKUItem@CEterFileDict@@@std@@@6@@unordered@boost@@QAE@XZ
_TEXT	SEGMENT
_this$ = -16						; size = 4
__$EHRec$ = -12						; size = 12
??1?$unordered_multimap@KUItem@CEterFileDict@@U?$hash@K@boost@@U?$equal_to@K@std@@V?$allocator@U?$pair@$$CBKUItem@CEterFileDict@@@std@@@6@@unordered@boost@@QAE@XZ PROC ; boost::unordered::unordered_multimap<unsigned long,CEterFileDict::Item,boost::hash<unsigned long>,std::equal_to<unsigned long>,std::allocator<std::pair<unsigned long const ,CEterFileDict::Item> > >::~unordered_multimap<unsigned long,CEterFileDict::Item,boost::hash<unsigned long>,std::equal_to<unsigned long>,std::allocator<std::pair<unsigned long const ,CEterFileDict::Item> > >, COMDAT
; _this$ = ecx

; 2123 :     {

  00000	55		 push	 ebp
  00001	8b ec		 mov	 ebp, esp
  00003	6a ff		 push	 -1
  00005	68 00 00 00 00	 push	 __ehhandler$??1?$unordered_multimap@KUItem@CEterFileDict@@U?$hash@K@boost@@U?$equal_to@K@std@@V?$allocator@U?$pair@$$CBKUItem@CEterFileDict@@@std@@@6@@unordered@boost@@QAE@XZ
  0000a	64 a1 00 00 00
	00		 mov	 eax, DWORD PTR fs:0
  00010	50		 push	 eax
  00011	51		 push	 ecx
  00012	a1 00 00 00 00	 mov	 eax, DWORD PTR ___security_cookie
  00017	33 c5		 xor	 eax, ebp
  00019	50		 push	 eax
  0001a	8d 45 f4	 lea	 eax, DWORD PTR __$EHRec$[ebp]
  0001d	64 a3 00 00 00
	00		 mov	 DWORD PTR fs:0, eax
  00023	89 4d f0	 mov	 DWORD PTR _this$[ebp], ecx
; File D:\Metin2 Server Files\mainline\SRC_2014\M2Data\include\boost\unordered\detail\implementation.hpp

; 3333 :         ~table() { delete_buckets(); }

  00026	83 65 fc 00	 and	 DWORD PTR __$EHRec$[ebp+8], 0
  0002a	8b 4d f0	 mov	 ecx, DWORD PTR _this$[ebp]
  0002d	e8 00 00 00 00	 call	 ?delete_buckets@?$table@U?$map@V?$allocator@U?$pair@$$CBKUItem@CEterFileDict@@@std@@@std@@KUItem@CEterFileDict@@U?$hash@K@boost@@U?$equal_to@K@2@@detail@unordered@boost@@@detail@unordered@boost@@QAEXXZ ; boost::unordered::detail::table<boost::unordered::detail::map<std::allocator<std::pair<unsigned long const ,CEterFileDict::Item> >,unsigned long,CEterFileDict::Item,boost::hash<unsigned long>,std::equal_to<unsigned long> > >::delete_buckets
  00032	83 4d fc ff	 or	 DWORD PTR __$EHRec$[ebp+8], -1
; File D:\Metin2 Server Files\mainline\SRC_2014\M2Data\include\boost\unordered\unordered_map.hpp

; 2124 :     }

  00036	8b 4d f4	 mov	 ecx, DWORD PTR __$EHRec$[ebp]
  00039	64 89 0d 00 00
	00 00		 mov	 DWORD PTR fs:0, ecx
  00040	59		 pop	 ecx
  00041	c9		 leave
  00042	c3		 ret	 0
  00043	cc		 int	 3
  00044	cc		 int	 3
  00045	cc		 int	 3
  00046	cc		 int	 3
  00047	cc		 int	 3
_TEXT	ENDS
;	COMDAT text$x
text$x	SEGMENT
__ehhandler$??1?$unordered_multimap@KUItem@CEterFileDict@@U?$hash@K@boost@@U?$equal_to@K@std@@V?$allocator@U?$pair@$$CBKUItem@CEterFileDict@@@std@@@6@@unordered@boost@@QAE@XZ:
  00000	90		 npad	 1
  00001	90		 npad	 1
  00002	8b 54 24 08	 mov	 edx, DWORD PTR [esp+8]
  00006	8d 42 0c	 lea	 eax, DWORD PTR [edx+12]
  00009	8b 4a f8	 mov	 ecx, DWORD PTR [edx-8]
  0000c	33 c8		 xor	 ecx, eax
  0000e	e8 00 00 00 00	 call	 @__security_check_cookie@4
  00013	b8 00 00 00 00	 mov	 eax, OFFSET __ehfuncinfo$??1?$unordered_multimap@KUItem@CEterFileDict@@U?$hash@K@boost@@U?$equal_to@K@std@@V?$allocator@U?$pair@$$CBKUItem@CEterFileDict@@@std@@@6@@unordered@boost@@QAE@XZ
  00018	e9 00 00 00 00	 jmp	 ___CxxFrameHandler3
text$x	ENDS
??1?$unordered_multimap@KUItem@CEterFileDict@@U?$hash@K@boost@@U?$equal_to@K@std@@V?$allocator@U?$pair@$$CBKUItem@CEterFileDict@@@std@@@6@@unordered@boost@@QAE@XZ ENDP ; boost::unordered::unordered_multimap<unsigned long,CEterFileDict::Item,boost::hash<unsigned long>,std::equal_to<unsigned long>,std::allocator<std::pair<unsigned long const ,CEterFileDict::Item> > >::~unordered_multimap<unsigned long,CEterFileDict::Item,boost::hash<unsigned long>,std::equal_to<unsigned long>,std::allocator<std::pair<unsigned long const ,CEterFileDict::Item> > >
; Function compile flags: /Odspy
; File D:\Metin2 Server Files\mainline\SRC_2014\M2Data\include\boost\unordered\unordered_map.hpp
;	COMDAT ??0?$unordered_multimap@KUItem@CEterFileDict@@U?$hash@K@boost@@U?$equal_to@K@std@@V?$allocator@U?$pair@$$CBKUItem@CEterFileDict@@@std@@@6@@unordered@boost@@QAE@XZ
_TEXT	SEGMENT
_this$ = -8						; size = 4
$T1 = -3						; size = 1
$T2 = -2						; size = 1
$T3 = -1						; size = 1
??0?$unordered_multimap@KUItem@CEterFileDict@@U?$hash@K@boost@@U?$equal_to@K@std@@V?$allocator@U?$pair@$$CBKUItem@CEterFileDict@@@std@@@6@@unordered@boost@@QAE@XZ PROC ; boost::unordered::unordered_multimap<unsigned long,CEterFileDict::Item,boost::hash<unsigned long>,std::equal_to<unsigned long>,std::allocator<std::pair<unsigned long const ,CEterFileDict::Item> > >::unordered_multimap<unsigned long,CEterFileDict::Item,boost::hash<unsigned long>,std::equal_to<unsigned long>,std::allocator<std::pair<unsigned long const ,CEterFileDict::Item> > >, COMDAT
; _this$ = ecx

; 1986 :     {

  00000	55		 push	 ebp
  00001	8b ec		 mov	 ebp, esp
  00003	51		 push	 ecx
  00004	51		 push	 ecx
  00005	89 4d f8	 mov	 DWORD PTR _this$[ebp], ecx

; 1984 :         : table_(boost::unordered::detail::default_bucket_count, hasher(),

  00008	8d 45 ff	 lea	 eax, DWORD PTR $T3[ebp]
  0000b	50		 push	 eax
  0000c	8d 45 fe	 lea	 eax, DWORD PTR $T2[ebp]
  0000f	50		 push	 eax
  00010	8d 45 fd	 lea	 eax, DWORD PTR $T1[ebp]
  00013	50		 push	 eax
  00014	6a 0b		 push	 11			; 0000000bH
  00016	8b 4d f8	 mov	 ecx, DWORD PTR _this$[ebp]
  00019	e8 00 00 00 00	 call	 ??0?$table@U?$map@V?$allocator@U?$pair@$$CBKUItem@CEterFileDict@@@std@@@std@@KUItem@CEterFileDict@@U?$hash@K@boost@@U?$equal_to@K@2@@detail@unordered@boost@@@detail@unordered@boost@@QAE@IABU?$hash@K@3@ABU?$equal_to@K@std@@ABV?$allocator@U?$ptr_node@U?$pair@$$CBKUItem@CEterFileDict@@@std@@@detail@unordered@boost@@@6@@Z ; boost::unordered::detail::table<boost::unordered::detail::map<std::allocator<std::pair<unsigned long const ,CEterFileDict::Item> >,unsigned long,CEterFileDict::Item,boost::hash<unsigned long>,std::equal_to<unsigned long> > >::table<boost::unordered::detail::map<std::allocator<std::pair<unsigned long const ,CEterFileDict::Item> >,unsigned long,CEterFileDict::Item,boost::hash<unsigned long>,std::equal_to<unsigned long> > >

; 1987 :     }

  0001e	8b 45 f8	 mov	 eax, DWORD PTR _this$[ebp]
  00021	c9		 leave
  00022	c3		 ret	 0
??0?$unordered_multimap@KUItem@CEterFileDict@@U?$hash@K@boost@@U?$equal_to@K@std@@V?$allocator@U?$pair@$$CBKUItem@CEterFileDict@@@std@@@6@@unordered@boost@@QAE@XZ ENDP ; boost::unordered::unordered_multimap<unsigned long,CEterFileDict::Item,boost::hash<unsigned long>,std::equal_to<unsigned long>,std::allocator<std::pair<unsigned long const ,CEterFileDict::Item> > >::unordered_multimap<unsigned long,CEterFileDict::Item,boost::hash<unsigned long>,std::equal_to<unsigned long>,std::allocator<std::pair<unsigned long const ,CEterFileDict::Item> > >
_TEXT	ENDS
; Function compile flags: /Odspy
; File D:\Metin2 Server Files\mainline\SRC_2014\M2Data\include\boost\unordered\detail\implementation.hpp
; File D:\Metin2 Server Files\mainline\SRC_2014\M2Data\include\boost\core\pointer_traits.hpp
; File D:\Metin2 Server Files\mainline\SRC_2014\M2Data\include\boost\unordered\detail\implementation.hpp
; File C:\Program Files (x86)\Microsoft Visual Studio\2019\Community\VC\Tools\MSVC\14.28.29333\include\xmemory
; File D:\Metin2 Server Files\mainline\SRC_2014\M2Data\include\boost\unordered\detail\implementation.hpp
;	COMDAT ?destroy_buckets@?$table@U?$map@V?$allocator@U?$pair@$$CBKUItem@CEterFileDict@@@std@@@std@@KUItem@CEterFileDict@@U?$hash@K@boost@@U?$equal_to@K@2@@detail@unordered@boost@@@detail@unordered@boost@@QAEXXZ
_TEXT	SEGMENT
$T1 = -24						; size = 4
__Ptr$ = -20						; size = 4
__Count$ = -16						; size = 4
_end$ = -12						; size = 4
_it$2 = -8						; size = 4
_this$ = -4						; size = 4
?destroy_buckets@?$table@U?$map@V?$allocator@U?$pair@$$CBKUItem@CEterFileDict@@@std@@@std@@KUItem@CEterFileDict@@U?$hash@K@boost@@U?$equal_to@K@2@@detail@unordered@boost@@@detail@unordered@boost@@QAEXXZ PROC ; boost::unordered::detail::table<boost::unordered::detail::map<std::allocator<std::pair<unsigned long const ,CEterFileDict::Item> >,unsigned long,CEterFileDict::Item,boost::hash<unsigned long>,std::equal_to<unsigned long> > >::destroy_buckets, COMDAT
; _this$ = ecx

; 3370 :         {

  00000	55		 push	 ebp
  00001	8b ec		 mov	 ebp, esp
  00003	83 ec 18	 sub	 esp, 24			; 00000018H
  00006	89 4d fc	 mov	 DWORD PTR _this$[ebp], ecx

; 3026 :           return buckets_ + static_cast<std::ptrdiff_t>(bucket_index);

  00009	8b 45 fc	 mov	 eax, DWORD PTR _this$[ebp]
  0000c	8b 40 04	 mov	 eax, DWORD PTR [eax+4]
  0000f	8b 4d fc	 mov	 ecx, DWORD PTR _this$[ebp]
  00012	8b 49 14	 mov	 ecx, DWORD PTR [ecx+20]
  00015	8d 44 81 04	 lea	 eax, DWORD PTR [ecx+eax*4+4]

; 3371 :           bucket_pointer end = get_bucket_pointer(bucket_count_ + 1);

  00019	89 45 f4	 mov	 DWORD PTR _end$[ebp], eax

; 3372 :           for (bucket_pointer it = buckets_; it != end; ++it) {

  0001c	8b 45 fc	 mov	 eax, DWORD PTR _this$[ebp]
  0001f	8b 40 14	 mov	 eax, DWORD PTR [eax+20]
  00022	89 45 f8	 mov	 DWORD PTR _it$2[ebp], eax
  00025	eb 09		 jmp	 SHORT $LN4@destroy_bu
$LN2@destroy_bu:
  00027	8b 45 f8	 mov	 eax, DWORD PTR _it$2[ebp]
  0002a	83 c0 04	 add	 eax, 4
  0002d	89 45 f8	 mov	 DWORD PTR _it$2[ebp], eax
$LN4@destroy_bu:
  00030	8b 45 f8	 mov	 eax, DWORD PTR _it$2[ebp]
  00033	3b 45 f4	 cmp	 eax, DWORD PTR _end$[ebp]
  00036	74 08		 je	 SHORT $LN13@destroy_bu
; File D:\Metin2 Server Files\mainline\SRC_2014\M2Data\include\boost\core\pointer_traits.hpp

; 186  :     return v;

  00038	8b 45 f8	 mov	 eax, DWORD PTR _it$2[ebp]
  0003b	89 45 e8	 mov	 DWORD PTR $T1[ebp], eax
; File D:\Metin2 Server Files\mainline\SRC_2014\M2Data\include\boost\unordered\detail\implementation.hpp

; 3374 :           }

  0003e	eb e7		 jmp	 SHORT $LN2@destroy_bu
$LN13@destroy_bu:

; 3375 : 
; 3376 :           bucket_allocator_traits::deallocate(

  00040	8b 45 fc	 mov	 eax, DWORD PTR _this$[ebp]
  00043	8b 40 04	 mov	 eax, DWORD PTR [eax+4]
  00046	40		 inc	 eax
  00047	89 45 f0	 mov	 DWORD PTR __Count$[ebp], eax
  0004a	8b 45 fc	 mov	 eax, DWORD PTR _this$[ebp]
  0004d	8b 40 14	 mov	 eax, DWORD PTR [eax+20]
  00050	89 45 ec	 mov	 DWORD PTR __Ptr$[ebp], eax
; File C:\Program Files (x86)\Microsoft Visual Studio\2019\Community\VC\Tools\MSVC\14.28.29333\include\xmemory

; 696  :         _Deallocate<_New_alignof<value_type>>(_Ptr, sizeof(value_type) * _Count);

  00053	8b 45 f0	 mov	 eax, DWORD PTR __Count$[ebp]
  00056	c1 e0 02	 shl	 eax, 2
  00059	50		 push	 eax
  0005a	ff 75 ec	 push	 DWORD PTR __Ptr$[ebp]
  0005d	e8 00 00 00 00	 call	 ??$_Deallocate@$07$0A@@std@@YAXPAXI@Z ; std::_Deallocate<8,0>
  00062	59		 pop	 ecx
  00063	59		 pop	 ecx
; File D:\Metin2 Server Files\mainline\SRC_2014\M2Data\include\boost\unordered\detail\implementation.hpp

; 3378 :         }

  00064	c9		 leave
  00065	c3		 ret	 0
?destroy_buckets@?$table@U?$map@V?$allocator@U?$pair@$$CBKUItem@CEterFileDict@@@std@@@std@@KUItem@CEterFileDict@@U?$hash@K@boost@@U?$equal_to@K@2@@detail@unordered@boost@@@detail@unordered@boost@@QAEXXZ ENDP ; boost::unordered::detail::table<boost::unordered::detail::map<std::allocator<std::pair<unsigned long const ,CEterFileDict::Item> >,unsigned long,CEterFileDict::Item,boost::hash<unsigned long>,std::equal_to<unsigned long> > >::destroy_buckets
_TEXT	ENDS
; Function compile flags: /Odspy
; File D:\Metin2 Server Files\mainline\SRC_2014\M2Data\include\boost\unordered\detail\implementation.hpp
; File D:\Metin2 Server Files\mainline\SRC_2014\M2Data\include\boost\core\pointer_traits.hpp
; File D:\Metin2 Server Files\mainline\SRC_2014\M2Data\include\boost\unordered\detail\implementation.hpp
; File C:\Program Files (x86)\Microsoft Visual Studio\2019\Community\VC\Tools\MSVC\14.28.29333\include\xmemory
; File D:\Metin2 Server Files\mainline\SRC_2014\M2Data\include\boost\unordered\detail\implementation.hpp
;	COMDAT ?delete_buckets@?$table@U?$map@V?$allocator@U?$pair@$$CBKUItem@CEterFileDict@@@std@@@std@@KUItem@CEterFileDict@@U?$hash@K@boost@@U?$equal_to@K@2@@detail@unordered@boost@@@detail@unordered@boost@@QAEXXZ
_TEXT	SEGMENT
$T1 = -28						; size = 4
_next$2 = -24						; size = 4
_next$3 = -20						; size = 4
$T4 = -16						; size = 4
_this$ = -12						; size = 4
_n$5 = -8						; size = 4
_this$ = -4						; size = 4
?delete_buckets@?$table@U?$map@V?$allocator@U?$pair@$$CBKUItem@CEterFileDict@@@std@@@std@@KUItem@CEterFileDict@@U?$hash@K@boost@@U?$equal_to@K@2@@detail@unordered@boost@@@detail@unordered@boost@@QAEXXZ PROC ; boost::unordered::detail::table<boost::unordered::detail::map<std::allocator<std::pair<unsigned long const ,CEterFileDict::Item> >,unsigned long,CEterFileDict::Item,boost::hash<unsigned long>,std::equal_to<unsigned long> > >::delete_buckets, COMDAT
; _this$ = ecx

; 3344 :         {

  00000	55		 push	 ebp
  00001	8b ec		 mov	 ebp, esp
  00003	83 ec 1c	 sub	 esp, 28			; 0000001cH
  00006	89 4d fc	 mov	 DWORD PTR _this$[ebp], ecx

; 3345 :           if (buckets_) {

  00009	8b 45 fc	 mov	 eax, DWORD PTR _this$[ebp]
  0000c	83 78 14 00	 cmp	 DWORD PTR [eax+20], 0
  00010	0f 84 91 00 00
	00		 je	 $LN1@delete_buc

; 3346 :             node_pointer n = static_cast<node_pointer>(

  00016	8b 45 fc	 mov	 eax, DWORD PTR _this$[ebp]
  00019	8b 40 04	 mov	 eax, DWORD PTR [eax+4]
  0001c	8b 4d fc	 mov	 ecx, DWORD PTR _this$[ebp]
  0001f	8b 49 14	 mov	 ecx, DWORD PTR [ecx+20]
  00022	8b 04 81	 mov	 eax, DWORD PTR [ecx+eax*4]
  00025	89 45 f8	 mov	 DWORD PTR _n$5[ebp], eax

; 3347 :               get_bucket_pointer(bucket_count_)->next_);
; 3348 : 
; 3349 :             if (bucket::extra_node) {

  00028	33 c0		 xor	 eax, eax
  0002a	74 3d		 je	 SHORT $LN2@delete_buc

; 2964 :           return static_cast<node_pointer>(n->next_);

  0002c	8b 45 f8	 mov	 eax, DWORD PTR _n$5[ebp]
  0002f	8b 00		 mov	 eax, DWORD PTR [eax]
  00031	89 45 ec	 mov	 DWORD PTR _next$3[ebp], eax
; File D:\Metin2 Server Files\mainline\SRC_2014\M2Data\include\boost\core\pointer_traits.hpp

; 186  :     return v;

  00034	8b 45 f8	 mov	 eax, DWORD PTR _n$5[ebp]
  00037	89 45 e4	 mov	 DWORD PTR $T1[ebp], eax
; File D:\Metin2 Server Files\mainline\SRC_2014\M2Data\include\boost\unordered\detail\implementation.hpp

; 3014 :         node_allocator& node_alloc() { return allocators_.second(); }

  0003a	8b 45 fc	 mov	 eax, DWORD PTR _this$[ebp]
  0003d	83 c0 03	 add	 eax, 3
  00040	89 45 f4	 mov	 DWORD PTR _this$[ebp], eax

; 430  :         second_type& second() { return static_cast<base2*>(this)->get(); }

  00043	74 09		 je	 SHORT $LN20@delete_buc
  00045	8b 45 f4	 mov	 eax, DWORD PTR _this$[ebp]
  00048	40		 inc	 eax
  00049	89 45 f0	 mov	 DWORD PTR $T4[ebp], eax
  0004c	eb 04		 jmp	 SHORT $LN16@delete_buc
$LN20@delete_buc:
  0004e	83 65 f0 00	 and	 DWORD PTR $T4[ebp], 0
$LN16@delete_buc:
; File C:\Program Files (x86)\Microsoft Visual Studio\2019\Community\VC\Tools\MSVC\14.28.29333\include\xmemory

; 696  :         _Deallocate<_New_alignof<value_type>>(_Ptr, sizeof(value_type) * _Count);

  00052	33 c0		 xor	 eax, eax
  00054	40		 inc	 eax
  00055	6b c0 14	 imul	 eax, eax, 20
  00058	50		 push	 eax
  00059	ff 75 f8	 push	 DWORD PTR _n$5[ebp]
  0005c	e8 00 00 00 00	 call	 ??$_Deallocate@$07$0A@@std@@YAXPAXI@Z ; std::_Deallocate<8,0>
  00061	59		 pop	 ecx
  00062	59		 pop	 ecx
; File D:\Metin2 Server Files\mainline\SRC_2014\M2Data\include\boost\unordered\detail\implementation.hpp

; 3353 :               n = next;

  00063	8b 45 ec	 mov	 eax, DWORD PTR _next$3[ebp]
  00066	89 45 f8	 mov	 DWORD PTR _n$5[ebp], eax
$LN2@delete_buc:

; 3354 :             }
; 3355 : 
; 3356 :             while (n) {

  00069	83 7d f8 00	 cmp	 DWORD PTR _n$5[ebp], 0
  0006d	74 1b		 je	 SHORT $LN3@delete_buc

; 2964 :           return static_cast<node_pointer>(n->next_);

  0006f	8b 45 f8	 mov	 eax, DWORD PTR _n$5[ebp]
  00072	8b 00		 mov	 eax, DWORD PTR [eax]
  00074	89 45 e8	 mov	 DWORD PTR _next$2[ebp], eax

; 3357 :               node_pointer next = next_node(n);
; 3358 :               destroy_node(n);

  00077	ff 75 f8	 push	 DWORD PTR _n$5[ebp]
  0007a	8b 4d fc	 mov	 ecx, DWORD PTR _this$[ebp]
  0007d	e8 00 00 00 00	 call	 ?destroy_node@?$table@U?$map@V?$allocator@U?$pair@$$CBKUItem@CEterFileDict@@@std@@@std@@KUItem@CEterFileDict@@U?$hash@K@boost@@U?$equal_to@K@2@@detail@unordered@boost@@@detail@unordered@boost@@QAEXPAU?$ptr_node@U?$pair@$$CBKUItem@CEterFileDict@@@std@@@234@@Z ; boost::unordered::detail::table<boost::unordered::detail::map<std::allocator<std::pair<unsigned long const ,CEterFileDict::Item> >,unsigned long,CEterFileDict::Item,boost::hash<unsigned long>,std::equal_to<unsigned long> > >::destroy_node

; 3359 :               n = next;

  00082	8b 45 e8	 mov	 eax, DWORD PTR _next$2[ebp]
  00085	89 45 f8	 mov	 DWORD PTR _n$5[ebp], eax

; 3360 :             }

  00088	eb df		 jmp	 SHORT $LN2@delete_buc
$LN3@delete_buc:

; 3361 : 
; 3362 :             destroy_buckets();

  0008a	8b 4d fc	 mov	 ecx, DWORD PTR _this$[ebp]
  0008d	e8 00 00 00 00	 call	 ?destroy_buckets@?$table@U?$map@V?$allocator@U?$pair@$$CBKUItem@CEterFileDict@@@std@@@std@@KUItem@CEterFileDict@@U?$hash@K@boost@@U?$equal_to@K@2@@detail@unordered@boost@@@detail@unordered@boost@@QAEXXZ ; boost::unordered::detail::table<boost::unordered::detail::map<std::allocator<std::pair<unsigned long const ,CEterFileDict::Item> >,unsigned long,CEterFileDict::Item,boost::hash<unsigned long>,std::equal_to<unsigned long> > >::destroy_buckets

; 3363 :             buckets_ = bucket_pointer();

  00092	8b 45 fc	 mov	 eax, DWORD PTR _this$[ebp]
  00095	83 60 14 00	 and	 DWORD PTR [eax+20], 0

; 3364 :             max_load_ = 0;

  00099	8b 45 fc	 mov	 eax, DWORD PTR _this$[ebp]
  0009c	83 60 10 00	 and	 DWORD PTR [eax+16], 0

; 3365 :             size_ = 0;

  000a0	8b 45 fc	 mov	 eax, DWORD PTR _this$[ebp]
  000a3	83 60 08 00	 and	 DWORD PTR [eax+8], 0
$LN1@delete_buc:

; 3366 :           }
; 3367 :         }

  000a7	c9		 leave
  000a8	c3		 ret	 0
?delete_buckets@?$table@U?$map@V?$allocator@U?$pair@$$CBKUItem@CEterFileDict@@@std@@@std@@KUItem@CEterFileDict@@U?$hash@K@boost@@U?$equal_to@K@2@@detail@unordered@boost@@@detail@unordered@boost@@QAEXXZ ENDP ; boost::unordered::detail::table<boost::unordered::detail::map<std::allocator<std::pair<unsigned long const ,CEterFileDict::Item> >,unsigned long,CEterFileDict::Item,boost::hash<unsigned long>,std::equal_to<unsigned long> > >::delete_buckets
_TEXT	ENDS
; Function compile flags: /Odspy
; File D:\Metin2 Server Files\mainline\SRC_2014\M2Data\include\boost\unordered\detail\implementation.hpp
; File D:\Metin2 Server Files\mainline\SRC_2014\M2Data\include\boost\core\pointer_traits.hpp
; File D:\Metin2 Server Files\mainline\SRC_2014\M2Data\include\boost\unordered\detail\implementation.hpp
; File C:\Program Files (x86)\Microsoft Visual Studio\2019\Community\VC\Tools\MSVC\14.28.29333\include\xmemory
; File D:\Metin2 Server Files\mainline\SRC_2014\M2Data\include\boost\unordered\detail\implementation.hpp
;	COMDAT ?destroy_node@?$table@U?$map@V?$allocator@U?$pair@$$CBKUItem@CEterFileDict@@@std@@@std@@KUItem@CEterFileDict@@U?$hash@K@boost@@U?$equal_to@K@2@@detail@unordered@boost@@@detail@unordered@boost@@QAEXPAU?$ptr_node@U?$pair@$$CBKUItem@CEterFileDict@@@std@@@234@@Z
_TEXT	SEGMENT
$T1 = -24						; size = 4
$T2 = -20						; size = 4
$T3 = -16						; size = 4
_this$ = -12						; size = 4
_this$ = -8						; size = 4
_this$ = -4						; size = 4
_n$ = 8							; size = 4
?destroy_node@?$table@U?$map@V?$allocator@U?$pair@$$CBKUItem@CEterFileDict@@@std@@@std@@KUItem@CEterFileDict@@U?$hash@K@boost@@U?$equal_to@K@2@@detail@unordered@boost@@@detail@unordered@boost@@QAEXPAU?$ptr_node@U?$pair@$$CBKUItem@CEterFileDict@@@std@@@234@@Z PROC ; boost::unordered::detail::table<boost::unordered::detail::map<std::allocator<std::pair<unsigned long const ,CEterFileDict::Item> >,unsigned long,CEterFileDict::Item,boost::hash<unsigned long>,std::equal_to<unsigned long> > >::destroy_node, COMDAT
; _this$ = ecx

; 3336 :         {

  00000	55		 push	 ebp
  00001	8b ec		 mov	 ebp, esp
  00003	83 ec 18	 sub	 esp, 24			; 00000018H
  00006	89 4d f8	 mov	 DWORD PTR _this$[ebp], ecx

; 3014 :         node_allocator& node_alloc() { return allocators_.second(); }

  00009	8b 45 f8	 mov	 eax, DWORD PTR _this$[ebp]
  0000c	83 c0 03	 add	 eax, 3
  0000f	89 45 fc	 mov	 DWORD PTR _this$[ebp], eax

; 430  :         second_type& second() { return static_cast<base2*>(this)->get(); }

  00012	74 09		 je	 SHORT $LN11@destroy_no
  00014	8b 45 fc	 mov	 eax, DWORD PTR _this$[ebp]
  00017	40		 inc	 eax
  00018	89 45 f0	 mov	 DWORD PTR $T3[ebp], eax
  0001b	eb 04		 jmp	 SHORT $LN15@destroy_no
$LN11@destroy_no:
  0001d	83 65 f0 00	 and	 DWORD PTR $T3[ebp], 0
$LN15@destroy_no:
; File D:\Metin2 Server Files\mainline\SRC_2014\M2Data\include\boost\core\pointer_traits.hpp

; 186  :     return v;

  00021	8b 45 08	 mov	 eax, DWORD PTR _n$[ebp]
  00024	89 45 e8	 mov	 DWORD PTR $T1[ebp], eax
; File D:\Metin2 Server Files\mainline\SRC_2014\M2Data\include\boost\unordered\detail\implementation.hpp

; 3014 :         node_allocator& node_alloc() { return allocators_.second(); }

  00027	8b 45 f8	 mov	 eax, DWORD PTR _this$[ebp]
  0002a	83 c0 03	 add	 eax, 3
  0002d	89 45 f4	 mov	 DWORD PTR _this$[ebp], eax

; 430  :         second_type& second() { return static_cast<base2*>(this)->get(); }

  00030	74 09		 je	 SHORT $LN26@destroy_no
  00032	8b 45 f4	 mov	 eax, DWORD PTR _this$[ebp]
  00035	40		 inc	 eax
  00036	89 45 ec	 mov	 DWORD PTR $T2[ebp], eax
  00039	eb 04		 jmp	 SHORT $LN22@destroy_no
$LN26@destroy_no:
  0003b	83 65 ec 00	 and	 DWORD PTR $T2[ebp], 0
$LN22@destroy_no:
; File C:\Program Files (x86)\Microsoft Visual Studio\2019\Community\VC\Tools\MSVC\14.28.29333\include\xmemory

; 696  :         _Deallocate<_New_alignof<value_type>>(_Ptr, sizeof(value_type) * _Count);

  0003f	33 c0		 xor	 eax, eax
  00041	40		 inc	 eax
  00042	6b c0 14	 imul	 eax, eax, 20
  00045	50		 push	 eax
  00046	ff 75 08	 push	 DWORD PTR _n$[ebp]
  00049	e8 00 00 00 00	 call	 ??$_Deallocate@$07$0A@@std@@YAXPAXI@Z ; std::_Deallocate<8,0>
  0004e	59		 pop	 ecx
  0004f	59		 pop	 ecx
; File D:\Metin2 Server Files\mainline\SRC_2014\M2Data\include\boost\unordered\detail\implementation.hpp

; 3341 :         }

  00050	c9		 leave
  00051	c2 04 00	 ret	 4
?destroy_node@?$table@U?$map@V?$allocator@U?$pair@$$CBKUItem@CEterFileDict@@@std@@@std@@KUItem@CEterFileDict@@U?$hash@K@boost@@U?$equal_to@K@2@@detail@unordered@boost@@@detail@unordered@boost@@QAEXPAU?$ptr_node@U?$pair@$$CBKUItem@CEterFileDict@@@std@@@234@@Z ENDP ; boost::unordered::detail::table<boost::unordered::detail::map<std::allocator<std::pair<unsigned long const ,CEterFileDict::Item> >,unsigned long,CEterFileDict::Item,boost::hash<unsigned long>,std::equal_to<unsigned long> > >::destroy_node
_TEXT	ENDS
; Function compile flags: /Odspy
; File D:\Metin2 Server Files\mainline\SRC_2014\M2Data\include\boost\unordered\detail\implementation.hpp
; File C:\Program Files (x86)\Microsoft Visual Studio\2019\Community\VC\Tools\MSVC\14.28.29333\include\vcruntime_new.h
; File D:\Metin2 Server Files\mainline\SRC_2014\M2Data\include\boost\unordered\detail\implementation.hpp
;	COMDAT ??0?$table@U?$map@V?$allocator@U?$pair@$$CBKUItem@CEterFileDict@@@std@@@std@@KUItem@CEterFileDict@@U?$hash@K@boost@@U?$equal_to@K@2@@detail@unordered@boost@@@detail@unordered@boost@@QAE@IABU?$hash@K@3@ABU?$equal_to@K@std@@ABV?$allocator@U?$ptr_node@U?$pair@$$CBKUItem@CEterFileDict@@@std@@@detail@unordered@boost@@@6@@Z
_TEXT	SEGMENT
$T2 = -24						; size = 4
_this$ = -20						; size = 4
_which$ = -16						; size = 1
__$EHRec$ = -12						; size = 12
_num_buckets$ = 8					; size = 4
_hf$ = 12						; size = 4
_eq$ = 16						; size = 4
_a$ = 20						; size = 4
??0?$table@U?$map@V?$allocator@U?$pair@$$CBKUItem@CEterFileDict@@@std@@@std@@KUItem@CEterFileDict@@U?$hash@K@boost@@U?$equal_to@K@2@@detail@unordered@boost@@@detail@unordered@boost@@QAE@IABU?$hash@K@3@ABU?$equal_to@K@std@@ABV?$allocator@U?$ptr_node@U?$pair@$$CBKUItem@CEterFileDict@@@std@@@detail@unordered@boost@@@6@@Z PROC ; boost::unordered::detail::table<boost::unordered::detail::map<std::allocator<std::pair<unsigned long const ,CEterFileDict::Item> >,unsigned long,CEterFileDict::Item,boost::hash<unsigned long>,std::equal_to<unsigned long> > >::table<boost::unordered::detail::map<std::allocator<std::pair<unsigned long const ,CEterFileDict::Item> >,unsigned long,CEterFileDict::Item,boost::hash<unsigned long>,std::equal_to<unsigned long> > >, COMDAT
; _this$ = ecx

; 3123 :         {

  00000	55		 push	 ebp
  00001	8b ec		 mov	 ebp, esp
  00003	6a ff		 push	 -1
  00005	68 00 00 00 00	 push	 __ehhandler$??0?$table@U?$map@V?$allocator@U?$pair@$$CBKUItem@CEterFileDict@@@std@@@std@@KUItem@CEterFileDict@@U?$hash@K@boost@@U?$equal_to@K@2@@detail@unordered@boost@@@detail@unordered@boost@@QAE@IABU?$hash@K@3@ABU?$equal_to@K@std@@ABV?$allocator@U?$ptr_node@U?$pair@$$CBKUItem@CEterFileDict@@@std@@@detail@unordered@boost@@@6@@Z
  0000a	64 a1 00 00 00
	00		 mov	 eax, DWORD PTR fs:0
  00010	50		 push	 eax
  00011	83 ec 0c	 sub	 esp, 12			; 0000000cH
  00014	a1 00 00 00 00	 mov	 eax, DWORD PTR ___security_cookie
  00019	33 c5		 xor	 eax, ebp
  0001b	50		 push	 eax
  0001c	8d 45 f4	 lea	 eax, DWORD PTR __$EHRec$[ebp]
  0001f	64 a3 00 00 00
	00		 mov	 DWORD PTR fs:0, eax
  00025	89 4d ec	 mov	 DWORD PTR _this$[ebp], ecx

; 2761 :         functions(H const& hf, P const& eq) : current_(0)

  00028	8b 45 ec	 mov	 eax, DWORD PTR _this$[ebp]
  0002b	c6 00 00	 mov	 BYTE PTR [eax], 0

; 2762 :         {
; 2763 :           construct_functions(current_, hf, eq);

  0002e	8b 45 ec	 mov	 eax, DWORD PTR _this$[ebp]
  00031	8a 00		 mov	 al, BYTE PTR [eax]
  00033	88 45 f0	 mov	 BYTE PTR _which$[ebp], al

; 2827 :           new ((void*)&funcs_[which]) function_pair(hf, eq);

  00036	0f b6 45 f0	 movzx	 eax, BYTE PTR _which$[ebp]
  0003a	8b 4d ec	 mov	 ecx, DWORD PTR _this$[ebp]
  0003d	8d 44 01 01	 lea	 eax, DWORD PTR [ecx+eax+1]
; File C:\Program Files (x86)\Microsoft Visual Studio\2019\Community\VC\Tools\MSVC\14.28.29333\include\vcruntime_new.h

; 169  :         return _Where;

  00041	89 45 e8	 mov	 DWORD PTR $T2[ebp], eax
; File D:\Metin2 Server Files\mainline\SRC_2014\M2Data\include\boost\unordered\detail\implementation.hpp

; 3120 :             : functions(hf, eq), allocators_(a, a),

  00044	83 65 fc 00	 and	 DWORD PTR __$EHRec$[ebp+8], 0

; 2609 :           return boost::unordered::detail::next_prime(min);

  00048	ff 75 08	 push	 DWORD PTR _num_buckets$[ebp]
  0004b	e8 00 00 00 00	 call	 ?next_prime@detail@unordered@boost@@YAII@Z ; boost::unordered::detail::next_prime
  00050	59		 pop	 ecx

; 3121 :               bucket_count_(policy::new_bucket_count(num_buckets)), size_(0),

  00051	8b 4d ec	 mov	 ecx, DWORD PTR _this$[ebp]
  00054	89 41 04	 mov	 DWORD PTR [ecx+4], eax
  00057	8b 45 ec	 mov	 eax, DWORD PTR _this$[ebp]
  0005a	83 60 08 00	 and	 DWORD PTR [eax+8], 0

; 3122 :               mlf_(1.0f), max_load_(0), buckets_()

  0005e	8b 45 ec	 mov	 eax, DWORD PTR _this$[ebp]
  00061	f3 0f 10 05 00
	00 00 00	 movss	 xmm0, DWORD PTR __real@3f800000
  00069	f3 0f 11 40 0c	 movss	 DWORD PTR [eax+12], xmm0
  0006e	8b 45 ec	 mov	 eax, DWORD PTR _this$[ebp]
  00071	83 60 10 00	 and	 DWORD PTR [eax+16], 0
  00075	8b 45 ec	 mov	 eax, DWORD PTR _this$[ebp]
  00078	83 60 14 00	 and	 DWORD PTR [eax+20], 0

; 3124 :         }

  0007c	83 4d fc ff	 or	 DWORD PTR __$EHRec$[ebp+8], -1
  00080	8b 45 ec	 mov	 eax, DWORD PTR _this$[ebp]
  00083	8b 4d f4	 mov	 ecx, DWORD PTR __$EHRec$[ebp]
  00086	64 89 0d 00 00
	00 00		 mov	 DWORD PTR fs:0, ecx
  0008d	59		 pop	 ecx
  0008e	c9		 leave
  0008f	c2 10 00	 ret	 16			; 00000010H
_TEXT	ENDS
;	COMDAT text$x
text$x	SEGMENT
__unwindfunclet$??0?$table@U?$map@V?$allocator@U?$pair@$$CBKUItem@CEterFileDict@@@std@@@std@@KUItem@CEterFileDict@@U?$hash@K@boost@@U?$equal_to@K@2@@detail@unordered@boost@@@detail@unordered@boost@@QAE@IABU?$hash@K@3@ABU?$equal_to@K@std@@ABV?$allocator@U?$ptr_node@U?$pair@$$CBKUItem@CEterFileDict@@@std@@@detail@unordered@boost@@@6@@Z$0:
  00000	8b 4d ec	 mov	 ecx, DWORD PTR _this$[ebp]
  00003	e9 00 00 00 00	 jmp	 ??1?$functions@U?$hash@K@boost@@U?$equal_to@K@std@@@detail@unordered@boost@@QAE@XZ ; boost::unordered::detail::functions<boost::hash<unsigned long>,std::equal_to<unsigned long> >::~functions<boost::hash<unsigned long>,std::equal_to<unsigned long> >
  00008	cc		 int	 3
  00009	cc		 int	 3
  0000a	cc		 int	 3
  0000b	cc		 int	 3
  0000c	cc		 int	 3
__ehhandler$??0?$table@U?$map@V?$allocator@U?$pair@$$CBKUItem@CEterFileDict@@@std@@@std@@KUItem@CEterFileDict@@U?$hash@K@boost@@U?$equal_to@K@2@@detail@unordered@boost@@@detail@unordered@boost@@QAE@IABU?$hash@K@3@ABU?$equal_to@K@std@@ABV?$allocator@U?$ptr_node@U?$pair@$$CBKUItem@CEterFileDict@@@std@@@detail@unordered@boost@@@6@@Z:
  0000d	90		 npad	 1
  0000e	90		 npad	 1
  0000f	8b 54 24 08	 mov	 edx, DWORD PTR [esp+8]
  00013	8d 42 0c	 lea	 eax, DWORD PTR [edx+12]
  00016	8b 4a f0	 mov	 ecx, DWORD PTR [edx-16]
  00019	33 c8		 xor	 ecx, eax
  0001b	e8 00 00 00 00	 call	 @__security_check_cookie@4
  00020	b8 00 00 00 00	 mov	 eax, OFFSET __ehfuncinfo$??0?$table@U?$map@V?$allocator@U?$pair@$$CBKUItem@CEterFileDict@@@std@@@std@@KUItem@CEterFileDict@@U?$hash@K@boost@@U?$equal_to@K@2@@detail@unordered@boost@@@detail@unordered@boost@@QAE@IABU?$hash@K@3@ABU?$equal_to@K@std@@ABV?$allocator@U?$ptr_node@U?$pair@$$CBKUItem@CEterFileDict@@@std@@@detail@unordered@boost@@@6@@Z
  00025	e9 00 00 00 00	 jmp	 ___CxxFrameHandler3
text$x	ENDS
??0?$table@U?$map@V?$allocator@U?$pair@$$CBKUItem@CEterFileDict@@@std@@@std@@KUItem@CEterFileDict@@U?$hash@K@boost@@U?$equal_to@K@2@@detail@unordered@boost@@@detail@unordered@boost@@QAE@IABU?$hash@K@3@ABU?$equal_to@K@std@@ABV?$allocator@U?$ptr_node@U?$pair@$$CBKUItem@CEterFileDict@@@std@@@detail@unordered@boost@@@6@@Z ENDP ; boost::unordered::detail::table<boost::unordered::detail::map<std::allocator<std::pair<unsigned long const ,CEterFileDict::Item> >,unsigned long,CEterFileDict::Item,boost::hash<unsigned long>,std::equal_to<unsigned long> > >::table<boost::unordered::detail::map<std::allocator<std::pair<unsigned long const ,CEterFileDict::Item> >,unsigned long,CEterFileDict::Item,boost::hash<unsigned long>,std::equal_to<unsigned long> > >
; Function compile flags: /Odspy
; File D:\Metin2 Server Files\mainline\SRC_2014\M2Data\include\boost\unordered\detail\implementation.hpp
;	COMDAT ?key_eq@?$functions@U?$hash@K@boost@@U?$equal_to@K@std@@@detail@unordered@boost@@QBEABU?$equal_to@K@std@@XZ
_TEXT	SEGMENT
$T1 = -12						; size = 4
$T2 = -8						; size = 4
_this$ = -4						; size = 4
?key_eq@?$functions@U?$hash@K@boost@@U?$equal_to@K@std@@@detail@unordered@boost@@QBEABU?$equal_to@K@std@@XZ PROC ; boost::unordered::detail::functions<boost::hash<unsigned long>,std::equal_to<unsigned long> >::key_eq, COMDAT
; _this$ = ecx

; 2787 :         P const& key_eq() const { return current_functions().second(); }

  00000	55		 push	 ebp
  00001	8b ec		 mov	 ebp, esp
  00003	83 ec 0c	 sub	 esp, 12			; 0000000cH
  00006	89 4d fc	 mov	 DWORD PTR _this$[ebp], ecx

; 2791 :           return *static_cast<function_pair const*>(

  00009	8b 45 fc	 mov	 eax, DWORD PTR _this$[ebp]
  0000c	0f b6 00	 movzx	 eax, BYTE PTR [eax]
  0000f	83 e0 01	 and	 eax, 1
  00012	8b 4d fc	 mov	 ecx, DWORD PTR _this$[ebp]
  00015	8d 44 01 01	 lea	 eax, DWORD PTR [ecx+eax+1]
  00019	89 45 f8	 mov	 DWORD PTR $T2[ebp], eax

; 434  :           return static_cast<base2 const*>(this)->get();

  0001c	83 7d f8 00	 cmp	 DWORD PTR $T2[ebp], 0
  00020	74 09		 je	 SHORT $LN9@key_eq
  00022	8b 45 f8	 mov	 eax, DWORD PTR $T2[ebp]
  00025	40		 inc	 eax
  00026	89 45 f4	 mov	 DWORD PTR $T1[ebp], eax
  00029	eb 04		 jmp	 SHORT $LN7@key_eq
$LN9@key_eq:
  0002b	83 65 f4 00	 and	 DWORD PTR $T1[ebp], 0
$LN7@key_eq:

; 2787 :         P const& key_eq() const { return current_functions().second(); }

  0002f	8b 45 f4	 mov	 eax, DWORD PTR $T1[ebp]
  00032	c9		 leave
  00033	c3		 ret	 0
?key_eq@?$functions@U?$hash@K@boost@@U?$equal_to@K@std@@@detail@unordered@boost@@QBEABU?$equal_to@K@std@@XZ ENDP ; boost::unordered::detail::functions<boost::hash<unsigned long>,std::equal_to<unsigned long> >::key_eq
_TEXT	ENDS
; Function compile flags: /Odspy
; File D:\Metin2 Server Files\mainline\SRC_2014\M2Data\include\boost\unordered\detail\implementation.hpp
;	COMDAT ??1?$functions@U?$hash@K@boost@@U?$equal_to@K@std@@@detail@unordered@boost@@QAE@XZ
_TEXT	SEGMENT
_this$ = -4						; size = 4
??1?$functions@U?$hash@K@boost@@U?$equal_to@K@std@@@detail@unordered@boost@@QAE@XZ PROC ; boost::unordered::detail::functions<boost::hash<unsigned long>,std::equal_to<unsigned long> >::~functions<boost::hash<unsigned long>,std::equal_to<unsigned long> >, COMDAT
; _this$ = ecx

; 2780 :         {

  00000	55		 push	 ebp
  00001	8b ec		 mov	 ebp, esp
  00003	51		 push	 ecx
  00004	89 4d fc	 mov	 DWORD PTR _this$[ebp], ecx

; 2781 :           BOOST_ASSERT(!(current_ & 2));
; 2782 :           destroy_functions(current_);
; 2783 :         }

  00007	c9		 leave
  00008	c3		 ret	 0
??1?$functions@U?$hash@K@boost@@U?$equal_to@K@std@@@detail@unordered@boost@@QAE@XZ ENDP ; boost::unordered::detail::functions<boost::hash<unsigned long>,std::equal_to<unsigned long> >::~functions<boost::hash<unsigned long>,std::equal_to<unsigned long> >
_TEXT	ENDS
; Function compile flags: /Odspy
; File D:\Metin2 Server Files\mainline\SRC_2014\Metin2Client\eterBase\Stl.h
; File C:\Program Files (x86)\Microsoft Visual Studio\2019\Community\VC\Tools\MSVC\14.28.29333\include\xstring
; File D:\Metin2 Server Files\mainline\SRC_2014\Metin2Client\eterBase\Stl.h
;	COMDAT ?GetHash@stringhash@@QBEIABV?$basic_string@DU?$char_traits@D@std@@V?$allocator@D@2@@std@@@Z
_TEXT	SEGMENT
_this$ = -20						; size = 4
_end$ = -16						; size = 4
$T1 = -12						; size = 4
_h$ = -8						; size = 4
_s$ = -4						; size = 4
_str$ = 8						; size = 4
?GetHash@stringhash@@QBEIABV?$basic_string@DU?$char_traits@D@std@@V?$allocator@D@2@@std@@@Z PROC ; stringhash::GetHash, COMDAT
; _this$ = ecx

; 476  : 	{

  00000	55		 push	 ebp
  00001	8b ec		 mov	 ebp, esp
  00003	83 ec 14	 sub	 esp, 20			; 00000014H
  00006	89 4d ec	 mov	 DWORD PTR _this$[ebp], ecx
; File C:\Program Files (x86)\Microsoft Visual Studio\2019\Community\VC\Tools\MSVC\14.28.29333\include\xstring

; 3752 :         return _Mypair._Myval2._Myptr();

  00009	8b 4d 08	 mov	 ecx, DWORD PTR _str$[ebp]
  0000c	e8 00 00 00 00	 call	 ?_Myptr@?$_String_val@U?$_Simple_types@D@std@@@std@@QBEPBDXZ ; std::_String_val<std::_Simple_types<char> >::_Myptr
  00011	89 45 fc	 mov	 DWORD PTR _s$[ebp], eax

; 3770 :         return _Mypair._Myval2._Mysize;

  00014	8b 45 08	 mov	 eax, DWORD PTR _str$[ebp]
  00017	8b 40 10	 mov	 eax, DWORD PTR [eax+16]
  0001a	89 45 f4	 mov	 DWORD PTR $T1[ebp], eax
; File D:\Metin2 Server Files\mainline\SRC_2014\Metin2Client\eterBase\Stl.h

; 478  :        const unsigned char * end = s + str.size();

  0001d	8b 45 fc	 mov	 eax, DWORD PTR _s$[ebp]
  00020	03 45 f4	 add	 eax, DWORD PTR $T1[ebp]
  00023	89 45 f0	 mov	 DWORD PTR _end$[ebp], eax

; 479  :        size_t h = 0;

  00026	83 65 f8 00	 and	 DWORD PTR _h$[ebp], 0
$LN2@GetHash:

; 480  : 
; 481  :        while (s < end)

  0002a	8b 45 fc	 mov	 eax, DWORD PTR _s$[ebp]
  0002d	3b 45 f0	 cmp	 eax, DWORD PTR _end$[ebp]
  00030	73 1f		 jae	 SHORT $LN3@GetHash

; 482  :        {
; 483  :            h *= 16777619;

  00032	69 45 f8 93 01
	00 01		 imul	 eax, DWORD PTR _h$[ebp], 16777619
  00039	89 45 f8	 mov	 DWORD PTR _h$[ebp], eax

; 484  :            h ^= (unsigned char) *(unsigned char *) (s++);

  0003c	8b 45 fc	 mov	 eax, DWORD PTR _s$[ebp]
  0003f	0f b6 00	 movzx	 eax, BYTE PTR [eax]
  00042	33 45 f8	 xor	 eax, DWORD PTR _h$[ebp]
  00045	89 45 f8	 mov	 DWORD PTR _h$[ebp], eax
  00048	8b 45 fc	 mov	 eax, DWORD PTR _s$[ebp]
  0004b	40		 inc	 eax
  0004c	89 45 fc	 mov	 DWORD PTR _s$[ebp], eax

; 485  :        }

  0004f	eb d9		 jmp	 SHORT $LN2@GetHash
$LN3@GetHash:

; 486  : 
; 487  :        return h;

  00051	8b 45 f8	 mov	 eax, DWORD PTR _h$[ebp]

; 488  : 	}

  00054	c9		 leave
  00055	c2 04 00	 ret	 4
?GetHash@stringhash@@QBEIABV?$basic_string@DU?$char_traits@D@std@@V?$allocator@D@2@@std@@@Z ENDP ; stringhash::GetHash
_TEXT	ENDS
; Function compile flags: /Odspy
; File D:\Metin2 Server Files\mainline\SRC_2014\M2Data\include\boost\unordered\detail\implementation.hpp
; File C:\Program Files (x86)\Microsoft Visual Studio\2019\Community\VC\Tools\MSVC\14.28.29333\include\xutility
; File D:\Metin2 Server Files\mainline\SRC_2014\M2Data\include\boost\unordered\detail\implementation.hpp
;	COMDAT ?next_prime@detail@unordered@boost@@YAII@Z
_TEXT	SEGMENT
$T1 = -16						; size = 1
_prime_list_end$ = -12					; size = 4
_prime_list_begin$ = -8					; size = 4
_bound$ = -4						; size = 4
_num$ = 8						; size = 4
?next_prime@detail@unordered@boost@@YAII@Z PROC		; boost::unordered::detail::next_prime, COMDAT

; 327  :       {

  00000	55		 push	 ebp
  00001	8b ec		 mov	 ebp, esp
  00003	83 ec 10	 sub	 esp, 16			; 00000010H

; 328  :         std::size_t const* const prime_list_begin = prime_list::value;

  00006	c7 45 f8 00 00
	00 00		 mov	 DWORD PTR _prime_list_begin$[ebp], OFFSET ?value@?$prime_list_template@I@detail@unordered@boost@@2QBIB ; boost::unordered::detail::prime_list_template<unsigned int>::value

; 329  :         std::size_t const* const prime_list_end =

  0000d	a1 00 00 00 00	 mov	 eax, DWORD PTR ?length@?$prime_list_template@I@detail@unordered@boost@@2HB ; boost::unordered::detail::prime_list_template<unsigned int>::length
  00012	8b 4d f8	 mov	 ecx, DWORD PTR _prime_list_begin$[ebp]
  00015	8d 04 81	 lea	 eax, DWORD PTR [ecx+eax*4]
  00018	89 45 f4	 mov	 DWORD PTR _prime_list_end$[ebp], eax
; File C:\Program Files (x86)\Microsoft Visual Studio\2019\Community\VC\Tools\MSVC\14.28.29333\include\xutility

; 5873 :     return _STD lower_bound(_First, _Last, _Val, less<>{});

  0001b	33 c0		 xor	 eax, eax
  0001d	88 45 f0	 mov	 BYTE PTR $T1[ebp], al
  00020	ff 75 f0	 push	 DWORD PTR $T1[ebp]
  00023	8d 45 08	 lea	 eax, DWORD PTR _num$[ebp]
  00026	50		 push	 eax
  00027	ff 75 f4	 push	 DWORD PTR _prime_list_end$[ebp]
  0002a	ff 75 f8	 push	 DWORD PTR _prime_list_begin$[ebp]
  0002d	e8 00 00 00 00	 call	 ??$lower_bound@PBIIU?$less@X@std@@@std@@YAPBIPBIQBIABIU?$less@X@0@@Z ; std::lower_bound<unsigned int const *,unsigned int,std::less<void> >
  00032	83 c4 10	 add	 esp, 16			; 00000010H
; File D:\Metin2 Server Files\mainline\SRC_2014\M2Data\include\boost\unordered\detail\implementation.hpp

; 331  :         std::size_t const* bound =

  00035	89 45 fc	 mov	 DWORD PTR _bound$[ebp], eax

; 332  :           std::lower_bound(prime_list_begin, prime_list_end, num);
; 333  :         if (bound == prime_list_end)

  00038	8b 45 fc	 mov	 eax, DWORD PTR _bound$[ebp]
  0003b	3b 45 f4	 cmp	 eax, DWORD PTR _prime_list_end$[ebp]
  0003e	75 09		 jne	 SHORT $LN2@next_prime

; 334  :           bound--;

  00040	8b 45 fc	 mov	 eax, DWORD PTR _bound$[ebp]
  00043	83 e8 04	 sub	 eax, 4
  00046	89 45 fc	 mov	 DWORD PTR _bound$[ebp], eax
$LN2@next_prime:

; 335  :         return *bound;

  00049	8b 45 fc	 mov	 eax, DWORD PTR _bound$[ebp]
  0004c	8b 00		 mov	 eax, DWORD PTR [eax]

; 336  :       }

  0004e	c9		 leave
  0004f	c3		 ret	 0
?next_prime@detail@unordered@boost@@YAII@Z ENDP		; boost::unordered::detail::next_prime
_TEXT	ENDS
; Function compile flags: /Odspy
; File D:\Metin2 Server Files\mainline\SRC_2014\M2Data\include\boost\container_hash\hash.hpp
;	COMDAT ??$hash_value@K@boost@@YAIK@Z
_TEXT	SEGMENT
_v$ = 8							; size = 4
??$hash_value@K@boost@@YAIK@Z PROC			; boost::hash_value<unsigned long>, COMDAT

; 359  :     {

  00000	55		 push	 ebp
  00001	8b ec		 mov	 ebp, esp

; 360  :         return static_cast<std::size_t>(v);

  00003	8b 45 08	 mov	 eax, DWORD PTR _v$[ebp]

; 361  :     }

  00006	5d		 pop	 ebp
  00007	c3		 ret	 0
??$hash_value@K@boost@@YAIK@Z ENDP			; boost::hash_value<unsigned long>
_TEXT	ENDS
; Function compile flags: /Odspy
; File D:\Metin2 Server Files\mainline\SRC_2014\Metin2Client\eterBase\filename.h
; File C:\Program Files (x86)\Microsoft Visual Studio\2019\Community\VC\Tools\MSVC\14.28.29333\include\xstring
; File D:\Metin2 Server Files\mainline\SRC_2014\Metin2Client\eterBase\filename.h
;	COMDAT ?NoPath@CFileNameHelper@@SA?AV?$basic_string@DU?$char_traits@D@std@@V?$allocator@D@2@@std@@AAV23@@Z
_TEXT	SEGMENT
$T1 = -128						; size = 4
$T2 = -124						; size = 4
$T3 = -120						; size = 4
_nLength$ = -116					; size = 4
_k$4 = -112						; size = 4
_j$5 = -108						; size = 4
_i$6 = -104						; size = 4
_szPath$ = -100						; size = 1024
__$ArrayPad$ = 924					; size = 4
___$ReturnUdt$ = 936					; size = 4
_str$ = 940						; size = 4
?NoPath@CFileNameHelper@@SA?AV?$basic_string@DU?$char_traits@D@std@@V?$allocator@D@2@@std@@AAV23@@Z PROC ; CFileNameHelper::NoPath, COMDAT

; 228  : {

  00000	55		 push	 ebp
  00001	8d ac 24 60 fc
	ff ff		 lea	 ebp, DWORD PTR [esp-928]
  00008	81 ec 20 04 00
	00		 sub	 esp, 1056		; 00000420H
  0000e	a1 00 00 00 00	 mov	 eax, DWORD PTR ___security_cookie
  00013	33 c5		 xor	 eax, ebp
  00015	89 85 9c 03 00
	00		 mov	 DWORD PTR __$ArrayPad$[ebp], eax
  0001b	83 65 80 00	 and	 DWORD PTR $T1[ebp], 0

; 229  : 	char szPath[1024];
; 230  : 	szPath[0] = '\0';

  0001f	33 c0		 xor	 eax, eax
  00021	40		 inc	 eax
  00022	6b c0 00	 imul	 eax, eax, 0
  00025	89 45 88	 mov	 DWORD PTR $T3[ebp], eax
  00028	81 7d 88 00 04
	00 00		 cmp	 DWORD PTR $T3[ebp], 1024 ; 00000400H
  0002f	73 02		 jae	 SHORT $LN13@NoPath
  00031	eb 05		 jmp	 SHORT $LN14@NoPath
$LN13@NoPath:
  00033	e8 00 00 00 00	 call	 ___report_rangecheckfailure
$LN14@NoPath:
  00038	8b 45 88	 mov	 eax, DWORD PTR $T3[ebp]
  0003b	c6 44 05 9c 00	 mov	 BYTE PTR _szPath$[ebp+eax], 0
; File C:\Program Files (x86)\Microsoft Visual Studio\2019\Community\VC\Tools\MSVC\14.28.29333\include\xstring

; 3766 :         return _Mypair._Myval2._Mysize;

  00040	8b 85 ac 03 00
	00		 mov	 eax, DWORD PTR _str$[ebp]
  00046	8b 40 10	 mov	 eax, DWORD PTR [eax+16]
  00049	89 45 8c	 mov	 DWORD PTR _nLength$[ebp], eax
; File D:\Metin2 Server Files\mainline\SRC_2014\Metin2Client\eterBase\filename.h

; 234  : 	if (nLength > 0)

  0004c	83 7d 8c 00	 cmp	 DWORD PTR _nLength$[ebp], 0
  00050	0f 86 c6 00 00
	00		 jbe	 $LN8@NoPath

; 235  : 	{
; 236  : 		strcpy(szPath, str.c_str());

  00056	8b 8d ac 03 00
	00		 mov	 ecx, DWORD PTR _str$[ebp]
  0005c	e8 00 00 00 00	 call	 ?c_str@?$basic_string@DU?$char_traits@D@std@@V?$allocator@D@2@@std@@QBEPBDXZ ; std::basic_string<char,std::char_traits<char>,std::allocator<char> >::c_str
  00061	50		 push	 eax
  00062	8d 45 9c	 lea	 eax, DWORD PTR _szPath$[ebp]
  00065	50		 push	 eax
  00066	e8 00 00 00 00	 call	 _strcpy
  0006b	59		 pop	 ecx
  0006c	59		 pop	 ecx

; 237  : 
; 238  : 		for (size_t i = nLength - 1; i > 0; i--)

  0006d	8b 45 8c	 mov	 eax, DWORD PTR _nLength$[ebp]
  00070	48		 dec	 eax
  00071	89 45 98	 mov	 DWORD PTR _i$6[ebp], eax
  00074	eb 07		 jmp	 SHORT $LN4@NoPath
$LN2@NoPath:
  00076	8b 45 98	 mov	 eax, DWORD PTR _i$6[ebp]
  00079	48		 dec	 eax
  0007a	89 45 98	 mov	 DWORD PTR _i$6[ebp], eax
$LN4@NoPath:
  0007d	83 7d 98 00	 cmp	 DWORD PTR _i$6[ebp], 0
  00081	0f 86 95 00 00
	00		 jbe	 $LN8@NoPath

; 239  : 		{
; 240  : 			if (str[i] == '/' || str[i] == '\\')

  00087	ff 75 98	 push	 DWORD PTR _i$6[ebp]
  0008a	8b 8d ac 03 00
	00		 mov	 ecx, DWORD PTR _str$[ebp]
  00090	e8 00 00 00 00	 call	 ??A?$basic_string@DU?$char_traits@D@std@@V?$allocator@D@2@@std@@QAEAADI@Z ; std::basic_string<char,std::char_traits<char>,std::allocator<char> >::operator[]
  00095	0f be 00	 movsx	 eax, BYTE PTR [eax]
  00098	83 f8 2f	 cmp	 eax, 47			; 0000002fH
  0009b	74 16		 je	 SHORT $LN10@NoPath
  0009d	ff 75 98	 push	 DWORD PTR _i$6[ebp]
  000a0	8b 8d ac 03 00
	00		 mov	 ecx, DWORD PTR _str$[ebp]
  000a6	e8 00 00 00 00	 call	 ??A?$basic_string@DU?$char_traits@D@std@@V?$allocator@D@2@@std@@QAEAADI@Z ; std::basic_string<char,std::char_traits<char>,std::allocator<char> >::operator[]
  000ab	0f be 00	 movsx	 eax, BYTE PTR [eax]
  000ae	83 f8 5c	 cmp	 eax, 92			; 0000005cH
  000b1	75 5c		 jne	 SHORT $LN9@NoPath
$LN10@NoPath:

; 241  : 			{
; 242  : 				int k = 0;

  000b3	83 65 90 00	 and	 DWORD PTR _k$4[ebp], 0

; 243  : 				for (size_t j = i + 1; j < nLength; j++, k++)

  000b7	8b 45 98	 mov	 eax, DWORD PTR _i$6[ebp]
  000ba	40		 inc	 eax
  000bb	89 45 94	 mov	 DWORD PTR _j$5[ebp], eax
  000be	eb 0e		 jmp	 SHORT $LN7@NoPath
$LN5@NoPath:
  000c0	8b 45 94	 mov	 eax, DWORD PTR _j$5[ebp]
  000c3	40		 inc	 eax
  000c4	89 45 94	 mov	 DWORD PTR _j$5[ebp], eax
  000c7	8b 45 90	 mov	 eax, DWORD PTR _k$4[ebp]
  000ca	40		 inc	 eax
  000cb	89 45 90	 mov	 DWORD PTR _k$4[ebp], eax
$LN7@NoPath:
  000ce	8b 45 94	 mov	 eax, DWORD PTR _j$5[ebp]
  000d1	3b 45 8c	 cmp	 eax, DWORD PTR _nLength$[ebp]
  000d4	73 19		 jae	 SHORT $LN6@NoPath

; 244  : 					szPath[k] = str[j];

  000d6	ff 75 94	 push	 DWORD PTR _j$5[ebp]
  000d9	8b 8d ac 03 00
	00		 mov	 ecx, DWORD PTR _str$[ebp]
  000df	e8 00 00 00 00	 call	 ??A?$basic_string@DU?$char_traits@D@std@@V?$allocator@D@2@@std@@QAEAADI@Z ; std::basic_string<char,std::char_traits<char>,std::allocator<char> >::operator[]
  000e4	8b 4d 90	 mov	 ecx, DWORD PTR _k$4[ebp]
  000e7	8a 00		 mov	 al, BYTE PTR [eax]
  000e9	88 44 0d 9c	 mov	 BYTE PTR _szPath$[ebp+ecx], al
  000ed	eb d1		 jmp	 SHORT $LN5@NoPath
$LN6@NoPath:

; 245  : 				szPath[k] = '\0';

  000ef	8b 45 90	 mov	 eax, DWORD PTR _k$4[ebp]
  000f2	89 45 84	 mov	 DWORD PTR $T2[ebp], eax
  000f5	81 7d 84 00 04
	00 00		 cmp	 DWORD PTR $T2[ebp], 1024 ; 00000400H
  000fc	73 02		 jae	 SHORT $LN15@NoPath
  000fe	eb 05		 jmp	 SHORT $LN16@NoPath
$LN15@NoPath:
  00100	e8 00 00 00 00	 call	 ___report_rangecheckfailure
$LN16@NoPath:
  00105	8b 45 84	 mov	 eax, DWORD PTR $T2[ebp]
  00108	c6 44 05 9c 00	 mov	 BYTE PTR _szPath$[ebp+eax], 0

; 246  : 				break;

  0010d	eb 0d		 jmp	 SHORT $LN8@NoPath
$LN9@NoPath:

; 247  : 			}
; 248  : 
; 249  : 			if (0 == i)

  0010f	83 7d 98 00	 cmp	 DWORD PTR _i$6[ebp], 0
  00113	75 02		 jne	 SHORT $LN11@NoPath

; 250  : 				break;

  00115	eb 05		 jmp	 SHORT $LN8@NoPath
$LN11@NoPath:

; 251  : 		}

  00117	e9 5a ff ff ff	 jmp	 $LN2@NoPath
$LN8@NoPath:

; 252  : 	}
; 253  : 
; 254  : 	return szPath;

  0011c	8d 45 9c	 lea	 eax, DWORD PTR _szPath$[ebp]
  0011f	50		 push	 eax
  00120	8b 8d a8 03 00
	00		 mov	 ecx, DWORD PTR ___$ReturnUdt$[ebp]
  00126	e8 00 00 00 00	 call	 ??0?$basic_string@DU?$char_traits@D@std@@V?$allocator@D@2@@std@@QAE@QBD@Z ; std::basic_string<char,std::char_traits<char>,std::allocator<char> >::basic_string<char,std::char_traits<char>,std::allocator<char> >
  0012b	8b 45 80	 mov	 eax, DWORD PTR $T1[ebp]
  0012e	83 c8 01	 or	 eax, 1
  00131	89 45 80	 mov	 DWORD PTR $T1[ebp], eax
  00134	8b 85 a8 03 00
	00		 mov	 eax, DWORD PTR ___$ReturnUdt$[ebp]
$LN12@NoPath:

; 255  : }

  0013a	8b 8d 9c 03 00
	00		 mov	 ecx, DWORD PTR __$ArrayPad$[ebp]
  00140	33 cd		 xor	 ecx, ebp
  00142	e8 00 00 00 00	 call	 @__security_check_cookie@4
  00147	81 c5 a0 03 00
	00		 add	 ebp, 928		; 000003a0H
  0014d	c9		 leave
  0014e	c3		 ret	 0
?NoPath@CFileNameHelper@@SA?AV?$basic_string@DU?$char_traits@D@std@@V?$allocator@D@2@@std@@AAV23@@Z ENDP ; CFileNameHelper::NoPath
_TEXT	ENDS
; Function compile flags: /Odspy
;	COMDAT ??1?$_Compressed_pair@V?$allocator@D@std@@V?$_String_val@U?$_Simple_types@D@std@@@2@$00@std@@QAE@XZ
_TEXT	SEGMENT
_this$ = -4						; size = 4
??1?$_Compressed_pair@V?$allocator@D@std@@V?$_String_val@U?$_Simple_types@D@std@@@2@$00@std@@QAE@XZ PROC ; std::_Compressed_pair<std::allocator<char>,std::_String_val<std::_Simple_types<char> >,1>::~_Compressed_pair<std::allocator<char>,std::_String_val<std::_Simple_types<char> >,1>, COMDAT
; _this$ = ecx
  00000	55		 push	 ebp
  00001	8b ec		 mov	 ebp, esp
  00003	51		 push	 ecx
  00004	89 4d fc	 mov	 DWORD PTR _this$[ebp], ecx
  00007	c9		 leave
  00008	c3		 ret	 0
??1?$_Compressed_pair@V?$allocator@D@std@@V?$_String_val@U?$_Simple_types@D@std@@@2@$00@std@@QAE@XZ ENDP ; std::_Compressed_pair<std::allocator<char>,std::_String_val<std::_Simple_types<char> >,1>::~_Compressed_pair<std::allocator<char>,std::_String_val<std::_Simple_types<char> >,1>
_TEXT	ENDS
; Function compile flags: /Odspy
; File C:\Program Files (x86)\Microsoft Visual Studio\2019\Community\VC\Tools\MSVC\14.28.29333\include\xstring
; File C:\Program Files (x86)\Microsoft Visual Studio\2019\Community\VC\Tools\MSVC\14.28.29333\include\xmemory
; File C:\Program Files (x86)\Microsoft Visual Studio\2019\Community\VC\Tools\MSVC\14.28.29333\include\xstring
; File C:\Program Files (x86)\Microsoft Visual Studio\2019\Community\VC\Tools\MSVC\14.28.29333\include\xmemory
; File C:\Program Files (x86)\Microsoft Visual Studio\2019\Community\VC\Tools\MSVC\14.28.29333\include\xstring
;	COMDAT ?_Tidy_deallocate@?$basic_string@DU?$char_traits@D@std@@V?$allocator@D@2@@std@@AAEXXZ
_TEXT	SEGMENT
__Al$1 = -28						; size = 4
__Ptr$2 = -24						; size = 4
__Count$ = -20						; size = 4
$T3 = -16						; size = 4
tv68 = -12						; size = 4
_this$ = -8						; size = 4
$T4 = -2						; size = 1
$T5 = -1						; size = 1
?_Tidy_deallocate@?$basic_string@DU?$char_traits@D@std@@V?$allocator@D@2@@std@@AAEXXZ PROC ; std::basic_string<char,std::char_traits<char>,std::allocator<char> >::_Tidy_deallocate, COMDAT
; _this$ = ecx

; 4383 :     void _Tidy_deallocate() noexcept { // initialize buffer, deallocating any storage

  00000	55		 push	 ebp
  00001	8b ec		 mov	 ebp, esp
  00003	83 ec 1c	 sub	 esp, 28			; 0000001cH
  00006	89 4d f8	 mov	 DWORD PTR _this$[ebp], ecx

; 2227 :         return _BUF_SIZE <= _Myres;

  00009	8b 45 f8	 mov	 eax, DWORD PTR _this$[ebp]
  0000c	83 78 14 10	 cmp	 DWORD PTR [eax+20], 16	; 00000010H
  00010	72 09		 jb	 SHORT $LN9@Tidy_deall
  00012	c7 45 f4 01 00
	00 00		 mov	 DWORD PTR tv68[ebp], 1
  00019	eb 04		 jmp	 SHORT $LN10@Tidy_deall
$LN9@Tidy_deall:
  0001b	83 65 f4 00	 and	 DWORD PTR tv68[ebp], 0
$LN10@Tidy_deall:
  0001f	8a 45 f4	 mov	 al, BYTE PTR tv68[ebp]
  00022	88 45 ff	 mov	 BYTE PTR $T5[ebp], al

; 4384 :         _Mypair._Myval2._Orphan_all();
; 4385 :         if (_Mypair._Myval2._Large_string_engaged()) {

  00025	0f b6 45 ff	 movzx	 eax, BYTE PTR $T5[ebp]
  00029	85 c0		 test	 eax, eax
  0002b	74 34		 je	 SHORT $LN2@Tidy_deall

; 4386 :             const pointer _Ptr = _Mypair._Myval2._Bx._Ptr;

  0002d	8b 45 f8	 mov	 eax, DWORD PTR _this$[ebp]
  00030	8b 00		 mov	 eax, DWORD PTR [eax]
  00032	89 45 e8	 mov	 DWORD PTR __Ptr$2[ebp], eax

; 4409 :         return _Mypair._Get_first();

  00035	8b 45 f8	 mov	 eax, DWORD PTR _this$[ebp]
; File C:\Program Files (x86)\Microsoft Visual Studio\2019\Community\VC\Tools\MSVC\14.28.29333\include\xmemory

; 1347 :         return *this;

  00038	89 45 f0	 mov	 DWORD PTR $T3[ebp], eax
; File C:\Program Files (x86)\Microsoft Visual Studio\2019\Community\VC\Tools\MSVC\14.28.29333\include\xstring

; 4409 :         return _Mypair._Get_first();

  0003b	8b 45 f0	 mov	 eax, DWORD PTR $T3[ebp]
  0003e	89 45 e4	 mov	 DWORD PTR __Al$1[ebp], eax

; 4387 :             auto& _Al          = _Getal();
; 4388 :             _Destroy_in_place(_Mypair._Myval2._Bx._Ptr);

  00041	ff 75 f8	 push	 DWORD PTR _this$[ebp]
  00044	e8 00 00 00 00	 call	 ??$_Destroy_in_place@PAD@std@@YAXAAPAD@Z ; std::_Destroy_in_place<char *>
  00049	59		 pop	 ecx

; 4389 :             _Al.deallocate(_Ptr, _Mypair._Myval2._Myres + 1);

  0004a	8b 45 f8	 mov	 eax, DWORD PTR _this$[ebp]
  0004d	8b 40 14	 mov	 eax, DWORD PTR [eax+20]
  00050	40		 inc	 eax
  00051	89 45 ec	 mov	 DWORD PTR __Count$[ebp], eax
; File C:\Program Files (x86)\Microsoft Visual Studio\2019\Community\VC\Tools\MSVC\14.28.29333\include\xmemory

; 810  :         _Deallocate<_New_alignof<_Ty>>(_Ptr, sizeof(_Ty) * _Count);

  00054	ff 75 ec	 push	 DWORD PTR __Count$[ebp]
  00057	ff 75 e8	 push	 DWORD PTR __Ptr$2[ebp]
  0005a	e8 00 00 00 00	 call	 ??$_Deallocate@$07$0A@@std@@YAXPAXI@Z ; std::_Deallocate<8,0>
  0005f	59		 pop	 ecx
  00060	59		 pop	 ecx
$LN2@Tidy_deall:
; File C:\Program Files (x86)\Microsoft Visual Studio\2019\Community\VC\Tools\MSVC\14.28.29333\include\xstring

; 4392 :         _Mypair._Myval2._Mysize = 0;

  00061	8b 45 f8	 mov	 eax, DWORD PTR _this$[ebp]
  00064	83 60 10 00	 and	 DWORD PTR [eax+16], 0

; 4393 :         _Mypair._Myval2._Myres  = _BUF_SIZE - 1;

  00068	8b 45 f8	 mov	 eax, DWORD PTR _this$[ebp]
  0006b	c7 40 14 0f 00
	00 00		 mov	 DWORD PTR [eax+20], 15	; 0000000fH

; 4394 :         // the _Traits::assign is last so the codegen doesn't think the char write can alias this
; 4395 :         _Traits::assign(_Mypair._Myval2._Bx._Buf[0], _Elem());

  00072	c6 45 fe 00	 mov	 BYTE PTR $T4[ebp], 0
  00076	33 c0		 xor	 eax, eax
  00078	40		 inc	 eax
  00079	6b c0 00	 imul	 eax, eax, 0

; 428  :         _Left = _Right;

  0007c	8b 4d f8	 mov	 ecx, DWORD PTR _this$[ebp]
  0007f	8a 55 fe	 mov	 dl, BYTE PTR $T4[ebp]
  00082	88 14 01	 mov	 BYTE PTR [ecx+eax], dl

; 4396 :     }

  00085	c9		 leave
  00086	c3		 ret	 0
?_Tidy_deallocate@?$basic_string@DU?$char_traits@D@std@@V?$allocator@D@2@@std@@AAEXXZ ENDP ; std::basic_string<char,std::char_traits<char>,std::allocator<char> >::_Tidy_deallocate
_TEXT	ENDS
; Function compile flags: /Odspy
; File C:\Program Files (x86)\Microsoft Visual Studio\2019\Community\VC\Tools\MSVC\14.28.29333\include\xstring
;	COMDAT ?_Tidy_init@?$basic_string@DU?$char_traits@D@std@@V?$allocator@D@2@@std@@AAEXXZ
_TEXT	SEGMENT
_this$ = -8						; size = 4
$T1 = -1						; size = 1
?_Tidy_init@?$basic_string@DU?$char_traits@D@std@@V?$allocator@D@2@@std@@AAEXXZ PROC ; std::basic_string<char,std::char_traits<char>,std::allocator<char> >::_Tidy_init, COMDAT
; _this$ = ecx

; 4376 :     void _Tidy_init() noexcept { // initialize basic_string data members

  00000	55		 push	 ebp
  00001	8b ec		 mov	 ebp, esp
  00003	51		 push	 ecx
  00004	51		 push	 ecx
  00005	89 4d f8	 mov	 DWORD PTR _this$[ebp], ecx

; 4377 :         _Mypair._Myval2._Mysize = 0;

  00008	8b 45 f8	 mov	 eax, DWORD PTR _this$[ebp]
  0000b	83 60 10 00	 and	 DWORD PTR [eax+16], 0

; 4378 :         _Mypair._Myval2._Myres  = _BUF_SIZE - 1;

  0000f	8b 45 f8	 mov	 eax, DWORD PTR _this$[ebp]
  00012	c7 40 14 0f 00
	00 00		 mov	 DWORD PTR [eax+20], 15	; 0000000fH

; 4379 :         // the _Traits::assign is last so the codegen doesn't think the char write can alias this
; 4380 :         _Traits::assign(_Mypair._Myval2._Bx._Buf[0], _Elem());

  00019	c6 45 ff 00	 mov	 BYTE PTR $T1[ebp], 0
  0001d	33 c0		 xor	 eax, eax
  0001f	40		 inc	 eax
  00020	6b c0 00	 imul	 eax, eax, 0

; 428  :         _Left = _Right;

  00023	8b 4d f8	 mov	 ecx, DWORD PTR _this$[ebp]
  00026	8a 55 ff	 mov	 dl, BYTE PTR $T1[ebp]
  00029	88 14 01	 mov	 BYTE PTR [ecx+eax], dl

; 4381 :     }

  0002c	c9		 leave
  0002d	c3		 ret	 0
?_Tidy_init@?$basic_string@DU?$char_traits@D@std@@V?$allocator@D@2@@std@@AAEXXZ ENDP ; std::basic_string<char,std::char_traits<char>,std::allocator<char> >::_Tidy_init
_TEXT	ENDS
; Function compile flags: /Odspy
; File C:\Program Files (x86)\Microsoft Visual Studio\2019\Community\VC\Tools\MSVC\14.28.29333\include\xstring
; File C:\Program Files (x86)\Microsoft Visual Studio\2019\Community\VC\Tools\MSVC\14.28.29333\include\utility
; File C:\Program Files (x86)\Microsoft Visual Studio\2019\Community\VC\Tools\MSVC\14.28.29333\include\xstring
;	COMDAT ?_Calculate_growth@?$basic_string@DU?$char_traits@D@std@@V?$allocator@D@2@@std@@ABEII@Z
_TEXT	SEGMENT
$T1 = -36						; size = 4
$T2 = -32						; size = 4
tv93 = -28						; size = 4
$T3 = -24						; size = 4
_this$ = -20						; size = 4
$T4 = -16						; size = 4
__Masked$5 = -12					; size = 4
__Old$ = -8						; size = 4
__Max$ = -4						; size = 4
__Requested$ = 8					; size = 4
?_Calculate_growth@?$basic_string@DU?$char_traits@D@std@@V?$allocator@D@2@@std@@ABEII@Z PROC ; std::basic_string<char,std::char_traits<char>,std::allocator<char> >::_Calculate_growth, COMDAT
; _this$ = ecx

; 4297 :     _NODISCARD size_type _Calculate_growth(const size_type _Requested) const noexcept {

  00000	55		 push	 ebp
  00001	8b ec		 mov	 ebp, esp
  00003	83 ec 24	 sub	 esp, 36			; 00000024H
  00006	89 4d ec	 mov	 DWORD PTR _this$[ebp], ecx

; 4298 :         return _Calculate_growth(_Requested, _Mypair._Myval2._Myres, max_size());

  00009	8b 4d ec	 mov	 ecx, DWORD PTR _this$[ebp]
  0000c	e8 00 00 00 00	 call	 ?max_size@?$basic_string@DU?$char_traits@D@std@@V?$allocator@D@2@@std@@QBEIXZ ; std::basic_string<char,std::char_traits<char>,std::allocator<char> >::max_size
  00011	89 45 fc	 mov	 DWORD PTR __Max$[ebp], eax
  00014	8b 45 ec	 mov	 eax, DWORD PTR _this$[ebp]
  00017	8b 40 14	 mov	 eax, DWORD PTR [eax+20]
  0001a	89 45 f8	 mov	 DWORD PTR __Old$[ebp], eax

; 4285 :         const size_type _Masked = _Requested | _ALLOC_MASK;

  0001d	8b 45 08	 mov	 eax, DWORD PTR __Requested$[ebp]
  00020	83 c8 0f	 or	 eax, 15			; 0000000fH
  00023	89 45 f4	 mov	 DWORD PTR __Masked$5[ebp], eax

; 4286 :         if (_Masked > _Max) { // the mask overflows, settle for max_size()

  00026	8b 45 f4	 mov	 eax, DWORD PTR __Masked$5[ebp]
  00029	3b 45 fc	 cmp	 eax, DWORD PTR __Max$[ebp]
  0002c	76 08		 jbe	 SHORT $LN29@Calculate_

; 4287 :             return _Max;

  0002e	8b 45 fc	 mov	 eax, DWORD PTR __Max$[ebp]
  00031	89 45 f0	 mov	 DWORD PTR $T4[ebp], eax
  00034	eb 4c		 jmp	 SHORT $LN31@Calculate_
$LN29@Calculate_:

; 4288 :         }
; 4289 : 
; 4290 :         if (_Old > _Max - _Old / 2) { // similarly, geometric overflows

  00036	8b 45 f8	 mov	 eax, DWORD PTR __Old$[ebp]
  00039	d1 e8		 shr	 eax, 1
  0003b	8b 4d fc	 mov	 ecx, DWORD PTR __Max$[ebp]
  0003e	2b c8		 sub	 ecx, eax
  00040	39 4d f8	 cmp	 DWORD PTR __Old$[ebp], ecx
  00043	76 08		 jbe	 SHORT $LN30@Calculate_

; 4291 :             return _Max;

  00045	8b 45 fc	 mov	 eax, DWORD PTR __Max$[ebp]
  00048	89 45 f0	 mov	 DWORD PTR $T4[ebp], eax
  0004b	eb 35		 jmp	 SHORT $LN31@Calculate_
$LN30@Calculate_:

; 4294 :         return (_STD max)(_Masked, _Old + _Old / 2);

  0004d	8b 45 f8	 mov	 eax, DWORD PTR __Old$[ebp]
  00050	d1 e8		 shr	 eax, 1
  00052	03 45 f8	 add	 eax, DWORD PTR __Old$[ebp]
  00055	89 45 e8	 mov	 DWORD PTR $T3[ebp], eax
; File C:\Program Files (x86)\Microsoft Visual Studio\2019\Community\VC\Tools\MSVC\14.28.29333\include\utility

; 44   :     return _Left < _Right ? _Right : _Left;

  00058	8b 45 f4	 mov	 eax, DWORD PTR __Masked$5[ebp]
  0005b	3b 45 e8	 cmp	 eax, DWORD PTR $T3[ebp]
  0005e	73 08		 jae	 SHORT $LN35@Calculate_
  00060	8d 45 e8	 lea	 eax, DWORD PTR $T3[ebp]
  00063	89 45 e4	 mov	 DWORD PTR tv93[ebp], eax
  00066	eb 06		 jmp	 SHORT $LN36@Calculate_
$LN35@Calculate_:
  00068	8d 45 f4	 lea	 eax, DWORD PTR __Masked$5[ebp]
  0006b	89 45 e4	 mov	 DWORD PTR tv93[ebp], eax
$LN36@Calculate_:
  0006e	8b 45 e4	 mov	 eax, DWORD PTR tv93[ebp]
  00071	89 45 e0	 mov	 DWORD PTR $T2[ebp], eax
  00074	8b 45 e0	 mov	 eax, DWORD PTR $T2[ebp]
  00077	89 45 dc	 mov	 DWORD PTR $T1[ebp], eax
; File C:\Program Files (x86)\Microsoft Visual Studio\2019\Community\VC\Tools\MSVC\14.28.29333\include\xstring

; 4294 :         return (_STD max)(_Masked, _Old + _Old / 2);

  0007a	8b 45 dc	 mov	 eax, DWORD PTR $T1[ebp]
  0007d	8b 00		 mov	 eax, DWORD PTR [eax]
  0007f	89 45 f0	 mov	 DWORD PTR $T4[ebp], eax
$LN31@Calculate_:

; 4298 :         return _Calculate_growth(_Requested, _Mypair._Myval2._Myres, max_size());

  00082	8b 45 f0	 mov	 eax, DWORD PTR $T4[ebp]

; 4299 :     }

  00085	c9		 leave
  00086	c2 04 00	 ret	 4
?_Calculate_growth@?$basic_string@DU?$char_traits@D@std@@V?$allocator@D@2@@std@@ABEII@Z ENDP ; std::basic_string<char,std::char_traits<char>,std::allocator<char> >::_Calculate_growth
_TEXT	ENDS
; Function compile flags: /Odspy
; File C:\Program Files (x86)\Microsoft Visual Studio\2019\Community\VC\Tools\MSVC\14.28.29333\include\xstring
; File C:\Program Files (x86)\Microsoft Visual Studio\2019\Community\VC\Tools\MSVC\14.28.29333\include\xstddef
; File C:\Program Files (x86)\Microsoft Visual Studio\2019\Community\VC\Tools\MSVC\14.28.29333\include\xstring
; File C:\Program Files (x86)\Microsoft Visual Studio\2019\Community\VC\Tools\MSVC\14.28.29333\include\xstddef
; File C:\Program Files (x86)\Microsoft Visual Studio\2019\Community\VC\Tools\MSVC\14.28.29333\include\xstring
;	COMDAT ?_Equal@?$basic_string@DU?$char_traits@D@std@@V?$allocator@D@2@@std@@QBE_NABV12@@Z
_TEXT	SEGMENT
$T1 = -64						; size = 4
$T2 = -60						; size = 4
$T3 = -56						; size = 4
__Right_size$ = -52					; size = 4
__Ptr$ = -48						; size = 4
__Ptr$ = -44						; size = 4
tv141 = -40						; size = 4
__Left_size$ = -36					; size = 4
_this$ = -32						; size = 4
__Result$4 = -28					; size = 4
tv137 = -24						; size = 4
__Result$5 = -20					; size = 4
tv95 = -16						; size = 4
_this$ = -12						; size = 4
_this$ = -8						; size = 4
$T6 = -3						; size = 1
$T7 = -2						; size = 1
$T8 = -1						; size = 1
__Right$ = 8						; size = 4
?_Equal@?$basic_string@DU?$char_traits@D@std@@V?$allocator@D@2@@std@@QBE_NABV12@@Z PROC ; std::basic_string<char,std::char_traits<char>,std::allocator<char> >::_Equal, COMDAT
; _this$ = ecx

; 4174 :     bool _Equal(const basic_string& _Right) const noexcept { // compare [0, size()) with _Right for equality

  00000	55		 push	 ebp
  00001	8b ec		 mov	 ebp, esp
  00003	83 ec 40	 sub	 esp, 64			; 00000040H
  00006	89 4d e0	 mov	 DWORD PTR _this$[ebp], ecx

; 4175 :         return _Traits_equal<_Traits>(_Mypair._Myval2._Myptr(), _Mypair._Myval2._Mysize,

  00009	8b 45 08	 mov	 eax, DWORD PTR __Right$[ebp]
  0000c	89 45 f8	 mov	 DWORD PTR _this$[ebp], eax

; 2218 :         const value_type* _Result = _Bx._Buf;

  0000f	8b 45 f8	 mov	 eax, DWORD PTR _this$[ebp]
  00012	89 45 ec	 mov	 DWORD PTR __Result$5[ebp], eax

; 2227 :         return _BUF_SIZE <= _Myres;

  00015	8b 45 f8	 mov	 eax, DWORD PTR _this$[ebp]
  00018	83 78 14 10	 cmp	 DWORD PTR [eax+20], 16	; 00000010H
  0001c	72 09		 jb	 SHORT $LN9@Equal
  0001e	c7 45 f0 01 00
	00 00		 mov	 DWORD PTR tv95[ebp], 1
  00025	eb 04		 jmp	 SHORT $LN10@Equal
$LN9@Equal:
  00027	83 65 f0 00	 and	 DWORD PTR tv95[ebp], 0
$LN10@Equal:
  0002b	8a 45 f0	 mov	 al, BYTE PTR tv95[ebp]
  0002e	88 45 ff	 mov	 BYTE PTR $T8[ebp], al

; 2219 :         if (_Large_string_engaged()) {

  00031	0f b6 45 ff	 movzx	 eax, BYTE PTR $T8[ebp]
  00035	85 c0		 test	 eax, eax
  00037	74 0e		 je	 SHORT $LN4@Equal

; 2220 :             _Result = _Unfancy(_Bx._Ptr);

  00039	8b 45 f8	 mov	 eax, DWORD PTR _this$[ebp]
  0003c	8b 00		 mov	 eax, DWORD PTR [eax]
  0003e	89 45 d4	 mov	 DWORD PTR __Ptr$[ebp], eax
; File C:\Program Files (x86)\Microsoft Visual Studio\2019\Community\VC\Tools\MSVC\14.28.29333\include\xstddef

; 289  :     return _Ptr;

  00041	8b 45 d4	 mov	 eax, DWORD PTR __Ptr$[ebp]
  00044	89 45 ec	 mov	 DWORD PTR __Result$5[ebp], eax
$LN4@Equal:
; File C:\Program Files (x86)\Microsoft Visual Studio\2019\Community\VC\Tools\MSVC\14.28.29333\include\xstring

; 2223 :         return _Result;

  00047	8b 45 ec	 mov	 eax, DWORD PTR __Result$5[ebp]
  0004a	89 45 c8	 mov	 DWORD PTR $T3[ebp], eax

; 4175 :         return _Traits_equal<_Traits>(_Mypair._Myval2._Myptr(), _Mypair._Myval2._Mysize,

  0004d	8b 45 e0	 mov	 eax, DWORD PTR _this$[ebp]
  00050	89 45 f4	 mov	 DWORD PTR _this$[ebp], eax

; 2218 :         const value_type* _Result = _Bx._Buf;

  00053	8b 45 f4	 mov	 eax, DWORD PTR _this$[ebp]
  00056	89 45 e4	 mov	 DWORD PTR __Result$4[ebp], eax

; 2227 :         return _BUF_SIZE <= _Myres;

  00059	8b 45 f4	 mov	 eax, DWORD PTR _this$[ebp]
  0005c	83 78 14 10	 cmp	 DWORD PTR [eax+20], 16	; 00000010H
  00060	72 09		 jb	 SHORT $LN21@Equal
  00062	c7 45 e8 01 00
	00 00		 mov	 DWORD PTR tv137[ebp], 1
  00069	eb 04		 jmp	 SHORT $LN22@Equal
$LN21@Equal:
  0006b	83 65 e8 00	 and	 DWORD PTR tv137[ebp], 0
$LN22@Equal:
  0006f	8a 45 e8	 mov	 al, BYTE PTR tv137[ebp]
  00072	88 45 fe	 mov	 BYTE PTR $T7[ebp], al

; 2219 :         if (_Large_string_engaged()) {

  00075	0f b6 45 fe	 movzx	 eax, BYTE PTR $T7[ebp]
  00079	85 c0		 test	 eax, eax
  0007b	74 0e		 je	 SHORT $LN16@Equal

; 2220 :             _Result = _Unfancy(_Bx._Ptr);

  0007d	8b 45 f4	 mov	 eax, DWORD PTR _this$[ebp]
  00080	8b 00		 mov	 eax, DWORD PTR [eax]
  00082	89 45 d0	 mov	 DWORD PTR __Ptr$[ebp], eax
; File C:\Program Files (x86)\Microsoft Visual Studio\2019\Community\VC\Tools\MSVC\14.28.29333\include\xstddef

; 289  :     return _Ptr;

  00085	8b 45 d0	 mov	 eax, DWORD PTR __Ptr$[ebp]
  00088	89 45 e4	 mov	 DWORD PTR __Result$4[ebp], eax
$LN16@Equal:
; File C:\Program Files (x86)\Microsoft Visual Studio\2019\Community\VC\Tools\MSVC\14.28.29333\include\xstring

; 2223 :         return _Result;

  0008b	8b 45 e4	 mov	 eax, DWORD PTR __Result$4[ebp]
  0008e	89 45 c4	 mov	 DWORD PTR $T2[ebp], eax

; 4175 :         return _Traits_equal<_Traits>(_Mypair._Myval2._Myptr(), _Mypair._Myval2._Mysize,

  00091	8b 45 08	 mov	 eax, DWORD PTR __Right$[ebp]
  00094	8b 40 10	 mov	 eax, DWORD PTR [eax+16]
  00097	89 45 cc	 mov	 DWORD PTR __Right_size$[ebp], eax
  0009a	8b 45 e0	 mov	 eax, DWORD PTR _this$[ebp]
  0009d	8b 40 10	 mov	 eax, DWORD PTR [eax+16]
  000a0	89 45 dc	 mov	 DWORD PTR __Left_size$[ebp], eax

; 561  :     return _Left_size == _Right_size && _Traits::compare(_Left, _Right, _Left_size) == 0;

  000a3	8b 45 dc	 mov	 eax, DWORD PTR __Left_size$[ebp]
  000a6	3b 45 cc	 cmp	 eax, DWORD PTR __Right_size$[ebp]
  000a9	75 23		 jne	 SHORT $LN29@Equal

; 369  :         return _CSTD memcmp(_First1, _First2, _Count);

  000ab	ff 75 dc	 push	 DWORD PTR __Left_size$[ebp]
  000ae	ff 75 c8	 push	 DWORD PTR $T3[ebp]
  000b1	ff 75 c4	 push	 DWORD PTR $T2[ebp]
  000b4	e8 00 00 00 00	 call	 _memcmp
  000b9	83 c4 0c	 add	 esp, 12			; 0000000cH
  000bc	89 45 c0	 mov	 DWORD PTR $T1[ebp], eax

; 561  :     return _Left_size == _Right_size && _Traits::compare(_Left, _Right, _Left_size) == 0;

  000bf	83 7d c0 00	 cmp	 DWORD PTR $T1[ebp], 0
  000c3	75 09		 jne	 SHORT $LN29@Equal
  000c5	c7 45 d8 01 00
	00 00		 mov	 DWORD PTR tv141[ebp], 1
  000cc	eb 04		 jmp	 SHORT $LN30@Equal
$LN29@Equal:
  000ce	83 65 d8 00	 and	 DWORD PTR tv141[ebp], 0
$LN30@Equal:
  000d2	8a 45 d8	 mov	 al, BYTE PTR tv141[ebp]
  000d5	88 45 fd	 mov	 BYTE PTR $T6[ebp], al

; 4175 :         return _Traits_equal<_Traits>(_Mypair._Myval2._Myptr(), _Mypair._Myval2._Mysize,

  000d8	8a 45 fd	 mov	 al, BYTE PTR $T6[ebp]

; 4176 :             _Right._Mypair._Myval2._Myptr(), _Right._Mypair._Myval2._Mysize);
; 4177 :     }

  000db	c9		 leave
  000dc	c2 04 00	 ret	 4
?_Equal@?$basic_string@DU?$char_traits@D@std@@V?$allocator@D@2@@std@@QBE_NABV12@@Z ENDP ; std::basic_string<char,std::char_traits<char>,std::allocator<char> >::_Equal
_TEXT	ENDS
; Function compile flags: /Odspy
; File C:\Program Files (x86)\Microsoft Visual Studio\2019\Community\VC\Tools\MSVC\14.28.29333\include\xstring
; File C:\Program Files (x86)\Microsoft Visual Studio\2019\Community\VC\Tools\MSVC\14.28.29333\include\xmemory
; File C:\Program Files (x86)\Microsoft Visual Studio\2019\Community\VC\Tools\MSVC\14.28.29333\include\xstring
; File C:\Program Files (x86)\Microsoft Visual Studio\2019\Community\VC\Tools\MSVC\14.28.29333\include\xmemory
; File C:\Program Files (x86)\Microsoft Visual Studio\2019\Community\VC\Tools\MSVC\14.28.29333\include\xstring
; File C:\Program Files (x86)\Microsoft Visual Studio\2019\Community\VC\Tools\MSVC\14.28.29333\include\utility
; File C:\Program Files (x86)\Microsoft Visual Studio\2019\Community\VC\Tools\MSVC\14.28.29333\include\xstring
; File C:\Program Files (x86)\Microsoft Visual Studio\2019\Community\VC\Tools\MSVC\14.28.29333\include\limits
; File C:\Program Files (x86)\Microsoft Visual Studio\2019\Community\VC\Tools\MSVC\14.28.29333\include\xstring
; File C:\Program Files (x86)\Microsoft Visual Studio\2019\Community\VC\Tools\MSVC\14.28.29333\include\utility
; File C:\Program Files (x86)\Microsoft Visual Studio\2019\Community\VC\Tools\MSVC\14.28.29333\include\xstring
;	COMDAT ?max_size@?$basic_string@DU?$char_traits@D@std@@V?$allocator@D@2@@std@@QBEIXZ
_TEXT	SEGMENT
$T1 = -60						; size = 4
$T2 = -56						; size = 4
$T3 = -52						; size = 4
$T4 = -48						; size = 4
__Storage_max$ = -44					; size = 4
$T5 = -40						; size = 4
$T6 = -36						; size = 4
$T7 = -32						; size = 4
_this$ = -28						; size = 4
tv70 = -24						; size = 4
$T8 = -20						; size = 4
$T9 = -16						; size = 4
tv67 = -12						; size = 4
__Alloc_max$ = -8					; size = 4
$T10 = -4						; size = 4
?max_size@?$basic_string@DU?$char_traits@D@std@@V?$allocator@D@2@@std@@QBEIXZ PROC ; std::basic_string<char,std::char_traits<char>,std::allocator<char> >::max_size, COMDAT
; _this$ = ecx

; 3773 :     _NODISCARD size_type max_size() const noexcept {

  00000	55		 push	 ebp
  00001	8b ec		 mov	 ebp, esp
  00003	83 ec 3c	 sub	 esp, 60			; 0000003cH
  00006	89 4d e4	 mov	 DWORD PTR _this$[ebp], ecx

; 4413 :         return _Mypair._Get_first();

  00009	8b 45 e4	 mov	 eax, DWORD PTR _this$[ebp]
; File C:\Program Files (x86)\Microsoft Visual Studio\2019\Community\VC\Tools\MSVC\14.28.29333\include\xmemory

; 1351 :         return *this;

  0000c	89 45 e0	 mov	 DWORD PTR $T7[ebp], eax
; File C:\Program Files (x86)\Microsoft Visual Studio\2019\Community\VC\Tools\MSVC\14.28.29333\include\xstring

; 4413 :         return _Mypair._Get_first();

  0000f	8b 45 e0	 mov	 eax, DWORD PTR $T7[ebp]
  00012	89 45 c4	 mov	 DWORD PTR $T1[ebp], eax
; File C:\Program Files (x86)\Microsoft Visual Studio\2019\Community\VC\Tools\MSVC\14.28.29333\include\xmemory

; 710  :         return static_cast<size_t>(-1) / sizeof(value_type);

  00015	83 4d f8 ff	 or	 DWORD PTR __Alloc_max$[ebp], -1
; File C:\Program Files (x86)\Microsoft Visual Studio\2019\Community\VC\Tools\MSVC\14.28.29333\include\xstring

; 3775 :         const size_type _Storage_max = // can always store small string

  00019	c7 45 fc 10 00
	00 00		 mov	 DWORD PTR $T10[ebp], 16	; 00000010H
; File C:\Program Files (x86)\Microsoft Visual Studio\2019\Community\VC\Tools\MSVC\14.28.29333\include\utility

; 44   :     return _Left < _Right ? _Right : _Left;

  00020	8b 45 f8	 mov	 eax, DWORD PTR __Alloc_max$[ebp]
  00023	3b 45 fc	 cmp	 eax, DWORD PTR $T10[ebp]
  00026	73 08		 jae	 SHORT $LN14@max_size
  00028	8d 45 fc	 lea	 eax, DWORD PTR $T10[ebp]
  0002b	89 45 f4	 mov	 DWORD PTR tv67[ebp], eax
  0002e	eb 06		 jmp	 SHORT $LN15@max_size
$LN14@max_size:
  00030	8d 45 f8	 lea	 eax, DWORD PTR __Alloc_max$[ebp]
  00033	89 45 f4	 mov	 DWORD PTR tv67[ebp], eax
$LN15@max_size:
  00036	8b 45 f4	 mov	 eax, DWORD PTR tv67[ebp]
  00039	89 45 dc	 mov	 DWORD PTR $T6[ebp], eax
  0003c	8b 45 dc	 mov	 eax, DWORD PTR $T6[ebp]
  0003f	89 45 d8	 mov	 DWORD PTR $T5[ebp], eax
; File C:\Program Files (x86)\Microsoft Visual Studio\2019\Community\VC\Tools\MSVC\14.28.29333\include\xstring

; 3775 :         const size_type _Storage_max = // can always store small string

  00042	8b 45 d8	 mov	 eax, DWORD PTR $T5[ebp]
  00045	8b 00		 mov	 eax, DWORD PTR [eax]
  00047	89 45 d4	 mov	 DWORD PTR __Storage_max$[ebp], eax

; 3777 :         return (_STD min)(static_cast<size_type>((numeric_limits<difference_type>::max)()),

  0004a	8b 45 d4	 mov	 eax, DWORD PTR __Storage_max$[ebp]
  0004d	48		 dec	 eax
  0004e	89 45 f0	 mov	 DWORD PTR $T9[ebp], eax
; File C:\Program Files (x86)\Microsoft Visual Studio\2019\Community\VC\Tools\MSVC\14.28.29333\include\limits

; 557  :         return INT_MAX;

  00051	c7 45 d0 ff ff
	ff 7f		 mov	 DWORD PTR $T4[ebp], 2147483647 ; 7fffffffH
; File C:\Program Files (x86)\Microsoft Visual Studio\2019\Community\VC\Tools\MSVC\14.28.29333\include\xstring

; 3777 :         return (_STD min)(static_cast<size_type>((numeric_limits<difference_type>::max)()),

  00058	8b 45 d0	 mov	 eax, DWORD PTR $T4[ebp]
  0005b	89 45 ec	 mov	 DWORD PTR $T8[ebp], eax
; File C:\Program Files (x86)\Microsoft Visual Studio\2019\Community\VC\Tools\MSVC\14.28.29333\include\utility

; 68   :     return _Right < _Left ? _Right : _Left;

  0005e	8b 45 f0	 mov	 eax, DWORD PTR $T9[ebp]
  00061	3b 45 ec	 cmp	 eax, DWORD PTR $T8[ebp]
  00064	73 08		 jae	 SHORT $LN22@max_size
  00066	8d 45 f0	 lea	 eax, DWORD PTR $T9[ebp]
  00069	89 45 e8	 mov	 DWORD PTR tv70[ebp], eax
  0006c	eb 06		 jmp	 SHORT $LN23@max_size
$LN22@max_size:
  0006e	8d 45 ec	 lea	 eax, DWORD PTR $T8[ebp]
  00071	89 45 e8	 mov	 DWORD PTR tv70[ebp], eax
$LN23@max_size:
  00074	8b 45 e8	 mov	 eax, DWORD PTR tv70[ebp]
  00077	89 45 cc	 mov	 DWORD PTR $T3[ebp], eax
  0007a	8b 45 cc	 mov	 eax, DWORD PTR $T3[ebp]
  0007d	89 45 c8	 mov	 DWORD PTR $T2[ebp], eax
; File C:\Program Files (x86)\Microsoft Visual Studio\2019\Community\VC\Tools\MSVC\14.28.29333\include\xstring

; 3777 :         return (_STD min)(static_cast<size_type>((numeric_limits<difference_type>::max)()),

  00080	8b 45 c8	 mov	 eax, DWORD PTR $T2[ebp]
  00083	8b 00		 mov	 eax, DWORD PTR [eax]

; 3778 :             _Storage_max - 1 // -1 is for null terminator and/or npos
; 3779 :         );
; 3780 :     }

  00085	c9		 leave
  00086	c3		 ret	 0
?max_size@?$basic_string@DU?$char_traits@D@std@@V?$allocator@D@2@@std@@QBEIXZ ENDP ; std::basic_string<char,std::char_traits<char>,std::allocator<char> >::max_size
_TEXT	ENDS
; Function compile flags: /Odspy
; File C:\Program Files (x86)\Microsoft Visual Studio\2019\Community\VC\Tools\MSVC\14.28.29333\include\xstring
; File C:\Program Files (x86)\Microsoft Visual Studio\2019\Community\VC\Tools\MSVC\14.28.29333\include\xstddef
; File C:\Program Files (x86)\Microsoft Visual Studio\2019\Community\VC\Tools\MSVC\14.28.29333\include\xstring
;	COMDAT ?c_str@?$basic_string@DU?$char_traits@D@std@@V?$allocator@D@2@@std@@QBEPBDXZ
_TEXT	SEGMENT
$T1 = -28						; size = 4
__Ptr$ = -24						; size = 4
_this$ = -20						; size = 4
__Result$2 = -16					; size = 4
tv80 = -12						; size = 4
_this$ = -8						; size = 4
$T3 = -1						; size = 1
?c_str@?$basic_string@DU?$char_traits@D@std@@V?$allocator@D@2@@std@@QBEPBDXZ PROC ; std::basic_string<char,std::char_traits<char>,std::allocator<char> >::c_str, COMDAT
; _this$ = ecx

; 3751 :     _NODISCARD _Ret_z_ const _Elem* c_str() const noexcept {

  00000	55		 push	 ebp
  00001	8b ec		 mov	 ebp, esp
  00003	83 ec 1c	 sub	 esp, 28			; 0000001cH
  00006	89 4d ec	 mov	 DWORD PTR _this$[ebp], ecx

; 3752 :         return _Mypair._Myval2._Myptr();

  00009	8b 45 ec	 mov	 eax, DWORD PTR _this$[ebp]
  0000c	89 45 f8	 mov	 DWORD PTR _this$[ebp], eax

; 2218 :         const value_type* _Result = _Bx._Buf;

  0000f	8b 45 f8	 mov	 eax, DWORD PTR _this$[ebp]
  00012	89 45 f0	 mov	 DWORD PTR __Result$2[ebp], eax

; 2227 :         return _BUF_SIZE <= _Myres;

  00015	8b 45 f8	 mov	 eax, DWORD PTR _this$[ebp]
  00018	83 78 14 10	 cmp	 DWORD PTR [eax+20], 16	; 00000010H
  0001c	72 09		 jb	 SHORT $LN9@c_str
  0001e	c7 45 f4 01 00
	00 00		 mov	 DWORD PTR tv80[ebp], 1
  00025	eb 04		 jmp	 SHORT $LN10@c_str
$LN9@c_str:
  00027	83 65 f4 00	 and	 DWORD PTR tv80[ebp], 0
$LN10@c_str:
  0002b	8a 45 f4	 mov	 al, BYTE PTR tv80[ebp]
  0002e	88 45 ff	 mov	 BYTE PTR $T3[ebp], al

; 2219 :         if (_Large_string_engaged()) {

  00031	0f b6 45 ff	 movzx	 eax, BYTE PTR $T3[ebp]
  00035	85 c0		 test	 eax, eax
  00037	74 0e		 je	 SHORT $LN4@c_str

; 2220 :             _Result = _Unfancy(_Bx._Ptr);

  00039	8b 45 f8	 mov	 eax, DWORD PTR _this$[ebp]
  0003c	8b 00		 mov	 eax, DWORD PTR [eax]
  0003e	89 45 e8	 mov	 DWORD PTR __Ptr$[ebp], eax
; File C:\Program Files (x86)\Microsoft Visual Studio\2019\Community\VC\Tools\MSVC\14.28.29333\include\xstddef

; 289  :     return _Ptr;

  00041	8b 45 e8	 mov	 eax, DWORD PTR __Ptr$[ebp]
  00044	89 45 f0	 mov	 DWORD PTR __Result$2[ebp], eax
$LN4@c_str:
; File C:\Program Files (x86)\Microsoft Visual Studio\2019\Community\VC\Tools\MSVC\14.28.29333\include\xstring

; 2223 :         return _Result;

  00047	8b 45 f0	 mov	 eax, DWORD PTR __Result$2[ebp]
  0004a	89 45 e4	 mov	 DWORD PTR $T1[ebp], eax

; 3752 :         return _Mypair._Myval2._Myptr();

  0004d	8b 45 e4	 mov	 eax, DWORD PTR $T1[ebp]

; 3753 :     }

  00050	c9		 leave
  00051	c3		 ret	 0
?c_str@?$basic_string@DU?$char_traits@D@std@@V?$allocator@D@2@@std@@QBEPBDXZ ENDP ; std::basic_string<char,std::char_traits<char>,std::allocator<char> >::c_str
_TEXT	ENDS
; Function compile flags: /Odspy
; File C:\Program Files (x86)\Microsoft Visual Studio\2019\Community\VC\Tools\MSVC\14.28.29333\include\xstring
; File C:\Program Files (x86)\Microsoft Visual Studio\2019\Community\VC\Tools\MSVC\14.28.29333\include\xstddef
; File C:\Program Files (x86)\Microsoft Visual Studio\2019\Community\VC\Tools\MSVC\14.28.29333\include\xstring
;	COMDAT ??A?$basic_string@DU?$char_traits@D@std@@V?$allocator@D@2@@std@@QAEAADI@Z
_TEXT	SEGMENT
$T1 = -28						; size = 4
__Ptr$ = -24						; size = 4
_this$ = -20						; size = 4
__Result$2 = -16					; size = 4
tv82 = -12						; size = 4
_this$ = -8						; size = 4
$T3 = -1						; size = 1
__Off$ = 8						; size = 4
??A?$basic_string@DU?$char_traits@D@std@@V?$allocator@D@2@@std@@QAEAADI@Z PROC ; std::basic_string<char,std::char_traits<char>,std::allocator<char> >::operator[], COMDAT
; _this$ = ecx

; 3670 :     _NODISCARD reference operator[](const size_type _Off) noexcept /* strengthened */ {

  00000	55		 push	 ebp
  00001	8b ec		 mov	 ebp, esp
  00003	83 ec 1c	 sub	 esp, 28			; 0000001cH
  00006	89 4d ec	 mov	 DWORD PTR _this$[ebp], ecx

; 3671 : #if _CONTAINER_DEBUG_LEVEL > 0
; 3672 :         _STL_VERIFY(_Off <= _Mypair._Myval2._Mysize, "string subscript out of range");
; 3673 : #endif // _CONTAINER_DEBUG_LEVEL > 0
; 3674 :         return _Mypair._Myval2._Myptr()[_Off];

  00009	8b 45 ec	 mov	 eax, DWORD PTR _this$[ebp]
  0000c	89 45 f8	 mov	 DWORD PTR _this$[ebp], eax

; 2209 :         value_type* _Result = _Bx._Buf;

  0000f	8b 45 f8	 mov	 eax, DWORD PTR _this$[ebp]
  00012	89 45 f0	 mov	 DWORD PTR __Result$2[ebp], eax

; 2227 :         return _BUF_SIZE <= _Myres;

  00015	8b 45 f8	 mov	 eax, DWORD PTR _this$[ebp]
  00018	83 78 14 10	 cmp	 DWORD PTR [eax+20], 16	; 00000010H
  0001c	72 09		 jb	 SHORT $LN9@operator
  0001e	c7 45 f4 01 00
	00 00		 mov	 DWORD PTR tv82[ebp], 1
  00025	eb 04		 jmp	 SHORT $LN10@operator
$LN9@operator:
  00027	83 65 f4 00	 and	 DWORD PTR tv82[ebp], 0
$LN10@operator:
  0002b	8a 45 f4	 mov	 al, BYTE PTR tv82[ebp]
  0002e	88 45 ff	 mov	 BYTE PTR $T3[ebp], al

; 2210 :         if (_Large_string_engaged()) {

  00031	0f b6 45 ff	 movzx	 eax, BYTE PTR $T3[ebp]
  00035	85 c0		 test	 eax, eax
  00037	74 0e		 je	 SHORT $LN4@operator

; 2211 :             _Result = _Unfancy(_Bx._Ptr);

  00039	8b 45 f8	 mov	 eax, DWORD PTR _this$[ebp]
  0003c	8b 00		 mov	 eax, DWORD PTR [eax]
  0003e	89 45 e8	 mov	 DWORD PTR __Ptr$[ebp], eax
; File C:\Program Files (x86)\Microsoft Visual Studio\2019\Community\VC\Tools\MSVC\14.28.29333\include\xstddef

; 289  :     return _Ptr;

  00041	8b 45 e8	 mov	 eax, DWORD PTR __Ptr$[ebp]
  00044	89 45 f0	 mov	 DWORD PTR __Result$2[ebp], eax
$LN4@operator:
; File C:\Program Files (x86)\Microsoft Visual Studio\2019\Community\VC\Tools\MSVC\14.28.29333\include\xstring

; 2214 :         return _Result;

  00047	8b 45 f0	 mov	 eax, DWORD PTR __Result$2[ebp]
  0004a	89 45 e4	 mov	 DWORD PTR $T1[ebp], eax

; 3671 : #if _CONTAINER_DEBUG_LEVEL > 0
; 3672 :         _STL_VERIFY(_Off <= _Mypair._Myval2._Mysize, "string subscript out of range");
; 3673 : #endif // _CONTAINER_DEBUG_LEVEL > 0
; 3674 :         return _Mypair._Myval2._Myptr()[_Off];

  0004d	8b 45 e4	 mov	 eax, DWORD PTR $T1[ebp]
  00050	03 45 08	 add	 eax, DWORD PTR __Off$[ebp]

; 3675 :     }

  00053	c9		 leave
  00054	c2 04 00	 ret	 4
??A?$basic_string@DU?$char_traits@D@std@@V?$allocator@D@2@@std@@QAEAADI@Z ENDP ; std::basic_string<char,std::char_traits<char>,std::allocator<char> >::operator[]
_TEXT	ENDS
; Function compile flags: /Odspy
; File C:\Program Files (x86)\Microsoft Visual Studio\2019\Community\VC\Tools\MSVC\14.28.29333\include\xstring
;	COMDAT ?assign@?$basic_string@DU?$char_traits@D@std@@V?$allocator@D@2@@std@@QAEAAV12@QBDI@Z
_TEXT	SEGMENT
$T1 = -16						; size = 1
__Old_ptr$2 = -12					; size = 4
_this$ = -8						; size = 4
$T3 = -1						; size = 1
__Ptr$ = 8						; size = 4
__Count$ = 12						; size = 4
?assign@?$basic_string@DU?$char_traits@D@std@@V?$allocator@D@2@@std@@QAEAAV12@QBDI@Z PROC ; std::basic_string<char,std::char_traits<char>,std::allocator<char> >::assign, COMDAT
; _this$ = ecx

; 3042 :     basic_string& assign(_In_reads_(_Count) const _Elem* const _Ptr, _CRT_GUARDOVERFLOW const size_type _Count) {

  00000	55		 push	 ebp
  00001	8b ec		 mov	 ebp, esp
  00003	83 ec 10	 sub	 esp, 16			; 00000010H
  00006	89 4d f8	 mov	 DWORD PTR _this$[ebp], ecx

; 3043 :         // assign [_Ptr, _Ptr + _Count)
; 3044 :         if (_Count <= _Mypair._Myval2._Myres) {

  00009	8b 45 f8	 mov	 eax, DWORD PTR _this$[ebp]
  0000c	8b 4d 0c	 mov	 ecx, DWORD PTR __Count$[ebp]
  0000f	3b 48 14	 cmp	 ecx, DWORD PTR [eax+20]
  00012	77 39		 ja	 SHORT $LN2@assign

; 3045 :             _Elem* const _Old_ptr   = _Mypair._Myval2._Myptr();

  00014	8b 4d f8	 mov	 ecx, DWORD PTR _this$[ebp]
  00017	e8 00 00 00 00	 call	 ?_Myptr@?$_String_val@U?$_Simple_types@D@std@@@std@@QAEPADXZ ; std::_String_val<std::_Simple_types<char> >::_Myptr
  0001c	89 45 f4	 mov	 DWORD PTR __Old_ptr$2[ebp], eax

; 3046 :             _Mypair._Myval2._Mysize = _Count;

  0001f	8b 45 f8	 mov	 eax, DWORD PTR _this$[ebp]
  00022	8b 4d 0c	 mov	 ecx, DWORD PTR __Count$[ebp]
  00025	89 48 10	 mov	 DWORD PTR [eax+16], ecx

; 119  :         _CSTD memmove(_First1, _First2, _Count * sizeof(_Elem));

  00028	ff 75 0c	 push	 DWORD PTR __Count$[ebp]
  0002b	ff 75 08	 push	 DWORD PTR __Ptr$[ebp]
  0002e	ff 75 f4	 push	 DWORD PTR __Old_ptr$2[ebp]
  00031	e8 00 00 00 00	 call	 _memmove
  00036	83 c4 0c	 add	 esp, 12			; 0000000cH

; 3047 :             _Traits::move(_Old_ptr, _Ptr, _Count);
; 3048 :             _Traits::assign(_Old_ptr[_Count], _Elem());

  00039	c6 45 ff 00	 mov	 BYTE PTR $T3[ebp], 0

; 428  :         _Left = _Right;

  0003d	8b 45 f4	 mov	 eax, DWORD PTR __Old_ptr$2[ebp]
  00040	03 45 0c	 add	 eax, DWORD PTR __Count$[ebp]
  00043	8a 4d ff	 mov	 cl, BYTE PTR $T3[ebp]
  00046	88 08		 mov	 BYTE PTR [eax], cl

; 3049 :             return *this;

  00048	8b 45 f8	 mov	 eax, DWORD PTR _this$[ebp]
  0004b	eb 16		 jmp	 SHORT $LN1@assign
$LN2@assign:

; 3050 :         }
; 3051 : 
; 3052 :         return _Reallocate_for(

  0004d	33 c0		 xor	 eax, eax
  0004f	88 45 f0	 mov	 BYTE PTR $T1[ebp], al
  00052	ff 75 08	 push	 DWORD PTR __Ptr$[ebp]
  00055	ff 75 f0	 push	 DWORD PTR $T1[ebp]
  00058	ff 75 0c	 push	 DWORD PTR __Count$[ebp]
  0005b	8b 4d f8	 mov	 ecx, DWORD PTR _this$[ebp]
  0005e	e8 00 00 00 00	 call	 ??$_Reallocate_for@V<lambda_9366063389c5f42a00a5088cf24e69de>@@PBD@?$basic_string@DU?$char_traits@D@std@@V?$allocator@D@2@@std@@AAEAAV01@IV<lambda_9366063389c5f42a00a5088cf24e69de>@@PBD@Z ; std::basic_string<char,std::char_traits<char>,std::allocator<char> >::_Reallocate_for<<lambda_9366063389c5f42a00a5088cf24e69de>,char const *>
$LN1@assign:

; 3053 :             _Count,
; 3054 :             [](_Elem* const _New_ptr, const size_type _Count, const _Elem* const _Ptr) {
; 3055 :                 _Traits::copy(_New_ptr, _Ptr, _Count);
; 3056 :                 _Traits::assign(_New_ptr[_Count], _Elem());
; 3057 :             },
; 3058 :             _Ptr);
; 3059 :     }

  00063	c9		 leave
  00064	c2 08 00	 ret	 8
?assign@?$basic_string@DU?$char_traits@D@std@@V?$allocator@D@2@@std@@QAEAAV12@QBDI@Z ENDP ; std::basic_string<char,std::char_traits<char>,std::allocator<char> >::assign
_TEXT	ENDS
; Function compile flags: /Odspy
; File C:\Program Files (x86)\Microsoft Visual Studio\2019\Community\VC\Tools\MSVC\14.28.29333\include\xstring
;	COMDAT ??1?$basic_string@DU?$char_traits@D@std@@V?$allocator@D@2@@std@@QAE@XZ
_TEXT	SEGMENT
_this$ = -4						; size = 4
??1?$basic_string@DU?$char_traits@D@std@@V?$allocator@D@2@@std@@QAE@XZ PROC ; std::basic_string<char,std::char_traits<char>,std::allocator<char> >::~basic_string<char,std::char_traits<char>,std::allocator<char> >, COMDAT
; _this$ = ecx

; 2800 :     ~basic_string() noexcept {

  00000	55		 push	 ebp
  00001	8b ec		 mov	 ebp, esp
  00003	51		 push	 ecx
  00004	89 4d fc	 mov	 DWORD PTR _this$[ebp], ecx

; 2801 :         _Tidy_deallocate();

  00007	8b 4d fc	 mov	 ecx, DWORD PTR _this$[ebp]
  0000a	e8 00 00 00 00	 call	 ?_Tidy_deallocate@?$basic_string@DU?$char_traits@D@std@@V?$allocator@D@2@@std@@AAEXXZ ; std::basic_string<char,std::char_traits<char>,std::allocator<char> >::_Tidy_deallocate

; 2802 : #if _ITERATOR_DEBUG_LEVEL != 0
; 2803 :         auto&& _Alproxy          = _GET_PROXY_ALLOCATOR(_Alty, _Getal());
; 2804 :         const auto _To_delete    = _Mypair._Myval2._Myproxy;
; 2805 :         _Mypair._Myval2._Myproxy = nullptr;
; 2806 :         _Delete_plain_internal(_Alproxy, _To_delete);
; 2807 : #endif // _ITERATOR_DEBUG_LEVEL != 0
; 2808 :     }

  0000f	c9		 leave
  00010	c3		 ret	 0
??1?$basic_string@DU?$char_traits@D@std@@V?$allocator@D@2@@std@@QAE@XZ ENDP ; std::basic_string<char,std::char_traits<char>,std::allocator<char> >::~basic_string<char,std::char_traits<char>,std::allocator<char> >
_TEXT	ENDS
; Function compile flags: /Odspy
; File C:\Program Files (x86)\Microsoft Visual Studio\2019\Community\VC\Tools\MSVC\14.28.29333\include\xstring
; File C:\Program Files (x86)\Microsoft Visual Studio\2019\Community\VC\Tools\MSVC\14.28.29333\include\xmemory
; File C:\Program Files (x86)\Microsoft Visual Studio\2019\Community\VC\Tools\MSVC\14.28.29333\include\xstring
; File C:\Program Files (x86)\Microsoft Visual Studio\2019\Community\VC\Tools\MSVC\14.28.29333\include\utility
; File C:\Program Files (x86)\Microsoft Visual Studio\2019\Community\VC\Tools\MSVC\14.28.29333\include\xstring
; File C:\Program Files (x86)\Microsoft Visual Studio\2019\Community\VC\Tools\MSVC\14.28.29333\include\xmemory
; File C:\Program Files (x86)\Microsoft Visual Studio\2019\Community\VC\Tools\MSVC\14.28.29333\include\xstring
; File C:\Program Files (x86)\Microsoft Visual Studio\2019\Community\VC\Tools\MSVC\14.28.29333\include\xmemory
; File C:\Program Files (x86)\Microsoft Visual Studio\2019\Community\VC\Tools\MSVC\14.28.29333\include\xstring
; File C:\Program Files (x86)\Microsoft Visual Studio\2019\Community\VC\Tools\MSVC\14.28.29333\include\xstddef
; File C:\Program Files (x86)\Microsoft Visual Studio\2019\Community\VC\Tools\MSVC\14.28.29333\include\xstring
;	COMDAT ?_Construct_lv_contents@?$basic_string@DU?$char_traits@D@std@@V?$allocator@D@2@@std@@AAEXABV12@@Z
_TEXT	SEGMENT
__Al$ = -72						; size = 4
$T1 = -68						; size = 4
__Ptr$ = -64						; size = 4
$T2 = -60						; size = 4
$T3 = -56						; size = 4
$T4 = -52						; size = 4
__First1$ = -48						; size = 4
__New_capacity$ = -44					; size = 4
__Right_ptr$ = -40					; size = 4
__New_array$ = -36					; size = 4
tv138 = -32						; size = 4
$T5 = -28						; size = 4
$T6 = -24						; size = 4
__Right_data$ = -20					; size = 4
_this$ = -16						; size = 4
__Right_size$ = -12					; size = 4
__My_data$ = -8						; size = 4
__Overflow_is_possible$7 = -1				; size = 1
__Right$ = 8						; size = 4
?_Construct_lv_contents@?$basic_string@DU?$char_traits@D@std@@V?$allocator@D@2@@std@@AAEXABV12@@Z PROC ; std::basic_string<char,std::char_traits<char>,std::allocator<char> >::_Construct_lv_contents, COMDAT
; _this$ = ecx

; 2728 :     void _Construct_lv_contents(const basic_string& _Right) {

  00000	55		 push	 ebp
  00001	8b ec		 mov	 ebp, esp
  00003	83 ec 48	 sub	 esp, 72			; 00000048H
  00006	89 4d f0	 mov	 DWORD PTR _this$[ebp], ecx

; 2729 :         // assign by copying data stored in _Right
; 2730 :         // pre: this != &_Right
; 2731 :         // pre: *this owns no memory, iterators orphaned (note:
; 2732 :         // _Buf/_Ptr/_Mysize/_Myres may be garbage init)
; 2733 :         auto& _Right_data             = _Right._Mypair._Myval2;

  00009	8b 45 08	 mov	 eax, DWORD PTR __Right$[ebp]
  0000c	89 45 ec	 mov	 DWORD PTR __Right_data$[ebp], eax

; 2734 :         const size_type _Right_size   = _Right_data._Mysize;

  0000f	8b 45 ec	 mov	 eax, DWORD PTR __Right_data$[ebp]
  00012	8b 40 10	 mov	 eax, DWORD PTR [eax+16]
  00015	89 45 f4	 mov	 DWORD PTR __Right_size$[ebp], eax

; 2735 :         const _Elem* const _Right_ptr = _Right_data._Myptr();

  00018	8b 4d ec	 mov	 ecx, DWORD PTR __Right_data$[ebp]
  0001b	e8 00 00 00 00	 call	 ?_Myptr@?$_String_val@U?$_Simple_types@D@std@@@std@@QBEPBDXZ ; std::_String_val<std::_Simple_types<char> >::_Myptr
  00020	89 45 d8	 mov	 DWORD PTR __Right_ptr$[ebp], eax

; 2736 :         auto& _My_data                = _Mypair._Myval2;

  00023	8b 45 f0	 mov	 eax, DWORD PTR _this$[ebp]
  00026	89 45 f8	 mov	 DWORD PTR __My_data$[ebp], eax

; 2737 :         if (_Right_size < _BUF_SIZE) { // stay small, don't allocate

  00029	83 7d f4 10	 cmp	 DWORD PTR __Right_size$[ebp], 16 ; 00000010H
  0002d	73 2e		 jae	 SHORT $LN2@Construct_

; 2738 :             _Traits::copy(_My_data._Bx._Buf, _Right_ptr, _BUF_SIZE);

  0002f	8b 45 f8	 mov	 eax, DWORD PTR __My_data$[ebp]
  00032	89 45 d0	 mov	 DWORD PTR __First1$[ebp], eax

; 62   :         _CSTD memcpy(_First1, _First2, _Count * sizeof(_Elem));

  00035	6a 10		 push	 16			; 00000010H
  00037	ff 75 d8	 push	 DWORD PTR __Right_ptr$[ebp]
  0003a	ff 75 d0	 push	 DWORD PTR __First1$[ebp]
  0003d	e8 00 00 00 00	 call	 _memcpy
  00042	83 c4 0c	 add	 esp, 12			; 0000000cH

; 2739 :             _My_data._Mysize = _Right_size;

  00045	8b 45 f8	 mov	 eax, DWORD PTR __My_data$[ebp]
  00048	8b 4d f4	 mov	 ecx, DWORD PTR __Right_size$[ebp]
  0004b	89 48 10	 mov	 DWORD PTR [eax+16], ecx

; 2740 :             _My_data._Myres  = _BUF_SIZE - 1;

  0004e	8b 45 f8	 mov	 eax, DWORD PTR __My_data$[ebp]
  00051	c7 40 14 0f 00
	00 00		 mov	 DWORD PTR [eax+20], 15	; 0000000fH

; 2741 :             return;

  00058	e9 9b 00 00 00	 jmp	 $LN1@Construct_
$LN2@Construct_:

; 4409 :         return _Mypair._Get_first();

  0005d	8b 45 f0	 mov	 eax, DWORD PTR _this$[ebp]
; File C:\Program Files (x86)\Microsoft Visual Studio\2019\Community\VC\Tools\MSVC\14.28.29333\include\xmemory

; 1347 :         return *this;

  00060	89 45 cc	 mov	 DWORD PTR $T4[ebp], eax
; File C:\Program Files (x86)\Microsoft Visual Studio\2019\Community\VC\Tools\MSVC\14.28.29333\include\xstring

; 4409 :         return _Mypair._Get_first();

  00063	8b 45 cc	 mov	 eax, DWORD PTR $T4[ebp]
  00066	89 45 b8	 mov	 DWORD PTR __Al$[ebp], eax

; 2745 :         const size_type _New_capacity = (_STD min)(_Right_size | _ALLOC_MASK, max_size());

  00069	8b 4d f0	 mov	 ecx, DWORD PTR _this$[ebp]
  0006c	e8 00 00 00 00	 call	 ?max_size@?$basic_string@DU?$char_traits@D@std@@V?$allocator@D@2@@std@@QBEIXZ ; std::basic_string<char,std::char_traits<char>,std::allocator<char> >::max_size
  00071	89 45 e8	 mov	 DWORD PTR $T6[ebp], eax
  00074	8b 45 f4	 mov	 eax, DWORD PTR __Right_size$[ebp]
  00077	83 c8 0f	 or	 eax, 15			; 0000000fH
  0007a	89 45 e4	 mov	 DWORD PTR $T5[ebp], eax
; File C:\Program Files (x86)\Microsoft Visual Studio\2019\Community\VC\Tools\MSVC\14.28.29333\include\utility

; 68   :     return _Right < _Left ? _Right : _Left;

  0007d	8b 45 e8	 mov	 eax, DWORD PTR $T6[ebp]
  00080	3b 45 e4	 cmp	 eax, DWORD PTR $T5[ebp]
  00083	73 08		 jae	 SHORT $LN52@Construct_
  00085	8d 45 e8	 lea	 eax, DWORD PTR $T6[ebp]
  00088	89 45 e0	 mov	 DWORD PTR tv138[ebp], eax
  0008b	eb 06		 jmp	 SHORT $LN53@Construct_
$LN52@Construct_:
  0008d	8d 45 e4	 lea	 eax, DWORD PTR $T5[ebp]
  00090	89 45 e0	 mov	 DWORD PTR tv138[ebp], eax
$LN53@Construct_:
  00093	8b 45 e0	 mov	 eax, DWORD PTR tv138[ebp]
  00096	89 45 c8	 mov	 DWORD PTR $T3[ebp], eax
  00099	8b 45 c8	 mov	 eax, DWORD PTR $T3[ebp]
  0009c	89 45 c4	 mov	 DWORD PTR $T2[ebp], eax
; File C:\Program Files (x86)\Microsoft Visual Studio\2019\Community\VC\Tools\MSVC\14.28.29333\include\xstring

; 2745 :         const size_type _New_capacity = (_STD min)(_Right_size | _ALLOC_MASK, max_size());

  0009f	8b 45 c4	 mov	 eax, DWORD PTR $T2[ebp]
  000a2	8b 00		 mov	 eax, DWORD PTR [eax]
  000a4	89 45 d4	 mov	 DWORD PTR __New_capacity$[ebp], eax
; File C:\Program Files (x86)\Microsoft Visual Studio\2019\Community\VC\Tools\MSVC\14.28.29333\include\xmemory

; 56   :     constexpr bool _Overflow_is_possible = _Ty_size > 1;

  000a7	c6 45 ff 00	 mov	 BYTE PTR __Overflow_is_possible$7[ebp], 0
; File C:\Program Files (x86)\Microsoft Visual Studio\2019\Community\VC\Tools\MSVC\14.28.29333\include\xstring

; 2746 :         const pointer _New_array      = _Al.allocate(_New_capacity + 1); // throws

  000ab	8b 45 d4	 mov	 eax, DWORD PTR __New_capacity$[ebp]
  000ae	40		 inc	 eax
; File C:\Program Files (x86)\Microsoft Visual Studio\2019\Community\VC\Tools\MSVC\14.28.29333\include\xmemory

; 814  :         return static_cast<_Ty*>(_Allocate<_New_alignof<_Ty>>(_Get_size_of_n<sizeof(_Ty)>(_Count)));

  000af	50		 push	 eax
  000b0	e8 00 00 00 00	 call	 ??$_Allocate@$07U_Default_allocate_traits@std@@$0A@@std@@YAPAXI@Z ; std::_Allocate<8,std::_Default_allocate_traits,0>
  000b5	59		 pop	 ecx
; File C:\Program Files (x86)\Microsoft Visual Studio\2019\Community\VC\Tools\MSVC\14.28.29333\include\xstring

; 2746 :         const pointer _New_array      = _Al.allocate(_New_capacity + 1); // throws

  000b6	89 45 dc	 mov	 DWORD PTR __New_array$[ebp], eax

; 2747 :         _Construct_in_place(_My_data._Bx._Ptr, _New_array);

  000b9	8d 45 dc	 lea	 eax, DWORD PTR __New_array$[ebp]
  000bc	50		 push	 eax
  000bd	ff 75 f8	 push	 DWORD PTR __My_data$[ebp]
  000c0	e8 00 00 00 00	 call	 ??$_Construct_in_place@PADABQAD@std@@YAXAAPADABQAD@Z ; std::_Construct_in_place<char *,char * const &>
  000c5	59		 pop	 ecx
  000c6	59		 pop	 ecx

; 2748 :         _Traits::copy(_Unfancy(_New_array), _Right_ptr, _Right_size + 1);

  000c7	8b 45 dc	 mov	 eax, DWORD PTR __New_array$[ebp]
  000ca	89 45 c0	 mov	 DWORD PTR __Ptr$[ebp], eax
; File C:\Program Files (x86)\Microsoft Visual Studio\2019\Community\VC\Tools\MSVC\14.28.29333\include\xstddef

; 289  :     return _Ptr;

  000cd	8b 45 c0	 mov	 eax, DWORD PTR __Ptr$[ebp]
  000d0	89 45 bc	 mov	 DWORD PTR $T1[ebp], eax
; File C:\Program Files (x86)\Microsoft Visual Studio\2019\Community\VC\Tools\MSVC\14.28.29333\include\xstring

; 2748 :         _Traits::copy(_Unfancy(_New_array), _Right_ptr, _Right_size + 1);

  000d3	8b 45 f4	 mov	 eax, DWORD PTR __Right_size$[ebp]
  000d6	40		 inc	 eax

; 62   :         _CSTD memcpy(_First1, _First2, _Count * sizeof(_Elem));

  000d7	50		 push	 eax
  000d8	ff 75 d8	 push	 DWORD PTR __Right_ptr$[ebp]
  000db	ff 75 bc	 push	 DWORD PTR $T1[ebp]
  000de	e8 00 00 00 00	 call	 _memcpy
  000e3	83 c4 0c	 add	 esp, 12			; 0000000cH

; 2749 :         _My_data._Mysize = _Right_size;

  000e6	8b 45 f8	 mov	 eax, DWORD PTR __My_data$[ebp]
  000e9	8b 4d f4	 mov	 ecx, DWORD PTR __Right_size$[ebp]
  000ec	89 48 10	 mov	 DWORD PTR [eax+16], ecx

; 2750 :         _My_data._Myres  = _New_capacity;

  000ef	8b 45 f8	 mov	 eax, DWORD PTR __My_data$[ebp]
  000f2	8b 4d d4	 mov	 ecx, DWORD PTR __New_capacity$[ebp]
  000f5	89 48 14	 mov	 DWORD PTR [eax+20], ecx
$LN1@Construct_:

; 2751 :     }

  000f8	c9		 leave
  000f9	c2 04 00	 ret	 4
?_Construct_lv_contents@?$basic_string@DU?$char_traits@D@std@@V?$allocator@D@2@@std@@AAEXABV12@@Z ENDP ; std::basic_string<char,std::char_traits<char>,std::allocator<char> >::_Construct_lv_contents
_TEXT	ENDS
; Function compile flags: /Odspy
; File C:\Program Files (x86)\Microsoft Visual Studio\2019\Community\VC\Tools\MSVC\14.28.29333\include\xstring
; File C:\Program Files (x86)\Microsoft Visual Studio\2019\Community\VC\Tools\MSVC\14.28.29333\include\xmemory
; File C:\Program Files (x86)\Microsoft Visual Studio\2019\Community\VC\Tools\MSVC\14.28.29333\include\xstring
; File C:\Program Files (x86)\Microsoft Visual Studio\2019\Community\VC\Tools\MSVC\14.28.29333\include\xmemory
; File C:\Program Files (x86)\Microsoft Visual Studio\2019\Community\VC\Tools\MSVC\14.28.29333\include\xstring
;	COMDAT ??0?$basic_string@DU?$char_traits@D@std@@V?$allocator@D@2@@std@@QAE@QBD@Z
_TEXT	SEGMENT
__Alproxy$ = -40					; size = 4
$T2 = -36						; size = 4
$T3 = -32						; size = 4
_this$ = -28						; size = 4
_this$ = -24						; size = 4
_this$ = -20						; size = 4
_$S6$ = -13						; size = 1
__$EHRec$ = -12						; size = 12
__Ptr$ = 8						; size = 4
??0?$basic_string@DU?$char_traits@D@std@@V?$allocator@D@2@@std@@QAE@QBD@Z PROC ; std::basic_string<char,std::char_traits<char>,std::allocator<char> >::basic_string<char,std::char_traits<char>,std::allocator<char> >, COMDAT
; _this$ = ecx

; 2413 :     basic_string(_In_z_ const _Elem* const _Ptr) : _Mypair(_Zero_then_variadic_args_t{}) {

  00000	55		 push	 ebp
  00001	8b ec		 mov	 ebp, esp
  00003	6a ff		 push	 -1
  00005	68 00 00 00 00	 push	 __ehhandler$??0?$basic_string@DU?$char_traits@D@std@@V?$allocator@D@2@@std@@QAE@QBD@Z
  0000a	64 a1 00 00 00
	00		 mov	 eax, DWORD PTR fs:0
  00010	50		 push	 eax
  00011	83 ec 1c	 sub	 esp, 28			; 0000001cH
  00014	a1 00 00 00 00	 mov	 eax, DWORD PTR ___security_cookie
  00019	33 c5		 xor	 eax, ebp
  0001b	50		 push	 eax
  0001c	8d 45 f4	 lea	 eax, DWORD PTR __$EHRec$[ebp]
  0001f	64 a3 00 00 00
	00		 mov	 DWORD PTR fs:0, eax
  00025	89 4d ec	 mov	 DWORD PTR _this$[ebp], ecx
  00028	8b 45 ec	 mov	 eax, DWORD PTR _this$[ebp]
  0002b	89 45 e4	 mov	 DWORD PTR _this$[ebp], eax
; File C:\Program Files (x86)\Microsoft Visual Studio\2019\Community\VC\Tools\MSVC\14.28.29333\include\xmemory

; 1339 :         : _Ty1(), _Myval2(_STD forward<_Other2>(_Val2)...) {}

  0002e	8b 45 e4	 mov	 eax, DWORD PTR _this$[ebp]
  00031	89 45 e8	 mov	 DWORD PTR _this$[ebp], eax
; File C:\Program Files (x86)\Microsoft Visual Studio\2019\Community\VC\Tools\MSVC\14.28.29333\include\xstring

; 2198 :     _String_val() noexcept : _Bx(), _Mysize(0), _Myres(0) {}

  00034	8b 45 e8	 mov	 eax, DWORD PTR _this$[ebp]
  00037	83 60 10 00	 and	 DWORD PTR [eax+16], 0
  0003b	8b 45 e8	 mov	 eax, DWORD PTR _this$[ebp]
  0003e	83 60 14 00	 and	 DWORD PTR [eax+20], 0

; 2413 :     basic_string(_In_z_ const _Elem* const _Ptr) : _Mypair(_Zero_then_variadic_args_t{}) {

  00042	83 65 fc 00	 and	 DWORD PTR __$EHRec$[ebp+8], 0

; 2414 :         auto&& _Alproxy = _GET_PROXY_ALLOCATOR(_Alty, _Getal());

  00046	8d 45 f3	 lea	 eax, DWORD PTR _$S6$[ebp]
  00049	89 45 d8	 mov	 DWORD PTR __Alproxy$[ebp], eax

; 2415 :         _Container_proxy_ptr<_Alty> _Proxy(_Alproxy, _Mypair._Myval2);
; 2416 :         _Tidy_init();

  0004c	8b 4d ec	 mov	 ecx, DWORD PTR _this$[ebp]
  0004f	e8 00 00 00 00	 call	 ?_Tidy_init@?$basic_string@DU?$char_traits@D@std@@V?$allocator@D@2@@std@@AAEXXZ ; std::basic_string<char,std::char_traits<char>,std::allocator<char> >::_Tidy_init

; 389  :         return _CSTD strlen(reinterpret_cast<const char*>(_First));

  00054	ff 75 08	 push	 DWORD PTR __Ptr$[ebp]
  00057	e8 00 00 00 00	 call	 _strlen
  0005c	59		 pop	 ecx
  0005d	89 45 e0	 mov	 DWORD PTR $T3[ebp], eax
; File C:\Program Files (x86)\Microsoft Visual Studio\2019\Community\VC\Tools\MSVC\14.28.29333\include\xmemory

; 997  :     return _Len;

  00060	8b 45 e0	 mov	 eax, DWORD PTR $T3[ebp]
  00063	89 45 dc	 mov	 DWORD PTR $T2[ebp], eax
; File C:\Program Files (x86)\Microsoft Visual Studio\2019\Community\VC\Tools\MSVC\14.28.29333\include\xstring

; 3062 :         return assign(_Ptr, _Convert_size<size_type>(_Traits::length(_Ptr)));

  00066	ff 75 dc	 push	 DWORD PTR $T2[ebp]
  00069	ff 75 08	 push	 DWORD PTR __Ptr$[ebp]
  0006c	8b 4d ec	 mov	 ecx, DWORD PTR _this$[ebp]
  0006f	e8 00 00 00 00	 call	 ?assign@?$basic_string@DU?$char_traits@D@std@@V?$allocator@D@2@@std@@QAEAAV12@QBDI@Z ; std::basic_string<char,std::char_traits<char>,std::allocator<char> >::assign

; 2417 :         assign(_Ptr);
; 2418 :         _Proxy._Release();
; 2419 :     }

  00074	83 4d fc ff	 or	 DWORD PTR __$EHRec$[ebp+8], -1
  00078	8b 45 ec	 mov	 eax, DWORD PTR _this$[ebp]
  0007b	8b 4d f4	 mov	 ecx, DWORD PTR __$EHRec$[ebp]
  0007e	64 89 0d 00 00
	00 00		 mov	 DWORD PTR fs:0, ecx
  00085	59		 pop	 ecx
  00086	c9		 leave
  00087	c2 04 00	 ret	 4
_TEXT	ENDS
;	COMDAT text$x
text$x	SEGMENT
__unwindfunclet$??0?$basic_string@DU?$char_traits@D@std@@V?$allocator@D@2@@std@@QAE@QBD@Z$0:
  00000	8b 4d ec	 mov	 ecx, DWORD PTR _this$[ebp]
  00003	e9 00 00 00 00	 jmp	 ??1?$_Compressed_pair@V?$allocator@D@std@@V?$_String_val@U?$_Simple_types@D@std@@@2@$00@std@@QAE@XZ
  00008	cc		 int	 3
  00009	cc		 int	 3
  0000a	cc		 int	 3
  0000b	cc		 int	 3
  0000c	cc		 int	 3
__ehhandler$??0?$basic_string@DU?$char_traits@D@std@@V?$allocator@D@2@@std@@QAE@QBD@Z:
  0000d	90		 npad	 1
  0000e	90		 npad	 1
  0000f	8b 54 24 08	 mov	 edx, DWORD PTR [esp+8]
  00013	8d 42 0c	 lea	 eax, DWORD PTR [edx+12]
  00016	8b 4a e0	 mov	 ecx, DWORD PTR [edx-32]
  00019	33 c8		 xor	 ecx, eax
  0001b	e8 00 00 00 00	 call	 @__security_check_cookie@4
  00020	b8 00 00 00 00	 mov	 eax, OFFSET __ehfuncinfo$??0?$basic_string@DU?$char_traits@D@std@@V?$allocator@D@2@@std@@QAE@QBD@Z
  00025	e9 00 00 00 00	 jmp	 ___CxxFrameHandler3
text$x	ENDS
??0?$basic_string@DU?$char_traits@D@std@@V?$allocator@D@2@@std@@QAE@QBD@Z ENDP ; std::basic_string<char,std::char_traits<char>,std::allocator<char> >::basic_string<char,std::char_traits<char>,std::allocator<char> >
; Function compile flags: /Odspy
; File C:\Program Files (x86)\Microsoft Visual Studio\2019\Community\VC\Tools\MSVC\14.28.29333\include\xstring
; File C:\Program Files (x86)\Microsoft Visual Studio\2019\Community\VC\Tools\MSVC\14.28.29333\include\xmemory
; File C:\Program Files (x86)\Microsoft Visual Studio\2019\Community\VC\Tools\MSVC\14.28.29333\include\xstring
; File C:\Program Files (x86)\Microsoft Visual Studio\2019\Community\VC\Tools\MSVC\14.28.29333\include\xmemory
; File C:\Program Files (x86)\Microsoft Visual Studio\2019\Community\VC\Tools\MSVC\14.28.29333\include\xstring
;	COMDAT ??0?$basic_string@DU?$char_traits@D@std@@V?$allocator@D@2@@std@@QAE@ABV01@@Z
_TEXT	SEGMENT
__Alproxy$ = -40					; size = 4
$T2 = -36						; size = 4
_this$ = -32						; size = 4
$T3 = -28						; size = 4
_this$ = -24						; size = 4
_this$ = -20						; size = 4
_$S9$ = -13						; size = 1
__$EHRec$ = -12						; size = 12
__Right$ = 8						; size = 4
??0?$basic_string@DU?$char_traits@D@std@@V?$allocator@D@2@@std@@QAE@ABV01@@Z PROC ; std::basic_string<char,std::char_traits<char>,std::allocator<char> >::basic_string<char,std::char_traits<char>,std::allocator<char> >, COMDAT
; _this$ = ecx

; 2351 :         : _Mypair(_One_then_variadic_args_t{}, _Alty_traits::select_on_container_copy_construction(_Right._Getal())) {

  00000	55		 push	 ebp
  00001	8b ec		 mov	 ebp, esp
  00003	6a ff		 push	 -1
  00005	68 00 00 00 00	 push	 __ehhandler$??0?$basic_string@DU?$char_traits@D@std@@V?$allocator@D@2@@std@@QAE@ABV01@@Z
  0000a	64 a1 00 00 00
	00		 mov	 eax, DWORD PTR fs:0
  00010	50		 push	 eax
  00011	83 ec 1c	 sub	 esp, 28			; 0000001cH
  00014	a1 00 00 00 00	 mov	 eax, DWORD PTR ___security_cookie
  00019	33 c5		 xor	 eax, ebp
  0001b	50		 push	 eax
  0001c	8d 45 f4	 lea	 eax, DWORD PTR __$EHRec$[ebp]
  0001f	64 a3 00 00 00
	00		 mov	 DWORD PTR fs:0, eax
  00025	89 4d ec	 mov	 DWORD PTR _this$[ebp], ecx

; 4413 :         return _Mypair._Get_first();

  00028	8b 45 08	 mov	 eax, DWORD PTR __Right$[ebp]
; File C:\Program Files (x86)\Microsoft Visual Studio\2019\Community\VC\Tools\MSVC\14.28.29333\include\xmemory

; 1351 :         return *this;

  0002b	89 45 e4	 mov	 DWORD PTR $T3[ebp], eax
; File C:\Program Files (x86)\Microsoft Visual Studio\2019\Community\VC\Tools\MSVC\14.28.29333\include\xstring

; 4413 :         return _Mypair._Get_first();

  0002e	8b 45 e4	 mov	 eax, DWORD PTR $T3[ebp]
  00031	89 45 dc	 mov	 DWORD PTR $T2[ebp], eax

; 2351 :         : _Mypair(_One_then_variadic_args_t{}, _Alty_traits::select_on_container_copy_construction(_Right._Getal())) {

  00034	8b 45 ec	 mov	 eax, DWORD PTR _this$[ebp]
  00037	89 45 e0	 mov	 DWORD PTR _this$[ebp], eax
; File C:\Program Files (x86)\Microsoft Visual Studio\2019\Community\VC\Tools\MSVC\14.28.29333\include\xmemory

; 1344 :         : _Ty1(_STD forward<_Other1>(_Val1)), _Myval2(_STD forward<_Other2>(_Val2)...) {}

  0003a	8b 45 e0	 mov	 eax, DWORD PTR _this$[ebp]
  0003d	89 45 e8	 mov	 DWORD PTR _this$[ebp], eax
; File C:\Program Files (x86)\Microsoft Visual Studio\2019\Community\VC\Tools\MSVC\14.28.29333\include\xstring

; 2198 :     _String_val() noexcept : _Bx(), _Mysize(0), _Myres(0) {}

  00040	8b 45 e8	 mov	 eax, DWORD PTR _this$[ebp]
  00043	83 60 10 00	 and	 DWORD PTR [eax+16], 0
  00047	8b 45 e8	 mov	 eax, DWORD PTR _this$[ebp]
  0004a	83 60 14 00	 and	 DWORD PTR [eax+20], 0

; 2351 :         : _Mypair(_One_then_variadic_args_t{}, _Alty_traits::select_on_container_copy_construction(_Right._Getal())) {

  0004e	83 65 fc 00	 and	 DWORD PTR __$EHRec$[ebp+8], 0

; 2352 :         auto&& _Alproxy = _GET_PROXY_ALLOCATOR(_Alty, _Getal());

  00052	8d 45 f3	 lea	 eax, DWORD PTR _$S9$[ebp]
  00055	89 45 d8	 mov	 DWORD PTR __Alproxy$[ebp], eax

; 2353 :         _Container_proxy_ptr<_Alty> _Proxy(_Alproxy, _Mypair._Myval2);
; 2354 :         _Construct_lv_contents(_Right);

  00058	ff 75 08	 push	 DWORD PTR __Right$[ebp]
  0005b	8b 4d ec	 mov	 ecx, DWORD PTR _this$[ebp]
  0005e	e8 00 00 00 00	 call	 ?_Construct_lv_contents@?$basic_string@DU?$char_traits@D@std@@V?$allocator@D@2@@std@@AAEXABV12@@Z ; std::basic_string<char,std::char_traits<char>,std::allocator<char> >::_Construct_lv_contents

; 2355 :         _Proxy._Release();
; 2356 :     }

  00063	83 4d fc ff	 or	 DWORD PTR __$EHRec$[ebp+8], -1
  00067	8b 45 ec	 mov	 eax, DWORD PTR _this$[ebp]
  0006a	8b 4d f4	 mov	 ecx, DWORD PTR __$EHRec$[ebp]
  0006d	64 89 0d 00 00
	00 00		 mov	 DWORD PTR fs:0, ecx
  00074	59		 pop	 ecx
  00075	c9		 leave
  00076	c2 04 00	 ret	 4
_TEXT	ENDS
;	COMDAT text$x
text$x	SEGMENT
__unwindfunclet$??0?$basic_string@DU?$char_traits@D@std@@V?$allocator@D@2@@std@@QAE@ABV01@@Z$0:
  00000	8b 4d ec	 mov	 ecx, DWORD PTR _this$[ebp]
  00003	e9 00 00 00 00	 jmp	 ??1?$_Compressed_pair@V?$allocator@D@std@@V?$_String_val@U?$_Simple_types@D@std@@@2@$00@std@@QAE@XZ
  00008	cc		 int	 3
  00009	cc		 int	 3
  0000a	cc		 int	 3
  0000b	cc		 int	 3
  0000c	cc		 int	 3
__ehhandler$??0?$basic_string@DU?$char_traits@D@std@@V?$allocator@D@2@@std@@QAE@ABV01@@Z:
  0000d	90		 npad	 1
  0000e	90		 npad	 1
  0000f	8b 54 24 08	 mov	 edx, DWORD PTR [esp+8]
  00013	8d 42 0c	 lea	 eax, DWORD PTR [edx+12]
  00016	8b 4a e0	 mov	 ecx, DWORD PTR [edx-32]
  00019	33 c8		 xor	 ecx, eax
  0001b	e8 00 00 00 00	 call	 @__security_check_cookie@4
  00020	b8 00 00 00 00	 mov	 eax, OFFSET __ehfuncinfo$??0?$basic_string@DU?$char_traits@D@std@@V?$allocator@D@2@@std@@QAE@ABV01@@Z
  00025	e9 00 00 00 00	 jmp	 ___CxxFrameHandler3
text$x	ENDS
??0?$basic_string@DU?$char_traits@D@std@@V?$allocator@D@2@@std@@QAE@ABV01@@Z ENDP ; std::basic_string<char,std::char_traits<char>,std::allocator<char> >::basic_string<char,std::char_traits<char>,std::allocator<char> >
; Function compile flags: /Odspy
; File C:\Program Files (x86)\Microsoft Visual Studio\2019\Community\VC\Tools\MSVC\14.28.29333\include\xstring
; File C:\Program Files (x86)\Microsoft Visual Studio\2019\Community\VC\Tools\MSVC\14.28.29333\include\xstddef
; File C:\Program Files (x86)\Microsoft Visual Studio\2019\Community\VC\Tools\MSVC\14.28.29333\include\xstring
;	COMDAT ?_Myptr@?$_String_val@U?$_Simple_types@D@std@@@std@@QBEPBDXZ
_TEXT	SEGMENT
__Ptr$ = -20						; size = 4
__Result$ = -16						; size = 4
tv76 = -12						; size = 4
_this$ = -8						; size = 4
$T1 = -1						; size = 1
?_Myptr@?$_String_val@U?$_Simple_types@D@std@@@std@@QBEPBDXZ PROC ; std::_String_val<std::_Simple_types<char> >::_Myptr, COMDAT
; _this$ = ecx

; 2217 :     const value_type* _Myptr() const noexcept {

  00000	55		 push	 ebp
  00001	8b ec		 mov	 ebp, esp
  00003	83 ec 14	 sub	 esp, 20			; 00000014H
  00006	89 4d f8	 mov	 DWORD PTR _this$[ebp], ecx

; 2218 :         const value_type* _Result = _Bx._Buf;

  00009	8b 45 f8	 mov	 eax, DWORD PTR _this$[ebp]
  0000c	89 45 f0	 mov	 DWORD PTR __Result$[ebp], eax

; 2227 :         return _BUF_SIZE <= _Myres;

  0000f	8b 45 f8	 mov	 eax, DWORD PTR _this$[ebp]
  00012	83 78 14 10	 cmp	 DWORD PTR [eax+20], 16	; 00000010H
  00016	72 09		 jb	 SHORT $LN6@Myptr
  00018	c7 45 f4 01 00
	00 00		 mov	 DWORD PTR tv76[ebp], 1
  0001f	eb 04		 jmp	 SHORT $LN7@Myptr
$LN6@Myptr:
  00021	83 65 f4 00	 and	 DWORD PTR tv76[ebp], 0
$LN7@Myptr:
  00025	8a 45 f4	 mov	 al, BYTE PTR tv76[ebp]
  00028	88 45 ff	 mov	 BYTE PTR $T1[ebp], al

; 2219 :         if (_Large_string_engaged()) {

  0002b	0f b6 45 ff	 movzx	 eax, BYTE PTR $T1[ebp]
  0002f	85 c0		 test	 eax, eax
  00031	74 0e		 je	 SHORT $LN2@Myptr

; 2220 :             _Result = _Unfancy(_Bx._Ptr);

  00033	8b 45 f8	 mov	 eax, DWORD PTR _this$[ebp]
  00036	8b 00		 mov	 eax, DWORD PTR [eax]
  00038	89 45 ec	 mov	 DWORD PTR __Ptr$[ebp], eax
; File C:\Program Files (x86)\Microsoft Visual Studio\2019\Community\VC\Tools\MSVC\14.28.29333\include\xstddef

; 289  :     return _Ptr;

  0003b	8b 45 ec	 mov	 eax, DWORD PTR __Ptr$[ebp]
  0003e	89 45 f0	 mov	 DWORD PTR __Result$[ebp], eax
$LN2@Myptr:
; File C:\Program Files (x86)\Microsoft Visual Studio\2019\Community\VC\Tools\MSVC\14.28.29333\include\xstring

; 2223 :         return _Result;

  00041	8b 45 f0	 mov	 eax, DWORD PTR __Result$[ebp]

; 2224 :     }

  00044	c9		 leave
  00045	c3		 ret	 0
?_Myptr@?$_String_val@U?$_Simple_types@D@std@@@std@@QBEPBDXZ ENDP ; std::_String_val<std::_Simple_types<char> >::_Myptr
_TEXT	ENDS
; Function compile flags: /Odspy
; File C:\Program Files (x86)\Microsoft Visual Studio\2019\Community\VC\Tools\MSVC\14.28.29333\include\xstring
; File C:\Program Files (x86)\Microsoft Visual Studio\2019\Community\VC\Tools\MSVC\14.28.29333\include\xstddef
; File C:\Program Files (x86)\Microsoft Visual Studio\2019\Community\VC\Tools\MSVC\14.28.29333\include\xstring
;	COMDAT ?_Myptr@?$_String_val@U?$_Simple_types@D@std@@@std@@QAEPADXZ
_TEXT	SEGMENT
__Ptr$ = -20						; size = 4
__Result$ = -16						; size = 4
tv76 = -12						; size = 4
_this$ = -8						; size = 4
$T1 = -1						; size = 1
?_Myptr@?$_String_val@U?$_Simple_types@D@std@@@std@@QAEPADXZ PROC ; std::_String_val<std::_Simple_types<char> >::_Myptr, COMDAT
; _this$ = ecx

; 2208 :     value_type* _Myptr() noexcept {

  00000	55		 push	 ebp
  00001	8b ec		 mov	 ebp, esp
  00003	83 ec 14	 sub	 esp, 20			; 00000014H
  00006	89 4d f8	 mov	 DWORD PTR _this$[ebp], ecx

; 2209 :         value_type* _Result = _Bx._Buf;

  00009	8b 45 f8	 mov	 eax, DWORD PTR _this$[ebp]
  0000c	89 45 f0	 mov	 DWORD PTR __Result$[ebp], eax

; 2227 :         return _BUF_SIZE <= _Myres;

  0000f	8b 45 f8	 mov	 eax, DWORD PTR _this$[ebp]
  00012	83 78 14 10	 cmp	 DWORD PTR [eax+20], 16	; 00000010H
  00016	72 09		 jb	 SHORT $LN6@Myptr
  00018	c7 45 f4 01 00
	00 00		 mov	 DWORD PTR tv76[ebp], 1
  0001f	eb 04		 jmp	 SHORT $LN7@Myptr
$LN6@Myptr:
  00021	83 65 f4 00	 and	 DWORD PTR tv76[ebp], 0
$LN7@Myptr:
  00025	8a 45 f4	 mov	 al, BYTE PTR tv76[ebp]
  00028	88 45 ff	 mov	 BYTE PTR $T1[ebp], al

; 2210 :         if (_Large_string_engaged()) {

  0002b	0f b6 45 ff	 movzx	 eax, BYTE PTR $T1[ebp]
  0002f	85 c0		 test	 eax, eax
  00031	74 0e		 je	 SHORT $LN2@Myptr

; 2211 :             _Result = _Unfancy(_Bx._Ptr);

  00033	8b 45 f8	 mov	 eax, DWORD PTR _this$[ebp]
  00036	8b 00		 mov	 eax, DWORD PTR [eax]
  00038	89 45 ec	 mov	 DWORD PTR __Ptr$[ebp], eax
; File C:\Program Files (x86)\Microsoft Visual Studio\2019\Community\VC\Tools\MSVC\14.28.29333\include\xstddef

; 289  :     return _Ptr;

  0003b	8b 45 ec	 mov	 eax, DWORD PTR __Ptr$[ebp]
  0003e	89 45 f0	 mov	 DWORD PTR __Result$[ebp], eax
$LN2@Myptr:
; File C:\Program Files (x86)\Microsoft Visual Studio\2019\Community\VC\Tools\MSVC\14.28.29333\include\xstring

; 2214 :         return _Result;

  00041	8b 45 f0	 mov	 eax, DWORD PTR __Result$[ebp]

; 2215 :     }

  00044	c9		 leave
  00045	c3		 ret	 0
?_Myptr@?$_String_val@U?$_Simple_types@D@std@@@std@@QAEPADXZ ENDP ; std::_String_val<std::_Simple_types<char> >::_Myptr
_TEXT	ENDS
; Function compile flags: /Odspy
; File C:\Program Files (x86)\Microsoft Visual Studio\2019\Community\VC\Tools\MSVC\14.28.29333\include\xstring
;	COMDAT ??0?$_String_val@U?$_Simple_types@D@std@@@std@@QAE@XZ
_TEXT	SEGMENT
_this$ = -4						; size = 4
??0?$_String_val@U?$_Simple_types@D@std@@@std@@QAE@XZ PROC ; std::_String_val<std::_Simple_types<char> >::_String_val<std::_Simple_types<char> >, COMDAT
; _this$ = ecx

; 2198 :     _String_val() noexcept : _Bx(), _Mysize(0), _Myres(0) {}

  00000	55		 push	 ebp
  00001	8b ec		 mov	 ebp, esp
  00003	51		 push	 ecx
  00004	89 4d fc	 mov	 DWORD PTR _this$[ebp], ecx
  00007	8b 45 fc	 mov	 eax, DWORD PTR _this$[ebp]
  0000a	83 60 10 00	 and	 DWORD PTR [eax+16], 0
  0000e	8b 45 fc	 mov	 eax, DWORD PTR _this$[ebp]
  00011	83 60 14 00	 and	 DWORD PTR [eax+20], 0
  00015	8b 45 fc	 mov	 eax, DWORD PTR _this$[ebp]
  00018	c9		 leave
  00019	c3		 ret	 0
??0?$_String_val@U?$_Simple_types@D@std@@@std@@QAE@XZ ENDP ; std::_String_val<std::_Simple_types<char> >::_String_val<std::_Simple_types<char> >
_TEXT	ENDS
; Function compile flags: /Odspy
; File C:\Program Files (x86)\Microsoft Visual Studio\2019\Community\VC\Tools\MSVC\14.28.29333\include\xstring
;	COMDAT ?_Xlen_string@std@@YAXXZ
_TEXT	SEGMENT
?_Xlen_string@std@@YAXXZ PROC				; std::_Xlen_string, COMDAT

; 2274 : [[noreturn]] inline void _Xlen_string() {

  00000	55		 push	 ebp
  00001	8b ec		 mov	 ebp, esp

; 2275 :     _Xlength_error("string too long");

  00003	68 00 00 00 00	 push	 OFFSET ??_C@_0BA@JFNIOLAK@string?5too?5long@
  00008	e8 00 00 00 00	 call	 ?_Xlength_error@std@@YAXPBD@Z ; std::_Xlength_error
$LN2@Xlen_strin:

; 2276 : }

  0000d	5d		 pop	 ebp
  0000e	c3		 ret	 0
?_Xlen_string@std@@YAXXZ ENDP				; std::_Xlen_string
_TEXT	ENDS
; Function compile flags: /Odspy
; File C:\Program Files (x86)\Microsoft Visual Studio\2019\Community\VC\Tools\MSVC\14.28.29333\include\xmemory
;	COMDAT ?_Adjust_manually_vector_aligned@std@@YAXAAPAXAAI@Z
_TEXT	SEGMENT
__Min_back_shift$ = -16					; size = 4
__Ptr_user$ = -12					; size = 4
__Ptr_container$ = -8					; size = 4
__Back_shift$ = -4					; size = 4
__Ptr$ = 8						; size = 4
__Bytes$ = 12						; size = 4
?_Adjust_manually_vector_aligned@std@@YAXAAPAXAAI@Z PROC ; std::_Adjust_manually_vector_aligned, COMDAT

; 132  : inline void _Adjust_manually_vector_aligned(void*& _Ptr, size_t& _Bytes) {

  00000	55		 push	 ebp
  00001	8b ec		 mov	 ebp, esp
  00003	83 ec 10	 sub	 esp, 16			; 00000010H

; 133  :     // adjust parameters from _Allocate_manually_vector_aligned to pass to operator delete
; 134  :     _Bytes += _Non_user_size;

  00006	8b 45 0c	 mov	 eax, DWORD PTR __Bytes$[ebp]
  00009	8b 00		 mov	 eax, DWORD PTR [eax]
  0000b	83 c0 23	 add	 eax, 35			; 00000023H
  0000e	8b 4d 0c	 mov	 ecx, DWORD PTR __Bytes$[ebp]
  00011	89 01		 mov	 DWORD PTR [ecx], eax

; 135  : 
; 136  :     const uintptr_t* const _Ptr_user = reinterpret_cast<uintptr_t*>(_Ptr);

  00013	8b 45 08	 mov	 eax, DWORD PTR __Ptr$[ebp]
  00016	8b 00		 mov	 eax, DWORD PTR [eax]
  00018	89 45 f4	 mov	 DWORD PTR __Ptr_user$[ebp], eax

; 137  :     const uintptr_t _Ptr_container   = _Ptr_user[-1];

  0001b	6a 04		 push	 4
  0001d	58		 pop	 eax
  0001e	6b c0 ff	 imul	 eax, eax, -1
  00021	8b 4d f4	 mov	 ecx, DWORD PTR __Ptr_user$[ebp]
  00024	8b 04 01	 mov	 eax, DWORD PTR [ecx+eax]
  00027	89 45 f8	 mov	 DWORD PTR __Ptr_container$[ebp], eax

; 138  : 
; 139  :     // If the following asserts, it likely means that we are performing
; 140  :     // an aligned delete on memory coming from an unaligned allocation.
; 141  :     _STL_ASSERT(_Ptr_user[-2] == _Big_allocation_sentinel, "invalid argument");
; 142  : 
; 143  :     // Extra paranoia on aligned allocation/deallocation; ensure _Ptr_container is
; 144  :     // in range [_Min_back_shift, _Non_user_size]
; 145  : #ifdef _DEBUG
; 146  :     constexpr uintptr_t _Min_back_shift = 2 * sizeof(void*);
; 147  : #else // ^^^ _DEBUG ^^^ // vvv !_DEBUG vvv
; 148  :     constexpr uintptr_t _Min_back_shift = sizeof(void*);

  0002a	c7 45 f0 04 00
	00 00		 mov	 DWORD PTR __Min_back_shift$[ebp], 4

; 149  : #endif // _DEBUG
; 150  :     const uintptr_t _Back_shift = reinterpret_cast<uintptr_t>(_Ptr) - _Ptr_container;

  00031	8b 45 08	 mov	 eax, DWORD PTR __Ptr$[ebp]
  00034	8b 00		 mov	 eax, DWORD PTR [eax]
  00036	2b 45 f8	 sub	 eax, DWORD PTR __Ptr_container$[ebp]
  00039	89 45 fc	 mov	 DWORD PTR __Back_shift$[ebp], eax
$LN4@Adjust_man:

; 151  :     _STL_VERIFY(_Back_shift >= _Min_back_shift && _Back_shift <= _Non_user_size, "invalid argument");

  0003c	83 7d fc 04	 cmp	 DWORD PTR __Back_shift$[ebp], 4
  00040	72 08		 jb	 SHORT $LN7@Adjust_man
  00042	83 7d fc 23	 cmp	 DWORD PTR __Back_shift$[ebp], 35 ; 00000023H
  00046	77 02		 ja	 SHORT $LN7@Adjust_man
  00048	eb 09		 jmp	 SHORT $LN2@Adjust_man
$LN7@Adjust_man:
  0004a	e8 00 00 00 00	 call	 __invalid_parameter_noinfo_noreturn
  0004f	33 c0		 xor	 eax, eax
  00051	75 f7		 jne	 SHORT $LN7@Adjust_man
$LN2@Adjust_man:
  00053	33 c0		 xor	 eax, eax
  00055	75 e5		 jne	 SHORT $LN4@Adjust_man

; 152  :     _Ptr = reinterpret_cast<void*>(_Ptr_container);

  00057	8b 45 08	 mov	 eax, DWORD PTR __Ptr$[ebp]
  0005a	8b 4d f8	 mov	 ecx, DWORD PTR __Ptr_container$[ebp]
  0005d	89 08		 mov	 DWORD PTR [eax], ecx
$LN10@Adjust_man:

; 153  : }

  0005f	c9		 leave
  00060	c3		 ret	 0
?_Adjust_manually_vector_aligned@std@@YAXAAPAXAAI@Z ENDP ; std::_Adjust_manually_vector_aligned
_TEXT	ENDS
; Function compile flags: /Odspy
; File C:\Program Files (x86)\Microsoft Visual Studio\2019\Community\VC\Tools\MSVC\14.28.29333\include\exception
;	COMDAT ?_Throw_bad_array_new_length@std@@YAXXZ
_TEXT	SEGMENT
$T1 = -12						; size = 12
?_Throw_bad_array_new_length@std@@YAXXZ PROC		; std::_Throw_bad_array_new_length, COMDAT

; 320  : [[noreturn]] inline void _Throw_bad_array_new_length() {

  00000	55		 push	 ebp
  00001	8b ec		 mov	 ebp, esp
  00003	83 ec 0c	 sub	 esp, 12			; 0000000cH

; 321  :     _THROW(bad_array_new_length{});

  00006	8d 4d f4	 lea	 ecx, DWORD PTR $T1[ebp]
  00009	e8 00 00 00 00	 call	 ??0bad_array_new_length@std@@QAE@XZ ; std::bad_array_new_length::bad_array_new_length
  0000e	68 00 00 00 00	 push	 OFFSET __TI3?AVbad_array_new_length@std@@
  00013	8d 45 f4	 lea	 eax, DWORD PTR $T1[ebp]
  00016	50		 push	 eax
  00017	e8 00 00 00 00	 call	 __CxxThrowException@8
$LN2@Throw_bad_:

; 322  : }

  0001c	c9		 leave
  0001d	c3		 ret	 0
?_Throw_bad_array_new_length@std@@YAXXZ ENDP		; std::_Throw_bad_array_new_length
_TEXT	ENDS
; Function compile flags: /Odspy
; File C:\Program Files (x86)\Microsoft Visual Studio\2019\Community\VC\Tools\MSVC\14.28.29333\include\vcruntime_exception.h
;	COMDAT ??_Gbad_array_new_length@std@@UAEPAXI@Z
_TEXT	SEGMENT
_this$ = -4						; size = 4
___flags$ = 8						; size = 4
??_Gbad_array_new_length@std@@UAEPAXI@Z PROC		; std::bad_array_new_length::`scalar deleting destructor', COMDAT
; _this$ = ecx
  00000	55		 push	 ebp
  00001	8b ec		 mov	 ebp, esp
  00003	51		 push	 ecx
  00004	89 4d fc	 mov	 DWORD PTR _this$[ebp], ecx

; 89   :     {

  00007	8b 45 fc	 mov	 eax, DWORD PTR _this$[ebp]
  0000a	c7 00 00 00 00
	00		 mov	 DWORD PTR [eax], OFFSET ??_7exception@std@@6B@

; 90   :         __std_exception_destroy(&_Data);

  00010	8b 45 fc	 mov	 eax, DWORD PTR _this$[ebp]
  00013	83 c0 04	 add	 eax, 4
  00016	50		 push	 eax
  00017	e8 00 00 00 00	 call	 ___std_exception_destroy
  0001c	59		 pop	 ecx
  0001d	8b 45 08	 mov	 eax, DWORD PTR ___flags$[ebp]
  00020	83 e0 01	 and	 eax, 1
  00023	74 0c		 je	 SHORT $LN2@scalar
  00025	6a 0c		 push	 12			; 0000000cH
  00027	ff 75 fc	 push	 DWORD PTR _this$[ebp]
  0002a	e8 00 00 00 00	 call	 ??3@YAXPAXI@Z		; operator delete
  0002f	59		 pop	 ecx
  00030	59		 pop	 ecx
$LN2@scalar:
  00031	8b 45 fc	 mov	 eax, DWORD PTR _this$[ebp]
  00034	c9		 leave
  00035	c2 04 00	 ret	 4
??_Gbad_array_new_length@std@@UAEPAXI@Z ENDP		; std::bad_array_new_length::`scalar deleting destructor'
_TEXT	ENDS
; Function compile flags: /Odspy
;	COMDAT ??0bad_array_new_length@std@@QAE@ABV01@@Z
_TEXT	SEGMENT
_this$ = -4						; size = 4
___that$ = 8						; size = 4
??0bad_array_new_length@std@@QAE@ABV01@@Z PROC		; std::bad_array_new_length::bad_array_new_length, COMDAT
; _this$ = ecx
  00000	55		 push	 ebp
  00001	8b ec		 mov	 ebp, esp
  00003	51		 push	 ecx
  00004	89 4d fc	 mov	 DWORD PTR _this$[ebp], ecx
  00007	ff 75 08	 push	 DWORD PTR ___that$[ebp]
  0000a	8b 4d fc	 mov	 ecx, DWORD PTR _this$[ebp]
  0000d	e8 00 00 00 00	 call	 ??0exception@std@@QAE@ABV01@@Z ; std::exception::exception
  00012	8b 45 fc	 mov	 eax, DWORD PTR _this$[ebp]
  00015	c7 00 00 00 00
	00		 mov	 DWORD PTR [eax], OFFSET ??_7bad_alloc@std@@6B@
  0001b	8b 45 fc	 mov	 eax, DWORD PTR _this$[ebp]
  0001e	c7 00 00 00 00
	00		 mov	 DWORD PTR [eax], OFFSET ??_7bad_array_new_length@std@@6B@
  00024	8b 45 fc	 mov	 eax, DWORD PTR _this$[ebp]
  00027	c9		 leave
  00028	c2 04 00	 ret	 4
??0bad_array_new_length@std@@QAE@ABV01@@Z ENDP		; std::bad_array_new_length::bad_array_new_length
_TEXT	ENDS
; Function compile flags: /Odspy
; File C:\Program Files (x86)\Microsoft Visual Studio\2019\Community\VC\Tools\MSVC\14.28.29333\include\vcruntime_exception.h
;	COMDAT ??1bad_array_new_length@std@@UAE@XZ
_TEXT	SEGMENT
_this$ = -4						; size = 4
??1bad_array_new_length@std@@UAE@XZ PROC		; std::bad_array_new_length::~bad_array_new_length, COMDAT
; _this$ = ecx
  00000	55		 push	 ebp
  00001	8b ec		 mov	 ebp, esp
  00003	51		 push	 ecx
  00004	89 4d fc	 mov	 DWORD PTR _this$[ebp], ecx

; 89   :     {

  00007	8b 45 fc	 mov	 eax, DWORD PTR _this$[ebp]
  0000a	c7 00 00 00 00
	00		 mov	 DWORD PTR [eax], OFFSET ??_7exception@std@@6B@

; 90   :         __std_exception_destroy(&_Data);

  00010	8b 45 fc	 mov	 eax, DWORD PTR _this$[ebp]
  00013	83 c0 04	 add	 eax, 4
  00016	50		 push	 eax
  00017	e8 00 00 00 00	 call	 ___std_exception_destroy
  0001c	59		 pop	 ecx
  0001d	c9		 leave
  0001e	c3		 ret	 0
??1bad_array_new_length@std@@UAE@XZ ENDP		; std::bad_array_new_length::~bad_array_new_length
_TEXT	ENDS
; Function compile flags: /Odspy
; File C:\Program Files (x86)\Microsoft Visual Studio\2019\Community\VC\Tools\MSVC\14.28.29333\include\vcruntime_exception.h
;	COMDAT ??0bad_array_new_length@std@@QAE@XZ
_TEXT	SEGMENT
_this$ = -4						; size = 4
??0bad_array_new_length@std@@QAE@XZ PROC		; std::bad_array_new_length::bad_array_new_length, COMDAT
; _this$ = ecx

; 141  :     {

  00000	55		 push	 ebp
  00001	8b ec		 mov	 ebp, esp
  00003	51		 push	 ecx
  00004	89 4d fc	 mov	 DWORD PTR _this$[ebp], ecx

; 66   :     {

  00007	8b 45 fc	 mov	 eax, DWORD PTR _this$[ebp]
  0000a	c7 00 00 00 00
	00		 mov	 DWORD PTR [eax], OFFSET ??_7exception@std@@6B@

; 65   :         : _Data()

  00010	33 c0		 xor	 eax, eax
  00012	8b 4d fc	 mov	 ecx, DWORD PTR _this$[ebp]
  00015	83 c1 04	 add	 ecx, 4
  00018	89 01		 mov	 DWORD PTR [ecx], eax
  0001a	89 41 04	 mov	 DWORD PTR [ecx+4], eax

; 67   :         _Data._What = _Message;

  0001d	8b 45 fc	 mov	 eax, DWORD PTR _this$[ebp]
  00020	c7 40 04 00 00
	00 00		 mov	 DWORD PTR [eax+4], OFFSET ??_C@_0BF@KINCDENJ@bad?5array?5new?5length@

; 130  :     {

  00027	8b 45 fc	 mov	 eax, DWORD PTR _this$[ebp]
  0002a	c7 00 00 00 00
	00		 mov	 DWORD PTR [eax], OFFSET ??_7bad_alloc@std@@6B@

; 141  :     {

  00030	8b 45 fc	 mov	 eax, DWORD PTR _this$[ebp]
  00033	c7 00 00 00 00
	00		 mov	 DWORD PTR [eax], OFFSET ??_7bad_array_new_length@std@@6B@

; 142  :     }

  00039	8b 45 fc	 mov	 eax, DWORD PTR _this$[ebp]
  0003c	c9		 leave
  0003d	c3		 ret	 0
??0bad_array_new_length@std@@QAE@XZ ENDP		; std::bad_array_new_length::bad_array_new_length
_TEXT	ENDS
; Function compile flags: /Odspy
; File C:\Program Files (x86)\Microsoft Visual Studio\2019\Community\VC\Tools\MSVC\14.28.29333\include\vcruntime_exception.h
;	COMDAT ??_Gbad_alloc@std@@UAEPAXI@Z
_TEXT	SEGMENT
_this$ = -4						; size = 4
___flags$ = 8						; size = 4
??_Gbad_alloc@std@@UAEPAXI@Z PROC			; std::bad_alloc::`scalar deleting destructor', COMDAT
; _this$ = ecx
  00000	55		 push	 ebp
  00001	8b ec		 mov	 ebp, esp
  00003	51		 push	 ecx
  00004	89 4d fc	 mov	 DWORD PTR _this$[ebp], ecx

; 89   :     {

  00007	8b 45 fc	 mov	 eax, DWORD PTR _this$[ebp]
  0000a	c7 00 00 00 00
	00		 mov	 DWORD PTR [eax], OFFSET ??_7exception@std@@6B@

; 90   :         __std_exception_destroy(&_Data);

  00010	8b 45 fc	 mov	 eax, DWORD PTR _this$[ebp]
  00013	83 c0 04	 add	 eax, 4
  00016	50		 push	 eax
  00017	e8 00 00 00 00	 call	 ___std_exception_destroy
  0001c	59		 pop	 ecx
  0001d	8b 45 08	 mov	 eax, DWORD PTR ___flags$[ebp]
  00020	83 e0 01	 and	 eax, 1
  00023	74 0c		 je	 SHORT $LN2@scalar
  00025	6a 0c		 push	 12			; 0000000cH
  00027	ff 75 fc	 push	 DWORD PTR _this$[ebp]
  0002a	e8 00 00 00 00	 call	 ??3@YAXPAXI@Z		; operator delete
  0002f	59		 pop	 ecx
  00030	59		 pop	 ecx
$LN2@scalar:
  00031	8b 45 fc	 mov	 eax, DWORD PTR _this$[ebp]
  00034	c9		 leave
  00035	c2 04 00	 ret	 4
??_Gbad_alloc@std@@UAEPAXI@Z ENDP			; std::bad_alloc::`scalar deleting destructor'
_TEXT	ENDS
; Function compile flags: /Odspy
;	COMDAT ??0bad_alloc@std@@QAE@ABV01@@Z
_TEXT	SEGMENT
_this$ = -4						; size = 4
___that$ = 8						; size = 4
??0bad_alloc@std@@QAE@ABV01@@Z PROC			; std::bad_alloc::bad_alloc, COMDAT
; _this$ = ecx
  00000	55		 push	 ebp
  00001	8b ec		 mov	 ebp, esp
  00003	51		 push	 ecx
  00004	89 4d fc	 mov	 DWORD PTR _this$[ebp], ecx
  00007	ff 75 08	 push	 DWORD PTR ___that$[ebp]
  0000a	8b 4d fc	 mov	 ecx, DWORD PTR _this$[ebp]
  0000d	e8 00 00 00 00	 call	 ??0exception@std@@QAE@ABV01@@Z ; std::exception::exception
  00012	8b 45 fc	 mov	 eax, DWORD PTR _this$[ebp]
  00015	c7 00 00 00 00
	00		 mov	 DWORD PTR [eax], OFFSET ??_7bad_alloc@std@@6B@
  0001b	8b 45 fc	 mov	 eax, DWORD PTR _this$[ebp]
  0001e	c9		 leave
  0001f	c2 04 00	 ret	 4
??0bad_alloc@std@@QAE@ABV01@@Z ENDP			; std::bad_alloc::bad_alloc
_TEXT	ENDS
; Function compile flags: /Odspy
; File C:\Program Files (x86)\Microsoft Visual Studio\2019\Community\VC\Tools\MSVC\14.28.29333\include\vcruntime_exception.h
;	COMDAT ??_Gexception@std@@UAEPAXI@Z
_TEXT	SEGMENT
_this$ = -4						; size = 4
___flags$ = 8						; size = 4
??_Gexception@std@@UAEPAXI@Z PROC			; std::exception::`scalar deleting destructor', COMDAT
; _this$ = ecx
  00000	55		 push	 ebp
  00001	8b ec		 mov	 ebp, esp
  00003	51		 push	 ecx
  00004	89 4d fc	 mov	 DWORD PTR _this$[ebp], ecx

; 89   :     {

  00007	8b 45 fc	 mov	 eax, DWORD PTR _this$[ebp]
  0000a	c7 00 00 00 00
	00		 mov	 DWORD PTR [eax], OFFSET ??_7exception@std@@6B@

; 90   :         __std_exception_destroy(&_Data);

  00010	8b 45 fc	 mov	 eax, DWORD PTR _this$[ebp]
  00013	83 c0 04	 add	 eax, 4
  00016	50		 push	 eax
  00017	e8 00 00 00 00	 call	 ___std_exception_destroy
  0001c	59		 pop	 ecx
  0001d	8b 45 08	 mov	 eax, DWORD PTR ___flags$[ebp]
  00020	83 e0 01	 and	 eax, 1
  00023	74 0c		 je	 SHORT $LN2@scalar
  00025	6a 0c		 push	 12			; 0000000cH
  00027	ff 75 fc	 push	 DWORD PTR _this$[ebp]
  0002a	e8 00 00 00 00	 call	 ??3@YAXPAXI@Z		; operator delete
  0002f	59		 pop	 ecx
  00030	59		 pop	 ecx
$LN2@scalar:
  00031	8b 45 fc	 mov	 eax, DWORD PTR _this$[ebp]
  00034	c9		 leave
  00035	c2 04 00	 ret	 4
??_Gexception@std@@UAEPAXI@Z ENDP			; std::exception::`scalar deleting destructor'
_TEXT	ENDS
; Function compile flags: /Odspy
; File C:\Program Files (x86)\Microsoft Visual Studio\2019\Community\VC\Tools\MSVC\14.28.29333\include\vcruntime_exception.h
;	COMDAT ?what@exception@std@@UBEPBDXZ
_TEXT	SEGMENT
tv69 = -8						; size = 4
_this$ = -4						; size = 4
?what@exception@std@@UBEPBDXZ PROC			; std::exception::what, COMDAT
; _this$ = ecx

; 94   :     {

  00000	55		 push	 ebp
  00001	8b ec		 mov	 ebp, esp
  00003	51		 push	 ecx
  00004	51		 push	 ecx
  00005	89 4d fc	 mov	 DWORD PTR _this$[ebp], ecx

; 95   :         return _Data._What ? _Data._What : "Unknown exception";

  00008	8b 45 fc	 mov	 eax, DWORD PTR _this$[ebp]
  0000b	83 78 04 00	 cmp	 DWORD PTR [eax+4], 0
  0000f	74 0b		 je	 SHORT $LN3@what
  00011	8b 45 fc	 mov	 eax, DWORD PTR _this$[ebp]
  00014	8b 40 04	 mov	 eax, DWORD PTR [eax+4]
  00017	89 45 f8	 mov	 DWORD PTR tv69[ebp], eax
  0001a	eb 07		 jmp	 SHORT $LN4@what
$LN3@what:
  0001c	c7 45 f8 00 00
	00 00		 mov	 DWORD PTR tv69[ebp], OFFSET ??_C@_0BC@EOODALEL@Unknown?5exception@
$LN4@what:
  00023	8b 45 f8	 mov	 eax, DWORD PTR tv69[ebp]

; 96   :     }

  00026	c9		 leave
  00027	c3		 ret	 0
?what@exception@std@@UBEPBDXZ ENDP			; std::exception::what
_TEXT	ENDS
; Function compile flags: /Odspy
; File C:\Program Files (x86)\Microsoft Visual Studio\2019\Community\VC\Tools\MSVC\14.28.29333\include\vcruntime_exception.h
;	COMDAT ??0exception@std@@QAE@ABV01@@Z
_TEXT	SEGMENT
_this$ = -4						; size = 4
__Other$ = 8						; size = 4
??0exception@std@@QAE@ABV01@@Z PROC			; std::exception::exception, COMDAT
; _this$ = ecx

; 72   :     {

  00000	55		 push	 ebp
  00001	8b ec		 mov	 ebp, esp
  00003	51		 push	 ecx
  00004	89 4d fc	 mov	 DWORD PTR _this$[ebp], ecx
  00007	8b 45 fc	 mov	 eax, DWORD PTR _this$[ebp]
  0000a	c7 00 00 00 00
	00		 mov	 DWORD PTR [eax], OFFSET ??_7exception@std@@6B@

; 71   :         : _Data()

  00010	33 c0		 xor	 eax, eax
  00012	8b 4d fc	 mov	 ecx, DWORD PTR _this$[ebp]
  00015	83 c1 04	 add	 ecx, 4
  00018	89 01		 mov	 DWORD PTR [ecx], eax
  0001a	89 41 04	 mov	 DWORD PTR [ecx+4], eax

; 73   :         __std_exception_copy(&_Other._Data, &_Data);

  0001d	8b 45 fc	 mov	 eax, DWORD PTR _this$[ebp]
  00020	83 c0 04	 add	 eax, 4
  00023	50		 push	 eax
  00024	8b 45 08	 mov	 eax, DWORD PTR __Other$[ebp]
  00027	83 c0 04	 add	 eax, 4
  0002a	50		 push	 eax
  0002b	e8 00 00 00 00	 call	 ___std_exception_copy
  00030	59		 pop	 ecx
  00031	59		 pop	 ecx

; 74   :     }

  00032	8b 45 fc	 mov	 eax, DWORD PTR _this$[ebp]
  00035	c9		 leave
  00036	c2 04 00	 ret	 4
??0exception@std@@QAE@ABV01@@Z ENDP			; std::exception::exception
_TEXT	ENDS
END
