; Listing generated by Microsoft (R) Optimizing Compiler Version 19.28.29335.0 

	TITLE	D:\Metin2 Server Files\mainline\SRC_2014\Metin2Client\EterPack\EterPackPolicy_CSHybridCrypt.cpp
	.686P
	.XMM
	include listing.inc
	.model	flat

INCLUDELIB LIBCMT
INCLUDELIB OLDNAMES

CONST	SEGMENT
?piecewise_construct@std@@3Upiecewise_construct_t@1@B	ORG $+1 ; std::piecewise_construct
CONST	ENDS
PUBLIC	??0exception@std@@QAE@ABV01@@Z			; std::exception::exception
PUBLIC	??1exception@std@@UAE@XZ			; std::exception::~exception
PUBLIC	?what@exception@std@@UBEPBDXZ			; std::exception::what
PUBLIC	??_Gexception@std@@UAEPAXI@Z			; std::exception::`scalar deleting destructor'
PUBLIC	??0bad_alloc@std@@QAE@ABV01@@Z			; std::bad_alloc::bad_alloc
PUBLIC	??_Gbad_alloc@std@@UAEPAXI@Z			; std::bad_alloc::`scalar deleting destructor'
PUBLIC	??0bad_array_new_length@std@@QAE@XZ		; std::bad_array_new_length::bad_array_new_length
PUBLIC	??1bad_array_new_length@std@@UAE@XZ		; std::bad_array_new_length::~bad_array_new_length
PUBLIC	??0bad_array_new_length@std@@QAE@ABV01@@Z	; std::bad_array_new_length::bad_array_new_length
PUBLIC	??_Gbad_array_new_length@std@@UAEPAXI@Z		; std::bad_array_new_length::`scalar deleting destructor'
PUBLIC	?_Throw_bad_array_new_length@std@@YAXXZ		; std::_Throw_bad_array_new_length
PUBLIC	?_Adjust_manually_vector_aligned@std@@YAXAAPAXAAI@Z ; std::_Adjust_manually_vector_aligned
PUBLIC	?_Xlen_string@std@@YAXXZ			; std::_Xlen_string
PUBLIC	??0?$_String_val@U?$_Simple_types@D@std@@@std@@QAE@XZ ; std::_String_val<std::_Simple_types<char> >::_String_val<std::_Simple_types<char> >
PUBLIC	?_Myptr@?$_String_val@U?$_Simple_types@D@std@@@std@@QAEPADXZ ; std::_String_val<std::_Simple_types<char> >::_Myptr
PUBLIC	?_Myptr@?$_String_val@U?$_Simple_types@D@std@@@std@@QBEPBDXZ ; std::_String_val<std::_Simple_types<char> >::_Myptr
PUBLIC	??0?$basic_string@DU?$char_traits@D@std@@V?$allocator@D@2@@std@@QAE@ABV01@@Z ; std::basic_string<char,std::char_traits<char>,std::allocator<char> >::basic_string<char,std::char_traits<char>,std::allocator<char> >
PUBLIC	??0?$basic_string@DU?$char_traits@D@std@@V?$allocator@D@2@@std@@QAE@XZ ; std::basic_string<char,std::char_traits<char>,std::allocator<char> >::basic_string<char,std::char_traits<char>,std::allocator<char> >
PUBLIC	??0?$basic_string@DU?$char_traits@D@std@@V?$allocator@D@2@@std@@QAE@QBD@Z ; std::basic_string<char,std::char_traits<char>,std::allocator<char> >::basic_string<char,std::char_traits<char>,std::allocator<char> >
PUBLIC	??0?$basic_string@DU?$char_traits@D@std@@V?$allocator@D@2@@std@@QAE@$$QAV01@@Z ; std::basic_string<char,std::char_traits<char>,std::allocator<char> >::basic_string<char,std::char_traits<char>,std::allocator<char> >
PUBLIC	??0?$basic_string@DU?$char_traits@D@std@@V?$allocator@D@2@@std@@QAE@U_String_constructor_concat_tag@1@ABV01@QBDI2I@Z ; std::basic_string<char,std::char_traits<char>,std::allocator<char> >::basic_string<char,std::char_traits<char>,std::allocator<char> >
PUBLIC	?_Move_assign@?$basic_string@DU?$char_traits@D@std@@V?$allocator@D@2@@std@@AAEXAAV12@U_Equal_allocators@2@@Z ; std::basic_string<char,std::char_traits<char>,std::allocator<char> >::_Move_assign
PUBLIC	?_Construct_lv_contents@?$basic_string@DU?$char_traits@D@std@@V?$allocator@D@2@@std@@AAEXABV12@@Z ; std::basic_string<char,std::char_traits<char>,std::allocator<char> >::_Construct_lv_contents
PUBLIC	??1?$basic_string@DU?$char_traits@D@std@@V?$allocator@D@2@@std@@QAE@XZ ; std::basic_string<char,std::char_traits<char>,std::allocator<char> >::~basic_string<char,std::char_traits<char>,std::allocator<char> >
PUBLIC	?_Copy_assign@?$basic_string@DU?$char_traits@D@std@@V?$allocator@D@2@@std@@AAEXABV12@U?$integral_constant@_N$0A@@2@@Z ; std::basic_string<char,std::char_traits<char>,std::allocator<char> >::_Copy_assign
PUBLIC	?append@?$basic_string@DU?$char_traits@D@std@@V?$allocator@D@2@@std@@QAEAAV12@QBDI@Z ; std::basic_string<char,std::char_traits<char>,std::allocator<char> >::append
PUBLIC	?assign@?$basic_string@DU?$char_traits@D@std@@V?$allocator@D@2@@std@@QAEAAV12@QBDI@Z ; std::basic_string<char,std::char_traits<char>,std::allocator<char> >::assign
PUBLIC	??A?$basic_string@DU?$char_traits@D@std@@V?$allocator@D@2@@std@@QAEAADI@Z ; std::basic_string<char,std::char_traits<char>,std::allocator<char> >::operator[]
PUBLIC	?c_str@?$basic_string@DU?$char_traits@D@std@@V?$allocator@D@2@@std@@QBEPBDXZ ; std::basic_string<char,std::char_traits<char>,std::allocator<char> >::c_str
PUBLIC	?max_size@?$basic_string@DU?$char_traits@D@std@@V?$allocator@D@2@@std@@QBEIXZ ; std::basic_string<char,std::char_traits<char>,std::allocator<char> >::max_size
PUBLIC	?reserve@?$basic_string@DU?$char_traits@D@std@@V?$allocator@D@2@@std@@QAEXI@Z ; std::basic_string<char,std::char_traits<char>,std::allocator<char> >::reserve
PUBLIC	?_Calculate_growth@?$basic_string@DU?$char_traits@D@std@@V?$allocator@D@2@@std@@CAIIII@Z ; std::basic_string<char,std::char_traits<char>,std::allocator<char> >::_Calculate_growth
PUBLIC	?_Calculate_growth@?$basic_string@DU?$char_traits@D@std@@V?$allocator@D@2@@std@@ABEII@Z ; std::basic_string<char,std::char_traits<char>,std::allocator<char> >::_Calculate_growth
PUBLIC	?_Become_small@?$basic_string@DU?$char_traits@D@std@@V?$allocator@D@2@@std@@AAEXXZ ; std::basic_string<char,std::char_traits<char>,std::allocator<char> >::_Become_small
PUBLIC	?_Tidy_init@?$basic_string@DU?$char_traits@D@std@@V?$allocator@D@2@@std@@AAEXXZ ; std::basic_string<char,std::char_traits<char>,std::allocator<char> >::_Tidy_init
PUBLIC	?_Tidy_deallocate@?$basic_string@DU?$char_traits@D@std@@V?$allocator@D@2@@std@@AAEXXZ ; std::basic_string<char,std::char_traits<char>,std::allocator<char> >::_Tidy_deallocate
PUBLIC	??1?$_Compressed_pair@V?$allocator@D@std@@V?$_String_val@U?$_Simple_types@D@std@@@2@$00@std@@QAE@XZ ; std::_Compressed_pair<std::allocator<char>,std::_String_val<std::_Simple_types<char> >,1>::~_Compressed_pair<std::allocator<char>,std::_String_val<std::_Simple_types<char> >,1>
PUBLIC	?GetExtension@CFileNameHelper@@SA?AV?$basic_string@DU?$char_traits@D@std@@V?$allocator@D@2@@std@@AAV23@@Z ; CFileNameHelper::GetExtension
PUBLIC	??$hash_value@K@boost@@YAIK@Z			; boost::hash_value<unsigned long>
PUBLIC	?next_prime@detail@unordered@boost@@YAII@Z	; boost::unordered::detail::next_prime
PUBLIC	??0Exception@CryptoPP@@QAE@W4ErrorType@01@ABV?$basic_string@DU?$char_traits@D@std@@V?$allocator@D@2@@std@@@Z ; CryptoPP::Exception::Exception
PUBLIC	??1Exception@CryptoPP@@UAE@XZ			; CryptoPP::Exception::~Exception
PUBLIC	?what@Exception@CryptoPP@@UBEPBDXZ		; CryptoPP::Exception::what
PUBLIC	??0Exception@CryptoPP@@QAE@ABV01@@Z		; CryptoPP::Exception::Exception
PUBLIC	??_GException@CryptoPP@@UAEPAXI@Z		; CryptoPP::Exception::`scalar deleting destructor'
PUBLIC	??0InvalidArgument@CryptoPP@@QAE@ABV?$basic_string@DU?$char_traits@D@std@@V?$allocator@D@2@@std@@@Z ; CryptoPP::InvalidArgument::InvalidArgument
PUBLIC	??1InvalidArgument@CryptoPP@@UAE@XZ		; CryptoPP::InvalidArgument::~InvalidArgument
PUBLIC	??0InvalidArgument@CryptoPP@@QAE@ABV01@@Z	; CryptoPP::InvalidArgument::InvalidArgument
PUBLIC	??_GInvalidArgument@CryptoPP@@UAEPAXI@Z		; CryptoPP::InvalidArgument::`scalar deleting destructor'
PUBLIC	??0NotImplemented@CryptoPP@@QAE@ABV?$basic_string@DU?$char_traits@D@std@@V?$allocator@D@2@@std@@@Z ; CryptoPP::NotImplemented::NotImplemented
PUBLIC	??1NotImplemented@CryptoPP@@UAE@XZ		; CryptoPP::NotImplemented::~NotImplemented
PUBLIC	??0NotImplemented@CryptoPP@@QAE@ABV01@@Z	; CryptoPP::NotImplemented::NotImplemented
PUBLIC	??_GNotImplemented@CryptoPP@@UAEPAXI@Z		; CryptoPP::NotImplemented::`scalar deleting destructor'
PUBLIC	??0ValueTypeMismatch@NameValuePairs@CryptoPP@@QAE@ABV?$basic_string@DU?$char_traits@D@std@@V?$allocator@D@2@@std@@ABVtype_info@@1@Z ; CryptoPP::NameValuePairs::ValueTypeMismatch::ValueTypeMismatch
PUBLIC	??1ValueTypeMismatch@NameValuePairs@CryptoPP@@UAE@XZ ; CryptoPP::NameValuePairs::ValueTypeMismatch::~ValueTypeMismatch
PUBLIC	??0ValueTypeMismatch@NameValuePairs@CryptoPP@@QAE@ABV012@@Z ; CryptoPP::NameValuePairs::ValueTypeMismatch::ValueTypeMismatch
PUBLIC	??_GValueTypeMismatch@NameValuePairs@CryptoPP@@UAEPAXI@Z ; CryptoPP::NameValuePairs::ValueTypeMismatch::`scalar deleting destructor'
PUBLIC	?ThrowIfTypeMismatch@NameValuePairs@CryptoPP@@SAXPBDABVtype_info@@1@Z ; CryptoPP::NameValuePairs::ThrowIfTypeMismatch
PUBLIC	??$?HDU?$char_traits@D@std@@V?$allocator@D@1@@std@@YA?AV?$basic_string@DU?$char_traits@D@std@@V?$allocator@D@2@@0@QBDABV10@@Z ; std::operator+<char,std::char_traits<char>,std::allocator<char> >
PUBLIC	??$?HDU?$char_traits@D@std@@V?$allocator@D@1@@std@@YA?AV?$basic_string@DU?$char_traits@D@std@@V?$allocator@D@2@@0@$$QAV10@QBD@Z ; std::operator+<char,std::char_traits<char>,std::allocator<char> >
PUBLIC	?Clone@Clonable@CryptoPP@@UBEPAV12@XZ		; CryptoPP::Clonable::Clone
PUBLIC	?AlgorithmName@Algorithm@CryptoPP@@UBE?AV?$basic_string@DU?$char_traits@D@std@@V?$allocator@D@2@@std@@XZ ; CryptoPP::Algorithm::AlgorithmName
PUBLIC	??1SimpleKeyingInterface@CryptoPP@@UAE@XZ	; CryptoPP::SimpleKeyingInterface::~SimpleKeyingInterface
PUBLIC	?IsValidKeyLength@SimpleKeyingInterface@CryptoPP@@UBE_NI@Z ; CryptoPP::SimpleKeyingInterface::IsValidKeyLength
PUBLIC	?MinIVLength@SimpleKeyingInterface@CryptoPP@@UBEIXZ ; CryptoPP::SimpleKeyingInterface::MinIVLength
PUBLIC	?MaxIVLength@SimpleKeyingInterface@CryptoPP@@UBEIXZ ; CryptoPP::SimpleKeyingInterface::MaxIVLength
PUBLIC	?Resynchronize@SimpleKeyingInterface@CryptoPP@@UAEXPBEH@Z ; CryptoPP::SimpleKeyingInterface::Resynchronize
PUBLIC	?IsPermutation@BlockTransformation@CryptoPP@@UBE_NXZ ; CryptoPP::BlockTransformation::IsPermutation
PUBLIC	?OptimalNumberOfParallelBlocks@BlockTransformation@CryptoPP@@UBEIXZ ; CryptoPP::BlockTransformation::OptimalNumberOfParallelBlocks
PUBLIC	??0BlockTransformation@CryptoPP@@QAE@ABV01@@Z	; CryptoPP::BlockTransformation::BlockTransformation
PUBLIC	?MandatoryBlockSize@StreamTransformation@CryptoPP@@UBEIXZ ; CryptoPP::StreamTransformation::MandatoryBlockSize
PUBLIC	?GetOptimalBlockSizeUsed@StreamTransformation@CryptoPP@@UBEIXZ ; CryptoPP::StreamTransformation::GetOptimalBlockSizeUsed
PUBLIC	?MinLastBlockSize@StreamTransformation@CryptoPP@@UBEIXZ ; CryptoPP::StreamTransformation::MinLastBlockSize
PUBLIC	?GetAlgorithm@BlockCipher@CryptoPP@@MBEABVAlgorithm@2@XZ ; CryptoPP::BlockCipher::GetAlgorithm
PUBLIC	?GetAlgorithm@SymmetricCipher@CryptoPP@@MBEABVAlgorithm@2@XZ ; CryptoPP::SymmetricCipher::GetAlgorithm
PUBLIC	??1SymmetricCipher@CryptoPP@@UAE@XZ		; CryptoPP::SymmetricCipher::~SymmetricCipher
PUBLIC	?IncorporateEntropy@RandomNumberGenerator@CryptoPP@@UAEXPBEI@Z ; CryptoPP::RandomNumberGenerator::IncorporateEntropy
PUBLIC	?CanIncorporateEntropy@RandomNumberGenerator@CryptoPP@@UBE_NXZ ; CryptoPP::RandomNumberGenerator::CanIncorporateEntropy
PUBLIC	??1RandomNumberGenerator@CryptoPP@@UAE@XZ	; CryptoPP::RandomNumberGenerator::~RandomNumberGenerator
PUBLIC	??0BufferedTransformation@CryptoPP@@QAE@XZ	; CryptoPP::BufferedTransformation::BufferedTransformation
PUBLIC	?CreatePutSpace@BufferedTransformation@CryptoPP@@UAEPAEAAI@Z ; CryptoPP::BufferedTransformation::CreatePutSpace
PUBLIC	?CanModifyInput@BufferedTransformation@CryptoPP@@UBE_NXZ ; CryptoPP::BufferedTransformation::CanModifyInput
PUBLIC	?PutModifiable2@BufferedTransformation@CryptoPP@@UAEIPAEIH_N@Z ; CryptoPP::BufferedTransformation::PutModifiable2
PUBLIC	?IsolatedMessageSeriesEnd@BufferedTransformation@CryptoPP@@UAE_N_N@Z ; CryptoPP::BufferedTransformation::IsolatedMessageSeriesEnd
PUBLIC	?SetAutoSignalPropagation@BufferedTransformation@CryptoPP@@UAEXH@Z ; CryptoPP::BufferedTransformation::SetAutoSignalPropagation
PUBLIC	?GetAutoSignalPropagation@BufferedTransformation@CryptoPP@@UBEHXZ ; CryptoPP::BufferedTransformation::GetAutoSignalPropagation
PUBLIC	?GetNextMessageSeries@BufferedTransformation@CryptoPP@@UAE_NXZ ; CryptoPP::BufferedTransformation::GetNextMessageSeries
PUBLIC	?NumberOfMessagesInThisSeries@BufferedTransformation@CryptoPP@@UBEIXZ ; CryptoPP::BufferedTransformation::NumberOfMessagesInThisSeries
PUBLIC	?NumberOfMessageSeries@BufferedTransformation@CryptoPP@@UBEIXZ ; CryptoPP::BufferedTransformation::NumberOfMessageSeries
PUBLIC	?Attachable@BufferedTransformation@CryptoPP@@UAE_NXZ ; CryptoPP::BufferedTransformation::Attachable
PUBLIC	?AttachedTransformation@BufferedTransformation@CryptoPP@@UAEPAV12@XZ ; CryptoPP::BufferedTransformation::AttachedTransformation
PUBLIC	?AttachedTransformation@BufferedTransformation@CryptoPP@@UBEPBV12@XZ ; CryptoPP::BufferedTransformation::AttachedTransformation
PUBLIC	?Detach@BufferedTransformation@CryptoPP@@UAEXPAV12@@Z ; CryptoPP::BufferedTransformation::Detach
PUBLIC	??1BufferedTransformation@CryptoPP@@UAE@XZ	; CryptoPP::BufferedTransformation::~BufferedTransformation
PUBLIC	?Put2@?$InputRejecting@VBufferedTransformation@CryptoPP@@@CryptoPP@@UAEIPBEIH_N@Z ; CryptoPP::InputRejecting<CryptoPP::BufferedTransformation>::Put2
PUBLIC	?IsolatedFlush@?$InputRejecting@VBufferedTransformation@CryptoPP@@@CryptoPP@@UAE_N_N0@Z ; CryptoPP::InputRejecting<CryptoPP::BufferedTransformation>::IsolatedFlush
PUBLIC	?IsolatedMessageSeriesEnd@?$InputRejecting@VBufferedTransformation@CryptoPP@@@CryptoPP@@UAE_N_N@Z ; CryptoPP::InputRejecting<CryptoPP::BufferedTransformation>::IsolatedMessageSeriesEnd
PUBLIC	?ChannelPut2@?$InputRejecting@VBufferedTransformation@CryptoPP@@@CryptoPP@@UAEIABV?$basic_string@DU?$char_traits@D@std@@V?$allocator@D@2@@std@@PBEIH_N@Z ; CryptoPP::InputRejecting<CryptoPP::BufferedTransformation>::ChannelPut2
PUBLIC	?ChannelMessageSeriesEnd@?$InputRejecting@VBufferedTransformation@CryptoPP@@@CryptoPP@@UAE_NABV?$basic_string@DU?$char_traits@D@std@@V?$allocator@D@2@@std@@H_N@Z ; CryptoPP::InputRejecting<CryptoPP::BufferedTransformation>::ChannelMessageSeriesEnd
PUBLIC	?SetAutoSignalPropagation@?$AutoSignaling@V?$InputRejecting@VBufferedTransformation@CryptoPP@@@CryptoPP@@@CryptoPP@@UAEXH@Z ; CryptoPP::AutoSignaling<CryptoPP::InputRejecting<CryptoPP::BufferedTransformation> >::SetAutoSignalPropagation
PUBLIC	?GetAutoSignalPropagation@?$AutoSignaling@V?$InputRejecting@VBufferedTransformation@CryptoPP@@@CryptoPP@@@CryptoPP@@UBEHXZ ; CryptoPP::AutoSignaling<CryptoPP::InputRejecting<CryptoPP::BufferedTransformation> >::GetAutoSignalPropagation
PUBLIC	?IsolatedInitialize@Store@CryptoPP@@UAEXABVNameValuePairs@2@@Z ; CryptoPP::Store::IsolatedInitialize
PUBLIC	?NumberOfMessages@Store@CryptoPP@@UBEIXZ	; CryptoPP::Store::NumberOfMessages
PUBLIC	??1Store@CryptoPP@@UAE@XZ			; CryptoPP::Store::~Store
PUBLIC	?TransferTo2@Sink@CryptoPP@@UAEIAAVBufferedTransformation@2@AA_KABV?$basic_string@DU?$char_traits@D@std@@V?$allocator@D@2@@std@@_N@Z ; CryptoPP::Sink::TransferTo2
PUBLIC	?CopyRangeTo2@Sink@CryptoPP@@UBEIAAVBufferedTransformation@2@AA_K_KABV?$basic_string@DU?$char_traits@D@std@@V?$allocator@D@2@@std@@_N@Z ; CryptoPP::Sink::CopyRangeTo2
PUBLIC	?IsolatedFlush@?$Bufferless@VSink@CryptoPP@@@CryptoPP@@UAE_N_N0@Z ; CryptoPP::Bufferless<CryptoPP::Sink>::IsolatedFlush
PUBLIC	?CheckSize@?$AllocatorBase@E@CryptoPP@@KAXI@Z	; CryptoPP::AllocatorBase<unsigned char>::CheckSize
PUBLIC	?CheckSize@?$AllocatorBase@I@CryptoPP@@KAXI@Z	; CryptoPP::AllocatorBase<unsigned int>::CheckSize
PUBLIC	?MinKeyLength@?$SimpleKeyingInterfaceImpl@V?$TwoBases@VBlockCipher@CryptoPP@@UCamellia_Info@2@@CryptoPP@@V12@@CryptoPP@@UBEIXZ ; CryptoPP::SimpleKeyingInterfaceImpl<CryptoPP::TwoBases<CryptoPP::BlockCipher,CryptoPP::Camellia_Info>,CryptoPP::TwoBases<CryptoPP::BlockCipher,CryptoPP::Camellia_Info> >::MinKeyLength
PUBLIC	?MaxKeyLength@?$SimpleKeyingInterfaceImpl@V?$TwoBases@VBlockCipher@CryptoPP@@UCamellia_Info@2@@CryptoPP@@V12@@CryptoPP@@UBEIXZ ; CryptoPP::SimpleKeyingInterfaceImpl<CryptoPP::TwoBases<CryptoPP::BlockCipher,CryptoPP::Camellia_Info>,CryptoPP::TwoBases<CryptoPP::BlockCipher,CryptoPP::Camellia_Info> >::MaxKeyLength
PUBLIC	?DefaultKeyLength@?$SimpleKeyingInterfaceImpl@V?$TwoBases@VBlockCipher@CryptoPP@@UCamellia_Info@2@@CryptoPP@@V12@@CryptoPP@@UBEIXZ ; CryptoPP::SimpleKeyingInterfaceImpl<CryptoPP::TwoBases<CryptoPP::BlockCipher,CryptoPP::Camellia_Info>,CryptoPP::TwoBases<CryptoPP::BlockCipher,CryptoPP::Camellia_Info> >::DefaultKeyLength
PUBLIC	?GetValidKeyLength@?$SimpleKeyingInterfaceImpl@V?$TwoBases@VBlockCipher@CryptoPP@@UCamellia_Info@2@@CryptoPP@@V12@@CryptoPP@@UBEII@Z ; CryptoPP::SimpleKeyingInterfaceImpl<CryptoPP::TwoBases<CryptoPP::BlockCipher,CryptoPP::Camellia_Info>,CryptoPP::TwoBases<CryptoPP::BlockCipher,CryptoPP::Camellia_Info> >::GetValidKeyLength
PUBLIC	?IVRequirement@?$SimpleKeyingInterfaceImpl@V?$TwoBases@VBlockCipher@CryptoPP@@UCamellia_Info@2@@CryptoPP@@V12@@CryptoPP@@UBE?AW4IV_Requirement@SimpleKeyingInterface@2@XZ ; CryptoPP::SimpleKeyingInterfaceImpl<CryptoPP::TwoBases<CryptoPP::BlockCipher,CryptoPP::Camellia_Info>,CryptoPP::TwoBases<CryptoPP::BlockCipher,CryptoPP::Camellia_Info> >::IVRequirement
PUBLIC	?IVSize@?$SimpleKeyingInterfaceImpl@V?$TwoBases@VBlockCipher@CryptoPP@@UCamellia_Info@2@@CryptoPP@@V12@@CryptoPP@@UBEIXZ ; CryptoPP::SimpleKeyingInterfaceImpl<CryptoPP::TwoBases<CryptoPP::BlockCipher,CryptoPP::Camellia_Info>,CryptoPP::TwoBases<CryptoPP::BlockCipher,CryptoPP::Camellia_Info> >::IVSize
PUBLIC	?AlgorithmName@?$AlgorithmImpl@V?$SimpleKeyingInterfaceImpl@V?$TwoBases@VBlockCipher@CryptoPP@@UCamellia_Info@2@@CryptoPP@@V12@@CryptoPP@@V12@@CryptoPP@@UBE?AV?$basic_string@DU?$char_traits@D@std@@V?$allocator@D@2@@std@@XZ ; CryptoPP::AlgorithmImpl<CryptoPP::SimpleKeyingInterfaceImpl<CryptoPP::TwoBases<CryptoPP::BlockCipher,CryptoPP::Camellia_Info>,CryptoPP::TwoBases<CryptoPP::BlockCipher,CryptoPP::Camellia_Info> >,CryptoPP::SimpleKeyingInterfaceImpl<CryptoPP::TwoBases<CryptoPP::BlockCipher,CryptoPP::Camellia_Info>,CryptoPP::TwoBases<CryptoPP::BlockCipher,CryptoPP::Camellia_Info> > >::AlgorithmName
PUBLIC	?BlockSize@?$BlockCipherImpl@UCamellia_Info@CryptoPP@@VBlockCipher@2@@CryptoPP@@UBEIXZ ; CryptoPP::BlockCipherImpl<CryptoPP::Camellia_Info,CryptoPP::BlockCipher>::BlockSize
PUBLIC	??1?$BlockCipherImpl@UCamellia_Info@CryptoPP@@VBlockCipher@2@@CryptoPP@@UAE@XZ ; CryptoPP::BlockCipherImpl<CryptoPP::Camellia_Info,CryptoPP::BlockCipher>::~BlockCipherImpl<CryptoPP::Camellia_Info,CryptoPP::BlockCipher>
PUBLIC	??0?$SecBlock@IV?$AllocatorWithCleanup@I$0A@@CryptoPP@@@CryptoPP@@QAE@I@Z ; CryptoPP::SecBlock<unsigned int,CryptoPP::AllocatorWithCleanup<unsigned int,0> >::SecBlock<unsigned int,CryptoPP::AllocatorWithCleanup<unsigned int,0> >
PUBLIC	??0?$SecBlock@IV?$AllocatorWithCleanup@I$0A@@CryptoPP@@@CryptoPP@@QAE@ABV01@@Z ; CryptoPP::SecBlock<unsigned int,CryptoPP::AllocatorWithCleanup<unsigned int,0> >::SecBlock<unsigned int,CryptoPP::AllocatorWithCleanup<unsigned int,0> >
PUBLIC	??1?$SecBlock@IV?$AllocatorWithCleanup@I$0A@@CryptoPP@@@CryptoPP@@QAE@XZ ; CryptoPP::SecBlock<unsigned int,CryptoPP::AllocatorWithCleanup<unsigned int,0> >::~SecBlock<unsigned int,CryptoPP::AllocatorWithCleanup<unsigned int,0> >
PUBLIC	??0Base@Camellia@CryptoPP@@QAE@XZ		; CryptoPP::Camellia::Base::Base
PUBLIC	??0Base@Camellia@CryptoPP@@QAE@ABV012@@Z	; CryptoPP::Camellia::Base::Base
PUBLIC	?MinKeyLength@?$SimpleKeyingInterfaceImpl@V?$TwoBases@VBlockCipher@CryptoPP@@UTwofish_Info@2@@CryptoPP@@V12@@CryptoPP@@UBEIXZ ; CryptoPP::SimpleKeyingInterfaceImpl<CryptoPP::TwoBases<CryptoPP::BlockCipher,CryptoPP::Twofish_Info>,CryptoPP::TwoBases<CryptoPP::BlockCipher,CryptoPP::Twofish_Info> >::MinKeyLength
PUBLIC	?MaxKeyLength@?$SimpleKeyingInterfaceImpl@V?$TwoBases@VBlockCipher@CryptoPP@@UTwofish_Info@2@@CryptoPP@@V12@@CryptoPP@@UBEIXZ ; CryptoPP::SimpleKeyingInterfaceImpl<CryptoPP::TwoBases<CryptoPP::BlockCipher,CryptoPP::Twofish_Info>,CryptoPP::TwoBases<CryptoPP::BlockCipher,CryptoPP::Twofish_Info> >::MaxKeyLength
PUBLIC	?DefaultKeyLength@?$SimpleKeyingInterfaceImpl@V?$TwoBases@VBlockCipher@CryptoPP@@UTwofish_Info@2@@CryptoPP@@V12@@CryptoPP@@UBEIXZ ; CryptoPP::SimpleKeyingInterfaceImpl<CryptoPP::TwoBases<CryptoPP::BlockCipher,CryptoPP::Twofish_Info>,CryptoPP::TwoBases<CryptoPP::BlockCipher,CryptoPP::Twofish_Info> >::DefaultKeyLength
PUBLIC	?GetValidKeyLength@?$SimpleKeyingInterfaceImpl@V?$TwoBases@VBlockCipher@CryptoPP@@UTwofish_Info@2@@CryptoPP@@V12@@CryptoPP@@UBEII@Z ; CryptoPP::SimpleKeyingInterfaceImpl<CryptoPP::TwoBases<CryptoPP::BlockCipher,CryptoPP::Twofish_Info>,CryptoPP::TwoBases<CryptoPP::BlockCipher,CryptoPP::Twofish_Info> >::GetValidKeyLength
PUBLIC	?IVRequirement@?$SimpleKeyingInterfaceImpl@V?$TwoBases@VBlockCipher@CryptoPP@@UTwofish_Info@2@@CryptoPP@@V12@@CryptoPP@@UBE?AW4IV_Requirement@SimpleKeyingInterface@2@XZ ; CryptoPP::SimpleKeyingInterfaceImpl<CryptoPP::TwoBases<CryptoPP::BlockCipher,CryptoPP::Twofish_Info>,CryptoPP::TwoBases<CryptoPP::BlockCipher,CryptoPP::Twofish_Info> >::IVRequirement
PUBLIC	?IVSize@?$SimpleKeyingInterfaceImpl@V?$TwoBases@VBlockCipher@CryptoPP@@UTwofish_Info@2@@CryptoPP@@V12@@CryptoPP@@UBEIXZ ; CryptoPP::SimpleKeyingInterfaceImpl<CryptoPP::TwoBases<CryptoPP::BlockCipher,CryptoPP::Twofish_Info>,CryptoPP::TwoBases<CryptoPP::BlockCipher,CryptoPP::Twofish_Info> >::IVSize
PUBLIC	?AlgorithmName@?$AlgorithmImpl@V?$SimpleKeyingInterfaceImpl@V?$TwoBases@VBlockCipher@CryptoPP@@UTwofish_Info@2@@CryptoPP@@V12@@CryptoPP@@V12@@CryptoPP@@UBE?AV?$basic_string@DU?$char_traits@D@std@@V?$allocator@D@2@@std@@XZ ; CryptoPP::AlgorithmImpl<CryptoPP::SimpleKeyingInterfaceImpl<CryptoPP::TwoBases<CryptoPP::BlockCipher,CryptoPP::Twofish_Info>,CryptoPP::TwoBases<CryptoPP::BlockCipher,CryptoPP::Twofish_Info> >,CryptoPP::SimpleKeyingInterfaceImpl<CryptoPP::TwoBases<CryptoPP::BlockCipher,CryptoPP::Twofish_Info>,CryptoPP::TwoBases<CryptoPP::BlockCipher,CryptoPP::Twofish_Info> > >::AlgorithmName
PUBLIC	?BlockSize@?$BlockCipherImpl@UTwofish_Info@CryptoPP@@VBlockCipher@2@@CryptoPP@@UBEIXZ ; CryptoPP::BlockCipherImpl<CryptoPP::Twofish_Info,CryptoPP::BlockCipher>::BlockSize
PUBLIC	??1?$BlockCipherImpl@UTwofish_Info@CryptoPP@@VBlockCipher@2@@CryptoPP@@UAE@XZ ; CryptoPP::BlockCipherImpl<CryptoPP::Twofish_Info,CryptoPP::BlockCipher>::~BlockCipherImpl<CryptoPP::Twofish_Info,CryptoPP::BlockCipher>
PUBLIC	?deallocate@?$FixedSizeAllocatorWithCleanup@I$0CI@V?$NullAllocator@I@CryptoPP@@$0A@@CryptoPP@@QAEXPAXI@Z ; CryptoPP::FixedSizeAllocatorWithCleanup<unsigned int,40,CryptoPP::NullAllocator<unsigned int>,0>::deallocate
PUBLIC	??0?$SecBlock@IV?$FixedSizeAllocatorWithCleanup@I$0CI@V?$NullAllocator@I@CryptoPP@@$0A@@CryptoPP@@@CryptoPP@@QAE@I@Z ; CryptoPP::SecBlock<unsigned int,CryptoPP::FixedSizeAllocatorWithCleanup<unsigned int,40,CryptoPP::NullAllocator<unsigned int>,0> >::SecBlock<unsigned int,CryptoPP::FixedSizeAllocatorWithCleanup<unsigned int,40,CryptoPP::NullAllocator<unsigned int>,0> >
PUBLIC	??0?$SecBlock@IV?$FixedSizeAllocatorWithCleanup@I$0CI@V?$NullAllocator@I@CryptoPP@@$0A@@CryptoPP@@@CryptoPP@@QAE@ABV01@@Z ; CryptoPP::SecBlock<unsigned int,CryptoPP::FixedSizeAllocatorWithCleanup<unsigned int,40,CryptoPP::NullAllocator<unsigned int>,0> >::SecBlock<unsigned int,CryptoPP::FixedSizeAllocatorWithCleanup<unsigned int,40,CryptoPP::NullAllocator<unsigned int>,0> >
PUBLIC	??1?$FixedSizeSecBlock@I$0CI@V?$FixedSizeAllocatorWithCleanup@I$0CI@V?$NullAllocator@I@CryptoPP@@$0A@@CryptoPP@@@CryptoPP@@QAE@XZ ; CryptoPP::FixedSizeSecBlock<unsigned int,40,CryptoPP::FixedSizeAllocatorWithCleanup<unsigned int,40,CryptoPP::NullAllocator<unsigned int>,0> >::~FixedSizeSecBlock<unsigned int,40,CryptoPP::FixedSizeAllocatorWithCleanup<unsigned int,40,CryptoPP::NullAllocator<unsigned int>,0> >
PUBLIC	?deallocate@?$FixedSizeAllocatorWithCleanup@I$0EAA@V?$NullAllocator@I@CryptoPP@@$0A@@CryptoPP@@QAEXPAXI@Z ; CryptoPP::FixedSizeAllocatorWithCleanup<unsigned int,1024,CryptoPP::NullAllocator<unsigned int>,0>::deallocate
PUBLIC	??0?$SecBlock@IV?$FixedSizeAllocatorWithCleanup@I$0EAA@V?$NullAllocator@I@CryptoPP@@$0A@@CryptoPP@@@CryptoPP@@QAE@I@Z ; CryptoPP::SecBlock<unsigned int,CryptoPP::FixedSizeAllocatorWithCleanup<unsigned int,1024,CryptoPP::NullAllocator<unsigned int>,0> >::SecBlock<unsigned int,CryptoPP::FixedSizeAllocatorWithCleanup<unsigned int,1024,CryptoPP::NullAllocator<unsigned int>,0> >
PUBLIC	??0?$SecBlock@IV?$FixedSizeAllocatorWithCleanup@I$0EAA@V?$NullAllocator@I@CryptoPP@@$0A@@CryptoPP@@@CryptoPP@@QAE@ABV01@@Z ; CryptoPP::SecBlock<unsigned int,CryptoPP::FixedSizeAllocatorWithCleanup<unsigned int,1024,CryptoPP::NullAllocator<unsigned int>,0> >::SecBlock<unsigned int,CryptoPP::FixedSizeAllocatorWithCleanup<unsigned int,1024,CryptoPP::NullAllocator<unsigned int>,0> >
PUBLIC	??0Base@Twofish@CryptoPP@@QAE@XZ		; CryptoPP::Twofish::Base::Base
PUBLIC	??1Base@Twofish@CryptoPP@@UAE@XZ		; CryptoPP::Twofish::Base::~Base
PUBLIC	??0Base@Twofish@CryptoPP@@QAE@ABV012@@Z		; CryptoPP::Twofish::Base::Base
PUBLIC	?deallocate@?$FixedSizeAllocatorWithCleanup@I$03V?$NullAllocator@I@CryptoPP@@$0A@@CryptoPP@@QAEXPAXI@Z ; CryptoPP::FixedSizeAllocatorWithCleanup<unsigned int,4,CryptoPP::NullAllocator<unsigned int>,0>::deallocate
PUBLIC	??0?$SecBlock@IV?$FixedSizeAllocatorWithCleanup@I$03V?$NullAllocator@I@CryptoPP@@$0A@@CryptoPP@@@CryptoPP@@QAE@I@Z ; CryptoPP::SecBlock<unsigned int,CryptoPP::FixedSizeAllocatorWithCleanup<unsigned int,4,CryptoPP::NullAllocator<unsigned int>,0> >::SecBlock<unsigned int,CryptoPP::FixedSizeAllocatorWithCleanup<unsigned int,4,CryptoPP::NullAllocator<unsigned int>,0> >
PUBLIC	??0?$SecBlock@IV?$FixedSizeAllocatorWithCleanup@I$03V?$NullAllocator@I@CryptoPP@@$0A@@CryptoPP@@@CryptoPP@@QAE@ABV01@@Z ; CryptoPP::SecBlock<unsigned int,CryptoPP::FixedSizeAllocatorWithCleanup<unsigned int,4,CryptoPP::NullAllocator<unsigned int>,0> >::SecBlock<unsigned int,CryptoPP::FixedSizeAllocatorWithCleanup<unsigned int,4,CryptoPP::NullAllocator<unsigned int>,0> >
PUBLIC	?MinKeyLength@?$SimpleKeyingInterfaceImpl@V?$TwoBases@VBlockCipher@CryptoPP@@UXTEA_Info@2@@CryptoPP@@V12@@CryptoPP@@UBEIXZ ; CryptoPP::SimpleKeyingInterfaceImpl<CryptoPP::TwoBases<CryptoPP::BlockCipher,CryptoPP::XTEA_Info>,CryptoPP::TwoBases<CryptoPP::BlockCipher,CryptoPP::XTEA_Info> >::MinKeyLength
PUBLIC	?MaxKeyLength@?$SimpleKeyingInterfaceImpl@V?$TwoBases@VBlockCipher@CryptoPP@@UXTEA_Info@2@@CryptoPP@@V12@@CryptoPP@@UBEIXZ ; CryptoPP::SimpleKeyingInterfaceImpl<CryptoPP::TwoBases<CryptoPP::BlockCipher,CryptoPP::XTEA_Info>,CryptoPP::TwoBases<CryptoPP::BlockCipher,CryptoPP::XTEA_Info> >::MaxKeyLength
PUBLIC	?DefaultKeyLength@?$SimpleKeyingInterfaceImpl@V?$TwoBases@VBlockCipher@CryptoPP@@UXTEA_Info@2@@CryptoPP@@V12@@CryptoPP@@UBEIXZ ; CryptoPP::SimpleKeyingInterfaceImpl<CryptoPP::TwoBases<CryptoPP::BlockCipher,CryptoPP::XTEA_Info>,CryptoPP::TwoBases<CryptoPP::BlockCipher,CryptoPP::XTEA_Info> >::DefaultKeyLength
PUBLIC	?GetValidKeyLength@?$SimpleKeyingInterfaceImpl@V?$TwoBases@VBlockCipher@CryptoPP@@UXTEA_Info@2@@CryptoPP@@V12@@CryptoPP@@UBEII@Z ; CryptoPP::SimpleKeyingInterfaceImpl<CryptoPP::TwoBases<CryptoPP::BlockCipher,CryptoPP::XTEA_Info>,CryptoPP::TwoBases<CryptoPP::BlockCipher,CryptoPP::XTEA_Info> >::GetValidKeyLength
PUBLIC	?IVRequirement@?$SimpleKeyingInterfaceImpl@V?$TwoBases@VBlockCipher@CryptoPP@@UXTEA_Info@2@@CryptoPP@@V12@@CryptoPP@@UBE?AW4IV_Requirement@SimpleKeyingInterface@2@XZ ; CryptoPP::SimpleKeyingInterfaceImpl<CryptoPP::TwoBases<CryptoPP::BlockCipher,CryptoPP::XTEA_Info>,CryptoPP::TwoBases<CryptoPP::BlockCipher,CryptoPP::XTEA_Info> >::IVRequirement
PUBLIC	?IVSize@?$SimpleKeyingInterfaceImpl@V?$TwoBases@VBlockCipher@CryptoPP@@UXTEA_Info@2@@CryptoPP@@V12@@CryptoPP@@UBEIXZ ; CryptoPP::SimpleKeyingInterfaceImpl<CryptoPP::TwoBases<CryptoPP::BlockCipher,CryptoPP::XTEA_Info>,CryptoPP::TwoBases<CryptoPP::BlockCipher,CryptoPP::XTEA_Info> >::IVSize
PUBLIC	?AlgorithmName@?$AlgorithmImpl@V?$SimpleKeyingInterfaceImpl@V?$TwoBases@VBlockCipher@CryptoPP@@UXTEA_Info@2@@CryptoPP@@V12@@CryptoPP@@V12@@CryptoPP@@UBE?AV?$basic_string@DU?$char_traits@D@std@@V?$allocator@D@2@@std@@XZ ; CryptoPP::AlgorithmImpl<CryptoPP::SimpleKeyingInterfaceImpl<CryptoPP::TwoBases<CryptoPP::BlockCipher,CryptoPP::XTEA_Info>,CryptoPP::TwoBases<CryptoPP::BlockCipher,CryptoPP::XTEA_Info> >,CryptoPP::SimpleKeyingInterfaceImpl<CryptoPP::TwoBases<CryptoPP::BlockCipher,CryptoPP::XTEA_Info>,CryptoPP::TwoBases<CryptoPP::BlockCipher,CryptoPP::XTEA_Info> > >::AlgorithmName
PUBLIC	?BlockSize@?$BlockCipherImpl@UXTEA_Info@CryptoPP@@VBlockCipher@2@@CryptoPP@@UBEIXZ ; CryptoPP::BlockCipherImpl<CryptoPP::XTEA_Info,CryptoPP::BlockCipher>::BlockSize
PUBLIC	??1?$BlockCipherImpl@UXTEA_Info@CryptoPP@@VBlockCipher@2@@CryptoPP@@UAE@XZ ; CryptoPP::BlockCipherImpl<CryptoPP::XTEA_Info,CryptoPP::BlockCipher>::~BlockCipherImpl<CryptoPP::XTEA_Info,CryptoPP::BlockCipher>
PUBLIC	??0Base@XTEA@CryptoPP@@QAE@XZ			; CryptoPP::XTEA::Base::Base
PUBLIC	??1Base@XTEA@CryptoPP@@UAE@XZ			; CryptoPP::XTEA::Base::~Base
PUBLIC	??0Base@XTEA@CryptoPP@@QAE@ABV012@@Z		; CryptoPP::XTEA::Base::Base
PUBLIC	??1EterPackPolicy_CSHybridCrypt@@QAE@XZ		; EterPackPolicy_CSHybridCrypt::~EterPackPolicy_CSHybridCrypt
PUBLIC	?GenerateCryptKey@EterPackPolicy_CSHybridCrypt@@QAE_NAAV?$basic_string@DU?$char_traits@D@std@@V?$allocator@D@2@@std@@@Z ; EterPackPolicy_CSHybridCrypt::GenerateCryptKey
PUBLIC	?EncryptMemory@EterPackPolicy_CSHybridCrypt@@QAE_NAAV?$basic_string@DU?$char_traits@D@std@@V?$allocator@D@2@@std@@PBEHAAVCLZObject@@@Z ; EterPackPolicy_CSHybridCrypt::EncryptMemory
PUBLIC	?DecryptMemory@EterPackPolicy_CSHybridCrypt@@QAE_NAAV?$basic_string@DU?$char_traits@D@std@@V?$allocator@D@2@@std@@PBEHAAVCLZObject@@@Z ; EterPackPolicy_CSHybridCrypt::DecryptMemory
PUBLIC	?IsContainingCryptKey@EterPackPolicy_CSHybridCrypt@@QBE_NXZ ; EterPackPolicy_CSHybridCrypt::IsContainingCryptKey
PUBLIC	?GenerateSupplementaryDataBlock@EterPackPolicy_CSHybridCrypt@@QAE_NAAV?$basic_string@DU?$char_traits@D@std@@V?$allocator@D@2@@std@@ABV23@PBEHAAPAEAAH@Z ; EterPackPolicy_CSHybridCrypt::GenerateSupplementaryDataBlock
PUBLIC	?GetSupplementaryDataBlock@EterPackPolicy_CSHybridCrypt@@QAE_NAAV?$basic_string@DU?$char_traits@D@std@@V?$allocator@D@2@@std@@AAPAEAAH@Z ; EterPackPolicy_CSHybridCrypt::GetSupplementaryDataBlock
PUBLIC	?IsContainingSDBFile@EterPackPolicy_CSHybridCrypt@@QBE_NXZ ; EterPackPolicy_CSHybridCrypt::IsContainingSDBFile
PUBLIC	?WriteCryptKeyToFile@EterPackPolicy_CSHybridCrypt@@QAEXAAVCFileBase@@@Z ; EterPackPolicy_CSHybridCrypt::WriteCryptKeyToFile
PUBLIC	?ReadCryptKeyInfoFromStream@EterPackPolicy_CSHybridCrypt@@QAEHPBE@Z ; EterPackPolicy_CSHybridCrypt::ReadCryptKeyInfoFromStream
PUBLIC	?WriteSupplementaryDataBlockToFile@EterPackPolicy_CSHybridCrypt@@QAEXAAVCFileBase@@@Z ; EterPackPolicy_CSHybridCrypt::WriteSupplementaryDataBlockToFile
PUBLIC	?ReadSupplementatyDataBlockFromStream@EterPackPolicy_CSHybridCrypt@@QAEHPBE@Z ; EterPackPolicy_CSHybridCrypt::ReadSupplementatyDataBlockFromStream
PUBLIC	?key_eq@?$functions@U?$hash@K@boost@@U?$equal_to@K@std@@@detail@unordered@boost@@QBEABU?$equal_to@K@std@@XZ ; boost::unordered::detail::functions<boost::hash<unsigned long>,std::equal_to<unsigned long> >::key_eq
PUBLIC	?next_node@?$table@U?$map@V?$allocator@U?$pair@$$CBKUSCSHybridCryptKey@EterPackPolicy_CSHybridCrypt@@@std@@@std@@KUSCSHybridCryptKey@EterPackPolicy_CSHybridCrypt@@U?$hash@K@boost@@U?$equal_to@K@2@@detail@unordered@boost@@@detail@unordered@boost@@SAPAU?$ptr_node@U?$pair@$$CBKUSCSHybridCryptKey@EterPackPolicy_CSHybridCrypt@@@std@@@234@PAUptr_bucket@234@@Z ; boost::unordered::detail::table<boost::unordered::detail::map<std::allocator<std::pair<unsigned long const ,EterPackPolicy_CSHybridCrypt::SCSHybridCryptKey> >,unsigned long,EterPackPolicy_CSHybridCrypt::SCSHybridCryptKey,boost::hash<unsigned long>,std::equal_to<unsigned long> > >::next_node
PUBLIC	?next_for_find@?$table@U?$map@V?$allocator@U?$pair@$$CBKUSCSHybridCryptKey@EterPackPolicy_CSHybridCrypt@@@std@@@std@@KUSCSHybridCryptKey@EterPackPolicy_CSHybridCrypt@@U?$hash@K@boost@@U?$equal_to@K@2@@detail@unordered@boost@@@detail@unordered@boost@@SAPAU?$ptr_node@U?$pair@$$CBKUSCSHybridCryptKey@EterPackPolicy_CSHybridCrypt@@@std@@@234@PAUptr_bucket@234@@Z ; boost::unordered::detail::table<boost::unordered::detail::map<std::allocator<std::pair<unsigned long const ,EterPackPolicy_CSHybridCrypt::SCSHybridCryptKey> >,unsigned long,EterPackPolicy_CSHybridCrypt::SCSHybridCryptKey,boost::hash<unsigned long>,std::equal_to<unsigned long> > >::next_for_find
PUBLIC	?begin@?$table@U?$map@V?$allocator@U?$pair@$$CBKUSCSHybridCryptKey@EterPackPolicy_CSHybridCrypt@@@std@@@std@@KUSCSHybridCryptKey@EterPackPolicy_CSHybridCrypt@@U?$hash@K@boost@@U?$equal_to@K@2@@detail@unordered@boost@@@detail@unordered@boost@@QBEPAU?$ptr_node@U?$pair@$$CBKUSCSHybridCryptKey@EterPackPolicy_CSHybridCrypt@@@std@@@234@I@Z ; boost::unordered::detail::table<boost::unordered::detail::map<std::allocator<std::pair<unsigned long const ,EterPackPolicy_CSHybridCrypt::SCSHybridCryptKey> >,unsigned long,EterPackPolicy_CSHybridCrypt::SCSHybridCryptKey,boost::hash<unsigned long>,std::equal_to<unsigned long> > >::begin
PUBLIC	?recalculate_max_load@?$table@U?$map@V?$allocator@U?$pair@$$CBKUSCSHybridCryptKey@EterPackPolicy_CSHybridCrypt@@@std@@@std@@KUSCSHybridCryptKey@EterPackPolicy_CSHybridCrypt@@U?$hash@K@boost@@U?$equal_to@K@2@@detail@unordered@boost@@@detail@unordered@boost@@QAEXXZ ; boost::unordered::detail::table<boost::unordered::detail::map<std::allocator<std::pair<unsigned long const ,EterPackPolicy_CSHybridCrypt::SCSHybridCryptKey> >,unsigned long,EterPackPolicy_CSHybridCrypt::SCSHybridCryptKey,boost::hash<unsigned long>,std::equal_to<unsigned long> > >::recalculate_max_load
PUBLIC	?min_buckets_for_size@?$table@U?$map@V?$allocator@U?$pair@$$CBKUSCSHybridCryptKey@EterPackPolicy_CSHybridCrypt@@@std@@@std@@KUSCSHybridCryptKey@EterPackPolicy_CSHybridCrypt@@U?$hash@K@boost@@U?$equal_to@K@2@@detail@unordered@boost@@@detail@unordered@boost@@QBEII@Z ; boost::unordered::detail::table<boost::unordered::detail::map<std::allocator<std::pair<unsigned long const ,EterPackPolicy_CSHybridCrypt::SCSHybridCryptKey> >,unsigned long,EterPackPolicy_CSHybridCrypt::SCSHybridCryptKey,boost::hash<unsigned long>,std::equal_to<unsigned long> > >::min_buckets_for_size
PUBLIC	?create_buckets@?$table@U?$map@V?$allocator@U?$pair@$$CBKUSCSHybridCryptKey@EterPackPolicy_CSHybridCrypt@@@std@@@std@@KUSCSHybridCryptKey@EterPackPolicy_CSHybridCrypt@@U?$hash@K@boost@@U?$equal_to@K@2@@detail@unordered@boost@@@detail@unordered@boost@@QAEXI@Z ; boost::unordered::detail::table<boost::unordered::detail::map<std::allocator<std::pair<unsigned long const ,EterPackPolicy_CSHybridCrypt::SCSHybridCryptKey> >,unsigned long,EterPackPolicy_CSHybridCrypt::SCSHybridCryptKey,boost::hash<unsigned long>,std::equal_to<unsigned long> > >::create_buckets
PUBLIC	?destroy_node@?$table@U?$map@V?$allocator@U?$pair@$$CBKUSCSHybridCryptKey@EterPackPolicy_CSHybridCrypt@@@std@@@std@@KUSCSHybridCryptKey@EterPackPolicy_CSHybridCrypt@@U?$hash@K@boost@@U?$equal_to@K@2@@detail@unordered@boost@@@detail@unordered@boost@@QAEXPAU?$ptr_node@U?$pair@$$CBKUSCSHybridCryptKey@EterPackPolicy_CSHybridCrypt@@@std@@@234@@Z ; boost::unordered::detail::table<boost::unordered::detail::map<std::allocator<std::pair<unsigned long const ,EterPackPolicy_CSHybridCrypt::SCSHybridCryptKey> >,unsigned long,EterPackPolicy_CSHybridCrypt::SCSHybridCryptKey,boost::hash<unsigned long>,std::equal_to<unsigned long> > >::destroy_node
PUBLIC	?delete_buckets@?$table@U?$map@V?$allocator@U?$pair@$$CBKUSCSHybridCryptKey@EterPackPolicy_CSHybridCrypt@@@std@@@std@@KUSCSHybridCryptKey@EterPackPolicy_CSHybridCrypt@@U?$hash@K@boost@@U?$equal_to@K@2@@detail@unordered@boost@@@detail@unordered@boost@@QAEXXZ ; boost::unordered::detail::table<boost::unordered::detail::map<std::allocator<std::pair<unsigned long const ,EterPackPolicy_CSHybridCrypt::SCSHybridCryptKey> >,unsigned long,EterPackPolicy_CSHybridCrypt::SCSHybridCryptKey,boost::hash<unsigned long>,std::equal_to<unsigned long> > >::delete_buckets
PUBLIC	?destroy_buckets@?$table@U?$map@V?$allocator@U?$pair@$$CBKUSCSHybridCryptKey@EterPackPolicy_CSHybridCrypt@@@std@@@std@@KUSCSHybridCryptKey@EterPackPolicy_CSHybridCrypt@@U?$hash@K@boost@@U?$equal_to@K@2@@detail@unordered@boost@@@detail@unordered@boost@@QAEXXZ ; boost::unordered::detail::table<boost::unordered::detail::map<std::allocator<std::pair<unsigned long const ,EterPackPolicy_CSHybridCrypt::SCSHybridCryptKey> >,unsigned long,EterPackPolicy_CSHybridCrypt::SCSHybridCryptKey,boost::hash<unsigned long>,std::equal_to<unsigned long> > >::destroy_buckets
PUBLIC	?clear_impl@?$table@U?$map@V?$allocator@U?$pair@$$CBKUSCSHybridCryptKey@EterPackPolicy_CSHybridCrypt@@@std@@@std@@KUSCSHybridCryptKey@EterPackPolicy_CSHybridCrypt@@U?$hash@K@boost@@U?$equal_to@K@2@@detail@unordered@boost@@@detail@unordered@boost@@QAEXXZ ; boost::unordered::detail::table<boost::unordered::detail::map<std::allocator<std::pair<unsigned long const ,EterPackPolicy_CSHybridCrypt::SCSHybridCryptKey> >,unsigned long,EterPackPolicy_CSHybridCrypt::SCSHybridCryptKey,boost::hash<unsigned long>,std::equal_to<unsigned long> > >::clear_impl
PUBLIC	?find_node@?$table@U?$map@V?$allocator@U?$pair@$$CBKUSCSHybridCryptKey@EterPackPolicy_CSHybridCrypt@@@std@@@std@@KUSCSHybridCryptKey@EterPackPolicy_CSHybridCrypt@@U?$hash@K@boost@@U?$equal_to@K@2@@detail@unordered@boost@@@detail@unordered@boost@@QBEPAU?$ptr_node@U?$pair@$$CBKUSCSHybridCryptKey@EterPackPolicy_CSHybridCrypt@@@std@@@234@ABK@Z ; boost::unordered::detail::table<boost::unordered::detail::map<std::allocator<std::pair<unsigned long const ,EterPackPolicy_CSHybridCrypt::SCSHybridCryptKey> >,unsigned long,EterPackPolicy_CSHybridCrypt::SCSHybridCryptKey,boost::hash<unsigned long>,std::equal_to<unsigned long> > >::find_node
PUBLIC	?reserve_for_insert@?$table@U?$map@V?$allocator@U?$pair@$$CBKUSCSHybridCryptKey@EterPackPolicy_CSHybridCrypt@@@std@@@std@@KUSCSHybridCryptKey@EterPackPolicy_CSHybridCrypt@@U?$hash@K@boost@@U?$equal_to@K@2@@detail@unordered@boost@@@detail@unordered@boost@@QAEXI@Z ; boost::unordered::detail::table<boost::unordered::detail::map<std::allocator<std::pair<unsigned long const ,EterPackPolicy_CSHybridCrypt::SCSHybridCryptKey> >,unsigned long,EterPackPolicy_CSHybridCrypt::SCSHybridCryptKey,boost::hash<unsigned long>,std::equal_to<unsigned long> > >::reserve_for_insert
PUBLIC	?rehash_impl@?$table@U?$map@V?$allocator@U?$pair@$$CBKUSCSHybridCryptKey@EterPackPolicy_CSHybridCrypt@@@std@@@std@@KUSCSHybridCryptKey@EterPackPolicy_CSHybridCrypt@@U?$hash@K@boost@@U?$equal_to@K@2@@detail@unordered@boost@@@detail@unordered@boost@@QAEXI@Z ; boost::unordered::detail::table<boost::unordered::detail::map<std::allocator<std::pair<unsigned long const ,EterPackPolicy_CSHybridCrypt::SCSHybridCryptKey> >,unsigned long,EterPackPolicy_CSHybridCrypt::SCSHybridCryptKey,boost::hash<unsigned long>,std::equal_to<unsigned long> > >::rehash_impl
PUBLIC	?add_node_unique@?$table@U?$map@V?$allocator@U?$pair@$$CBKUSCSHybridCryptKey@EterPackPolicy_CSHybridCrypt@@@std@@@std@@KUSCSHybridCryptKey@EterPackPolicy_CSHybridCrypt@@U?$hash@K@boost@@U?$equal_to@K@2@@detail@unordered@boost@@@detail@unordered@boost@@QAEPAU?$ptr_node@U?$pair@$$CBKUSCSHybridCryptKey@EterPackPolicy_CSHybridCrypt@@@std@@@234@PAU5234@I@Z ; boost::unordered::detail::table<boost::unordered::detail::map<std::allocator<std::pair<unsigned long const ,EterPackPolicy_CSHybridCrypt::SCSHybridCryptKey> >,unsigned long,EterPackPolicy_CSHybridCrypt::SCSHybridCryptKey,boost::hash<unsigned long>,std::equal_to<unsigned long> > >::add_node_unique
PUBLIC	?resize_and_add_node_unique@?$table@U?$map@V?$allocator@U?$pair@$$CBKUSCSHybridCryptKey@EterPackPolicy_CSHybridCrypt@@@std@@@std@@KUSCSHybridCryptKey@EterPackPolicy_CSHybridCrypt@@U?$hash@K@boost@@U?$equal_to@K@2@@detail@unordered@boost@@@detail@unordered@boost@@QAEPAU?$ptr_node@U?$pair@$$CBKUSCSHybridCryptKey@EterPackPolicy_CSHybridCrypt@@@std@@@234@PAU5234@I@Z ; boost::unordered::detail::table<boost::unordered::detail::map<std::allocator<std::pair<unsigned long const ,EterPackPolicy_CSHybridCrypt::SCSHybridCryptKey> >,unsigned long,EterPackPolicy_CSHybridCrypt::SCSHybridCryptKey,boost::hash<unsigned long>,std::equal_to<unsigned long> > >::resize_and_add_node_unique
PUBLIC	??1?$unordered_map@KUSCSHybridCryptKey@EterPackPolicy_CSHybridCrypt@@U?$hash@K@boost@@U?$equal_to@K@std@@V?$allocator@U?$pair@$$CBKUSCSHybridCryptKey@EterPackPolicy_CSHybridCrypt@@@std@@@6@@unordered@boost@@QAE@XZ ; boost::unordered::unordered_map<unsigned long,EterPackPolicy_CSHybridCrypt::SCSHybridCryptKey,boost::hash<unsigned long>,std::equal_to<unsigned long>,std::allocator<std::pair<unsigned long const ,EterPackPolicy_CSHybridCrypt::SCSHybridCryptKey> > >::~unordered_map<unsigned long,EterPackPolicy_CSHybridCrypt::SCSHybridCryptKey,boost::hash<unsigned long>,std::equal_to<unsigned long>,std::allocator<std::pair<unsigned long const ,EterPackPolicy_CSHybridCrypt::SCSHybridCryptKey> > >
PUBLIC	?find@?$unordered_map@KUSCSHybridCryptKey@EterPackPolicy_CSHybridCrypt@@U?$hash@K@boost@@U?$equal_to@K@std@@V?$allocator@U?$pair@$$CBKUSCSHybridCryptKey@EterPackPolicy_CSHybridCrypt@@@std@@@6@@unordered@boost@@QAE?AU?$iterator@U?$ptr_node@U?$pair@$$CBKUSCSHybridCryptKey@EterPackPolicy_CSHybridCrypt@@@std@@@detail@unordered@boost@@@iterator_detail@23@ABK@Z ; boost::unordered::unordered_map<unsigned long,EterPackPolicy_CSHybridCrypt::SCSHybridCryptKey,boost::hash<unsigned long>,std::equal_to<unsigned long>,std::allocator<std::pair<unsigned long const ,EterPackPolicy_CSHybridCrypt::SCSHybridCryptKey> > >::find
PUBLIC	??A?$unordered_map@KUSCSHybridCryptKey@EterPackPolicy_CSHybridCrypt@@U?$hash@K@boost@@U?$equal_to@K@std@@V?$allocator@U?$pair@$$CBKUSCSHybridCryptKey@EterPackPolicy_CSHybridCrypt@@@std@@@6@@unordered@boost@@QAEAAUSCSHybridCryptKey@EterPackPolicy_CSHybridCrypt@@ABK@Z ; boost::unordered::unordered_map<unsigned long,EterPackPolicy_CSHybridCrypt::SCSHybridCryptKey,boost::hash<unsigned long>,std::equal_to<unsigned long>,std::allocator<std::pair<unsigned long const ,EterPackPolicy_CSHybridCrypt::SCSHybridCryptKey> > >::operator[]
PUBLIC	?deallocate@?$allocator@E@std@@QAEXQAEI@Z	; std::allocator<unsigned char>::deallocate
PUBLIC	?_Copy_assign@?$vector@EV?$allocator@E@std@@@std@@AAEXABV12@U?$integral_constant@_N$0A@@2@@Z ; std::vector<unsigned char,std::allocator<unsigned char> >::_Copy_assign
PUBLIC	?_Clear_and_reserve_geometric@?$vector@EV?$allocator@E@std@@@std@@AAEXI@Z ; std::vector<unsigned char,std::allocator<unsigned char> >::_Clear_and_reserve_geometric
PUBLIC	?max_size@?$vector@EV?$allocator@E@std@@@std@@QBEIXZ ; std::vector<unsigned char,std::allocator<unsigned char> >::max_size
PUBLIC	?_Destroy@?$vector@EV?$allocator@E@std@@@std@@AAEXPAE0@Z ; std::vector<unsigned char,std::allocator<unsigned char> >::_Destroy
PUBLIC	?_Calculate_growth@?$vector@EV?$allocator@E@std@@@std@@ABEII@Z ; std::vector<unsigned char,std::allocator<unsigned char> >::_Calculate_growth
PUBLIC	?_Buy_raw@?$vector@EV?$allocator@E@std@@@std@@AAEXI@Z ; std::vector<unsigned char,std::allocator<unsigned char> >::_Buy_raw
PUBLIC	?_Change_array@?$vector@EV?$allocator@E@std@@@std@@AAEXQAEII@Z ; std::vector<unsigned char,std::allocator<unsigned char> >::_Change_array
PUBLIC	?_Tidy@?$vector@EV?$allocator@E@std@@@std@@AAEXXZ ; std::vector<unsigned char,std::allocator<unsigned char> >::_Tidy
PUBLIC	?_Xlength@?$vector@EV?$allocator@E@std@@@std@@CAXXZ ; std::vector<unsigned char,std::allocator<unsigned char> >::_Xlength
PUBLIC	?_Getal@?$vector@EV?$allocator@E@std@@@std@@AAEAAV?$allocator@E@2@XZ ; std::vector<unsigned char,std::allocator<unsigned char> >::_Getal
PUBLIC	??0SSupplementaryDataBlockInfo@EterPackPolicy_CSHybridCrypt@@QAE@XZ ; EterPackPolicy_CSHybridCrypt::SSupplementaryDataBlockInfo::SSupplementaryDataBlockInfo
PUBLIC	??1SSupplementaryDataBlockInfo@EterPackPolicy_CSHybridCrypt@@QAE@XZ ; EterPackPolicy_CSHybridCrypt::SSupplementaryDataBlockInfo::~SSupplementaryDataBlockInfo
PUBLIC	??4SSupplementaryDataBlockInfo@EterPackPolicy_CSHybridCrypt@@QAEAAU01@ABU01@@Z ; EterPackPolicy_CSHybridCrypt::SSupplementaryDataBlockInfo::operator=
PUBLIC	?next_node@?$table@U?$map@V?$allocator@U?$pair@$$CBKUSSupplementaryDataBlockInfo@EterPackPolicy_CSHybridCrypt@@@std@@@std@@KUSSupplementaryDataBlockInfo@EterPackPolicy_CSHybridCrypt@@U?$hash@K@boost@@U?$equal_to@K@2@@detail@unordered@boost@@@detail@unordered@boost@@SAPAU?$ptr_node@U?$pair@$$CBKUSSupplementaryDataBlockInfo@EterPackPolicy_CSHybridCrypt@@@std@@@234@PAUptr_bucket@234@@Z ; boost::unordered::detail::table<boost::unordered::detail::map<std::allocator<std::pair<unsigned long const ,EterPackPolicy_CSHybridCrypt::SSupplementaryDataBlockInfo> >,unsigned long,EterPackPolicy_CSHybridCrypt::SSupplementaryDataBlockInfo,boost::hash<unsigned long>,std::equal_to<unsigned long> > >::next_node
PUBLIC	?next_for_find@?$table@U?$map@V?$allocator@U?$pair@$$CBKUSSupplementaryDataBlockInfo@EterPackPolicy_CSHybridCrypt@@@std@@@std@@KUSSupplementaryDataBlockInfo@EterPackPolicy_CSHybridCrypt@@U?$hash@K@boost@@U?$equal_to@K@2@@detail@unordered@boost@@@detail@unordered@boost@@SAPAU?$ptr_node@U?$pair@$$CBKUSSupplementaryDataBlockInfo@EterPackPolicy_CSHybridCrypt@@@std@@@234@PAUptr_bucket@234@@Z ; boost::unordered::detail::table<boost::unordered::detail::map<std::allocator<std::pair<unsigned long const ,EterPackPolicy_CSHybridCrypt::SSupplementaryDataBlockInfo> >,unsigned long,EterPackPolicy_CSHybridCrypt::SSupplementaryDataBlockInfo,boost::hash<unsigned long>,std::equal_to<unsigned long> > >::next_for_find
PUBLIC	?begin@?$table@U?$map@V?$allocator@U?$pair@$$CBKUSSupplementaryDataBlockInfo@EterPackPolicy_CSHybridCrypt@@@std@@@std@@KUSSupplementaryDataBlockInfo@EterPackPolicy_CSHybridCrypt@@U?$hash@K@boost@@U?$equal_to@K@2@@detail@unordered@boost@@@detail@unordered@boost@@QBEPAU?$ptr_node@U?$pair@$$CBKUSSupplementaryDataBlockInfo@EterPackPolicy_CSHybridCrypt@@@std@@@234@I@Z ; boost::unordered::detail::table<boost::unordered::detail::map<std::allocator<std::pair<unsigned long const ,EterPackPolicy_CSHybridCrypt::SSupplementaryDataBlockInfo> >,unsigned long,EterPackPolicy_CSHybridCrypt::SSupplementaryDataBlockInfo,boost::hash<unsigned long>,std::equal_to<unsigned long> > >::begin
PUBLIC	?recalculate_max_load@?$table@U?$map@V?$allocator@U?$pair@$$CBKUSSupplementaryDataBlockInfo@EterPackPolicy_CSHybridCrypt@@@std@@@std@@KUSSupplementaryDataBlockInfo@EterPackPolicy_CSHybridCrypt@@U?$hash@K@boost@@U?$equal_to@K@2@@detail@unordered@boost@@@detail@unordered@boost@@QAEXXZ ; boost::unordered::detail::table<boost::unordered::detail::map<std::allocator<std::pair<unsigned long const ,EterPackPolicy_CSHybridCrypt::SSupplementaryDataBlockInfo> >,unsigned long,EterPackPolicy_CSHybridCrypt::SSupplementaryDataBlockInfo,boost::hash<unsigned long>,std::equal_to<unsigned long> > >::recalculate_max_load
PUBLIC	?min_buckets_for_size@?$table@U?$map@V?$allocator@U?$pair@$$CBKUSSupplementaryDataBlockInfo@EterPackPolicy_CSHybridCrypt@@@std@@@std@@KUSSupplementaryDataBlockInfo@EterPackPolicy_CSHybridCrypt@@U?$hash@K@boost@@U?$equal_to@K@2@@detail@unordered@boost@@@detail@unordered@boost@@QBEII@Z ; boost::unordered::detail::table<boost::unordered::detail::map<std::allocator<std::pair<unsigned long const ,EterPackPolicy_CSHybridCrypt::SSupplementaryDataBlockInfo> >,unsigned long,EterPackPolicy_CSHybridCrypt::SSupplementaryDataBlockInfo,boost::hash<unsigned long>,std::equal_to<unsigned long> > >::min_buckets_for_size
PUBLIC	?create_buckets@?$table@U?$map@V?$allocator@U?$pair@$$CBKUSSupplementaryDataBlockInfo@EterPackPolicy_CSHybridCrypt@@@std@@@std@@KUSSupplementaryDataBlockInfo@EterPackPolicy_CSHybridCrypt@@U?$hash@K@boost@@U?$equal_to@K@2@@detail@unordered@boost@@@detail@unordered@boost@@QAEXI@Z ; boost::unordered::detail::table<boost::unordered::detail::map<std::allocator<std::pair<unsigned long const ,EterPackPolicy_CSHybridCrypt::SSupplementaryDataBlockInfo> >,unsigned long,EterPackPolicy_CSHybridCrypt::SSupplementaryDataBlockInfo,boost::hash<unsigned long>,std::equal_to<unsigned long> > >::create_buckets
PUBLIC	?destroy_node@?$table@U?$map@V?$allocator@U?$pair@$$CBKUSSupplementaryDataBlockInfo@EterPackPolicy_CSHybridCrypt@@@std@@@std@@KUSSupplementaryDataBlockInfo@EterPackPolicy_CSHybridCrypt@@U?$hash@K@boost@@U?$equal_to@K@2@@detail@unordered@boost@@@detail@unordered@boost@@QAEXPAU?$ptr_node@U?$pair@$$CBKUSSupplementaryDataBlockInfo@EterPackPolicy_CSHybridCrypt@@@std@@@234@@Z ; boost::unordered::detail::table<boost::unordered::detail::map<std::allocator<std::pair<unsigned long const ,EterPackPolicy_CSHybridCrypt::SSupplementaryDataBlockInfo> >,unsigned long,EterPackPolicy_CSHybridCrypt::SSupplementaryDataBlockInfo,boost::hash<unsigned long>,std::equal_to<unsigned long> > >::destroy_node
PUBLIC	?delete_buckets@?$table@U?$map@V?$allocator@U?$pair@$$CBKUSSupplementaryDataBlockInfo@EterPackPolicy_CSHybridCrypt@@@std@@@std@@KUSSupplementaryDataBlockInfo@EterPackPolicy_CSHybridCrypt@@U?$hash@K@boost@@U?$equal_to@K@2@@detail@unordered@boost@@@detail@unordered@boost@@QAEXXZ ; boost::unordered::detail::table<boost::unordered::detail::map<std::allocator<std::pair<unsigned long const ,EterPackPolicy_CSHybridCrypt::SSupplementaryDataBlockInfo> >,unsigned long,EterPackPolicy_CSHybridCrypt::SSupplementaryDataBlockInfo,boost::hash<unsigned long>,std::equal_to<unsigned long> > >::delete_buckets
PUBLIC	?destroy_buckets@?$table@U?$map@V?$allocator@U?$pair@$$CBKUSSupplementaryDataBlockInfo@EterPackPolicy_CSHybridCrypt@@@std@@@std@@KUSSupplementaryDataBlockInfo@EterPackPolicy_CSHybridCrypt@@U?$hash@K@boost@@U?$equal_to@K@2@@detail@unordered@boost@@@detail@unordered@boost@@QAEXXZ ; boost::unordered::detail::table<boost::unordered::detail::map<std::allocator<std::pair<unsigned long const ,EterPackPolicy_CSHybridCrypt::SSupplementaryDataBlockInfo> >,unsigned long,EterPackPolicy_CSHybridCrypt::SSupplementaryDataBlockInfo,boost::hash<unsigned long>,std::equal_to<unsigned long> > >::destroy_buckets
PUBLIC	?clear_impl@?$table@U?$map@V?$allocator@U?$pair@$$CBKUSSupplementaryDataBlockInfo@EterPackPolicy_CSHybridCrypt@@@std@@@std@@KUSSupplementaryDataBlockInfo@EterPackPolicy_CSHybridCrypt@@U?$hash@K@boost@@U?$equal_to@K@2@@detail@unordered@boost@@@detail@unordered@boost@@QAEXXZ ; boost::unordered::detail::table<boost::unordered::detail::map<std::allocator<std::pair<unsigned long const ,EterPackPolicy_CSHybridCrypt::SSupplementaryDataBlockInfo> >,unsigned long,EterPackPolicy_CSHybridCrypt::SSupplementaryDataBlockInfo,boost::hash<unsigned long>,std::equal_to<unsigned long> > >::clear_impl
PUBLIC	?find_node@?$table@U?$map@V?$allocator@U?$pair@$$CBKUSSupplementaryDataBlockInfo@EterPackPolicy_CSHybridCrypt@@@std@@@std@@KUSSupplementaryDataBlockInfo@EterPackPolicy_CSHybridCrypt@@U?$hash@K@boost@@U?$equal_to@K@2@@detail@unordered@boost@@@detail@unordered@boost@@QBEPAU?$ptr_node@U?$pair@$$CBKUSSupplementaryDataBlockInfo@EterPackPolicy_CSHybridCrypt@@@std@@@234@ABK@Z ; boost::unordered::detail::table<boost::unordered::detail::map<std::allocator<std::pair<unsigned long const ,EterPackPolicy_CSHybridCrypt::SSupplementaryDataBlockInfo> >,unsigned long,EterPackPolicy_CSHybridCrypt::SSupplementaryDataBlockInfo,boost::hash<unsigned long>,std::equal_to<unsigned long> > >::find_node
PUBLIC	?reserve_for_insert@?$table@U?$map@V?$allocator@U?$pair@$$CBKUSSupplementaryDataBlockInfo@EterPackPolicy_CSHybridCrypt@@@std@@@std@@KUSSupplementaryDataBlockInfo@EterPackPolicy_CSHybridCrypt@@U?$hash@K@boost@@U?$equal_to@K@2@@detail@unordered@boost@@@detail@unordered@boost@@QAEXI@Z ; boost::unordered::detail::table<boost::unordered::detail::map<std::allocator<std::pair<unsigned long const ,EterPackPolicy_CSHybridCrypt::SSupplementaryDataBlockInfo> >,unsigned long,EterPackPolicy_CSHybridCrypt::SSupplementaryDataBlockInfo,boost::hash<unsigned long>,std::equal_to<unsigned long> > >::reserve_for_insert
PUBLIC	?rehash_impl@?$table@U?$map@V?$allocator@U?$pair@$$CBKUSSupplementaryDataBlockInfo@EterPackPolicy_CSHybridCrypt@@@std@@@std@@KUSSupplementaryDataBlockInfo@EterPackPolicy_CSHybridCrypt@@U?$hash@K@boost@@U?$equal_to@K@2@@detail@unordered@boost@@@detail@unordered@boost@@QAEXI@Z ; boost::unordered::detail::table<boost::unordered::detail::map<std::allocator<std::pair<unsigned long const ,EterPackPolicy_CSHybridCrypt::SSupplementaryDataBlockInfo> >,unsigned long,EterPackPolicy_CSHybridCrypt::SSupplementaryDataBlockInfo,boost::hash<unsigned long>,std::equal_to<unsigned long> > >::rehash_impl
PUBLIC	?add_node_unique@?$table@U?$map@V?$allocator@U?$pair@$$CBKUSSupplementaryDataBlockInfo@EterPackPolicy_CSHybridCrypt@@@std@@@std@@KUSSupplementaryDataBlockInfo@EterPackPolicy_CSHybridCrypt@@U?$hash@K@boost@@U?$equal_to@K@2@@detail@unordered@boost@@@detail@unordered@boost@@QAEPAU?$ptr_node@U?$pair@$$CBKUSSupplementaryDataBlockInfo@EterPackPolicy_CSHybridCrypt@@@std@@@234@PAU5234@I@Z ; boost::unordered::detail::table<boost::unordered::detail::map<std::allocator<std::pair<unsigned long const ,EterPackPolicy_CSHybridCrypt::SSupplementaryDataBlockInfo> >,unsigned long,EterPackPolicy_CSHybridCrypt::SSupplementaryDataBlockInfo,boost::hash<unsigned long>,std::equal_to<unsigned long> > >::add_node_unique
PUBLIC	?resize_and_add_node_unique@?$table@U?$map@V?$allocator@U?$pair@$$CBKUSSupplementaryDataBlockInfo@EterPackPolicy_CSHybridCrypt@@@std@@@std@@KUSSupplementaryDataBlockInfo@EterPackPolicy_CSHybridCrypt@@U?$hash@K@boost@@U?$equal_to@K@2@@detail@unordered@boost@@@detail@unordered@boost@@QAEPAU?$ptr_node@U?$pair@$$CBKUSSupplementaryDataBlockInfo@EterPackPolicy_CSHybridCrypt@@@std@@@234@PAU5234@I@Z ; boost::unordered::detail::table<boost::unordered::detail::map<std::allocator<std::pair<unsigned long const ,EterPackPolicy_CSHybridCrypt::SSupplementaryDataBlockInfo> >,unsigned long,EterPackPolicy_CSHybridCrypt::SSupplementaryDataBlockInfo,boost::hash<unsigned long>,std::equal_to<unsigned long> > >::resize_and_add_node_unique
PUBLIC	??1?$unordered_map@KUSSupplementaryDataBlockInfo@EterPackPolicy_CSHybridCrypt@@U?$hash@K@boost@@U?$equal_to@K@std@@V?$allocator@U?$pair@$$CBKUSSupplementaryDataBlockInfo@EterPackPolicy_CSHybridCrypt@@@std@@@6@@unordered@boost@@QAE@XZ ; boost::unordered::unordered_map<unsigned long,EterPackPolicy_CSHybridCrypt::SSupplementaryDataBlockInfo,boost::hash<unsigned long>,std::equal_to<unsigned long>,std::allocator<std::pair<unsigned long const ,EterPackPolicy_CSHybridCrypt::SSupplementaryDataBlockInfo> > >::~unordered_map<unsigned long,EterPackPolicy_CSHybridCrypt::SSupplementaryDataBlockInfo,boost::hash<unsigned long>,std::equal_to<unsigned long>,std::allocator<std::pair<unsigned long const ,EterPackPolicy_CSHybridCrypt::SSupplementaryDataBlockInfo> > >
PUBLIC	?find@?$unordered_map@KUSSupplementaryDataBlockInfo@EterPackPolicy_CSHybridCrypt@@U?$hash@K@boost@@U?$equal_to@K@std@@V?$allocator@U?$pair@$$CBKUSSupplementaryDataBlockInfo@EterPackPolicy_CSHybridCrypt@@@std@@@6@@unordered@boost@@QAE?AU?$iterator@U?$ptr_node@U?$pair@$$CBKUSSupplementaryDataBlockInfo@EterPackPolicy_CSHybridCrypt@@@std@@@detail@unordered@boost@@@iterator_detail@23@ABK@Z ; boost::unordered::unordered_map<unsigned long,EterPackPolicy_CSHybridCrypt::SSupplementaryDataBlockInfo,boost::hash<unsigned long>,std::equal_to<unsigned long>,std::allocator<std::pair<unsigned long const ,EterPackPolicy_CSHybridCrypt::SSupplementaryDataBlockInfo> > >::find
PUBLIC	??A?$unordered_map@KUSSupplementaryDataBlockInfo@EterPackPolicy_CSHybridCrypt@@U?$hash@K@boost@@U?$equal_to@K@std@@V?$allocator@U?$pair@$$CBKUSSupplementaryDataBlockInfo@EterPackPolicy_CSHybridCrypt@@@std@@@6@@unordered@boost@@QAEAAUSSupplementaryDataBlockInfo@EterPackPolicy_CSHybridCrypt@@ABK@Z ; boost::unordered::unordered_map<unsigned long,EterPackPolicy_CSHybridCrypt::SSupplementaryDataBlockInfo,boost::hash<unsigned long>,std::equal_to<unsigned long>,std::allocator<std::pair<unsigned long const ,EterPackPolicy_CSHybridCrypt::SSupplementaryDataBlockInfo> > >::operator[]
PUBLIC	?GetPerFileCryptKey@EterPackPolicy_CSHybridCrypt@@AAE_NAAV?$basic_string@DU?$char_traits@D@std@@V?$allocator@D@2@@std@@AAW4eHybridCipherAlgorithm@@AATUEncryptKey@1@AATUEncryptIV@1@@Z ; EterPackPolicy_CSHybridCrypt::GetPerFileCryptKey
PUBLIC	?GetHash@stringhash@@QBEIABV?$basic_string@DU?$char_traits@D@std@@V?$allocator@D@2@@std@@@Z ; stringhash::GetHash
PUBLIC	?GetOptimalBlockSize@AdditiveCipherAbstractPolicy@CryptoPP@@UBEIXZ ; CryptoPP::AdditiveCipherAbstractPolicy::GetOptimalBlockSize
PUBLIC	??0?$SecBlock@EV?$AllocatorWithCleanup@E$0A@@CryptoPP@@@CryptoPP@@QAE@I@Z ; CryptoPP::SecBlock<unsigned char,CryptoPP::AllocatorWithCleanup<unsigned char,0> >::SecBlock<unsigned char,CryptoPP::AllocatorWithCleanup<unsigned char,0> >
PUBLIC	??0?$SecBlock@EV?$AllocatorWithCleanup@E$0A@@CryptoPP@@@CryptoPP@@QAE@ABV01@@Z ; CryptoPP::SecBlock<unsigned char,CryptoPP::AllocatorWithCleanup<unsigned char,0> >::SecBlock<unsigned char,CryptoPP::AllocatorWithCleanup<unsigned char,0> >
PUBLIC	??1?$SecBlock@EV?$AllocatorWithCleanup@E$0A@@CryptoPP@@@CryptoPP@@QAE@XZ ; CryptoPP::SecBlock<unsigned char,CryptoPP::AllocatorWithCleanup<unsigned char,0> >::~SecBlock<unsigned char,CryptoPP::AllocatorWithCleanup<unsigned char,0> >
PUBLIC	?Assign@?$SecBlock@EV?$AllocatorWithCleanup@E$0A@@CryptoPP@@@CryptoPP@@QAEXABV12@@Z ; CryptoPP::SecBlock<unsigned char,CryptoPP::AllocatorWithCleanup<unsigned char,0> >::Assign
PUBLIC	?New@?$SecBlock@EV?$AllocatorWithCleanup@E$0A@@CryptoPP@@@CryptoPP@@QAEXI@Z ; CryptoPP::SecBlock<unsigned char,CryptoPP::AllocatorWithCleanup<unsigned char,0> >::New
PUBLIC	??0ConstByteArrayParameter@CryptoPP@@QAE@PBD_N@Z ; CryptoPP::ConstByteArrayParameter::ConstByteArrayParameter
PUBLIC	?Assign@ConstByteArrayParameter@CryptoPP@@QAEXPBEI_N@Z ; CryptoPP::ConstByteArrayParameter::Assign
PUBLIC	??1ConstByteArrayParameter@CryptoPP@@QAE@XZ	; CryptoPP::ConstByteArrayParameter::~ConstByteArrayParameter
PUBLIC	??0ConstByteArrayParameter@CryptoPP@@QAE@ABV01@@Z ; CryptoPP::ConstByteArrayParameter::ConstByteArrayParameter
PUBLIC	??4ConstByteArrayParameter@CryptoPP@@QAEAAV01@ABV01@@Z ; CryptoPP::ConstByteArrayParameter::operator=
PUBLIC	??0ParameterNotUsed@AlgorithmParametersBase@CryptoPP@@QAE@PBD@Z ; CryptoPP::AlgorithmParametersBase::ParameterNotUsed::ParameterNotUsed
PUBLIC	??1ParameterNotUsed@AlgorithmParametersBase@CryptoPP@@UAE@XZ ; CryptoPP::AlgorithmParametersBase::ParameterNotUsed::~ParameterNotUsed
PUBLIC	??0ParameterNotUsed@AlgorithmParametersBase@CryptoPP@@QAE@ABV012@@Z ; CryptoPP::AlgorithmParametersBase::ParameterNotUsed::ParameterNotUsed
PUBLIC	??_GParameterNotUsed@AlgorithmParametersBase@CryptoPP@@UAEPAXI@Z ; CryptoPP::AlgorithmParametersBase::ParameterNotUsed::`scalar deleting destructor'
PUBLIC	??0AlgorithmParametersBase@CryptoPP@@QAE@ABV01@@Z ; CryptoPP::AlgorithmParametersBase::AlgorithmParametersBase
PUBLIC	??1AlgorithmParametersBase@CryptoPP@@UAE@XZ	; CryptoPP::AlgorithmParametersBase::~AlgorithmParametersBase
PUBLIC	??1?$member_ptr@VAlgorithmParametersBase@CryptoPP@@@CryptoPP@@QAE@XZ ; CryptoPP::member_ptr<CryptoPP::AlgorithmParametersBase>::~member_ptr<CryptoPP::AlgorithmParametersBase>
PUBLIC	?reset@?$member_ptr@VAlgorithmParametersBase@CryptoPP@@@CryptoPP@@QAEXPAVAlgorithmParametersBase@2@@Z ; CryptoPP::member_ptr<CryptoPP::AlgorithmParametersBase>::reset
PUBLIC	??_GAlgorithmParametersBase@CryptoPP@@UAEPAXI@Z	; CryptoPP::AlgorithmParametersBase::`scalar deleting destructor'
PUBLIC	?AssignValue@?$AlgorithmParametersTemplate@VConstByteArrayParameter@CryptoPP@@@CryptoPP@@UBEXPBDABVtype_info@@PAX@Z ; CryptoPP::AlgorithmParametersTemplate<CryptoPP::ConstByteArrayParameter>::AssignValue
PUBLIC	?MoveInto@?$AlgorithmParametersTemplate@VConstByteArrayParameter@CryptoPP@@@CryptoPP@@UBEXPAX@Z ; CryptoPP::AlgorithmParametersTemplate<CryptoPP::ConstByteArrayParameter>::MoveInto
PUBLIC	??_G?$AlgorithmParametersTemplate@VConstByteArrayParameter@CryptoPP@@@CryptoPP@@UAEPAXI@Z ; CryptoPP::AlgorithmParametersTemplate<CryptoPP::ConstByteArrayParameter>::`scalar deleting destructor'
PUBLIC	??1AlgorithmParameters@CryptoPP@@UAE@XZ		; CryptoPP::AlgorithmParameters::~AlgorithmParameters
PUBLIC	?MinKeyLength@CipherModeBase@CryptoPP@@UBEIXZ	; CryptoPP::CipherModeBase::MinKeyLength
PUBLIC	?MaxKeyLength@CipherModeBase@CryptoPP@@UBEIXZ	; CryptoPP::CipherModeBase::MaxKeyLength
PUBLIC	?DefaultKeyLength@CipherModeBase@CryptoPP@@UBEIXZ ; CryptoPP::CipherModeBase::DefaultKeyLength
PUBLIC	?GetValidKeyLength@CipherModeBase@CryptoPP@@UBEII@Z ; CryptoPP::CipherModeBase::GetValidKeyLength
PUBLIC	?IsValidKeyLength@CipherModeBase@CryptoPP@@UBE_NI@Z ; CryptoPP::CipherModeBase::IsValidKeyLength
PUBLIC	?IVSize@CipherModeBase@CryptoPP@@UBEIXZ		; CryptoPP::CipherModeBase::IVSize
PUBLIC	??0CipherModeBase@CryptoPP@@IAE@XZ		; CryptoPP::CipherModeBase::CipherModeBase
PUBLIC	?SetFeedbackSize@CipherModeBase@CryptoPP@@MAEXI@Z ; CryptoPP::CipherModeBase::SetFeedbackSize
PUBLIC	?ResizeBuffers@CipherModeBase@CryptoPP@@MAEXXZ	; CryptoPP::CipherModeBase::ResizeBuffers
PUBLIC	??0?$SecBlock@EV?$AllocatorWithCleanup@E$00@CryptoPP@@@CryptoPP@@QAE@I@Z ; CryptoPP::SecBlock<unsigned char,CryptoPP::AllocatorWithCleanup<unsigned char,1> >::SecBlock<unsigned char,CryptoPP::AllocatorWithCleanup<unsigned char,1> >
PUBLIC	??1?$SecBlock@EV?$AllocatorWithCleanup@E$00@CryptoPP@@@CryptoPP@@QAE@XZ ; CryptoPP::SecBlock<unsigned char,CryptoPP::AllocatorWithCleanup<unsigned char,1> >::~SecBlock<unsigned char,CryptoPP::AllocatorWithCleanup<unsigned char,1> >
PUBLIC	?New@?$SecBlock@EV?$AllocatorWithCleanup@E$00@CryptoPP@@@CryptoPP@@QAEXI@Z ; CryptoPP::SecBlock<unsigned char,CryptoPP::AllocatorWithCleanup<unsigned char,1> >::New
PUBLIC	?CipherSetKey@?$ModePolicyCommonTemplate@UAdditiveCipherAbstractPolicy@CryptoPP@@@CryptoPP@@EAEXABVNameValuePairs@2@PBEI@Z ; CryptoPP::ModePolicyCommonTemplate<CryptoPP::AdditiveCipherAbstractPolicy>::CipherSetKey
PUBLIC	??1?$ModePolicyCommonTemplate@UAdditiveCipherAbstractPolicy@CryptoPP@@@CryptoPP@@UAE@XZ ; CryptoPP::ModePolicyCommonTemplate<CryptoPP::AdditiveCipherAbstractPolicy>::~ModePolicyCommonTemplate<CryptoPP::AdditiveCipherAbstractPolicy>
PUBLIC	?CipherIsRandomAccess@CTR_ModePolicy@CryptoPP@@UBE_NXZ ; CryptoPP::CTR_ModePolicy::CipherIsRandomAccess
PUBLIC	?IVRequirement@CTR_ModePolicy@CryptoPP@@UBE?AW4IV_Requirement@SimpleKeyingInterface@2@XZ ; CryptoPP::CTR_ModePolicy::IVRequirement
PUBLIC	?GetAlignment@CTR_ModePolicy@CryptoPP@@MBEIXZ	; CryptoPP::CTR_ModePolicy::GetAlignment
PUBLIC	?GetBytesPerIteration@CTR_ModePolicy@CryptoPP@@MBEIXZ ; CryptoPP::CTR_ModePolicy::GetBytesPerIteration
PUBLIC	?GetIterationsToBuffer@CTR_ModePolicy@CryptoPP@@MBEIXZ ; CryptoPP::CTR_ModePolicy::GetIterationsToBuffer
PUBLIC	?WriteKeystream@CTR_ModePolicy@CryptoPP@@MAEXPAEI@Z ; CryptoPP::CTR_ModePolicy::WriteKeystream
PUBLIC	?CanOperateKeystream@CTR_ModePolicy@CryptoPP@@MBE_NXZ ; CryptoPP::CTR_ModePolicy::CanOperateKeystream
PUBLIC	??1?$AbstractPolicyHolder@UAdditiveCipherAbstractPolicy@CryptoPP@@VCTR_ModePolicy@2@@CryptoPP@@UAE@XZ ; CryptoPP::AbstractPolicyHolder<CryptoPP::AdditiveCipherAbstractPolicy,CryptoPP::CTR_ModePolicy>::~AbstractPolicyHolder<CryptoPP::AdditiveCipherAbstractPolicy,CryptoPP::CTR_ModePolicy>
PUBLIC	?OptimalBlockSize@?$AdditiveCipherTemplate@V?$AbstractPolicyHolder@UAdditiveCipherAbstractPolicy@CryptoPP@@VCTR_ModePolicy@2@@CryptoPP@@@CryptoPP@@UBEIXZ ; CryptoPP::AdditiveCipherTemplate<CryptoPP::AbstractPolicyHolder<CryptoPP::AdditiveCipherAbstractPolicy,CryptoPP::CTR_ModePolicy> >::OptimalBlockSize
PUBLIC	?OptimalDataAlignment@?$AdditiveCipherTemplate@V?$AbstractPolicyHolder@UAdditiveCipherAbstractPolicy@CryptoPP@@VCTR_ModePolicy@2@@CryptoPP@@@CryptoPP@@UBEIXZ ; CryptoPP::AdditiveCipherTemplate<CryptoPP::AbstractPolicyHolder<CryptoPP::AdditiveCipherAbstractPolicy,CryptoPP::CTR_ModePolicy> >::OptimalDataAlignment
PUBLIC	?IsSelfInverting@?$AdditiveCipherTemplate@V?$AbstractPolicyHolder@UAdditiveCipherAbstractPolicy@CryptoPP@@VCTR_ModePolicy@2@@CryptoPP@@@CryptoPP@@UBE_NXZ ; CryptoPP::AdditiveCipherTemplate<CryptoPP::AbstractPolicyHolder<CryptoPP::AdditiveCipherAbstractPolicy,CryptoPP::CTR_ModePolicy> >::IsSelfInverting
PUBLIC	?IsForwardTransformation@?$AdditiveCipherTemplate@V?$AbstractPolicyHolder@UAdditiveCipherAbstractPolicy@CryptoPP@@VCTR_ModePolicy@2@@CryptoPP@@@CryptoPP@@UBE_NXZ ; CryptoPP::AdditiveCipherTemplate<CryptoPP::AbstractPolicyHolder<CryptoPP::AdditiveCipherAbstractPolicy,CryptoPP::CTR_ModePolicy> >::IsForwardTransformation
PUBLIC	?IsRandomAccess@?$AdditiveCipherTemplate@V?$AbstractPolicyHolder@UAdditiveCipherAbstractPolicy@CryptoPP@@VCTR_ModePolicy@2@@CryptoPP@@@CryptoPP@@UBE_NXZ ; CryptoPP::AdditiveCipherTemplate<CryptoPP::AbstractPolicyHolder<CryptoPP::AdditiveCipherAbstractPolicy,CryptoPP::CTR_ModePolicy> >::IsRandomAccess
PUBLIC	??0?$AdditiveCipherTemplate@V?$AbstractPolicyHolder@UAdditiveCipherAbstractPolicy@CryptoPP@@VCTR_ModePolicy@2@@CryptoPP@@@CryptoPP@@QAE@XZ ; CryptoPP::AdditiveCipherTemplate<CryptoPP::AbstractPolicyHolder<CryptoPP::AdditiveCipherAbstractPolicy,CryptoPP::CTR_ModePolicy> >::AdditiveCipherTemplate<CryptoPP::AbstractPolicyHolder<CryptoPP::AdditiveCipherAbstractPolicy,CryptoPP::CTR_ModePolicy> >
PUBLIC	??1?$AdditiveCipherTemplate@V?$AbstractPolicyHolder@UAdditiveCipherAbstractPolicy@CryptoPP@@VCTR_ModePolicy@2@@CryptoPP@@@CryptoPP@@UAE@XZ ; CryptoPP::AdditiveCipherTemplate<CryptoPP::AbstractPolicyHolder<CryptoPP::AdditiveCipherAbstractPolicy,CryptoPP::CTR_ModePolicy> >::~AdditiveCipherTemplate<CryptoPP::AbstractPolicyHolder<CryptoPP::AdditiveCipherAbstractPolicy,CryptoPP::CTR_ModePolicy> >
PUBLIC	?GetPolicy@?$ConcretePolicyHolder@VEmpty@CryptoPP@@V?$AdditiveCipherTemplate@V?$AbstractPolicyHolder@UAdditiveCipherAbstractPolicy@CryptoPP@@VCTR_ModePolicy@2@@CryptoPP@@@2@UAdditiveCipherAbstractPolicy@2@@CryptoPP@@MBEABUAdditiveCipherAbstractPolicy@2@XZ ; CryptoPP::ConcretePolicyHolder<CryptoPP::Empty,CryptoPP::AdditiveCipherTemplate<CryptoPP::AbstractPolicyHolder<CryptoPP::AdditiveCipherAbstractPolicy,CryptoPP::CTR_ModePolicy> >,CryptoPP::AdditiveCipherAbstractPolicy>::GetPolicy
PUBLIC	?AccessPolicy@?$ConcretePolicyHolder@VEmpty@CryptoPP@@V?$AdditiveCipherTemplate@V?$AbstractPolicyHolder@UAdditiveCipherAbstractPolicy@CryptoPP@@VCTR_ModePolicy@2@@CryptoPP@@@2@UAdditiveCipherAbstractPolicy@2@@CryptoPP@@MAEAAUAdditiveCipherAbstractPolicy@2@XZ ; CryptoPP::ConcretePolicyHolder<CryptoPP::Empty,CryptoPP::AdditiveCipherTemplate<CryptoPP::AbstractPolicyHolder<CryptoPP::AdditiveCipherAbstractPolicy,CryptoPP::CTR_ModePolicy> >,CryptoPP::AdditiveCipherAbstractPolicy>::AccessPolicy
PUBLIC	??0?$ConcretePolicyHolder@VEmpty@CryptoPP@@V?$AdditiveCipherTemplate@V?$AbstractPolicyHolder@UAdditiveCipherAbstractPolicy@CryptoPP@@VCTR_ModePolicy@2@@CryptoPP@@@2@UAdditiveCipherAbstractPolicy@2@@CryptoPP@@QAE@XZ ; CryptoPP::ConcretePolicyHolder<CryptoPP::Empty,CryptoPP::AdditiveCipherTemplate<CryptoPP::AbstractPolicyHolder<CryptoPP::AdditiveCipherAbstractPolicy,CryptoPP::CTR_ModePolicy> >,CryptoPP::AdditiveCipherAbstractPolicy>::ConcretePolicyHolder<CryptoPP::Empty,CryptoPP::AdditiveCipherTemplate<CryptoPP::AbstractPolicyHolder<CryptoPP::AdditiveCipherAbstractPolicy,CryptoPP::CTR_ModePolicy> >,CryptoPP::AdditiveCipherAbstractPolicy>
PUBLIC	??_G?$ConcretePolicyHolder@VEmpty@CryptoPP@@V?$AdditiveCipherTemplate@V?$AbstractPolicyHolder@UAdditiveCipherAbstractPolicy@CryptoPP@@VCTR_ModePolicy@2@@CryptoPP@@@2@UAdditiveCipherAbstractPolicy@2@@CryptoPP@@UAEPAXI@Z ; CryptoPP::ConcretePolicyHolder<CryptoPP::Empty,CryptoPP::AdditiveCipherTemplate<CryptoPP::AbstractPolicyHolder<CryptoPP::AdditiveCipherAbstractPolicy,CryptoPP::CTR_ModePolicy> >,CryptoPP::AdditiveCipherAbstractPolicy>::`scalar deleting destructor'
PUBLIC	?Attachable@Filter@CryptoPP@@UAE_NXZ		; CryptoPP::Filter::Attachable
PUBLIC	?ShouldPropagateMessageEnd@Filter@CryptoPP@@MBE_NXZ ; CryptoPP::Filter::ShouldPropagateMessageEnd
PUBLIC	?ShouldPropagateMessageSeriesEnd@Filter@CryptoPP@@MBE_NXZ ; CryptoPP::Filter::ShouldPropagateMessageSeriesEnd
PUBLIC	??1?$member_ptr@VBufferedTransformation@CryptoPP@@@CryptoPP@@QAE@XZ ; CryptoPP::member_ptr<CryptoPP::BufferedTransformation>::~member_ptr<CryptoPP::BufferedTransformation>
PUBLIC	?IsolatedInitialize@?$StringSinkTemplate@V?$basic_string@DU?$char_traits@D@std@@V?$allocator@D@2@@std@@@CryptoPP@@UAEXABVNameValuePairs@2@@Z ; CryptoPP::StringSinkTemplate<std::basic_string<char,std::char_traits<char>,std::allocator<char> > >::IsolatedInitialize
PUBLIC	?Put2@?$StringSinkTemplate@V?$basic_string@DU?$char_traits@D@std@@V?$allocator@D@2@@std@@@CryptoPP@@UAEIPBEIH_N@Z ; CryptoPP::StringSinkTemplate<std::basic_string<char,std::char_traits<char>,std::allocator<char> > >::Put2
PUBLIC	??_G?$StringSinkTemplate@V?$basic_string@DU?$char_traits@D@std@@V?$allocator@D@2@@std@@@CryptoPP@@UAEPAXI@Z ; CryptoPP::StringSinkTemplate<std::basic_string<char,std::char_traits<char>,std::allocator<char> > >::`scalar deleting destructor'
PUBLIC	??0StringStore@CryptoPP@@QAE@PBD@Z		; CryptoPP::StringStore::StringStore
PUBLIC	??_GStringStore@CryptoPP@@UAEPAXI@Z		; CryptoPP::StringStore::`scalar deleting destructor'
PUBLIC	??$MakeParameters@VConstByteArrayParameter@CryptoPP@@@CryptoPP@@YA?AVAlgorithmParameters@0@PBDABVConstByteArrayParameter@0@_N@Z ; CryptoPP::MakeParameters<CryptoPP::ConstByteArrayParameter>
PUBLIC	?Put2@?$InputRejecting@VFilter@CryptoPP@@@CryptoPP@@UAEIPBEIH_N@Z ; CryptoPP::InputRejecting<CryptoPP::Filter>::Put2
PUBLIC	?IsolatedFlush@?$InputRejecting@VFilter@CryptoPP@@@CryptoPP@@UAE_N_N0@Z ; CryptoPP::InputRejecting<CryptoPP::Filter>::IsolatedFlush
PUBLIC	?IsolatedMessageSeriesEnd@?$InputRejecting@VFilter@CryptoPP@@@CryptoPP@@UAE_N_N@Z ; CryptoPP::InputRejecting<CryptoPP::Filter>::IsolatedMessageSeriesEnd
PUBLIC	?ChannelPut2@?$InputRejecting@VFilter@CryptoPP@@@CryptoPP@@UAEIABV?$basic_string@DU?$char_traits@D@std@@V?$allocator@D@2@@std@@PBEIH_N@Z ; CryptoPP::InputRejecting<CryptoPP::Filter>::ChannelPut2
PUBLIC	?ChannelMessageSeriesEnd@?$InputRejecting@VFilter@CryptoPP@@@CryptoPP@@UAE_NABV?$basic_string@DU?$char_traits@D@std@@V?$allocator@D@2@@std@@H_N@Z ; CryptoPP::InputRejecting<CryptoPP::Filter>::ChannelMessageSeriesEnd
PUBLIC	??1?$InputRejecting@VFilter@CryptoPP@@@CryptoPP@@UAE@XZ ; CryptoPP::InputRejecting<CryptoPP::Filter>::~InputRejecting<CryptoPP::Filter>
PUBLIC	??1Source@CryptoPP@@UAE@XZ			; CryptoPP::Source::~Source
PUBLIC	??0?$SourceTemplate@VStringStore@CryptoPP@@@CryptoPP@@QAE@PAVBufferedTransformation@1@@Z ; CryptoPP::SourceTemplate<CryptoPP::StringStore>::SourceTemplate<CryptoPP::StringStore>
PUBLIC	?IsolatedInitialize@?$SourceTemplate@VStringStore@CryptoPP@@@CryptoPP@@UAEXABVNameValuePairs@2@@Z ; CryptoPP::SourceTemplate<CryptoPP::StringStore>::IsolatedInitialize
PUBLIC	?Pump2@?$SourceTemplate@VStringStore@CryptoPP@@@CryptoPP@@UAEIAA_K_N@Z ; CryptoPP::SourceTemplate<CryptoPP::StringStore>::Pump2
PUBLIC	?PumpMessages2@?$SourceTemplate@VStringStore@CryptoPP@@@CryptoPP@@UAEIAAI_N@Z ; CryptoPP::SourceTemplate<CryptoPP::StringStore>::PumpMessages2
PUBLIC	?PumpAll2@?$SourceTemplate@VStringStore@CryptoPP@@@CryptoPP@@UAEI_N@Z ; CryptoPP::SourceTemplate<CryptoPP::StringStore>::PumpAll2
PUBLIC	?SourceExhausted@?$SourceTemplate@VStringStore@CryptoPP@@@CryptoPP@@UBE_NXZ ; CryptoPP::SourceTemplate<CryptoPP::StringStore>::SourceExhausted
PUBLIC	?SetAutoSignalPropagation@?$SourceTemplate@VStringStore@CryptoPP@@@CryptoPP@@UAEXH@Z ; CryptoPP::SourceTemplate<CryptoPP::StringStore>::SetAutoSignalPropagation
PUBLIC	?GetAutoSignalPropagation@?$SourceTemplate@VStringStore@CryptoPP@@@CryptoPP@@UBEHXZ ; CryptoPP::SourceTemplate<CryptoPP::StringStore>::GetAutoSignalPropagation
PUBLIC	??1?$SourceTemplate@VStringStore@CryptoPP@@@CryptoPP@@UAE@XZ ; CryptoPP::SourceTemplate<CryptoPP::StringStore>::~SourceTemplate<CryptoPP::StringStore>
PUBLIC	??_G?$SourceTemplate@VStringStore@CryptoPP@@@CryptoPP@@UAEPAXI@Z ; CryptoPP::SourceTemplate<CryptoPP::StringStore>::`scalar deleting destructor'
PUBLIC	??0StringSource@CryptoPP@@QAE@PBEI_NPAVBufferedTransformation@1@@Z ; CryptoPP::StringSource::StringSource
PUBLIC	??_GStringSource@CryptoPP@@UAEPAXI@Z		; CryptoPP::StringSource::`scalar deleting destructor'
PUBLIC	?CanIncorporateEntropy@RandomPool@CryptoPP@@UBE_NXZ ; CryptoPP::RandomPool::CanIncorporateEntropy
PUBLIC	?deallocate@?$FixedSizeAllocatorWithCleanup@E$0CA@V?$NullAllocator@E@CryptoPP@@$0A@@CryptoPP@@QAEXPAXI@Z ; CryptoPP::FixedSizeAllocatorWithCleanup<unsigned char,32,CryptoPP::NullAllocator<unsigned char>,0>::deallocate
PUBLIC	?deallocate@?$FixedSizeAllocatorWithCleanup@E$0BA@V?$NullAllocator@E@CryptoPP@@$0A@@CryptoPP@@QAEXPAXI@Z ; CryptoPP::FixedSizeAllocatorWithCleanup<unsigned char,16,CryptoPP::NullAllocator<unsigned char>,0>::deallocate
PUBLIC	??1?$member_ptr@VBlockCipher@CryptoPP@@@CryptoPP@@QAE@XZ ; CryptoPP::member_ptr<CryptoPP::BlockCipher>::~member_ptr<CryptoPP::BlockCipher>
PUBLIC	??1RandomPool@CryptoPP@@UAE@XZ			; CryptoPP::RandomPool::~RandomPool
PUBLIC	??_GAutoSeededRandomPool@CryptoPP@@UAEPAXI@Z	; CryptoPP::AutoSeededRandomPool::`scalar deleting destructor'
PUBLIC	?Clone@?$ClonableImpl@V?$BlockCipherFinal@$0A@VBase@Camellia@CryptoPP@@@CryptoPP@@VBase@Camellia@2@@CryptoPP@@UBEPAVClonable@2@XZ ; CryptoPP::ClonableImpl<CryptoPP::BlockCipherFinal<0,CryptoPP::Camellia::Base>,CryptoPP::Camellia::Base>::Clone
PUBLIC	??0?$BlockCipherFinal@$0A@VBase@Camellia@CryptoPP@@@CryptoPP@@QAE@XZ ; CryptoPP::BlockCipherFinal<0,CryptoPP::Camellia::Base>::BlockCipherFinal<0,CryptoPP::Camellia::Base>
PUBLIC	?IsForwardTransformation@?$BlockCipherFinal@$0A@VBase@Camellia@CryptoPP@@@CryptoPP@@UBE_NXZ ; CryptoPP::BlockCipherFinal<0,CryptoPP::Camellia::Base>::IsForwardTransformation
PUBLIC	??_G?$BlockCipherFinal@$0A@VBase@Camellia@CryptoPP@@@CryptoPP@@UAEPAXI@Z ; CryptoPP::BlockCipherFinal<0,CryptoPP::Camellia::Base>::`scalar deleting destructor'
PUBLIC	??1?$ObjectHolder@V?$BlockCipherFinal@$0A@VBase@Camellia@CryptoPP@@@CryptoPP@@@CryptoPP@@QAE@XZ ; CryptoPP::ObjectHolder<CryptoPP::BlockCipherFinal<0,CryptoPP::Camellia::Base> >::~ObjectHolder<CryptoPP::BlockCipherFinal<0,CryptoPP::Camellia::Base> >
PUBLIC	?AlgorithmName@?$AlgorithmImpl@V?$ConcretePolicyHolder@VEmpty@CryptoPP@@V?$AdditiveCipherTemplate@V?$AbstractPolicyHolder@UAdditiveCipherAbstractPolicy@CryptoPP@@VCTR_ModePolicy@2@@CryptoPP@@@2@UAdditiveCipherAbstractPolicy@2@@CryptoPP@@V?$CipherModeFinalTemplate_CipherHolder@V?$BlockCipherFinal@$0A@VBase@Camellia@CryptoPP@@@CryptoPP@@V?$ConcretePolicyHolder@VEmpty@CryptoPP@@V?$AdditiveCipherTemplate@V?$AbstractPolicyHolder@UAdditiveCipherAbstractPolicy@CryptoPP@@VCTR_ModePolicy@2@@CryptoPP@@@2@UAdditiveCipherAbstractPolicy@2@@2@@2@@CryptoPP@@UBE?AV?$basic_string@DU?$char_traits@D@std@@V?$allocator@D@2@@std@@XZ ; CryptoPP::AlgorithmImpl<CryptoPP::ConcretePolicyHolder<CryptoPP::Empty,CryptoPP::AdditiveCipherTemplate<CryptoPP::AbstractPolicyHolder<CryptoPP::AdditiveCipherAbstractPolicy,CryptoPP::CTR_ModePolicy> >,CryptoPP::AdditiveCipherAbstractPolicy>,CryptoPP::CipherModeFinalTemplate_CipherHolder<CryptoPP::BlockCipherFinal<0,CryptoPP::Camellia::Base>,CryptoPP::ConcretePolicyHolder<CryptoPP::Empty,CryptoPP::AdditiveCipherTemplate<CryptoPP::AbstractPolicyHolder<CryptoPP::AdditiveCipherAbstractPolicy,CryptoPP::CTR_ModePolicy> >,CryptoPP::AdditiveCipherAbstractPolicy> > >::AlgorithmName
PUBLIC	??1?$AlgorithmImpl@V?$ConcretePolicyHolder@VEmpty@CryptoPP@@V?$AdditiveCipherTemplate@V?$AbstractPolicyHolder@UAdditiveCipherAbstractPolicy@CryptoPP@@VCTR_ModePolicy@2@@CryptoPP@@@2@UAdditiveCipherAbstractPolicy@2@@CryptoPP@@V?$CipherModeFinalTemplate_CipherHolder@V?$BlockCipherFinal@$0A@VBase@Camellia@CryptoPP@@@CryptoPP@@V?$ConcretePolicyHolder@VEmpty@CryptoPP@@V?$AdditiveCipherTemplate@V?$AbstractPolicyHolder@UAdditiveCipherAbstractPolicy@CryptoPP@@VCTR_ModePolicy@2@@CryptoPP@@@2@UAdditiveCipherAbstractPolicy@2@@2@@2@@CryptoPP@@UAE@XZ ; CryptoPP::AlgorithmImpl<CryptoPP::ConcretePolicyHolder<CryptoPP::Empty,CryptoPP::AdditiveCipherTemplate<CryptoPP::AbstractPolicyHolder<CryptoPP::AdditiveCipherAbstractPolicy,CryptoPP::CTR_ModePolicy> >,CryptoPP::AdditiveCipherAbstractPolicy>,CryptoPP::CipherModeFinalTemplate_CipherHolder<CryptoPP::BlockCipherFinal<0,CryptoPP::Camellia::Base>,CryptoPP::ConcretePolicyHolder<CryptoPP::Empty,CryptoPP::AdditiveCipherTemplate<CryptoPP::AbstractPolicyHolder<CryptoPP::AdditiveCipherAbstractPolicy,CryptoPP::CTR_ModePolicy> >,CryptoPP::AdditiveCipherAbstractPolicy> > >::~AlgorithmImpl<CryptoPP::ConcretePolicyHolder<CryptoPP::Empty,CryptoPP::AdditiveCipherTemplate<CryptoPP::AbstractPolicyHolder<CryptoPP::AdditiveCipherAbstractPolicy,CryptoPP::CTR_ModePolicy> >,CryptoPP::AdditiveCipherAbstractPolicy>,CryptoPP::CipherModeFinalTemplate_CipherHolder<CryptoPP::BlockCipherFinal<0,CryptoPP::Camellia::Base>,CryptoPP::ConcretePolicyHolder<CryptoPP::Empty,CryptoPP::AdditiveCipherTemplate<CryptoPP::AbstractPolicyHolder<CryptoPP::AdditiveCipherAbstractPolicy,CryptoPP::CTR_ModePolicy> >,CryptoPP::AdditiveCipherAbstractPolicy> > >
PUBLIC	??0?$CipherModeFinalTemplate_CipherHolder@V?$BlockCipherFinal@$0A@VBase@Camellia@CryptoPP@@@CryptoPP@@V?$ConcretePolicyHolder@VEmpty@CryptoPP@@V?$AdditiveCipherTemplate@V?$AbstractPolicyHolder@UAdditiveCipherAbstractPolicy@CryptoPP@@VCTR_ModePolicy@2@@CryptoPP@@@2@UAdditiveCipherAbstractPolicy@2@@2@@CryptoPP@@QAE@XZ ; CryptoPP::CipherModeFinalTemplate_CipherHolder<CryptoPP::BlockCipherFinal<0,CryptoPP::Camellia::Base>,CryptoPP::ConcretePolicyHolder<CryptoPP::Empty,CryptoPP::AdditiveCipherTemplate<CryptoPP::AbstractPolicyHolder<CryptoPP::AdditiveCipherAbstractPolicy,CryptoPP::CTR_ModePolicy> >,CryptoPP::AdditiveCipherAbstractPolicy> >::CipherModeFinalTemplate_CipherHolder<CryptoPP::BlockCipherFinal<0,CryptoPP::Camellia::Base>,CryptoPP::ConcretePolicyHolder<CryptoPP::Empty,CryptoPP::AdditiveCipherTemplate<CryptoPP::AbstractPolicyHolder<CryptoPP::AdditiveCipherAbstractPolicy,CryptoPP::CTR_ModePolicy> >,CryptoPP::AdditiveCipherAbstractPolicy> >
PUBLIC	?StaticAlgorithmName@?$CipherModeFinalTemplate_CipherHolder@V?$BlockCipherFinal@$0A@VBase@Camellia@CryptoPP@@@CryptoPP@@V?$ConcretePolicyHolder@VEmpty@CryptoPP@@V?$AdditiveCipherTemplate@V?$AbstractPolicyHolder@UAdditiveCipherAbstractPolicy@CryptoPP@@VCTR_ModePolicy@2@@CryptoPP@@@2@UAdditiveCipherAbstractPolicy@2@@2@@CryptoPP@@SA?AV?$basic_string@DU?$char_traits@D@std@@V?$allocator@D@2@@std@@XZ ; CryptoPP::CipherModeFinalTemplate_CipherHolder<CryptoPP::BlockCipherFinal<0,CryptoPP::Camellia::Base>,CryptoPP::ConcretePolicyHolder<CryptoPP::Empty,CryptoPP::AdditiveCipherTemplate<CryptoPP::AbstractPolicyHolder<CryptoPP::AdditiveCipherAbstractPolicy,CryptoPP::CTR_ModePolicy> >,CryptoPP::AdditiveCipherAbstractPolicy> >::StaticAlgorithmName
PUBLIC	??1?$CipherModeFinalTemplate_CipherHolder@V?$BlockCipherFinal@$0A@VBase@Camellia@CryptoPP@@@CryptoPP@@V?$ConcretePolicyHolder@VEmpty@CryptoPP@@V?$AdditiveCipherTemplate@V?$AbstractPolicyHolder@UAdditiveCipherAbstractPolicy@CryptoPP@@VCTR_ModePolicy@2@@CryptoPP@@@2@UAdditiveCipherAbstractPolicy@2@@2@@CryptoPP@@UAE@XZ ; CryptoPP::CipherModeFinalTemplate_CipherHolder<CryptoPP::BlockCipherFinal<0,CryptoPP::Camellia::Base>,CryptoPP::ConcretePolicyHolder<CryptoPP::Empty,CryptoPP::AdditiveCipherTemplate<CryptoPP::AbstractPolicyHolder<CryptoPP::AdditiveCipherAbstractPolicy,CryptoPP::CTR_ModePolicy> >,CryptoPP::AdditiveCipherAbstractPolicy> >::~CipherModeFinalTemplate_CipherHolder<CryptoPP::BlockCipherFinal<0,CryptoPP::Camellia::Base>,CryptoPP::ConcretePolicyHolder<CryptoPP::Empty,CryptoPP::AdditiveCipherTemplate<CryptoPP::AbstractPolicyHolder<CryptoPP::AdditiveCipherAbstractPolicy,CryptoPP::CTR_ModePolicy> >,CryptoPP::AdditiveCipherAbstractPolicy> >
PUBLIC	??_G?$CipherModeFinalTemplate_CipherHolder@V?$BlockCipherFinal@$0A@VBase@Camellia@CryptoPP@@@CryptoPP@@V?$ConcretePolicyHolder@VEmpty@CryptoPP@@V?$AdditiveCipherTemplate@V?$AbstractPolicyHolder@UAdditiveCipherAbstractPolicy@CryptoPP@@VCTR_ModePolicy@2@@CryptoPP@@@2@UAdditiveCipherAbstractPolicy@2@@2@@CryptoPP@@UAEPAXI@Z ; CryptoPP::CipherModeFinalTemplate_CipherHolder<CryptoPP::BlockCipherFinal<0,CryptoPP::Camellia::Base>,CryptoPP::ConcretePolicyHolder<CryptoPP::Empty,CryptoPP::AdditiveCipherTemplate<CryptoPP::AbstractPolicyHolder<CryptoPP::AdditiveCipherAbstractPolicy,CryptoPP::CTR_ModePolicy> >,CryptoPP::AdditiveCipherAbstractPolicy> >::`scalar deleting destructor'
PUBLIC	?Clone@?$ClonableImpl@V?$BlockCipherFinal@$0A@VEnc@Twofish@CryptoPP@@@CryptoPP@@VEnc@Twofish@2@@CryptoPP@@UBEPAVClonable@2@XZ ; CryptoPP::ClonableImpl<CryptoPP::BlockCipherFinal<0,CryptoPP::Twofish::Enc>,CryptoPP::Twofish::Enc>::Clone
PUBLIC	?IsForwardTransformation@?$BlockCipherFinal@$0A@VEnc@Twofish@CryptoPP@@@CryptoPP@@UBE_NXZ ; CryptoPP::BlockCipherFinal<0,CryptoPP::Twofish::Enc>::IsForwardTransformation
PUBLIC	??_G?$BlockCipherFinal@$0A@VEnc@Twofish@CryptoPP@@@CryptoPP@@UAEPAXI@Z ; CryptoPP::BlockCipherFinal<0,CryptoPP::Twofish::Enc>::`scalar deleting destructor'
PUBLIC	??1?$ObjectHolder@V?$BlockCipherFinal@$0A@VEnc@Twofish@CryptoPP@@@CryptoPP@@@CryptoPP@@QAE@XZ ; CryptoPP::ObjectHolder<CryptoPP::BlockCipherFinal<0,CryptoPP::Twofish::Enc> >::~ObjectHolder<CryptoPP::BlockCipherFinal<0,CryptoPP::Twofish::Enc> >
PUBLIC	?AlgorithmName@?$AlgorithmImpl@V?$ConcretePolicyHolder@VEmpty@CryptoPP@@V?$AdditiveCipherTemplate@V?$AbstractPolicyHolder@UAdditiveCipherAbstractPolicy@CryptoPP@@VCTR_ModePolicy@2@@CryptoPP@@@2@UAdditiveCipherAbstractPolicy@2@@CryptoPP@@V?$CipherModeFinalTemplate_CipherHolder@V?$BlockCipherFinal@$0A@VEnc@Twofish@CryptoPP@@@CryptoPP@@V?$ConcretePolicyHolder@VEmpty@CryptoPP@@V?$AdditiveCipherTemplate@V?$AbstractPolicyHolder@UAdditiveCipherAbstractPolicy@CryptoPP@@VCTR_ModePolicy@2@@CryptoPP@@@2@UAdditiveCipherAbstractPolicy@2@@2@@2@@CryptoPP@@UBE?AV?$basic_string@DU?$char_traits@D@std@@V?$allocator@D@2@@std@@XZ ; CryptoPP::AlgorithmImpl<CryptoPP::ConcretePolicyHolder<CryptoPP::Empty,CryptoPP::AdditiveCipherTemplate<CryptoPP::AbstractPolicyHolder<CryptoPP::AdditiveCipherAbstractPolicy,CryptoPP::CTR_ModePolicy> >,CryptoPP::AdditiveCipherAbstractPolicy>,CryptoPP::CipherModeFinalTemplate_CipherHolder<CryptoPP::BlockCipherFinal<0,CryptoPP::Twofish::Enc>,CryptoPP::ConcretePolicyHolder<CryptoPP::Empty,CryptoPP::AdditiveCipherTemplate<CryptoPP::AbstractPolicyHolder<CryptoPP::AdditiveCipherAbstractPolicy,CryptoPP::CTR_ModePolicy> >,CryptoPP::AdditiveCipherAbstractPolicy> > >::AlgorithmName
PUBLIC	??1?$AlgorithmImpl@V?$ConcretePolicyHolder@VEmpty@CryptoPP@@V?$AdditiveCipherTemplate@V?$AbstractPolicyHolder@UAdditiveCipherAbstractPolicy@CryptoPP@@VCTR_ModePolicy@2@@CryptoPP@@@2@UAdditiveCipherAbstractPolicy@2@@CryptoPP@@V?$CipherModeFinalTemplate_CipherHolder@V?$BlockCipherFinal@$0A@VEnc@Twofish@CryptoPP@@@CryptoPP@@V?$ConcretePolicyHolder@VEmpty@CryptoPP@@V?$AdditiveCipherTemplate@V?$AbstractPolicyHolder@UAdditiveCipherAbstractPolicy@CryptoPP@@VCTR_ModePolicy@2@@CryptoPP@@@2@UAdditiveCipherAbstractPolicy@2@@2@@2@@CryptoPP@@UAE@XZ ; CryptoPP::AlgorithmImpl<CryptoPP::ConcretePolicyHolder<CryptoPP::Empty,CryptoPP::AdditiveCipherTemplate<CryptoPP::AbstractPolicyHolder<CryptoPP::AdditiveCipherAbstractPolicy,CryptoPP::CTR_ModePolicy> >,CryptoPP::AdditiveCipherAbstractPolicy>,CryptoPP::CipherModeFinalTemplate_CipherHolder<CryptoPP::BlockCipherFinal<0,CryptoPP::Twofish::Enc>,CryptoPP::ConcretePolicyHolder<CryptoPP::Empty,CryptoPP::AdditiveCipherTemplate<CryptoPP::AbstractPolicyHolder<CryptoPP::AdditiveCipherAbstractPolicy,CryptoPP::CTR_ModePolicy> >,CryptoPP::AdditiveCipherAbstractPolicy> > >::~AlgorithmImpl<CryptoPP::ConcretePolicyHolder<CryptoPP::Empty,CryptoPP::AdditiveCipherTemplate<CryptoPP::AbstractPolicyHolder<CryptoPP::AdditiveCipherAbstractPolicy,CryptoPP::CTR_ModePolicy> >,CryptoPP::AdditiveCipherAbstractPolicy>,CryptoPP::CipherModeFinalTemplate_CipherHolder<CryptoPP::BlockCipherFinal<0,CryptoPP::Twofish::Enc>,CryptoPP::ConcretePolicyHolder<CryptoPP::Empty,CryptoPP::AdditiveCipherTemplate<CryptoPP::AbstractPolicyHolder<CryptoPP::AdditiveCipherAbstractPolicy,CryptoPP::CTR_ModePolicy> >,CryptoPP::AdditiveCipherAbstractPolicy> > >
PUBLIC	??0?$CipherModeFinalTemplate_CipherHolder@V?$BlockCipherFinal@$0A@VEnc@Twofish@CryptoPP@@@CryptoPP@@V?$ConcretePolicyHolder@VEmpty@CryptoPP@@V?$AdditiveCipherTemplate@V?$AbstractPolicyHolder@UAdditiveCipherAbstractPolicy@CryptoPP@@VCTR_ModePolicy@2@@CryptoPP@@@2@UAdditiveCipherAbstractPolicy@2@@2@@CryptoPP@@QAE@XZ ; CryptoPP::CipherModeFinalTemplate_CipherHolder<CryptoPP::BlockCipherFinal<0,CryptoPP::Twofish::Enc>,CryptoPP::ConcretePolicyHolder<CryptoPP::Empty,CryptoPP::AdditiveCipherTemplate<CryptoPP::AbstractPolicyHolder<CryptoPP::AdditiveCipherAbstractPolicy,CryptoPP::CTR_ModePolicy> >,CryptoPP::AdditiveCipherAbstractPolicy> >::CipherModeFinalTemplate_CipherHolder<CryptoPP::BlockCipherFinal<0,CryptoPP::Twofish::Enc>,CryptoPP::ConcretePolicyHolder<CryptoPP::Empty,CryptoPP::AdditiveCipherTemplate<CryptoPP::AbstractPolicyHolder<CryptoPP::AdditiveCipherAbstractPolicy,CryptoPP::CTR_ModePolicy> >,CryptoPP::AdditiveCipherAbstractPolicy> >
PUBLIC	?StaticAlgorithmName@?$CipherModeFinalTemplate_CipherHolder@V?$BlockCipherFinal@$0A@VEnc@Twofish@CryptoPP@@@CryptoPP@@V?$ConcretePolicyHolder@VEmpty@CryptoPP@@V?$AdditiveCipherTemplate@V?$AbstractPolicyHolder@UAdditiveCipherAbstractPolicy@CryptoPP@@VCTR_ModePolicy@2@@CryptoPP@@@2@UAdditiveCipherAbstractPolicy@2@@2@@CryptoPP@@SA?AV?$basic_string@DU?$char_traits@D@std@@V?$allocator@D@2@@std@@XZ ; CryptoPP::CipherModeFinalTemplate_CipherHolder<CryptoPP::BlockCipherFinal<0,CryptoPP::Twofish::Enc>,CryptoPP::ConcretePolicyHolder<CryptoPP::Empty,CryptoPP::AdditiveCipherTemplate<CryptoPP::AbstractPolicyHolder<CryptoPP::AdditiveCipherAbstractPolicy,CryptoPP::CTR_ModePolicy> >,CryptoPP::AdditiveCipherAbstractPolicy> >::StaticAlgorithmName
PUBLIC	??1?$CipherModeFinalTemplate_CipherHolder@V?$BlockCipherFinal@$0A@VEnc@Twofish@CryptoPP@@@CryptoPP@@V?$ConcretePolicyHolder@VEmpty@CryptoPP@@V?$AdditiveCipherTemplate@V?$AbstractPolicyHolder@UAdditiveCipherAbstractPolicy@CryptoPP@@VCTR_ModePolicy@2@@CryptoPP@@@2@UAdditiveCipherAbstractPolicy@2@@2@@CryptoPP@@UAE@XZ ; CryptoPP::CipherModeFinalTemplate_CipherHolder<CryptoPP::BlockCipherFinal<0,CryptoPP::Twofish::Enc>,CryptoPP::ConcretePolicyHolder<CryptoPP::Empty,CryptoPP::AdditiveCipherTemplate<CryptoPP::AbstractPolicyHolder<CryptoPP::AdditiveCipherAbstractPolicy,CryptoPP::CTR_ModePolicy> >,CryptoPP::AdditiveCipherAbstractPolicy> >::~CipherModeFinalTemplate_CipherHolder<CryptoPP::BlockCipherFinal<0,CryptoPP::Twofish::Enc>,CryptoPP::ConcretePolicyHolder<CryptoPP::Empty,CryptoPP::AdditiveCipherTemplate<CryptoPP::AbstractPolicyHolder<CryptoPP::AdditiveCipherAbstractPolicy,CryptoPP::CTR_ModePolicy> >,CryptoPP::AdditiveCipherAbstractPolicy> >
PUBLIC	??_G?$CipherModeFinalTemplate_CipherHolder@V?$BlockCipherFinal@$0A@VEnc@Twofish@CryptoPP@@@CryptoPP@@V?$ConcretePolicyHolder@VEmpty@CryptoPP@@V?$AdditiveCipherTemplate@V?$AbstractPolicyHolder@UAdditiveCipherAbstractPolicy@CryptoPP@@VCTR_ModePolicy@2@@CryptoPP@@@2@UAdditiveCipherAbstractPolicy@2@@2@@CryptoPP@@UAEPAXI@Z ; CryptoPP::CipherModeFinalTemplate_CipherHolder<CryptoPP::BlockCipherFinal<0,CryptoPP::Twofish::Enc>,CryptoPP::ConcretePolicyHolder<CryptoPP::Empty,CryptoPP::AdditiveCipherTemplate<CryptoPP::AbstractPolicyHolder<CryptoPP::AdditiveCipherAbstractPolicy,CryptoPP::CTR_ModePolicy> >,CryptoPP::AdditiveCipherAbstractPolicy> >::`scalar deleting destructor'
PUBLIC	?Clone@?$ClonableImpl@V?$BlockCipherFinal@$0A@VEnc@XTEA@CryptoPP@@@CryptoPP@@VEnc@XTEA@2@@CryptoPP@@UBEPAVClonable@2@XZ ; CryptoPP::ClonableImpl<CryptoPP::BlockCipherFinal<0,CryptoPP::XTEA::Enc>,CryptoPP::XTEA::Enc>::Clone
PUBLIC	??0?$BlockCipherFinal@$0A@VEnc@XTEA@CryptoPP@@@CryptoPP@@QAE@XZ ; CryptoPP::BlockCipherFinal<0,CryptoPP::XTEA::Enc>::BlockCipherFinal<0,CryptoPP::XTEA::Enc>
PUBLIC	?IsForwardTransformation@?$BlockCipherFinal@$0A@VEnc@XTEA@CryptoPP@@@CryptoPP@@UBE_NXZ ; CryptoPP::BlockCipherFinal<0,CryptoPP::XTEA::Enc>::IsForwardTransformation
PUBLIC	??_G?$BlockCipherFinal@$0A@VEnc@XTEA@CryptoPP@@@CryptoPP@@UAEPAXI@Z ; CryptoPP::BlockCipherFinal<0,CryptoPP::XTEA::Enc>::`scalar deleting destructor'
PUBLIC	??1?$ObjectHolder@V?$BlockCipherFinal@$0A@VEnc@XTEA@CryptoPP@@@CryptoPP@@@CryptoPP@@QAE@XZ ; CryptoPP::ObjectHolder<CryptoPP::BlockCipherFinal<0,CryptoPP::XTEA::Enc> >::~ObjectHolder<CryptoPP::BlockCipherFinal<0,CryptoPP::XTEA::Enc> >
PUBLIC	?AlgorithmName@?$AlgorithmImpl@V?$ConcretePolicyHolder@VEmpty@CryptoPP@@V?$AdditiveCipherTemplate@V?$AbstractPolicyHolder@UAdditiveCipherAbstractPolicy@CryptoPP@@VCTR_ModePolicy@2@@CryptoPP@@@2@UAdditiveCipherAbstractPolicy@2@@CryptoPP@@V?$CipherModeFinalTemplate_CipherHolder@V?$BlockCipherFinal@$0A@VEnc@XTEA@CryptoPP@@@CryptoPP@@V?$ConcretePolicyHolder@VEmpty@CryptoPP@@V?$AdditiveCipherTemplate@V?$AbstractPolicyHolder@UAdditiveCipherAbstractPolicy@CryptoPP@@VCTR_ModePolicy@2@@CryptoPP@@@2@UAdditiveCipherAbstractPolicy@2@@2@@2@@CryptoPP@@UBE?AV?$basic_string@DU?$char_traits@D@std@@V?$allocator@D@2@@std@@XZ ; CryptoPP::AlgorithmImpl<CryptoPP::ConcretePolicyHolder<CryptoPP::Empty,CryptoPP::AdditiveCipherTemplate<CryptoPP::AbstractPolicyHolder<CryptoPP::AdditiveCipherAbstractPolicy,CryptoPP::CTR_ModePolicy> >,CryptoPP::AdditiveCipherAbstractPolicy>,CryptoPP::CipherModeFinalTemplate_CipherHolder<CryptoPP::BlockCipherFinal<0,CryptoPP::XTEA::Enc>,CryptoPP::ConcretePolicyHolder<CryptoPP::Empty,CryptoPP::AdditiveCipherTemplate<CryptoPP::AbstractPolicyHolder<CryptoPP::AdditiveCipherAbstractPolicy,CryptoPP::CTR_ModePolicy> >,CryptoPP::AdditiveCipherAbstractPolicy> > >::AlgorithmName
PUBLIC	??1?$AlgorithmImpl@V?$ConcretePolicyHolder@VEmpty@CryptoPP@@V?$AdditiveCipherTemplate@V?$AbstractPolicyHolder@UAdditiveCipherAbstractPolicy@CryptoPP@@VCTR_ModePolicy@2@@CryptoPP@@@2@UAdditiveCipherAbstractPolicy@2@@CryptoPP@@V?$CipherModeFinalTemplate_CipherHolder@V?$BlockCipherFinal@$0A@VEnc@XTEA@CryptoPP@@@CryptoPP@@V?$ConcretePolicyHolder@VEmpty@CryptoPP@@V?$AdditiveCipherTemplate@V?$AbstractPolicyHolder@UAdditiveCipherAbstractPolicy@CryptoPP@@VCTR_ModePolicy@2@@CryptoPP@@@2@UAdditiveCipherAbstractPolicy@2@@2@@2@@CryptoPP@@UAE@XZ ; CryptoPP::AlgorithmImpl<CryptoPP::ConcretePolicyHolder<CryptoPP::Empty,CryptoPP::AdditiveCipherTemplate<CryptoPP::AbstractPolicyHolder<CryptoPP::AdditiveCipherAbstractPolicy,CryptoPP::CTR_ModePolicy> >,CryptoPP::AdditiveCipherAbstractPolicy>,CryptoPP::CipherModeFinalTemplate_CipherHolder<CryptoPP::BlockCipherFinal<0,CryptoPP::XTEA::Enc>,CryptoPP::ConcretePolicyHolder<CryptoPP::Empty,CryptoPP::AdditiveCipherTemplate<CryptoPP::AbstractPolicyHolder<CryptoPP::AdditiveCipherAbstractPolicy,CryptoPP::CTR_ModePolicy> >,CryptoPP::AdditiveCipherAbstractPolicy> > >::~AlgorithmImpl<CryptoPP::ConcretePolicyHolder<CryptoPP::Empty,CryptoPP::AdditiveCipherTemplate<CryptoPP::AbstractPolicyHolder<CryptoPP::AdditiveCipherAbstractPolicy,CryptoPP::CTR_ModePolicy> >,CryptoPP::AdditiveCipherAbstractPolicy>,CryptoPP::CipherModeFinalTemplate_CipherHolder<CryptoPP::BlockCipherFinal<0,CryptoPP::XTEA::Enc>,CryptoPP::ConcretePolicyHolder<CryptoPP::Empty,CryptoPP::AdditiveCipherTemplate<CryptoPP::AbstractPolicyHolder<CryptoPP::AdditiveCipherAbstractPolicy,CryptoPP::CTR_ModePolicy> >,CryptoPP::AdditiveCipherAbstractPolicy> > >
PUBLIC	??0?$CipherModeFinalTemplate_CipherHolder@V?$BlockCipherFinal@$0A@VEnc@XTEA@CryptoPP@@@CryptoPP@@V?$ConcretePolicyHolder@VEmpty@CryptoPP@@V?$AdditiveCipherTemplate@V?$AbstractPolicyHolder@UAdditiveCipherAbstractPolicy@CryptoPP@@VCTR_ModePolicy@2@@CryptoPP@@@2@UAdditiveCipherAbstractPolicy@2@@2@@CryptoPP@@QAE@XZ ; CryptoPP::CipherModeFinalTemplate_CipherHolder<CryptoPP::BlockCipherFinal<0,CryptoPP::XTEA::Enc>,CryptoPP::ConcretePolicyHolder<CryptoPP::Empty,CryptoPP::AdditiveCipherTemplate<CryptoPP::AbstractPolicyHolder<CryptoPP::AdditiveCipherAbstractPolicy,CryptoPP::CTR_ModePolicy> >,CryptoPP::AdditiveCipherAbstractPolicy> >::CipherModeFinalTemplate_CipherHolder<CryptoPP::BlockCipherFinal<0,CryptoPP::XTEA::Enc>,CryptoPP::ConcretePolicyHolder<CryptoPP::Empty,CryptoPP::AdditiveCipherTemplate<CryptoPP::AbstractPolicyHolder<CryptoPP::AdditiveCipherAbstractPolicy,CryptoPP::CTR_ModePolicy> >,CryptoPP::AdditiveCipherAbstractPolicy> >
PUBLIC	?StaticAlgorithmName@?$CipherModeFinalTemplate_CipherHolder@V?$BlockCipherFinal@$0A@VEnc@XTEA@CryptoPP@@@CryptoPP@@V?$ConcretePolicyHolder@VEmpty@CryptoPP@@V?$AdditiveCipherTemplate@V?$AbstractPolicyHolder@UAdditiveCipherAbstractPolicy@CryptoPP@@VCTR_ModePolicy@2@@CryptoPP@@@2@UAdditiveCipherAbstractPolicy@2@@2@@CryptoPP@@SA?AV?$basic_string@DU?$char_traits@D@std@@V?$allocator@D@2@@std@@XZ ; CryptoPP::CipherModeFinalTemplate_CipherHolder<CryptoPP::BlockCipherFinal<0,CryptoPP::XTEA::Enc>,CryptoPP::ConcretePolicyHolder<CryptoPP::Empty,CryptoPP::AdditiveCipherTemplate<CryptoPP::AbstractPolicyHolder<CryptoPP::AdditiveCipherAbstractPolicy,CryptoPP::CTR_ModePolicy> >,CryptoPP::AdditiveCipherAbstractPolicy> >::StaticAlgorithmName
PUBLIC	??1?$CipherModeFinalTemplate_CipherHolder@V?$BlockCipherFinal@$0A@VEnc@XTEA@CryptoPP@@@CryptoPP@@V?$ConcretePolicyHolder@VEmpty@CryptoPP@@V?$AdditiveCipherTemplate@V?$AbstractPolicyHolder@UAdditiveCipherAbstractPolicy@CryptoPP@@VCTR_ModePolicy@2@@CryptoPP@@@2@UAdditiveCipherAbstractPolicy@2@@2@@CryptoPP@@UAE@XZ ; CryptoPP::CipherModeFinalTemplate_CipherHolder<CryptoPP::BlockCipherFinal<0,CryptoPP::XTEA::Enc>,CryptoPP::ConcretePolicyHolder<CryptoPP::Empty,CryptoPP::AdditiveCipherTemplate<CryptoPP::AbstractPolicyHolder<CryptoPP::AdditiveCipherAbstractPolicy,CryptoPP::CTR_ModePolicy> >,CryptoPP::AdditiveCipherAbstractPolicy> >::~CipherModeFinalTemplate_CipherHolder<CryptoPP::BlockCipherFinal<0,CryptoPP::XTEA::Enc>,CryptoPP::ConcretePolicyHolder<CryptoPP::Empty,CryptoPP::AdditiveCipherTemplate<CryptoPP::AbstractPolicyHolder<CryptoPP::AdditiveCipherAbstractPolicy,CryptoPP::CTR_ModePolicy> >,CryptoPP::AdditiveCipherAbstractPolicy> >
PUBLIC	??_G?$CipherModeFinalTemplate_CipherHolder@V?$BlockCipherFinal@$0A@VEnc@XTEA@CryptoPP@@@CryptoPP@@V?$ConcretePolicyHolder@VEmpty@CryptoPP@@V?$AdditiveCipherTemplate@V?$AbstractPolicyHolder@UAdditiveCipherAbstractPolicy@CryptoPP@@VCTR_ModePolicy@2@@CryptoPP@@@2@UAdditiveCipherAbstractPolicy@2@@2@@CryptoPP@@UAEPAXI@Z ; CryptoPP::CipherModeFinalTemplate_CipherHolder<CryptoPP::BlockCipherFinal<0,CryptoPP::XTEA::Enc>,CryptoPP::ConcretePolicyHolder<CryptoPP::Empty,CryptoPP::AdditiveCipherTemplate<CryptoPP::AbstractPolicyHolder<CryptoPP::AdditiveCipherAbstractPolicy,CryptoPP::CTR_ModePolicy> >,CryptoPP::AdditiveCipherAbstractPolicy> >::`scalar deleting destructor'
PUBLIC	??1?$pair@$$CBKUSSupplementaryDataBlockInfo@EterPackPolicy_CSHybridCrypt@@@std@@QAE@XZ ; std::pair<unsigned long const ,EterPackPolicy_CSHybridCrypt::SSupplementaryDataBlockInfo>::~pair<unsigned long const ,EterPackPolicy_CSHybridCrypt::SSupplementaryDataBlockInfo>
PUBLIC	??0InputRejected@?$InputRejecting@VFilter@CryptoPP@@@CryptoPP@@QAE@XZ ; CryptoPP::InputRejecting<CryptoPP::Filter>::InputRejected::InputRejected
PUBLIC	??1InputRejected@?$InputRejecting@VFilter@CryptoPP@@@CryptoPP@@UAE@XZ ; CryptoPP::InputRejecting<CryptoPP::Filter>::InputRejected::~InputRejected
PUBLIC	??0InputRejected@?$InputRejecting@VFilter@CryptoPP@@@CryptoPP@@QAE@ABU012@@Z ; CryptoPP::InputRejecting<CryptoPP::Filter>::InputRejected::InputRejected
PUBLIC	??_GInputRejected@?$InputRejecting@VFilter@CryptoPP@@@CryptoPP@@UAEPAXI@Z ; CryptoPP::InputRejecting<CryptoPP::Filter>::InputRejected::`scalar deleting destructor'
PUBLIC	??$_Resize@U_Value_init_tag@std@@@?$vector@EV?$allocator@E@std@@@std@@AAEXIABU_Value_init_tag@1@@Z ; std::vector<unsigned char,std::allocator<unsigned char> >::_Resize<std::_Value_init_tag>
PUBLIC	??0InputRejected@?$InputRejecting@VBufferedTransformation@CryptoPP@@@CryptoPP@@QAE@XZ ; CryptoPP::InputRejecting<CryptoPP::BufferedTransformation>::InputRejected::InputRejected
PUBLIC	??1InputRejected@?$InputRejecting@VBufferedTransformation@CryptoPP@@@CryptoPP@@UAE@XZ ; CryptoPP::InputRejecting<CryptoPP::BufferedTransformation>::InputRejected::~InputRejected
PUBLIC	??0InputRejected@?$InputRejecting@VBufferedTransformation@CryptoPP@@@CryptoPP@@QAE@ABU012@@Z ; CryptoPP::InputRejecting<CryptoPP::BufferedTransformation>::InputRejected::InputRejected
PUBLIC	??_GInputRejected@?$InputRejecting@VBufferedTransformation@CryptoPP@@@CryptoPP@@UAEPAXI@Z ; CryptoPP::InputRejecting<CryptoPP::BufferedTransformation>::InputRejected::`scalar deleting destructor'
PUBLIC	??$_Reallocate_grow_by@V<lambda_67d87d4aa1269033985980465fd1d824>@@$$V@?$basic_string@DU?$char_traits@D@std@@V?$allocator@D@2@@std@@AAEAAV01@IV<lambda_67d87d4aa1269033985980465fd1d824>@@@Z ; std::basic_string<char,std::char_traits<char>,std::allocator<char> >::_Reallocate_grow_by<<lambda_67d87d4aa1269033985980465fd1d824> >
PUBLIC	??$SecureWipeArray@E@CryptoPP@@YAXPAEI@Z	; CryptoPP::SecureWipeArray<unsigned char>
PUBLIC	??$StandardReallocate@EV?$AllocatorWithCleanup@E$00@CryptoPP@@@CryptoPP@@YAPAEAAV?$AllocatorWithCleanup@E$00@0@PAEII_N@Z ; CryptoPP::StandardReallocate<unsigned char,CryptoPP::AllocatorWithCleanup<unsigned char,1> >
PUBLIC	??$_Pocca@V?$allocator@E@std@@@std@@YAXAAV?$allocator@E@0@ABV10@@Z ; std::_Pocca<std::allocator<unsigned char> >
PUBLIC	??$SecureWipeArray@I@CryptoPP@@YAXPAII@Z	; CryptoPP::SecureWipeArray<unsigned int>
PUBLIC	??$StandardReallocate@EV?$AllocatorWithCleanup@E$0A@@CryptoPP@@@CryptoPP@@YAPAEAAV?$AllocatorWithCleanup@E$0A@@0@PAEII_N@Z ; CryptoPP::StandardReallocate<unsigned char,CryptoPP::AllocatorWithCleanup<unsigned char,0> >
PUBLIC	??$_Destroy_in_place@PAD@std@@YAXAAPAD@Z	; std::_Destroy_in_place<char *>
PUBLIC	??$_Reallocate_for@V<lambda_9366063389c5f42a00a5088cf24e69de>@@PBD@?$basic_string@DU?$char_traits@D@std@@V?$allocator@D@2@@std@@AAEAAV01@IV<lambda_9366063389c5f42a00a5088cf24e69de>@@PBD@Z ; std::basic_string<char,std::char_traits<char>,std::allocator<char> >::_Reallocate_for<<lambda_9366063389c5f42a00a5088cf24e69de>,char const *>
PUBLIC	??$_Reallocate_grow_by@V<lambda_ab246b20b9526e2ef7792587e4298a77>@@PBDI@?$basic_string@DU?$char_traits@D@std@@V?$allocator@D@2@@std@@AAEAAV01@IV<lambda_ab246b20b9526e2ef7792587e4298a77>@@PBDI@Z ; std::basic_string<char,std::char_traits<char>,std::allocator<char> >::_Reallocate_grow_by<<lambda_ab246b20b9526e2ef7792587e4298a77>,char const *,unsigned int>
PUBLIC	??$_Pocca@V?$allocator@D@std@@@std@@YAXAAV?$allocator@D@0@ABV10@@Z ; std::_Pocca<std::allocator<char> >
PUBLIC	??$_Construct_in_place@PADABQAD@std@@YAXAAPADABQAD@Z ; std::_Construct_in_place<char *,char * const &>
PUBLIC	??$_Pocma@V?$allocator@D@std@@@std@@YAXAAV?$allocator@D@0@0@Z ; std::_Pocma<std::allocator<char> >
PUBLIC	??$_Deallocate@$07$0A@@std@@YAXPAXI@Z		; std::_Deallocate<8,0>
PUBLIC	??$_Destroy_range@V?$allocator@E@std@@@std@@YAXPAEQAEAAV?$allocator@E@0@@Z ; std::_Destroy_range<std::allocator<unsigned char> >
PUBLIC	??$_Allocate@$07U_Default_allocate_traits@std@@$0A@@std@@YAPAXI@Z ; std::_Allocate<8,std::_Default_allocate_traits,0>
PUBLIC	??$lower_bound@PBIIU?$less@X@std@@@std@@YAPBIPBIQBIABIU?$less@X@0@@Z ; std::lower_bound<unsigned int const *,unsigned int,std::less<void> >
PUBLIC	??$try_emplace_unique@ABK@?$table@U?$map@V?$allocator@U?$pair@$$CBKUSCSHybridCryptKey@EterPackPolicy_CSHybridCrypt@@@std@@@std@@KUSCSHybridCryptKey@EterPackPolicy_CSHybridCrypt@@U?$hash@K@boost@@U?$equal_to@K@2@@detail@unordered@boost@@@detail@unordered@boost@@QAE?AU?$pair@U?$iterator@U?$ptr_node@U?$pair@$$CBKUSCSHybridCryptKey@EterPackPolicy_CSHybridCrypt@@@std@@@detail@unordered@boost@@@iterator_detail@unordered@boost@@_N@std@@ABK@Z ; boost::unordered::detail::table<boost::unordered::detail::map<std::allocator<std::pair<unsigned long const ,EterPackPolicy_CSHybridCrypt::SCSHybridCryptKey> >,unsigned long,EterPackPolicy_CSHybridCrypt::SCSHybridCryptKey,boost::hash<unsigned long>,std::equal_to<unsigned long> > >::try_emplace_unique<unsigned long const &>
PUBLIC	??$try_emplace_unique@ABK@?$table@U?$map@V?$allocator@U?$pair@$$CBKUSSupplementaryDataBlockInfo@EterPackPolicy_CSHybridCrypt@@@std@@@std@@KUSSupplementaryDataBlockInfo@EterPackPolicy_CSHybridCrypt@@U?$hash@K@boost@@U?$equal_to@K@2@@detail@unordered@boost@@@detail@unordered@boost@@QAE?AU?$pair@U?$iterator@U?$ptr_node@U?$pair@$$CBKUSSupplementaryDataBlockInfo@EterPackPolicy_CSHybridCrypt@@@std@@@detail@unordered@boost@@@iterator_detail@unordered@boost@@_N@std@@ABK@Z ; boost::unordered::detail::table<boost::unordered::detail::map<std::allocator<std::pair<unsigned long const ,EterPackPolicy_CSHybridCrypt::SSupplementaryDataBlockInfo> >,unsigned long,EterPackPolicy_CSHybridCrypt::SSupplementaryDataBlockInfo,boost::hash<unsigned long>,std::equal_to<unsigned long> > >::try_emplace_unique<unsigned long const &>
PUBLIC	??$?RVConstByteArrayParameter@CryptoPP@@@AlgorithmParameters@CryptoPP@@QAEAAV01@PBDABVConstByteArrayParameter@1@_N@Z ; CryptoPP::AlgorithmParameters::operator()<CryptoPP::ConstByteArrayParameter>
PUBLIC	??$_Resize_reallocate@U_Value_init_tag@std@@@?$vector@EV?$allocator@E@std@@@std@@AAEXIABU_Value_init_tag@1@@Z ; std::vector<unsigned char,std::allocator<unsigned char> >::_Resize_reallocate<std::_Value_init_tag>
PUBLIC	??$_Assign_range@PAE@?$vector@EV?$allocator@E@std@@@std@@AAEXPAE0Uforward_iterator_tag@1@@Z ; std::vector<unsigned char,std::allocator<unsigned char> >::_Assign_range<unsigned char *>
PUBLIC	??$_Allocate_manually_vector_aligned@U_Default_allocate_traits@std@@@std@@YAPAXI@Z ; std::_Allocate_manually_vector_aligned<std::_Default_allocate_traits>
PUBLIC	??$find_node_impl@KU?$equal_to@K@std@@@?$table@U?$map@V?$allocator@U?$pair@$$CBKUSSupplementaryDataBlockInfo@EterPackPolicy_CSHybridCrypt@@@std@@@std@@KUSSupplementaryDataBlockInfo@EterPackPolicy_CSHybridCrypt@@U?$hash@K@boost@@U?$equal_to@K@2@@detail@unordered@boost@@@detail@unordered@boost@@QBEPAU?$ptr_node@U?$pair@$$CBKUSSupplementaryDataBlockInfo@EterPackPolicy_CSHybridCrypt@@@std@@@123@IABKABU?$equal_to@K@std@@@Z ; boost::unordered::detail::table<boost::unordered::detail::map<std::allocator<std::pair<unsigned long const ,EterPackPolicy_CSHybridCrypt::SSupplementaryDataBlockInfo> >,unsigned long,EterPackPolicy_CSHybridCrypt::SSupplementaryDataBlockInfo,boost::hash<unsigned long>,std::equal_to<unsigned long> > >::find_node_impl<unsigned long,std::equal_to<unsigned long> >
PUBLIC	??$_Uninitialized_value_construct_n@V?$allocator@E@std@@@std@@YAPAEPAEIAAV?$allocator@E@0@@Z ; std::_Uninitialized_value_construct_n<std::allocator<unsigned char> >
PUBLIC	??$find_node_impl@KU?$equal_to@K@std@@@?$table@U?$map@V?$allocator@U?$pair@$$CBKUSCSHybridCryptKey@EterPackPolicy_CSHybridCrypt@@@std@@@std@@KUSCSHybridCryptKey@EterPackPolicy_CSHybridCrypt@@U?$hash@K@boost@@U?$equal_to@K@2@@detail@unordered@boost@@@detail@unordered@boost@@QBEPAU?$ptr_node@U?$pair@$$CBKUSCSHybridCryptKey@EterPackPolicy_CSHybridCrypt@@@std@@@123@IABKABU?$equal_to@K@std@@@Z ; boost::unordered::detail::table<boost::unordered::detail::map<std::allocator<std::pair<unsigned long const ,EterPackPolicy_CSHybridCrypt::SCSHybridCryptKey> >,unsigned long,EterPackPolicy_CSHybridCrypt::SCSHybridCryptKey,boost::hash<unsigned long>,std::equal_to<unsigned long> > >::find_node_impl<unsigned long,std::equal_to<unsigned long> >
PUBLIC	??$construct_node_pair@V?$allocator@U?$ptr_node@U?$pair@$$CBKUSCSHybridCryptKey@EterPackPolicy_CSHybridCrypt@@@std@@@detail@unordered@boost@@@std@@ABK@func@detail@unordered@boost@@YAPAU?$ptr_node@U?$pair@$$CBKUSCSHybridCryptKey@EterPackPolicy_CSHybridCrypt@@@std@@@123@AAV?$allocator@U?$ptr_node@U?$pair@$$CBKUSCSHybridCryptKey@EterPackPolicy_CSHybridCrypt@@@std@@@detail@unordered@boost@@@std@@ABK@Z ; boost::unordered::detail::func::construct_node_pair<std::allocator<boost::unordered::detail::ptr_node<std::pair<unsigned long const ,EterPackPolicy_CSHybridCrypt::SCSHybridCryptKey> > >,unsigned long const &>
PUBLIC	??$construct_node_pair@V?$allocator@U?$ptr_node@U?$pair@$$CBKUSSupplementaryDataBlockInfo@EterPackPolicy_CSHybridCrypt@@@std@@@detail@unordered@boost@@@std@@ABK@func@detail@unordered@boost@@YAPAU?$ptr_node@U?$pair@$$CBKUSSupplementaryDataBlockInfo@EterPackPolicy_CSHybridCrypt@@@std@@@123@AAV?$allocator@U?$ptr_node@U?$pair@$$CBKUSSupplementaryDataBlockInfo@EterPackPolicy_CSHybridCrypt@@@std@@@detail@unordered@boost@@@std@@ABK@Z ; boost::unordered::detail::func::construct_node_pair<std::allocator<boost::unordered::detail::ptr_node<std::pair<unsigned long const ,EterPackPolicy_CSHybridCrypt::SSupplementaryDataBlockInfo> > >,unsigned long const &>
PUBLIC	??$_Copy_memmove@PAEPAE@std@@YAPAEPAE00@Z	; std::_Copy_memmove<unsigned char *,unsigned char *>
PUBLIC	??$_Refancy@PAE$0A@@std@@YAPAEPAE@Z		; std::_Refancy<unsigned char *,0>
PUBLIC	??$_Zero_range@PAE@std@@YAPAEQAE0@Z		; std::_Zero_range<unsigned char *>
PUBLIC	??1?$node_tmp@V?$allocator@U?$ptr_node@U?$pair@$$CBKUSSupplementaryDataBlockInfo@EterPackPolicy_CSHybridCrypt@@@std@@@detail@unordered@boost@@@std@@@detail@unordered@boost@@QAE@XZ ; boost::unordered::detail::node_tmp<std::allocator<boost::unordered::detail::ptr_node<std::pair<unsigned long const ,EterPackPolicy_CSHybridCrypt::SSupplementaryDataBlockInfo> > > >::~node_tmp<std::allocator<boost::unordered::detail::ptr_node<std::pair<unsigned long const ,EterPackPolicy_CSHybridCrypt::SSupplementaryDataBlockInfo> > > >
PUBLIC	??1?$node_tmp@V?$allocator@U?$ptr_node@U?$pair@$$CBKUSCSHybridCryptKey@EterPackPolicy_CSHybridCrypt@@@std@@@detail@unordered@boost@@@std@@@detail@unordered@boost@@QAE@XZ ; boost::unordered::detail::node_tmp<std::allocator<boost::unordered::detail::ptr_node<std::pair<unsigned long const ,EterPackPolicy_CSHybridCrypt::SCSHybridCryptKey> > > >::~node_tmp<std::allocator<boost::unordered::detail::ptr_node<std::pair<unsigned long const ,EterPackPolicy_CSHybridCrypt::SCSHybridCryptKey> > > >
PUBLIC	??$_Uninitialized_move@PAEV?$allocator@E@std@@@std@@YAPAEQAE0PAEAAV?$allocator@E@0@@Z ; std::_Uninitialized_move<unsigned char *,std::allocator<unsigned char> >
PUBLIC	??1?$node_constructor@V?$allocator@U?$ptr_node@U?$pair@$$CBKUSCSHybridCryptKey@EterPackPolicy_CSHybridCrypt@@@std@@@detail@unordered@boost@@@std@@@detail@unordered@boost@@QAE@XZ ; boost::unordered::detail::node_constructor<std::allocator<boost::unordered::detail::ptr_node<std::pair<unsigned long const ,EterPackPolicy_CSHybridCrypt::SCSHybridCryptKey> > > >::~node_constructor<std::allocator<boost::unordered::detail::ptr_node<std::pair<unsigned long const ,EterPackPolicy_CSHybridCrypt::SCSHybridCryptKey> > > >
PUBLIC	?create_node@?$node_constructor@V?$allocator@U?$ptr_node@U?$pair@$$CBKUSCSHybridCryptKey@EterPackPolicy_CSHybridCrypt@@@std@@@detail@unordered@boost@@@std@@@detail@unordered@boost@@QAEXXZ ; boost::unordered::detail::node_constructor<std::allocator<boost::unordered::detail::ptr_node<std::pair<unsigned long const ,EterPackPolicy_CSHybridCrypt::SCSHybridCryptKey> > > >::create_node
PUBLIC	??$construct@U?$pair@$$CBKUSCSHybridCryptKey@EterPackPolicy_CSHybridCrypt@@@std@@ABUpiecewise_construct_t@2@V?$tuple@ABK@2@V?$tuple@$$V@2@@?$_Default_allocator_traits@V?$allocator@U?$ptr_node@U?$pair@$$CBKUSCSHybridCryptKey@EterPackPolicy_CSHybridCrypt@@@std@@@detail@unordered@boost@@@std@@@std@@SAXAAV?$allocator@U?$ptr_node@U?$pair@$$CBKUSCSHybridCryptKey@EterPackPolicy_CSHybridCrypt@@@std@@@detail@unordered@boost@@@1@QAU?$pair@$$CBKUSCSHybridCryptKey@EterPackPolicy_CSHybridCrypt@@@1@ABUpiecewise_construct_t@1@$$QAV?$tuple@ABK@1@$$QAV?$tuple@$$V@1@@Z ; std::_Default_allocator_traits<std::allocator<boost::unordered::detail::ptr_node<std::pair<unsigned long const ,EterPackPolicy_CSHybridCrypt::SCSHybridCryptKey> > > >::construct<std::pair<unsigned long const ,EterPackPolicy_CSHybridCrypt::SCSHybridCryptKey>,std::piecewise_construct_t const &,std::tuple<unsigned long const &>,std::tuple<> >
PUBLIC	??1?$node_constructor@V?$allocator@U?$ptr_node@U?$pair@$$CBKUSSupplementaryDataBlockInfo@EterPackPolicy_CSHybridCrypt@@@std@@@detail@unordered@boost@@@std@@@detail@unordered@boost@@QAE@XZ ; boost::unordered::detail::node_constructor<std::allocator<boost::unordered::detail::ptr_node<std::pair<unsigned long const ,EterPackPolicy_CSHybridCrypt::SSupplementaryDataBlockInfo> > > >::~node_constructor<std::allocator<boost::unordered::detail::ptr_node<std::pair<unsigned long const ,EterPackPolicy_CSHybridCrypt::SSupplementaryDataBlockInfo> > > >
PUBLIC	?create_node@?$node_constructor@V?$allocator@U?$ptr_node@U?$pair@$$CBKUSSupplementaryDataBlockInfo@EterPackPolicy_CSHybridCrypt@@@std@@@detail@unordered@boost@@@std@@@detail@unordered@boost@@QAEXXZ ; boost::unordered::detail::node_constructor<std::allocator<boost::unordered::detail::ptr_node<std::pair<unsigned long const ,EterPackPolicy_CSHybridCrypt::SSupplementaryDataBlockInfo> > > >::create_node
PUBLIC	??$construct@U?$pair@$$CBKUSSupplementaryDataBlockInfo@EterPackPolicy_CSHybridCrypt@@@std@@ABUpiecewise_construct_t@2@V?$tuple@ABK@2@V?$tuple@$$V@2@@?$_Default_allocator_traits@V?$allocator@U?$ptr_node@U?$pair@$$CBKUSSupplementaryDataBlockInfo@EterPackPolicy_CSHybridCrypt@@@std@@@detail@unordered@boost@@@std@@@std@@SAXAAV?$allocator@U?$ptr_node@U?$pair@$$CBKUSSupplementaryDataBlockInfo@EterPackPolicy_CSHybridCrypt@@@std@@@detail@unordered@boost@@@1@QAU?$pair@$$CBKUSSupplementaryDataBlockInfo@EterPackPolicy_CSHybridCrypt@@@1@ABUpiecewise_construct_t@1@$$QAV?$tuple@ABK@1@$$QAV?$tuple@$$V@1@@Z ; std::_Default_allocator_traits<std::allocator<boost::unordered::detail::ptr_node<std::pair<unsigned long const ,EterPackPolicy_CSHybridCrypt::SSupplementaryDataBlockInfo> > > >::construct<std::pair<unsigned long const ,EterPackPolicy_CSHybridCrypt::SSupplementaryDataBlockInfo>,std::piecewise_construct_t const &,std::tuple<unsigned long const &>,std::tuple<> >
PUBLIC	??$?0ABK$$Z$$V@?$pair@$$CBKUSSupplementaryDataBlockInfo@EterPackPolicy_CSHybridCrypt@@@std@@QAE@Upiecewise_construct_t@1@V?$tuple@ABK@1@V?$tuple@$$V@1@@Z ; std::pair<unsigned long const ,EterPackPolicy_CSHybridCrypt::SSupplementaryDataBlockInfo>::pair<unsigned long const ,EterPackPolicy_CSHybridCrypt::SSupplementaryDataBlockInfo><unsigned long const &>
PUBLIC	??_E?$BlockCipherFinal@$0A@VBase@Camellia@CryptoPP@@@CryptoPP@@W3AEPAXI@Z ; [thunk]:CryptoPP::BlockCipherFinal<0,CryptoPP::Camellia::Base>::`vector deleting destructor'
PUBLIC	??_E?$BlockCipherFinal@$0A@VEnc@Twofish@CryptoPP@@@CryptoPP@@W3AEPAXI@Z ; [thunk]:CryptoPP::BlockCipherFinal<0,CryptoPP::Twofish::Enc>::`vector deleting destructor'
PUBLIC	??_E?$BlockCipherFinal@$0A@VEnc@XTEA@CryptoPP@@@CryptoPP@@W3AEPAXI@Z ; [thunk]:CryptoPP::BlockCipherFinal<0,CryptoPP::XTEA::Enc>::`vector deleting destructor'
PUBLIC	??_E?$ConcretePolicyHolder@VEmpty@CryptoPP@@V?$AdditiveCipherTemplate@V?$AbstractPolicyHolder@UAdditiveCipherAbstractPolicy@CryptoPP@@VCTR_ModePolicy@2@@CryptoPP@@@2@UAdditiveCipherAbstractPolicy@2@@CryptoPP@@W3AEPAXI@Z ; [thunk]:CryptoPP::ConcretePolicyHolder<CryptoPP::Empty,CryptoPP::AdditiveCipherTemplate<CryptoPP::AbstractPolicyHolder<CryptoPP::AdditiveCipherAbstractPolicy,CryptoPP::CTR_ModePolicy> >,CryptoPP::AdditiveCipherAbstractPolicy>::`vector deleting destructor'
PUBLIC	??_E?$ConcretePolicyHolder@VEmpty@CryptoPP@@V?$AdditiveCipherTemplate@V?$AbstractPolicyHolder@UAdditiveCipherAbstractPolicy@CryptoPP@@VCTR_ModePolicy@2@@CryptoPP@@@2@UAdditiveCipherAbstractPolicy@2@@CryptoPP@@WBI@AEPAXI@Z ; [thunk]:CryptoPP::ConcretePolicyHolder<CryptoPP::Empty,CryptoPP::AdditiveCipherTemplate<CryptoPP::AbstractPolicyHolder<CryptoPP::AdditiveCipherAbstractPolicy,CryptoPP::CTR_ModePolicy> >,CryptoPP::AdditiveCipherAbstractPolicy>::`vector deleting destructor'
PUBLIC	??_E?$ConcretePolicyHolder@VEmpty@CryptoPP@@V?$AdditiveCipherTemplate@V?$AbstractPolicyHolder@UAdditiveCipherAbstractPolicy@CryptoPP@@VCTR_ModePolicy@2@@CryptoPP@@@2@UAdditiveCipherAbstractPolicy@2@@CryptoPP@@WCI@AEPAXI@Z ; [thunk]:CryptoPP::ConcretePolicyHolder<CryptoPP::Empty,CryptoPP::AdditiveCipherTemplate<CryptoPP::AbstractPolicyHolder<CryptoPP::AdditiveCipherAbstractPolicy,CryptoPP::CTR_ModePolicy> >,CryptoPP::AdditiveCipherAbstractPolicy>::`vector deleting destructor'
PUBLIC	??_E?$StringSinkTemplate@V?$basic_string@DU?$char_traits@D@std@@V?$allocator@D@2@@std@@@CryptoPP@@W3AEPAXI@Z ; [thunk]:CryptoPP::StringSinkTemplate<std::basic_string<char,std::char_traits<char>,std::allocator<char> > >::`vector deleting destructor'
PUBLIC	??_EStringStore@CryptoPP@@W3AEPAXI@Z		; [thunk]:CryptoPP::StringStore::`vector deleting destructor'
PUBLIC	??_EStringSource@CryptoPP@@W3AEPAXI@Z		; [thunk]:CryptoPP::StringSource::`vector deleting destructor'
PUBLIC	??_E?$SourceTemplate@VStringStore@CryptoPP@@@CryptoPP@@W3AEPAXI@Z ; [thunk]:CryptoPP::SourceTemplate<CryptoPP::StringStore>::`vector deleting destructor'
PUBLIC	??_E?$CipherModeFinalTemplate_CipherHolder@V?$BlockCipherFinal@$0A@VBase@Camellia@CryptoPP@@@CryptoPP@@V?$ConcretePolicyHolder@VEmpty@CryptoPP@@V?$AdditiveCipherTemplate@V?$AbstractPolicyHolder@UAdditiveCipherAbstractPolicy@CryptoPP@@VCTR_ModePolicy@2@@CryptoPP@@@2@UAdditiveCipherAbstractPolicy@2@@2@@CryptoPP@@W3AEPAXI@Z ; [thunk]:CryptoPP::CipherModeFinalTemplate_CipherHolder<CryptoPP::BlockCipherFinal<0,CryptoPP::Camellia::Base>,CryptoPP::ConcretePolicyHolder<CryptoPP::Empty,CryptoPP::AdditiveCipherTemplate<CryptoPP::AbstractPolicyHolder<CryptoPP::AdditiveCipherAbstractPolicy,CryptoPP::CTR_ModePolicy> >,CryptoPP::AdditiveCipherAbstractPolicy> >::`vector deleting destructor'
PUBLIC	??_E?$CipherModeFinalTemplate_CipherHolder@V?$BlockCipherFinal@$0A@VBase@Camellia@CryptoPP@@@CryptoPP@@V?$ConcretePolicyHolder@VEmpty@CryptoPP@@V?$AdditiveCipherTemplate@V?$AbstractPolicyHolder@UAdditiveCipherAbstractPolicy@CryptoPP@@VCTR_ModePolicy@2@@CryptoPP@@@2@UAdditiveCipherAbstractPolicy@2@@2@@CryptoPP@@WBI@AEPAXI@Z ; [thunk]:CryptoPP::CipherModeFinalTemplate_CipherHolder<CryptoPP::BlockCipherFinal<0,CryptoPP::Camellia::Base>,CryptoPP::ConcretePolicyHolder<CryptoPP::Empty,CryptoPP::AdditiveCipherTemplate<CryptoPP::AbstractPolicyHolder<CryptoPP::AdditiveCipherAbstractPolicy,CryptoPP::CTR_ModePolicy> >,CryptoPP::AdditiveCipherAbstractPolicy> >::`vector deleting destructor'
PUBLIC	??_E?$CipherModeFinalTemplate_CipherHolder@V?$BlockCipherFinal@$0A@VBase@Camellia@CryptoPP@@@CryptoPP@@V?$ConcretePolicyHolder@VEmpty@CryptoPP@@V?$AdditiveCipherTemplate@V?$AbstractPolicyHolder@UAdditiveCipherAbstractPolicy@CryptoPP@@VCTR_ModePolicy@2@@CryptoPP@@@2@UAdditiveCipherAbstractPolicy@2@@2@@CryptoPP@@WCI@AEPAXI@Z ; [thunk]:CryptoPP::CipherModeFinalTemplate_CipherHolder<CryptoPP::BlockCipherFinal<0,CryptoPP::Camellia::Base>,CryptoPP::ConcretePolicyHolder<CryptoPP::Empty,CryptoPP::AdditiveCipherTemplate<CryptoPP::AbstractPolicyHolder<CryptoPP::AdditiveCipherAbstractPolicy,CryptoPP::CTR_ModePolicy> >,CryptoPP::AdditiveCipherAbstractPolicy> >::`vector deleting destructor'
PUBLIC	?AlgorithmName@?$AlgorithmImpl@V?$ConcretePolicyHolder@VEmpty@CryptoPP@@V?$AdditiveCipherTemplate@V?$AbstractPolicyHolder@UAdditiveCipherAbstractPolicy@CryptoPP@@VCTR_ModePolicy@2@@CryptoPP@@@2@UAdditiveCipherAbstractPolicy@2@@CryptoPP@@V?$CipherModeFinalTemplate_CipherHolder@V?$BlockCipherFinal@$0A@VBase@Camellia@CryptoPP@@@CryptoPP@@V?$ConcretePolicyHolder@VEmpty@CryptoPP@@V?$AdditiveCipherTemplate@V?$AbstractPolicyHolder@UAdditiveCipherAbstractPolicy@CryptoPP@@VCTR_ModePolicy@2@@CryptoPP@@@2@UAdditiveCipherAbstractPolicy@2@@2@@2@@CryptoPP@@WCE@BE?AV?$basic_string@DU?$char_traits@D@std@@V?$allocator@D@2@@std@@XZ ; [thunk]:CryptoPP::AlgorithmImpl<CryptoPP::ConcretePolicyHolder<CryptoPP::Empty,CryptoPP::AdditiveCipherTemplate<CryptoPP::AbstractPolicyHolder<CryptoPP::AdditiveCipherAbstractPolicy,CryptoPP::CTR_ModePolicy> >,CryptoPP::AdditiveCipherAbstractPolicy>,CryptoPP::CipherModeFinalTemplate_CipherHolder<CryptoPP::BlockCipherFinal<0,CryptoPP::Camellia::Base>,CryptoPP::ConcretePolicyHolder<CryptoPP::Empty,CryptoPP::AdditiveCipherTemplate<CryptoPP::AbstractPolicyHolder<CryptoPP::AdditiveCipherAbstractPolicy,CryptoPP::CTR_ModePolicy> >,CryptoPP::AdditiveCipherAbstractPolicy> > >::AlgorithmName`adjustor{36}'
PUBLIC	??_E?$CipherModeFinalTemplate_CipherHolder@V?$BlockCipherFinal@$0A@VEnc@Twofish@CryptoPP@@@CryptoPP@@V?$ConcretePolicyHolder@VEmpty@CryptoPP@@V?$AdditiveCipherTemplate@V?$AbstractPolicyHolder@UAdditiveCipherAbstractPolicy@CryptoPP@@VCTR_ModePolicy@2@@CryptoPP@@@2@UAdditiveCipherAbstractPolicy@2@@2@@CryptoPP@@W3AEPAXI@Z ; [thunk]:CryptoPP::CipherModeFinalTemplate_CipherHolder<CryptoPP::BlockCipherFinal<0,CryptoPP::Twofish::Enc>,CryptoPP::ConcretePolicyHolder<CryptoPP::Empty,CryptoPP::AdditiveCipherTemplate<CryptoPP::AbstractPolicyHolder<CryptoPP::AdditiveCipherAbstractPolicy,CryptoPP::CTR_ModePolicy> >,CryptoPP::AdditiveCipherAbstractPolicy> >::`vector deleting destructor'
PUBLIC	??_E?$CipherModeFinalTemplate_CipherHolder@V?$BlockCipherFinal@$0A@VEnc@Twofish@CryptoPP@@@CryptoPP@@V?$ConcretePolicyHolder@VEmpty@CryptoPP@@V?$AdditiveCipherTemplate@V?$AbstractPolicyHolder@UAdditiveCipherAbstractPolicy@CryptoPP@@VCTR_ModePolicy@2@@CryptoPP@@@2@UAdditiveCipherAbstractPolicy@2@@2@@CryptoPP@@WBI@AEPAXI@Z ; [thunk]:CryptoPP::CipherModeFinalTemplate_CipherHolder<CryptoPP::BlockCipherFinal<0,CryptoPP::Twofish::Enc>,CryptoPP::ConcretePolicyHolder<CryptoPP::Empty,CryptoPP::AdditiveCipherTemplate<CryptoPP::AbstractPolicyHolder<CryptoPP::AdditiveCipherAbstractPolicy,CryptoPP::CTR_ModePolicy> >,CryptoPP::AdditiveCipherAbstractPolicy> >::`vector deleting destructor'
PUBLIC	??_E?$CipherModeFinalTemplate_CipherHolder@V?$BlockCipherFinal@$0A@VEnc@Twofish@CryptoPP@@@CryptoPP@@V?$ConcretePolicyHolder@VEmpty@CryptoPP@@V?$AdditiveCipherTemplate@V?$AbstractPolicyHolder@UAdditiveCipherAbstractPolicy@CryptoPP@@VCTR_ModePolicy@2@@CryptoPP@@@2@UAdditiveCipherAbstractPolicy@2@@2@@CryptoPP@@WCI@AEPAXI@Z ; [thunk]:CryptoPP::CipherModeFinalTemplate_CipherHolder<CryptoPP::BlockCipherFinal<0,CryptoPP::Twofish::Enc>,CryptoPP::ConcretePolicyHolder<CryptoPP::Empty,CryptoPP::AdditiveCipherTemplate<CryptoPP::AbstractPolicyHolder<CryptoPP::AdditiveCipherAbstractPolicy,CryptoPP::CTR_ModePolicy> >,CryptoPP::AdditiveCipherAbstractPolicy> >::`vector deleting destructor'
PUBLIC	?AlgorithmName@?$AlgorithmImpl@V?$ConcretePolicyHolder@VEmpty@CryptoPP@@V?$AdditiveCipherTemplate@V?$AbstractPolicyHolder@UAdditiveCipherAbstractPolicy@CryptoPP@@VCTR_ModePolicy@2@@CryptoPP@@@2@UAdditiveCipherAbstractPolicy@2@@CryptoPP@@V?$CipherModeFinalTemplate_CipherHolder@V?$BlockCipherFinal@$0A@VEnc@Twofish@CryptoPP@@@CryptoPP@@V?$ConcretePolicyHolder@VEmpty@CryptoPP@@V?$AdditiveCipherTemplate@V?$AbstractPolicyHolder@UAdditiveCipherAbstractPolicy@CryptoPP@@VCTR_ModePolicy@2@@CryptoPP@@@2@UAdditiveCipherAbstractPolicy@2@@2@@2@@CryptoPP@@WCE@BE?AV?$basic_string@DU?$char_traits@D@std@@V?$allocator@D@2@@std@@XZ ; [thunk]:CryptoPP::AlgorithmImpl<CryptoPP::ConcretePolicyHolder<CryptoPP::Empty,CryptoPP::AdditiveCipherTemplate<CryptoPP::AbstractPolicyHolder<CryptoPP::AdditiveCipherAbstractPolicy,CryptoPP::CTR_ModePolicy> >,CryptoPP::AdditiveCipherAbstractPolicy>,CryptoPP::CipherModeFinalTemplate_CipherHolder<CryptoPP::BlockCipherFinal<0,CryptoPP::Twofish::Enc>,CryptoPP::ConcretePolicyHolder<CryptoPP::Empty,CryptoPP::AdditiveCipherTemplate<CryptoPP::AbstractPolicyHolder<CryptoPP::AdditiveCipherAbstractPolicy,CryptoPP::CTR_ModePolicy> >,CryptoPP::AdditiveCipherAbstractPolicy> > >::AlgorithmName`adjustor{36}'
PUBLIC	??_E?$CipherModeFinalTemplate_CipherHolder@V?$BlockCipherFinal@$0A@VEnc@XTEA@CryptoPP@@@CryptoPP@@V?$ConcretePolicyHolder@VEmpty@CryptoPP@@V?$AdditiveCipherTemplate@V?$AbstractPolicyHolder@UAdditiveCipherAbstractPolicy@CryptoPP@@VCTR_ModePolicy@2@@CryptoPP@@@2@UAdditiveCipherAbstractPolicy@2@@2@@CryptoPP@@W3AEPAXI@Z ; [thunk]:CryptoPP::CipherModeFinalTemplate_CipherHolder<CryptoPP::BlockCipherFinal<0,CryptoPP::XTEA::Enc>,CryptoPP::ConcretePolicyHolder<CryptoPP::Empty,CryptoPP::AdditiveCipherTemplate<CryptoPP::AbstractPolicyHolder<CryptoPP::AdditiveCipherAbstractPolicy,CryptoPP::CTR_ModePolicy> >,CryptoPP::AdditiveCipherAbstractPolicy> >::`vector deleting destructor'
PUBLIC	??_E?$CipherModeFinalTemplate_CipherHolder@V?$BlockCipherFinal@$0A@VEnc@XTEA@CryptoPP@@@CryptoPP@@V?$ConcretePolicyHolder@VEmpty@CryptoPP@@V?$AdditiveCipherTemplate@V?$AbstractPolicyHolder@UAdditiveCipherAbstractPolicy@CryptoPP@@VCTR_ModePolicy@2@@CryptoPP@@@2@UAdditiveCipherAbstractPolicy@2@@2@@CryptoPP@@WBI@AEPAXI@Z ; [thunk]:CryptoPP::CipherModeFinalTemplate_CipherHolder<CryptoPP::BlockCipherFinal<0,CryptoPP::XTEA::Enc>,CryptoPP::ConcretePolicyHolder<CryptoPP::Empty,CryptoPP::AdditiveCipherTemplate<CryptoPP::AbstractPolicyHolder<CryptoPP::AdditiveCipherAbstractPolicy,CryptoPP::CTR_ModePolicy> >,CryptoPP::AdditiveCipherAbstractPolicy> >::`vector deleting destructor'
PUBLIC	??_E?$CipherModeFinalTemplate_CipherHolder@V?$BlockCipherFinal@$0A@VEnc@XTEA@CryptoPP@@@CryptoPP@@V?$ConcretePolicyHolder@VEmpty@CryptoPP@@V?$AdditiveCipherTemplate@V?$AbstractPolicyHolder@UAdditiveCipherAbstractPolicy@CryptoPP@@VCTR_ModePolicy@2@@CryptoPP@@@2@UAdditiveCipherAbstractPolicy@2@@2@@CryptoPP@@WCI@AEPAXI@Z ; [thunk]:CryptoPP::CipherModeFinalTemplate_CipherHolder<CryptoPP::BlockCipherFinal<0,CryptoPP::XTEA::Enc>,CryptoPP::ConcretePolicyHolder<CryptoPP::Empty,CryptoPP::AdditiveCipherTemplate<CryptoPP::AbstractPolicyHolder<CryptoPP::AdditiveCipherAbstractPolicy,CryptoPP::CTR_ModePolicy> >,CryptoPP::AdditiveCipherAbstractPolicy> >::`vector deleting destructor'
PUBLIC	?AlgorithmName@?$AlgorithmImpl@V?$ConcretePolicyHolder@VEmpty@CryptoPP@@V?$AdditiveCipherTemplate@V?$AbstractPolicyHolder@UAdditiveCipherAbstractPolicy@CryptoPP@@VCTR_ModePolicy@2@@CryptoPP@@@2@UAdditiveCipherAbstractPolicy@2@@CryptoPP@@V?$CipherModeFinalTemplate_CipherHolder@V?$BlockCipherFinal@$0A@VEnc@XTEA@CryptoPP@@@CryptoPP@@V?$ConcretePolicyHolder@VEmpty@CryptoPP@@V?$AdditiveCipherTemplate@V?$AbstractPolicyHolder@UAdditiveCipherAbstractPolicy@CryptoPP@@VCTR_ModePolicy@2@@CryptoPP@@@2@UAdditiveCipherAbstractPolicy@2@@2@@2@@CryptoPP@@WCE@BE?AV?$basic_string@DU?$char_traits@D@std@@V?$allocator@D@2@@std@@XZ ; [thunk]:CryptoPP::AlgorithmImpl<CryptoPP::ConcretePolicyHolder<CryptoPP::Empty,CryptoPP::AdditiveCipherTemplate<CryptoPP::AbstractPolicyHolder<CryptoPP::AdditiveCipherAbstractPolicy,CryptoPP::CTR_ModePolicy> >,CryptoPP::AdditiveCipherAbstractPolicy>,CryptoPP::CipherModeFinalTemplate_CipherHolder<CryptoPP::BlockCipherFinal<0,CryptoPP::XTEA::Enc>,CryptoPP::ConcretePolicyHolder<CryptoPP::Empty,CryptoPP::AdditiveCipherTemplate<CryptoPP::AbstractPolicyHolder<CryptoPP::AdditiveCipherAbstractPolicy,CryptoPP::CTR_ModePolicy> >,CryptoPP::AdditiveCipherAbstractPolicy> > >::AlgorithmName`adjustor{36}'
PUBLIC	??_7exception@std@@6B@				; std::exception::`vftable'
PUBLIC	??_C@_0BC@EOODALEL@Unknown?5exception@		; `string'
PUBLIC	??_7bad_alloc@std@@6B@				; std::bad_alloc::`vftable'
PUBLIC	??_7bad_array_new_length@std@@6B@		; std::bad_array_new_length::`vftable'
PUBLIC	??_C@_0BF@KINCDENJ@bad?5array?5new?5length@	; `string'
PUBLIC	__TI3?AVbad_array_new_length@std@@
PUBLIC	__CTA3?AVbad_array_new_length@std@@
PUBLIC	??_R0?AVbad_array_new_length@std@@@8		; std::bad_array_new_length `RTTI Type Descriptor'
PUBLIC	__CT??_R0?AVbad_array_new_length@std@@@8??0bad_array_new_length@std@@QAE@ABV01@@Z12
PUBLIC	??_R0?AVbad_alloc@std@@@8			; std::bad_alloc `RTTI Type Descriptor'
PUBLIC	__CT??_R0?AVbad_alloc@std@@@8??0bad_alloc@std@@QAE@ABV01@@Z12
PUBLIC	??_R0?AVexception@std@@@8			; std::exception `RTTI Type Descriptor'
PUBLIC	__CT??_R0?AVexception@std@@@8??0exception@std@@QAE@ABV01@@Z12
PUBLIC	??_C@_0BA@JFNIOLAK@string?5too?5long@		; `string'
PUBLIC	?value@?$prime_list_template@I@detail@unordered@boost@@2QBIB ; boost::unordered::detail::prime_list_template<unsigned int>::value
PUBLIC	?length@?$prime_list_template@I@detail@unordered@boost@@2HB ; boost::unordered::detail::prime_list_template<unsigned int>::length
PUBLIC	??_7Exception@CryptoPP@@6B@			; CryptoPP::Exception::`vftable'
PUBLIC	??_7InvalidArgument@CryptoPP@@6B@		; CryptoPP::InvalidArgument::`vftable'
PUBLIC	??_7NotImplemented@CryptoPP@@6B@		; CryptoPP::NotImplemented::`vftable'
PUBLIC	??_7ValueTypeMismatch@NameValuePairs@CryptoPP@@6B@ ; CryptoPP::NameValuePairs::ValueTypeMismatch::`vftable'
PUBLIC	??_C@_01GEODFPGF@?8@				; `string'
PUBLIC	??_C@_0BI@CPJAGCKP@?8?0?5trying?5to?5retrieve?5?8@ ; `string'
PUBLIC	??_C@_0M@PGGGIJHH@?8?0?5stored?5?8@		; `string'
PUBLIC	??_C@_0CE@LNMKHLKF@NameValuePairs?3?5type?5mismatch?5f@ ; `string'
PUBLIC	__TI4?AVValueTypeMismatch@NameValuePairs@CryptoPP@@
PUBLIC	__CTA4?AVValueTypeMismatch@NameValuePairs@CryptoPP@@
PUBLIC	??_R0?AVValueTypeMismatch@NameValuePairs@CryptoPP@@@8 ; CryptoPP::NameValuePairs::ValueTypeMismatch `RTTI Type Descriptor'
PUBLIC	__CT??_R0?AVValueTypeMismatch@NameValuePairs@CryptoPP@@@8??0ValueTypeMismatch@NameValuePairs@CryptoPP@@QAE@ABV012@@Z48
PUBLIC	??_R0?AVInvalidArgument@CryptoPP@@@8		; CryptoPP::InvalidArgument `RTTI Type Descriptor'
PUBLIC	__CT??_R0?AVInvalidArgument@CryptoPP@@@8??0InvalidArgument@CryptoPP@@QAE@ABV01@@Z40
PUBLIC	??_R0?AVException@CryptoPP@@@8			; CryptoPP::Exception `RTTI Type Descriptor'
PUBLIC	__CT??_R0?AVException@CryptoPP@@@8??0Exception@CryptoPP@@QAE@ABV01@@Z40
PUBLIC	__TI3?AVInvalidArgument@CryptoPP@@
PUBLIC	__CTA3?AVInvalidArgument@CryptoPP@@
PUBLIC	__TI3?AVNotImplemented@CryptoPP@@
PUBLIC	__CTA3?AVNotImplemented@CryptoPP@@
PUBLIC	??_R0?AVNotImplemented@CryptoPP@@@8		; CryptoPP::NotImplemented `RTTI Type Descriptor'
PUBLIC	__CT??_R0?AVNotImplemented@CryptoPP@@@8??0NotImplemented@CryptoPP@@QAE@ABV01@@Z40
PUBLIC	??_C@_0CA@CCPAJEEJ@Clone?$CI?$CJ?5is?5not?5implemented?5yet?4@ ; `string'
PUBLIC	??_C@_07CIFAGBMG@unknown@			; `string'
PUBLIC	??_C@_0DA@CJIHPKKH@?3?5this?5object?5doesn?8t?5support?5r@ ; `string'
PUBLIC	??_C@_0DK@CFJCNMFC@RandomNumberGenerator?3?5Incorpor@ ; `string'
PUBLIC	??_C@_0DG@FIHMKEGL@BufferedTransformation?3?5this?5ob@ ; `string'
PUBLIC	??_C@_08EGCCLPME@Camellia@			; `string'
PUBLIC	??_C@_07DABDIDEC@Twofish@			; `string'
PUBLIC	??_C@_04OKOCCFHC@XTEA@				; `string'
PUBLIC	??_C@_0N@GKFFKNHD@FeedbackSize@			; `string'
PUBLIC	??_C@_0M@JMHEFFAI@InputBuffer@			; `string'
PUBLIC	??_R0H@8					; int `RTTI Type Descriptor'
PUBLIC	??_7ParameterNotUsed@AlgorithmParametersBase@CryptoPP@@6B@ ; CryptoPP::AlgorithmParametersBase::ParameterNotUsed::`vftable'
PUBLIC	??_7AlgorithmParametersBase@CryptoPP@@6B@	; CryptoPP::AlgorithmParametersBase::`vftable'
PUBLIC	??_C@_0L@IAABKFFP@?$CC?5not?5used@		; `string'
PUBLIC	??_C@_0CF@BLINCPFB@AlgorithmParametersBase?3?5parame@ ; `string'
PUBLIC	__TI3?AVParameterNotUsed@AlgorithmParametersBase@CryptoPP@@
PUBLIC	__CTA3?AVParameterNotUsed@AlgorithmParametersBase@CryptoPP@@
PUBLIC	??_R0?AVParameterNotUsed@AlgorithmParametersBase@CryptoPP@@@8 ; CryptoPP::AlgorithmParametersBase::ParameterNotUsed `RTTI Type Descriptor'
PUBLIC	__CT??_R0?AVParameterNotUsed@AlgorithmParametersBase@CryptoPP@@@8??0ParameterNotUsed@AlgorithmParametersBase@CryptoPP@@QAE@ABV012@@Z40
PUBLIC	??_7?$AlgorithmParametersTemplate@VConstByteArrayParameter@CryptoPP@@@CryptoPP@@6B@ ; CryptoPP::AlgorithmParametersTemplate<CryptoPP::ConstByteArrayParameter>::`vftable'
PUBLIC	??_C@_0EH@FMNEDLJE@CipherModeBase?3?5feedback?5size?5c@ ; `string'
PUBLIC	??_C@_03LECCGOIK@CTR@				; `string'
PUBLIC	??_7?$ConcretePolicyHolder@VEmpty@CryptoPP@@V?$AdditiveCipherTemplate@V?$AbstractPolicyHolder@UAdditiveCipherAbstractPolicy@CryptoPP@@VCTR_ModePolicy@2@@CryptoPP@@@2@UAdditiveCipherAbstractPolicy@2@@CryptoPP@@6BSimpleKeyingInterface@1@@ ; CryptoPP::ConcretePolicyHolder<CryptoPP::Empty,CryptoPP::AdditiveCipherTemplate<CryptoPP::AbstractPolicyHolder<CryptoPP::AdditiveCipherAbstractPolicy,CryptoPP::CTR_ModePolicy> >,CryptoPP::AdditiveCipherAbstractPolicy>::`vftable'
PUBLIC	??_7?$ConcretePolicyHolder@VEmpty@CryptoPP@@V?$AdditiveCipherTemplate@V?$AbstractPolicyHolder@UAdditiveCipherAbstractPolicy@CryptoPP@@VCTR_ModePolicy@2@@CryptoPP@@@2@UAdditiveCipherAbstractPolicy@2@@CryptoPP@@6BStreamTransformation@1@@ ; CryptoPP::ConcretePolicyHolder<CryptoPP::Empty,CryptoPP::AdditiveCipherTemplate<CryptoPP::AbstractPolicyHolder<CryptoPP::AdditiveCipherAbstractPolicy,CryptoPP::CTR_ModePolicy> >,CryptoPP::AdditiveCipherAbstractPolicy>::`vftable'
PUBLIC	??_7?$ConcretePolicyHolder@VEmpty@CryptoPP@@V?$AdditiveCipherTemplate@V?$AbstractPolicyHolder@UAdditiveCipherAbstractPolicy@CryptoPP@@VCTR_ModePolicy@2@@CryptoPP@@@2@UAdditiveCipherAbstractPolicy@2@@CryptoPP@@6B?$AbstractPolicyHolder@UAdditiveCipherAbstractPolicy@CryptoPP@@VCTR_ModePolicy@2@@1@@ ; CryptoPP::ConcretePolicyHolder<CryptoPP::Empty,CryptoPP::AdditiveCipherTemplate<CryptoPP::AbstractPolicyHolder<CryptoPP::AdditiveCipherAbstractPolicy,CryptoPP::CTR_ModePolicy> >,CryptoPP::AdditiveCipherAbstractPolicy>::`vftable'
PUBLIC	??_7?$ConcretePolicyHolder@VEmpty@CryptoPP@@V?$AdditiveCipherTemplate@V?$AbstractPolicyHolder@UAdditiveCipherAbstractPolicy@CryptoPP@@VCTR_ModePolicy@2@@CryptoPP@@@2@UAdditiveCipherAbstractPolicy@2@@CryptoPP@@6BRandomNumberGenerator@1@@ ; CryptoPP::ConcretePolicyHolder<CryptoPP::Empty,CryptoPP::AdditiveCipherTemplate<CryptoPP::AbstractPolicyHolder<CryptoPP::AdditiveCipherAbstractPolicy,CryptoPP::CTR_ModePolicy> >,CryptoPP::AdditiveCipherAbstractPolicy>::`vftable'
PUBLIC	??_7?$StringSinkTemplate@V?$basic_string@DU?$char_traits@D@std@@V?$allocator@D@2@@std@@@CryptoPP@@6BAlgorithm@1@@ ; CryptoPP::StringSinkTemplate<std::basic_string<char,std::char_traits<char>,std::allocator<char> > >::`vftable'
PUBLIC	??_7?$StringSinkTemplate@V?$basic_string@DU?$char_traits@D@std@@V?$allocator@D@2@@std@@@CryptoPP@@6BWaitable@1@@ ; CryptoPP::StringSinkTemplate<std::basic_string<char,std::char_traits<char>,std::allocator<char> > >::`vftable'
PUBLIC	??_7StringStore@CryptoPP@@6BAlgorithm@1@@	; CryptoPP::StringStore::`vftable'
PUBLIC	??_7StringStore@CryptoPP@@6BWaitable@1@@	; CryptoPP::StringStore::`vftable'
PUBLIC	??_7?$SourceTemplate@VStringStore@CryptoPP@@@CryptoPP@@6BAlgorithm@1@@ ; CryptoPP::SourceTemplate<CryptoPP::StringStore>::`vftable'
PUBLIC	??_7?$SourceTemplate@VStringStore@CryptoPP@@@CryptoPP@@6BWaitable@1@@ ; CryptoPP::SourceTemplate<CryptoPP::StringStore>::`vftable'
PUBLIC	??_7StringSource@CryptoPP@@6BAlgorithm@1@@	; CryptoPP::StringSource::`vftable'
PUBLIC	??_7StringSource@CryptoPP@@6BWaitable@1@@	; CryptoPP::StringSource::`vftable'
PUBLIC	??_7AutoSeededRandomPool@CryptoPP@@6B@		; CryptoPP::AutoSeededRandomPool::`vftable'
PUBLIC	??_7?$BlockCipherFinal@$0A@VBase@Camellia@CryptoPP@@@CryptoPP@@6BSimpleKeyingInterface@1@@ ; CryptoPP::BlockCipherFinal<0,CryptoPP::Camellia::Base>::`vftable'
PUBLIC	??_7?$BlockCipherFinal@$0A@VBase@Camellia@CryptoPP@@@CryptoPP@@6BBlockTransformation@1@@ ; CryptoPP::BlockCipherFinal<0,CryptoPP::Camellia::Base>::`vftable'
PUBLIC	??_7?$CipherModeFinalTemplate_CipherHolder@V?$BlockCipherFinal@$0A@VBase@Camellia@CryptoPP@@@CryptoPP@@V?$ConcretePolicyHolder@VEmpty@CryptoPP@@V?$AdditiveCipherTemplate@V?$AbstractPolicyHolder@UAdditiveCipherAbstractPolicy@CryptoPP@@VCTR_ModePolicy@2@@CryptoPP@@@2@UAdditiveCipherAbstractPolicy@2@@2@@CryptoPP@@6BSimpleKeyingInterface@1@@ ; CryptoPP::CipherModeFinalTemplate_CipherHolder<CryptoPP::BlockCipherFinal<0,CryptoPP::Camellia::Base>,CryptoPP::ConcretePolicyHolder<CryptoPP::Empty,CryptoPP::AdditiveCipherTemplate<CryptoPP::AbstractPolicyHolder<CryptoPP::AdditiveCipherAbstractPolicy,CryptoPP::CTR_ModePolicy> >,CryptoPP::AdditiveCipherAbstractPolicy> >::`vftable'
PUBLIC	??_7?$CipherModeFinalTemplate_CipherHolder@V?$BlockCipherFinal@$0A@VBase@Camellia@CryptoPP@@@CryptoPP@@V?$ConcretePolicyHolder@VEmpty@CryptoPP@@V?$AdditiveCipherTemplate@V?$AbstractPolicyHolder@UAdditiveCipherAbstractPolicy@CryptoPP@@VCTR_ModePolicy@2@@CryptoPP@@@2@UAdditiveCipherAbstractPolicy@2@@2@@CryptoPP@@6BStreamTransformation@1@@ ; CryptoPP::CipherModeFinalTemplate_CipherHolder<CryptoPP::BlockCipherFinal<0,CryptoPP::Camellia::Base>,CryptoPP::ConcretePolicyHolder<CryptoPP::Empty,CryptoPP::AdditiveCipherTemplate<CryptoPP::AbstractPolicyHolder<CryptoPP::AdditiveCipherAbstractPolicy,CryptoPP::CTR_ModePolicy> >,CryptoPP::AdditiveCipherAbstractPolicy> >::`vftable'
PUBLIC	??_7?$CipherModeFinalTemplate_CipherHolder@V?$BlockCipherFinal@$0A@VBase@Camellia@CryptoPP@@@CryptoPP@@V?$ConcretePolicyHolder@VEmpty@CryptoPP@@V?$AdditiveCipherTemplate@V?$AbstractPolicyHolder@UAdditiveCipherAbstractPolicy@CryptoPP@@VCTR_ModePolicy@2@@CryptoPP@@@2@UAdditiveCipherAbstractPolicy@2@@2@@CryptoPP@@6B?$AbstractPolicyHolder@UAdditiveCipherAbstractPolicy@CryptoPP@@VCTR_ModePolicy@2@@1@@ ; CryptoPP::CipherModeFinalTemplate_CipherHolder<CryptoPP::BlockCipherFinal<0,CryptoPP::Camellia::Base>,CryptoPP::ConcretePolicyHolder<CryptoPP::Empty,CryptoPP::AdditiveCipherTemplate<CryptoPP::AbstractPolicyHolder<CryptoPP::AdditiveCipherAbstractPolicy,CryptoPP::CTR_ModePolicy> >,CryptoPP::AdditiveCipherAbstractPolicy> >::`vftable'
PUBLIC	??_7?$CipherModeFinalTemplate_CipherHolder@V?$BlockCipherFinal@$0A@VBase@Camellia@CryptoPP@@@CryptoPP@@V?$ConcretePolicyHolder@VEmpty@CryptoPP@@V?$AdditiveCipherTemplate@V?$AbstractPolicyHolder@UAdditiveCipherAbstractPolicy@CryptoPP@@VCTR_ModePolicy@2@@CryptoPP@@@2@UAdditiveCipherAbstractPolicy@2@@2@@CryptoPP@@6BRandomNumberGenerator@1@@ ; CryptoPP::CipherModeFinalTemplate_CipherHolder<CryptoPP::BlockCipherFinal<0,CryptoPP::Camellia::Base>,CryptoPP::ConcretePolicyHolder<CryptoPP::Empty,CryptoPP::AdditiveCipherTemplate<CryptoPP::AbstractPolicyHolder<CryptoPP::AdditiveCipherAbstractPolicy,CryptoPP::CTR_ModePolicy> >,CryptoPP::AdditiveCipherAbstractPolicy> >::`vftable'
PUBLIC	??_7?$BlockCipherFinal@$0A@VEnc@Twofish@CryptoPP@@@CryptoPP@@6BSimpleKeyingInterface@1@@ ; CryptoPP::BlockCipherFinal<0,CryptoPP::Twofish::Enc>::`vftable'
PUBLIC	??_7?$BlockCipherFinal@$0A@VEnc@Twofish@CryptoPP@@@CryptoPP@@6BBlockTransformation@1@@ ; CryptoPP::BlockCipherFinal<0,CryptoPP::Twofish::Enc>::`vftable'
PUBLIC	??_7?$CipherModeFinalTemplate_CipherHolder@V?$BlockCipherFinal@$0A@VEnc@Twofish@CryptoPP@@@CryptoPP@@V?$ConcretePolicyHolder@VEmpty@CryptoPP@@V?$AdditiveCipherTemplate@V?$AbstractPolicyHolder@UAdditiveCipherAbstractPolicy@CryptoPP@@VCTR_ModePolicy@2@@CryptoPP@@@2@UAdditiveCipherAbstractPolicy@2@@2@@CryptoPP@@6BSimpleKeyingInterface@1@@ ; CryptoPP::CipherModeFinalTemplate_CipherHolder<CryptoPP::BlockCipherFinal<0,CryptoPP::Twofish::Enc>,CryptoPP::ConcretePolicyHolder<CryptoPP::Empty,CryptoPP::AdditiveCipherTemplate<CryptoPP::AbstractPolicyHolder<CryptoPP::AdditiveCipherAbstractPolicy,CryptoPP::CTR_ModePolicy> >,CryptoPP::AdditiveCipherAbstractPolicy> >::`vftable'
PUBLIC	??_7?$CipherModeFinalTemplate_CipherHolder@V?$BlockCipherFinal@$0A@VEnc@Twofish@CryptoPP@@@CryptoPP@@V?$ConcretePolicyHolder@VEmpty@CryptoPP@@V?$AdditiveCipherTemplate@V?$AbstractPolicyHolder@UAdditiveCipherAbstractPolicy@CryptoPP@@VCTR_ModePolicy@2@@CryptoPP@@@2@UAdditiveCipherAbstractPolicy@2@@2@@CryptoPP@@6BStreamTransformation@1@@ ; CryptoPP::CipherModeFinalTemplate_CipherHolder<CryptoPP::BlockCipherFinal<0,CryptoPP::Twofish::Enc>,CryptoPP::ConcretePolicyHolder<CryptoPP::Empty,CryptoPP::AdditiveCipherTemplate<CryptoPP::AbstractPolicyHolder<CryptoPP::AdditiveCipherAbstractPolicy,CryptoPP::CTR_ModePolicy> >,CryptoPP::AdditiveCipherAbstractPolicy> >::`vftable'
PUBLIC	??_7?$CipherModeFinalTemplate_CipherHolder@V?$BlockCipherFinal@$0A@VEnc@Twofish@CryptoPP@@@CryptoPP@@V?$ConcretePolicyHolder@VEmpty@CryptoPP@@V?$AdditiveCipherTemplate@V?$AbstractPolicyHolder@UAdditiveCipherAbstractPolicy@CryptoPP@@VCTR_ModePolicy@2@@CryptoPP@@@2@UAdditiveCipherAbstractPolicy@2@@2@@CryptoPP@@6B?$AbstractPolicyHolder@UAdditiveCipherAbstractPolicy@CryptoPP@@VCTR_ModePolicy@2@@1@@ ; CryptoPP::CipherModeFinalTemplate_CipherHolder<CryptoPP::BlockCipherFinal<0,CryptoPP::Twofish::Enc>,CryptoPP::ConcretePolicyHolder<CryptoPP::Empty,CryptoPP::AdditiveCipherTemplate<CryptoPP::AbstractPolicyHolder<CryptoPP::AdditiveCipherAbstractPolicy,CryptoPP::CTR_ModePolicy> >,CryptoPP::AdditiveCipherAbstractPolicy> >::`vftable'
PUBLIC	??_7?$CipherModeFinalTemplate_CipherHolder@V?$BlockCipherFinal@$0A@VEnc@Twofish@CryptoPP@@@CryptoPP@@V?$ConcretePolicyHolder@VEmpty@CryptoPP@@V?$AdditiveCipherTemplate@V?$AbstractPolicyHolder@UAdditiveCipherAbstractPolicy@CryptoPP@@VCTR_ModePolicy@2@@CryptoPP@@@2@UAdditiveCipherAbstractPolicy@2@@2@@CryptoPP@@6BRandomNumberGenerator@1@@ ; CryptoPP::CipherModeFinalTemplate_CipherHolder<CryptoPP::BlockCipherFinal<0,CryptoPP::Twofish::Enc>,CryptoPP::ConcretePolicyHolder<CryptoPP::Empty,CryptoPP::AdditiveCipherTemplate<CryptoPP::AbstractPolicyHolder<CryptoPP::AdditiveCipherAbstractPolicy,CryptoPP::CTR_ModePolicy> >,CryptoPP::AdditiveCipherAbstractPolicy> >::`vftable'
PUBLIC	??_7?$BlockCipherFinal@$0A@VEnc@XTEA@CryptoPP@@@CryptoPP@@6BSimpleKeyingInterface@1@@ ; CryptoPP::BlockCipherFinal<0,CryptoPP::XTEA::Enc>::`vftable'
PUBLIC	??_7?$BlockCipherFinal@$0A@VEnc@XTEA@CryptoPP@@@CryptoPP@@6BBlockTransformation@1@@ ; CryptoPP::BlockCipherFinal<0,CryptoPP::XTEA::Enc>::`vftable'
PUBLIC	??_7?$CipherModeFinalTemplate_CipherHolder@V?$BlockCipherFinal@$0A@VEnc@XTEA@CryptoPP@@@CryptoPP@@V?$ConcretePolicyHolder@VEmpty@CryptoPP@@V?$AdditiveCipherTemplate@V?$AbstractPolicyHolder@UAdditiveCipherAbstractPolicy@CryptoPP@@VCTR_ModePolicy@2@@CryptoPP@@@2@UAdditiveCipherAbstractPolicy@2@@2@@CryptoPP@@6BSimpleKeyingInterface@1@@ ; CryptoPP::CipherModeFinalTemplate_CipherHolder<CryptoPP::BlockCipherFinal<0,CryptoPP::XTEA::Enc>,CryptoPP::ConcretePolicyHolder<CryptoPP::Empty,CryptoPP::AdditiveCipherTemplate<CryptoPP::AbstractPolicyHolder<CryptoPP::AdditiveCipherAbstractPolicy,CryptoPP::CTR_ModePolicy> >,CryptoPP::AdditiveCipherAbstractPolicy> >::`vftable'
PUBLIC	??_7?$CipherModeFinalTemplate_CipherHolder@V?$BlockCipherFinal@$0A@VEnc@XTEA@CryptoPP@@@CryptoPP@@V?$ConcretePolicyHolder@VEmpty@CryptoPP@@V?$AdditiveCipherTemplate@V?$AbstractPolicyHolder@UAdditiveCipherAbstractPolicy@CryptoPP@@VCTR_ModePolicy@2@@CryptoPP@@@2@UAdditiveCipherAbstractPolicy@2@@2@@CryptoPP@@6BStreamTransformation@1@@ ; CryptoPP::CipherModeFinalTemplate_CipherHolder<CryptoPP::BlockCipherFinal<0,CryptoPP::XTEA::Enc>,CryptoPP::ConcretePolicyHolder<CryptoPP::Empty,CryptoPP::AdditiveCipherTemplate<CryptoPP::AbstractPolicyHolder<CryptoPP::AdditiveCipherAbstractPolicy,CryptoPP::CTR_ModePolicy> >,CryptoPP::AdditiveCipherAbstractPolicy> >::`vftable'
PUBLIC	??_7?$CipherModeFinalTemplate_CipherHolder@V?$BlockCipherFinal@$0A@VEnc@XTEA@CryptoPP@@@CryptoPP@@V?$ConcretePolicyHolder@VEmpty@CryptoPP@@V?$AdditiveCipherTemplate@V?$AbstractPolicyHolder@UAdditiveCipherAbstractPolicy@CryptoPP@@VCTR_ModePolicy@2@@CryptoPP@@@2@UAdditiveCipherAbstractPolicy@2@@2@@CryptoPP@@6B?$AbstractPolicyHolder@UAdditiveCipherAbstractPolicy@CryptoPP@@VCTR_ModePolicy@2@@1@@ ; CryptoPP::CipherModeFinalTemplate_CipherHolder<CryptoPP::BlockCipherFinal<0,CryptoPP::XTEA::Enc>,CryptoPP::ConcretePolicyHolder<CryptoPP::Empty,CryptoPP::AdditiveCipherTemplate<CryptoPP::AbstractPolicyHolder<CryptoPP::AdditiveCipherAbstractPolicy,CryptoPP::CTR_ModePolicy> >,CryptoPP::AdditiveCipherAbstractPolicy> >::`vftable'
PUBLIC	??_7?$CipherModeFinalTemplate_CipherHolder@V?$BlockCipherFinal@$0A@VEnc@XTEA@CryptoPP@@@CryptoPP@@V?$ConcretePolicyHolder@VEmpty@CryptoPP@@V?$AdditiveCipherTemplate@V?$AbstractPolicyHolder@UAdditiveCipherAbstractPolicy@CryptoPP@@VCTR_ModePolicy@2@@CryptoPP@@@2@UAdditiveCipherAbstractPolicy@2@@2@@CryptoPP@@6BRandomNumberGenerator@1@@ ; CryptoPP::CipherModeFinalTemplate_CipherHolder<CryptoPP::BlockCipherFinal<0,CryptoPP::XTEA::Enc>,CryptoPP::ConcretePolicyHolder<CryptoPP::Empty,CryptoPP::AdditiveCipherTemplate<CryptoPP::AbstractPolicyHolder<CryptoPP::AdditiveCipherAbstractPolicy,CryptoPP::CTR_ModePolicy> >,CryptoPP::AdditiveCipherAbstractPolicy> >::`vftable'
PUBLIC	??_7InputRejected@?$InputRejecting@VFilter@CryptoPP@@@CryptoPP@@6B@ ; CryptoPP::InputRejecting<CryptoPP::Filter>::InputRejected::`vftable'
PUBLIC	__TI4?AUInputRejected@?$InputRejecting@VFilter@CryptoPP@@@CryptoPP@@
PUBLIC	__CTA4?AUInputRejected@?$InputRejecting@VFilter@CryptoPP@@@CryptoPP@@
PUBLIC	??_R0?AUInputRejected@?$InputRejecting@VFilter@CryptoPP@@@CryptoPP@@@8 ; CryptoPP::InputRejecting<CryptoPP::Filter>::InputRejected `RTTI Type Descriptor'
PUBLIC	__CT??_R0?AUInputRejected@?$InputRejecting@VFilter@CryptoPP@@@CryptoPP@@@8??0InputRejected@?$InputRejecting@VFilter@CryptoPP@@@CryptoPP@@QAE@ABU012@@Z40
PUBLIC	??_C@_0BE@NDOICOBI@OutputStringPointer@		; `string'
PUBLIC	??_C@_0CO@DDPAKADP@StringSink?3?5OutputStringPointer@ ; `string'
PUBLIC	??_C@_01KMDKNFGN@?1@				; `string'
PUBLIC	??_R0?AVConstByteArrayParameter@CryptoPP@@@8	; CryptoPP::ConstByteArrayParameter `RTTI Type Descriptor'
PUBLIC	??_7InputRejected@?$InputRejecting@VBufferedTransformation@CryptoPP@@@CryptoPP@@6B@ ; CryptoPP::InputRejecting<CryptoPP::BufferedTransformation>::InputRejected::`vftable'
PUBLIC	__TI4?AUInputRejected@?$InputRejecting@VBufferedTransformation@CryptoPP@@@CryptoPP@@
PUBLIC	__CTA4?AUInputRejected@?$InputRejecting@VBufferedTransformation@CryptoPP@@@CryptoPP@@
PUBLIC	??_R0?AUInputRejected@?$InputRejecting@VBufferedTransformation@CryptoPP@@@CryptoPP@@@8 ; CryptoPP::InputRejecting<CryptoPP::BufferedTransformation>::InputRejected `RTTI Type Descriptor'
PUBLIC	__CT??_R0?AUInputRejected@?$InputRejecting@VBufferedTransformation@CryptoPP@@@CryptoPP@@@8??0InputRejected@?$InputRejecting@VBufferedTransformation@CryptoPP@@@CryptoPP@@QAE@ABU012@@Z40
PUBLIC	??_C@_0DI@JMMKBAHA@BufferedTransformation?3?5this?5ob@ ; `string'
PUBLIC	??_C@_0DL@LFCPKOMM@AllocatorBase?3?5requested?5size?5w@ ; `string'
PUBLIC	??_R0PAV?$basic_string@DU?$char_traits@D@std@@V?$allocator@D@2@@std@@@8 ; std::basic_string<char,std::char_traits<char>,std::allocator<char> > * `RTTI Type Descriptor'
PUBLIC	??_C@_0BA@FOIKENOD@vector?5too?5long@		; `string'
PUBLIC	??_R4exception@std@@6B@				; std::exception::`RTTI Complete Object Locator'
PUBLIC	??_R3exception@std@@8				; std::exception::`RTTI Class Hierarchy Descriptor'
PUBLIC	??_R2exception@std@@8				; std::exception::`RTTI Base Class Array'
PUBLIC	??_R1A@?0A@EA@exception@std@@8			; std::exception::`RTTI Base Class Descriptor at (0,-1,0,64)'
PUBLIC	??_R4bad_alloc@std@@6B@				; std::bad_alloc::`RTTI Complete Object Locator'
PUBLIC	??_R3bad_alloc@std@@8				; std::bad_alloc::`RTTI Class Hierarchy Descriptor'
PUBLIC	??_R2bad_alloc@std@@8				; std::bad_alloc::`RTTI Base Class Array'
PUBLIC	??_R1A@?0A@EA@bad_alloc@std@@8			; std::bad_alloc::`RTTI Base Class Descriptor at (0,-1,0,64)'
PUBLIC	??_R4bad_array_new_length@std@@6B@		; std::bad_array_new_length::`RTTI Complete Object Locator'
PUBLIC	??_R3bad_array_new_length@std@@8		; std::bad_array_new_length::`RTTI Class Hierarchy Descriptor'
PUBLIC	??_R2bad_array_new_length@std@@8		; std::bad_array_new_length::`RTTI Base Class Array'
PUBLIC	??_R1A@?0A@EA@bad_array_new_length@std@@8	; std::bad_array_new_length::`RTTI Base Class Descriptor at (0,-1,0,64)'
PUBLIC	??_R0?AVRandomNumberGenerator@CryptoPP@@@8	; CryptoPP::RandomNumberGenerator `RTTI Type Descriptor'
PUBLIC	??_R3RandomNumberGenerator@CryptoPP@@8		; CryptoPP::RandomNumberGenerator::`RTTI Class Hierarchy Descriptor'
PUBLIC	??_R2RandomNumberGenerator@CryptoPP@@8		; CryptoPP::RandomNumberGenerator::`RTTI Base Class Array'
PUBLIC	??_R1A@?0A@EA@RandomNumberGenerator@CryptoPP@@8	; CryptoPP::RandomNumberGenerator::`RTTI Base Class Descriptor at (0,-1,0,64)'
PUBLIC	??_R1A@?0A@EA@Algorithm@CryptoPP@@8		; CryptoPP::Algorithm::`RTTI Base Class Descriptor at (0,-1,0,64)'
PUBLIC	??_R0?AVAlgorithm@CryptoPP@@@8			; CryptoPP::Algorithm `RTTI Type Descriptor'
PUBLIC	??_R3Algorithm@CryptoPP@@8			; CryptoPP::Algorithm::`RTTI Class Hierarchy Descriptor'
PUBLIC	??_R2Algorithm@CryptoPP@@8			; CryptoPP::Algorithm::`RTTI Base Class Array'
PUBLIC	??_R1A@?0A@EA@Clonable@CryptoPP@@8		; CryptoPP::Clonable::`RTTI Base Class Descriptor at (0,-1,0,64)'
PUBLIC	??_R0?AVClonable@CryptoPP@@@8			; CryptoPP::Clonable `RTTI Type Descriptor'
PUBLIC	??_R3Clonable@CryptoPP@@8			; CryptoPP::Clonable::`RTTI Class Hierarchy Descriptor'
PUBLIC	??_R2Clonable@CryptoPP@@8			; CryptoPP::Clonable::`RTTI Base Class Array'
PUBLIC	??_R0?AVBufferedTransformation@CryptoPP@@@8	; CryptoPP::BufferedTransformation `RTTI Type Descriptor'
PUBLIC	??_R3BufferedTransformation@CryptoPP@@8		; CryptoPP::BufferedTransformation::`RTTI Class Hierarchy Descriptor'
PUBLIC	??_R2BufferedTransformation@CryptoPP@@8		; CryptoPP::BufferedTransformation::`RTTI Base Class Array'
PUBLIC	??_R1A@?0A@EA@BufferedTransformation@CryptoPP@@8 ; CryptoPP::BufferedTransformation::`RTTI Base Class Descriptor at (0,-1,0,64)'
PUBLIC	??_R13?0A@EA@Waitable@CryptoPP@@8		; CryptoPP::Waitable::`RTTI Base Class Descriptor at (4,-1,0,64)'
PUBLIC	??_R0?AVWaitable@CryptoPP@@@8			; CryptoPP::Waitable `RTTI Type Descriptor'
PUBLIC	??_R3Waitable@CryptoPP@@8			; CryptoPP::Waitable::`RTTI Class Hierarchy Descriptor'
PUBLIC	??_R2Waitable@CryptoPP@@8			; CryptoPP::Waitable::`RTTI Base Class Array'
PUBLIC	??_R1A@?0A@EA@Waitable@CryptoPP@@8		; CryptoPP::Waitable::`RTTI Base Class Descriptor at (0,-1,0,64)'
PUBLIC	??_R4Exception@CryptoPP@@6B@			; CryptoPP::Exception::`RTTI Complete Object Locator'
PUBLIC	??_R3Exception@CryptoPP@@8			; CryptoPP::Exception::`RTTI Class Hierarchy Descriptor'
PUBLIC	??_R2Exception@CryptoPP@@8			; CryptoPP::Exception::`RTTI Base Class Array'
PUBLIC	??_R1A@?0A@EA@Exception@CryptoPP@@8		; CryptoPP::Exception::`RTTI Base Class Descriptor at (0,-1,0,64)'
PUBLIC	??_R4InvalidArgument@CryptoPP@@6B@		; CryptoPP::InvalidArgument::`RTTI Complete Object Locator'
PUBLIC	??_R3InvalidArgument@CryptoPP@@8		; CryptoPP::InvalidArgument::`RTTI Class Hierarchy Descriptor'
PUBLIC	??_R2InvalidArgument@CryptoPP@@8		; CryptoPP::InvalidArgument::`RTTI Base Class Array'
PUBLIC	??_R1A@?0A@EA@InvalidArgument@CryptoPP@@8	; CryptoPP::InvalidArgument::`RTTI Base Class Descriptor at (0,-1,0,64)'
PUBLIC	??_R4NotImplemented@CryptoPP@@6B@		; CryptoPP::NotImplemented::`RTTI Complete Object Locator'
PUBLIC	??_R3NotImplemented@CryptoPP@@8			; CryptoPP::NotImplemented::`RTTI Class Hierarchy Descriptor'
PUBLIC	??_R2NotImplemented@CryptoPP@@8			; CryptoPP::NotImplemented::`RTTI Base Class Array'
PUBLIC	??_R1A@?0A@EA@NotImplemented@CryptoPP@@8	; CryptoPP::NotImplemented::`RTTI Base Class Descriptor at (0,-1,0,64)'
PUBLIC	??_R4ValueTypeMismatch@NameValuePairs@CryptoPP@@6B@ ; CryptoPP::NameValuePairs::ValueTypeMismatch::`RTTI Complete Object Locator'
PUBLIC	??_R3ValueTypeMismatch@NameValuePairs@CryptoPP@@8 ; CryptoPP::NameValuePairs::ValueTypeMismatch::`RTTI Class Hierarchy Descriptor'
PUBLIC	??_R2ValueTypeMismatch@NameValuePairs@CryptoPP@@8 ; CryptoPP::NameValuePairs::ValueTypeMismatch::`RTTI Base Class Array'
PUBLIC	??_R1A@?0A@EA@ValueTypeMismatch@NameValuePairs@CryptoPP@@8 ; CryptoPP::NameValuePairs::ValueTypeMismatch::`RTTI Base Class Descriptor at (0,-1,0,64)'
PUBLIC	??_R0?AVSimpleKeyingInterface@CryptoPP@@@8	; CryptoPP::SimpleKeyingInterface `RTTI Type Descriptor'
PUBLIC	??_R3SimpleKeyingInterface@CryptoPP@@8		; CryptoPP::SimpleKeyingInterface::`RTTI Class Hierarchy Descriptor'
PUBLIC	??_R2SimpleKeyingInterface@CryptoPP@@8		; CryptoPP::SimpleKeyingInterface::`RTTI Base Class Array'
PUBLIC	??_R1A@?0A@EA@SimpleKeyingInterface@CryptoPP@@8	; CryptoPP::SimpleKeyingInterface::`RTTI Base Class Descriptor at (0,-1,0,64)'
PUBLIC	??_R0?AVBlockTransformation@CryptoPP@@@8	; CryptoPP::BlockTransformation `RTTI Type Descriptor'
PUBLIC	??_R3BlockTransformation@CryptoPP@@8		; CryptoPP::BlockTransformation::`RTTI Class Hierarchy Descriptor'
PUBLIC	??_R2BlockTransformation@CryptoPP@@8		; CryptoPP::BlockTransformation::`RTTI Base Class Array'
PUBLIC	??_R1A@?0A@EA@BlockTransformation@CryptoPP@@8	; CryptoPP::BlockTransformation::`RTTI Base Class Descriptor at (0,-1,0,64)'
PUBLIC	??_R0?AVStreamTransformation@CryptoPP@@@8	; CryptoPP::StreamTransformation `RTTI Type Descriptor'
PUBLIC	??_R3StreamTransformation@CryptoPP@@8		; CryptoPP::StreamTransformation::`RTTI Class Hierarchy Descriptor'
PUBLIC	??_R2StreamTransformation@CryptoPP@@8		; CryptoPP::StreamTransformation::`RTTI Base Class Array'
PUBLIC	??_R1A@?0A@EA@StreamTransformation@CryptoPP@@8	; CryptoPP::StreamTransformation::`RTTI Base Class Descriptor at (0,-1,0,64)'
PUBLIC	??_R0?AVBlockCipher@CryptoPP@@@8		; CryptoPP::BlockCipher `RTTI Type Descriptor'
PUBLIC	??_R3BlockCipher@CryptoPP@@8			; CryptoPP::BlockCipher::`RTTI Class Hierarchy Descriptor'
PUBLIC	??_R2BlockCipher@CryptoPP@@8			; CryptoPP::BlockCipher::`RTTI Base Class Array'
PUBLIC	??_R1A@?0A@EA@BlockCipher@CryptoPP@@8		; CryptoPP::BlockCipher::`RTTI Base Class Descriptor at (0,-1,0,64)'
PUBLIC	??_R13?0A@EA@BlockTransformation@CryptoPP@@8	; CryptoPP::BlockTransformation::`RTTI Base Class Descriptor at (4,-1,0,64)'
PUBLIC	??_R13?0A@EA@Algorithm@CryptoPP@@8		; CryptoPP::Algorithm::`RTTI Base Class Descriptor at (4,-1,0,64)'
PUBLIC	??_R13?0A@EA@Clonable@CryptoPP@@8		; CryptoPP::Clonable::`RTTI Base Class Descriptor at (4,-1,0,64)'
PUBLIC	??_R0?AVSymmetricCipher@CryptoPP@@@8		; CryptoPP::SymmetricCipher `RTTI Type Descriptor'
PUBLIC	??_R3SymmetricCipher@CryptoPP@@8		; CryptoPP::SymmetricCipher::`RTTI Class Hierarchy Descriptor'
PUBLIC	??_R2SymmetricCipher@CryptoPP@@8		; CryptoPP::SymmetricCipher::`RTTI Base Class Array'
PUBLIC	??_R1A@?0A@EA@SymmetricCipher@CryptoPP@@8	; CryptoPP::SymmetricCipher::`RTTI Base Class Descriptor at (0,-1,0,64)'
PUBLIC	??_R13?0A@EA@StreamTransformation@CryptoPP@@8	; CryptoPP::StreamTransformation::`RTTI Base Class Descriptor at (4,-1,0,64)'
PUBLIC	??_R0?AVStore@CryptoPP@@@8			; CryptoPP::Store `RTTI Type Descriptor'
PUBLIC	??_R3Store@CryptoPP@@8				; CryptoPP::Store::`RTTI Class Hierarchy Descriptor'
PUBLIC	??_R2Store@CryptoPP@@8				; CryptoPP::Store::`RTTI Base Class Array'
PUBLIC	??_R1A@?0A@EA@Store@CryptoPP@@8			; CryptoPP::Store::`RTTI Base Class Descriptor at (0,-1,0,64)'
PUBLIC	??_R1A@?0A@EA@?$AutoSignaling@V?$InputRejecting@VBufferedTransformation@CryptoPP@@@CryptoPP@@@CryptoPP@@8 ; CryptoPP::AutoSignaling<CryptoPP::InputRejecting<CryptoPP::BufferedTransformation> >::`RTTI Base Class Descriptor at (0,-1,0,64)'
PUBLIC	??_R0?AV?$AutoSignaling@V?$InputRejecting@VBufferedTransformation@CryptoPP@@@CryptoPP@@@CryptoPP@@@8 ; CryptoPP::AutoSignaling<CryptoPP::InputRejecting<CryptoPP::BufferedTransformation> > `RTTI Type Descriptor'
PUBLIC	??_R3?$AutoSignaling@V?$InputRejecting@VBufferedTransformation@CryptoPP@@@CryptoPP@@@CryptoPP@@8 ; CryptoPP::AutoSignaling<CryptoPP::InputRejecting<CryptoPP::BufferedTransformation> >::`RTTI Class Hierarchy Descriptor'
PUBLIC	??_R2?$AutoSignaling@V?$InputRejecting@VBufferedTransformation@CryptoPP@@@CryptoPP@@@CryptoPP@@8 ; CryptoPP::AutoSignaling<CryptoPP::InputRejecting<CryptoPP::BufferedTransformation> >::`RTTI Base Class Array'
PUBLIC	??_R1A@?0A@EA@?$InputRejecting@VBufferedTransformation@CryptoPP@@@CryptoPP@@8 ; CryptoPP::InputRejecting<CryptoPP::BufferedTransformation>::`RTTI Base Class Descriptor at (0,-1,0,64)'
PUBLIC	??_R0?AV?$InputRejecting@VBufferedTransformation@CryptoPP@@@CryptoPP@@@8 ; CryptoPP::InputRejecting<CryptoPP::BufferedTransformation> `RTTI Type Descriptor'
PUBLIC	??_R3?$InputRejecting@VBufferedTransformation@CryptoPP@@@CryptoPP@@8 ; CryptoPP::InputRejecting<CryptoPP::BufferedTransformation>::`RTTI Class Hierarchy Descriptor'
PUBLIC	??_R2?$InputRejecting@VBufferedTransformation@CryptoPP@@@CryptoPP@@8 ; CryptoPP::InputRejecting<CryptoPP::BufferedTransformation>::`RTTI Base Class Array'
PUBLIC	??_R4InputRejected@?$InputRejecting@VBufferedTransformation@CryptoPP@@@CryptoPP@@6B@ ; CryptoPP::InputRejecting<CryptoPP::BufferedTransformation>::InputRejected::`RTTI Complete Object Locator'
PUBLIC	??_R3InputRejected@?$InputRejecting@VBufferedTransformation@CryptoPP@@@CryptoPP@@8 ; CryptoPP::InputRejecting<CryptoPP::BufferedTransformation>::InputRejected::`RTTI Class Hierarchy Descriptor'
PUBLIC	??_R2InputRejected@?$InputRejecting@VBufferedTransformation@CryptoPP@@@CryptoPP@@8 ; CryptoPP::InputRejecting<CryptoPP::BufferedTransformation>::InputRejected::`RTTI Base Class Array'
PUBLIC	??_R1A@?0A@EA@InputRejected@?$InputRejecting@VBufferedTransformation@CryptoPP@@@CryptoPP@@8 ; CryptoPP::InputRejecting<CryptoPP::BufferedTransformation>::InputRejected::`RTTI Base Class Descriptor at (0,-1,0,64)'
PUBLIC	??_R0?AVSink@CryptoPP@@@8			; CryptoPP::Sink `RTTI Type Descriptor'
PUBLIC	??_R3Sink@CryptoPP@@8				; CryptoPP::Sink::`RTTI Class Hierarchy Descriptor'
PUBLIC	??_R2Sink@CryptoPP@@8				; CryptoPP::Sink::`RTTI Base Class Array'
PUBLIC	??_R1A@?0A@EA@Sink@CryptoPP@@8			; CryptoPP::Sink::`RTTI Base Class Descriptor at (0,-1,0,64)'
PUBLIC	??_R0?AV?$Bufferless@VSink@CryptoPP@@@CryptoPP@@@8 ; CryptoPP::Bufferless<CryptoPP::Sink> `RTTI Type Descriptor'
PUBLIC	??_R3?$Bufferless@VSink@CryptoPP@@@CryptoPP@@8	; CryptoPP::Bufferless<CryptoPP::Sink>::`RTTI Class Hierarchy Descriptor'
PUBLIC	??_R2?$Bufferless@VSink@CryptoPP@@@CryptoPP@@8	; CryptoPP::Bufferless<CryptoPP::Sink>::`RTTI Base Class Array'
PUBLIC	??_R1A@?0A@EA@?$Bufferless@VSink@CryptoPP@@@CryptoPP@@8 ; CryptoPP::Bufferless<CryptoPP::Sink>::`RTTI Base Class Descriptor at (0,-1,0,64)'
PUBLIC	??_R0?AVBase@Camellia@CryptoPP@@@8		; CryptoPP::Camellia::Base `RTTI Type Descriptor'
PUBLIC	??_R3Base@Camellia@CryptoPP@@8			; CryptoPP::Camellia::Base::`RTTI Class Hierarchy Descriptor'
PUBLIC	??_R2Base@Camellia@CryptoPP@@8			; CryptoPP::Camellia::Base::`RTTI Base Class Array'
PUBLIC	??_R1A@?0A@EA@Base@Camellia@CryptoPP@@8		; CryptoPP::Camellia::Base::`RTTI Base Class Descriptor at (0,-1,0,64)'
PUBLIC	??_R1A@?0A@EA@?$BlockCipherImpl@UCamellia_Info@CryptoPP@@VBlockCipher@2@@CryptoPP@@8 ; CryptoPP::BlockCipherImpl<CryptoPP::Camellia_Info,CryptoPP::BlockCipher>::`RTTI Base Class Descriptor at (0,-1,0,64)'
PUBLIC	??_R0?AV?$BlockCipherImpl@UCamellia_Info@CryptoPP@@VBlockCipher@2@@CryptoPP@@@8 ; CryptoPP::BlockCipherImpl<CryptoPP::Camellia_Info,CryptoPP::BlockCipher> `RTTI Type Descriptor'
PUBLIC	??_R3?$BlockCipherImpl@UCamellia_Info@CryptoPP@@VBlockCipher@2@@CryptoPP@@8 ; CryptoPP::BlockCipherImpl<CryptoPP::Camellia_Info,CryptoPP::BlockCipher>::`RTTI Class Hierarchy Descriptor'
PUBLIC	??_R2?$BlockCipherImpl@UCamellia_Info@CryptoPP@@VBlockCipher@2@@CryptoPP@@8 ; CryptoPP::BlockCipherImpl<CryptoPP::Camellia_Info,CryptoPP::BlockCipher>::`RTTI Base Class Array'
PUBLIC	??_R1A@?0A@EA@?$AlgorithmImpl@V?$SimpleKeyingInterfaceImpl@V?$TwoBases@VBlockCipher@CryptoPP@@UCamellia_Info@2@@CryptoPP@@V12@@CryptoPP@@V12@@CryptoPP@@8 ; CryptoPP::AlgorithmImpl<CryptoPP::SimpleKeyingInterfaceImpl<CryptoPP::TwoBases<CryptoPP::BlockCipher,CryptoPP::Camellia_Info>,CryptoPP::TwoBases<CryptoPP::BlockCipher,CryptoPP::Camellia_Info> >,CryptoPP::SimpleKeyingInterfaceImpl<CryptoPP::TwoBases<CryptoPP::BlockCipher,CryptoPP::Camellia_Info>,CryptoPP::TwoBases<CryptoPP::BlockCipher,CryptoPP::Camellia_Info> > >::`RTTI Base Class Descriptor at (0,-1,0,64)'
PUBLIC	??_R0?AV?$AlgorithmImpl@V?$SimpleKeyingInterfaceImpl@V?$TwoBases@VBlockCipher@CryptoPP@@UCamellia_Info@2@@CryptoPP@@V12@@CryptoPP@@V12@@CryptoPP@@@8 ; CryptoPP::AlgorithmImpl<CryptoPP::SimpleKeyingInterfaceImpl<CryptoPP::TwoBases<CryptoPP::BlockCipher,CryptoPP::Camellia_Info>,CryptoPP::TwoBases<CryptoPP::BlockCipher,CryptoPP::Camellia_Info> >,CryptoPP::SimpleKeyingInterfaceImpl<CryptoPP::TwoBases<CryptoPP::BlockCipher,CryptoPP::Camellia_Info>,CryptoPP::TwoBases<CryptoPP::BlockCipher,CryptoPP::Camellia_Info> > > `RTTI Type Descriptor'
PUBLIC	??_R3?$AlgorithmImpl@V?$SimpleKeyingInterfaceImpl@V?$TwoBases@VBlockCipher@CryptoPP@@UCamellia_Info@2@@CryptoPP@@V12@@CryptoPP@@V12@@CryptoPP@@8 ; CryptoPP::AlgorithmImpl<CryptoPP::SimpleKeyingInterfaceImpl<CryptoPP::TwoBases<CryptoPP::BlockCipher,CryptoPP::Camellia_Info>,CryptoPP::TwoBases<CryptoPP::BlockCipher,CryptoPP::Camellia_Info> >,CryptoPP::SimpleKeyingInterfaceImpl<CryptoPP::TwoBases<CryptoPP::BlockCipher,CryptoPP::Camellia_Info>,CryptoPP::TwoBases<CryptoPP::BlockCipher,CryptoPP::Camellia_Info> > >::`RTTI Class Hierarchy Descriptor'
PUBLIC	??_R2?$AlgorithmImpl@V?$SimpleKeyingInterfaceImpl@V?$TwoBases@VBlockCipher@CryptoPP@@UCamellia_Info@2@@CryptoPP@@V12@@CryptoPP@@V12@@CryptoPP@@8 ; CryptoPP::AlgorithmImpl<CryptoPP::SimpleKeyingInterfaceImpl<CryptoPP::TwoBases<CryptoPP::BlockCipher,CryptoPP::Camellia_Info>,CryptoPP::TwoBases<CryptoPP::BlockCipher,CryptoPP::Camellia_Info> >,CryptoPP::SimpleKeyingInterfaceImpl<CryptoPP::TwoBases<CryptoPP::BlockCipher,CryptoPP::Camellia_Info>,CryptoPP::TwoBases<CryptoPP::BlockCipher,CryptoPP::Camellia_Info> > >::`RTTI Base Class Array'
PUBLIC	??_R1A@?0A@EA@?$SimpleKeyingInterfaceImpl@V?$TwoBases@VBlockCipher@CryptoPP@@UCamellia_Info@2@@CryptoPP@@V12@@CryptoPP@@8 ; CryptoPP::SimpleKeyingInterfaceImpl<CryptoPP::TwoBases<CryptoPP::BlockCipher,CryptoPP::Camellia_Info>,CryptoPP::TwoBases<CryptoPP::BlockCipher,CryptoPP::Camellia_Info> >::`RTTI Base Class Descriptor at (0,-1,0,64)'
PUBLIC	??_R0?AV?$SimpleKeyingInterfaceImpl@V?$TwoBases@VBlockCipher@CryptoPP@@UCamellia_Info@2@@CryptoPP@@V12@@CryptoPP@@@8 ; CryptoPP::SimpleKeyingInterfaceImpl<CryptoPP::TwoBases<CryptoPP::BlockCipher,CryptoPP::Camellia_Info>,CryptoPP::TwoBases<CryptoPP::BlockCipher,CryptoPP::Camellia_Info> > `RTTI Type Descriptor'
PUBLIC	??_R3?$SimpleKeyingInterfaceImpl@V?$TwoBases@VBlockCipher@CryptoPP@@UCamellia_Info@2@@CryptoPP@@V12@@CryptoPP@@8 ; CryptoPP::SimpleKeyingInterfaceImpl<CryptoPP::TwoBases<CryptoPP::BlockCipher,CryptoPP::Camellia_Info>,CryptoPP::TwoBases<CryptoPP::BlockCipher,CryptoPP::Camellia_Info> >::`RTTI Class Hierarchy Descriptor'
PUBLIC	??_R2?$SimpleKeyingInterfaceImpl@V?$TwoBases@VBlockCipher@CryptoPP@@UCamellia_Info@2@@CryptoPP@@V12@@CryptoPP@@8 ; CryptoPP::SimpleKeyingInterfaceImpl<CryptoPP::TwoBases<CryptoPP::BlockCipher,CryptoPP::Camellia_Info>,CryptoPP::TwoBases<CryptoPP::BlockCipher,CryptoPP::Camellia_Info> >::`RTTI Base Class Array'
PUBLIC	??_R1A@?0A@EA@?$TwoBases@VBlockCipher@CryptoPP@@UCamellia_Info@2@@CryptoPP@@8 ; CryptoPP::TwoBases<CryptoPP::BlockCipher,CryptoPP::Camellia_Info>::`RTTI Base Class Descriptor at (0,-1,0,64)'
PUBLIC	??_R0?AV?$TwoBases@VBlockCipher@CryptoPP@@UCamellia_Info@2@@CryptoPP@@@8 ; CryptoPP::TwoBases<CryptoPP::BlockCipher,CryptoPP::Camellia_Info> `RTTI Type Descriptor'
PUBLIC	??_R3?$TwoBases@VBlockCipher@CryptoPP@@UCamellia_Info@2@@CryptoPP@@8 ; CryptoPP::TwoBases<CryptoPP::BlockCipher,CryptoPP::Camellia_Info>::`RTTI Class Hierarchy Descriptor'
PUBLIC	??_R2?$TwoBases@VBlockCipher@CryptoPP@@UCamellia_Info@2@@CryptoPP@@8 ; CryptoPP::TwoBases<CryptoPP::BlockCipher,CryptoPP::Camellia_Info>::`RTTI Base Class Array'
PUBLIC	??_R1M@?0A@EA@Camellia_Info@CryptoPP@@8		; CryptoPP::Camellia_Info::`RTTI Base Class Descriptor at (12,-1,0,64)'
PUBLIC	??_R0?AUCamellia_Info@CryptoPP@@@8		; CryptoPP::Camellia_Info `RTTI Type Descriptor'
PUBLIC	??_R3Camellia_Info@CryptoPP@@8			; CryptoPP::Camellia_Info::`RTTI Class Hierarchy Descriptor'
PUBLIC	??_R2Camellia_Info@CryptoPP@@8			; CryptoPP::Camellia_Info::`RTTI Base Class Array'
PUBLIC	??_R1A@?0A@EA@Camellia_Info@CryptoPP@@8		; CryptoPP::Camellia_Info::`RTTI Base Class Descriptor at (0,-1,0,64)'
PUBLIC	??_R1A@?0A@EA@?$FixedBlockSize@$0BA@@CryptoPP@@8 ; CryptoPP::FixedBlockSize<16>::`RTTI Base Class Descriptor at (0,-1,0,64)'
PUBLIC	??_R0?AV?$FixedBlockSize@$0BA@@CryptoPP@@@8	; CryptoPP::FixedBlockSize<16> `RTTI Type Descriptor'
PUBLIC	??_R3?$FixedBlockSize@$0BA@@CryptoPP@@8		; CryptoPP::FixedBlockSize<16>::`RTTI Class Hierarchy Descriptor'
PUBLIC	??_R2?$FixedBlockSize@$0BA@@CryptoPP@@8		; CryptoPP::FixedBlockSize<16>::`RTTI Base Class Array'
PUBLIC	??_R10?0A@EA@?$VariableKeyLength@$0BA@$0BA@$0CA@$07$03$0A@@CryptoPP@@8 ; CryptoPP::VariableKeyLength<16,16,32,8,4,0>::`RTTI Base Class Descriptor at (1,-1,0,64)'
PUBLIC	??_R0?AV?$VariableKeyLength@$0BA@$0BA@$0CA@$07$03$0A@@CryptoPP@@@8 ; CryptoPP::VariableKeyLength<16,16,32,8,4,0> `RTTI Type Descriptor'
PUBLIC	??_R3?$VariableKeyLength@$0BA@$0BA@$0CA@$07$03$0A@@CryptoPP@@8 ; CryptoPP::VariableKeyLength<16,16,32,8,4,0>::`RTTI Class Hierarchy Descriptor'
PUBLIC	??_R2?$VariableKeyLength@$0BA@$0BA@$0CA@$07$03$0A@@CryptoPP@@8 ; CryptoPP::VariableKeyLength<16,16,32,8,4,0>::`RTTI Base Class Array'
PUBLIC	??_R1A@?0A@EA@?$VariableKeyLength@$0BA@$0BA@$0CA@$07$03$0A@@CryptoPP@@8 ; CryptoPP::VariableKeyLength<16,16,32,8,4,0>::`RTTI Base Class Descriptor at (0,-1,0,64)'
PUBLIC	??_R1M@?0A@EA@?$FixedBlockSize@$0BA@@CryptoPP@@8 ; CryptoPP::FixedBlockSize<16>::`RTTI Base Class Descriptor at (12,-1,0,64)'
PUBLIC	??_R1N@?0A@EA@?$VariableKeyLength@$0BA@$0BA@$0CA@$07$03$0A@@CryptoPP@@8 ; CryptoPP::VariableKeyLength<16,16,32,8,4,0>::`RTTI Base Class Descriptor at (13,-1,0,64)'
PUBLIC	??_R4?$BlockCipherFinal@$0A@VBase@Camellia@CryptoPP@@@CryptoPP@@6BSimpleKeyingInterface@1@@ ; CryptoPP::BlockCipherFinal<0,CryptoPP::Camellia::Base>::`RTTI Complete Object Locator'
PUBLIC	??_R0?AV?$BlockCipherFinal@$0A@VBase@Camellia@CryptoPP@@@CryptoPP@@@8 ; CryptoPP::BlockCipherFinal<0,CryptoPP::Camellia::Base> `RTTI Type Descriptor'
PUBLIC	??_R3?$BlockCipherFinal@$0A@VBase@Camellia@CryptoPP@@@CryptoPP@@8 ; CryptoPP::BlockCipherFinal<0,CryptoPP::Camellia::Base>::`RTTI Class Hierarchy Descriptor'
PUBLIC	??_R2?$BlockCipherFinal@$0A@VBase@Camellia@CryptoPP@@@CryptoPP@@8 ; CryptoPP::BlockCipherFinal<0,CryptoPP::Camellia::Base>::`RTTI Base Class Array'
PUBLIC	??_R1A@?0A@EA@?$BlockCipherFinal@$0A@VBase@Camellia@CryptoPP@@@CryptoPP@@8 ; CryptoPP::BlockCipherFinal<0,CryptoPP::Camellia::Base>::`RTTI Base Class Descriptor at (0,-1,0,64)'
PUBLIC	??_R1A@?0A@EA@?$ClonableImpl@V?$BlockCipherFinal@$0A@VBase@Camellia@CryptoPP@@@CryptoPP@@VBase@Camellia@2@@CryptoPP@@8 ; CryptoPP::ClonableImpl<CryptoPP::BlockCipherFinal<0,CryptoPP::Camellia::Base>,CryptoPP::Camellia::Base>::`RTTI Base Class Descriptor at (0,-1,0,64)'
PUBLIC	??_R0?AV?$ClonableImpl@V?$BlockCipherFinal@$0A@VBase@Camellia@CryptoPP@@@CryptoPP@@VBase@Camellia@2@@CryptoPP@@@8 ; CryptoPP::ClonableImpl<CryptoPP::BlockCipherFinal<0,CryptoPP::Camellia::Base>,CryptoPP::Camellia::Base> `RTTI Type Descriptor'
PUBLIC	??_R3?$ClonableImpl@V?$BlockCipherFinal@$0A@VBase@Camellia@CryptoPP@@@CryptoPP@@VBase@Camellia@2@@CryptoPP@@8 ; CryptoPP::ClonableImpl<CryptoPP::BlockCipherFinal<0,CryptoPP::Camellia::Base>,CryptoPP::Camellia::Base>::`RTTI Class Hierarchy Descriptor'
PUBLIC	??_R2?$ClonableImpl@V?$BlockCipherFinal@$0A@VBase@Camellia@CryptoPP@@@CryptoPP@@VBase@Camellia@2@@CryptoPP@@8 ; CryptoPP::ClonableImpl<CryptoPP::BlockCipherFinal<0,CryptoPP::Camellia::Base>,CryptoPP::Camellia::Base>::`RTTI Base Class Array'
PUBLIC	??_R4?$BlockCipherFinal@$0A@VBase@Camellia@CryptoPP@@@CryptoPP@@6BBlockTransformation@1@@ ; CryptoPP::BlockCipherFinal<0,CryptoPP::Camellia::Base>::`RTTI Complete Object Locator'
PUBLIC	??_R0?AVBase@Twofish@CryptoPP@@@8		; CryptoPP::Twofish::Base `RTTI Type Descriptor'
PUBLIC	??_R3Base@Twofish@CryptoPP@@8			; CryptoPP::Twofish::Base::`RTTI Class Hierarchy Descriptor'
PUBLIC	??_R2Base@Twofish@CryptoPP@@8			; CryptoPP::Twofish::Base::`RTTI Base Class Array'
PUBLIC	??_R1A@?0A@EA@Base@Twofish@CryptoPP@@8		; CryptoPP::Twofish::Base::`RTTI Base Class Descriptor at (0,-1,0,64)'
PUBLIC	??_R1A@?0A@EA@?$BlockCipherImpl@UTwofish_Info@CryptoPP@@VBlockCipher@2@@CryptoPP@@8 ; CryptoPP::BlockCipherImpl<CryptoPP::Twofish_Info,CryptoPP::BlockCipher>::`RTTI Base Class Descriptor at (0,-1,0,64)'
PUBLIC	??_R0?AV?$BlockCipherImpl@UTwofish_Info@CryptoPP@@VBlockCipher@2@@CryptoPP@@@8 ; CryptoPP::BlockCipherImpl<CryptoPP::Twofish_Info,CryptoPP::BlockCipher> `RTTI Type Descriptor'
PUBLIC	??_R3?$BlockCipherImpl@UTwofish_Info@CryptoPP@@VBlockCipher@2@@CryptoPP@@8 ; CryptoPP::BlockCipherImpl<CryptoPP::Twofish_Info,CryptoPP::BlockCipher>::`RTTI Class Hierarchy Descriptor'
PUBLIC	??_R2?$BlockCipherImpl@UTwofish_Info@CryptoPP@@VBlockCipher@2@@CryptoPP@@8 ; CryptoPP::BlockCipherImpl<CryptoPP::Twofish_Info,CryptoPP::BlockCipher>::`RTTI Base Class Array'
PUBLIC	??_R1A@?0A@EA@?$AlgorithmImpl@V?$SimpleKeyingInterfaceImpl@V?$TwoBases@VBlockCipher@CryptoPP@@UTwofish_Info@2@@CryptoPP@@V12@@CryptoPP@@V12@@CryptoPP@@8 ; CryptoPP::AlgorithmImpl<CryptoPP::SimpleKeyingInterfaceImpl<CryptoPP::TwoBases<CryptoPP::BlockCipher,CryptoPP::Twofish_Info>,CryptoPP::TwoBases<CryptoPP::BlockCipher,CryptoPP::Twofish_Info> >,CryptoPP::SimpleKeyingInterfaceImpl<CryptoPP::TwoBases<CryptoPP::BlockCipher,CryptoPP::Twofish_Info>,CryptoPP::TwoBases<CryptoPP::BlockCipher,CryptoPP::Twofish_Info> > >::`RTTI Base Class Descriptor at (0,-1,0,64)'
PUBLIC	??_R0?AV?$AlgorithmImpl@V?$SimpleKeyingInterfaceImpl@V?$TwoBases@VBlockCipher@CryptoPP@@UTwofish_Info@2@@CryptoPP@@V12@@CryptoPP@@V12@@CryptoPP@@@8 ; CryptoPP::AlgorithmImpl<CryptoPP::SimpleKeyingInterfaceImpl<CryptoPP::TwoBases<CryptoPP::BlockCipher,CryptoPP::Twofish_Info>,CryptoPP::TwoBases<CryptoPP::BlockCipher,CryptoPP::Twofish_Info> >,CryptoPP::SimpleKeyingInterfaceImpl<CryptoPP::TwoBases<CryptoPP::BlockCipher,CryptoPP::Twofish_Info>,CryptoPP::TwoBases<CryptoPP::BlockCipher,CryptoPP::Twofish_Info> > > `RTTI Type Descriptor'
PUBLIC	??_R3?$AlgorithmImpl@V?$SimpleKeyingInterfaceImpl@V?$TwoBases@VBlockCipher@CryptoPP@@UTwofish_Info@2@@CryptoPP@@V12@@CryptoPP@@V12@@CryptoPP@@8 ; CryptoPP::AlgorithmImpl<CryptoPP::SimpleKeyingInterfaceImpl<CryptoPP::TwoBases<CryptoPP::BlockCipher,CryptoPP::Twofish_Info>,CryptoPP::TwoBases<CryptoPP::BlockCipher,CryptoPP::Twofish_Info> >,CryptoPP::SimpleKeyingInterfaceImpl<CryptoPP::TwoBases<CryptoPP::BlockCipher,CryptoPP::Twofish_Info>,CryptoPP::TwoBases<CryptoPP::BlockCipher,CryptoPP::Twofish_Info> > >::`RTTI Class Hierarchy Descriptor'
PUBLIC	??_R2?$AlgorithmImpl@V?$SimpleKeyingInterfaceImpl@V?$TwoBases@VBlockCipher@CryptoPP@@UTwofish_Info@2@@CryptoPP@@V12@@CryptoPP@@V12@@CryptoPP@@8 ; CryptoPP::AlgorithmImpl<CryptoPP::SimpleKeyingInterfaceImpl<CryptoPP::TwoBases<CryptoPP::BlockCipher,CryptoPP::Twofish_Info>,CryptoPP::TwoBases<CryptoPP::BlockCipher,CryptoPP::Twofish_Info> >,CryptoPP::SimpleKeyingInterfaceImpl<CryptoPP::TwoBases<CryptoPP::BlockCipher,CryptoPP::Twofish_Info>,CryptoPP::TwoBases<CryptoPP::BlockCipher,CryptoPP::Twofish_Info> > >::`RTTI Base Class Array'
PUBLIC	??_R1A@?0A@EA@?$SimpleKeyingInterfaceImpl@V?$TwoBases@VBlockCipher@CryptoPP@@UTwofish_Info@2@@CryptoPP@@V12@@CryptoPP@@8 ; CryptoPP::SimpleKeyingInterfaceImpl<CryptoPP::TwoBases<CryptoPP::BlockCipher,CryptoPP::Twofish_Info>,CryptoPP::TwoBases<CryptoPP::BlockCipher,CryptoPP::Twofish_Info> >::`RTTI Base Class Descriptor at (0,-1,0,64)'
PUBLIC	??_R0?AV?$SimpleKeyingInterfaceImpl@V?$TwoBases@VBlockCipher@CryptoPP@@UTwofish_Info@2@@CryptoPP@@V12@@CryptoPP@@@8 ; CryptoPP::SimpleKeyingInterfaceImpl<CryptoPP::TwoBases<CryptoPP::BlockCipher,CryptoPP::Twofish_Info>,CryptoPP::TwoBases<CryptoPP::BlockCipher,CryptoPP::Twofish_Info> > `RTTI Type Descriptor'
PUBLIC	??_R3?$SimpleKeyingInterfaceImpl@V?$TwoBases@VBlockCipher@CryptoPP@@UTwofish_Info@2@@CryptoPP@@V12@@CryptoPP@@8 ; CryptoPP::SimpleKeyingInterfaceImpl<CryptoPP::TwoBases<CryptoPP::BlockCipher,CryptoPP::Twofish_Info>,CryptoPP::TwoBases<CryptoPP::BlockCipher,CryptoPP::Twofish_Info> >::`RTTI Class Hierarchy Descriptor'
PUBLIC	??_R2?$SimpleKeyingInterfaceImpl@V?$TwoBases@VBlockCipher@CryptoPP@@UTwofish_Info@2@@CryptoPP@@V12@@CryptoPP@@8 ; CryptoPP::SimpleKeyingInterfaceImpl<CryptoPP::TwoBases<CryptoPP::BlockCipher,CryptoPP::Twofish_Info>,CryptoPP::TwoBases<CryptoPP::BlockCipher,CryptoPP::Twofish_Info> >::`RTTI Base Class Array'
PUBLIC	??_R1A@?0A@EA@?$TwoBases@VBlockCipher@CryptoPP@@UTwofish_Info@2@@CryptoPP@@8 ; CryptoPP::TwoBases<CryptoPP::BlockCipher,CryptoPP::Twofish_Info>::`RTTI Base Class Descriptor at (0,-1,0,64)'
PUBLIC	??_R0?AV?$TwoBases@VBlockCipher@CryptoPP@@UTwofish_Info@2@@CryptoPP@@@8 ; CryptoPP::TwoBases<CryptoPP::BlockCipher,CryptoPP::Twofish_Info> `RTTI Type Descriptor'
PUBLIC	??_R3?$TwoBases@VBlockCipher@CryptoPP@@UTwofish_Info@2@@CryptoPP@@8 ; CryptoPP::TwoBases<CryptoPP::BlockCipher,CryptoPP::Twofish_Info>::`RTTI Class Hierarchy Descriptor'
PUBLIC	??_R2?$TwoBases@VBlockCipher@CryptoPP@@UTwofish_Info@2@@CryptoPP@@8 ; CryptoPP::TwoBases<CryptoPP::BlockCipher,CryptoPP::Twofish_Info>::`RTTI Base Class Array'
PUBLIC	??_R1M@?0A@EA@Twofish_Info@CryptoPP@@8		; CryptoPP::Twofish_Info::`RTTI Base Class Descriptor at (12,-1,0,64)'
PUBLIC	??_R0?AUTwofish_Info@CryptoPP@@@8		; CryptoPP::Twofish_Info `RTTI Type Descriptor'
PUBLIC	??_R3Twofish_Info@CryptoPP@@8			; CryptoPP::Twofish_Info::`RTTI Class Hierarchy Descriptor'
PUBLIC	??_R2Twofish_Info@CryptoPP@@8			; CryptoPP::Twofish_Info::`RTTI Base Class Array'
PUBLIC	??_R1A@?0A@EA@Twofish_Info@CryptoPP@@8		; CryptoPP::Twofish_Info::`RTTI Base Class Descriptor at (0,-1,0,64)'
PUBLIC	??_R10?0A@EA@?$VariableKeyLength@$0BA@$0A@$0CA@$00$03$0A@@CryptoPP@@8 ; CryptoPP::VariableKeyLength<16,0,32,1,4,0>::`RTTI Base Class Descriptor at (1,-1,0,64)'
PUBLIC	??_R0?AV?$VariableKeyLength@$0BA@$0A@$0CA@$00$03$0A@@CryptoPP@@@8 ; CryptoPP::VariableKeyLength<16,0,32,1,4,0> `RTTI Type Descriptor'
PUBLIC	??_R3?$VariableKeyLength@$0BA@$0A@$0CA@$00$03$0A@@CryptoPP@@8 ; CryptoPP::VariableKeyLength<16,0,32,1,4,0>::`RTTI Class Hierarchy Descriptor'
PUBLIC	??_R2?$VariableKeyLength@$0BA@$0A@$0CA@$00$03$0A@@CryptoPP@@8 ; CryptoPP::VariableKeyLength<16,0,32,1,4,0>::`RTTI Base Class Array'
PUBLIC	??_R1A@?0A@EA@?$VariableKeyLength@$0BA@$0A@$0CA@$00$03$0A@@CryptoPP@@8 ; CryptoPP::VariableKeyLength<16,0,32,1,4,0>::`RTTI Base Class Descriptor at (0,-1,0,64)'
PUBLIC	??_R11?0A@EA@?$FixedRounds@$0BA@@CryptoPP@@8	; CryptoPP::FixedRounds<16>::`RTTI Base Class Descriptor at (2,-1,0,64)'
PUBLIC	??_R0?AV?$FixedRounds@$0BA@@CryptoPP@@@8	; CryptoPP::FixedRounds<16> `RTTI Type Descriptor'
PUBLIC	??_R3?$FixedRounds@$0BA@@CryptoPP@@8		; CryptoPP::FixedRounds<16>::`RTTI Class Hierarchy Descriptor'
PUBLIC	??_R2?$FixedRounds@$0BA@@CryptoPP@@8		; CryptoPP::FixedRounds<16>::`RTTI Base Class Array'
PUBLIC	??_R1A@?0A@EA@?$FixedRounds@$0BA@@CryptoPP@@8	; CryptoPP::FixedRounds<16>::`RTTI Base Class Descriptor at (0,-1,0,64)'
PUBLIC	??_R1N@?0A@EA@?$VariableKeyLength@$0BA@$0A@$0CA@$00$03$0A@@CryptoPP@@8 ; CryptoPP::VariableKeyLength<16,0,32,1,4,0>::`RTTI Base Class Descriptor at (13,-1,0,64)'
PUBLIC	??_R1O@?0A@EA@?$FixedRounds@$0BA@@CryptoPP@@8	; CryptoPP::FixedRounds<16>::`RTTI Base Class Descriptor at (14,-1,0,64)'
PUBLIC	??_R0?AVEnc@Twofish@CryptoPP@@@8		; CryptoPP::Twofish::Enc `RTTI Type Descriptor'
PUBLIC	??_R3Enc@Twofish@CryptoPP@@8			; CryptoPP::Twofish::Enc::`RTTI Class Hierarchy Descriptor'
PUBLIC	??_R2Enc@Twofish@CryptoPP@@8			; CryptoPP::Twofish::Enc::`RTTI Base Class Array'
PUBLIC	??_R1A@?0A@EA@Enc@Twofish@CryptoPP@@8		; CryptoPP::Twofish::Enc::`RTTI Base Class Descriptor at (0,-1,0,64)'
PUBLIC	??_R4?$BlockCipherFinal@$0A@VEnc@Twofish@CryptoPP@@@CryptoPP@@6BSimpleKeyingInterface@1@@ ; CryptoPP::BlockCipherFinal<0,CryptoPP::Twofish::Enc>::`RTTI Complete Object Locator'
PUBLIC	??_R0?AV?$BlockCipherFinal@$0A@VEnc@Twofish@CryptoPP@@@CryptoPP@@@8 ; CryptoPP::BlockCipherFinal<0,CryptoPP::Twofish::Enc> `RTTI Type Descriptor'
PUBLIC	??_R3?$BlockCipherFinal@$0A@VEnc@Twofish@CryptoPP@@@CryptoPP@@8 ; CryptoPP::BlockCipherFinal<0,CryptoPP::Twofish::Enc>::`RTTI Class Hierarchy Descriptor'
PUBLIC	??_R2?$BlockCipherFinal@$0A@VEnc@Twofish@CryptoPP@@@CryptoPP@@8 ; CryptoPP::BlockCipherFinal<0,CryptoPP::Twofish::Enc>::`RTTI Base Class Array'
PUBLIC	??_R1A@?0A@EA@?$BlockCipherFinal@$0A@VEnc@Twofish@CryptoPP@@@CryptoPP@@8 ; CryptoPP::BlockCipherFinal<0,CryptoPP::Twofish::Enc>::`RTTI Base Class Descriptor at (0,-1,0,64)'
PUBLIC	??_R1A@?0A@EA@?$ClonableImpl@V?$BlockCipherFinal@$0A@VEnc@Twofish@CryptoPP@@@CryptoPP@@VEnc@Twofish@2@@CryptoPP@@8 ; CryptoPP::ClonableImpl<CryptoPP::BlockCipherFinal<0,CryptoPP::Twofish::Enc>,CryptoPP::Twofish::Enc>::`RTTI Base Class Descriptor at (0,-1,0,64)'
PUBLIC	??_R0?AV?$ClonableImpl@V?$BlockCipherFinal@$0A@VEnc@Twofish@CryptoPP@@@CryptoPP@@VEnc@Twofish@2@@CryptoPP@@@8 ; CryptoPP::ClonableImpl<CryptoPP::BlockCipherFinal<0,CryptoPP::Twofish::Enc>,CryptoPP::Twofish::Enc> `RTTI Type Descriptor'
PUBLIC	??_R3?$ClonableImpl@V?$BlockCipherFinal@$0A@VEnc@Twofish@CryptoPP@@@CryptoPP@@VEnc@Twofish@2@@CryptoPP@@8 ; CryptoPP::ClonableImpl<CryptoPP::BlockCipherFinal<0,CryptoPP::Twofish::Enc>,CryptoPP::Twofish::Enc>::`RTTI Class Hierarchy Descriptor'
PUBLIC	??_R2?$ClonableImpl@V?$BlockCipherFinal@$0A@VEnc@Twofish@CryptoPP@@@CryptoPP@@VEnc@Twofish@2@@CryptoPP@@8 ; CryptoPP::ClonableImpl<CryptoPP::BlockCipherFinal<0,CryptoPP::Twofish::Enc>,CryptoPP::Twofish::Enc>::`RTTI Base Class Array'
PUBLIC	??_R4?$BlockCipherFinal@$0A@VEnc@Twofish@CryptoPP@@@CryptoPP@@6BBlockTransformation@1@@ ; CryptoPP::BlockCipherFinal<0,CryptoPP::Twofish::Enc>::`RTTI Complete Object Locator'
PUBLIC	??_R0?AVBase@XTEA@CryptoPP@@@8			; CryptoPP::XTEA::Base `RTTI Type Descriptor'
PUBLIC	??_R3Base@XTEA@CryptoPP@@8			; CryptoPP::XTEA::Base::`RTTI Class Hierarchy Descriptor'
PUBLIC	??_R2Base@XTEA@CryptoPP@@8			; CryptoPP::XTEA::Base::`RTTI Base Class Array'
PUBLIC	??_R1A@?0A@EA@Base@XTEA@CryptoPP@@8		; CryptoPP::XTEA::Base::`RTTI Base Class Descriptor at (0,-1,0,64)'
PUBLIC	??_R1A@?0A@EA@?$BlockCipherImpl@UXTEA_Info@CryptoPP@@VBlockCipher@2@@CryptoPP@@8 ; CryptoPP::BlockCipherImpl<CryptoPP::XTEA_Info,CryptoPP::BlockCipher>::`RTTI Base Class Descriptor at (0,-1,0,64)'
PUBLIC	??_R0?AV?$BlockCipherImpl@UXTEA_Info@CryptoPP@@VBlockCipher@2@@CryptoPP@@@8 ; CryptoPP::BlockCipherImpl<CryptoPP::XTEA_Info,CryptoPP::BlockCipher> `RTTI Type Descriptor'
PUBLIC	??_R3?$BlockCipherImpl@UXTEA_Info@CryptoPP@@VBlockCipher@2@@CryptoPP@@8 ; CryptoPP::BlockCipherImpl<CryptoPP::XTEA_Info,CryptoPP::BlockCipher>::`RTTI Class Hierarchy Descriptor'
PUBLIC	??_R2?$BlockCipherImpl@UXTEA_Info@CryptoPP@@VBlockCipher@2@@CryptoPP@@8 ; CryptoPP::BlockCipherImpl<CryptoPP::XTEA_Info,CryptoPP::BlockCipher>::`RTTI Base Class Array'
PUBLIC	??_R1A@?0A@EA@?$AlgorithmImpl@V?$SimpleKeyingInterfaceImpl@V?$TwoBases@VBlockCipher@CryptoPP@@UXTEA_Info@2@@CryptoPP@@V12@@CryptoPP@@V12@@CryptoPP@@8 ; CryptoPP::AlgorithmImpl<CryptoPP::SimpleKeyingInterfaceImpl<CryptoPP::TwoBases<CryptoPP::BlockCipher,CryptoPP::XTEA_Info>,CryptoPP::TwoBases<CryptoPP::BlockCipher,CryptoPP::XTEA_Info> >,CryptoPP::SimpleKeyingInterfaceImpl<CryptoPP::TwoBases<CryptoPP::BlockCipher,CryptoPP::XTEA_Info>,CryptoPP::TwoBases<CryptoPP::BlockCipher,CryptoPP::XTEA_Info> > >::`RTTI Base Class Descriptor at (0,-1,0,64)'
PUBLIC	??_R0?AV?$AlgorithmImpl@V?$SimpleKeyingInterfaceImpl@V?$TwoBases@VBlockCipher@CryptoPP@@UXTEA_Info@2@@CryptoPP@@V12@@CryptoPP@@V12@@CryptoPP@@@8 ; CryptoPP::AlgorithmImpl<CryptoPP::SimpleKeyingInterfaceImpl<CryptoPP::TwoBases<CryptoPP::BlockCipher,CryptoPP::XTEA_Info>,CryptoPP::TwoBases<CryptoPP::BlockCipher,CryptoPP::XTEA_Info> >,CryptoPP::SimpleKeyingInterfaceImpl<CryptoPP::TwoBases<CryptoPP::BlockCipher,CryptoPP::XTEA_Info>,CryptoPP::TwoBases<CryptoPP::BlockCipher,CryptoPP::XTEA_Info> > > `RTTI Type Descriptor'
PUBLIC	??_R3?$AlgorithmImpl@V?$SimpleKeyingInterfaceImpl@V?$TwoBases@VBlockCipher@CryptoPP@@UXTEA_Info@2@@CryptoPP@@V12@@CryptoPP@@V12@@CryptoPP@@8 ; CryptoPP::AlgorithmImpl<CryptoPP::SimpleKeyingInterfaceImpl<CryptoPP::TwoBases<CryptoPP::BlockCipher,CryptoPP::XTEA_Info>,CryptoPP::TwoBases<CryptoPP::BlockCipher,CryptoPP::XTEA_Info> >,CryptoPP::SimpleKeyingInterfaceImpl<CryptoPP::TwoBases<CryptoPP::BlockCipher,CryptoPP::XTEA_Info>,CryptoPP::TwoBases<CryptoPP::BlockCipher,CryptoPP::XTEA_Info> > >::`RTTI Class Hierarchy Descriptor'
PUBLIC	??_R2?$AlgorithmImpl@V?$SimpleKeyingInterfaceImpl@V?$TwoBases@VBlockCipher@CryptoPP@@UXTEA_Info@2@@CryptoPP@@V12@@CryptoPP@@V12@@CryptoPP@@8 ; CryptoPP::AlgorithmImpl<CryptoPP::SimpleKeyingInterfaceImpl<CryptoPP::TwoBases<CryptoPP::BlockCipher,CryptoPP::XTEA_Info>,CryptoPP::TwoBases<CryptoPP::BlockCipher,CryptoPP::XTEA_Info> >,CryptoPP::SimpleKeyingInterfaceImpl<CryptoPP::TwoBases<CryptoPP::BlockCipher,CryptoPP::XTEA_Info>,CryptoPP::TwoBases<CryptoPP::BlockCipher,CryptoPP::XTEA_Info> > >::`RTTI Base Class Array'
PUBLIC	??_R1A@?0A@EA@?$SimpleKeyingInterfaceImpl@V?$TwoBases@VBlockCipher@CryptoPP@@UXTEA_Info@2@@CryptoPP@@V12@@CryptoPP@@8 ; CryptoPP::SimpleKeyingInterfaceImpl<CryptoPP::TwoBases<CryptoPP::BlockCipher,CryptoPP::XTEA_Info>,CryptoPP::TwoBases<CryptoPP::BlockCipher,CryptoPP::XTEA_Info> >::`RTTI Base Class Descriptor at (0,-1,0,64)'
PUBLIC	??_R0?AV?$SimpleKeyingInterfaceImpl@V?$TwoBases@VBlockCipher@CryptoPP@@UXTEA_Info@2@@CryptoPP@@V12@@CryptoPP@@@8 ; CryptoPP::SimpleKeyingInterfaceImpl<CryptoPP::TwoBases<CryptoPP::BlockCipher,CryptoPP::XTEA_Info>,CryptoPP::TwoBases<CryptoPP::BlockCipher,CryptoPP::XTEA_Info> > `RTTI Type Descriptor'
PUBLIC	??_R3?$SimpleKeyingInterfaceImpl@V?$TwoBases@VBlockCipher@CryptoPP@@UXTEA_Info@2@@CryptoPP@@V12@@CryptoPP@@8 ; CryptoPP::SimpleKeyingInterfaceImpl<CryptoPP::TwoBases<CryptoPP::BlockCipher,CryptoPP::XTEA_Info>,CryptoPP::TwoBases<CryptoPP::BlockCipher,CryptoPP::XTEA_Info> >::`RTTI Class Hierarchy Descriptor'
PUBLIC	??_R2?$SimpleKeyingInterfaceImpl@V?$TwoBases@VBlockCipher@CryptoPP@@UXTEA_Info@2@@CryptoPP@@V12@@CryptoPP@@8 ; CryptoPP::SimpleKeyingInterfaceImpl<CryptoPP::TwoBases<CryptoPP::BlockCipher,CryptoPP::XTEA_Info>,CryptoPP::TwoBases<CryptoPP::BlockCipher,CryptoPP::XTEA_Info> >::`RTTI Base Class Array'
PUBLIC	??_R1A@?0A@EA@?$TwoBases@VBlockCipher@CryptoPP@@UXTEA_Info@2@@CryptoPP@@8 ; CryptoPP::TwoBases<CryptoPP::BlockCipher,CryptoPP::XTEA_Info>::`RTTI Base Class Descriptor at (0,-1,0,64)'
PUBLIC	??_R0?AV?$TwoBases@VBlockCipher@CryptoPP@@UXTEA_Info@2@@CryptoPP@@@8 ; CryptoPP::TwoBases<CryptoPP::BlockCipher,CryptoPP::XTEA_Info> `RTTI Type Descriptor'
PUBLIC	??_R3?$TwoBases@VBlockCipher@CryptoPP@@UXTEA_Info@2@@CryptoPP@@8 ; CryptoPP::TwoBases<CryptoPP::BlockCipher,CryptoPP::XTEA_Info>::`RTTI Class Hierarchy Descriptor'
PUBLIC	??_R2?$TwoBases@VBlockCipher@CryptoPP@@UXTEA_Info@2@@CryptoPP@@8 ; CryptoPP::TwoBases<CryptoPP::BlockCipher,CryptoPP::XTEA_Info>::`RTTI Base Class Array'
PUBLIC	??_R1M@?0A@EA@XTEA_Info@CryptoPP@@8		; CryptoPP::XTEA_Info::`RTTI Base Class Descriptor at (12,-1,0,64)'
PUBLIC	??_R0?AUXTEA_Info@CryptoPP@@@8			; CryptoPP::XTEA_Info `RTTI Type Descriptor'
PUBLIC	??_R3XTEA_Info@CryptoPP@@8			; CryptoPP::XTEA_Info::`RTTI Class Hierarchy Descriptor'
PUBLIC	??_R2XTEA_Info@CryptoPP@@8			; CryptoPP::XTEA_Info::`RTTI Base Class Array'
PUBLIC	??_R1A@?0A@EA@XTEA_Info@CryptoPP@@8		; CryptoPP::XTEA_Info::`RTTI Base Class Descriptor at (0,-1,0,64)'
PUBLIC	??_R1A@?0A@EA@?$FixedBlockSize@$07@CryptoPP@@8	; CryptoPP::FixedBlockSize<8>::`RTTI Base Class Descriptor at (0,-1,0,64)'
PUBLIC	??_R0?AV?$FixedBlockSize@$07@CryptoPP@@@8	; CryptoPP::FixedBlockSize<8> `RTTI Type Descriptor'
PUBLIC	??_R3?$FixedBlockSize@$07@CryptoPP@@8		; CryptoPP::FixedBlockSize<8>::`RTTI Class Hierarchy Descriptor'
PUBLIC	??_R2?$FixedBlockSize@$07@CryptoPP@@8		; CryptoPP::FixedBlockSize<8>::`RTTI Base Class Array'
PUBLIC	??_R10?0A@EA@?$FixedKeyLength@$0BA@$03$0A@@CryptoPP@@8 ; CryptoPP::FixedKeyLength<16,4,0>::`RTTI Base Class Descriptor at (1,-1,0,64)'
PUBLIC	??_R0?AV?$FixedKeyLength@$0BA@$03$0A@@CryptoPP@@@8 ; CryptoPP::FixedKeyLength<16,4,0> `RTTI Type Descriptor'
PUBLIC	??_R3?$FixedKeyLength@$0BA@$03$0A@@CryptoPP@@8	; CryptoPP::FixedKeyLength<16,4,0>::`RTTI Class Hierarchy Descriptor'
PUBLIC	??_R2?$FixedKeyLength@$0BA@$03$0A@@CryptoPP@@8	; CryptoPP::FixedKeyLength<16,4,0>::`RTTI Base Class Array'
PUBLIC	??_R1A@?0A@EA@?$FixedKeyLength@$0BA@$03$0A@@CryptoPP@@8 ; CryptoPP::FixedKeyLength<16,4,0>::`RTTI Base Class Descriptor at (0,-1,0,64)'
PUBLIC	??_R11?0A@EA@?$VariableRounds@$0CA@$00$0HPPPPPPP@@CryptoPP@@8 ; CryptoPP::VariableRounds<32,1,2147483647>::`RTTI Base Class Descriptor at (2,-1,0,64)'
PUBLIC	??_R0?AV?$VariableRounds@$0CA@$00$0HPPPPPPP@@CryptoPP@@@8 ; CryptoPP::VariableRounds<32,1,2147483647> `RTTI Type Descriptor'
PUBLIC	??_R3?$VariableRounds@$0CA@$00$0HPPPPPPP@@CryptoPP@@8 ; CryptoPP::VariableRounds<32,1,2147483647>::`RTTI Class Hierarchy Descriptor'
PUBLIC	??_R2?$VariableRounds@$0CA@$00$0HPPPPPPP@@CryptoPP@@8 ; CryptoPP::VariableRounds<32,1,2147483647>::`RTTI Base Class Array'
PUBLIC	??_R1A@?0A@EA@?$VariableRounds@$0CA@$00$0HPPPPPPP@@CryptoPP@@8 ; CryptoPP::VariableRounds<32,1,2147483647>::`RTTI Base Class Descriptor at (0,-1,0,64)'
PUBLIC	??_R1M@?0A@EA@?$FixedBlockSize@$07@CryptoPP@@8	; CryptoPP::FixedBlockSize<8>::`RTTI Base Class Descriptor at (12,-1,0,64)'
PUBLIC	??_R1N@?0A@EA@?$FixedKeyLength@$0BA@$03$0A@@CryptoPP@@8 ; CryptoPP::FixedKeyLength<16,4,0>::`RTTI Base Class Descriptor at (13,-1,0,64)'
PUBLIC	??_R1O@?0A@EA@?$VariableRounds@$0CA@$00$0HPPPPPPP@@CryptoPP@@8 ; CryptoPP::VariableRounds<32,1,2147483647>::`RTTI Base Class Descriptor at (14,-1,0,64)'
PUBLIC	??_R0?AVEnc@XTEA@CryptoPP@@@8			; CryptoPP::XTEA::Enc `RTTI Type Descriptor'
PUBLIC	??_R3Enc@XTEA@CryptoPP@@8			; CryptoPP::XTEA::Enc::`RTTI Class Hierarchy Descriptor'
PUBLIC	??_R2Enc@XTEA@CryptoPP@@8			; CryptoPP::XTEA::Enc::`RTTI Base Class Array'
PUBLIC	??_R1A@?0A@EA@Enc@XTEA@CryptoPP@@8		; CryptoPP::XTEA::Enc::`RTTI Base Class Descriptor at (0,-1,0,64)'
PUBLIC	??_R4?$BlockCipherFinal@$0A@VEnc@XTEA@CryptoPP@@@CryptoPP@@6BSimpleKeyingInterface@1@@ ; CryptoPP::BlockCipherFinal<0,CryptoPP::XTEA::Enc>::`RTTI Complete Object Locator'
PUBLIC	??_R0?AV?$BlockCipherFinal@$0A@VEnc@XTEA@CryptoPP@@@CryptoPP@@@8 ; CryptoPP::BlockCipherFinal<0,CryptoPP::XTEA::Enc> `RTTI Type Descriptor'
PUBLIC	??_R3?$BlockCipherFinal@$0A@VEnc@XTEA@CryptoPP@@@CryptoPP@@8 ; CryptoPP::BlockCipherFinal<0,CryptoPP::XTEA::Enc>::`RTTI Class Hierarchy Descriptor'
PUBLIC	??_R2?$BlockCipherFinal@$0A@VEnc@XTEA@CryptoPP@@@CryptoPP@@8 ; CryptoPP::BlockCipherFinal<0,CryptoPP::XTEA::Enc>::`RTTI Base Class Array'
PUBLIC	??_R1A@?0A@EA@?$BlockCipherFinal@$0A@VEnc@XTEA@CryptoPP@@@CryptoPP@@8 ; CryptoPP::BlockCipherFinal<0,CryptoPP::XTEA::Enc>::`RTTI Base Class Descriptor at (0,-1,0,64)'
PUBLIC	??_R1A@?0A@EA@?$ClonableImpl@V?$BlockCipherFinal@$0A@VEnc@XTEA@CryptoPP@@@CryptoPP@@VEnc@XTEA@2@@CryptoPP@@8 ; CryptoPP::ClonableImpl<CryptoPP::BlockCipherFinal<0,CryptoPP::XTEA::Enc>,CryptoPP::XTEA::Enc>::`RTTI Base Class Descriptor at (0,-1,0,64)'
PUBLIC	??_R0?AV?$ClonableImpl@V?$BlockCipherFinal@$0A@VEnc@XTEA@CryptoPP@@@CryptoPP@@VEnc@XTEA@2@@CryptoPP@@@8 ; CryptoPP::ClonableImpl<CryptoPP::BlockCipherFinal<0,CryptoPP::XTEA::Enc>,CryptoPP::XTEA::Enc> `RTTI Type Descriptor'
PUBLIC	??_R3?$ClonableImpl@V?$BlockCipherFinal@$0A@VEnc@XTEA@CryptoPP@@@CryptoPP@@VEnc@XTEA@2@@CryptoPP@@8 ; CryptoPP::ClonableImpl<CryptoPP::BlockCipherFinal<0,CryptoPP::XTEA::Enc>,CryptoPP::XTEA::Enc>::`RTTI Class Hierarchy Descriptor'
PUBLIC	??_R2?$ClonableImpl@V?$BlockCipherFinal@$0A@VEnc@XTEA@CryptoPP@@@CryptoPP@@VEnc@XTEA@2@@CryptoPP@@8 ; CryptoPP::ClonableImpl<CryptoPP::BlockCipherFinal<0,CryptoPP::XTEA::Enc>,CryptoPP::XTEA::Enc>::`RTTI Base Class Array'
PUBLIC	??_R4?$BlockCipherFinal@$0A@VEnc@XTEA@CryptoPP@@@CryptoPP@@6BBlockTransformation@1@@ ; CryptoPP::BlockCipherFinal<0,CryptoPP::XTEA::Enc>::`RTTI Complete Object Locator'
PUBLIC	??_R0?AUAdditiveCipherAbstractPolicy@CryptoPP@@@8 ; CryptoPP::AdditiveCipherAbstractPolicy `RTTI Type Descriptor'
PUBLIC	??_R3AdditiveCipherAbstractPolicy@CryptoPP@@8	; CryptoPP::AdditiveCipherAbstractPolicy::`RTTI Class Hierarchy Descriptor'
PUBLIC	??_R2AdditiveCipherAbstractPolicy@CryptoPP@@8	; CryptoPP::AdditiveCipherAbstractPolicy::`RTTI Base Class Array'
PUBLIC	??_R1A@?0A@EA@AdditiveCipherAbstractPolicy@CryptoPP@@8 ; CryptoPP::AdditiveCipherAbstractPolicy::`RTTI Base Class Descriptor at (0,-1,0,64)'
PUBLIC	??_R4AlgorithmParametersBase@CryptoPP@@6B@	; CryptoPP::AlgorithmParametersBase::`RTTI Complete Object Locator'
PUBLIC	??_R0?AVAlgorithmParametersBase@CryptoPP@@@8	; CryptoPP::AlgorithmParametersBase `RTTI Type Descriptor'
PUBLIC	??_R3AlgorithmParametersBase@CryptoPP@@8	; CryptoPP::AlgorithmParametersBase::`RTTI Class Hierarchy Descriptor'
PUBLIC	??_R2AlgorithmParametersBase@CryptoPP@@8	; CryptoPP::AlgorithmParametersBase::`RTTI Base Class Array'
PUBLIC	??_R1A@?0A@EA@AlgorithmParametersBase@CryptoPP@@8 ; CryptoPP::AlgorithmParametersBase::`RTTI Base Class Descriptor at (0,-1,0,64)'
PUBLIC	??_R4ParameterNotUsed@AlgorithmParametersBase@CryptoPP@@6B@ ; CryptoPP::AlgorithmParametersBase::ParameterNotUsed::`RTTI Complete Object Locator'
PUBLIC	??_R3ParameterNotUsed@AlgorithmParametersBase@CryptoPP@@8 ; CryptoPP::AlgorithmParametersBase::ParameterNotUsed::`RTTI Class Hierarchy Descriptor'
PUBLIC	??_R2ParameterNotUsed@AlgorithmParametersBase@CryptoPP@@8 ; CryptoPP::AlgorithmParametersBase::ParameterNotUsed::`RTTI Base Class Array'
PUBLIC	??_R1A@?0A@EA@ParameterNotUsed@AlgorithmParametersBase@CryptoPP@@8 ; CryptoPP::AlgorithmParametersBase::ParameterNotUsed::`RTTI Base Class Descriptor at (0,-1,0,64)'
PUBLIC	??_R4?$AlgorithmParametersTemplate@VConstByteArrayParameter@CryptoPP@@@CryptoPP@@6B@ ; CryptoPP::AlgorithmParametersTemplate<CryptoPP::ConstByteArrayParameter>::`RTTI Complete Object Locator'
PUBLIC	??_R0?AV?$AlgorithmParametersTemplate@VConstByteArrayParameter@CryptoPP@@@CryptoPP@@@8 ; CryptoPP::AlgorithmParametersTemplate<CryptoPP::ConstByteArrayParameter> `RTTI Type Descriptor'
PUBLIC	??_R3?$AlgorithmParametersTemplate@VConstByteArrayParameter@CryptoPP@@@CryptoPP@@8 ; CryptoPP::AlgorithmParametersTemplate<CryptoPP::ConstByteArrayParameter>::`RTTI Class Hierarchy Descriptor'
PUBLIC	??_R2?$AlgorithmParametersTemplate@VConstByteArrayParameter@CryptoPP@@@CryptoPP@@8 ; CryptoPP::AlgorithmParametersTemplate<CryptoPP::ConstByteArrayParameter>::`RTTI Base Class Array'
PUBLIC	??_R1A@?0A@EA@?$AlgorithmParametersTemplate@VConstByteArrayParameter@CryptoPP@@@CryptoPP@@8 ; CryptoPP::AlgorithmParametersTemplate<CryptoPP::ConstByteArrayParameter>::`RTTI Base Class Descriptor at (0,-1,0,64)'
PUBLIC	??_R0?AVCipherModeBase@CryptoPP@@@8		; CryptoPP::CipherModeBase `RTTI Type Descriptor'
PUBLIC	??_R3CipherModeBase@CryptoPP@@8			; CryptoPP::CipherModeBase::`RTTI Class Hierarchy Descriptor'
PUBLIC	??_R2CipherModeBase@CryptoPP@@8			; CryptoPP::CipherModeBase::`RTTI Base Class Array'
PUBLIC	??_R1A@?0A@EA@CipherModeBase@CryptoPP@@8	; CryptoPP::CipherModeBase::`RTTI Base Class Descriptor at (0,-1,0,64)'
PUBLIC	??_R0?AV?$ModePolicyCommonTemplate@UAdditiveCipherAbstractPolicy@CryptoPP@@@CryptoPP@@@8 ; CryptoPP::ModePolicyCommonTemplate<CryptoPP::AdditiveCipherAbstractPolicy> `RTTI Type Descriptor'
PUBLIC	??_R3?$ModePolicyCommonTemplate@UAdditiveCipherAbstractPolicy@CryptoPP@@@CryptoPP@@8 ; CryptoPP::ModePolicyCommonTemplate<CryptoPP::AdditiveCipherAbstractPolicy>::`RTTI Class Hierarchy Descriptor'
PUBLIC	??_R2?$ModePolicyCommonTemplate@UAdditiveCipherAbstractPolicy@CryptoPP@@@CryptoPP@@8 ; CryptoPP::ModePolicyCommonTemplate<CryptoPP::AdditiveCipherAbstractPolicy>::`RTTI Base Class Array'
PUBLIC	??_R1A@?0A@EA@?$ModePolicyCommonTemplate@UAdditiveCipherAbstractPolicy@CryptoPP@@@CryptoPP@@8 ; CryptoPP::ModePolicyCommonTemplate<CryptoPP::AdditiveCipherAbstractPolicy>::`RTTI Base Class Descriptor at (0,-1,0,64)'
PUBLIC	??_R1BI@?0A@EA@AdditiveCipherAbstractPolicy@CryptoPP@@8 ; CryptoPP::AdditiveCipherAbstractPolicy::`RTTI Base Class Descriptor at (24,-1,0,64)'
PUBLIC	??_R0?AVCTR_ModePolicy@CryptoPP@@@8		; CryptoPP::CTR_ModePolicy `RTTI Type Descriptor'
PUBLIC	??_R3CTR_ModePolicy@CryptoPP@@8			; CryptoPP::CTR_ModePolicy::`RTTI Class Hierarchy Descriptor'
PUBLIC	??_R2CTR_ModePolicy@CryptoPP@@8			; CryptoPP::CTR_ModePolicy::`RTTI Base Class Array'
PUBLIC	??_R1A@?0A@EA@CTR_ModePolicy@CryptoPP@@8	; CryptoPP::CTR_ModePolicy::`RTTI Base Class Descriptor at (0,-1,0,64)'
PUBLIC	??_R0?AV?$AbstractPolicyHolder@UAdditiveCipherAbstractPolicy@CryptoPP@@VCTR_ModePolicy@2@@CryptoPP@@@8 ; CryptoPP::AbstractPolicyHolder<CryptoPP::AdditiveCipherAbstractPolicy,CryptoPP::CTR_ModePolicy> `RTTI Type Descriptor'
PUBLIC	??_R3?$AbstractPolicyHolder@UAdditiveCipherAbstractPolicy@CryptoPP@@VCTR_ModePolicy@2@@CryptoPP@@8 ; CryptoPP::AbstractPolicyHolder<CryptoPP::AdditiveCipherAbstractPolicy,CryptoPP::CTR_ModePolicy>::`RTTI Class Hierarchy Descriptor'
PUBLIC	??_R2?$AbstractPolicyHolder@UAdditiveCipherAbstractPolicy@CryptoPP@@VCTR_ModePolicy@2@@CryptoPP@@8 ; CryptoPP::AbstractPolicyHolder<CryptoPP::AdditiveCipherAbstractPolicy,CryptoPP::CTR_ModePolicy>::`RTTI Base Class Array'
PUBLIC	??_R1A@?0A@EA@?$AbstractPolicyHolder@UAdditiveCipherAbstractPolicy@CryptoPP@@VCTR_ModePolicy@2@@CryptoPP@@8 ; CryptoPP::AbstractPolicyHolder<CryptoPP::AdditiveCipherAbstractPolicy,CryptoPP::CTR_ModePolicy>::`RTTI Base Class Descriptor at (0,-1,0,64)'
PUBLIC	??_R0?AV?$AdditiveCipherTemplate@V?$AbstractPolicyHolder@UAdditiveCipherAbstractPolicy@CryptoPP@@VCTR_ModePolicy@2@@CryptoPP@@@CryptoPP@@@8 ; CryptoPP::AdditiveCipherTemplate<CryptoPP::AbstractPolicyHolder<CryptoPP::AdditiveCipherAbstractPolicy,CryptoPP::CTR_ModePolicy> > `RTTI Type Descriptor'
PUBLIC	??_R3?$AdditiveCipherTemplate@V?$AbstractPolicyHolder@UAdditiveCipherAbstractPolicy@CryptoPP@@VCTR_ModePolicy@2@@CryptoPP@@@CryptoPP@@8 ; CryptoPP::AdditiveCipherTemplate<CryptoPP::AbstractPolicyHolder<CryptoPP::AdditiveCipherAbstractPolicy,CryptoPP::CTR_ModePolicy> >::`RTTI Class Hierarchy Descriptor'
PUBLIC	??_R2?$AdditiveCipherTemplate@V?$AbstractPolicyHolder@UAdditiveCipherAbstractPolicy@CryptoPP@@VCTR_ModePolicy@2@@CryptoPP@@@CryptoPP@@8 ; CryptoPP::AdditiveCipherTemplate<CryptoPP::AbstractPolicyHolder<CryptoPP::AdditiveCipherAbstractPolicy,CryptoPP::CTR_ModePolicy> >::`RTTI Base Class Array'
PUBLIC	??_R1A@?0A@EA@?$AdditiveCipherTemplate@V?$AbstractPolicyHolder@UAdditiveCipherAbstractPolicy@CryptoPP@@VCTR_ModePolicy@2@@CryptoPP@@@CryptoPP@@8 ; CryptoPP::AdditiveCipherTemplate<CryptoPP::AbstractPolicyHolder<CryptoPP::AdditiveCipherAbstractPolicy,CryptoPP::CTR_ModePolicy> >::`RTTI Base Class Descriptor at (0,-1,0,64)'
PUBLIC	??_R13?0A@EC@Algorithm@CryptoPP@@8		; CryptoPP::Algorithm::`RTTI Base Class Descriptor at (4,-1,0,66)'
PUBLIC	??_R13?0A@EC@Clonable@CryptoPP@@8		; CryptoPP::Clonable::`RTTI Base Class Descriptor at (4,-1,0,66)'
PUBLIC	??_R1CI@?0A@EA@RandomNumberGenerator@CryptoPP@@8 ; CryptoPP::RandomNumberGenerator::`RTTI Base Class Descriptor at (40,-1,0,64)'
PUBLIC	??_R1CI@?0A@EC@Algorithm@CryptoPP@@8		; CryptoPP::Algorithm::`RTTI Base Class Descriptor at (40,-1,0,66)'
PUBLIC	??_R1CI@?0A@EC@Clonable@CryptoPP@@8		; CryptoPP::Clonable::`RTTI Base Class Descriptor at (40,-1,0,66)'
PUBLIC	??_R4?$ConcretePolicyHolder@VEmpty@CryptoPP@@V?$AdditiveCipherTemplate@V?$AbstractPolicyHolder@UAdditiveCipherAbstractPolicy@CryptoPP@@VCTR_ModePolicy@2@@CryptoPP@@@2@UAdditiveCipherAbstractPolicy@2@@CryptoPP@@6BSimpleKeyingInterface@1@@ ; CryptoPP::ConcretePolicyHolder<CryptoPP::Empty,CryptoPP::AdditiveCipherTemplate<CryptoPP::AbstractPolicyHolder<CryptoPP::AdditiveCipherAbstractPolicy,CryptoPP::CTR_ModePolicy> >,CryptoPP::AdditiveCipherAbstractPolicy>::`RTTI Complete Object Locator'
PUBLIC	??_R0?AV?$ConcretePolicyHolder@VEmpty@CryptoPP@@V?$AdditiveCipherTemplate@V?$AbstractPolicyHolder@UAdditiveCipherAbstractPolicy@CryptoPP@@VCTR_ModePolicy@2@@CryptoPP@@@2@UAdditiveCipherAbstractPolicy@2@@CryptoPP@@@8 ; CryptoPP::ConcretePolicyHolder<CryptoPP::Empty,CryptoPP::AdditiveCipherTemplate<CryptoPP::AbstractPolicyHolder<CryptoPP::AdditiveCipherAbstractPolicy,CryptoPP::CTR_ModePolicy> >,CryptoPP::AdditiveCipherAbstractPolicy> `RTTI Type Descriptor'
PUBLIC	??_R3?$ConcretePolicyHolder@VEmpty@CryptoPP@@V?$AdditiveCipherTemplate@V?$AbstractPolicyHolder@UAdditiveCipherAbstractPolicy@CryptoPP@@VCTR_ModePolicy@2@@CryptoPP@@@2@UAdditiveCipherAbstractPolicy@2@@CryptoPP@@8 ; CryptoPP::ConcretePolicyHolder<CryptoPP::Empty,CryptoPP::AdditiveCipherTemplate<CryptoPP::AbstractPolicyHolder<CryptoPP::AdditiveCipherAbstractPolicy,CryptoPP::CTR_ModePolicy> >,CryptoPP::AdditiveCipherAbstractPolicy>::`RTTI Class Hierarchy Descriptor'
PUBLIC	??_R2?$ConcretePolicyHolder@VEmpty@CryptoPP@@V?$AdditiveCipherTemplate@V?$AbstractPolicyHolder@UAdditiveCipherAbstractPolicy@CryptoPP@@VCTR_ModePolicy@2@@CryptoPP@@@2@UAdditiveCipherAbstractPolicy@2@@CryptoPP@@8 ; CryptoPP::ConcretePolicyHolder<CryptoPP::Empty,CryptoPP::AdditiveCipherTemplate<CryptoPP::AbstractPolicyHolder<CryptoPP::AdditiveCipherAbstractPolicy,CryptoPP::CTR_ModePolicy> >,CryptoPP::AdditiveCipherAbstractPolicy>::`RTTI Base Class Array'
PUBLIC	??_R1A@?0A@EA@?$ConcretePolicyHolder@VEmpty@CryptoPP@@V?$AdditiveCipherTemplate@V?$AbstractPolicyHolder@UAdditiveCipherAbstractPolicy@CryptoPP@@VCTR_ModePolicy@2@@CryptoPP@@@2@UAdditiveCipherAbstractPolicy@2@@CryptoPP@@8 ; CryptoPP::ConcretePolicyHolder<CryptoPP::Empty,CryptoPP::AdditiveCipherTemplate<CryptoPP::AbstractPolicyHolder<CryptoPP::AdditiveCipherAbstractPolicy,CryptoPP::CTR_ModePolicy> >,CryptoPP::AdditiveCipherAbstractPolicy>::`RTTI Base Class Descriptor at (0,-1,0,64)'
PUBLIC	??_R1DN@?0A@EN@Empty@CryptoPP@@8		; CryptoPP::Empty::`RTTI Base Class Descriptor at (61,-1,0,77)'
PUBLIC	??_R0?AVEmpty@CryptoPP@@@8			; CryptoPP::Empty `RTTI Type Descriptor'
PUBLIC	??_R3Empty@CryptoPP@@8				; CryptoPP::Empty::`RTTI Class Hierarchy Descriptor'
PUBLIC	??_R2Empty@CryptoPP@@8				; CryptoPP::Empty::`RTTI Base Class Array'
PUBLIC	??_R1A@?0A@EA@Empty@CryptoPP@@8			; CryptoPP::Empty::`RTTI Base Class Descriptor at (0,-1,0,64)'
PUBLIC	??_R4?$ConcretePolicyHolder@VEmpty@CryptoPP@@V?$AdditiveCipherTemplate@V?$AbstractPolicyHolder@UAdditiveCipherAbstractPolicy@CryptoPP@@VCTR_ModePolicy@2@@CryptoPP@@@2@UAdditiveCipherAbstractPolicy@2@@CryptoPP@@6BStreamTransformation@1@@ ; CryptoPP::ConcretePolicyHolder<CryptoPP::Empty,CryptoPP::AdditiveCipherTemplate<CryptoPP::AbstractPolicyHolder<CryptoPP::AdditiveCipherAbstractPolicy,CryptoPP::CTR_ModePolicy> >,CryptoPP::AdditiveCipherAbstractPolicy>::`RTTI Complete Object Locator'
PUBLIC	??_R4?$ConcretePolicyHolder@VEmpty@CryptoPP@@V?$AdditiveCipherTemplate@V?$AbstractPolicyHolder@UAdditiveCipherAbstractPolicy@CryptoPP@@VCTR_ModePolicy@2@@CryptoPP@@@2@UAdditiveCipherAbstractPolicy@2@@CryptoPP@@6B?$AbstractPolicyHolder@UAdditiveCipherAbstractPolicy@CryptoPP@@VCTR_ModePolicy@2@@1@@ ; CryptoPP::ConcretePolicyHolder<CryptoPP::Empty,CryptoPP::AdditiveCipherTemplate<CryptoPP::AbstractPolicyHolder<CryptoPP::AdditiveCipherAbstractPolicy,CryptoPP::CTR_ModePolicy> >,CryptoPP::AdditiveCipherAbstractPolicy>::`RTTI Complete Object Locator'
PUBLIC	??_R4?$ConcretePolicyHolder@VEmpty@CryptoPP@@V?$AdditiveCipherTemplate@V?$AbstractPolicyHolder@UAdditiveCipherAbstractPolicy@CryptoPP@@VCTR_ModePolicy@2@@CryptoPP@@@2@UAdditiveCipherAbstractPolicy@2@@CryptoPP@@6BRandomNumberGenerator@1@@ ; CryptoPP::ConcretePolicyHolder<CryptoPP::Empty,CryptoPP::AdditiveCipherTemplate<CryptoPP::AbstractPolicyHolder<CryptoPP::AdditiveCipherAbstractPolicy,CryptoPP::CTR_ModePolicy> >,CryptoPP::AdditiveCipherAbstractPolicy>::`RTTI Complete Object Locator'
PUBLIC	??_R1A@?0A@EA@Filter@CryptoPP@@8		; CryptoPP::Filter::`RTTI Base Class Descriptor at (0,-1,0,64)'
PUBLIC	??_R0?AVFilter@CryptoPP@@@8			; CryptoPP::Filter `RTTI Type Descriptor'
PUBLIC	??_R3Filter@CryptoPP@@8				; CryptoPP::Filter::`RTTI Class Hierarchy Descriptor'
PUBLIC	??_R2Filter@CryptoPP@@8				; CryptoPP::Filter::`RTTI Base Class Array'
PUBLIC	??_R1M@?0A@EA@NotCopyable@CryptoPP@@8		; CryptoPP::NotCopyable::`RTTI Base Class Descriptor at (12,-1,0,64)'
PUBLIC	??_R0?AVNotCopyable@CryptoPP@@@8		; CryptoPP::NotCopyable `RTTI Type Descriptor'
PUBLIC	??_R3NotCopyable@CryptoPP@@8			; CryptoPP::NotCopyable::`RTTI Class Hierarchy Descriptor'
PUBLIC	??_R2NotCopyable@CryptoPP@@8			; CryptoPP::NotCopyable::`RTTI Base Class Array'
PUBLIC	??_R1A@?0A@EA@NotCopyable@CryptoPP@@8		; CryptoPP::NotCopyable::`RTTI Base Class Descriptor at (0,-1,0,64)'
PUBLIC	??_R4?$StringSinkTemplate@V?$basic_string@DU?$char_traits@D@std@@V?$allocator@D@2@@std@@@CryptoPP@@6BAlgorithm@1@@ ; CryptoPP::StringSinkTemplate<std::basic_string<char,std::char_traits<char>,std::allocator<char> > >::`RTTI Complete Object Locator'
PUBLIC	??_R0?AV?$StringSinkTemplate@V?$basic_string@DU?$char_traits@D@std@@V?$allocator@D@2@@std@@@CryptoPP@@@8 ; CryptoPP::StringSinkTemplate<std::basic_string<char,std::char_traits<char>,std::allocator<char> > > `RTTI Type Descriptor'
PUBLIC	??_R3?$StringSinkTemplate@V?$basic_string@DU?$char_traits@D@std@@V?$allocator@D@2@@std@@@CryptoPP@@8 ; CryptoPP::StringSinkTemplate<std::basic_string<char,std::char_traits<char>,std::allocator<char> > >::`RTTI Class Hierarchy Descriptor'
PUBLIC	??_R2?$StringSinkTemplate@V?$basic_string@DU?$char_traits@D@std@@V?$allocator@D@2@@std@@@CryptoPP@@8 ; CryptoPP::StringSinkTemplate<std::basic_string<char,std::char_traits<char>,std::allocator<char> > >::`RTTI Base Class Array'
PUBLIC	??_R1A@?0A@EA@?$StringSinkTemplate@V?$basic_string@DU?$char_traits@D@std@@V?$allocator@D@2@@std@@@CryptoPP@@8 ; CryptoPP::StringSinkTemplate<std::basic_string<char,std::char_traits<char>,std::allocator<char> > >::`RTTI Base Class Descriptor at (0,-1,0,64)'
PUBLIC	??_R4?$StringSinkTemplate@V?$basic_string@DU?$char_traits@D@std@@V?$allocator@D@2@@std@@@CryptoPP@@6BWaitable@1@@ ; CryptoPP::StringSinkTemplate<std::basic_string<char,std::char_traits<char>,std::allocator<char> > >::`RTTI Complete Object Locator'
PUBLIC	??_R4StringStore@CryptoPP@@6BAlgorithm@1@@	; CryptoPP::StringStore::`RTTI Complete Object Locator'
PUBLIC	??_R0?AVStringStore@CryptoPP@@@8		; CryptoPP::StringStore `RTTI Type Descriptor'
PUBLIC	??_R3StringStore@CryptoPP@@8			; CryptoPP::StringStore::`RTTI Class Hierarchy Descriptor'
PUBLIC	??_R2StringStore@CryptoPP@@8			; CryptoPP::StringStore::`RTTI Base Class Array'
PUBLIC	??_R1A@?0A@EA@StringStore@CryptoPP@@8		; CryptoPP::StringStore::`RTTI Base Class Descriptor at (0,-1,0,64)'
PUBLIC	??_R4StringStore@CryptoPP@@6BWaitable@1@@	; CryptoPP::StringStore::`RTTI Complete Object Locator'
PUBLIC	??_R0?AVSource@CryptoPP@@@8			; CryptoPP::Source `RTTI Type Descriptor'
PUBLIC	??_R3Source@CryptoPP@@8				; CryptoPP::Source::`RTTI Class Hierarchy Descriptor'
PUBLIC	??_R2Source@CryptoPP@@8				; CryptoPP::Source::`RTTI Base Class Array'
PUBLIC	??_R1A@?0A@EA@Source@CryptoPP@@8		; CryptoPP::Source::`RTTI Base Class Descriptor at (0,-1,0,64)'
PUBLIC	??_R1A@?0A@EA@?$InputRejecting@VFilter@CryptoPP@@@CryptoPP@@8 ; CryptoPP::InputRejecting<CryptoPP::Filter>::`RTTI Base Class Descriptor at (0,-1,0,64)'
PUBLIC	??_R0?AV?$InputRejecting@VFilter@CryptoPP@@@CryptoPP@@@8 ; CryptoPP::InputRejecting<CryptoPP::Filter> `RTTI Type Descriptor'
PUBLIC	??_R3?$InputRejecting@VFilter@CryptoPP@@@CryptoPP@@8 ; CryptoPP::InputRejecting<CryptoPP::Filter>::`RTTI Class Hierarchy Descriptor'
PUBLIC	??_R2?$InputRejecting@VFilter@CryptoPP@@@CryptoPP@@8 ; CryptoPP::InputRejecting<CryptoPP::Filter>::`RTTI Base Class Array'
PUBLIC	??_R4InputRejected@?$InputRejecting@VFilter@CryptoPP@@@CryptoPP@@6B@ ; CryptoPP::InputRejecting<CryptoPP::Filter>::InputRejected::`RTTI Complete Object Locator'
PUBLIC	??_R3InputRejected@?$InputRejecting@VFilter@CryptoPP@@@CryptoPP@@8 ; CryptoPP::InputRejecting<CryptoPP::Filter>::InputRejected::`RTTI Class Hierarchy Descriptor'
PUBLIC	??_R2InputRejected@?$InputRejecting@VFilter@CryptoPP@@@CryptoPP@@8 ; CryptoPP::InputRejecting<CryptoPP::Filter>::InputRejected::`RTTI Base Class Array'
PUBLIC	??_R1A@?0A@EA@InputRejected@?$InputRejecting@VFilter@CryptoPP@@@CryptoPP@@8 ; CryptoPP::InputRejecting<CryptoPP::Filter>::InputRejected::`RTTI Base Class Descriptor at (0,-1,0,64)'
PUBLIC	??_R4StringSource@CryptoPP@@6BAlgorithm@1@@	; CryptoPP::StringSource::`RTTI Complete Object Locator'
PUBLIC	??_R0?AVStringSource@CryptoPP@@@8		; CryptoPP::StringSource `RTTI Type Descriptor'
PUBLIC	??_R3StringSource@CryptoPP@@8			; CryptoPP::StringSource::`RTTI Class Hierarchy Descriptor'
PUBLIC	??_R2StringSource@CryptoPP@@8			; CryptoPP::StringSource::`RTTI Base Class Array'
PUBLIC	??_R1A@?0A@EA@StringSource@CryptoPP@@8		; CryptoPP::StringSource::`RTTI Base Class Descriptor at (0,-1,0,64)'
PUBLIC	??_R1A@?0A@EA@?$SourceTemplate@VStringStore@CryptoPP@@@CryptoPP@@8 ; CryptoPP::SourceTemplate<CryptoPP::StringStore>::`RTTI Base Class Descriptor at (0,-1,0,64)'
PUBLIC	??_R0?AV?$SourceTemplate@VStringStore@CryptoPP@@@CryptoPP@@@8 ; CryptoPP::SourceTemplate<CryptoPP::StringStore> `RTTI Type Descriptor'
PUBLIC	??_R3?$SourceTemplate@VStringStore@CryptoPP@@@CryptoPP@@8 ; CryptoPP::SourceTemplate<CryptoPP::StringStore>::`RTTI Class Hierarchy Descriptor'
PUBLIC	??_R2?$SourceTemplate@VStringStore@CryptoPP@@@CryptoPP@@8 ; CryptoPP::SourceTemplate<CryptoPP::StringStore>::`RTTI Base Class Array'
PUBLIC	??_R4StringSource@CryptoPP@@6BWaitable@1@@	; CryptoPP::StringSource::`RTTI Complete Object Locator'
PUBLIC	??_R4?$SourceTemplate@VStringStore@CryptoPP@@@CryptoPP@@6BAlgorithm@1@@ ; CryptoPP::SourceTemplate<CryptoPP::StringStore>::`RTTI Complete Object Locator'
PUBLIC	??_R4?$SourceTemplate@VStringStore@CryptoPP@@@CryptoPP@@6BWaitable@1@@ ; CryptoPP::SourceTemplate<CryptoPP::StringStore>::`RTTI Complete Object Locator'
PUBLIC	??_R4AutoSeededRandomPool@CryptoPP@@6B@		; CryptoPP::AutoSeededRandomPool::`RTTI Complete Object Locator'
PUBLIC	??_R0?AVAutoSeededRandomPool@CryptoPP@@@8	; CryptoPP::AutoSeededRandomPool `RTTI Type Descriptor'
PUBLIC	??_R3AutoSeededRandomPool@CryptoPP@@8		; CryptoPP::AutoSeededRandomPool::`RTTI Class Hierarchy Descriptor'
PUBLIC	??_R2AutoSeededRandomPool@CryptoPP@@8		; CryptoPP::AutoSeededRandomPool::`RTTI Base Class Array'
PUBLIC	??_R1A@?0A@EA@AutoSeededRandomPool@CryptoPP@@8	; CryptoPP::AutoSeededRandomPool::`RTTI Base Class Descriptor at (0,-1,0,64)'
PUBLIC	??_R1A@?0A@EA@RandomPool@CryptoPP@@8		; CryptoPP::RandomPool::`RTTI Base Class Descriptor at (0,-1,0,64)'
PUBLIC	??_R0?AVRandomPool@CryptoPP@@@8			; CryptoPP::RandomPool `RTTI Type Descriptor'
PUBLIC	??_R3RandomPool@CryptoPP@@8			; CryptoPP::RandomPool::`RTTI Class Hierarchy Descriptor'
PUBLIC	??_R2RandomPool@CryptoPP@@8			; CryptoPP::RandomPool::`RTTI Base Class Array'
PUBLIC	??_R13?0A@EA@NotCopyable@CryptoPP@@8		; CryptoPP::NotCopyable::`RTTI Base Class Descriptor at (4,-1,0,64)'
PUBLIC	??_R4?$CipherModeFinalTemplate_CipherHolder@V?$BlockCipherFinal@$0A@VBase@Camellia@CryptoPP@@@CryptoPP@@V?$ConcretePolicyHolder@VEmpty@CryptoPP@@V?$AdditiveCipherTemplate@V?$AbstractPolicyHolder@UAdditiveCipherAbstractPolicy@CryptoPP@@VCTR_ModePolicy@2@@CryptoPP@@@2@UAdditiveCipherAbstractPolicy@2@@2@@CryptoPP@@6BSimpleKeyingInterface@1@@ ; CryptoPP::CipherModeFinalTemplate_CipherHolder<CryptoPP::BlockCipherFinal<0,CryptoPP::Camellia::Base>,CryptoPP::ConcretePolicyHolder<CryptoPP::Empty,CryptoPP::AdditiveCipherTemplate<CryptoPP::AbstractPolicyHolder<CryptoPP::AdditiveCipherAbstractPolicy,CryptoPP::CTR_ModePolicy> >,CryptoPP::AdditiveCipherAbstractPolicy> >::`RTTI Complete Object Locator'
PUBLIC	??_R0?AV?$CipherModeFinalTemplate_CipherHolder@V?$BlockCipherFinal@$0A@VBase@Camellia@CryptoPP@@@CryptoPP@@V?$ConcretePolicyHolder@VEmpty@CryptoPP@@V?$AdditiveCipherTemplate@V?$AbstractPolicyHolder@UAdditiveCipherAbstractPolicy@CryptoPP@@VCTR_ModePolicy@2@@CryptoPP@@@2@UAdditiveCipherAbstractPolicy@2@@2@@CryptoPP@@@8 ; CryptoPP::CipherModeFinalTemplate_CipherHolder<CryptoPP::BlockCipherFinal<0,CryptoPP::Camellia::Base>,CryptoPP::ConcretePolicyHolder<CryptoPP::Empty,CryptoPP::AdditiveCipherTemplate<CryptoPP::AbstractPolicyHolder<CryptoPP::AdditiveCipherAbstractPolicy,CryptoPP::CTR_ModePolicy> >,CryptoPP::AdditiveCipherAbstractPolicy> > `RTTI Type Descriptor'
PUBLIC	??_R3?$CipherModeFinalTemplate_CipherHolder@V?$BlockCipherFinal@$0A@VBase@Camellia@CryptoPP@@@CryptoPP@@V?$ConcretePolicyHolder@VEmpty@CryptoPP@@V?$AdditiveCipherTemplate@V?$AbstractPolicyHolder@UAdditiveCipherAbstractPolicy@CryptoPP@@VCTR_ModePolicy@2@@CryptoPP@@@2@UAdditiveCipherAbstractPolicy@2@@2@@CryptoPP@@8 ; CryptoPP::CipherModeFinalTemplate_CipherHolder<CryptoPP::BlockCipherFinal<0,CryptoPP::Camellia::Base>,CryptoPP::ConcretePolicyHolder<CryptoPP::Empty,CryptoPP::AdditiveCipherTemplate<CryptoPP::AbstractPolicyHolder<CryptoPP::AdditiveCipherAbstractPolicy,CryptoPP::CTR_ModePolicy> >,CryptoPP::AdditiveCipherAbstractPolicy> >::`RTTI Class Hierarchy Descriptor'
PUBLIC	??_R2?$CipherModeFinalTemplate_CipherHolder@V?$BlockCipherFinal@$0A@VBase@Camellia@CryptoPP@@@CryptoPP@@V?$ConcretePolicyHolder@VEmpty@CryptoPP@@V?$AdditiveCipherTemplate@V?$AbstractPolicyHolder@UAdditiveCipherAbstractPolicy@CryptoPP@@VCTR_ModePolicy@2@@CryptoPP@@@2@UAdditiveCipherAbstractPolicy@2@@2@@CryptoPP@@8 ; CryptoPP::CipherModeFinalTemplate_CipherHolder<CryptoPP::BlockCipherFinal<0,CryptoPP::Camellia::Base>,CryptoPP::ConcretePolicyHolder<CryptoPP::Empty,CryptoPP::AdditiveCipherTemplate<CryptoPP::AbstractPolicyHolder<CryptoPP::AdditiveCipherAbstractPolicy,CryptoPP::CTR_ModePolicy> >,CryptoPP::AdditiveCipherAbstractPolicy> >::`RTTI Base Class Array'
PUBLIC	??_R1A@?0A@EA@?$CipherModeFinalTemplate_CipherHolder@V?$BlockCipherFinal@$0A@VBase@Camellia@CryptoPP@@@CryptoPP@@V?$ConcretePolicyHolder@VEmpty@CryptoPP@@V?$AdditiveCipherTemplate@V?$AbstractPolicyHolder@UAdditiveCipherAbstractPolicy@CryptoPP@@VCTR_ModePolicy@2@@CryptoPP@@@2@UAdditiveCipherAbstractPolicy@2@@2@@CryptoPP@@8 ; CryptoPP::CipherModeFinalTemplate_CipherHolder<CryptoPP::BlockCipherFinal<0,CryptoPP::Camellia::Base>,CryptoPP::ConcretePolicyHolder<CryptoPP::Empty,CryptoPP::AdditiveCipherTemplate<CryptoPP::AbstractPolicyHolder<CryptoPP::AdditiveCipherAbstractPolicy,CryptoPP::CTR_ModePolicy> >,CryptoPP::AdditiveCipherAbstractPolicy> >::`RTTI Base Class Descriptor at (0,-1,0,64)'
PUBLIC	??_R1EA@?0A@EN@?$ObjectHolder@V?$BlockCipherFinal@$0A@VBase@Camellia@CryptoPP@@@CryptoPP@@@CryptoPP@@8 ; CryptoPP::ObjectHolder<CryptoPP::BlockCipherFinal<0,CryptoPP::Camellia::Base> >::`RTTI Base Class Descriptor at (64,-1,0,77)'
PUBLIC	??_R0?AV?$ObjectHolder@V?$BlockCipherFinal@$0A@VBase@Camellia@CryptoPP@@@CryptoPP@@@CryptoPP@@@8 ; CryptoPP::ObjectHolder<CryptoPP::BlockCipherFinal<0,CryptoPP::Camellia::Base> > `RTTI Type Descriptor'
PUBLIC	??_R3?$ObjectHolder@V?$BlockCipherFinal@$0A@VBase@Camellia@CryptoPP@@@CryptoPP@@@CryptoPP@@8 ; CryptoPP::ObjectHolder<CryptoPP::BlockCipherFinal<0,CryptoPP::Camellia::Base> >::`RTTI Class Hierarchy Descriptor'
PUBLIC	??_R2?$ObjectHolder@V?$BlockCipherFinal@$0A@VBase@Camellia@CryptoPP@@@CryptoPP@@@CryptoPP@@8 ; CryptoPP::ObjectHolder<CryptoPP::BlockCipherFinal<0,CryptoPP::Camellia::Base> >::`RTTI Base Class Array'
PUBLIC	??_R1A@?0A@EA@?$ObjectHolder@V?$BlockCipherFinal@$0A@VBase@Camellia@CryptoPP@@@CryptoPP@@@CryptoPP@@8 ; CryptoPP::ObjectHolder<CryptoPP::BlockCipherFinal<0,CryptoPP::Camellia::Base> >::`RTTI Base Class Descriptor at (0,-1,0,64)'
PUBLIC	??_R1A@?0A@EA@?$AlgorithmImpl@V?$ConcretePolicyHolder@VEmpty@CryptoPP@@V?$AdditiveCipherTemplate@V?$AbstractPolicyHolder@UAdditiveCipherAbstractPolicy@CryptoPP@@VCTR_ModePolicy@2@@CryptoPP@@@2@UAdditiveCipherAbstractPolicy@2@@CryptoPP@@V?$CipherModeFinalTemplate_CipherHolder@V?$BlockCipherFinal@$0A@VBase@Camellia@CryptoPP@@@CryptoPP@@V?$ConcretePolicyHolder@VEmpty@CryptoPP@@V?$AdditiveCipherTemplate@V?$AbstractPolicyHolder@UAdditiveCipherAbstractPolicy@CryptoPP@@VCTR_ModePolicy@2@@CryptoPP@@@2@UAdditiveCipherAbstractPolicy@2@@2@@2@@CryptoPP@@8 ; CryptoPP::AlgorithmImpl<CryptoPP::ConcretePolicyHolder<CryptoPP::Empty,CryptoPP::AdditiveCipherTemplate<CryptoPP::AbstractPolicyHolder<CryptoPP::AdditiveCipherAbstractPolicy,CryptoPP::CTR_ModePolicy> >,CryptoPP::AdditiveCipherAbstractPolicy>,CryptoPP::CipherModeFinalTemplate_CipherHolder<CryptoPP::BlockCipherFinal<0,CryptoPP::Camellia::Base>,CryptoPP::ConcretePolicyHolder<CryptoPP::Empty,CryptoPP::AdditiveCipherTemplate<CryptoPP::AbstractPolicyHolder<CryptoPP::AdditiveCipherAbstractPolicy,CryptoPP::CTR_ModePolicy> >,CryptoPP::AdditiveCipherAbstractPolicy> > >::`RTTI Base Class Descriptor at (0,-1,0,64)'
PUBLIC	??_R0?AV?$AlgorithmImpl@V?$ConcretePolicyHolder@VEmpty@CryptoPP@@V?$AdditiveCipherTemplate@V?$AbstractPolicyHolder@UAdditiveCipherAbstractPolicy@CryptoPP@@VCTR_ModePolicy@2@@CryptoPP@@@2@UAdditiveCipherAbstractPolicy@2@@CryptoPP@@V?$CipherModeFinalTemplate_CipherHolder@V?$BlockCipherFinal@$0A@VBase@Camellia@CryptoPP@@@CryptoPP@@V?$ConcretePolicyHolder@VEmpty@CryptoPP@@V?$AdditiveCipherTemplate@V?$AbstractPolicyHolder@UAdditiveCipherAbstractPolicy@CryptoPP@@VCTR_ModePolicy@2@@CryptoPP@@@2@UAdditiveCipherAbstractPolicy@2@@2@@2@@CryptoPP@@@8 ; CryptoPP::AlgorithmImpl<CryptoPP::ConcretePolicyHolder<CryptoPP::Empty,CryptoPP::AdditiveCipherTemplate<CryptoPP::AbstractPolicyHolder<CryptoPP::AdditiveCipherAbstractPolicy,CryptoPP::CTR_ModePolicy> >,CryptoPP::AdditiveCipherAbstractPolicy>,CryptoPP::CipherModeFinalTemplate_CipherHolder<CryptoPP::BlockCipherFinal<0,CryptoPP::Camellia::Base>,CryptoPP::ConcretePolicyHolder<CryptoPP::Empty,CryptoPP::AdditiveCipherTemplate<CryptoPP::AbstractPolicyHolder<CryptoPP::AdditiveCipherAbstractPolicy,CryptoPP::CTR_ModePolicy> >,CryptoPP::AdditiveCipherAbstractPolicy> > > `RTTI Type Descriptor'
PUBLIC	??_R3?$AlgorithmImpl@V?$ConcretePolicyHolder@VEmpty@CryptoPP@@V?$AdditiveCipherTemplate@V?$AbstractPolicyHolder@UAdditiveCipherAbstractPolicy@CryptoPP@@VCTR_ModePolicy@2@@CryptoPP@@@2@UAdditiveCipherAbstractPolicy@2@@CryptoPP@@V?$CipherModeFinalTemplate_CipherHolder@V?$BlockCipherFinal@$0A@VBase@Camellia@CryptoPP@@@CryptoPP@@V?$ConcretePolicyHolder@VEmpty@CryptoPP@@V?$AdditiveCipherTemplate@V?$AbstractPolicyHolder@UAdditiveCipherAbstractPolicy@CryptoPP@@VCTR_ModePolicy@2@@CryptoPP@@@2@UAdditiveCipherAbstractPolicy@2@@2@@2@@CryptoPP@@8 ; CryptoPP::AlgorithmImpl<CryptoPP::ConcretePolicyHolder<CryptoPP::Empty,CryptoPP::AdditiveCipherTemplate<CryptoPP::AbstractPolicyHolder<CryptoPP::AdditiveCipherAbstractPolicy,CryptoPP::CTR_ModePolicy> >,CryptoPP::AdditiveCipherAbstractPolicy>,CryptoPP::CipherModeFinalTemplate_CipherHolder<CryptoPP::BlockCipherFinal<0,CryptoPP::Camellia::Base>,CryptoPP::ConcretePolicyHolder<CryptoPP::Empty,CryptoPP::AdditiveCipherTemplate<CryptoPP::AbstractPolicyHolder<CryptoPP::AdditiveCipherAbstractPolicy,CryptoPP::CTR_ModePolicy> >,CryptoPP::AdditiveCipherAbstractPolicy> > >::`RTTI Class Hierarchy Descriptor'
PUBLIC	??_R2?$AlgorithmImpl@V?$ConcretePolicyHolder@VEmpty@CryptoPP@@V?$AdditiveCipherTemplate@V?$AbstractPolicyHolder@UAdditiveCipherAbstractPolicy@CryptoPP@@VCTR_ModePolicy@2@@CryptoPP@@@2@UAdditiveCipherAbstractPolicy@2@@CryptoPP@@V?$CipherModeFinalTemplate_CipherHolder@V?$BlockCipherFinal@$0A@VBase@Camellia@CryptoPP@@@CryptoPP@@V?$ConcretePolicyHolder@VEmpty@CryptoPP@@V?$AdditiveCipherTemplate@V?$AbstractPolicyHolder@UAdditiveCipherAbstractPolicy@CryptoPP@@VCTR_ModePolicy@2@@CryptoPP@@@2@UAdditiveCipherAbstractPolicy@2@@2@@2@@CryptoPP@@8 ; CryptoPP::AlgorithmImpl<CryptoPP::ConcretePolicyHolder<CryptoPP::Empty,CryptoPP::AdditiveCipherTemplate<CryptoPP::AbstractPolicyHolder<CryptoPP::AdditiveCipherAbstractPolicy,CryptoPP::CTR_ModePolicy> >,CryptoPP::AdditiveCipherAbstractPolicy>,CryptoPP::CipherModeFinalTemplate_CipherHolder<CryptoPP::BlockCipherFinal<0,CryptoPP::Camellia::Base>,CryptoPP::ConcretePolicyHolder<CryptoPP::Empty,CryptoPP::AdditiveCipherTemplate<CryptoPP::AbstractPolicyHolder<CryptoPP::AdditiveCipherAbstractPolicy,CryptoPP::CTR_ModePolicy> >,CryptoPP::AdditiveCipherAbstractPolicy> > >::`RTTI Base Class Array'
PUBLIC	??_R4?$CipherModeFinalTemplate_CipherHolder@V?$BlockCipherFinal@$0A@VBase@Camellia@CryptoPP@@@CryptoPP@@V?$ConcretePolicyHolder@VEmpty@CryptoPP@@V?$AdditiveCipherTemplate@V?$AbstractPolicyHolder@UAdditiveCipherAbstractPolicy@CryptoPP@@VCTR_ModePolicy@2@@CryptoPP@@@2@UAdditiveCipherAbstractPolicy@2@@2@@CryptoPP@@6BStreamTransformation@1@@ ; CryptoPP::CipherModeFinalTemplate_CipherHolder<CryptoPP::BlockCipherFinal<0,CryptoPP::Camellia::Base>,CryptoPP::ConcretePolicyHolder<CryptoPP::Empty,CryptoPP::AdditiveCipherTemplate<CryptoPP::AbstractPolicyHolder<CryptoPP::AdditiveCipherAbstractPolicy,CryptoPP::CTR_ModePolicy> >,CryptoPP::AdditiveCipherAbstractPolicy> >::`RTTI Complete Object Locator'
PUBLIC	??_R4?$CipherModeFinalTemplate_CipherHolder@V?$BlockCipherFinal@$0A@VBase@Camellia@CryptoPP@@@CryptoPP@@V?$ConcretePolicyHolder@VEmpty@CryptoPP@@V?$AdditiveCipherTemplate@V?$AbstractPolicyHolder@UAdditiveCipherAbstractPolicy@CryptoPP@@VCTR_ModePolicy@2@@CryptoPP@@@2@UAdditiveCipherAbstractPolicy@2@@2@@CryptoPP@@6B?$AbstractPolicyHolder@UAdditiveCipherAbstractPolicy@CryptoPP@@VCTR_ModePolicy@2@@1@@ ; CryptoPP::CipherModeFinalTemplate_CipherHolder<CryptoPP::BlockCipherFinal<0,CryptoPP::Camellia::Base>,CryptoPP::ConcretePolicyHolder<CryptoPP::Empty,CryptoPP::AdditiveCipherTemplate<CryptoPP::AbstractPolicyHolder<CryptoPP::AdditiveCipherAbstractPolicy,CryptoPP::CTR_ModePolicy> >,CryptoPP::AdditiveCipherAbstractPolicy> >::`RTTI Complete Object Locator'
PUBLIC	??_R4?$CipherModeFinalTemplate_CipherHolder@V?$BlockCipherFinal@$0A@VBase@Camellia@CryptoPP@@@CryptoPP@@V?$ConcretePolicyHolder@VEmpty@CryptoPP@@V?$AdditiveCipherTemplate@V?$AbstractPolicyHolder@UAdditiveCipherAbstractPolicy@CryptoPP@@VCTR_ModePolicy@2@@CryptoPP@@@2@UAdditiveCipherAbstractPolicy@2@@2@@CryptoPP@@6BRandomNumberGenerator@1@@ ; CryptoPP::CipherModeFinalTemplate_CipherHolder<CryptoPP::BlockCipherFinal<0,CryptoPP::Camellia::Base>,CryptoPP::ConcretePolicyHolder<CryptoPP::Empty,CryptoPP::AdditiveCipherTemplate<CryptoPP::AbstractPolicyHolder<CryptoPP::AdditiveCipherAbstractPolicy,CryptoPP::CTR_ModePolicy> >,CryptoPP::AdditiveCipherAbstractPolicy> >::`RTTI Complete Object Locator'
PUBLIC	??_R4?$CipherModeFinalTemplate_CipherHolder@V?$BlockCipherFinal@$0A@VEnc@Twofish@CryptoPP@@@CryptoPP@@V?$ConcretePolicyHolder@VEmpty@CryptoPP@@V?$AdditiveCipherTemplate@V?$AbstractPolicyHolder@UAdditiveCipherAbstractPolicy@CryptoPP@@VCTR_ModePolicy@2@@CryptoPP@@@2@UAdditiveCipherAbstractPolicy@2@@2@@CryptoPP@@6BSimpleKeyingInterface@1@@ ; CryptoPP::CipherModeFinalTemplate_CipherHolder<CryptoPP::BlockCipherFinal<0,CryptoPP::Twofish::Enc>,CryptoPP::ConcretePolicyHolder<CryptoPP::Empty,CryptoPP::AdditiveCipherTemplate<CryptoPP::AbstractPolicyHolder<CryptoPP::AdditiveCipherAbstractPolicy,CryptoPP::CTR_ModePolicy> >,CryptoPP::AdditiveCipherAbstractPolicy> >::`RTTI Complete Object Locator'
PUBLIC	??_R0?AV?$CipherModeFinalTemplate_CipherHolder@V?$BlockCipherFinal@$0A@VEnc@Twofish@CryptoPP@@@CryptoPP@@V?$ConcretePolicyHolder@VEmpty@CryptoPP@@V?$AdditiveCipherTemplate@V?$AbstractPolicyHolder@UAdditiveCipherAbstractPolicy@CryptoPP@@VCTR_ModePolicy@2@@CryptoPP@@@2@UAdditiveCipherAbstractPolicy@2@@2@@CryptoPP@@@8 ; CryptoPP::CipherModeFinalTemplate_CipherHolder<CryptoPP::BlockCipherFinal<0,CryptoPP::Twofish::Enc>,CryptoPP::ConcretePolicyHolder<CryptoPP::Empty,CryptoPP::AdditiveCipherTemplate<CryptoPP::AbstractPolicyHolder<CryptoPP::AdditiveCipherAbstractPolicy,CryptoPP::CTR_ModePolicy> >,CryptoPP::AdditiveCipherAbstractPolicy> > `RTTI Type Descriptor'
PUBLIC	??_R3?$CipherModeFinalTemplate_CipherHolder@V?$BlockCipherFinal@$0A@VEnc@Twofish@CryptoPP@@@CryptoPP@@V?$ConcretePolicyHolder@VEmpty@CryptoPP@@V?$AdditiveCipherTemplate@V?$AbstractPolicyHolder@UAdditiveCipherAbstractPolicy@CryptoPP@@VCTR_ModePolicy@2@@CryptoPP@@@2@UAdditiveCipherAbstractPolicy@2@@2@@CryptoPP@@8 ; CryptoPP::CipherModeFinalTemplate_CipherHolder<CryptoPP::BlockCipherFinal<0,CryptoPP::Twofish::Enc>,CryptoPP::ConcretePolicyHolder<CryptoPP::Empty,CryptoPP::AdditiveCipherTemplate<CryptoPP::AbstractPolicyHolder<CryptoPP::AdditiveCipherAbstractPolicy,CryptoPP::CTR_ModePolicy> >,CryptoPP::AdditiveCipherAbstractPolicy> >::`RTTI Class Hierarchy Descriptor'
PUBLIC	??_R2?$CipherModeFinalTemplate_CipherHolder@V?$BlockCipherFinal@$0A@VEnc@Twofish@CryptoPP@@@CryptoPP@@V?$ConcretePolicyHolder@VEmpty@CryptoPP@@V?$AdditiveCipherTemplate@V?$AbstractPolicyHolder@UAdditiveCipherAbstractPolicy@CryptoPP@@VCTR_ModePolicy@2@@CryptoPP@@@2@UAdditiveCipherAbstractPolicy@2@@2@@CryptoPP@@8 ; CryptoPP::CipherModeFinalTemplate_CipherHolder<CryptoPP::BlockCipherFinal<0,CryptoPP::Twofish::Enc>,CryptoPP::ConcretePolicyHolder<CryptoPP::Empty,CryptoPP::AdditiveCipherTemplate<CryptoPP::AbstractPolicyHolder<CryptoPP::AdditiveCipherAbstractPolicy,CryptoPP::CTR_ModePolicy> >,CryptoPP::AdditiveCipherAbstractPolicy> >::`RTTI Base Class Array'
PUBLIC	??_R1A@?0A@EA@?$CipherModeFinalTemplate_CipherHolder@V?$BlockCipherFinal@$0A@VEnc@Twofish@CryptoPP@@@CryptoPP@@V?$ConcretePolicyHolder@VEmpty@CryptoPP@@V?$AdditiveCipherTemplate@V?$AbstractPolicyHolder@UAdditiveCipherAbstractPolicy@CryptoPP@@VCTR_ModePolicy@2@@CryptoPP@@@2@UAdditiveCipherAbstractPolicy@2@@2@@CryptoPP@@8 ; CryptoPP::CipherModeFinalTemplate_CipherHolder<CryptoPP::BlockCipherFinal<0,CryptoPP::Twofish::Enc>,CryptoPP::ConcretePolicyHolder<CryptoPP::Empty,CryptoPP::AdditiveCipherTemplate<CryptoPP::AbstractPolicyHolder<CryptoPP::AdditiveCipherAbstractPolicy,CryptoPP::CTR_ModePolicy> >,CryptoPP::AdditiveCipherAbstractPolicy> >::`RTTI Base Class Descriptor at (0,-1,0,64)'
PUBLIC	??_R1EA@?0A@EN@?$ObjectHolder@V?$BlockCipherFinal@$0A@VEnc@Twofish@CryptoPP@@@CryptoPP@@@CryptoPP@@8 ; CryptoPP::ObjectHolder<CryptoPP::BlockCipherFinal<0,CryptoPP::Twofish::Enc> >::`RTTI Base Class Descriptor at (64,-1,0,77)'
PUBLIC	??_R0?AV?$ObjectHolder@V?$BlockCipherFinal@$0A@VEnc@Twofish@CryptoPP@@@CryptoPP@@@CryptoPP@@@8 ; CryptoPP::ObjectHolder<CryptoPP::BlockCipherFinal<0,CryptoPP::Twofish::Enc> > `RTTI Type Descriptor'
PUBLIC	??_R3?$ObjectHolder@V?$BlockCipherFinal@$0A@VEnc@Twofish@CryptoPP@@@CryptoPP@@@CryptoPP@@8 ; CryptoPP::ObjectHolder<CryptoPP::BlockCipherFinal<0,CryptoPP::Twofish::Enc> >::`RTTI Class Hierarchy Descriptor'
PUBLIC	??_R2?$ObjectHolder@V?$BlockCipherFinal@$0A@VEnc@Twofish@CryptoPP@@@CryptoPP@@@CryptoPP@@8 ; CryptoPP::ObjectHolder<CryptoPP::BlockCipherFinal<0,CryptoPP::Twofish::Enc> >::`RTTI Base Class Array'
PUBLIC	??_R1A@?0A@EA@?$ObjectHolder@V?$BlockCipherFinal@$0A@VEnc@Twofish@CryptoPP@@@CryptoPP@@@CryptoPP@@8 ; CryptoPP::ObjectHolder<CryptoPP::BlockCipherFinal<0,CryptoPP::Twofish::Enc> >::`RTTI Base Class Descriptor at (0,-1,0,64)'
PUBLIC	??_R1A@?0A@EA@?$AlgorithmImpl@V?$ConcretePolicyHolder@VEmpty@CryptoPP@@V?$AdditiveCipherTemplate@V?$AbstractPolicyHolder@UAdditiveCipherAbstractPolicy@CryptoPP@@VCTR_ModePolicy@2@@CryptoPP@@@2@UAdditiveCipherAbstractPolicy@2@@CryptoPP@@V?$CipherModeFinalTemplate_CipherHolder@V?$BlockCipherFinal@$0A@VEnc@Twofish@CryptoPP@@@CryptoPP@@V?$ConcretePolicyHolder@VEmpty@CryptoPP@@V?$AdditiveCipherTemplate@V?$AbstractPolicyHolder@UAdditiveCipherAbstractPolicy@CryptoPP@@VCTR_ModePolicy@2@@CryptoPP@@@2@UAdditiveCipherAbstractPolicy@2@@2@@2@@CryptoPP@@8 ; CryptoPP::AlgorithmImpl<CryptoPP::ConcretePolicyHolder<CryptoPP::Empty,CryptoPP::AdditiveCipherTemplate<CryptoPP::AbstractPolicyHolder<CryptoPP::AdditiveCipherAbstractPolicy,CryptoPP::CTR_ModePolicy> >,CryptoPP::AdditiveCipherAbstractPolicy>,CryptoPP::CipherModeFinalTemplate_CipherHolder<CryptoPP::BlockCipherFinal<0,CryptoPP::Twofish::Enc>,CryptoPP::ConcretePolicyHolder<CryptoPP::Empty,CryptoPP::AdditiveCipherTemplate<CryptoPP::AbstractPolicyHolder<CryptoPP::AdditiveCipherAbstractPolicy,CryptoPP::CTR_ModePolicy> >,CryptoPP::AdditiveCipherAbstractPolicy> > >::`RTTI Base Class Descriptor at (0,-1,0,64)'
PUBLIC	??_R0?AV?$AlgorithmImpl@V?$ConcretePolicyHolder@VEmpty@CryptoPP@@V?$AdditiveCipherTemplate@V?$AbstractPolicyHolder@UAdditiveCipherAbstractPolicy@CryptoPP@@VCTR_ModePolicy@2@@CryptoPP@@@2@UAdditiveCipherAbstractPolicy@2@@CryptoPP@@V?$CipherModeFinalTemplate_CipherHolder@V?$BlockCipherFinal@$0A@VEnc@Twofish@CryptoPP@@@CryptoPP@@V?$ConcretePolicyHolder@VEmpty@CryptoPP@@V?$AdditiveCipherTemplate@V?$AbstractPolicyHolder@UAdditiveCipherAbstractPolicy@CryptoPP@@VCTR_ModePolicy@2@@CryptoPP@@@2@UAdditiveCipherAbstractPolicy@2@@2@@2@@CryptoPP@@@8 ; CryptoPP::AlgorithmImpl<CryptoPP::ConcretePolicyHolder<CryptoPP::Empty,CryptoPP::AdditiveCipherTemplate<CryptoPP::AbstractPolicyHolder<CryptoPP::AdditiveCipherAbstractPolicy,CryptoPP::CTR_ModePolicy> >,CryptoPP::AdditiveCipherAbstractPolicy>,CryptoPP::CipherModeFinalTemplate_CipherHolder<CryptoPP::BlockCipherFinal<0,CryptoPP::Twofish::Enc>,CryptoPP::ConcretePolicyHolder<CryptoPP::Empty,CryptoPP::AdditiveCipherTemplate<CryptoPP::AbstractPolicyHolder<CryptoPP::AdditiveCipherAbstractPolicy,CryptoPP::CTR_ModePolicy> >,CryptoPP::AdditiveCipherAbstractPolicy> > > `RTTI Type Descriptor'
PUBLIC	??_R3?$AlgorithmImpl@V?$ConcretePolicyHolder@VEmpty@CryptoPP@@V?$AdditiveCipherTemplate@V?$AbstractPolicyHolder@UAdditiveCipherAbstractPolicy@CryptoPP@@VCTR_ModePolicy@2@@CryptoPP@@@2@UAdditiveCipherAbstractPolicy@2@@CryptoPP@@V?$CipherModeFinalTemplate_CipherHolder@V?$BlockCipherFinal@$0A@VEnc@Twofish@CryptoPP@@@CryptoPP@@V?$ConcretePolicyHolder@VEmpty@CryptoPP@@V?$AdditiveCipherTemplate@V?$AbstractPolicyHolder@UAdditiveCipherAbstractPolicy@CryptoPP@@VCTR_ModePolicy@2@@CryptoPP@@@2@UAdditiveCipherAbstractPolicy@2@@2@@2@@CryptoPP@@8 ; CryptoPP::AlgorithmImpl<CryptoPP::ConcretePolicyHolder<CryptoPP::Empty,CryptoPP::AdditiveCipherTemplate<CryptoPP::AbstractPolicyHolder<CryptoPP::AdditiveCipherAbstractPolicy,CryptoPP::CTR_ModePolicy> >,CryptoPP::AdditiveCipherAbstractPolicy>,CryptoPP::CipherModeFinalTemplate_CipherHolder<CryptoPP::BlockCipherFinal<0,CryptoPP::Twofish::Enc>,CryptoPP::ConcretePolicyHolder<CryptoPP::Empty,CryptoPP::AdditiveCipherTemplate<CryptoPP::AbstractPolicyHolder<CryptoPP::AdditiveCipherAbstractPolicy,CryptoPP::CTR_ModePolicy> >,CryptoPP::AdditiveCipherAbstractPolicy> > >::`RTTI Class Hierarchy Descriptor'
PUBLIC	??_R2?$AlgorithmImpl@V?$ConcretePolicyHolder@VEmpty@CryptoPP@@V?$AdditiveCipherTemplate@V?$AbstractPolicyHolder@UAdditiveCipherAbstractPolicy@CryptoPP@@VCTR_ModePolicy@2@@CryptoPP@@@2@UAdditiveCipherAbstractPolicy@2@@CryptoPP@@V?$CipherModeFinalTemplate_CipherHolder@V?$BlockCipherFinal@$0A@VEnc@Twofish@CryptoPP@@@CryptoPP@@V?$ConcretePolicyHolder@VEmpty@CryptoPP@@V?$AdditiveCipherTemplate@V?$AbstractPolicyHolder@UAdditiveCipherAbstractPolicy@CryptoPP@@VCTR_ModePolicy@2@@CryptoPP@@@2@UAdditiveCipherAbstractPolicy@2@@2@@2@@CryptoPP@@8 ; CryptoPP::AlgorithmImpl<CryptoPP::ConcretePolicyHolder<CryptoPP::Empty,CryptoPP::AdditiveCipherTemplate<CryptoPP::AbstractPolicyHolder<CryptoPP::AdditiveCipherAbstractPolicy,CryptoPP::CTR_ModePolicy> >,CryptoPP::AdditiveCipherAbstractPolicy>,CryptoPP::CipherModeFinalTemplate_CipherHolder<CryptoPP::BlockCipherFinal<0,CryptoPP::Twofish::Enc>,CryptoPP::ConcretePolicyHolder<CryptoPP::Empty,CryptoPP::AdditiveCipherTemplate<CryptoPP::AbstractPolicyHolder<CryptoPP::AdditiveCipherAbstractPolicy,CryptoPP::CTR_ModePolicy> >,CryptoPP::AdditiveCipherAbstractPolicy> > >::`RTTI Base Class Array'
PUBLIC	??_R4?$CipherModeFinalTemplate_CipherHolder@V?$BlockCipherFinal@$0A@VEnc@Twofish@CryptoPP@@@CryptoPP@@V?$ConcretePolicyHolder@VEmpty@CryptoPP@@V?$AdditiveCipherTemplate@V?$AbstractPolicyHolder@UAdditiveCipherAbstractPolicy@CryptoPP@@VCTR_ModePolicy@2@@CryptoPP@@@2@UAdditiveCipherAbstractPolicy@2@@2@@CryptoPP@@6BStreamTransformation@1@@ ; CryptoPP::CipherModeFinalTemplate_CipherHolder<CryptoPP::BlockCipherFinal<0,CryptoPP::Twofish::Enc>,CryptoPP::ConcretePolicyHolder<CryptoPP::Empty,CryptoPP::AdditiveCipherTemplate<CryptoPP::AbstractPolicyHolder<CryptoPP::AdditiveCipherAbstractPolicy,CryptoPP::CTR_ModePolicy> >,CryptoPP::AdditiveCipherAbstractPolicy> >::`RTTI Complete Object Locator'
PUBLIC	??_R4?$CipherModeFinalTemplate_CipherHolder@V?$BlockCipherFinal@$0A@VEnc@Twofish@CryptoPP@@@CryptoPP@@V?$ConcretePolicyHolder@VEmpty@CryptoPP@@V?$AdditiveCipherTemplate@V?$AbstractPolicyHolder@UAdditiveCipherAbstractPolicy@CryptoPP@@VCTR_ModePolicy@2@@CryptoPP@@@2@UAdditiveCipherAbstractPolicy@2@@2@@CryptoPP@@6B?$AbstractPolicyHolder@UAdditiveCipherAbstractPolicy@CryptoPP@@VCTR_ModePolicy@2@@1@@ ; CryptoPP::CipherModeFinalTemplate_CipherHolder<CryptoPP::BlockCipherFinal<0,CryptoPP::Twofish::Enc>,CryptoPP::ConcretePolicyHolder<CryptoPP::Empty,CryptoPP::AdditiveCipherTemplate<CryptoPP::AbstractPolicyHolder<CryptoPP::AdditiveCipherAbstractPolicy,CryptoPP::CTR_ModePolicy> >,CryptoPP::AdditiveCipherAbstractPolicy> >::`RTTI Complete Object Locator'
PUBLIC	??_R4?$CipherModeFinalTemplate_CipherHolder@V?$BlockCipherFinal@$0A@VEnc@Twofish@CryptoPP@@@CryptoPP@@V?$ConcretePolicyHolder@VEmpty@CryptoPP@@V?$AdditiveCipherTemplate@V?$AbstractPolicyHolder@UAdditiveCipherAbstractPolicy@CryptoPP@@VCTR_ModePolicy@2@@CryptoPP@@@2@UAdditiveCipherAbstractPolicy@2@@2@@CryptoPP@@6BRandomNumberGenerator@1@@ ; CryptoPP::CipherModeFinalTemplate_CipherHolder<CryptoPP::BlockCipherFinal<0,CryptoPP::Twofish::Enc>,CryptoPP::ConcretePolicyHolder<CryptoPP::Empty,CryptoPP::AdditiveCipherTemplate<CryptoPP::AbstractPolicyHolder<CryptoPP::AdditiveCipherAbstractPolicy,CryptoPP::CTR_ModePolicy> >,CryptoPP::AdditiveCipherAbstractPolicy> >::`RTTI Complete Object Locator'
PUBLIC	??_R4?$CipherModeFinalTemplate_CipherHolder@V?$BlockCipherFinal@$0A@VEnc@XTEA@CryptoPP@@@CryptoPP@@V?$ConcretePolicyHolder@VEmpty@CryptoPP@@V?$AdditiveCipherTemplate@V?$AbstractPolicyHolder@UAdditiveCipherAbstractPolicy@CryptoPP@@VCTR_ModePolicy@2@@CryptoPP@@@2@UAdditiveCipherAbstractPolicy@2@@2@@CryptoPP@@6BSimpleKeyingInterface@1@@ ; CryptoPP::CipherModeFinalTemplate_CipherHolder<CryptoPP::BlockCipherFinal<0,CryptoPP::XTEA::Enc>,CryptoPP::ConcretePolicyHolder<CryptoPP::Empty,CryptoPP::AdditiveCipherTemplate<CryptoPP::AbstractPolicyHolder<CryptoPP::AdditiveCipherAbstractPolicy,CryptoPP::CTR_ModePolicy> >,CryptoPP::AdditiveCipherAbstractPolicy> >::`RTTI Complete Object Locator'
PUBLIC	??_R0?AV?$CipherModeFinalTemplate_CipherHolder@V?$BlockCipherFinal@$0A@VEnc@XTEA@CryptoPP@@@CryptoPP@@V?$ConcretePolicyHolder@VEmpty@CryptoPP@@V?$AdditiveCipherTemplate@V?$AbstractPolicyHolder@UAdditiveCipherAbstractPolicy@CryptoPP@@VCTR_ModePolicy@2@@CryptoPP@@@2@UAdditiveCipherAbstractPolicy@2@@2@@CryptoPP@@@8 ; CryptoPP::CipherModeFinalTemplate_CipherHolder<CryptoPP::BlockCipherFinal<0,CryptoPP::XTEA::Enc>,CryptoPP::ConcretePolicyHolder<CryptoPP::Empty,CryptoPP::AdditiveCipherTemplate<CryptoPP::AbstractPolicyHolder<CryptoPP::AdditiveCipherAbstractPolicy,CryptoPP::CTR_ModePolicy> >,CryptoPP::AdditiveCipherAbstractPolicy> > `RTTI Type Descriptor'
PUBLIC	??_R3?$CipherModeFinalTemplate_CipherHolder@V?$BlockCipherFinal@$0A@VEnc@XTEA@CryptoPP@@@CryptoPP@@V?$ConcretePolicyHolder@VEmpty@CryptoPP@@V?$AdditiveCipherTemplate@V?$AbstractPolicyHolder@UAdditiveCipherAbstractPolicy@CryptoPP@@VCTR_ModePolicy@2@@CryptoPP@@@2@UAdditiveCipherAbstractPolicy@2@@2@@CryptoPP@@8 ; CryptoPP::CipherModeFinalTemplate_CipherHolder<CryptoPP::BlockCipherFinal<0,CryptoPP::XTEA::Enc>,CryptoPP::ConcretePolicyHolder<CryptoPP::Empty,CryptoPP::AdditiveCipherTemplate<CryptoPP::AbstractPolicyHolder<CryptoPP::AdditiveCipherAbstractPolicy,CryptoPP::CTR_ModePolicy> >,CryptoPP::AdditiveCipherAbstractPolicy> >::`RTTI Class Hierarchy Descriptor'
PUBLIC	??_R2?$CipherModeFinalTemplate_CipherHolder@V?$BlockCipherFinal@$0A@VEnc@XTEA@CryptoPP@@@CryptoPP@@V?$ConcretePolicyHolder@VEmpty@CryptoPP@@V?$AdditiveCipherTemplate@V?$AbstractPolicyHolder@UAdditiveCipherAbstractPolicy@CryptoPP@@VCTR_ModePolicy@2@@CryptoPP@@@2@UAdditiveCipherAbstractPolicy@2@@2@@CryptoPP@@8 ; CryptoPP::CipherModeFinalTemplate_CipherHolder<CryptoPP::BlockCipherFinal<0,CryptoPP::XTEA::Enc>,CryptoPP::ConcretePolicyHolder<CryptoPP::Empty,CryptoPP::AdditiveCipherTemplate<CryptoPP::AbstractPolicyHolder<CryptoPP::AdditiveCipherAbstractPolicy,CryptoPP::CTR_ModePolicy> >,CryptoPP::AdditiveCipherAbstractPolicy> >::`RTTI Base Class Array'
PUBLIC	??_R1A@?0A@EA@?$CipherModeFinalTemplate_CipherHolder@V?$BlockCipherFinal@$0A@VEnc@XTEA@CryptoPP@@@CryptoPP@@V?$ConcretePolicyHolder@VEmpty@CryptoPP@@V?$AdditiveCipherTemplate@V?$AbstractPolicyHolder@UAdditiveCipherAbstractPolicy@CryptoPP@@VCTR_ModePolicy@2@@CryptoPP@@@2@UAdditiveCipherAbstractPolicy@2@@2@@CryptoPP@@8 ; CryptoPP::CipherModeFinalTemplate_CipherHolder<CryptoPP::BlockCipherFinal<0,CryptoPP::XTEA::Enc>,CryptoPP::ConcretePolicyHolder<CryptoPP::Empty,CryptoPP::AdditiveCipherTemplate<CryptoPP::AbstractPolicyHolder<CryptoPP::AdditiveCipherAbstractPolicy,CryptoPP::CTR_ModePolicy> >,CryptoPP::AdditiveCipherAbstractPolicy> >::`RTTI Base Class Descriptor at (0,-1,0,64)'
PUBLIC	??_R1EA@?0A@EN@?$ObjectHolder@V?$BlockCipherFinal@$0A@VEnc@XTEA@CryptoPP@@@CryptoPP@@@CryptoPP@@8 ; CryptoPP::ObjectHolder<CryptoPP::BlockCipherFinal<0,CryptoPP::XTEA::Enc> >::`RTTI Base Class Descriptor at (64,-1,0,77)'
PUBLIC	??_R0?AV?$ObjectHolder@V?$BlockCipherFinal@$0A@VEnc@XTEA@CryptoPP@@@CryptoPP@@@CryptoPP@@@8 ; CryptoPP::ObjectHolder<CryptoPP::BlockCipherFinal<0,CryptoPP::XTEA::Enc> > `RTTI Type Descriptor'
PUBLIC	??_R3?$ObjectHolder@V?$BlockCipherFinal@$0A@VEnc@XTEA@CryptoPP@@@CryptoPP@@@CryptoPP@@8 ; CryptoPP::ObjectHolder<CryptoPP::BlockCipherFinal<0,CryptoPP::XTEA::Enc> >::`RTTI Class Hierarchy Descriptor'
PUBLIC	??_R2?$ObjectHolder@V?$BlockCipherFinal@$0A@VEnc@XTEA@CryptoPP@@@CryptoPP@@@CryptoPP@@8 ; CryptoPP::ObjectHolder<CryptoPP::BlockCipherFinal<0,CryptoPP::XTEA::Enc> >::`RTTI Base Class Array'
PUBLIC	??_R1A@?0A@EA@?$ObjectHolder@V?$BlockCipherFinal@$0A@VEnc@XTEA@CryptoPP@@@CryptoPP@@@CryptoPP@@8 ; CryptoPP::ObjectHolder<CryptoPP::BlockCipherFinal<0,CryptoPP::XTEA::Enc> >::`RTTI Base Class Descriptor at (0,-1,0,64)'
PUBLIC	??_R1A@?0A@EA@?$AlgorithmImpl@V?$ConcretePolicyHolder@VEmpty@CryptoPP@@V?$AdditiveCipherTemplate@V?$AbstractPolicyHolder@UAdditiveCipherAbstractPolicy@CryptoPP@@VCTR_ModePolicy@2@@CryptoPP@@@2@UAdditiveCipherAbstractPolicy@2@@CryptoPP@@V?$CipherModeFinalTemplate_CipherHolder@V?$BlockCipherFinal@$0A@VEnc@XTEA@CryptoPP@@@CryptoPP@@V?$ConcretePolicyHolder@VEmpty@CryptoPP@@V?$AdditiveCipherTemplate@V?$AbstractPolicyHolder@UAdditiveCipherAbstractPolicy@CryptoPP@@VCTR_ModePolicy@2@@CryptoPP@@@2@UAdditiveCipherAbstractPolicy@2@@2@@2@@CryptoPP@@8 ; CryptoPP::AlgorithmImpl<CryptoPP::ConcretePolicyHolder<CryptoPP::Empty,CryptoPP::AdditiveCipherTemplate<CryptoPP::AbstractPolicyHolder<CryptoPP::AdditiveCipherAbstractPolicy,CryptoPP::CTR_ModePolicy> >,CryptoPP::AdditiveCipherAbstractPolicy>,CryptoPP::CipherModeFinalTemplate_CipherHolder<CryptoPP::BlockCipherFinal<0,CryptoPP::XTEA::Enc>,CryptoPP::ConcretePolicyHolder<CryptoPP::Empty,CryptoPP::AdditiveCipherTemplate<CryptoPP::AbstractPolicyHolder<CryptoPP::AdditiveCipherAbstractPolicy,CryptoPP::CTR_ModePolicy> >,CryptoPP::AdditiveCipherAbstractPolicy> > >::`RTTI Base Class Descriptor at (0,-1,0,64)'
PUBLIC	??_R0?AV?$AlgorithmImpl@V?$ConcretePolicyHolder@VEmpty@CryptoPP@@V?$AdditiveCipherTemplate@V?$AbstractPolicyHolder@UAdditiveCipherAbstractPolicy@CryptoPP@@VCTR_ModePolicy@2@@CryptoPP@@@2@UAdditiveCipherAbstractPolicy@2@@CryptoPP@@V?$CipherModeFinalTemplate_CipherHolder@V?$BlockCipherFinal@$0A@VEnc@XTEA@CryptoPP@@@CryptoPP@@V?$ConcretePolicyHolder@VEmpty@CryptoPP@@V?$AdditiveCipherTemplate@V?$AbstractPolicyHolder@UAdditiveCipherAbstractPolicy@CryptoPP@@VCTR_ModePolicy@2@@CryptoPP@@@2@UAdditiveCipherAbstractPolicy@2@@2@@2@@CryptoPP@@@8 ; CryptoPP::AlgorithmImpl<CryptoPP::ConcretePolicyHolder<CryptoPP::Empty,CryptoPP::AdditiveCipherTemplate<CryptoPP::AbstractPolicyHolder<CryptoPP::AdditiveCipherAbstractPolicy,CryptoPP::CTR_ModePolicy> >,CryptoPP::AdditiveCipherAbstractPolicy>,CryptoPP::CipherModeFinalTemplate_CipherHolder<CryptoPP::BlockCipherFinal<0,CryptoPP::XTEA::Enc>,CryptoPP::ConcretePolicyHolder<CryptoPP::Empty,CryptoPP::AdditiveCipherTemplate<CryptoPP::AbstractPolicyHolder<CryptoPP::AdditiveCipherAbstractPolicy,CryptoPP::CTR_ModePolicy> >,CryptoPP::AdditiveCipherAbstractPolicy> > > `RTTI Type Descriptor'
PUBLIC	??_R3?$AlgorithmImpl@V?$ConcretePolicyHolder@VEmpty@CryptoPP@@V?$AdditiveCipherTemplate@V?$AbstractPolicyHolder@UAdditiveCipherAbstractPolicy@CryptoPP@@VCTR_ModePolicy@2@@CryptoPP@@@2@UAdditiveCipherAbstractPolicy@2@@CryptoPP@@V?$CipherModeFinalTemplate_CipherHolder@V?$BlockCipherFinal@$0A@VEnc@XTEA@CryptoPP@@@CryptoPP@@V?$ConcretePolicyHolder@VEmpty@CryptoPP@@V?$AdditiveCipherTemplate@V?$AbstractPolicyHolder@UAdditiveCipherAbstractPolicy@CryptoPP@@VCTR_ModePolicy@2@@CryptoPP@@@2@UAdditiveCipherAbstractPolicy@2@@2@@2@@CryptoPP@@8 ; CryptoPP::AlgorithmImpl<CryptoPP::ConcretePolicyHolder<CryptoPP::Empty,CryptoPP::AdditiveCipherTemplate<CryptoPP::AbstractPolicyHolder<CryptoPP::AdditiveCipherAbstractPolicy,CryptoPP::CTR_ModePolicy> >,CryptoPP::AdditiveCipherAbstractPolicy>,CryptoPP::CipherModeFinalTemplate_CipherHolder<CryptoPP::BlockCipherFinal<0,CryptoPP::XTEA::Enc>,CryptoPP::ConcretePolicyHolder<CryptoPP::Empty,CryptoPP::AdditiveCipherTemplate<CryptoPP::AbstractPolicyHolder<CryptoPP::AdditiveCipherAbstractPolicy,CryptoPP::CTR_ModePolicy> >,CryptoPP::AdditiveCipherAbstractPolicy> > >::`RTTI Class Hierarchy Descriptor'
PUBLIC	??_R2?$AlgorithmImpl@V?$ConcretePolicyHolder@VEmpty@CryptoPP@@V?$AdditiveCipherTemplate@V?$AbstractPolicyHolder@UAdditiveCipherAbstractPolicy@CryptoPP@@VCTR_ModePolicy@2@@CryptoPP@@@2@UAdditiveCipherAbstractPolicy@2@@CryptoPP@@V?$CipherModeFinalTemplate_CipherHolder@V?$BlockCipherFinal@$0A@VEnc@XTEA@CryptoPP@@@CryptoPP@@V?$ConcretePolicyHolder@VEmpty@CryptoPP@@V?$AdditiveCipherTemplate@V?$AbstractPolicyHolder@UAdditiveCipherAbstractPolicy@CryptoPP@@VCTR_ModePolicy@2@@CryptoPP@@@2@UAdditiveCipherAbstractPolicy@2@@2@@2@@CryptoPP@@8 ; CryptoPP::AlgorithmImpl<CryptoPP::ConcretePolicyHolder<CryptoPP::Empty,CryptoPP::AdditiveCipherTemplate<CryptoPP::AbstractPolicyHolder<CryptoPP::AdditiveCipherAbstractPolicy,CryptoPP::CTR_ModePolicy> >,CryptoPP::AdditiveCipherAbstractPolicy>,CryptoPP::CipherModeFinalTemplate_CipherHolder<CryptoPP::BlockCipherFinal<0,CryptoPP::XTEA::Enc>,CryptoPP::ConcretePolicyHolder<CryptoPP::Empty,CryptoPP::AdditiveCipherTemplate<CryptoPP::AbstractPolicyHolder<CryptoPP::AdditiveCipherAbstractPolicy,CryptoPP::CTR_ModePolicy> >,CryptoPP::AdditiveCipherAbstractPolicy> > >::`RTTI Base Class Array'
PUBLIC	??_R4?$CipherModeFinalTemplate_CipherHolder@V?$BlockCipherFinal@$0A@VEnc@XTEA@CryptoPP@@@CryptoPP@@V?$ConcretePolicyHolder@VEmpty@CryptoPP@@V?$AdditiveCipherTemplate@V?$AbstractPolicyHolder@UAdditiveCipherAbstractPolicy@CryptoPP@@VCTR_ModePolicy@2@@CryptoPP@@@2@UAdditiveCipherAbstractPolicy@2@@2@@CryptoPP@@6BStreamTransformation@1@@ ; CryptoPP::CipherModeFinalTemplate_CipherHolder<CryptoPP::BlockCipherFinal<0,CryptoPP::XTEA::Enc>,CryptoPP::ConcretePolicyHolder<CryptoPP::Empty,CryptoPP::AdditiveCipherTemplate<CryptoPP::AbstractPolicyHolder<CryptoPP::AdditiveCipherAbstractPolicy,CryptoPP::CTR_ModePolicy> >,CryptoPP::AdditiveCipherAbstractPolicy> >::`RTTI Complete Object Locator'
PUBLIC	??_R4?$CipherModeFinalTemplate_CipherHolder@V?$BlockCipherFinal@$0A@VEnc@XTEA@CryptoPP@@@CryptoPP@@V?$ConcretePolicyHolder@VEmpty@CryptoPP@@V?$AdditiveCipherTemplate@V?$AbstractPolicyHolder@UAdditiveCipherAbstractPolicy@CryptoPP@@VCTR_ModePolicy@2@@CryptoPP@@@2@UAdditiveCipherAbstractPolicy@2@@2@@CryptoPP@@6B?$AbstractPolicyHolder@UAdditiveCipherAbstractPolicy@CryptoPP@@VCTR_ModePolicy@2@@1@@ ; CryptoPP::CipherModeFinalTemplate_CipherHolder<CryptoPP::BlockCipherFinal<0,CryptoPP::XTEA::Enc>,CryptoPP::ConcretePolicyHolder<CryptoPP::Empty,CryptoPP::AdditiveCipherTemplate<CryptoPP::AbstractPolicyHolder<CryptoPP::AdditiveCipherAbstractPolicy,CryptoPP::CTR_ModePolicy> >,CryptoPP::AdditiveCipherAbstractPolicy> >::`RTTI Complete Object Locator'
PUBLIC	??_R4?$CipherModeFinalTemplate_CipherHolder@V?$BlockCipherFinal@$0A@VEnc@XTEA@CryptoPP@@@CryptoPP@@V?$ConcretePolicyHolder@VEmpty@CryptoPP@@V?$AdditiveCipherTemplate@V?$AbstractPolicyHolder@UAdditiveCipherAbstractPolicy@CryptoPP@@VCTR_ModePolicy@2@@CryptoPP@@@2@UAdditiveCipherAbstractPolicy@2@@2@@CryptoPP@@6BRandomNumberGenerator@1@@ ; CryptoPP::CipherModeFinalTemplate_CipherHolder<CryptoPP::BlockCipherFinal<0,CryptoPP::XTEA::Enc>,CryptoPP::ConcretePolicyHolder<CryptoPP::Empty,CryptoPP::AdditiveCipherTemplate<CryptoPP::AbstractPolicyHolder<CryptoPP::AdditiveCipherAbstractPolicy,CryptoPP::CTR_ModePolicy> >,CryptoPP::AdditiveCipherAbstractPolicy> >::`RTTI Complete Object Locator'
PUBLIC	__real@3ff0000000000000
PUBLIC	__xmm@41f00000000000000000000000000000
EXTRN	__purecall:PROC
EXTRN	??2@YAPAXI@Z:PROC				; operator new
EXTRN	??3@YAXPAXI@Z:PROC				; operator delete
EXTRN	_atexit:PROC
EXTRN	__Init_thread_header:PROC
EXTRN	__Init_thread_abort:PROC
EXTRN	__Init_thread_footer:PROC
EXTRN	___std_terminate:PROC
EXTRN	__invalid_parameter_noinfo:PROC
EXTRN	__invalid_parameter_noinfo_noreturn:PROC
EXTRN	__errno:PROC
EXTRN	_memcpy:PROC
EXTRN	_memmove:PROC
EXTRN	_memset:PROC
EXTRN	_strlen:PROC
EXTRN	_ceil:PROC
EXTRN	_floor:PROC
EXTRN	?uncaught_exception@std@@YA_NXZ:PROC		; std::uncaught_exception
EXTRN	___std_exception_copy:PROC
EXTRN	___std_exception_destroy:PROC
EXTRN	??_Eexception@std@@UAEPAXI@Z:PROC		; std::exception::`vector deleting destructor'
EXTRN	??_Ebad_alloc@std@@UAEPAXI@Z:PROC		; std::bad_alloc::`vector deleting destructor'
EXTRN	??_Ebad_array_new_length@std@@UAEPAXI@Z:PROC	; std::bad_array_new_length::`vector deleting destructor'
EXTRN	?_Xlength_error@std@@YAXPBD@Z:PROC		; std::_Xlength_error
EXTRN	___std_type_info_compare:PROC
EXTRN	___std_type_info_name:PROC
EXTRN	??_EException@CryptoPP@@UAEPAXI@Z:PROC		; CryptoPP::Exception::`vector deleting destructor'
EXTRN	??_EInvalidArgument@CryptoPP@@UAEPAXI@Z:PROC	; CryptoPP::InvalidArgument::`vector deleting destructor'
EXTRN	??_ENotImplemented@CryptoPP@@UAEPAXI@Z:PROC	; CryptoPP::NotImplemented::`vector deleting destructor'
EXTRN	??_EValueTypeMismatch@NameValuePairs@CryptoPP@@UAEPAXI@Z:PROC ; CryptoPP::NameValuePairs::ValueTypeMismatch::`vector deleting destructor'
EXTRN	??0Algorithm@CryptoPP@@QAE@_N@Z:PROC		; CryptoPP::Algorithm::Algorithm
EXTRN	?SetKey@SimpleKeyingInterface@CryptoPP@@UAEXPBEIABVNameValuePairs@2@@Z:PROC ; CryptoPP::SimpleKeyingInterface::SetKey
EXTRN	?SetKeyWithIV@SimpleKeyingInterface@CryptoPP@@QAEXPBEI0I@Z:PROC ; CryptoPP::SimpleKeyingInterface::SetKeyWithIV
EXTRN	?GetNextIV@SimpleKeyingInterface@CryptoPP@@UAEXAAVRandomNumberGenerator@2@PAE@Z:PROC ; CryptoPP::SimpleKeyingInterface::GetNextIV
EXTRN	?OptimalDataAlignment@BlockTransformation@CryptoPP@@UBEIXZ:PROC ; CryptoPP::BlockTransformation::OptimalDataAlignment
EXTRN	?AdvancedProcessBlocks@BlockTransformation@CryptoPP@@UBEIPBE0PAEII@Z:PROC ; CryptoPP::BlockTransformation::AdvancedProcessBlocks
EXTRN	?ProcessLastBlock@StreamTransformation@CryptoPP@@UAEXPAEPBEI@Z:PROC ; CryptoPP::StreamTransformation::ProcessLastBlock
EXTRN	?GenerateByte@RandomNumberGenerator@CryptoPP@@UAEEXZ:PROC ; CryptoPP::RandomNumberGenerator::GenerateByte
EXTRN	?GenerateBit@RandomNumberGenerator@CryptoPP@@UAEIXZ:PROC ; CryptoPP::RandomNumberGenerator::GenerateBit
EXTRN	?GenerateWord32@RandomNumberGenerator@CryptoPP@@UAEIII@Z:PROC ; CryptoPP::RandomNumberGenerator::GenerateWord32
EXTRN	?GenerateBlock@RandomNumberGenerator@CryptoPP@@UAEXPAEI@Z:PROC ; CryptoPP::RandomNumberGenerator::GenerateBlock
EXTRN	?DiscardBytes@RandomNumberGenerator@CryptoPP@@UAEXI@Z:PROC ; CryptoPP::RandomNumberGenerator::DiscardBytes
EXTRN	?GenerateIntoBufferedTransformation@RandomNumberGenerator@CryptoPP@@UAEXAAVBufferedTransformation@2@ABV?$basic_string@DU?$char_traits@D@std@@V?$allocator@D@2@@std@@_K@Z:PROC ; CryptoPP::RandomNumberGenerator::GenerateIntoBufferedTransformation
EXTRN	?GetMaxWaitObjectCount@BufferedTransformation@CryptoPP@@UBEIXZ:PROC ; CryptoPP::BufferedTransformation::GetMaxWaitObjectCount
EXTRN	?GetWaitObjects@BufferedTransformation@CryptoPP@@UAEXAAVWaitObjectContainer@2@ABVCallStack@2@@Z:PROC ; CryptoPP::BufferedTransformation::GetWaitObjects
EXTRN	?Initialize@BufferedTransformation@CryptoPP@@UAEXABVNameValuePairs@2@H@Z:PROC ; CryptoPP::BufferedTransformation::Initialize
EXTRN	?Flush@BufferedTransformation@CryptoPP@@UAE_N_NH0@Z:PROC ; CryptoPP::BufferedTransformation::Flush
EXTRN	?MessageSeriesEnd@BufferedTransformation@CryptoPP@@UAE_NH_N@Z:PROC ; CryptoPP::BufferedTransformation::MessageSeriesEnd
EXTRN	?MaxRetrievable@BufferedTransformation@CryptoPP@@UBE_KXZ:PROC ; CryptoPP::BufferedTransformation::MaxRetrievable
EXTRN	?AnyRetrievable@BufferedTransformation@CryptoPP@@UBE_NXZ:PROC ; CryptoPP::BufferedTransformation::AnyRetrievable
EXTRN	?Get@BufferedTransformation@CryptoPP@@UAEIAAE@Z:PROC ; CryptoPP::BufferedTransformation::Get
EXTRN	?Get@BufferedTransformation@CryptoPP@@UAEIPAEI@Z:PROC ; CryptoPP::BufferedTransformation::Get
EXTRN	?Peek@BufferedTransformation@CryptoPP@@UBEIAAE@Z:PROC ; CryptoPP::BufferedTransformation::Peek
EXTRN	?Peek@BufferedTransformation@CryptoPP@@UBEIPAEI@Z:PROC ; CryptoPP::BufferedTransformation::Peek
EXTRN	?Skip@BufferedTransformation@CryptoPP@@UAE_K_K@Z:PROC ; CryptoPP::BufferedTransformation::Skip
EXTRN	?TotalBytesRetrievable@BufferedTransformation@CryptoPP@@UBE_KXZ:PROC ; CryptoPP::BufferedTransformation::TotalBytesRetrievable
EXTRN	?NumberOfMessages@BufferedTransformation@CryptoPP@@UBEIXZ:PROC ; CryptoPP::BufferedTransformation::NumberOfMessages
EXTRN	?AnyMessages@BufferedTransformation@CryptoPP@@UBE_NXZ:PROC ; CryptoPP::BufferedTransformation::AnyMessages
EXTRN	?GetNextMessage@BufferedTransformation@CryptoPP@@UAE_NXZ:PROC ; CryptoPP::BufferedTransformation::GetNextMessage
EXTRN	?SkipMessages@BufferedTransformation@CryptoPP@@UAEII@Z:PROC ; CryptoPP::BufferedTransformation::SkipMessages
EXTRN	?SkipAll@BufferedTransformation@CryptoPP@@UAEXXZ:PROC ; CryptoPP::BufferedTransformation::SkipAll
EXTRN	?TransferMessagesTo2@BufferedTransformation@CryptoPP@@QAEIAAV12@AAIABV?$basic_string@DU?$char_traits@D@std@@V?$allocator@D@2@@std@@_N@Z:PROC ; CryptoPP::BufferedTransformation::TransferMessagesTo2
EXTRN	?TransferAllTo2@BufferedTransformation@CryptoPP@@QAEIAAV12@ABV?$basic_string@DU?$char_traits@D@std@@V?$allocator@D@2@@std@@_N@Z:PROC ; CryptoPP::BufferedTransformation::TransferAllTo2
EXTRN	?ChannelCreatePutSpace@BufferedTransformation@CryptoPP@@UAEPAEABV?$basic_string@DU?$char_traits@D@std@@V?$allocator@D@2@@std@@AAI@Z:PROC ; CryptoPP::BufferedTransformation::ChannelCreatePutSpace
EXTRN	?ChannelPut2@BufferedTransformation@CryptoPP@@UAEIABV?$basic_string@DU?$char_traits@D@std@@V?$allocator@D@2@@std@@PBEIH_N@Z:PROC ; CryptoPP::BufferedTransformation::ChannelPut2
EXTRN	?ChannelPutModifiable2@BufferedTransformation@CryptoPP@@UAEIABV?$basic_string@DU?$char_traits@D@std@@V?$allocator@D@2@@std@@PAEIH_N@Z:PROC ; CryptoPP::BufferedTransformation::ChannelPutModifiable2
EXTRN	?ChannelFlush@BufferedTransformation@CryptoPP@@UAE_NABV?$basic_string@DU?$char_traits@D@std@@V?$allocator@D@2@@std@@_NH1@Z:PROC ; CryptoPP::BufferedTransformation::ChannelFlush
EXTRN	?ChannelMessageSeriesEnd@BufferedTransformation@CryptoPP@@UAE_NABV?$basic_string@DU?$char_traits@D@std@@V?$allocator@D@2@@std@@H_N@Z:PROC ; CryptoPP::BufferedTransformation::ChannelMessageSeriesEnd
EXTRN	?SetRetrievalChannel@BufferedTransformation@CryptoPP@@UAEXABV?$basic_string@DU?$char_traits@D@std@@V?$allocator@D@2@@std@@@Z:PROC ; CryptoPP::BufferedTransformation::SetRetrievalChannel
EXTRN	?Attach@BufferedTransformation@CryptoPP@@UAEXPAV12@@Z:PROC ; CryptoPP::BufferedTransformation::Attach
EXTRN	?AlignedAllocate@CryptoPP@@YAPAXI@Z:PROC	; CryptoPP::AlignedAllocate
EXTRN	?AlignedDeallocate@CryptoPP@@YAXPAX@Z:PROC	; CryptoPP::AlignedDeallocate
EXTRN	?UnalignedAllocate@CryptoPP@@YAPAXI@Z:PROC	; CryptoPP::UnalignedAllocate
EXTRN	?UnalignedDeallocate@CryptoPP@@YAXPAX@Z:PROC	; CryptoPP::UnalignedDeallocate
EXTRN	?GetNextMessage@Store@CryptoPP@@UAE_NXZ:PROC	; CryptoPP::Store::GetNextMessage
EXTRN	?UncheckedSetKey@Base@Camellia@CryptoPP@@UAEXPBEIABVNameValuePairs@3@@Z:PROC ; CryptoPP::Camellia::Base::UncheckedSetKey
EXTRN	?ProcessAndXorBlock@Base@Camellia@CryptoPP@@UBEXPBE0PAE@Z:PROC ; CryptoPP::Camellia::Base::ProcessAndXorBlock
EXTRN	?UncheckedSetKey@Base@Twofish@CryptoPP@@UAEXPBEIABVNameValuePairs@3@@Z:PROC ; CryptoPP::Twofish::Base::UncheckedSetKey
EXTRN	?ProcessAndXorBlock@Enc@Twofish@CryptoPP@@UBEXPBE0PAE@Z:PROC ; CryptoPP::Twofish::Enc::ProcessAndXorBlock
EXTRN	?UncheckedSetKey@Base@XTEA@CryptoPP@@UAEXPBEIABVNameValuePairs@3@@Z:PROC ; CryptoPP::XTEA::Base::UncheckedSetKey
EXTRN	?ProcessAndXorBlock@Enc@XTEA@CryptoPP@@UBEXPBE0PAE@Z:PROC ; CryptoPP::XTEA::Enc::ProcessAndXorBlock
EXTRN	?stl_lowers@@YAXAAV?$basic_string@DU?$char_traits@D@std@@V?$allocator@D@2@@std@@@Z:PROC ; stl_lowers
EXTRN	?GetCRC32@@YAKPBDI@Z:PROC			; GetCRC32
EXTRN	?AllocBuffer@CLZObject@@QAEXK@Z:PROC		; CLZObject::AllocBuffer
EXTRN	?random_range@@YAJJJ@Z:PROC			; random_range
EXTRN	??_EParameterNotUsed@AlgorithmParametersBase@CryptoPP@@UAEPAXI@Z:PROC ; CryptoPP::AlgorithmParametersBase::ParameterNotUsed::`vector deleting destructor'
EXTRN	??_EAlgorithmParametersBase@CryptoPP@@UAEPAXI@Z:PROC ; CryptoPP::AlgorithmParametersBase::`vector deleting destructor'
EXTRN	??_E?$AlgorithmParametersTemplate@VConstByteArrayParameter@CryptoPP@@@CryptoPP@@UAEPAXI@Z:PROC ; CryptoPP::AlgorithmParametersTemplate<CryptoPP::ConstByteArrayParameter>::`vector deleting destructor'
EXTRN	??0AlgorithmParameters@CryptoPP@@QAE@XZ:PROC	; CryptoPP::AlgorithmParameters::AlgorithmParameters
EXTRN	??0AlgorithmParameters@CryptoPP@@QAE@ABV01@@Z:PROC ; CryptoPP::AlgorithmParameters::AlgorithmParameters
EXTRN	?IncrementCounterBy256@CTR_ModePolicy@CryptoPP@@MAEXXZ:PROC ; CryptoPP::CTR_ModePolicy::IncrementCounterBy256
EXTRN	?OperateKeystream@CTR_ModePolicy@CryptoPP@@MAEXW4KeystreamOperation@2@PAEPBEI@Z:PROC ; CryptoPP::CTR_ModePolicy::OperateKeystream
EXTRN	?CipherResynchronize@CTR_ModePolicy@CryptoPP@@MAEXPAEPBEI@Z:PROC ; CryptoPP::CTR_ModePolicy::CipherResynchronize
EXTRN	?SeekToIteration@CTR_ModePolicy@CryptoPP@@MAEX_K@Z:PROC ; CryptoPP::CTR_ModePolicy::SeekToIteration
EXTRN	?GenerateBlock@?$AdditiveCipherTemplate@V?$AbstractPolicyHolder@UAdditiveCipherAbstractPolicy@CryptoPP@@VCTR_ModePolicy@2@@CryptoPP@@@CryptoPP@@UAEXPAEI@Z:PROC ; CryptoPP::AdditiveCipherTemplate<CryptoPP::AbstractPolicyHolder<CryptoPP::AdditiveCipherAbstractPolicy,CryptoPP::CTR_ModePolicy> >::GenerateBlock
EXTRN	?ProcessData@?$AdditiveCipherTemplate@V?$AbstractPolicyHolder@UAdditiveCipherAbstractPolicy@CryptoPP@@VCTR_ModePolicy@2@@CryptoPP@@@CryptoPP@@UAEXPAEPBEI@Z:PROC ; CryptoPP::AdditiveCipherTemplate<CryptoPP::AbstractPolicyHolder<CryptoPP::AdditiveCipherAbstractPolicy,CryptoPP::CTR_ModePolicy> >::ProcessData
EXTRN	?Resynchronize@?$AdditiveCipherTemplate@V?$AbstractPolicyHolder@UAdditiveCipherAbstractPolicy@CryptoPP@@VCTR_ModePolicy@2@@CryptoPP@@@CryptoPP@@UAEXPBEH@Z:PROC ; CryptoPP::AdditiveCipherTemplate<CryptoPP::AbstractPolicyHolder<CryptoPP::AdditiveCipherAbstractPolicy,CryptoPP::CTR_ModePolicy> >::Resynchronize
EXTRN	?Seek@?$AdditiveCipherTemplate@V?$AbstractPolicyHolder@UAdditiveCipherAbstractPolicy@CryptoPP@@VCTR_ModePolicy@2@@CryptoPP@@@CryptoPP@@UAEX_K@Z:PROC ; CryptoPP::AdditiveCipherTemplate<CryptoPP::AbstractPolicyHolder<CryptoPP::AdditiveCipherAbstractPolicy,CryptoPP::CTR_ModePolicy> >::Seek
EXTRN	?UncheckedSetKey@?$AdditiveCipherTemplate@V?$AbstractPolicyHolder@UAdditiveCipherAbstractPolicy@CryptoPP@@VCTR_ModePolicy@2@@CryptoPP@@@CryptoPP@@MAEXPBEIABVNameValuePairs@2@@Z:PROC ; CryptoPP::AdditiveCipherTemplate<CryptoPP::AbstractPolicyHolder<CryptoPP::AdditiveCipherAbstractPolicy,CryptoPP::CTR_ModePolicy> >::UncheckedSetKey
EXTRN	??_E?$ConcretePolicyHolder@VEmpty@CryptoPP@@V?$AdditiveCipherTemplate@V?$AbstractPolicyHolder@UAdditiveCipherAbstractPolicy@CryptoPP@@VCTR_ModePolicy@2@@CryptoPP@@@2@UAdditiveCipherAbstractPolicy@2@@CryptoPP@@UAEPAXI@Z:PROC ; CryptoPP::ConcretePolicyHolder<CryptoPP::Empty,CryptoPP::AdditiveCipherTemplate<CryptoPP::AbstractPolicyHolder<CryptoPP::AdditiveCipherAbstractPolicy,CryptoPP::CTR_ModePolicy> >,CryptoPP::AdditiveCipherAbstractPolicy>::`vector deleting destructor'
EXTRN	??0Filter@CryptoPP@@QAE@PAVBufferedTransformation@1@@Z:PROC ; CryptoPP::Filter::Filter
EXTRN	?AttachedTransformation@Filter@CryptoPP@@UAEPAVBufferedTransformation@2@XZ:PROC ; CryptoPP::Filter::AttachedTransformation
EXTRN	?AttachedTransformation@Filter@CryptoPP@@UBEPBVBufferedTransformation@2@XZ:PROC ; CryptoPP::Filter::AttachedTransformation
EXTRN	?Detach@Filter@CryptoPP@@UAEXPAVBufferedTransformation@2@@Z:PROC ; CryptoPP::Filter::Detach
EXTRN	?TransferTo2@Filter@CryptoPP@@UAEIAAVBufferedTransformation@2@AA_KABV?$basic_string@DU?$char_traits@D@std@@V?$allocator@D@2@@std@@_N@Z:PROC ; CryptoPP::Filter::TransferTo2
EXTRN	?CopyRangeTo2@Filter@CryptoPP@@UBEIAAVBufferedTransformation@2@AA_K_KABV?$basic_string@DU?$char_traits@D@std@@V?$allocator@D@2@@std@@_N@Z:PROC ; CryptoPP::Filter::CopyRangeTo2
EXTRN	?Initialize@Filter@CryptoPP@@UAEXABVNameValuePairs@2@H@Z:PROC ; CryptoPP::Filter::Initialize
EXTRN	?Flush@Filter@CryptoPP@@UAE_N_NH0@Z:PROC	; CryptoPP::Filter::Flush
EXTRN	?MessageSeriesEnd@Filter@CryptoPP@@UAE_NH_N@Z:PROC ; CryptoPP::Filter::MessageSeriesEnd
EXTRN	?NewDefaultAttachment@Filter@CryptoPP@@MBEPAVBufferedTransformation@2@XZ:PROC ; CryptoPP::Filter::NewDefaultAttachment
EXTRN	??0StreamTransformationFilter@CryptoPP@@QAE@AAVStreamTransformation@1@PAVBufferedTransformation@1@W4BlockPaddingScheme@BlockPaddingSchemeDef@1@_N@Z:PROC ; CryptoPP::StreamTransformationFilter::StreamTransformationFilter
EXTRN	??_E?$StringSinkTemplate@V?$basic_string@DU?$char_traits@D@std@@V?$allocator@D@2@@std@@@CryptoPP@@UAEPAXI@Z:PROC ; CryptoPP::StringSinkTemplate<std::basic_string<char,std::char_traits<char>,std::allocator<char> > >::`vector deleting destructor'
EXTRN	?TransferTo2@StringStore@CryptoPP@@UAEIAAVBufferedTransformation@2@AA_KABV?$basic_string@DU?$char_traits@D@std@@V?$allocator@D@2@@std@@_N@Z:PROC ; CryptoPP::StringStore::TransferTo2
EXTRN	?CopyRangeTo2@StringStore@CryptoPP@@UBEIAAVBufferedTransformation@2@AA_K_KABV?$basic_string@DU?$char_traits@D@std@@V?$allocator@D@2@@std@@_N@Z:PROC ; CryptoPP::StringStore::CopyRangeTo2
EXTRN	?StoreInitialize@StringStore@CryptoPP@@EAEXABVNameValuePairs@2@@Z:PROC ; CryptoPP::StringStore::StoreInitialize
EXTRN	??_EStringStore@CryptoPP@@UAEPAXI@Z:PROC	; CryptoPP::StringStore::`vector deleting destructor'
EXTRN	??_E?$SourceTemplate@VStringStore@CryptoPP@@@CryptoPP@@UAEPAXI@Z:PROC ; CryptoPP::SourceTemplate<CryptoPP::StringStore>::`vector deleting destructor'
EXTRN	??_EStringSource@CryptoPP@@UAEPAXI@Z:PROC	; CryptoPP::StringSource::`vector deleting destructor'
EXTRN	??0RandomPool@CryptoPP@@QAE@XZ:PROC		; CryptoPP::RandomPool::RandomPool
EXTRN	?IncorporateEntropy@RandomPool@CryptoPP@@UAEXPBEI@Z:PROC ; CryptoPP::RandomPool::IncorporateEntropy
EXTRN	?GenerateIntoBufferedTransformation@RandomPool@CryptoPP@@UAEXAAVBufferedTransformation@2@ABV?$basic_string@DU?$char_traits@D@std@@V?$allocator@D@2@@std@@_K@Z:PROC ; CryptoPP::RandomPool::GenerateIntoBufferedTransformation
EXTRN	?Reseed@AutoSeededRandomPool@CryptoPP@@QAEX_NI@Z:PROC ; CryptoPP::AutoSeededRandomPool::Reseed
EXTRN	??_EAutoSeededRandomPool@CryptoPP@@UAEPAXI@Z:PROC ; CryptoPP::AutoSeededRandomPool::`vector deleting destructor'
EXTRN	??_E?$BlockCipherFinal@$0A@VBase@Camellia@CryptoPP@@@CryptoPP@@UAEPAXI@Z:PROC ; CryptoPP::BlockCipherFinal<0,CryptoPP::Camellia::Base>::`vector deleting destructor'
