; Listing generated by Microsoft (R) Optimizing Compiler Version 19.28.29335.0 

	TITLE	D:\Metin2 Server Files\mainline\SRC_2014\Metin2Client\SphereLib\frustum.cpp
	.686P
	.XMM
	include listing.inc
	.model	flat

INCLUDELIB LIBCMT
INCLUDELIB OLDNAMES

PUBLIC	?BuildViewFrustum@Frustum@@QAEXAAUD3DXMATRIX@@@Z ; Frustum::BuildViewFrustum
PUBLIC	?BuildViewFrustum2@Frustum@@QAEXAAUD3DXMATRIX@@MMMMABUD3DXVECTOR3@@1@Z ; Frustum::BuildViewFrustum2
PUBLIC	?ViewVolumeTest@Frustum@@QBE?AW4ViewState@@ABVVector3d@@M@Z ; Frustum::ViewVolumeTest
PUBLIC	__real@3f000000
PUBLIC	__xmm@80000000800000008000000080000000
EXTRN	_sqrt:PROC
EXTRN	_tan:PROC
EXTRN	_D3DXPlaneNormalize@8:PROC
EXTRN	@__security_check_cookie@4:PROC
EXTRN	___security_cookie:DWORD
EXTRN	__fltused:DWORD
;	COMDAT __xmm@80000000800000008000000080000000
CONST	SEGMENT
__xmm@80000000800000008000000080000000 DB 00H, 00H, 00H, 080H, 00H, 00H, 00H
	DB	080H, 00H, 00H, 00H, 080H, 00H, 00H, 00H, 080H
CONST	ENDS
;	COMDAT __real@3f000000
CONST	SEGMENT
__real@3f000000 DD 03f000000r			; 0.5
CONST	ENDS
; Function compile flags: /Odspy
; File D:\Metin2 Server Files\mainline\SRC_2014\Metin2Client\SphereLib\frustum.cpp
; File D:\Metin2 Server Files\mainline\SRC_2014\M2Data\include\d3dx8math.inl
; File D:\Metin2 Server Files\mainline\SRC_2014\Metin2Client\SphereLib\frustum.cpp
; File D:\Metin2 Server Files\mainline\SRC_2014\M2Data\include\d3dx8math.inl
; File D:\Metin2 Server Files\mainline\SRC_2014\Metin2Client\SphereLib\frustum.cpp
;	COMDAT ?ViewVolumeTest@Frustum@@QBE?AW4ViewState@@ABVVector3d@@M@Z
_TEXT	SEGMENT
_count$ = -88						; size = 4
$T1 = -84						; size = 4
$T2 = -80						; size = 4
_fz$ = -76						; size = 4
_fy$ = -72						; size = 4
_fx$ = -68						; size = 4
_pP$ = -64						; size = 4
_this$ = -60						; size = 4
_i$ = -56						; size = 4
_center$ = -52						; size = 12
_v$3 = -40						; size = 12
_distance$ = -28					; size = 24
__$ArrayPad$ = -4					; size = 4
_c_v3Center$ = 8					; size = 4
_c_fRadius$ = 12					; size = 4
?ViewVolumeTest@Frustum@@QBE?AW4ViewState@@ABVVector3d@@M@Z PROC ; Frustum::ViewVolumeTest, COMDAT
; _this$ = ecx

; 26   : {

  00000	55		 push	 ebp
  00001	8b ec		 mov	 ebp, esp
  00003	83 ec 58	 sub	 esp, 88			; 00000058H
  00006	a1 00 00 00 00	 mov	 eax, DWORD PTR ___security_cookie
  0000b	33 c5		 xor	 eax, ebp
  0000d	89 45 fc	 mov	 DWORD PTR __$ArrayPad$[ebp], eax
  00010	56		 push	 esi
  00011	57		 push	 edi
  00012	89 4d c4	 mov	 DWORD PTR _this$[ebp], ecx

; 27   : 	if (m_bUsingSphere)

  00015	8b 45 c4	 mov	 eax, DWORD PTR _this$[ebp]
  00018	0f b6 00	 movzx	 eax, BYTE PTR [eax]
  0001b	85 c0		 test	 eax, eax
  0001d	0f 84 b7 00 00
	00		 je	 $LN9@ViewVolume

; 28   : 	{
; 29   : 		D3DXVECTOR3 v(

  00023	8b 45 08	 mov	 eax, DWORD PTR _c_v3Center$[ebp]
  00026	8b 4d c4	 mov	 ecx, DWORD PTR _this$[ebp]
  00029	f3 0f 10 00	 movss	 xmm0, DWORD PTR [eax]
  0002d	f3 0f 5c 41 04	 subss	 xmm0, DWORD PTR [ecx+4]
  00032	f3 0f 11 45 bc	 movss	 DWORD PTR _fx$[ebp], xmm0
  00037	8b 45 08	 mov	 eax, DWORD PTR _c_v3Center$[ebp]
  0003a	8b 4d c4	 mov	 ecx, DWORD PTR _this$[ebp]
  0003d	f3 0f 10 40 04	 movss	 xmm0, DWORD PTR [eax+4]
  00042	f3 0f 5c 41 08	 subss	 xmm0, DWORD PTR [ecx+8]
  00047	f3 0f 11 45 b8	 movss	 DWORD PTR _fy$[ebp], xmm0
  0004c	8b 45 08	 mov	 eax, DWORD PTR _c_v3Center$[ebp]
  0004f	8b 4d c4	 mov	 ecx, DWORD PTR _this$[ebp]
  00052	f3 0f 10 40 08	 movss	 xmm0, DWORD PTR [eax+8]
  00057	f3 0f 5c 41 0c	 subss	 xmm0, DWORD PTR [ecx+12]
  0005c	f3 0f 11 45 b4	 movss	 DWORD PTR _fz$[ebp], xmm0
; File D:\Metin2 Server Files\mainline\SRC_2014\M2Data\include\d3dx8math.inl

; 180  :     x = fx;

  00061	f3 0f 10 45 bc	 movss	 xmm0, DWORD PTR _fx$[ebp]
  00066	f3 0f 11 45 d8	 movss	 DWORD PTR _v$3[ebp], xmm0

; 181  :     y = fy;

  0006b	f3 0f 10 45 b8	 movss	 xmm0, DWORD PTR _fy$[ebp]
  00070	f3 0f 11 45 dc	 movss	 DWORD PTR _v$3[ebp+4], xmm0

; 182  :     z = fz;

  00075	f3 0f 10 45 b4	 movss	 xmm0, DWORD PTR _fz$[ebp]
  0007a	f3 0f 11 45 e0	 movss	 DWORD PTR _v$3[ebp+8], xmm0

; 1253 :     return pV->x * pV->x + pV->y * pV->y + pV->z * pV->z;

  0007f	f3 0f 10 45 d8	 movss	 xmm0, DWORD PTR _v$3[ebp]
  00084	f3 0f 59 45 d8	 mulss	 xmm0, DWORD PTR _v$3[ebp]
  00089	f3 0f 10 4d dc	 movss	 xmm1, DWORD PTR _v$3[ebp+4]
  0008e	f3 0f 59 4d dc	 mulss	 xmm1, DWORD PTR _v$3[ebp+4]
  00093	f3 0f 58 c1	 addss	 xmm0, xmm1
  00097	f3 0f 10 4d e0	 movss	 xmm1, DWORD PTR _v$3[ebp+8]
  0009c	f3 0f 59 4d e0	 mulss	 xmm1, DWORD PTR _v$3[ebp+8]
  000a1	f3 0f 58 c1	 addss	 xmm0, xmm1
  000a5	f3 0f 11 45 b0	 movss	 DWORD PTR $T2[ebp], xmm0
; File D:\Metin2 Server Files\mainline\SRC_2014\Metin2Client\SphereLib\frustum.cpp

; 34   : 		if ((c_fRadius + m_fRadius) * (c_fRadius + m_fRadius) < D3DXVec3LengthSq(&v))

  000aa	8b 45 c4	 mov	 eax, DWORD PTR _this$[ebp]
  000ad	f3 0f 10 45 0c	 movss	 xmm0, DWORD PTR _c_fRadius$[ebp]
  000b2	f3 0f 58 40 10	 addss	 xmm0, DWORD PTR [eax+16]
  000b7	8b 45 c4	 mov	 eax, DWORD PTR _this$[ebp]
  000ba	f3 0f 10 4d 0c	 movss	 xmm1, DWORD PTR _c_fRadius$[ebp]
  000bf	f3 0f 58 48 10	 addss	 xmm1, DWORD PTR [eax+16]
  000c4	f3 0f 59 c1	 mulss	 xmm0, xmm1
  000c8	f3 0f 10 4d b0	 movss	 xmm1, DWORD PTR $T2[ebp]
  000cd	0f 2f c8	 comiss	 xmm1, xmm0
  000d0	76 08		 jbe	 SHORT $LN9@ViewVolume

; 35   : 		{
; 36   : 			return VS_OUTSIDE;

  000d2	6a 02		 push	 2
  000d4	58		 pop	 eax
  000d5	e9 c7 00 00 00	 jmp	 $LN1@ViewVolume
$LN9@ViewVolume:

; 37   : 		}
; 38   : 	}	
; 39   : 	
; 40   : 	const int count=6;

  000da	c7 45 a8 06 00
	00 00		 mov	 DWORD PTR _count$[ebp], 6

; 41   : 
; 42   : 	D3DXVECTOR3 center = c_v3Center;

  000e1	8b 75 08	 mov	 esi, DWORD PTR _c_v3Center$[ebp]
  000e4	8d 7d cc	 lea	 edi, DWORD PTR _center$[ebp]
  000e7	a5		 movsd
  000e8	a5		 movsd
  000e9	a5		 movsd

; 43   : 	//center.y *=-1;
; 44   : 
; 45   : 	int i;
; 46   : 
; 47   : 	float distance[count];
; 48   : 	for(i=0;i<count;i++)

  000ea	83 65 c8 00	 and	 DWORD PTR _i$[ebp], 0
  000ee	eb 07		 jmp	 SHORT $LN4@ViewVolume
$LN2@ViewVolume:
  000f0	8b 45 c8	 mov	 eax, DWORD PTR _i$[ebp]
  000f3	40		 inc	 eax
  000f4	89 45 c8	 mov	 DWORD PTR _i$[ebp], eax
$LN4@ViewVolume:
  000f7	83 7d c8 06	 cmp	 DWORD PTR _i$[ebp], 6
  000fb	7d 79		 jge	 SHORT $LN3@ViewVolume

; 50   : 		distance[i] = D3DXPlaneDotCoord(&m_plane[i],&center);

  000fd	8b 45 c8	 mov	 eax, DWORD PTR _i$[ebp]
  00100	c1 e0 04	 shl	 eax, 4
  00103	8b 4d c4	 mov	 ecx, DWORD PTR _this$[ebp]
  00106	8d 44 01 14	 lea	 eax, DWORD PTR [ecx+eax+20]
  0010a	89 45 c0	 mov	 DWORD PTR _pP$[ebp], eax
; File D:\Metin2 Server Files\mainline\SRC_2014\M2Data\include\d3dx8math.inl

; 1647 :     return pP->a * pV->x + pP->b * pV->y + pP->c * pV->z + pP->d;

  0010d	8b 45 c0	 mov	 eax, DWORD PTR _pP$[ebp]
  00110	f3 0f 10 00	 movss	 xmm0, DWORD PTR [eax]
  00114	f3 0f 59 45 cc	 mulss	 xmm0, DWORD PTR _center$[ebp]
  00119	8b 45 c0	 mov	 eax, DWORD PTR _pP$[ebp]
  0011c	f3 0f 10 48 04	 movss	 xmm1, DWORD PTR [eax+4]
  00121	f3 0f 59 4d d0	 mulss	 xmm1, DWORD PTR _center$[ebp+4]
  00126	f3 0f 58 c1	 addss	 xmm0, xmm1
  0012a	8b 45 c0	 mov	 eax, DWORD PTR _pP$[ebp]
  0012d	f3 0f 10 48 08	 movss	 xmm1, DWORD PTR [eax+8]
  00132	f3 0f 59 4d d4	 mulss	 xmm1, DWORD PTR _center$[ebp+8]
  00137	f3 0f 58 c1	 addss	 xmm0, xmm1
  0013b	8b 45 c0	 mov	 eax, DWORD PTR _pP$[ebp]
  0013e	f3 0f 58 40 0c	 addss	 xmm0, DWORD PTR [eax+12]
  00143	f3 0f 11 45 ac	 movss	 DWORD PTR $T1[ebp], xmm0
; File D:\Metin2 Server Files\mainline\SRC_2014\Metin2Client\SphereLib\frustum.cpp

; 50   : 		distance[i] = D3DXPlaneDotCoord(&m_plane[i],&center);

  00148	f3 0f 10 45 ac	 movss	 xmm0, DWORD PTR $T1[ebp]
  0014d	8b 45 c8	 mov	 eax, DWORD PTR _i$[ebp]
  00150	f3 0f 11 44 85
	e4		 movss	 DWORD PTR _distance$[ebp+eax*4], xmm0

; 51   : 		if (distance[i]<=-c_fRadius) 

  00156	f3 0f 10 45 0c	 movss	 xmm0, DWORD PTR _c_fRadius$[ebp]
  0015b	0f 57 05 00 00
	00 00		 xorps	 xmm0, DWORD PTR __xmm@80000000800000008000000080000000
  00162	8b 45 c8	 mov	 eax, DWORD PTR _i$[ebp]
  00165	0f 2f 44 85 e4	 comiss	 xmm0, DWORD PTR _distance$[ebp+eax*4]
  0016a	72 05		 jb	 SHORT $LN10@ViewVolume

; 52   : 			return VS_OUTSIDE;

  0016c	6a 02		 push	 2
  0016e	58		 pop	 eax
  0016f	eb 30		 jmp	 SHORT $LN1@ViewVolume
$LN10@ViewVolume:

; 53   : 	}

  00171	e9 7a ff ff ff	 jmp	 $LN2@ViewVolume
$LN3@ViewVolume:

; 54   : 
; 55   : 	//return VS_INSIDE;
; 56   : 
; 57   : 	for(i=0;i<count;i++)

  00176	83 65 c8 00	 and	 DWORD PTR _i$[ebp], 0
  0017a	eb 07		 jmp	 SHORT $LN7@ViewVolume
$LN5@ViewVolume:
  0017c	8b 45 c8	 mov	 eax, DWORD PTR _i$[ebp]
  0017f	40		 inc	 eax
  00180	89 45 c8	 mov	 DWORD PTR _i$[ebp], eax
$LN7@ViewVolume:
  00183	83 7d c8 06	 cmp	 DWORD PTR _i$[ebp], 6
  00187	7d 16		 jge	 SHORT $LN6@ViewVolume

; 58   : 	{
; 59   : 		if (distance[i]<=c_fRadius) 

  00189	8b 45 c8	 mov	 eax, DWORD PTR _i$[ebp]
  0018c	f3 0f 10 45 0c	 movss	 xmm0, DWORD PTR _c_fRadius$[ebp]
  00191	0f 2f 44 85 e4	 comiss	 xmm0, DWORD PTR _distance$[ebp+eax*4]
  00196	72 05		 jb	 SHORT $LN11@ViewVolume

; 60   : 			return VS_PARTIAL;

  00198	33 c0		 xor	 eax, eax
  0019a	40		 inc	 eax
  0019b	eb 04		 jmp	 SHORT $LN1@ViewVolume
$LN11@ViewVolume:

; 61   : 	}

  0019d	eb dd		 jmp	 SHORT $LN5@ViewVolume
$LN6@ViewVolume:

; 62   : 	
; 63   : 	return VS_INSIDE;

  0019f	33 c0		 xor	 eax, eax
$LN1@ViewVolume:

; 64   : }

  001a1	5f		 pop	 edi
  001a2	5e		 pop	 esi
  001a3	8b 4d fc	 mov	 ecx, DWORD PTR __$ArrayPad$[ebp]
  001a6	33 cd		 xor	 ecx, ebp
  001a8	e8 00 00 00 00	 call	 @__security_check_cookie@4
  001ad	c9		 leave
  001ae	c2 08 00	 ret	 8
?ViewVolumeTest@Frustum@@QBE?AW4ViewState@@ABVVector3d@@M@Z ENDP ; Frustum::ViewVolumeTest
_TEXT	ENDS
; Function compile flags: /Odspy
; File D:\Metin2 Server Files\mainline\SRC_2014\Metin2Client\SphereLib\frustum.cpp
; File D:\Metin2 Server Files\mainline\SRC_2014\M2Data\include\d3dx8math.inl
; File D:\Metin2 Server Files\mainline\SRC_2014\Metin2Client\SphereLib\frustum.cpp
; File D:\Metin2 Server Files\mainline\SRC_2014\M2Data\include\d3dx8math.inl
; File C:\Program Files (x86)\Windows Kits\10\Include\10.0.18362.0\ucrt\corecrt_math.h
; File D:\Metin2 Server Files\mainline\SRC_2014\M2Data\include\d3dx8math.inl
; File D:\Metin2 Server Files\mainline\SRC_2014\Metin2Client\SphereLib\frustum.cpp
; File D:\Metin2 Server Files\mainline\SRC_2014\M2Data\include\d3dx8math.inl
; File D:\Metin2 Server Files\mainline\SRC_2014\Metin2Client\SphereLib\frustum.cpp
;	COMDAT ?BuildViewFrustum2@Frustum@@QAEXAAUD3DXMATRIX@@MMMMABUD3DXVECTOR3@@1@Z
_TEXT	SEGMENT
tv334 = -56						; size = 8
tv462 = -48						; size = 8
_fz$ = -40						; size = 4
_fy$ = -36						; size = 4
_fx$ = -32						; size = 4
_fz$ = -28						; size = 4
_fy$ = -24						; size = 4
_fx$ = -20						; size = 4
$T1 = -16						; size = 4
$T2 = -12						; size = 4
__X$ = -8						; size = 4
_fz$ = -4						; size = 4
_fy$ = 0						; size = 4
_fx$ = 4						; size = 4
_fW$ = 8						; size = 4
_fH$ = 12						; size = 4
_f$ = 16						; size = 4
_this$ = 20						; size = 4
_fViewLen$ = 24						; size = 4
$T3 = 28						; size = 12
$T4 = 40						; size = 12
_Q$ = 52						; size = 12
_P$ = 64						; size = 12
_PQ$ = 76						; size = 12
__$ArrayPad$ = 88					; size = 4
_mat$ = 100						; size = 4
_fNear$ = 104						; size = 4
_fFar$ = 108						; size = 4
_fFov$ = 112						; size = 4
_fAspect$ = 116						; size = 4
_vCamera$ = 120						; size = 4
_vLook$ = 124						; size = 4
?BuildViewFrustum2@Frustum@@QAEXAAUD3DXMATRIX@@MMMMABUD3DXVECTOR3@@1@Z PROC ; Frustum::BuildViewFrustum2, COMDAT
; _this$ = ecx

; 82   : {

  00000	55		 push	 ebp
  00001	8d 6c 24 a4	 lea	 ebp, DWORD PTR [esp-92]
  00005	81 ec 94 00 00
	00		 sub	 esp, 148		; 00000094H
  0000b	a1 00 00 00 00	 mov	 eax, DWORD PTR ___security_cookie
  00010	33 c5		 xor	 eax, ebp
  00012	89 45 58	 mov	 DWORD PTR __$ArrayPad$[ebp], eax
  00015	56		 push	 esi
  00016	57		 push	 edi
  00017	89 4d 14	 mov	 DWORD PTR _this$[ebp], ecx

; 83   : 	float fViewLen = fFar-fNear;

  0001a	f3 0f 10 45 6c	 movss	 xmm0, DWORD PTR _fFar$[ebp]
  0001f	f3 0f 5c 45 68	 subss	 xmm0, DWORD PTR _fNear$[ebp]
  00024	f3 0f 11 45 18	 movss	 DWORD PTR _fViewLen$[ebp], xmm0

; 84   : 	float fH = fViewLen * tan(fFov*0.5f);

  00029	f3 0f 5a 45 18	 cvtss2sd xmm0, DWORD PTR _fViewLen$[ebp]
  0002e	f3 0f 10 4d 70	 movss	 xmm1, DWORD PTR _fFov$[ebp]
  00033	f3 0f 59 0d 00
	00 00 00	 mulss	 xmm1, DWORD PTR __real@3f000000
  0003b	f3 0f 5a c9	 cvtss2sd xmm1, xmm1
  0003f	51		 push	 ecx
  00040	51		 push	 ecx
  00041	f2 0f 11 0c 24	 movsd	 QWORD PTR [esp], xmm1
  00046	f2 0f 11 45 d0	 movsd	 QWORD PTR tv462[ebp], xmm0
  0004b	e8 00 00 00 00	 call	 _tan
  00050	59		 pop	 ecx
  00051	59		 pop	 ecx
  00052	dd 5d c8	 fstp	 QWORD PTR tv334[ebp]
  00055	f2 0f 10 45 d0	 movsd	 xmm0, QWORD PTR tv462[ebp]
  0005a	f2 0f 59 45 c8	 mulsd	 xmm0, QWORD PTR tv334[ebp]
  0005f	f2 0f 5a c0	 cvtsd2ss xmm0, xmm0
  00063	f3 0f 11 45 0c	 movss	 DWORD PTR _fH$[ebp], xmm0

; 85   : 	float fW = fH*fAspect;

  00068	f3 0f 10 45 0c	 movss	 xmm0, DWORD PTR _fH$[ebp]
  0006d	f3 0f 59 45 74	 mulss	 xmm0, DWORD PTR _fAspect$[ebp]
  00072	f3 0f 11 45 08	 movss	 DWORD PTR _fW$[ebp], xmm0
; File D:\Metin2 Server Files\mainline\SRC_2014\M2Data\include\d3dx8math.inl

; 180  :     x = fx;

  00077	0f 57 c0	 xorps	 xmm0, xmm0
  0007a	f3 0f 11 45 40	 movss	 DWORD PTR _P$[ebp], xmm0

; 181  :     y = fy;

  0007f	0f 57 c0	 xorps	 xmm0, xmm0
  00082	f3 0f 11 45 44	 movss	 DWORD PTR _P$[ebp+4], xmm0
; File D:\Metin2 Server Files\mainline\SRC_2014\Metin2Client\SphereLib\frustum.cpp

; 86   : 	D3DXVECTOR3 P(0.0f, 0.0f, fNear+fViewLen*0.5f);

  00087	f3 0f 10 45 18	 movss	 xmm0, DWORD PTR _fViewLen$[ebp]
  0008c	f3 0f 59 05 00
	00 00 00	 mulss	 xmm0, DWORD PTR __real@3f000000
  00094	f3 0f 58 45 68	 addss	 xmm0, DWORD PTR _fNear$[ebp]
; File D:\Metin2 Server Files\mainline\SRC_2014\M2Data\include\d3dx8math.inl

; 182  :     z = fz;

  00099	f3 0f 11 45 48	 movss	 DWORD PTR _P$[ebp+8], xmm0

; 180  :     x = fx;

  0009e	f3 0f 10 45 08	 movss	 xmm0, DWORD PTR _fW$[ebp]
  000a3	f3 0f 11 45 34	 movss	 DWORD PTR _Q$[ebp], xmm0

; 181  :     y = fy;

  000a8	f3 0f 10 45 0c	 movss	 xmm0, DWORD PTR _fH$[ebp]
  000ad	f3 0f 11 45 38	 movss	 DWORD PTR _Q$[ebp+4], xmm0

; 182  :     z = fz;

  000b2	f3 0f 10 45 18	 movss	 xmm0, DWORD PTR _fViewLen$[ebp]
  000b7	f3 0f 11 45 3c	 movss	 DWORD PTR _Q$[ebp+8], xmm0

; 263  :     return D3DXVECTOR3(x - v.x, y - v.y, z - v.z);

  000bc	f3 0f 10 45 40	 movss	 xmm0, DWORD PTR _P$[ebp]
  000c1	f3 0f 5c 45 34	 subss	 xmm0, DWORD PTR _Q$[ebp]
  000c6	f3 0f 11 45 04	 movss	 DWORD PTR _fx$[ebp], xmm0
  000cb	f3 0f 10 45 44	 movss	 xmm0, DWORD PTR _P$[ebp+4]
  000d0	f3 0f 5c 45 38	 subss	 xmm0, DWORD PTR _Q$[ebp+4]
  000d5	f3 0f 11 45 00	 movss	 DWORD PTR _fy$[ebp], xmm0
  000da	f3 0f 10 45 48	 movss	 xmm0, DWORD PTR _P$[ebp+8]
  000df	f3 0f 5c 45 3c	 subss	 xmm0, DWORD PTR _Q$[ebp+8]
  000e4	f3 0f 11 45 fc	 movss	 DWORD PTR _fz$[ebp], xmm0

; 180  :     x = fx;

  000e9	f3 0f 10 45 04	 movss	 xmm0, DWORD PTR _fx$[ebp]
  000ee	f3 0f 11 45 4c	 movss	 DWORD PTR _PQ$[ebp], xmm0

; 181  :     y = fy;

  000f3	f3 0f 10 45 00	 movss	 xmm0, DWORD PTR _fy$[ebp]
  000f8	f3 0f 11 45 50	 movss	 DWORD PTR _PQ$[ebp+4], xmm0

; 182  :     z = fz;

  000fd	f3 0f 10 45 fc	 movss	 xmm0, DWORD PTR _fz$[ebp]
  00102	f3 0f 11 45 54	 movss	 DWORD PTR _PQ$[ebp+8], xmm0

; 1239 :     return sqrtf(pV->x * pV->x + pV->y * pV->y + pV->z * pV->z);

  00107	f3 0f 10 45 54	 movss	 xmm0, DWORD PTR _PQ$[ebp+8]
  0010c	f3 0f 59 45 54	 mulss	 xmm0, DWORD PTR _PQ$[ebp+8]
  00111	f3 0f 10 4d 50	 movss	 xmm1, DWORD PTR _PQ$[ebp+4]
  00116	f3 0f 59 4d 50	 mulss	 xmm1, DWORD PTR _PQ$[ebp+4]
  0011b	f3 0f 10 55 4c	 movss	 xmm2, DWORD PTR _PQ$[ebp]
  00120	f3 0f 59 55 4c	 mulss	 xmm2, DWORD PTR _PQ$[ebp]
  00125	f3 0f 58 d1	 addss	 xmm2, xmm1
  00129	f3 0f 58 d0	 addss	 xmm2, xmm0
  0012d	f3 0f 11 55 f8	 movss	 DWORD PTR __X$[ebp], xmm2
; File C:\Program Files (x86)\Windows Kits\10\Include\10.0.18362.0\ucrt\corecrt_math.h

; 760  :             return (float)sqrt(_X);

  00132	f3 0f 5a 45 f8	 cvtss2sd xmm0, DWORD PTR __X$[ebp]
  00137	51		 push	 ecx
  00138	51		 push	 ecx
  00139	f2 0f 11 04 24	 movsd	 QWORD PTR [esp], xmm0
  0013e	e8 00 00 00 00	 call	 _sqrt
  00143	59		 pop	 ecx
  00144	59		 pop	 ecx
  00145	d9 5d f4	 fstp	 DWORD PTR $T2[ebp]
; File D:\Metin2 Server Files\mainline\SRC_2014\M2Data\include\d3dx8math.inl

; 1239 :     return sqrtf(pV->x * pV->x + pV->y * pV->y + pV->z * pV->z);

  00148	f3 0f 10 45 f4	 movss	 xmm0, DWORD PTR $T2[ebp]
  0014d	f3 0f 11 45 f0	 movss	 DWORD PTR $T1[ebp], xmm0
; File D:\Metin2 Server Files\mainline\SRC_2014\Metin2Client\SphereLib\frustum.cpp

; 89   : 	m_fRadius = D3DXVec3Length(&PQ);

  00152	f3 0f 10 45 f0	 movss	 xmm0, DWORD PTR $T1[ebp]
  00157	8b 45 14	 mov	 eax, DWORD PTR _this$[ebp]
  0015a	f3 0f 11 40 10	 movss	 DWORD PTR [eax+16], xmm0

; 90   : 	m_v3Center = vCamera + vLook * (fNear+fViewLen*0.5f);

  0015f	f3 0f 10 45 18	 movss	 xmm0, DWORD PTR _fViewLen$[ebp]
  00164	f3 0f 59 05 00
	00 00 00	 mulss	 xmm0, DWORD PTR __real@3f000000
  0016c	f3 0f 58 45 68	 addss	 xmm0, DWORD PTR _fNear$[ebp]
  00171	f3 0f 11 45 10	 movss	 DWORD PTR _f$[ebp], xmm0
; File D:\Metin2 Server Files\mainline\SRC_2014\M2Data\include\d3dx8math.inl

; 269  :     return D3DXVECTOR3(x * f, y * f, z * f);

  00176	8b 45 7c	 mov	 eax, DWORD PTR _vLook$[ebp]
  00179	f3 0f 10 00	 movss	 xmm0, DWORD PTR [eax]
  0017d	f3 0f 59 45 10	 mulss	 xmm0, DWORD PTR _f$[ebp]
  00182	f3 0f 11 45 ec	 movss	 DWORD PTR _fx$[ebp], xmm0
  00187	8b 45 7c	 mov	 eax, DWORD PTR _vLook$[ebp]
  0018a	f3 0f 10 40 04	 movss	 xmm0, DWORD PTR [eax+4]
  0018f	f3 0f 59 45 10	 mulss	 xmm0, DWORD PTR _f$[ebp]
  00194	f3 0f 11 45 e8	 movss	 DWORD PTR _fy$[ebp], xmm0
  00199	8b 45 7c	 mov	 eax, DWORD PTR _vLook$[ebp]
  0019c	f3 0f 10 40 08	 movss	 xmm0, DWORD PTR [eax+8]
  001a1	f3 0f 59 45 10	 mulss	 xmm0, DWORD PTR _f$[ebp]
  001a6	f3 0f 11 45 e4	 movss	 DWORD PTR _fz$[ebp], xmm0

; 180  :     x = fx;

  001ab	f3 0f 10 45 ec	 movss	 xmm0, DWORD PTR _fx$[ebp]
  001b0	f3 0f 11 45 28	 movss	 DWORD PTR $T4[ebp], xmm0

; 181  :     y = fy;

  001b5	f3 0f 10 45 e8	 movss	 xmm0, DWORD PTR _fy$[ebp]
  001ba	f3 0f 11 45 2c	 movss	 DWORD PTR $T4[ebp+4], xmm0

; 182  :     z = fz;

  001bf	f3 0f 10 45 e4	 movss	 xmm0, DWORD PTR _fz$[ebp]
  001c4	f3 0f 11 45 30	 movss	 DWORD PTR $T4[ebp+8], xmm0

; 257  :     return D3DXVECTOR3(x + v.x, y + v.y, z + v.z);

  001c9	8b 45 78	 mov	 eax, DWORD PTR _vCamera$[ebp]
  001cc	f3 0f 10 00	 movss	 xmm0, DWORD PTR [eax]
  001d0	f3 0f 58 45 28	 addss	 xmm0, DWORD PTR $T4[ebp]
  001d5	f3 0f 11 45 e0	 movss	 DWORD PTR _fx$[ebp], xmm0
  001da	8b 45 78	 mov	 eax, DWORD PTR _vCamera$[ebp]
  001dd	f3 0f 10 40 04	 movss	 xmm0, DWORD PTR [eax+4]
  001e2	f3 0f 58 45 2c	 addss	 xmm0, DWORD PTR $T4[ebp+4]
  001e7	f3 0f 11 45 dc	 movss	 DWORD PTR _fy$[ebp], xmm0
  001ec	8b 45 78	 mov	 eax, DWORD PTR _vCamera$[ebp]
  001ef	f3 0f 10 40 08	 movss	 xmm0, DWORD PTR [eax+8]
  001f4	f3 0f 58 45 30	 addss	 xmm0, DWORD PTR $T4[ebp+8]
  001f9	f3 0f 11 45 d8	 movss	 DWORD PTR _fz$[ebp], xmm0

; 180  :     x = fx;

  001fe	f3 0f 10 45 e0	 movss	 xmm0, DWORD PTR _fx$[ebp]
  00203	f3 0f 11 45 1c	 movss	 DWORD PTR $T3[ebp], xmm0

; 181  :     y = fy;

  00208	f3 0f 10 45 dc	 movss	 xmm0, DWORD PTR _fy$[ebp]
  0020d	f3 0f 11 45 20	 movss	 DWORD PTR $T3[ebp+4], xmm0

; 182  :     z = fz;

  00212	f3 0f 10 45 d8	 movss	 xmm0, DWORD PTR _fz$[ebp]
  00217	f3 0f 11 45 24	 movss	 DWORD PTR $T3[ebp+8], xmm0
; File D:\Metin2 Server Files\mainline\SRC_2014\Metin2Client\SphereLib\frustum.cpp

; 90   : 	m_v3Center = vCamera + vLook * (fNear+fViewLen*0.5f);

  0021c	8b 7d 14	 mov	 edi, DWORD PTR _this$[ebp]
  0021f	83 c7 04	 add	 edi, 4
  00222	8d 75 1c	 lea	 esi, DWORD PTR $T3[ebp]
  00225	a5		 movsd
  00226	a5		 movsd
  00227	a5		 movsd

; 91   : 	BuildViewFrustum(mat);

  00228	ff 75 64	 push	 DWORD PTR _mat$[ebp]
  0022b	8b 4d 14	 mov	 ecx, DWORD PTR _this$[ebp]
  0022e	e8 00 00 00 00	 call	 ?BuildViewFrustum@Frustum@@QAEXAAUD3DXMATRIX@@@Z ; Frustum::BuildViewFrustum

; 92   : 	m_bUsingSphere = true;

  00233	8b 45 14	 mov	 eax, DWORD PTR _this$[ebp]
  00236	c6 00 01	 mov	 BYTE PTR [eax], 1

; 93   : }

  00239	5f		 pop	 edi
  0023a	5e		 pop	 esi
  0023b	8b 4d 58	 mov	 ecx, DWORD PTR __$ArrayPad$[ebp]
  0023e	33 cd		 xor	 ecx, ebp
  00240	e8 00 00 00 00	 call	 @__security_check_cookie@4
  00245	83 c5 5c	 add	 ebp, 92			; 0000005cH
  00248	c9		 leave
  00249	c2 1c 00	 ret	 28			; 0000001cH
?BuildViewFrustum2@Frustum@@QAEXAAUD3DXMATRIX@@MMMMABUD3DXVECTOR3@@1@Z ENDP ; Frustum::BuildViewFrustum2
_TEXT	ENDS
; Function compile flags: /Odspy
; File D:\Metin2 Server Files\mainline\SRC_2014\Metin2Client\SphereLib\frustum.cpp
; File D:\Metin2 Server Files\mainline\SRC_2014\M2Data\include\d3dx8math.inl
; File D:\Metin2 Server Files\mainline\SRC_2014\Metin2Client\SphereLib\frustum.cpp
; File D:\Metin2 Server Files\mainline\SRC_2014\M2Data\include\d3dx8math.inl
; File D:\Metin2 Server Files\mainline\SRC_2014\Metin2Client\SphereLib\frustum.cpp
; File D:\Metin2 Server Files\mainline\SRC_2014\M2Data\include\d3dx8math.inl
; File D:\Metin2 Server Files\mainline\SRC_2014\Metin2Client\SphereLib\frustum.cpp
; File D:\Metin2 Server Files\mainline\SRC_2014\M2Data\include\d3dx8math.inl
; File D:\Metin2 Server Files\mainline\SRC_2014\Metin2Client\SphereLib\frustum.cpp
; File D:\Metin2 Server Files\mainline\SRC_2014\M2Data\include\d3dx8math.inl
; File D:\Metin2 Server Files\mainline\SRC_2014\Metin2Client\SphereLib\frustum.cpp
; File D:\Metin2 Server Files\mainline\SRC_2014\M2Data\include\d3dx8math.inl
; File D:\Metin2 Server Files\mainline\SRC_2014\Metin2Client\SphereLib\frustum.cpp
;	COMDAT ?BuildViewFrustum@Frustum@@QAEXAAUD3DXMATRIX@@@Z
_TEXT	SEGMENT
$T1 = -84						; size = 16
$T2 = -68						; size = 16
$T3 = -52						; size = 16
$T4 = -36						; size = 16
$T5 = -20						; size = 16
$T6 = -4						; size = 16
_fd$ = 12						; size = 4
_fc$ = 16						; size = 4
_fb$ = 20						; size = 4
_fa$ = 24						; size = 4
_fd$ = 28						; size = 4
_fc$ = 32						; size = 4
_fb$ = 36						; size = 4
_fa$ = 40						; size = 4
_fd$ = 44						; size = 4
_fc$ = 48						; size = 4
_fb$ = 52						; size = 4
_fa$ = 56						; size = 4
_fd$ = 60						; size = 4
_fc$ = 64						; size = 4
_fb$ = 68						; size = 4
_fa$ = 72						; size = 4
_fd$ = 76						; size = 4
_fc$ = 80						; size = 4
_fb$ = 84						; size = 4
_fa$ = 88						; size = 4
_fd$ = 92						; size = 4
_fc$ = 96						; size = 4
_fb$ = 100						; size = 4
_fa$ = 104						; size = 4
_i$7 = 108						; size = 4
_this$ = 112						; size = 4
_mat$ = 124						; size = 4
?BuildViewFrustum@Frustum@@QAEXAAUD3DXMATRIX@@@Z PROC	; Frustum::BuildViewFrustum, COMDAT
; _this$ = ecx

; 67   : {

  00000	55		 push	 ebp
  00001	8d 6c 24 8c	 lea	 ebp, DWORD PTR [esp-116]
  00005	81 ec c8 00 00
	00		 sub	 esp, 200		; 000000c8H
  0000b	56		 push	 esi
  0000c	57		 push	 edi
  0000d	89 4d 70	 mov	 DWORD PTR _this$[ebp], ecx

; 68   : 	m_bUsingSphere = false;

  00010	8b 45 70	 mov	 eax, DWORD PTR _this$[ebp]
  00013	c6 00 00	 mov	 BYTE PTR [eax], 0

; 69   : 	m_plane[0] = D3DXPLANE(          mat._13,           mat._23,           mat._33,           mat._43);

  00016	8b 45 7c	 mov	 eax, DWORD PTR _mat$[ebp]
  00019	f3 0f 10 40 08	 movss	 xmm0, DWORD PTR [eax+8]
  0001e	f3 0f 11 45 68	 movss	 DWORD PTR _fa$[ebp], xmm0
  00023	8b 45 7c	 mov	 eax, DWORD PTR _mat$[ebp]
  00026	f3 0f 10 40 18	 movss	 xmm0, DWORD PTR [eax+24]
  0002b	f3 0f 11 45 64	 movss	 DWORD PTR _fb$[ebp], xmm0
  00030	8b 45 7c	 mov	 eax, DWORD PTR _mat$[ebp]
  00033	f3 0f 10 40 28	 movss	 xmm0, DWORD PTR [eax+40]
  00038	f3 0f 11 45 60	 movss	 DWORD PTR _fc$[ebp], xmm0
  0003d	8b 45 7c	 mov	 eax, DWORD PTR _mat$[ebp]
  00040	f3 0f 10 40 38	 movss	 xmm0, DWORD PTR [eax+56]
  00045	f3 0f 11 45 5c	 movss	 DWORD PTR _fd$[ebp], xmm0
; File D:\Metin2 Server Files\mainline\SRC_2014\M2Data\include\d3dx8math.inl

; 829  :     a = fa;

  0004a	f3 0f 10 45 68	 movss	 xmm0, DWORD PTR _fa$[ebp]
  0004f	f3 0f 11 45 fc	 movss	 DWORD PTR $T6[ebp], xmm0

; 830  :     b = fb;

  00054	f3 0f 10 45 64	 movss	 xmm0, DWORD PTR _fb$[ebp]
  00059	f3 0f 11 45 00	 movss	 DWORD PTR $T6[ebp+4], xmm0

; 831  :     c = fc;

  0005e	f3 0f 10 45 60	 movss	 xmm0, DWORD PTR _fc$[ebp]
  00063	f3 0f 11 45 04	 movss	 DWORD PTR $T6[ebp+8], xmm0

; 832  :     d = fd;

  00068	f3 0f 10 45 5c	 movss	 xmm0, DWORD PTR _fd$[ebp]
  0006d	f3 0f 11 45 08	 movss	 DWORD PTR $T6[ebp+12], xmm0
; File D:\Metin2 Server Files\mainline\SRC_2014\Metin2Client\SphereLib\frustum.cpp

; 69   : 	m_plane[0] = D3DXPLANE(          mat._13,           mat._23,           mat._33,           mat._43);

  00072	6a 10		 push	 16			; 00000010H
  00074	58		 pop	 eax
  00075	6b c0 00	 imul	 eax, eax, 0
  00078	8b 4d 70	 mov	 ecx, DWORD PTR _this$[ebp]
  0007b	8d 7c 01 14	 lea	 edi, DWORD PTR [ecx+eax+20]
  0007f	8d 75 fc	 lea	 esi, DWORD PTR $T6[ebp]
  00082	a5		 movsd
  00083	a5		 movsd
  00084	a5		 movsd
  00085	a5		 movsd

; 70   : 	m_plane[1] = D3DXPLANE(mat._14 - mat._13, mat._24 - mat._23, mat._34 - mat._33, mat._44 - mat._43);

  00086	8b 45 7c	 mov	 eax, DWORD PTR _mat$[ebp]
  00089	8b 4d 7c	 mov	 ecx, DWORD PTR _mat$[ebp]
  0008c	f3 0f 10 40 0c	 movss	 xmm0, DWORD PTR [eax+12]
  00091	f3 0f 5c 41 08	 subss	 xmm0, DWORD PTR [ecx+8]
  00096	f3 0f 11 45 58	 movss	 DWORD PTR _fa$[ebp], xmm0
  0009b	8b 45 7c	 mov	 eax, DWORD PTR _mat$[ebp]
  0009e	8b 4d 7c	 mov	 ecx, DWORD PTR _mat$[ebp]
  000a1	f3 0f 10 40 1c	 movss	 xmm0, DWORD PTR [eax+28]
  000a6	f3 0f 5c 41 18	 subss	 xmm0, DWORD PTR [ecx+24]
  000ab	f3 0f 11 45 54	 movss	 DWORD PTR _fb$[ebp], xmm0
  000b0	8b 45 7c	 mov	 eax, DWORD PTR _mat$[ebp]
  000b3	8b 4d 7c	 mov	 ecx, DWORD PTR _mat$[ebp]
  000b6	f3 0f 10 40 2c	 movss	 xmm0, DWORD PTR [eax+44]
  000bb	f3 0f 5c 41 28	 subss	 xmm0, DWORD PTR [ecx+40]
  000c0	f3 0f 11 45 50	 movss	 DWORD PTR _fc$[ebp], xmm0
  000c5	8b 45 7c	 mov	 eax, DWORD PTR _mat$[ebp]
  000c8	8b 4d 7c	 mov	 ecx, DWORD PTR _mat$[ebp]
  000cb	f3 0f 10 40 3c	 movss	 xmm0, DWORD PTR [eax+60]
  000d0	f3 0f 5c 41 38	 subss	 xmm0, DWORD PTR [ecx+56]
  000d5	f3 0f 11 45 4c	 movss	 DWORD PTR _fd$[ebp], xmm0
; File D:\Metin2 Server Files\mainline\SRC_2014\M2Data\include\d3dx8math.inl

; 829  :     a = fa;

  000da	f3 0f 10 45 58	 movss	 xmm0, DWORD PTR _fa$[ebp]
  000df	f3 0f 11 45 ec	 movss	 DWORD PTR $T5[ebp], xmm0

; 830  :     b = fb;

  000e4	f3 0f 10 45 54	 movss	 xmm0, DWORD PTR _fb$[ebp]
  000e9	f3 0f 11 45 f0	 movss	 DWORD PTR $T5[ebp+4], xmm0

; 831  :     c = fc;

  000ee	f3 0f 10 45 50	 movss	 xmm0, DWORD PTR _fc$[ebp]
  000f3	f3 0f 11 45 f4	 movss	 DWORD PTR $T5[ebp+8], xmm0

; 832  :     d = fd;

  000f8	f3 0f 10 45 4c	 movss	 xmm0, DWORD PTR _fd$[ebp]
  000fd	f3 0f 11 45 f8	 movss	 DWORD PTR $T5[ebp+12], xmm0
; File D:\Metin2 Server Files\mainline\SRC_2014\Metin2Client\SphereLib\frustum.cpp

; 70   : 	m_plane[1] = D3DXPLANE(mat._14 - mat._13, mat._24 - mat._23, mat._34 - mat._33, mat._44 - mat._43);

  00102	6a 10		 push	 16			; 00000010H
  00104	58		 pop	 eax
  00105	c1 e0 00	 shl	 eax, 0
  00108	8b 4d 70	 mov	 ecx, DWORD PTR _this$[ebp]
  0010b	8d 7c 01 14	 lea	 edi, DWORD PTR [ecx+eax+20]
  0010f	8d 75 ec	 lea	 esi, DWORD PTR $T5[ebp]
  00112	a5		 movsd
  00113	a5		 movsd
  00114	a5		 movsd
  00115	a5		 movsd

; 72   : 	m_plane[2] = D3DXPLANE(mat._14 + mat._11, mat._24 + mat._21, mat._34 + mat._31, mat._44 + mat._41);

  00116	8b 45 7c	 mov	 eax, DWORD PTR _mat$[ebp]
  00119	8b 4d 7c	 mov	 ecx, DWORD PTR _mat$[ebp]
  0011c	f3 0f 10 40 0c	 movss	 xmm0, DWORD PTR [eax+12]
  00121	f3 0f 58 01	 addss	 xmm0, DWORD PTR [ecx]
  00125	f3 0f 11 45 48	 movss	 DWORD PTR _fa$[ebp], xmm0
  0012a	8b 45 7c	 mov	 eax, DWORD PTR _mat$[ebp]
  0012d	8b 4d 7c	 mov	 ecx, DWORD PTR _mat$[ebp]
  00130	f3 0f 10 40 1c	 movss	 xmm0, DWORD PTR [eax+28]
  00135	f3 0f 58 41 10	 addss	 xmm0, DWORD PTR [ecx+16]
  0013a	f3 0f 11 45 44	 movss	 DWORD PTR _fb$[ebp], xmm0
  0013f	8b 45 7c	 mov	 eax, DWORD PTR _mat$[ebp]
  00142	8b 4d 7c	 mov	 ecx, DWORD PTR _mat$[ebp]
  00145	f3 0f 10 40 2c	 movss	 xmm0, DWORD PTR [eax+44]
  0014a	f3 0f 58 41 20	 addss	 xmm0, DWORD PTR [ecx+32]
  0014f	f3 0f 11 45 40	 movss	 DWORD PTR _fc$[ebp], xmm0
  00154	8b 45 7c	 mov	 eax, DWORD PTR _mat$[ebp]
  00157	8b 4d 7c	 mov	 ecx, DWORD PTR _mat$[ebp]
  0015a	f3 0f 10 40 3c	 movss	 xmm0, DWORD PTR [eax+60]
  0015f	f3 0f 58 41 30	 addss	 xmm0, DWORD PTR [ecx+48]
  00164	f3 0f 11 45 3c	 movss	 DWORD PTR _fd$[ebp], xmm0
; File D:\Metin2 Server Files\mainline\SRC_2014\M2Data\include\d3dx8math.inl

; 829  :     a = fa;

  00169	f3 0f 10 45 48	 movss	 xmm0, DWORD PTR _fa$[ebp]
  0016e	f3 0f 11 45 dc	 movss	 DWORD PTR $T4[ebp], xmm0

; 830  :     b = fb;

  00173	f3 0f 10 45 44	 movss	 xmm0, DWORD PTR _fb$[ebp]
  00178	f3 0f 11 45 e0	 movss	 DWORD PTR $T4[ebp+4], xmm0

; 831  :     c = fc;

  0017d	f3 0f 10 45 40	 movss	 xmm0, DWORD PTR _fc$[ebp]
  00182	f3 0f 11 45 e4	 movss	 DWORD PTR $T4[ebp+8], xmm0

; 832  :     d = fd;

  00187	f3 0f 10 45 3c	 movss	 xmm0, DWORD PTR _fd$[ebp]
  0018c	f3 0f 11 45 e8	 movss	 DWORD PTR $T4[ebp+12], xmm0
; File D:\Metin2 Server Files\mainline\SRC_2014\Metin2Client\SphereLib\frustum.cpp

; 72   : 	m_plane[2] = D3DXPLANE(mat._14 + mat._11, mat._24 + mat._21, mat._34 + mat._31, mat._44 + mat._41);

  00191	6a 10		 push	 16			; 00000010H
  00193	58		 pop	 eax
  00194	d1 e0		 shl	 eax, 1
  00196	8b 4d 70	 mov	 ecx, DWORD PTR _this$[ebp]
  00199	8d 7c 01 14	 lea	 edi, DWORD PTR [ecx+eax+20]
  0019d	8d 75 dc	 lea	 esi, DWORD PTR $T4[ebp]
  001a0	a5		 movsd
  001a1	a5		 movsd
  001a2	a5		 movsd
  001a3	a5		 movsd

; 73   : 	m_plane[3] = D3DXPLANE(mat._14 - mat._11, mat._24 - mat._21, mat._34 - mat._31, mat._44 - mat._41);

  001a4	8b 45 7c	 mov	 eax, DWORD PTR _mat$[ebp]
  001a7	8b 4d 7c	 mov	 ecx, DWORD PTR _mat$[ebp]
  001aa	f3 0f 10 40 0c	 movss	 xmm0, DWORD PTR [eax+12]
  001af	f3 0f 5c 01	 subss	 xmm0, DWORD PTR [ecx]
  001b3	f3 0f 11 45 38	 movss	 DWORD PTR _fa$[ebp], xmm0
  001b8	8b 45 7c	 mov	 eax, DWORD PTR _mat$[ebp]
  001bb	8b 4d 7c	 mov	 ecx, DWORD PTR _mat$[ebp]
  001be	f3 0f 10 40 1c	 movss	 xmm0, DWORD PTR [eax+28]
  001c3	f3 0f 5c 41 10	 subss	 xmm0, DWORD PTR [ecx+16]
  001c8	f3 0f 11 45 34	 movss	 DWORD PTR _fb$[ebp], xmm0
  001cd	8b 45 7c	 mov	 eax, DWORD PTR _mat$[ebp]
  001d0	8b 4d 7c	 mov	 ecx, DWORD PTR _mat$[ebp]
  001d3	f3 0f 10 40 2c	 movss	 xmm0, DWORD PTR [eax+44]
  001d8	f3 0f 5c 41 20	 subss	 xmm0, DWORD PTR [ecx+32]
  001dd	f3 0f 11 45 30	 movss	 DWORD PTR _fc$[ebp], xmm0
  001e2	8b 45 7c	 mov	 eax, DWORD PTR _mat$[ebp]
  001e5	8b 4d 7c	 mov	 ecx, DWORD PTR _mat$[ebp]
  001e8	f3 0f 10 40 3c	 movss	 xmm0, DWORD PTR [eax+60]
  001ed	f3 0f 5c 41 30	 subss	 xmm0, DWORD PTR [ecx+48]
  001f2	f3 0f 11 45 2c	 movss	 DWORD PTR _fd$[ebp], xmm0
; File D:\Metin2 Server Files\mainline\SRC_2014\M2Data\include\d3dx8math.inl

; 829  :     a = fa;

  001f7	f3 0f 10 45 38	 movss	 xmm0, DWORD PTR _fa$[ebp]
  001fc	f3 0f 11 45 cc	 movss	 DWORD PTR $T3[ebp], xmm0

; 830  :     b = fb;

  00201	f3 0f 10 45 34	 movss	 xmm0, DWORD PTR _fb$[ebp]
  00206	f3 0f 11 45 d0	 movss	 DWORD PTR $T3[ebp+4], xmm0

; 831  :     c = fc;

  0020b	f3 0f 10 45 30	 movss	 xmm0, DWORD PTR _fc$[ebp]
  00210	f3 0f 11 45 d4	 movss	 DWORD PTR $T3[ebp+8], xmm0

; 832  :     d = fd;

  00215	f3 0f 10 45 2c	 movss	 xmm0, DWORD PTR _fd$[ebp]
  0021a	f3 0f 11 45 d8	 movss	 DWORD PTR $T3[ebp+12], xmm0
; File D:\Metin2 Server Files\mainline\SRC_2014\Metin2Client\SphereLib\frustum.cpp

; 73   : 	m_plane[3] = D3DXPLANE(mat._14 - mat._11, mat._24 - mat._21, mat._34 - mat._31, mat._44 - mat._41);

  0021f	6a 10		 push	 16			; 00000010H
  00221	58		 pop	 eax
  00222	6b c0 03	 imul	 eax, eax, 3
  00225	8b 4d 70	 mov	 ecx, DWORD PTR _this$[ebp]
  00228	8d 7c 01 14	 lea	 edi, DWORD PTR [ecx+eax+20]
  0022c	8d 75 cc	 lea	 esi, DWORD PTR $T3[ebp]
  0022f	a5		 movsd
  00230	a5		 movsd
  00231	a5		 movsd
  00232	a5		 movsd

; 74   : 	m_plane[4] = D3DXPLANE(mat._14 + mat._12, mat._24 + mat._22, mat._34 + mat._32, mat._44 + mat._42);

  00233	8b 45 7c	 mov	 eax, DWORD PTR _mat$[ebp]
  00236	8b 4d 7c	 mov	 ecx, DWORD PTR _mat$[ebp]
  00239	f3 0f 10 40 0c	 movss	 xmm0, DWORD PTR [eax+12]
  0023e	f3 0f 58 41 04	 addss	 xmm0, DWORD PTR [ecx+4]
  00243	f3 0f 11 45 28	 movss	 DWORD PTR _fa$[ebp], xmm0
  00248	8b 45 7c	 mov	 eax, DWORD PTR _mat$[ebp]
  0024b	8b 4d 7c	 mov	 ecx, DWORD PTR _mat$[ebp]
  0024e	f3 0f 10 40 1c	 movss	 xmm0, DWORD PTR [eax+28]
  00253	f3 0f 58 41 14	 addss	 xmm0, DWORD PTR [ecx+20]
  00258	f3 0f 11 45 24	 movss	 DWORD PTR _fb$[ebp], xmm0
  0025d	8b 45 7c	 mov	 eax, DWORD PTR _mat$[ebp]
  00260	8b 4d 7c	 mov	 ecx, DWORD PTR _mat$[ebp]
  00263	f3 0f 10 40 2c	 movss	 xmm0, DWORD PTR [eax+44]
  00268	f3 0f 58 41 24	 addss	 xmm0, DWORD PTR [ecx+36]
  0026d	f3 0f 11 45 20	 movss	 DWORD PTR _fc$[ebp], xmm0
  00272	8b 45 7c	 mov	 eax, DWORD PTR _mat$[ebp]
  00275	8b 4d 7c	 mov	 ecx, DWORD PTR _mat$[ebp]
  00278	f3 0f 10 40 3c	 movss	 xmm0, DWORD PTR [eax+60]
  0027d	f3 0f 58 41 34	 addss	 xmm0, DWORD PTR [ecx+52]
  00282	f3 0f 11 45 1c	 movss	 DWORD PTR _fd$[ebp], xmm0
; File D:\Metin2 Server Files\mainline\SRC_2014\M2Data\include\d3dx8math.inl

; 829  :     a = fa;

  00287	f3 0f 10 45 28	 movss	 xmm0, DWORD PTR _fa$[ebp]
  0028c	f3 0f 11 45 bc	 movss	 DWORD PTR $T2[ebp], xmm0

; 830  :     b = fb;

  00291	f3 0f 10 45 24	 movss	 xmm0, DWORD PTR _fb$[ebp]
  00296	f3 0f 11 45 c0	 movss	 DWORD PTR $T2[ebp+4], xmm0

; 831  :     c = fc;

  0029b	f3 0f 10 45 20	 movss	 xmm0, DWORD PTR _fc$[ebp]
  002a0	f3 0f 11 45 c4	 movss	 DWORD PTR $T2[ebp+8], xmm0

; 832  :     d = fd;

  002a5	f3 0f 10 45 1c	 movss	 xmm0, DWORD PTR _fd$[ebp]
  002aa	f3 0f 11 45 c8	 movss	 DWORD PTR $T2[ebp+12], xmm0
; File D:\Metin2 Server Files\mainline\SRC_2014\Metin2Client\SphereLib\frustum.cpp

; 74   : 	m_plane[4] = D3DXPLANE(mat._14 + mat._12, mat._24 + mat._22, mat._34 + mat._32, mat._44 + mat._42);

  002af	6a 10		 push	 16			; 00000010H
  002b1	58		 pop	 eax
  002b2	c1 e0 02	 shl	 eax, 2
  002b5	8b 4d 70	 mov	 ecx, DWORD PTR _this$[ebp]
  002b8	8d 7c 01 14	 lea	 edi, DWORD PTR [ecx+eax+20]
  002bc	8d 75 bc	 lea	 esi, DWORD PTR $T2[ebp]
  002bf	a5		 movsd
  002c0	a5		 movsd
  002c1	a5		 movsd
  002c2	a5		 movsd

; 75   : 	m_plane[5] = D3DXPLANE(mat._14 - mat._12, mat._24 - mat._22, mat._34 - mat._32, mat._44 - mat._42);

  002c3	8b 45 7c	 mov	 eax, DWORD PTR _mat$[ebp]
  002c6	8b 4d 7c	 mov	 ecx, DWORD PTR _mat$[ebp]
  002c9	f3 0f 10 40 0c	 movss	 xmm0, DWORD PTR [eax+12]
  002ce	f3 0f 5c 41 04	 subss	 xmm0, DWORD PTR [ecx+4]
  002d3	f3 0f 11 45 18	 movss	 DWORD PTR _fa$[ebp], xmm0
  002d8	8b 45 7c	 mov	 eax, DWORD PTR _mat$[ebp]
  002db	8b 4d 7c	 mov	 ecx, DWORD PTR _mat$[ebp]
  002de	f3 0f 10 40 1c	 movss	 xmm0, DWORD PTR [eax+28]
  002e3	f3 0f 5c 41 14	 subss	 xmm0, DWORD PTR [ecx+20]
  002e8	f3 0f 11 45 14	 movss	 DWORD PTR _fb$[ebp], xmm0
  002ed	8b 45 7c	 mov	 eax, DWORD PTR _mat$[ebp]
  002f0	8b 4d 7c	 mov	 ecx, DWORD PTR _mat$[ebp]
  002f3	f3 0f 10 40 2c	 movss	 xmm0, DWORD PTR [eax+44]
  002f8	f3 0f 5c 41 24	 subss	 xmm0, DWORD PTR [ecx+36]
  002fd	f3 0f 11 45 10	 movss	 DWORD PTR _fc$[ebp], xmm0
  00302	8b 45 7c	 mov	 eax, DWORD PTR _mat$[ebp]
  00305	8b 4d 7c	 mov	 ecx, DWORD PTR _mat$[ebp]
  00308	f3 0f 10 40 3c	 movss	 xmm0, DWORD PTR [eax+60]
  0030d	f3 0f 5c 41 34	 subss	 xmm0, DWORD PTR [ecx+52]
  00312	f3 0f 11 45 0c	 movss	 DWORD PTR _fd$[ebp], xmm0
; File D:\Metin2 Server Files\mainline\SRC_2014\M2Data\include\d3dx8math.inl

; 829  :     a = fa;

  00317	f3 0f 10 45 18	 movss	 xmm0, DWORD PTR _fa$[ebp]
  0031c	f3 0f 11 45 ac	 movss	 DWORD PTR $T1[ebp], xmm0

; 830  :     b = fb;

  00321	f3 0f 10 45 14	 movss	 xmm0, DWORD PTR _fb$[ebp]
  00326	f3 0f 11 45 b0	 movss	 DWORD PTR $T1[ebp+4], xmm0

; 831  :     c = fc;

  0032b	f3 0f 10 45 10	 movss	 xmm0, DWORD PTR _fc$[ebp]
  00330	f3 0f 11 45 b4	 movss	 DWORD PTR $T1[ebp+8], xmm0

; 832  :     d = fd;

  00335	f3 0f 10 45 0c	 movss	 xmm0, DWORD PTR _fd$[ebp]
  0033a	f3 0f 11 45 b8	 movss	 DWORD PTR $T1[ebp+12], xmm0
; File D:\Metin2 Server Files\mainline\SRC_2014\Metin2Client\SphereLib\frustum.cpp

; 75   : 	m_plane[5] = D3DXPLANE(mat._14 - mat._12, mat._24 - mat._22, mat._34 - mat._32, mat._44 - mat._42);

  0033f	6a 10		 push	 16			; 00000010H
  00341	58		 pop	 eax
  00342	6b c0 05	 imul	 eax, eax, 5
  00345	8b 4d 70	 mov	 ecx, DWORD PTR _this$[ebp]
  00348	8d 7c 01 14	 lea	 edi, DWORD PTR [ecx+eax+20]
  0034c	8d 75 ac	 lea	 esi, DWORD PTR $T1[ebp]
  0034f	a5		 movsd
  00350	a5		 movsd
  00351	a5		 movsd
  00352	a5		 movsd

; 76   : 
; 77   : 	for(int i=0;i<6;i++)

  00353	83 65 6c 00	 and	 DWORD PTR _i$7[ebp], 0
  00357	eb 07		 jmp	 SHORT $LN4@BuildViewF
$LN2@BuildViewF:
  00359	8b 45 6c	 mov	 eax, DWORD PTR _i$7[ebp]
  0035c	40		 inc	 eax
  0035d	89 45 6c	 mov	 DWORD PTR _i$7[ebp], eax
$LN4@BuildViewF:
  00360	83 7d 6c 06	 cmp	 DWORD PTR _i$7[ebp], 6
  00364	7d 23		 jge	 SHORT $LN3@BuildViewF

; 78   : 		D3DXPlaneNormalize(&m_plane[i],&m_plane[i]);

  00366	8b 45 6c	 mov	 eax, DWORD PTR _i$7[ebp]
  00369	c1 e0 04	 shl	 eax, 4
  0036c	8b 4d 70	 mov	 ecx, DWORD PTR _this$[ebp]
  0036f	8d 44 01 14	 lea	 eax, DWORD PTR [ecx+eax+20]
  00373	50		 push	 eax
  00374	8b 45 6c	 mov	 eax, DWORD PTR _i$7[ebp]
  00377	c1 e0 04	 shl	 eax, 4
  0037a	8b 4d 70	 mov	 ecx, DWORD PTR _this$[ebp]
  0037d	8d 44 01 14	 lea	 eax, DWORD PTR [ecx+eax+20]
  00381	50		 push	 eax
  00382	e8 00 00 00 00	 call	 _D3DXPlaneNormalize@8
  00387	eb d0		 jmp	 SHORT $LN2@BuildViewF
$LN3@BuildViewF:

; 79   : }

  00389	5f		 pop	 edi
  0038a	5e		 pop	 esi
  0038b	83 c5 74	 add	 ebp, 116		; 00000074H
  0038e	c9		 leave
  0038f	c2 04 00	 ret	 4
?BuildViewFrustum@Frustum@@QAEXAAUD3DXMATRIX@@@Z ENDP	; Frustum::BuildViewFrustum
_TEXT	ENDS
END
