; Listing generated by Microsoft (R) Optimizing Compiler Version 19.28.29335.0 

	TITLE	D:\Metin2 Server Files\mainline\SRC_2014\Metin2Client\EterBase\poly\Base.cpp
	.686P
	.XMM
	include listing.inc
	.model	flat

INCLUDELIB LIBCMT
INCLUDELIB OLDNAMES

PUBLIC	?isSymbol@CBase@@QAE_NXZ			; CBase::isSymbol
PUBLIC	?isVar@CBase@@QAE_NXZ				; CBase::isVar
PUBLIC	?isNumber@CBase@@QAE_NXZ			; CBase::isNumber
PUBLIC	??0CBase@@QAE@XZ				; CBase::CBase
PUBLIC	??1CBase@@UAE@XZ				; CBase::~CBase
PUBLIC	??_GCBase@@UAEPAXI@Z				; CBase::`scalar deleting destructor'
PUBLIC	??_7CBase@@6B@					; CBase::`vftable'
PUBLIC	??_R4CBase@@6B@					; CBase::`RTTI Complete Object Locator'
PUBLIC	??_R0?AVCBase@@@8				; CBase `RTTI Type Descriptor'
PUBLIC	??_R3CBase@@8					; CBase::`RTTI Class Hierarchy Descriptor'
PUBLIC	??_R2CBase@@8					; CBase::`RTTI Base Class Array'
PUBLIC	??_R1A@?0A@EA@CBase@@8				; CBase::`RTTI Base Class Descriptor at (0,-1,0,64)'
EXTRN	??3@YAXPAXI@Z:PROC				; operator delete
EXTRN	??_ECBase@@UAEPAXI@Z:PROC			; CBase::`vector deleting destructor'
EXTRN	??_7type_info@@6B@:QWORD			; type_info::`vftable'
;	COMDAT ??_R1A@?0A@EA@CBase@@8
rdata$r	SEGMENT
??_R1A@?0A@EA@CBase@@8 DD FLAT:??_R0?AVCBase@@@8	; CBase::`RTTI Base Class Descriptor at (0,-1,0,64)'
	DD	00H
	DD	00H
	DD	0ffffffffH
	DD	00H
	DD	040H
	DD	FLAT:??_R3CBase@@8
rdata$r	ENDS
;	COMDAT ??_R2CBase@@8
rdata$r	SEGMENT
??_R2CBase@@8 DD FLAT:??_R1A@?0A@EA@CBase@@8		; CBase::`RTTI Base Class Array'
rdata$r	ENDS
;	COMDAT ??_R3CBase@@8
rdata$r	SEGMENT
??_R3CBase@@8 DD 00H					; CBase::`RTTI Class Hierarchy Descriptor'
	DD	00H
	DD	01H
	DD	FLAT:??_R2CBase@@8
rdata$r	ENDS
;	COMDAT ??_R0?AVCBase@@@8
data$rs	SEGMENT
??_R0?AVCBase@@@8 DD FLAT:??_7type_info@@6B@		; CBase `RTTI Type Descriptor'
	DD	00H
	DB	'.?AVCBase@@', 00H
data$rs	ENDS
;	COMDAT ??_R4CBase@@6B@
rdata$r	SEGMENT
??_R4CBase@@6B@ DD 00H					; CBase::`RTTI Complete Object Locator'
	DD	00H
	DD	00H
	DD	FLAT:??_R0?AVCBase@@@8
	DD	FLAT:??_R3CBase@@8
rdata$r	ENDS
;	COMDAT ??_7CBase@@6B@
CONST	SEGMENT
??_7CBase@@6B@ DD FLAT:??_R4CBase@@6B@			; CBase::`vftable'
	DD	FLAT:??_ECBase@@UAEPAXI@Z
CONST	ENDS
; Function compile flags: /Odspy
;	COMDAT ??_GCBase@@UAEPAXI@Z
_TEXT	SEGMENT
_this$ = -4						; size = 4
___flags$ = 8						; size = 4
??_GCBase@@UAEPAXI@Z PROC				; CBase::`scalar deleting destructor', COMDAT
; _this$ = ecx
  00000	55		 push	 ebp
  00001	8b ec		 mov	 ebp, esp
  00003	51		 push	 ecx
  00004	89 4d fc	 mov	 DWORD PTR _this$[ebp], ecx
  00007	8b 4d fc	 mov	 ecx, DWORD PTR _this$[ebp]
  0000a	e8 00 00 00 00	 call	 ??1CBase@@UAE@XZ	; CBase::~CBase
  0000f	8b 45 08	 mov	 eax, DWORD PTR ___flags$[ebp]
  00012	83 e0 01	 and	 eax, 1
  00015	74 0c		 je	 SHORT $LN2@scalar
  00017	6a 08		 push	 8
  00019	ff 75 fc	 push	 DWORD PTR _this$[ebp]
  0001c	e8 00 00 00 00	 call	 ??3@YAXPAXI@Z		; operator delete
  00021	59		 pop	 ecx
  00022	59		 pop	 ecx
$LN2@scalar:
  00023	8b 45 fc	 mov	 eax, DWORD PTR _this$[ebp]
  00026	c9		 leave
  00027	c2 04 00	 ret	 4
??_GCBase@@UAEPAXI@Z ENDP				; CBase::`scalar deleting destructor'
_TEXT	ENDS
; Function compile flags: /Odspy
; File D:\Metin2 Server Files\mainline\SRC_2014\Metin2Client\EterBase\poly\Base.cpp
;	COMDAT ??1CBase@@UAE@XZ
_TEXT	SEGMENT
_this$ = -4						; size = 4
??1CBase@@UAE@XZ PROC					; CBase::~CBase, COMDAT
; _this$ = ecx

; 10   : {

  00000	55		 push	 ebp
  00001	8b ec		 mov	 ebp, esp
  00003	51		 push	 ecx
  00004	89 4d fc	 mov	 DWORD PTR _this$[ebp], ecx
  00007	8b 45 fc	 mov	 eax, DWORD PTR _this$[ebp]
  0000a	c7 00 00 00 00
	00		 mov	 DWORD PTR [eax], OFFSET ??_7CBase@@6B@

; 11   : }

  00010	c9		 leave
  00011	c3		 ret	 0
??1CBase@@UAE@XZ ENDP					; CBase::~CBase
_TEXT	ENDS
; Function compile flags: /Odspy
; File D:\Metin2 Server Files\mainline\SRC_2014\Metin2Client\EterBase\poly\Base.cpp
;	COMDAT ??0CBase@@QAE@XZ
_TEXT	SEGMENT
_this$ = -4						; size = 4
??0CBase@@QAE@XZ PROC					; CBase::CBase, COMDAT
; _this$ = ecx

; 5    : {

  00000	55		 push	 ebp
  00001	8b ec		 mov	 ebp, esp
  00003	51		 push	 ecx
  00004	89 4d fc	 mov	 DWORD PTR _this$[ebp], ecx
  00007	8b 45 fc	 mov	 eax, DWORD PTR _this$[ebp]
  0000a	c7 00 00 00 00
	00		 mov	 DWORD PTR [eax], OFFSET ??_7CBase@@6B@

; 6    :     id = 0;

  00010	8b 45 fc	 mov	 eax, DWORD PTR _this$[ebp]
  00013	83 60 04 00	 and	 DWORD PTR [eax+4], 0

; 7    : }

  00017	8b 45 fc	 mov	 eax, DWORD PTR _this$[ebp]
  0001a	c9		 leave
  0001b	c3		 ret	 0
??0CBase@@QAE@XZ ENDP					; CBase::CBase
_TEXT	ENDS
; Function compile flags: /Odspy
; File D:\Metin2 Server Files\mainline\SRC_2014\Metin2Client\EterBase\poly\Base.cpp
;	COMDAT ?isNumber@CBase@@QAE_NXZ
_TEXT	SEGMENT
_this$ = -8						; size = 4
tv67 = -1						; size = 1
?isNumber@CBase@@QAE_NXZ PROC				; CBase::isNumber, COMDAT
; _this$ = ecx

; 14   : {

  00000	55		 push	 ebp
  00001	8b ec		 mov	 ebp, esp
  00003	51		 push	 ecx
  00004	51		 push	 ecx
  00005	89 4d f8	 mov	 DWORD PTR _this$[ebp], ecx

; 15   : 	return (id & MID_NUMBER) != 0 ? true : false;

  00008	8b 45 f8	 mov	 eax, DWORD PTR _this$[ebp]
  0000b	8b 40 04	 mov	 eax, DWORD PTR [eax+4]
  0000e	25 00 01 00 00	 and	 eax, 256		; 00000100H
  00013	74 06		 je	 SHORT $LN3@isNumber
  00015	c6 45 ff 01	 mov	 BYTE PTR tv67[ebp], 1
  00019	eb 04		 jmp	 SHORT $LN4@isNumber
$LN3@isNumber:
  0001b	c6 45 ff 00	 mov	 BYTE PTR tv67[ebp], 0
$LN4@isNumber:
  0001f	8a 45 ff	 mov	 al, BYTE PTR tv67[ebp]

; 16   : }

  00022	c9		 leave
  00023	c3		 ret	 0
?isNumber@CBase@@QAE_NXZ ENDP				; CBase::isNumber
_TEXT	ENDS
; Function compile flags: /Odspy
; File D:\Metin2 Server Files\mainline\SRC_2014\Metin2Client\EterBase\poly\Base.cpp
;	COMDAT ?isVar@CBase@@QAE_NXZ
_TEXT	SEGMENT
_this$ = -8						; size = 4
tv67 = -1						; size = 1
?isVar@CBase@@QAE_NXZ PROC				; CBase::isVar, COMDAT
; _this$ = ecx

; 19   : {

  00000	55		 push	 ebp
  00001	8b ec		 mov	 ebp, esp
  00003	51		 push	 ecx
  00004	51		 push	 ecx
  00005	89 4d f8	 mov	 DWORD PTR _this$[ebp], ecx

; 20   :     return (id & MID_VARIABLE) != 0 ? true : false;

  00008	8b 45 f8	 mov	 eax, DWORD PTR _this$[ebp]
  0000b	8b 40 04	 mov	 eax, DWORD PTR [eax+4]
  0000e	25 00 02 00 00	 and	 eax, 512		; 00000200H
  00013	74 06		 je	 SHORT $LN3@isVar
  00015	c6 45 ff 01	 mov	 BYTE PTR tv67[ebp], 1
  00019	eb 04		 jmp	 SHORT $LN4@isVar
$LN3@isVar:
  0001b	c6 45 ff 00	 mov	 BYTE PTR tv67[ebp], 0
$LN4@isVar:
  0001f	8a 45 ff	 mov	 al, BYTE PTR tv67[ebp]

; 21   : }

  00022	c9		 leave
  00023	c3		 ret	 0
?isVar@CBase@@QAE_NXZ ENDP				; CBase::isVar
_TEXT	ENDS
; Function compile flags: /Odspy
; File D:\Metin2 Server Files\mainline\SRC_2014\Metin2Client\EterBase\poly\Base.cpp
;	COMDAT ?isSymbol@CBase@@QAE_NXZ
_TEXT	SEGMENT
_this$ = -8						; size = 4
tv67 = -1						; size = 1
?isSymbol@CBase@@QAE_NXZ PROC				; CBase::isSymbol, COMDAT
; _this$ = ecx

; 24   : {

  00000	55		 push	 ebp
  00001	8b ec		 mov	 ebp, esp
  00003	51		 push	 ecx
  00004	51		 push	 ecx
  00005	89 4d f8	 mov	 DWORD PTR _this$[ebp], ecx

; 25   :     return (id & MID_SYMBOL) != 0 ? true : false;

  00008	8b 45 f8	 mov	 eax, DWORD PTR _this$[ebp]
  0000b	8b 40 04	 mov	 eax, DWORD PTR [eax+4]
  0000e	25 00 04 00 00	 and	 eax, 1024		; 00000400H
  00013	74 06		 je	 SHORT $LN3@isSymbol
  00015	c6 45 ff 01	 mov	 BYTE PTR tv67[ebp], 1
  00019	eb 04		 jmp	 SHORT $LN4@isSymbol
$LN3@isSymbol:
  0001b	c6 45 ff 00	 mov	 BYTE PTR tv67[ebp], 0
$LN4@isSymbol:
  0001f	8a 45 ff	 mov	 al, BYTE PTR tv67[ebp]

; 26   : }

  00022	c9		 leave
  00023	c3		 ret	 0
?isSymbol@CBase@@QAE_NXZ ENDP				; CBase::isSymbol
_TEXT	ENDS
END
