; Listing generated by Microsoft (R) Optimizing Compiler Version 19.28.29335.0 

	TITLE	D:\Metin2 Server Files\mainline\SRC_2014\Metin2Client\EterBase\Debug.cpp
	.686P
	.XMM
	include listing.inc
	.model	flat

INCLUDELIB LIBCMT
INCLUDELIB OLDNAMES

PUBLIC	?g_PopupHwnd@@3PAUHWND__@@A			; g_PopupHwnd
_BSS	SEGMENT
?g_PopupHwnd@@3PAUHWND__@@A DD 01H DUP (?)		; g_PopupHwnd
_BSS	ENDS
PUBLIC	___local_stdio_printf_options
PUBLIC	_fprintf
PUBLIC	?SetLogLevel@@YAXI@Z				; SetLogLevel
PUBLIC	?Log@@YAXIPBD@Z					; Log
PUBLIC	?Logn@@YAXIPBD@Z				; Logn
PUBLIC	?Logf@@YAXIPBDZZ				; Logf
PUBLIC	?Lognf@@YAXIPBDZZ				; Lognf
PUBLIC	?Trace@@YAXPBD@Z				; Trace
PUBLIC	?Tracen@@YAXPBD@Z				; Tracen
PUBLIC	?Tracenf@@YAXPBDZZ				; Tracenf
PUBLIC	?Tracef@@YAXPBDZZ				; Tracef
PUBLIC	?TraceError@@YAXPBDZZ				; TraceError
PUBLIC	?TraceErrorWithoutEnter@@YAXPBDZZ		; TraceErrorWithoutEnter
PUBLIC	?LogBox@@YAXPBD0PAUHWND__@@@Z			; LogBox
PUBLIC	?LogBoxf@@YAXPBDZZ				; LogBoxf
PUBLIC	?LogFile@@YAXPBD@Z				; LogFile
PUBLIC	?LogFilef@@YAXPBDZZ				; LogFilef
PUBLIC	?OpenConsoleWindow@@YAXXZ			; OpenConsoleWindow
PUBLIC	?OpenLogFile@@YAX_N@Z				; OpenLogFile
PUBLIC	??_G?$CSingleton@VCLogFile@@@@UAEPAXI@Z		; CSingleton<CLogFile>::`scalar deleting destructor'
PUBLIC	??1CLogFile@@UAE@XZ				; CLogFile::~CLogFile
PUBLIC	?Write@CLogFile@@QAEXPBD@Z			; CLogFile::Write
PUBLIC	??_GCLogFile@@UAEPAXI@Z				; CLogFile::`scalar deleting destructor'
PUBLIC	?_OptionsStorage@?1??__local_stdio_printf_options@@9@4_KA ; `__local_stdio_printf_options'::`2'::_OptionsStorage
PUBLIC	?ms_singleton@?$CSingleton@VCLogFile@@@@0PAVCLogFile@@A ; CSingleton<CLogFile>::ms_singleton
PUBLIC	??_7?$CSingleton@VCLogFile@@@@6B@		; CSingleton<CLogFile>::`vftable'
PUBLIC	??_7CLogFile@@6B@				; CLogFile::`vftable'
PUBLIC	??_C@_01NOFIACDB@w@				; `string'
PUBLIC	??_C@_07POILLFDI@log?4txt@			; `string'
PUBLIC	??_C@_0BO@IGAAHNNJ@?$CF02d?$CF02d?5?$CF02d?3?$CF02d?3?$CF05d?5?3?3?5?$CFs@ ; `string'
PUBLIC	??_C@_01EEMJAFIK@?6@				; `string'
PUBLIC	??_C@_08MKEHAJJM@SYSERR?3?5@			; `string'
PUBLIC	??_C@_03MLIHNEFJ@LOG@				; `string'
PUBLIC	??_C@_0L@BOMBMLAA@syserr?4txt@			; `string'
PUBLIC	??_C@_01MCMALHOG@a@				; `string'
PUBLIC	??_C@_07GPDNMNG@CONOUT$@			; `string'
PUBLIC	??_C@_01KDCPPGHE@r@				; `string'
PUBLIC	??_C@_06GDENEHCP@CONIN$@			; `string'
PUBLIC	??_R4CLogFile@@6B@				; CLogFile::`RTTI Complete Object Locator'
PUBLIC	??_R0?AVCLogFile@@@8				; CLogFile `RTTI Type Descriptor'
PUBLIC	??_R3CLogFile@@8				; CLogFile::`RTTI Class Hierarchy Descriptor'
PUBLIC	??_R2CLogFile@@8				; CLogFile::`RTTI Base Class Array'
PUBLIC	??_R1A@?0A@EA@CLogFile@@8			; CLogFile::`RTTI Base Class Descriptor at (0,-1,0,64)'
PUBLIC	??_R1A@?0A@EA@?$CSingleton@VCLogFile@@@@8	; CSingleton<CLogFile>::`RTTI Base Class Descriptor at (0,-1,0,64)'
PUBLIC	??_R0?AV?$CSingleton@VCLogFile@@@@@8		; CSingleton<CLogFile> `RTTI Type Descriptor'
PUBLIC	??_R3?$CSingleton@VCLogFile@@@@8		; CSingleton<CLogFile>::`RTTI Class Hierarchy Descriptor'
PUBLIC	??_R2?$CSingleton@VCLogFile@@@@8		; CSingleton<CLogFile>::`RTTI Base Class Array'
PUBLIC	??_R4?$CSingleton@VCLogFile@@@@6B@		; CSingleton<CLogFile>::`RTTI Complete Object Locator'
EXTRN	??3@YAXPAXI@Z:PROC				; operator delete
EXTRN	_atexit:PROC
EXTRN	___report_rangecheckfailure:PROC
EXTRN	_strlen:PROC
EXTRN	_strncpy:PROC
EXTRN	__imp__MessageBoxA@16:PROC
EXTRN	__imp__AllocConsole@0:PROC
EXTRN	___acrt_iob_func:PROC
EXTRN	_fclose:PROC
EXTRN	_fflush:PROC
EXTRN	_fopen:PROC
EXTRN	_freopen:PROC
EXTRN	___stdio_common_vfprintf:PROC
EXTRN	___stdio_common_vsprintf:PROC
EXTRN	__localtime64:PROC
EXTRN	__time64:PROC
EXTRN	?ELTimer_GetMSec@@YAKXZ:PROC			; ELTimer_GetMSec
EXTRN	??_E?$CSingleton@VCLogFile@@@@UAEPAXI@Z:PROC	; CSingleton<CLogFile>::`vector deleting destructor'
EXTRN	??_ECLogFile@@UAEPAXI@Z:PROC			; CLogFile::`vector deleting destructor'
EXTRN	@__security_check_cookie@4:PROC
EXTRN	??_7type_info@@6B@:QWORD			; type_info::`vftable'
EXTRN	___security_cookie:DWORD
;	COMDAT ?_OptionsStorage@?1??__local_stdio_printf_options@@9@4_KA
_BSS	SEGMENT
?_OptionsStorage@?1??__local_stdio_printf_options@@9@4_KA DQ 01H DUP (?) ; `__local_stdio_printf_options'::`2'::_OptionsStorage
_BSS	ENDS
_BSS	SEGMENT
?isLogFile@@3HA DD 01H DUP (?)				; isLogFile
_BSS	ENDS
;	COMDAT ?ms_singleton@?$CSingleton@VCLogFile@@@@0PAVCLogFile@@A
_BSS	SEGMENT
?ms_singleton@?$CSingleton@VCLogFile@@@@0PAVCLogFile@@A DD 01H DUP (?) ; CSingleton<CLogFile>::ms_singleton
_BSS	ENDS
_BSS	SEGMENT
?gs_logfile@@3VCLogFile@@A DQ 01H DUP (?)		; gs_logfile
?gs_uLevel@@3IA DD 01H DUP (?)				; gs_uLevel
_BSS	ENDS
CRT$XCU	SEGMENT
?gs_logfile$initializer$@@3P6AXXZA DD FLAT:??__Egs_logfile@@YAXXZ ; gs_logfile$initializer$
CRT$XCU	ENDS
;	COMDAT ??_R4?$CSingleton@VCLogFile@@@@6B@
rdata$r	SEGMENT
??_R4?$CSingleton@VCLogFile@@@@6B@ DD 00H		; CSingleton<CLogFile>::`RTTI Complete Object Locator'
	DD	00H
	DD	00H
	DD	FLAT:??_R0?AV?$CSingleton@VCLogFile@@@@@8
	DD	FLAT:??_R3?$CSingleton@VCLogFile@@@@8
rdata$r	ENDS
;	COMDAT ??_R2?$CSingleton@VCLogFile@@@@8
rdata$r	SEGMENT
??_R2?$CSingleton@VCLogFile@@@@8 DD FLAT:??_R1A@?0A@EA@?$CSingleton@VCLogFile@@@@8 ; CSingleton<CLogFile>::`RTTI Base Class Array'
rdata$r	ENDS
;	COMDAT ??_R3?$CSingleton@VCLogFile@@@@8
rdata$r	SEGMENT
??_R3?$CSingleton@VCLogFile@@@@8 DD 00H			; CSingleton<CLogFile>::`RTTI Class Hierarchy Descriptor'
	DD	00H
	DD	01H
	DD	FLAT:??_R2?$CSingleton@VCLogFile@@@@8
rdata$r	ENDS
;	COMDAT ??_R0?AV?$CSingleton@VCLogFile@@@@@8
data$rs	SEGMENT
??_R0?AV?$CSingleton@VCLogFile@@@@@8 DD FLAT:??_7type_info@@6B@ ; CSingleton<CLogFile> `RTTI Type Descriptor'
	DD	00H
	DB	'.?AV?$CSingleton@VCLogFile@@@@', 00H
data$rs	ENDS
;	COMDAT ??_R1A@?0A@EA@?$CSingleton@VCLogFile@@@@8
rdata$r	SEGMENT
??_R1A@?0A@EA@?$CSingleton@VCLogFile@@@@8 DD FLAT:??_R0?AV?$CSingleton@VCLogFile@@@@@8 ; CSingleton<CLogFile>::`RTTI Base Class Descriptor at (0,-1,0,64)'
	DD	00H
	DD	00H
	DD	0ffffffffH
	DD	00H
	DD	040H
	DD	FLAT:??_R3?$CSingleton@VCLogFile@@@@8
rdata$r	ENDS
;	COMDAT ??_R1A@?0A@EA@CLogFile@@8
rdata$r	SEGMENT
??_R1A@?0A@EA@CLogFile@@8 DD FLAT:??_R0?AVCLogFile@@@8	; CLogFile::`RTTI Base Class Descriptor at (0,-1,0,64)'
	DD	01H
	DD	00H
	DD	0ffffffffH
	DD	00H
	DD	040H
	DD	FLAT:??_R3CLogFile@@8
rdata$r	ENDS
;	COMDAT ??_R2CLogFile@@8
rdata$r	SEGMENT
??_R2CLogFile@@8 DD FLAT:??_R1A@?0A@EA@CLogFile@@8	; CLogFile::`RTTI Base Class Array'
	DD	FLAT:??_R1A@?0A@EA@?$CSingleton@VCLogFile@@@@8
rdata$r	ENDS
;	COMDAT ??_R3CLogFile@@8
rdata$r	SEGMENT
??_R3CLogFile@@8 DD 00H					; CLogFile::`RTTI Class Hierarchy Descriptor'
	DD	00H
	DD	02H
	DD	FLAT:??_R2CLogFile@@8
rdata$r	ENDS
;	COMDAT ??_R0?AVCLogFile@@@8
data$rs	SEGMENT
??_R0?AVCLogFile@@@8 DD FLAT:??_7type_info@@6B@		; CLogFile `RTTI Type Descriptor'
	DD	00H
	DB	'.?AVCLogFile@@', 00H
data$rs	ENDS
;	COMDAT ??_R4CLogFile@@6B@
rdata$r	SEGMENT
??_R4CLogFile@@6B@ DD 00H				; CLogFile::`RTTI Complete Object Locator'
	DD	00H
	DD	00H
	DD	FLAT:??_R0?AVCLogFile@@@8
	DD	FLAT:??_R3CLogFile@@8
rdata$r	ENDS
;	COMDAT ??_C@_06GDENEHCP@CONIN$@
CONST	SEGMENT
??_C@_06GDENEHCP@CONIN$@ DB 'CONIN$', 00H		; `string'
CONST	ENDS
;	COMDAT ??_C@_01KDCPPGHE@r@
CONST	SEGMENT
??_C@_01KDCPPGHE@r@ DB 'r', 00H				; `string'
CONST	ENDS
;	COMDAT ??_C@_07GPDNMNG@CONOUT$@
CONST	SEGMENT
??_C@_07GPDNMNG@CONOUT$@ DB 'CONOUT$', 00H		; `string'
CONST	ENDS
;	COMDAT ??_C@_01MCMALHOG@a@
CONST	SEGMENT
??_C@_01MCMALHOG@a@ DB 'a', 00H				; `string'
CONST	ENDS
;	COMDAT ??_C@_0L@BOMBMLAA@syserr?4txt@
CONST	SEGMENT
??_C@_0L@BOMBMLAA@syserr?4txt@ DB 'syserr.txt', 00H	; `string'
CONST	ENDS
;	COMDAT ??_C@_03MLIHNEFJ@LOG@
CONST	SEGMENT
??_C@_03MLIHNEFJ@LOG@ DB 'LOG', 00H			; `string'
CONST	ENDS
;	COMDAT ??_C@_08MKEHAJJM@SYSERR?3?5@
CONST	SEGMENT
??_C@_08MKEHAJJM@SYSERR?3?5@ DB 'SYSERR: ', 00H		; `string'
CONST	ENDS
;	COMDAT ??_C@_01EEMJAFIK@?6@
CONST	SEGMENT
??_C@_01EEMJAFIK@?6@ DB 0aH, 00H			; `string'
CONST	ENDS
;	COMDAT ??_C@_0BO@IGAAHNNJ@?$CF02d?$CF02d?5?$CF02d?3?$CF02d?3?$CF05d?5?3?3?5?$CFs@
CONST	SEGMENT
??_C@_0BO@IGAAHNNJ@?$CF02d?$CF02d?5?$CF02d?3?$CF02d?3?$CF05d?5?3?3?5?$CFs@ DB '%'
	DB	'02d%02d %02d:%02d:%05d :: %s', 00H		; `string'
CONST	ENDS
;	COMDAT ??_C@_07POILLFDI@log?4txt@
CONST	SEGMENT
??_C@_07POILLFDI@log?4txt@ DB 'log.txt', 00H		; `string'
CONST	ENDS
;	COMDAT ??_C@_01NOFIACDB@w@
CONST	SEGMENT
??_C@_01NOFIACDB@w@ DB 'w', 00H				; `string'
CONST	ENDS
;	COMDAT ??_7CLogFile@@6B@
CONST	SEGMENT
??_7CLogFile@@6B@ DD FLAT:??_R4CLogFile@@6B@		; CLogFile::`vftable'
	DD	FLAT:??_ECLogFile@@UAEPAXI@Z
CONST	ENDS
;	COMDAT ??_7?$CSingleton@VCLogFile@@@@6B@
CONST	SEGMENT
??_7?$CSingleton@VCLogFile@@@@6B@ DD FLAT:??_R4?$CSingleton@VCLogFile@@@@6B@ ; CSingleton<CLogFile>::`vftable'
	DD	FLAT:??_E?$CSingleton@VCLogFile@@@@UAEPAXI@Z
CONST	ENDS
; Function compile flags: /Odspy
;	COMDAT ??__Fgs_logfile@@YAXXZ
text$yd	SEGMENT
??__Fgs_logfile@@YAXXZ PROC				; `dynamic atexit destructor for 'gs_logfile'', COMDAT
  00000	55		 push	 ebp
  00001	8b ec		 mov	 ebp, esp
  00003	b9 00 00 00 00	 mov	 ecx, OFFSET ?gs_logfile@@3VCLogFile@@A
  00008	e8 00 00 00 00	 call	 ??1CLogFile@@UAE@XZ	; CLogFile::~CLogFile
  0000d	5d		 pop	 ebp
  0000e	c3		 ret	 0
??__Fgs_logfile@@YAXXZ ENDP				; `dynamic atexit destructor for 'gs_logfile''
text$yd	ENDS
; Function compile flags: /Odspy
; File D:\Metin2 Server Files\mainline\SRC_2014\Metin2Client\EterBase\Debug.cpp
; File D:\Metin2 Server Files\mainline\SRC_2014\Metin2Client\EterBase\Singleton.h
; File D:\Metin2 Server Files\mainline\SRC_2014\Metin2Client\EterBase\Debug.cpp
;	COMDAT ??__Egs_logfile@@YAXXZ
text$di	SEGMENT
_offset$1 = -4						; size = 4
??__Egs_logfile@@YAXXZ PROC				; `dynamic initializer for 'gs_logfile'', COMDAT

; 57   : static CLogFile gs_logfile;

  00000	55		 push	 ebp
  00001	8b ec		 mov	 ebp, esp
  00003	51		 push	 ecx
; File D:\Metin2 Server Files\mainline\SRC_2014\Metin2Client\EterBase\Singleton.h

; 12   : 	{ 

  00004	c7 05 00 00 00
	00 00 00 00 00	 mov	 DWORD PTR ?gs_logfile@@3VCLogFile@@A, OFFSET ??_7?$CSingleton@VCLogFile@@@@6B@

; 13   : 		assert(!ms_singleton);
; 14   : 		int offset = (int) (T*) 1 - (int) (CSingleton <T>*) (T*) 1; 

  0000e	33 c0		 xor	 eax, eax
  00010	89 45 fc	 mov	 DWORD PTR _offset$1[ebp], eax

; 15   : 		ms_singleton = (T*) ((int) this + offset);

  00013	8b 45 fc	 mov	 eax, DWORD PTR _offset$1[ebp]
  00016	05 00 00 00 00	 add	 eax, OFFSET ?gs_logfile@@3VCLogFile@@A
  0001b	a3 00 00 00 00	 mov	 DWORD PTR ?ms_singleton@?$CSingleton@VCLogFile@@@@0PAVCLogFile@@A, eax ; CSingleton<CLogFile>::ms_singleton
; File D:\Metin2 Server Files\mainline\SRC_2014\Metin2Client\EterBase\Debug.cpp

; 18   : 		{

  00020	c7 05 00 00 00
	00 00 00 00 00	 mov	 DWORD PTR ?gs_logfile@@3VCLogFile@@A, OFFSET ??_7CLogFile@@6B@

; 17   : 		CLogFile() : m_fp(NULL)

  0002a	83 25 04 00 00
	00 00		 and	 DWORD PTR ?gs_logfile@@3VCLogFile@@A+4, 0

; 57   : static CLogFile gs_logfile;

  00031	68 00 00 00 00	 push	 OFFSET ??__Fgs_logfile@@YAXXZ ; `dynamic atexit destructor for 'gs_logfile''
  00036	e8 00 00 00 00	 call	 _atexit
  0003b	59		 pop	 ecx
  0003c	c9		 leave
  0003d	c3		 ret	 0
??__Egs_logfile@@YAXXZ ENDP				; `dynamic initializer for 'gs_logfile''
text$di	ENDS
; Function compile flags: /Odspy
;	COMDAT ??_GCLogFile@@UAEPAXI@Z
_TEXT	SEGMENT
_this$ = -4						; size = 4
___flags$ = 8						; size = 4
??_GCLogFile@@UAEPAXI@Z PROC				; CLogFile::`scalar deleting destructor', COMDAT
; _this$ = ecx
  00000	55		 push	 ebp
  00001	8b ec		 mov	 ebp, esp
  00003	51		 push	 ecx
  00004	89 4d fc	 mov	 DWORD PTR _this$[ebp], ecx
  00007	8b 4d fc	 mov	 ecx, DWORD PTR _this$[ebp]
  0000a	e8 00 00 00 00	 call	 ??1CLogFile@@UAE@XZ	; CLogFile::~CLogFile
  0000f	8b 45 08	 mov	 eax, DWORD PTR ___flags$[ebp]
  00012	83 e0 01	 and	 eax, 1
  00015	74 0c		 je	 SHORT $LN2@scalar
  00017	6a 08		 push	 8
  00019	ff 75 fc	 push	 DWORD PTR _this$[ebp]
  0001c	e8 00 00 00 00	 call	 ??3@YAXPAXI@Z		; operator delete
  00021	59		 pop	 ecx
  00022	59		 pop	 ecx
$LN2@scalar:
  00023	8b 45 fc	 mov	 eax, DWORD PTR _this$[ebp]
  00026	c9		 leave
  00027	c2 04 00	 ret	 4
??_GCLogFile@@UAEPAXI@Z ENDP				; CLogFile::`scalar deleting destructor'
_TEXT	ENDS
; Function compile flags: /Odspy
; File D:\Metin2 Server Files\mainline\SRC_2014\Metin2Client\EterBase\Debug.cpp
; File C:\Program Files (x86)\Windows Kits\10\Include\10.0.18362.0\ucrt\time.h
; File D:\Metin2 Server Files\mainline\SRC_2014\Metin2Client\EterBase\Debug.cpp
; File C:\Program Files (x86)\Windows Kits\10\Include\10.0.18362.0\ucrt\time.h
; File D:\Metin2 Server Files\mainline\SRC_2014\Metin2Client\EterBase\Debug.cpp
;	COMDAT ?Write@CLogFile@@QAEXPBD@Z
_TEXT	SEGMENT
_ct$ = -56						; size = 8
$T1 = -48						; size = 4
_this$ = -44						; size = 4
_ctm$ = -40						; size = 36
__$ArrayPad$ = -4					; size = 4
_c_pszMsg$ = 8						; size = 4
?Write@CLogFile@@QAEXPBD@Z PROC				; CLogFile::Write, COMDAT
; _this$ = ecx

; 35   : 		{

  00000	55		 push	 ebp
  00001	8b ec		 mov	 ebp, esp
  00003	83 ec 38	 sub	 esp, 56			; 00000038H
  00006	a1 00 00 00 00	 mov	 eax, DWORD PTR ___security_cookie
  0000b	33 c5		 xor	 eax, ebp
  0000d	89 45 fc	 mov	 DWORD PTR __$ArrayPad$[ebp], eax
  00010	56		 push	 esi
  00011	57		 push	 edi
  00012	89 4d d4	 mov	 DWORD PTR _this$[ebp], ecx

; 36   : 			if (!m_fp)

  00015	8b 45 d4	 mov	 eax, DWORD PTR _this$[ebp]
  00018	83 78 04 00	 cmp	 DWORD PTR [eax+4], 0
  0001c	75 02		 jne	 SHORT $LN4@Write

; 37   : 				return;

  0001e	eb 65		 jmp	 SHORT $LN1@Write
$LN4@Write:
; File C:\Program Files (x86)\Windows Kits\10\Include\10.0.18362.0\ucrt\time.h

; 536  :             return _time64(_Time);

  00020	6a 00		 push	 0
  00022	e8 00 00 00 00	 call	 __time64
  00027	59		 pop	 ecx
; File D:\Metin2 Server Files\mainline\SRC_2014\Metin2Client\EterBase\Debug.cpp

; 39   : 			time_t ct = time(0);

  00028	89 45 c8	 mov	 DWORD PTR _ct$[ebp], eax
  0002b	89 55 cc	 mov	 DWORD PTR _ct$[ebp+4], edx
; File C:\Program Files (x86)\Windows Kits\10\Include\10.0.18362.0\ucrt\time.h

; 512  :             return _localtime64(_Time);

  0002e	8d 45 c8	 lea	 eax, DWORD PTR _ct$[ebp]
  00031	50		 push	 eax
  00032	e8 00 00 00 00	 call	 __localtime64
  00037	59		 pop	 ecx
  00038	89 45 d0	 mov	 DWORD PTR $T1[ebp], eax
; File D:\Metin2 Server Files\mainline\SRC_2014\Metin2Client\EterBase\Debug.cpp

; 40   : 			struct tm ctm = *localtime(&ct);

  0003b	6a 09		 push	 9
  0003d	59		 pop	 ecx
  0003e	8b 75 d0	 mov	 esi, DWORD PTR $T1[ebp]
  00041	8d 7d d8	 lea	 edi, DWORD PTR _ctm$[ebp]
  00044	f3 a5		 rep movsd

; 41   : 
; 42   : 			fprintf(m_fp, "%02d%02d %02d:%02d:%05d :: %s", 

  00046	ff 75 08	 push	 DWORD PTR _c_pszMsg$[ebp]
  00049	e8 00 00 00 00	 call	 ?ELTimer_GetMSec@@YAKXZ	; ELTimer_GetMSec
  0004e	33 d2		 xor	 edx, edx
  00050	b9 60 ea 00 00	 mov	 ecx, 60000		; 0000ea60H
  00055	f7 f1		 div	 ecx
  00057	52		 push	 edx
  00058	ff 75 dc	 push	 DWORD PTR _ctm$[ebp+4]
  0005b	ff 75 e0	 push	 DWORD PTR _ctm$[ebp+8]
  0005e	ff 75 e4	 push	 DWORD PTR _ctm$[ebp+12]
  00061	8b 45 e8	 mov	 eax, DWORD PTR _ctm$[ebp+16]
  00064	40		 inc	 eax
  00065	50		 push	 eax
  00066	68 00 00 00 00	 push	 OFFSET ??_C@_0BO@IGAAHNNJ@?$CF02d?$CF02d?5?$CF02d?3?$CF02d?3?$CF05d?5?3?3?5?$CFs@
  0006b	8b 45 d4	 mov	 eax, DWORD PTR _this$[ebp]
  0006e	ff 70 04	 push	 DWORD PTR [eax+4]
  00071	e8 00 00 00 00	 call	 _fprintf
  00076	83 c4 20	 add	 esp, 32			; 00000020H

; 43   : 				ctm.tm_mon + 1, 
; 44   : 				ctm.tm_mday,
; 45   : 				ctm.tm_hour,
; 46   : 				ctm.tm_min,
; 47   : 				ELTimer_GetMSec() % 60000,
; 48   : 				c_pszMsg);
; 49   : 
; 50   : 			fflush(m_fp);

  00079	8b 45 d4	 mov	 eax, DWORD PTR _this$[ebp]
  0007c	ff 70 04	 push	 DWORD PTR [eax+4]
  0007f	e8 00 00 00 00	 call	 _fflush
  00084	59		 pop	 ecx
$LN1@Write:

; 51   : 		}

  00085	5f		 pop	 edi
  00086	5e		 pop	 esi
  00087	8b 4d fc	 mov	 ecx, DWORD PTR __$ArrayPad$[ebp]
  0008a	33 cd		 xor	 ecx, ebp
  0008c	e8 00 00 00 00	 call	 @__security_check_cookie@4
  00091	c9		 leave
  00092	c2 04 00	 ret	 4
?Write@CLogFile@@QAEXPBD@Z ENDP				; CLogFile::Write
_TEXT	ENDS
; Function compile flags: /Odspy
; File D:\Metin2 Server Files\mainline\SRC_2014\Metin2Client\EterBase\Debug.cpp
; File D:\Metin2 Server Files\mainline\SRC_2014\Metin2Client\EterBase\Singleton.h
; File D:\Metin2 Server Files\mainline\SRC_2014\Metin2Client\EterBase\Debug.cpp
;	COMDAT ??1CLogFile@@UAE@XZ
_TEXT	SEGMENT
_this$ = -4						; size = 4
??1CLogFile@@UAE@XZ PROC				; CLogFile::~CLogFile, COMDAT
; _this$ = ecx

; 22   : 		{

  00000	55		 push	 ebp
  00001	8b ec		 mov	 ebp, esp
  00003	51		 push	 ecx
  00004	89 4d fc	 mov	 DWORD PTR _this$[ebp], ecx
  00007	8b 45 fc	 mov	 eax, DWORD PTR _this$[ebp]
  0000a	c7 00 00 00 00
	00		 mov	 DWORD PTR [eax], OFFSET ??_7CLogFile@@6B@

; 23   : 			if (m_fp)

  00010	8b 45 fc	 mov	 eax, DWORD PTR _this$[ebp]
  00013	83 78 04 00	 cmp	 DWORD PTR [eax+4], 0
  00017	74 0c		 je	 SHORT $LN2@CLogFile

; 24   : 				fclose(m_fp);

  00019	8b 45 fc	 mov	 eax, DWORD PTR _this$[ebp]
  0001c	ff 70 04	 push	 DWORD PTR [eax+4]
  0001f	e8 00 00 00 00	 call	 _fclose
  00024	59		 pop	 ecx
$LN2@CLogFile:

; 25   : 
; 26   : 			m_fp = NULL;

  00025	8b 45 fc	 mov	 eax, DWORD PTR _this$[ebp]
  00028	83 60 04 00	 and	 DWORD PTR [eax+4], 0
; File D:\Metin2 Server Files\mainline\SRC_2014\Metin2Client\EterBase\Singleton.h

; 19   : 	{ 

  0002c	8b 45 fc	 mov	 eax, DWORD PTR _this$[ebp]
  0002f	c7 00 00 00 00
	00		 mov	 DWORD PTR [eax], OFFSET ??_7?$CSingleton@VCLogFile@@@@6B@

; 20   : 		assert(ms_singleton);
; 21   : 		ms_singleton = 0; 

  00035	83 25 00 00 00
	00 00		 and	 DWORD PTR ?ms_singleton@?$CSingleton@VCLogFile@@@@0PAVCLogFile@@A, 0 ; CSingleton<CLogFile>::ms_singleton
; File D:\Metin2 Server Files\mainline\SRC_2014\Metin2Client\EterBase\Debug.cpp

; 27   : 		}

  0003c	c9		 leave
  0003d	c3		 ret	 0
??1CLogFile@@UAE@XZ ENDP				; CLogFile::~CLogFile
_TEXT	ENDS
; Function compile flags: /Odspy
; File D:\Metin2 Server Files\mainline\SRC_2014\Metin2Client\EterBase\Singleton.h
;	COMDAT ??_G?$CSingleton@VCLogFile@@@@UAEPAXI@Z
_TEXT	SEGMENT
_this$ = -4						; size = 4
___flags$ = 8						; size = 4
??_G?$CSingleton@VCLogFile@@@@UAEPAXI@Z PROC		; CSingleton<CLogFile>::`scalar deleting destructor', COMDAT
; _this$ = ecx
  00000	55		 push	 ebp
  00001	8b ec		 mov	 ebp, esp
  00003	51		 push	 ecx
  00004	89 4d fc	 mov	 DWORD PTR _this$[ebp], ecx

; 19   : 	{ 

  00007	8b 45 fc	 mov	 eax, DWORD PTR _this$[ebp]
  0000a	c7 00 00 00 00
	00		 mov	 DWORD PTR [eax], OFFSET ??_7?$CSingleton@VCLogFile@@@@6B@

; 20   : 		assert(ms_singleton);
; 21   : 		ms_singleton = 0; 

  00010	83 25 00 00 00
	00 00		 and	 DWORD PTR ?ms_singleton@?$CSingleton@VCLogFile@@@@0PAVCLogFile@@A, 0 ; CSingleton<CLogFile>::ms_singleton
  00017	8b 45 08	 mov	 eax, DWORD PTR ___flags$[ebp]
  0001a	83 e0 01	 and	 eax, 1
  0001d	74 0c		 je	 SHORT $LN2@scalar
  0001f	6a 04		 push	 4
  00021	ff 75 fc	 push	 DWORD PTR _this$[ebp]
  00024	e8 00 00 00 00	 call	 ??3@YAXPAXI@Z		; operator delete
  00029	59		 pop	 ecx
  0002a	59		 pop	 ecx
$LN2@scalar:
  0002b	8b 45 fc	 mov	 eax, DWORD PTR _this$[ebp]
  0002e	c9		 leave
  0002f	c2 04 00	 ret	 4
??_G?$CSingleton@VCLogFile@@@@UAEPAXI@Z ENDP		; CSingleton<CLogFile>::`scalar deleting destructor'
_TEXT	ENDS
; Function compile flags: /Odspy
; File D:\Metin2 Server Files\mainline\SRC_2014\Metin2Client\EterBase\Debug.cpp
;	COMDAT ?OpenLogFile@@YAX_N@Z
_TEXT	SEGMENT
_this$ = -4						; size = 4
_bUseLogFIle$ = 8					; size = 1
?OpenLogFile@@YAX_N@Z PROC				; OpenLogFile, COMDAT

; 308  : {

  00000	55		 push	 ebp
  00001	8b ec		 mov	 ebp, esp
  00003	51		 push	 ecx

; 309  : #ifndef _DISTRIBUTE 
; 310  : 	freopen("syserr.txt", "w", stderr);

  00004	6a 02		 push	 2
  00006	e8 00 00 00 00	 call	 ___acrt_iob_func
  0000b	59		 pop	 ecx
  0000c	50		 push	 eax
  0000d	68 00 00 00 00	 push	 OFFSET ??_C@_01NOFIACDB@w@
  00012	68 00 00 00 00	 push	 OFFSET ??_C@_0L@BOMBMLAA@syserr?4txt@
  00017	e8 00 00 00 00	 call	 _freopen
  0001c	83 c4 0c	 add	 esp, 12			; 0000000cH

; 311  : 
; 312  : 	if (bUseLogFIle)

  0001f	0f b6 45 08	 movzx	 eax, BYTE PTR _bUseLogFIle$[ebp]
  00023	85 c0		 test	 eax, eax
  00025	74 29		 je	 SHORT $LN1@OpenLogFil

; 313  : 	{
; 314  : 		isLogFile = true;

  00027	c7 05 00 00 00
	00 01 00 00 00	 mov	 DWORD PTR ?isLogFile@@3HA, 1

; 315  : 		CLogFile::Instance().Initialize();

  00031	a1 00 00 00 00	 mov	 eax, DWORD PTR ?ms_singleton@?$CSingleton@VCLogFile@@@@0PAVCLogFile@@A ; CSingleton<CLogFile>::ms_singleton
  00036	89 45 fc	 mov	 DWORD PTR _this$[ebp], eax

; 31   : 			m_fp = fopen("log.txt", "w");

  00039	68 00 00 00 00	 push	 OFFSET ??_C@_01NOFIACDB@w@
  0003e	68 00 00 00 00	 push	 OFFSET ??_C@_07POILLFDI@log?4txt@
  00043	e8 00 00 00 00	 call	 _fopen
  00048	59		 pop	 ecx
  00049	59		 pop	 ecx
  0004a	8b 4d fc	 mov	 ecx, DWORD PTR _this$[ebp]
  0004d	89 41 04	 mov	 DWORD PTR [ecx+4], eax
$LN1@OpenLogFil:

; 316  : 	}
; 317  : #endif
; 318  : }

  00050	c9		 leave
  00051	c3		 ret	 0
?OpenLogFile@@YAX_N@Z ENDP				; OpenLogFile
_TEXT	ENDS
; Function compile flags: /Odspy
; File D:\Metin2 Server Files\mainline\SRC_2014\Metin2Client\EterBase\Debug.cpp
;	COMDAT ?OpenConsoleWindow@@YAXXZ
_TEXT	SEGMENT
?OpenConsoleWindow@@YAXXZ PROC				; OpenConsoleWindow, COMDAT

; 321  : {

  00000	55		 push	 ebp
  00001	8b ec		 mov	 ebp, esp

; 322  : 	AllocConsole();

  00003	ff 15 00 00 00
	00		 call	 DWORD PTR __imp__AllocConsole@0

; 323  : 
; 324  : 	freopen("CONOUT$", "a", stdout);

  00009	6a 01		 push	 1
  0000b	e8 00 00 00 00	 call	 ___acrt_iob_func
  00010	59		 pop	 ecx
  00011	50		 push	 eax
  00012	68 00 00 00 00	 push	 OFFSET ??_C@_01MCMALHOG@a@
  00017	68 00 00 00 00	 push	 OFFSET ??_C@_07GPDNMNG@CONOUT$@
  0001c	e8 00 00 00 00	 call	 _freopen
  00021	83 c4 0c	 add	 esp, 12			; 0000000cH

; 325  : 	freopen("CONIN$", "r", stdin);

  00024	6a 00		 push	 0
  00026	e8 00 00 00 00	 call	 ___acrt_iob_func
  0002b	59		 pop	 ecx
  0002c	50		 push	 eax
  0002d	68 00 00 00 00	 push	 OFFSET ??_C@_01KDCPPGHE@r@
  00032	68 00 00 00 00	 push	 OFFSET ??_C@_06GDENEHCP@CONIN$@
  00037	e8 00 00 00 00	 call	 _freopen
  0003c	83 c4 0c	 add	 esp, 12			; 0000000cH

; 326  : }

  0003f	5d		 pop	 ebp
  00040	c3		 ret	 0
?OpenConsoleWindow@@YAXXZ ENDP				; OpenConsoleWindow
_TEXT	ENDS
; Function compile flags: /Odspy
; File D:\Metin2 Server Files\mainline\SRC_2014\Metin2Client\EterBase\Debug.cpp
; File C:\Program Files (x86)\Windows Kits\10\Include\10.0.18362.0\ucrt\stdio.h
; File D:\Metin2 Server Files\mainline\SRC_2014\Metin2Client\EterBase\Debug.cpp
;	COMDAT ?LogFilef@@YAXPBDZZ
_TEXT	SEGMENT
tv88 = -128						; size = 4
__Format$ = -124					; size = 4
_args$ = -120						; size = 4
__Result$1 = -116					; size = 4
_szBuf$ = -112						; size = 1025
__$ArrayPad$ = 916					; size = 4
_c_szMessage$ = 928					; size = 4
?LogFilef@@YAXPBDZZ PROC				; LogFilef, COMDAT

; 298  : {

  00000	55		 push	 ebp
  00001	8d ac 24 68 fc
	ff ff		 lea	 ebp, DWORD PTR [esp-920]
  00008	81 ec 18 04 00
	00		 sub	 esp, 1048		; 00000418H
  0000e	a1 00 00 00 00	 mov	 eax, DWORD PTR ___security_cookie
  00013	33 c5		 xor	 eax, ebp
  00015	89 85 94 03 00
	00		 mov	 DWORD PTR __$ArrayPad$[ebp], eax

; 299  : 	va_list args;
; 300  : 	va_start(args, c_szMessage);

  0001b	8d 85 a4 03 00
	00		 lea	 eax, DWORD PTR _c_szMessage$[ebp+4]
  00021	89 45 88	 mov	 DWORD PTR _args$[ebp], eax

; 301  : 	char szBuf[DEBUG_STRING_MAX_LEN+1];
; 302  : 	_vsnprintf(szBuf, sizeof(szBuf), c_szMessage, args);

  00024	8b 85 a0 03 00
	00		 mov	 eax, DWORD PTR _c_szMessage$[ebp]
  0002a	89 45 84	 mov	 DWORD PTR __Format$[ebp], eax
; File C:\Program Files (x86)\Windows Kits\10\Include\10.0.18362.0\ucrt\stdio.h

; 1390 :         int const _Result = __stdio_common_vsprintf(

  0002d	ff 75 88	 push	 DWORD PTR _args$[ebp]
  00030	6a 00		 push	 0
  00032	ff 75 84	 push	 DWORD PTR __Format$[ebp]
  00035	68 01 04 00 00	 push	 1025			; 00000401H
  0003a	8d 45 90	 lea	 eax, DWORD PTR _szBuf$[ebp]
  0003d	50		 push	 eax
  0003e	e8 00 00 00 00	 call	 ___local_stdio_printf_options
  00043	8b 08		 mov	 ecx, DWORD PTR [eax]
  00045	83 c9 01	 or	 ecx, 1
  00048	8b 40 04	 mov	 eax, DWORD PTR [eax+4]
  0004b	50		 push	 eax
  0004c	51		 push	 ecx
  0004d	e8 00 00 00 00	 call	 ___stdio_common_vsprintf
  00052	83 c4 1c	 add	 esp, 28			; 0000001cH
  00055	89 45 8c	 mov	 DWORD PTR __Result$1[ebp], eax

; 1391 :             _CRT_INTERNAL_LOCAL_PRINTF_OPTIONS | _CRT_INTERNAL_PRINTF_LEGACY_VSPRINTF_NULL_TERMINATION,
; 1392 :             _Buffer, _BufferCount, _Format, _Locale, _ArgList);
; 1393 : 
; 1394 :         return _Result < 0 ? -1 : _Result;

  00058	83 7d 8c 00	 cmp	 DWORD PTR __Result$1[ebp], 0
  0005c	7d 06		 jge	 SHORT $LN7@LogFilef
  0005e	83 4d 80 ff	 or	 DWORD PTR tv88[ebp], -1
  00062	eb 06		 jmp	 SHORT $LN9@LogFilef
$LN7@LogFilef:
  00064	8b 45 8c	 mov	 eax, DWORD PTR __Result$1[ebp]
  00067	89 45 80	 mov	 DWORD PTR tv88[ebp], eax
$LN9@LogFilef:
; File D:\Metin2 Server Files\mainline\SRC_2014\Metin2Client\EterBase\Debug.cpp

; 304  : 	CLogFile::Instance().Write(szBuf);

  0006a	8d 45 90	 lea	 eax, DWORD PTR _szBuf$[ebp]
  0006d	50		 push	 eax
  0006e	8b 0d 00 00 00
	00		 mov	 ecx, DWORD PTR ?ms_singleton@?$CSingleton@VCLogFile@@@@0PAVCLogFile@@A ; CSingleton<CLogFile>::ms_singleton
  00074	e8 00 00 00 00	 call	 ?Write@CLogFile@@QAEXPBD@Z ; CLogFile::Write

; 305  : }

  00079	8b 8d 94 03 00
	00		 mov	 ecx, DWORD PTR __$ArrayPad$[ebp]
  0007f	33 cd		 xor	 ecx, ebp
  00081	e8 00 00 00 00	 call	 @__security_check_cookie@4
  00086	81 c5 98 03 00
	00		 add	 ebp, 920		; 00000398H
  0008c	c9		 leave
  0008d	c3		 ret	 0
?LogFilef@@YAXPBDZZ ENDP				; LogFilef
_TEXT	ENDS
; Function compile flags: /Odspy
; File D:\Metin2 Server Files\mainline\SRC_2014\Metin2Client\EterBase\Debug.cpp
;	COMDAT ?LogFile@@YAXPBD@Z
_TEXT	SEGMENT
_c_szMsg$ = 8						; size = 4
?LogFile@@YAXPBD@Z PROC					; LogFile, COMDAT

; 293  : {

  00000	55		 push	 ebp
  00001	8b ec		 mov	 ebp, esp

; 294  : 	CLogFile::Instance().Write(c_szMsg);

  00003	ff 75 08	 push	 DWORD PTR _c_szMsg$[ebp]
  00006	8b 0d 00 00 00
	00		 mov	 ecx, DWORD PTR ?ms_singleton@?$CSingleton@VCLogFile@@@@0PAVCLogFile@@A ; CSingleton<CLogFile>::ms_singleton
  0000c	e8 00 00 00 00	 call	 ?Write@CLogFile@@QAEXPBD@Z ; CLogFile::Write

; 295  : }

  00011	5d		 pop	 ebp
  00012	c3		 ret	 0
?LogFile@@YAXPBD@Z ENDP					; LogFile
_TEXT	ENDS
; Function compile flags: /Odspy
; File D:\Metin2 Server Files\mainline\SRC_2014\Metin2Client\EterBase\Debug.cpp
; File C:\Program Files (x86)\Windows Kits\10\Include\10.0.18362.0\ucrt\stdio.h
; File D:\Metin2 Server Files\mainline\SRC_2014\Metin2Client\EterBase\Debug.cpp
;	COMDAT ?LogBoxf@@YAXPBDZZ
_TEXT	SEGMENT
tv88 = -128						; size = 4
__Format$ = -124					; size = 4
_args$ = -120						; size = 4
__Result$1 = -116					; size = 4
_szBuf$ = -112						; size = 2048
__$ArrayPad$ = 1936					; size = 4
_c_szFormat$ = 1948					; size = 4
?LogBoxf@@YAXPBDZZ PROC					; LogBoxf, COMDAT

; 273  : {

  00000	55		 push	 ebp
  00001	8d ac 24 6c f8
	ff ff		 lea	 ebp, DWORD PTR [esp-1940]
  00008	81 ec 14 08 00
	00		 sub	 esp, 2068		; 00000814H
  0000e	a1 00 00 00 00	 mov	 eax, DWORD PTR ___security_cookie
  00013	33 c5		 xor	 eax, ebp
  00015	89 85 90 07 00
	00		 mov	 DWORD PTR __$ArrayPad$[ebp], eax

; 274  : 	va_list args;
; 275  : 	va_start(args, c_szFormat);

  0001b	8d 85 a0 07 00
	00		 lea	 eax, DWORD PTR _c_szFormat$[ebp+4]
  00021	89 45 88	 mov	 DWORD PTR _args$[ebp], eax

; 276  : 
; 277  : 	char szBuf[2048];
; 278  : 	_vsnprintf(szBuf, sizeof(szBuf), c_szFormat, args);

  00024	8b 85 9c 07 00
	00		 mov	 eax, DWORD PTR _c_szFormat$[ebp]
  0002a	89 45 84	 mov	 DWORD PTR __Format$[ebp], eax
; File C:\Program Files (x86)\Windows Kits\10\Include\10.0.18362.0\ucrt\stdio.h

; 1390 :         int const _Result = __stdio_common_vsprintf(

  0002d	ff 75 88	 push	 DWORD PTR _args$[ebp]
  00030	6a 00		 push	 0
  00032	ff 75 84	 push	 DWORD PTR __Format$[ebp]
  00035	68 00 08 00 00	 push	 2048			; 00000800H
  0003a	8d 45 90	 lea	 eax, DWORD PTR _szBuf$[ebp]
  0003d	50		 push	 eax
  0003e	e8 00 00 00 00	 call	 ___local_stdio_printf_options
  00043	8b 08		 mov	 ecx, DWORD PTR [eax]
  00045	83 c9 01	 or	 ecx, 1
  00048	8b 40 04	 mov	 eax, DWORD PTR [eax+4]
  0004b	50		 push	 eax
  0004c	51		 push	 ecx
  0004d	e8 00 00 00 00	 call	 ___stdio_common_vsprintf
  00052	83 c4 1c	 add	 esp, 28			; 0000001cH
  00055	89 45 8c	 mov	 DWORD PTR __Result$1[ebp], eax

; 1391 :             _CRT_INTERNAL_LOCAL_PRINTF_OPTIONS | _CRT_INTERNAL_PRINTF_LEGACY_VSPRINTF_NULL_TERMINATION,
; 1392 :             _Buffer, _BufferCount, _Format, _Locale, _ArgList);
; 1393 : 
; 1394 :         return _Result < 0 ? -1 : _Result;

  00058	83 7d 8c 00	 cmp	 DWORD PTR __Result$1[ebp], 0
  0005c	7d 06		 jge	 SHORT $LN7@LogBoxf
  0005e	83 4d 80 ff	 or	 DWORD PTR tv88[ebp], -1
  00062	eb 06		 jmp	 SHORT $LN3@LogBoxf
$LN7@LogBoxf:
  00064	8b 45 8c	 mov	 eax, DWORD PTR __Result$1[ebp]
  00067	89 45 80	 mov	 DWORD PTR tv88[ebp], eax
$LN3@LogBoxf:
; File D:\Metin2 Server Files\mainline\SRC_2014\Metin2Client\EterBase\Debug.cpp

; 280  : 	LogBox(szBuf);

  0006a	6a 00		 push	 0
  0006c	6a 00		 push	 0
  0006e	8d 45 90	 lea	 eax, DWORD PTR _szBuf$[ebp]
  00071	50		 push	 eax
  00072	e8 00 00 00 00	 call	 ?LogBox@@YAXPBD0PAUHWND__@@@Z ; LogBox
  00077	83 c4 0c	 add	 esp, 12			; 0000000cH

; 281  : }

  0007a	8b 8d 90 07 00
	00		 mov	 ecx, DWORD PTR __$ArrayPad$[ebp]
  00080	33 cd		 xor	 ecx, ebp
  00082	e8 00 00 00 00	 call	 @__security_check_cookie@4
  00087	81 c5 94 07 00
	00		 add	 ebp, 1940		; 00000794H
  0008d	c9		 leave
  0008e	c3		 ret	 0
?LogBoxf@@YAXPBDZZ ENDP					; LogBoxf
_TEXT	ENDS
; Function compile flags: /Odspy
; File D:\Metin2 Server Files\mainline\SRC_2014\Metin2Client\EterBase\Debug.cpp
;	COMDAT ?LogBox@@YAXPBD0PAUHWND__@@@Z
_TEXT	SEGMENT
tv68 = -4						; size = 4
_c_szMsg$ = 8						; size = 4
_c_szCaption$ = 12					; size = 4
_hWnd$ = 16						; size = 4
?LogBox@@YAXPBD0PAUHWND__@@@Z PROC			; LogBox, COMDAT

; 284  : {

  00000	55		 push	 ebp
  00001	8b ec		 mov	 ebp, esp
  00003	51		 push	 ecx

; 285  : 	if (!hWnd)

  00004	83 7d 10 00	 cmp	 DWORD PTR _hWnd$[ebp], 0
  00008	75 08		 jne	 SHORT $LN2@LogBox

; 286  : 		hWnd = g_PopupHwnd;

  0000a	a1 00 00 00 00	 mov	 eax, DWORD PTR ?g_PopupHwnd@@3PAUHWND__@@A ; g_PopupHwnd
  0000f	89 45 10	 mov	 DWORD PTR _hWnd$[ebp], eax
$LN2@LogBox:

; 287  : 
; 288  : 	MessageBox(hWnd, c_szMsg, c_szCaption ? c_szCaption : "LOG", MB_OK);

  00012	83 7d 0c 00	 cmp	 DWORD PTR _c_szCaption$[ebp], 0
  00016	74 08		 je	 SHORT $LN4@LogBox
  00018	8b 45 0c	 mov	 eax, DWORD PTR _c_szCaption$[ebp]
  0001b	89 45 fc	 mov	 DWORD PTR tv68[ebp], eax
  0001e	eb 07		 jmp	 SHORT $LN5@LogBox
$LN4@LogBox:
  00020	c7 45 fc 00 00
	00 00		 mov	 DWORD PTR tv68[ebp], OFFSET ??_C@_03MLIHNEFJ@LOG@
$LN5@LogBox:
  00027	6a 00		 push	 0
  00029	ff 75 fc	 push	 DWORD PTR tv68[ebp]
  0002c	ff 75 08	 push	 DWORD PTR _c_szMsg$[ebp]
  0002f	ff 75 10	 push	 DWORD PTR _hWnd$[ebp]
  00032	ff 15 00 00 00
	00		 call	 DWORD PTR __imp__MessageBoxA@16

; 289  : 	Tracen(c_szMsg);

  00038	ff 75 08	 push	 DWORD PTR _c_szMsg$[ebp]
  0003b	e8 00 00 00 00	 call	 ?Tracen@@YAXPBD@Z	; Tracen
  00040	59		 pop	 ecx

; 290  : }

  00041	c9		 leave
  00042	c3		 ret	 0
?LogBox@@YAXPBD0PAUHWND__@@@Z ENDP			; LogBox
_TEXT	ENDS
; Function compile flags: /Odspy
; File D:\Metin2 Server Files\mainline\SRC_2014\Metin2Client\EterBase\Debug.cpp
; File C:\Program Files (x86)\Windows Kits\10\Include\10.0.18362.0\ucrt\stdio.h
; File D:\Metin2 Server Files\mainline\SRC_2014\Metin2Client\EterBase\Debug.cpp
; File C:\Program Files (x86)\Windows Kits\10\Include\10.0.18362.0\ucrt\time.h
; File D:\Metin2 Server Files\mainline\SRC_2014\Metin2Client\EterBase\Debug.cpp
; File C:\Program Files (x86)\Windows Kits\10\Include\10.0.18362.0\ucrt\time.h
; File D:\Metin2 Server Files\mainline\SRC_2014\Metin2Client\EterBase\Debug.cpp
;	COMDAT ?TraceErrorWithoutEnter@@YAXPBDZZ
_TEXT	SEGMENT
_ct$ = -128						; size = 8
$T1 = -120						; size = 4
tv141 = -116						; size = 4
__Format$ = -112					; size = 4
_args$ = -108						; size = 4
__Result$2 = -104					; size = 4
_ctm$ = -100						; size = 36
_szBuf$ = -64						; size = 1024
__$ArrayPad$ = 960					; size = 4
_c_szFormat$ = 972					; size = 4
?TraceErrorWithoutEnter@@YAXPBDZZ PROC			; TraceErrorWithoutEnter, COMDAT

; 240  : {

  00000	55		 push	 ebp
  00001	8d ac 24 3c fc
	ff ff		 lea	 ebp, DWORD PTR [esp-964]
  00008	81 ec 44 04 00
	00		 sub	 esp, 1092		; 00000444H
  0000e	a1 00 00 00 00	 mov	 eax, DWORD PTR ___security_cookie
  00013	33 c5		 xor	 eax, ebp
  00015	89 85 c0 03 00
	00		 mov	 DWORD PTR __$ArrayPad$[ebp], eax
  0001b	56		 push	 esi
  0001c	57		 push	 edi

; 241  : #ifndef _DISTRIBUTE 
; 242  : 
; 243  : 	char szBuf[DEBUG_STRING_MAX_LEN];
; 244  : 
; 245  : 	va_list args;
; 246  : 	va_start(args, c_szFormat);

  0001d	8d 85 d0 03 00
	00		 lea	 eax, DWORD PTR _c_szFormat$[ebp+4]
  00023	89 45 94	 mov	 DWORD PTR _args$[ebp], eax

; 247  : 	_vsnprintf(szBuf, sizeof(szBuf), c_szFormat, args);

  00026	8b 85 cc 03 00
	00		 mov	 eax, DWORD PTR _c_szFormat$[ebp]
  0002c	89 45 90	 mov	 DWORD PTR __Format$[ebp], eax
; File C:\Program Files (x86)\Windows Kits\10\Include\10.0.18362.0\ucrt\stdio.h

; 1390 :         int const _Result = __stdio_common_vsprintf(

  0002f	ff 75 94	 push	 DWORD PTR _args$[ebp]
  00032	6a 00		 push	 0
  00034	ff 75 90	 push	 DWORD PTR __Format$[ebp]
  00037	68 00 04 00 00	 push	 1024			; 00000400H
  0003c	8d 45 c0	 lea	 eax, DWORD PTR _szBuf$[ebp]
  0003f	50		 push	 eax
  00040	e8 00 00 00 00	 call	 ___local_stdio_printf_options
  00045	8b 08		 mov	 ecx, DWORD PTR [eax]
  00047	83 c9 01	 or	 ecx, 1
  0004a	8b 40 04	 mov	 eax, DWORD PTR [eax+4]
  0004d	50		 push	 eax
  0004e	51		 push	 ecx
  0004f	e8 00 00 00 00	 call	 ___stdio_common_vsprintf
  00054	83 c4 1c	 add	 esp, 28			; 0000001cH
  00057	89 45 98	 mov	 DWORD PTR __Result$2[ebp], eax

; 1391 :             _CRT_INTERNAL_LOCAL_PRINTF_OPTIONS | _CRT_INTERNAL_PRINTF_LEGACY_VSPRINTF_NULL_TERMINATION,
; 1392 :             _Buffer, _BufferCount, _Format, _Locale, _ArgList);
; 1393 : 
; 1394 :         return _Result < 0 ? -1 : _Result;

  0005a	83 7d 98 00	 cmp	 DWORD PTR __Result$2[ebp], 0
  0005e	7d 06		 jge	 SHORT $LN8@TraceError
  00060	83 4d 8c ff	 or	 DWORD PTR tv141[ebp], -1
  00064	eb 06		 jmp	 SHORT $LN4@TraceError
$LN8@TraceError:
  00066	8b 45 98	 mov	 eax, DWORD PTR __Result$2[ebp]
  00069	89 45 8c	 mov	 DWORD PTR tv141[ebp], eax
$LN4@TraceError:
; File D:\Metin2 Server Files\mainline\SRC_2014\Metin2Client\EterBase\Debug.cpp

; 248  : 	va_end(args);

  0006c	83 65 94 00	 and	 DWORD PTR _args$[ebp], 0
; File C:\Program Files (x86)\Windows Kits\10\Include\10.0.18362.0\ucrt\time.h

; 536  :             return _time64(_Time);

  00070	6a 00		 push	 0
  00072	e8 00 00 00 00	 call	 __time64
  00077	59		 pop	 ecx
; File D:\Metin2 Server Files\mainline\SRC_2014\Metin2Client\EterBase\Debug.cpp

; 250  : 	time_t ct = time(0);

  00078	89 45 80	 mov	 DWORD PTR _ct$[ebp], eax
  0007b	89 55 84	 mov	 DWORD PTR _ct$[ebp+4], edx
; File C:\Program Files (x86)\Windows Kits\10\Include\10.0.18362.0\ucrt\time.h

; 512  :             return _localtime64(_Time);

  0007e	8d 45 80	 lea	 eax, DWORD PTR _ct$[ebp]
  00081	50		 push	 eax
  00082	e8 00 00 00 00	 call	 __localtime64
  00087	59		 pop	 ecx
  00088	89 45 88	 mov	 DWORD PTR $T1[ebp], eax
; File D:\Metin2 Server Files\mainline\SRC_2014\Metin2Client\EterBase\Debug.cpp

; 251  : 	struct tm ctm = *localtime(&ct);

  0008b	6a 09		 push	 9
  0008d	59		 pop	 ecx
  0008e	8b 75 88	 mov	 esi, DWORD PTR $T1[ebp]
  00091	8d 7d 9c	 lea	 edi, DWORD PTR _ctm$[ebp]
  00094	f3 a5		 rep movsd

; 252  : 
; 253  : 	fprintf(stderr, "%02d%02d %02d:%02d:%05d :: %s", 

  00096	8d 45 c8	 lea	 eax, DWORD PTR _szBuf$[ebp+8]
  00099	50		 push	 eax
  0009a	e8 00 00 00 00	 call	 ?ELTimer_GetMSec@@YAKXZ	; ELTimer_GetMSec
  0009f	33 d2		 xor	 edx, edx
  000a1	b9 60 ea 00 00	 mov	 ecx, 60000		; 0000ea60H
  000a6	f7 f1		 div	 ecx
  000a8	52		 push	 edx
  000a9	ff 75 a0	 push	 DWORD PTR _ctm$[ebp+4]
  000ac	ff 75 a4	 push	 DWORD PTR _ctm$[ebp+8]
  000af	ff 75 a8	 push	 DWORD PTR _ctm$[ebp+12]
  000b2	8b 45 ac	 mov	 eax, DWORD PTR _ctm$[ebp+16]
  000b5	40		 inc	 eax
  000b6	50		 push	 eax
  000b7	68 00 00 00 00	 push	 OFFSET ??_C@_0BO@IGAAHNNJ@?$CF02d?$CF02d?5?$CF02d?3?$CF02d?3?$CF05d?5?3?3?5?$CFs@
  000bc	6a 02		 push	 2
  000be	e8 00 00 00 00	 call	 ___acrt_iob_func
  000c3	59		 pop	 ecx
  000c4	50		 push	 eax
  000c5	e8 00 00 00 00	 call	 _fprintf
  000ca	83 c4 20	 add	 esp, 32			; 00000020H

; 254  : 					ctm.tm_mon + 1, 
; 255  : 					ctm.tm_mday,
; 256  : 					ctm.tm_hour,
; 257  : 					ctm.tm_min,
; 258  : 					ELTimer_GetMSec() % 60000,
; 259  : 					szBuf + 8);
; 260  : 	fflush(stderr);

  000cd	6a 02		 push	 2
  000cf	e8 00 00 00 00	 call	 ___acrt_iob_func
  000d4	59		 pop	 ecx
  000d5	50		 push	 eax
  000d6	e8 00 00 00 00	 call	 _fflush
  000db	59		 pop	 ecx

; 261  : 
; 262  : #ifdef _DEBUG
; 263  : 	OutputDebugString(szBuf);
; 264  : 	fputs(szBuf, stdout);
; 265  : #endif
; 266  : 
; 267  : 	if (isLogFile)

  000dc	83 3d 00 00 00
	00 00		 cmp	 DWORD PTR ?isLogFile@@3HA, 0
  000e3	74 0a		 je	 SHORT $LN1@TraceError

; 268  : 		LogFile(szBuf);

  000e5	8d 45 c0	 lea	 eax, DWORD PTR _szBuf$[ebp]
  000e8	50		 push	 eax
  000e9	e8 00 00 00 00	 call	 ?LogFile@@YAXPBD@Z	; LogFile
  000ee	59		 pop	 ecx
$LN1@TraceError:

; 269  : #endif
; 270  : }

  000ef	5f		 pop	 edi
  000f0	5e		 pop	 esi
  000f1	8b 8d c0 03 00
	00		 mov	 ecx, DWORD PTR __$ArrayPad$[ebp]
  000f7	33 cd		 xor	 ecx, ebp
  000f9	e8 00 00 00 00	 call	 @__security_check_cookie@4
  000fe	81 c5 c4 03 00
	00		 add	 ebp, 964		; 000003c4H
  00104	c9		 leave
  00105	c3		 ret	 0
?TraceErrorWithoutEnter@@YAXPBDZZ ENDP			; TraceErrorWithoutEnter
_TEXT	ENDS
; Function compile flags: /Odspy
; File D:\Metin2 Server Files\mainline\SRC_2014\Metin2Client\EterBase\Debug.cpp
; File C:\Program Files (x86)\Windows Kits\10\Include\10.0.18362.0\ucrt\stdio.h
; File D:\Metin2 Server Files\mainline\SRC_2014\Metin2Client\EterBase\Debug.cpp
; File C:\Program Files (x86)\Windows Kits\10\Include\10.0.18362.0\ucrt\stdio.h
; File D:\Metin2 Server Files\mainline\SRC_2014\Metin2Client\EterBase\Debug.cpp
; File C:\Program Files (x86)\Windows Kits\10\Include\10.0.18362.0\ucrt\stdio.h
; File D:\Metin2 Server Files\mainline\SRC_2014\Metin2Client\EterBase\Debug.cpp
; File C:\Program Files (x86)\Windows Kits\10\Include\10.0.18362.0\ucrt\time.h
; File D:\Metin2 Server Files\mainline\SRC_2014\Metin2Client\EterBase\Debug.cpp
; File C:\Program Files (x86)\Windows Kits\10\Include\10.0.18362.0\ucrt\time.h
; File D:\Metin2 Server Files\mainline\SRC_2014\Metin2Client\EterBase\Debug.cpp
;	COMDAT ?TraceError@@YAXPBDZZ
_TEXT	SEGMENT
_ct$ = -128						; size = 8
$T1 = -120						; size = 4
__Format$ = -116					; size = 4
$T2 = -112						; size = 4
_args$ = -108						; size = 4
tv156 = -104						; size = 4
__Result$3 = -100					; size = 4
_len$ = -96						; size = 4
_ctm$ = -92						; size = 36
_szBuf$ = -56						; size = 1026
__$ArrayPad$ = 972					; size = 4
_c_szFormat$ = 984					; size = 4
?TraceError@@YAXPBDZZ PROC				; TraceError, COMDAT

; 200  : {

  00000	55		 push	 ebp
  00001	8d ac 24 30 fc
	ff ff		 lea	 ebp, DWORD PTR [esp-976]
  00008	81 ec 50 04 00
	00		 sub	 esp, 1104		; 00000450H
  0000e	a1 00 00 00 00	 mov	 eax, DWORD PTR ___security_cookie
  00013	33 c5		 xor	 eax, ebp
  00015	89 85 cc 03 00
	00		 mov	 DWORD PTR __$ArrayPad$[ebp], eax
  0001b	56		 push	 esi
  0001c	57		 push	 edi

; 201  : #ifndef _DISTRIBUTE 
; 202  : 
; 203  : 	char szBuf[DEBUG_STRING_MAX_LEN+2];
; 204  : 
; 205  : 	strncpy(szBuf, "SYSERR: ", DEBUG_STRING_MAX_LEN);

  0001d	68 00 04 00 00	 push	 1024			; 00000400H
  00022	68 00 00 00 00	 push	 OFFSET ??_C@_08MKEHAJJM@SYSERR?3?5@
  00027	8d 45 c8	 lea	 eax, DWORD PTR _szBuf$[ebp]
  0002a	50		 push	 eax
  0002b	e8 00 00 00 00	 call	 _strncpy
  00030	83 c4 0c	 add	 esp, 12			; 0000000cH

; 206  : 	int len = strlen(szBuf);

  00033	8d 45 c8	 lea	 eax, DWORD PTR _szBuf$[ebp]
  00036	50		 push	 eax
  00037	e8 00 00 00 00	 call	 _strlen
  0003c	59		 pop	 ecx
  0003d	89 45 a0	 mov	 DWORD PTR _len$[ebp], eax

; 207  : 
; 208  : 	va_list args;
; 209  : 	va_start(args, c_szFormat);

  00040	8d 85 dc 03 00
	00		 lea	 eax, DWORD PTR _c_szFormat$[ebp+4]
  00046	89 45 94	 mov	 DWORD PTR _args$[ebp], eax

; 210  : 	len = _vsnprintf(szBuf + len, sizeof(szBuf) - (len + 1), c_szFormat, args) + len;

  00049	8b 85 d8 03 00
	00		 mov	 eax, DWORD PTR _c_szFormat$[ebp]
  0004f	89 45 8c	 mov	 DWORD PTR __Format$[ebp], eax
; File C:\Program Files (x86)\Windows Kits\10\Include\10.0.18362.0\ucrt\stdio.h

; 1390 :         int const _Result = __stdio_common_vsprintf(

  00052	ff 75 94	 push	 DWORD PTR _args$[ebp]
  00055	6a 00		 push	 0
  00057	ff 75 8c	 push	 DWORD PTR __Format$[ebp]
; File D:\Metin2 Server Files\mainline\SRC_2014\Metin2Client\EterBase\Debug.cpp

; 210  : 	len = _vsnprintf(szBuf + len, sizeof(szBuf) - (len + 1), c_szFormat, args) + len;

  0005a	8b 45 a0	 mov	 eax, DWORD PTR _len$[ebp]
  0005d	40		 inc	 eax
  0005e	b9 02 04 00 00	 mov	 ecx, 1026		; 00000402H
  00063	2b c8		 sub	 ecx, eax
; File C:\Program Files (x86)\Windows Kits\10\Include\10.0.18362.0\ucrt\stdio.h

; 1390 :         int const _Result = __stdio_common_vsprintf(

  00065	51		 push	 ecx
; File D:\Metin2 Server Files\mainline\SRC_2014\Metin2Client\EterBase\Debug.cpp

; 210  : 	len = _vsnprintf(szBuf + len, sizeof(szBuf) - (len + 1), c_szFormat, args) + len;

  00066	8b 45 a0	 mov	 eax, DWORD PTR _len$[ebp]
  00069	8d 44 05 c8	 lea	 eax, DWORD PTR _szBuf$[ebp+eax]
; File C:\Program Files (x86)\Windows Kits\10\Include\10.0.18362.0\ucrt\stdio.h

; 1390 :         int const _Result = __stdio_common_vsprintf(

  0006d	50		 push	 eax
  0006e	e8 00 00 00 00	 call	 ___local_stdio_printf_options
  00073	8b 08		 mov	 ecx, DWORD PTR [eax]
  00075	83 c9 01	 or	 ecx, 1
  00078	8b 40 04	 mov	 eax, DWORD PTR [eax+4]
  0007b	50		 push	 eax
  0007c	51		 push	 ecx
  0007d	e8 00 00 00 00	 call	 ___stdio_common_vsprintf
  00082	83 c4 1c	 add	 esp, 28			; 0000001cH
  00085	89 45 9c	 mov	 DWORD PTR __Result$3[ebp], eax

; 1391 :             _CRT_INTERNAL_LOCAL_PRINTF_OPTIONS | _CRT_INTERNAL_PRINTF_LEGACY_VSPRINTF_NULL_TERMINATION,
; 1392 :             _Buffer, _BufferCount, _Format, _Locale, _ArgList);
; 1393 : 
; 1394 :         return _Result < 0 ? -1 : _Result;

  00088	83 7d 9c 00	 cmp	 DWORD PTR __Result$3[ebp], 0
  0008c	7d 06		 jge	 SHORT $LN10@TraceError
  0008e	83 4d 98 ff	 or	 DWORD PTR tv156[ebp], -1
  00092	eb 06		 jmp	 SHORT $LN6@TraceError
$LN10@TraceError:
  00094	8b 45 9c	 mov	 eax, DWORD PTR __Result$3[ebp]
  00097	89 45 98	 mov	 DWORD PTR tv156[ebp], eax
$LN6@TraceError:
; File D:\Metin2 Server Files\mainline\SRC_2014\Metin2Client\EterBase\Debug.cpp

; 210  : 	len = _vsnprintf(szBuf + len, sizeof(szBuf) - (len + 1), c_szFormat, args) + len;

  0009a	8b 45 98	 mov	 eax, DWORD PTR tv156[ebp]
  0009d	03 45 a0	 add	 eax, DWORD PTR _len$[ebp]
  000a0	89 45 a0	 mov	 DWORD PTR _len$[ebp], eax

; 211  : 	va_end(args);

  000a3	83 65 94 00	 and	 DWORD PTR _args$[ebp], 0

; 212  : 
; 213  : 	szBuf[len] = '\n';

  000a7	8b 45 a0	 mov	 eax, DWORD PTR _len$[ebp]
  000aa	c6 44 05 c8 0a	 mov	 BYTE PTR _szBuf$[ebp+eax], 10 ; 0000000aH

; 214  : 	szBuf[len + 1] = '\0';

  000af	8b 45 a0	 mov	 eax, DWORD PTR _len$[ebp]
  000b2	40		 inc	 eax
  000b3	89 45 90	 mov	 DWORD PTR $T2[ebp], eax
  000b6	81 7d 90 02 04
	00 00		 cmp	 DWORD PTR $T2[ebp], 1026 ; 00000402H
  000bd	73 02		 jae	 SHORT $LN4@TraceError
  000bf	eb 05		 jmp	 SHORT $LN5@TraceError
$LN4@TraceError:
  000c1	e8 00 00 00 00	 call	 ___report_rangecheckfailure
$LN5@TraceError:
  000c6	8b 45 90	 mov	 eax, DWORD PTR $T2[ebp]
  000c9	c6 44 05 c8 00	 mov	 BYTE PTR _szBuf$[ebp+eax], 0
; File C:\Program Files (x86)\Windows Kits\10\Include\10.0.18362.0\ucrt\time.h

; 536  :             return _time64(_Time);

  000ce	6a 00		 push	 0
  000d0	e8 00 00 00 00	 call	 __time64
  000d5	59		 pop	 ecx
; File D:\Metin2 Server Files\mainline\SRC_2014\Metin2Client\EterBase\Debug.cpp

; 216  : 	time_t ct = time(0);

  000d6	89 45 80	 mov	 DWORD PTR _ct$[ebp], eax
  000d9	89 55 84	 mov	 DWORD PTR _ct$[ebp+4], edx
; File C:\Program Files (x86)\Windows Kits\10\Include\10.0.18362.0\ucrt\time.h

; 512  :             return _localtime64(_Time);

  000dc	8d 45 80	 lea	 eax, DWORD PTR _ct$[ebp]
  000df	50		 push	 eax
  000e0	e8 00 00 00 00	 call	 __localtime64
  000e5	59		 pop	 ecx
  000e6	89 45 88	 mov	 DWORD PTR $T1[ebp], eax
; File D:\Metin2 Server Files\mainline\SRC_2014\Metin2Client\EterBase\Debug.cpp

; 217  : 	struct tm ctm = *localtime(&ct);

  000e9	6a 09		 push	 9
  000eb	59		 pop	 ecx
  000ec	8b 75 88	 mov	 esi, DWORD PTR $T1[ebp]
  000ef	8d 7d a4	 lea	 edi, DWORD PTR _ctm$[ebp]
  000f2	f3 a5		 rep movsd

; 218  : 
; 219  : 	fprintf(stderr, "%02d%02d %02d:%02d:%05d :: %s", 

  000f4	8d 45 d0	 lea	 eax, DWORD PTR _szBuf$[ebp+8]
  000f7	50		 push	 eax
  000f8	e8 00 00 00 00	 call	 ?ELTimer_GetMSec@@YAKXZ	; ELTimer_GetMSec
  000fd	33 d2		 xor	 edx, edx
  000ff	b9 60 ea 00 00	 mov	 ecx, 60000		; 0000ea60H
  00104	f7 f1		 div	 ecx
  00106	52		 push	 edx
  00107	ff 75 a8	 push	 DWORD PTR _ctm$[ebp+4]
  0010a	ff 75 ac	 push	 DWORD PTR _ctm$[ebp+8]
  0010d	ff 75 b0	 push	 DWORD PTR _ctm$[ebp+12]
  00110	8b 45 b4	 mov	 eax, DWORD PTR _ctm$[ebp+16]
  00113	40		 inc	 eax
  00114	50		 push	 eax
  00115	68 00 00 00 00	 push	 OFFSET ??_C@_0BO@IGAAHNNJ@?$CF02d?$CF02d?5?$CF02d?3?$CF02d?3?$CF05d?5?3?3?5?$CFs@
  0011a	6a 02		 push	 2
  0011c	e8 00 00 00 00	 call	 ___acrt_iob_func
  00121	59		 pop	 ecx
  00122	50		 push	 eax
  00123	e8 00 00 00 00	 call	 _fprintf
  00128	83 c4 20	 add	 esp, 32			; 00000020H

; 220  : 					ctm.tm_mon + 1, 
; 221  : 					ctm.tm_mday,
; 222  : 					ctm.tm_hour,
; 223  : 					ctm.tm_min,
; 224  : 					ELTimer_GetMSec() % 60000,
; 225  : 					szBuf + 8);
; 226  : 	fflush(stderr);

  0012b	6a 02		 push	 2
  0012d	e8 00 00 00 00	 call	 ___acrt_iob_func
  00132	59		 pop	 ecx
  00133	50		 push	 eax
  00134	e8 00 00 00 00	 call	 _fflush
  00139	59		 pop	 ecx

; 227  : 	
; 228  : #ifdef _DEBUG
; 229  : 	OutputDebugString(szBuf);
; 230  : 	fputs(szBuf, stdout);
; 231  : #endif
; 232  : 
; 233  : 	if (isLogFile)

  0013a	83 3d 00 00 00
	00 00		 cmp	 DWORD PTR ?isLogFile@@3HA, 0
  00141	74 0a		 je	 SHORT $LN3@TraceError

; 234  : 		LogFile(szBuf);

  00143	8d 45 c8	 lea	 eax, DWORD PTR _szBuf$[ebp]
  00146	50		 push	 eax
  00147	e8 00 00 00 00	 call	 ?LogFile@@YAXPBD@Z	; LogFile
  0014c	59		 pop	 ecx
$LN3@TraceError:

; 235  : 
; 236  : #endif
; 237  : }

  0014d	5f		 pop	 edi
  0014e	5e		 pop	 esi
  0014f	8b 8d cc 03 00
	00		 mov	 ecx, DWORD PTR __$ArrayPad$[ebp]
  00155	33 cd		 xor	 ecx, ebp
  00157	e8 00 00 00 00	 call	 @__security_check_cookie@4
  0015c	81 c5 d0 03 00
	00		 add	 ebp, 976		; 000003d0H
  00162	c9		 leave
  00163	c3		 ret	 0
?TraceError@@YAXPBDZZ ENDP				; TraceError
_TEXT	ENDS
; Function compile flags: /Odspy
; File D:\Metin2 Server Files\mainline\SRC_2014\Metin2Client\EterBase\Debug.cpp
; File C:\Program Files (x86)\Windows Kits\10\Include\10.0.18362.0\ucrt\stdio.h
; File D:\Metin2 Server Files\mainline\SRC_2014\Metin2Client\EterBase\Debug.cpp
;	COMDAT ?Tracef@@YAXPBDZZ
_TEXT	SEGMENT
tv87 = -128						; size = 4
__Format$ = -124					; size = 4
_args$ = -120						; size = 4
__Result$1 = -116					; size = 4
_szBuf$ = -112						; size = 1025
__$ArrayPad$ = 916					; size = 4
_c_szFormat$ = 928					; size = 4
?Tracef@@YAXPBDZZ PROC					; Tracef, COMDAT

; 182  : {

  00000	55		 push	 ebp
  00001	8d ac 24 68 fc
	ff ff		 lea	 ebp, DWORD PTR [esp-920]
  00008	81 ec 18 04 00
	00		 sub	 esp, 1048		; 00000418H
  0000e	a1 00 00 00 00	 mov	 eax, DWORD PTR ___security_cookie
  00013	33 c5		 xor	 eax, ebp
  00015	89 85 94 03 00
	00		 mov	 DWORD PTR __$ArrayPad$[ebp], eax

; 183  : 	char szBuf[DEBUG_STRING_MAX_LEN+1];
; 184  : 
; 185  : 	va_list args;
; 186  : 	va_start(args, c_szFormat);

  0001b	8d 85 a4 03 00
	00		 lea	 eax, DWORD PTR _c_szFormat$[ebp+4]
  00021	89 45 88	 mov	 DWORD PTR _args$[ebp], eax

; 187  : 	_vsnprintf(szBuf, sizeof(szBuf), c_szFormat, args);

  00024	8b 85 a0 03 00
	00		 mov	 eax, DWORD PTR _c_szFormat$[ebp]
  0002a	89 45 84	 mov	 DWORD PTR __Format$[ebp], eax
; File C:\Program Files (x86)\Windows Kits\10\Include\10.0.18362.0\ucrt\stdio.h

; 1390 :         int const _Result = __stdio_common_vsprintf(

  0002d	ff 75 88	 push	 DWORD PTR _args$[ebp]
  00030	6a 00		 push	 0
  00032	ff 75 84	 push	 DWORD PTR __Format$[ebp]
  00035	68 01 04 00 00	 push	 1025			; 00000401H
  0003a	8d 45 90	 lea	 eax, DWORD PTR _szBuf$[ebp]
  0003d	50		 push	 eax
  0003e	e8 00 00 00 00	 call	 ___local_stdio_printf_options
  00043	8b 08		 mov	 ecx, DWORD PTR [eax]
  00045	83 c9 01	 or	 ecx, 1
  00048	8b 40 04	 mov	 eax, DWORD PTR [eax+4]
  0004b	50		 push	 eax
  0004c	51		 push	 ecx
  0004d	e8 00 00 00 00	 call	 ___stdio_common_vsprintf
  00052	83 c4 1c	 add	 esp, 28			; 0000001cH
  00055	89 45 8c	 mov	 DWORD PTR __Result$1[ebp], eax

; 1391 :             _CRT_INTERNAL_LOCAL_PRINTF_OPTIONS | _CRT_INTERNAL_PRINTF_LEGACY_VSPRINTF_NULL_TERMINATION,
; 1392 :             _Buffer, _BufferCount, _Format, _Locale, _ArgList);
; 1393 : 
; 1394 :         return _Result < 0 ? -1 : _Result;

  00058	83 7d 8c 00	 cmp	 DWORD PTR __Result$1[ebp], 0
  0005c	7d 06		 jge	 SHORT $LN8@Tracef
  0005e	83 4d 80 ff	 or	 DWORD PTR tv87[ebp], -1
  00062	eb 06		 jmp	 SHORT $LN4@Tracef
$LN8@Tracef:
  00064	8b 45 8c	 mov	 eax, DWORD PTR __Result$1[ebp]
  00067	89 45 80	 mov	 DWORD PTR tv87[ebp], eax
$LN4@Tracef:
; File D:\Metin2 Server Files\mainline\SRC_2014\Metin2Client\EterBase\Debug.cpp

; 188  : 	va_end(args);

  0006a	83 65 88 00	 and	 DWORD PTR _args$[ebp], 0

; 189  : 
; 190  : #ifdef _DEBUG
; 191  : 	OutputDebugString(szBuf);	
; 192  : 	fputs(szBuf, stdout);
; 193  : #endif
; 194  : 
; 195  : 	if (isLogFile)

  0006e	83 3d 00 00 00
	00 00		 cmp	 DWORD PTR ?isLogFile@@3HA, 0
  00075	74 0a		 je	 SHORT $LN1@Tracef

; 196  : 		LogFile(szBuf);

  00077	8d 45 90	 lea	 eax, DWORD PTR _szBuf$[ebp]
  0007a	50		 push	 eax
  0007b	e8 00 00 00 00	 call	 ?LogFile@@YAXPBD@Z	; LogFile
  00080	59		 pop	 ecx
$LN1@Tracef:

; 197  : }

  00081	8b 8d 94 03 00
	00		 mov	 ecx, DWORD PTR __$ArrayPad$[ebp]
  00087	33 cd		 xor	 ecx, ebp
  00089	e8 00 00 00 00	 call	 @__security_check_cookie@4
  0008e	81 c5 98 03 00
	00		 add	 ebp, 920		; 00000398H
  00094	c9		 leave
  00095	c3		 ret	 0
?Tracef@@YAXPBDZZ ENDP					; Tracef
_TEXT	ENDS
; Function compile flags: /Odspy
; File D:\Metin2 Server Files\mainline\SRC_2014\Metin2Client\EterBase\Debug.cpp
; File C:\Program Files (x86)\Windows Kits\10\Include\10.0.18362.0\ucrt\stdio.h
; File D:\Metin2 Server Files\mainline\SRC_2014\Metin2Client\EterBase\Debug.cpp
;	COMDAT ?Tracenf@@YAXPBDZZ
_TEXT	SEGMENT
__Format$ = -128					; size = 4
_args$ = -124						; size = 4
$T1 = -120						; size = 4
tv94 = -116						; size = 4
__Result$2 = -112					; size = 4
_len$ = -108						; size = 4
_szBuf$ = -104						; size = 1026
__$ArrayPad$ = 924					; size = 4
_c_szFormat$ = 936					; size = 4
?Tracenf@@YAXPBDZZ PROC					; Tracenf, COMDAT

; 159  : {

  00000	55		 push	 ebp
  00001	8d ac 24 60 fc
	ff ff		 lea	 ebp, DWORD PTR [esp-928]
  00008	81 ec 20 04 00
	00		 sub	 esp, 1056		; 00000420H
  0000e	a1 00 00 00 00	 mov	 eax, DWORD PTR ___security_cookie
  00013	33 c5		 xor	 eax, ebp
  00015	89 85 9c 03 00
	00		 mov	 DWORD PTR __$ArrayPad$[ebp], eax

; 160  : 	va_list args;
; 161  : 	va_start(args, c_szFormat);

  0001b	8d 85 ac 03 00
	00		 lea	 eax, DWORD PTR _c_szFormat$[ebp+4]
  00021	89 45 84	 mov	 DWORD PTR _args$[ebp], eax

; 164  : 	int len = _vsnprintf(szBuf, sizeof(szBuf)-1, c_szFormat, args);

  00024	8b 85 a8 03 00
	00		 mov	 eax, DWORD PTR _c_szFormat$[ebp]
  0002a	89 45 80	 mov	 DWORD PTR __Format$[ebp], eax
; File C:\Program Files (x86)\Windows Kits\10\Include\10.0.18362.0\ucrt\stdio.h

; 1390 :         int const _Result = __stdio_common_vsprintf(

  0002d	ff 75 84	 push	 DWORD PTR _args$[ebp]
  00030	6a 00		 push	 0
  00032	ff 75 80	 push	 DWORD PTR __Format$[ebp]
  00035	68 01 04 00 00	 push	 1025			; 00000401H
  0003a	8d 45 98	 lea	 eax, DWORD PTR _szBuf$[ebp]
  0003d	50		 push	 eax
  0003e	e8 00 00 00 00	 call	 ___local_stdio_printf_options
  00043	8b 08		 mov	 ecx, DWORD PTR [eax]
  00045	83 c9 01	 or	 ecx, 1
  00048	8b 40 04	 mov	 eax, DWORD PTR [eax+4]
  0004b	50		 push	 eax
  0004c	51		 push	 ecx
  0004d	e8 00 00 00 00	 call	 ___stdio_common_vsprintf
  00052	83 c4 1c	 add	 esp, 28			; 0000001cH
  00055	89 45 90	 mov	 DWORD PTR __Result$2[ebp], eax

; 1391 :             _CRT_INTERNAL_LOCAL_PRINTF_OPTIONS | _CRT_INTERNAL_PRINTF_LEGACY_VSPRINTF_NULL_TERMINATION,
; 1392 :             _Buffer, _BufferCount, _Format, _Locale, _ArgList);
; 1393 : 
; 1394 :         return _Result < 0 ? -1 : _Result;

  00058	83 7d 90 00	 cmp	 DWORD PTR __Result$2[ebp], 0
  0005c	7d 06		 jge	 SHORT $LN11@Tracenf
  0005e	83 4d 8c ff	 or	 DWORD PTR tv94[ebp], -1
  00062	eb 06		 jmp	 SHORT $LN7@Tracenf
$LN11@Tracenf:
  00064	8b 45 90	 mov	 eax, DWORD PTR __Result$2[ebp]
  00067	89 45 8c	 mov	 DWORD PTR tv94[ebp], eax
$LN7@Tracenf:
; File D:\Metin2 Server Files\mainline\SRC_2014\Metin2Client\EterBase\Debug.cpp

; 164  : 	int len = _vsnprintf(szBuf, sizeof(szBuf)-1, c_szFormat, args);

  0006a	8b 45 8c	 mov	 eax, DWORD PTR tv94[ebp]
  0006d	89 45 94	 mov	 DWORD PTR _len$[ebp], eax

; 165  : 
; 166  : 	if (len > 0)

  00070	83 7d 94 00	 cmp	 DWORD PTR _len$[ebp], 0
  00074	7e 27		 jle	 SHORT $LN2@Tracenf

; 167  : 	{
; 168  : 		szBuf[len] = '\n';

  00076	8b 45 94	 mov	 eax, DWORD PTR _len$[ebp]
  00079	c6 44 05 98 0a	 mov	 BYTE PTR _szBuf$[ebp+eax], 10 ; 0000000aH

; 169  : 		szBuf[len + 1] = '\0';

  0007e	8b 45 94	 mov	 eax, DWORD PTR _len$[ebp]
  00081	40		 inc	 eax
  00082	89 45 88	 mov	 DWORD PTR $T1[ebp], eax
  00085	81 7d 88 02 04
	00 00		 cmp	 DWORD PTR $T1[ebp], 1026 ; 00000402H
  0008c	73 02		 jae	 SHORT $LN5@Tracenf
  0008e	eb 05		 jmp	 SHORT $LN6@Tracenf
$LN5@Tracenf:
  00090	e8 00 00 00 00	 call	 ___report_rangecheckfailure
$LN6@Tracenf:
  00095	8b 45 88	 mov	 eax, DWORD PTR $T1[ebp]
  00098	c6 44 05 98 00	 mov	 BYTE PTR _szBuf$[ebp+eax], 0
$LN2@Tracenf:

; 170  : 	}
; 171  : 	va_end(args);

  0009d	83 65 84 00	 and	 DWORD PTR _args$[ebp], 0

; 172  : #ifdef _DEBUG
; 173  : 	OutputDebugString(szBuf);	
; 174  : 	printf("%s", szBuf);
; 175  : #endif
; 176  : 
; 177  : 	if (isLogFile)

  000a1	83 3d 00 00 00
	00 00		 cmp	 DWORD PTR ?isLogFile@@3HA, 0
  000a8	74 0a		 je	 SHORT $LN4@Tracenf

; 178  : 		LogFile(szBuf);

  000aa	8d 45 98	 lea	 eax, DWORD PTR _szBuf$[ebp]
  000ad	50		 push	 eax
  000ae	e8 00 00 00 00	 call	 ?LogFile@@YAXPBD@Z	; LogFile
  000b3	59		 pop	 ecx
$LN4@Tracenf:

; 179  : }

  000b4	8b 8d 9c 03 00
	00		 mov	 ecx, DWORD PTR __$ArrayPad$[ebp]
  000ba	33 cd		 xor	 ecx, ebp
  000bc	e8 00 00 00 00	 call	 @__security_check_cookie@4
  000c1	81 c5 a0 03 00
	00		 add	 ebp, 928		; 000003a0H
  000c7	c9		 leave
  000c8	c3		 ret	 0
?Tracenf@@YAXPBDZZ ENDP					; Tracenf
_TEXT	ENDS
; Function compile flags: /Odspy
; File D:\Metin2 Server Files\mainline\SRC_2014\Metin2Client\EterBase\Debug.cpp
;	COMDAT ?Tracen@@YAXPBD@Z
_TEXT	SEGMENT
_c_szMsg$ = 8						; size = 4
?Tracen@@YAXPBD@Z PROC					; Tracen, COMDAT

; 137  : {

  00000	55		 push	 ebp
  00001	8b ec		 mov	 ebp, esp

; 138  : #ifdef _DEBUG
; 139  : 	char szBuf[DEBUG_STRING_MAX_LEN+1];
; 140  : 	_snprintf(szBuf, sizeof(szBuf), "%s\n", c_szMsg);
; 141  : 	OutputDebugString(szBuf);
; 142  : 	puts(c_szMsg);
; 143  : 
; 144  : 	if (isLogFile)
; 145  : 		LogFile(szBuf);
; 146  : 
; 147  : 	puts(c_szMsg);
; 148  : 	putc('\n', stdout);
; 149  : #else
; 150  : 	if (isLogFile)

  00003	83 3d 00 00 00
	00 00		 cmp	 DWORD PTR ?isLogFile@@3HA, 0
  0000a	74 14		 je	 SHORT $LN1@Tracen

; 151  : 	{
; 152  : 		LogFile(c_szMsg);

  0000c	ff 75 08	 push	 DWORD PTR _c_szMsg$[ebp]
  0000f	e8 00 00 00 00	 call	 ?LogFile@@YAXPBD@Z	; LogFile
  00014	59		 pop	 ecx

; 153  : 		LogFile("\n");

  00015	68 00 00 00 00	 push	 OFFSET ??_C@_01EEMJAFIK@?6@
  0001a	e8 00 00 00 00	 call	 ?LogFile@@YAXPBD@Z	; LogFile
  0001f	59		 pop	 ecx
$LN1@Tracen:

; 154  : 	}
; 155  : #endif
; 156  : }

  00020	5d		 pop	 ebp
  00021	c3		 ret	 0
?Tracen@@YAXPBD@Z ENDP					; Tracen
_TEXT	ENDS
; Function compile flags: /Odspy
; File D:\Metin2 Server Files\mainline\SRC_2014\Metin2Client\EterBase\Debug.cpp
;	COMDAT ?Trace@@YAXPBD@Z
_TEXT	SEGMENT
_c_szMsg$ = 8						; size = 4
?Trace@@YAXPBD@Z PROC					; Trace, COMDAT

; 126  : {

  00000	55		 push	 ebp
  00001	8b ec		 mov	 ebp, esp

; 127  : #ifdef _DEBUG
; 128  : 	OutputDebugString(c_szMsg);
; 129  : 	printf("%s", c_szMsg);
; 130  : #endif
; 131  : 
; 132  : 	if (isLogFile)

  00003	83 3d 00 00 00
	00 00		 cmp	 DWORD PTR ?isLogFile@@3HA, 0
  0000a	74 09		 je	 SHORT $LN1@Trace

; 133  : 		LogFile(c_szMsg);

  0000c	ff 75 08	 push	 DWORD PTR _c_szMsg$[ebp]
  0000f	e8 00 00 00 00	 call	 ?LogFile@@YAXPBD@Z	; LogFile
  00014	59		 pop	 ecx
$LN1@Trace:

; 134  : }

  00015	5d		 pop	 ebp
  00016	c3		 ret	 0
?Trace@@YAXPBD@Z ENDP					; Trace
_TEXT	ENDS
; Function compile flags: /Odspy
; File D:\Metin2 Server Files\mainline\SRC_2014\Metin2Client\EterBase\Debug.cpp
; File C:\Program Files (x86)\Windows Kits\10\Include\10.0.18362.0\ucrt\stdio.h
; File D:\Metin2 Server Files\mainline\SRC_2014\Metin2Client\EterBase\Debug.cpp
;	COMDAT ?Lognf@@YAXIPBDZZ
_TEXT	SEGMENT
__Format$ = -128					; size = 4
_args$ = -124						; size = 4
$T1 = -120						; size = 4
tv95 = -116						; size = 4
__Result$2 = -112					; size = 4
_len$ = -108						; size = 4
_szBuf$ = -104						; size = 1026
__$ArrayPad$ = 924					; size = 4
_uLevel$ = 936						; size = 4
_c_szFormat$ = 940					; size = 4
?Lognf@@YAXIPBDZZ PROC					; Lognf, COMDAT

; 99   : {

  00000	55		 push	 ebp
  00001	8d ac 24 60 fc
	ff ff		 lea	 ebp, DWORD PTR [esp-928]
  00008	81 ec 20 04 00
	00		 sub	 esp, 1056		; 00000420H
  0000e	a1 00 00 00 00	 mov	 eax, DWORD PTR ___security_cookie
  00013	33 c5		 xor	 eax, ebp
  00015	89 85 9c 03 00
	00		 mov	 DWORD PTR __$ArrayPad$[ebp], eax

; 100  : 	if (uLevel<gs_uLevel)

  0001b	8b 85 a8 03 00
	00		 mov	 eax, DWORD PTR _uLevel$[ebp]
  00021	3b 05 00 00 00
	00		 cmp	 eax, DWORD PTR ?gs_uLevel@@3IA
  00027	73 05		 jae	 SHORT $LN2@Lognf

; 101  : 		return;

  00029	e9 99 00 00 00	 jmp	 $LN5@Lognf
$LN2@Lognf:

; 102  : 
; 103  : 	va_list args;
; 104  : 	va_start(args, c_szFormat);

  0002e	8d 85 b0 03 00
	00		 lea	 eax, DWORD PTR _c_szFormat$[ebp+4]
  00034	89 45 84	 mov	 DWORD PTR _args$[ebp], eax

; 107  : 	int len = _vsnprintf(szBuf, sizeof(szBuf)-1, c_szFormat, args);

  00037	8b 85 ac 03 00
	00		 mov	 eax, DWORD PTR _c_szFormat$[ebp]
  0003d	89 45 80	 mov	 DWORD PTR __Format$[ebp], eax
; File C:\Program Files (x86)\Windows Kits\10\Include\10.0.18362.0\ucrt\stdio.h

; 1390 :         int const _Result = __stdio_common_vsprintf(

  00040	ff 75 84	 push	 DWORD PTR _args$[ebp]
  00043	6a 00		 push	 0
  00045	ff 75 80	 push	 DWORD PTR __Format$[ebp]
  00048	68 01 04 00 00	 push	 1025			; 00000401H
  0004d	8d 45 98	 lea	 eax, DWORD PTR _szBuf$[ebp]
  00050	50		 push	 eax
  00051	e8 00 00 00 00	 call	 ___local_stdio_printf_options
  00056	8b 08		 mov	 ecx, DWORD PTR [eax]
  00058	83 c9 01	 or	 ecx, 1
  0005b	8b 40 04	 mov	 eax, DWORD PTR [eax+4]
  0005e	50		 push	 eax
  0005f	51		 push	 ecx
  00060	e8 00 00 00 00	 call	 ___stdio_common_vsprintf
  00065	83 c4 1c	 add	 esp, 28			; 0000001cH
  00068	89 45 90	 mov	 DWORD PTR __Result$2[ebp], eax

; 1391 :             _CRT_INTERNAL_LOCAL_PRINTF_OPTIONS | _CRT_INTERNAL_PRINTF_LEGACY_VSPRINTF_NULL_TERMINATION,
; 1392 :             _Buffer, _BufferCount, _Format, _Locale, _ArgList);
; 1393 : 
; 1394 :         return _Result < 0 ? -1 : _Result;

  0006b	83 7d 90 00	 cmp	 DWORD PTR __Result$2[ebp], 0
  0006f	7d 06		 jge	 SHORT $LN12@Lognf
  00071	83 4d 8c ff	 or	 DWORD PTR tv95[ebp], -1
  00075	eb 06		 jmp	 SHORT $LN8@Lognf
$LN12@Lognf:
  00077	8b 45 90	 mov	 eax, DWORD PTR __Result$2[ebp]
  0007a	89 45 8c	 mov	 DWORD PTR tv95[ebp], eax
$LN8@Lognf:
; File D:\Metin2 Server Files\mainline\SRC_2014\Metin2Client\EterBase\Debug.cpp

; 107  : 	int len = _vsnprintf(szBuf, sizeof(szBuf)-1, c_szFormat, args);

  0007d	8b 45 8c	 mov	 eax, DWORD PTR tv95[ebp]
  00080	89 45 94	 mov	 DWORD PTR _len$[ebp], eax

; 108  : 
; 109  : 	if (len > 0)

  00083	83 7d 94 00	 cmp	 DWORD PTR _len$[ebp], 0
  00087	7e 27		 jle	 SHORT $LN3@Lognf

; 110  : 	{
; 111  : 		szBuf[len] = '\n';

  00089	8b 45 94	 mov	 eax, DWORD PTR _len$[ebp]
  0008c	c6 44 05 98 0a	 mov	 BYTE PTR _szBuf$[ebp+eax], 10 ; 0000000aH

; 112  : 		szBuf[len + 1] = '\0';

  00091	8b 45 94	 mov	 eax, DWORD PTR _len$[ebp]
  00094	40		 inc	 eax
  00095	89 45 88	 mov	 DWORD PTR $T1[ebp], eax
  00098	81 7d 88 02 04
	00 00		 cmp	 DWORD PTR $T1[ebp], 1026 ; 00000402H
  0009f	73 02		 jae	 SHORT $LN6@Lognf
  000a1	eb 05		 jmp	 SHORT $LN7@Lognf
$LN6@Lognf:
  000a3	e8 00 00 00 00	 call	 ___report_rangecheckfailure
$LN7@Lognf:
  000a8	8b 45 88	 mov	 eax, DWORD PTR $T1[ebp]
  000ab	c6 44 05 98 00	 mov	 BYTE PTR _szBuf$[ebp+eax], 0
$LN3@Lognf:

; 113  : 	}
; 114  : 	va_end(args);

  000b0	83 65 84 00	 and	 DWORD PTR _args$[ebp], 0

; 115  : #ifdef _DEBUG
; 116  : 	OutputDebugString(szBuf);	
; 117  : 	puts(szBuf);
; 118  : #endif
; 119  : 
; 120  : 	if (isLogFile)

  000b4	83 3d 00 00 00
	00 00		 cmp	 DWORD PTR ?isLogFile@@3HA, 0
  000bb	74 0a		 je	 SHORT $LN5@Lognf

; 121  : 		LogFile(szBuf);

  000bd	8d 45 98	 lea	 eax, DWORD PTR _szBuf$[ebp]
  000c0	50		 push	 eax
  000c1	e8 00 00 00 00	 call	 ?LogFile@@YAXPBD@Z	; LogFile
  000c6	59		 pop	 ecx
$LN5@Lognf:

; 122  : }

  000c7	8b 8d 9c 03 00
	00		 mov	 ecx, DWORD PTR __$ArrayPad$[ebp]
  000cd	33 cd		 xor	 ecx, ebp
  000cf	e8 00 00 00 00	 call	 @__security_check_cookie@4
  000d4	81 c5 a0 03 00
	00		 add	 ebp, 928		; 000003a0H
  000da	c9		 leave
  000db	c3		 ret	 0
?Lognf@@YAXIPBDZZ ENDP					; Lognf
_TEXT	ENDS
; Function compile flags: /Odspy
; File D:\Metin2 Server Files\mainline\SRC_2014\Metin2Client\EterBase\Debug.cpp
; File C:\Program Files (x86)\Windows Kits\10\Include\10.0.18362.0\ucrt\stdio.h
; File D:\Metin2 Server Files\mainline\SRC_2014\Metin2Client\EterBase\Debug.cpp
;	COMDAT ?Logf@@YAXIPBDZZ
_TEXT	SEGMENT
tv88 = -128						; size = 4
__Format$ = -124					; size = 4
_args$ = -120						; size = 4
__Result$1 = -116					; size = 4
_szBuf$ = -112						; size = 1025
__$ArrayPad$ = 916					; size = 4
_uLevel$ = 928						; size = 4
_c_szFormat$ = 932					; size = 4
?Logf@@YAXIPBDZZ PROC					; Logf, COMDAT

; 79   : {

  00000	55		 push	 ebp
  00001	8d ac 24 68 fc
	ff ff		 lea	 ebp, DWORD PTR [esp-920]
  00008	81 ec 18 04 00
	00		 sub	 esp, 1048		; 00000418H
  0000e	a1 00 00 00 00	 mov	 eax, DWORD PTR ___security_cookie
  00013	33 c5		 xor	 eax, ebp
  00015	89 85 94 03 00
	00		 mov	 DWORD PTR __$ArrayPad$[ebp], eax

; 80   : 	if (uLevel<gs_uLevel)

  0001b	8b 85 a0 03 00
	00		 mov	 eax, DWORD PTR _uLevel$[ebp]
  00021	3b 05 00 00 00
	00		 cmp	 eax, DWORD PTR ?gs_uLevel@@3IA
  00027	73 02		 jae	 SHORT $LN2@Logf

; 81   : 		return;

  00029	eb 66		 jmp	 SHORT $LN1@Logf
$LN2@Logf:

; 82   : 	
; 83   : 	char szBuf[DEBUG_STRING_MAX_LEN+1];
; 84   : 
; 85   : 	va_list args;
; 86   : 	va_start(args, c_szFormat);

  0002b	8d 85 a8 03 00
	00		 lea	 eax, DWORD PTR _c_szFormat$[ebp+4]
  00031	89 45 88	 mov	 DWORD PTR _args$[ebp], eax

; 87   : 	_vsnprintf(szBuf, sizeof(szBuf), c_szFormat, args);

  00034	8b 85 a4 03 00
	00		 mov	 eax, DWORD PTR _c_szFormat$[ebp]
  0003a	89 45 84	 mov	 DWORD PTR __Format$[ebp], eax
; File C:\Program Files (x86)\Windows Kits\10\Include\10.0.18362.0\ucrt\stdio.h

; 1390 :         int const _Result = __stdio_common_vsprintf(

  0003d	ff 75 88	 push	 DWORD PTR _args$[ebp]
  00040	6a 00		 push	 0
  00042	ff 75 84	 push	 DWORD PTR __Format$[ebp]
  00045	68 01 04 00 00	 push	 1025			; 00000401H
  0004a	8d 45 90	 lea	 eax, DWORD PTR _szBuf$[ebp]
  0004d	50		 push	 eax
  0004e	e8 00 00 00 00	 call	 ___local_stdio_printf_options
  00053	8b 08		 mov	 ecx, DWORD PTR [eax]
  00055	83 c9 01	 or	 ecx, 1
  00058	8b 40 04	 mov	 eax, DWORD PTR [eax+4]
  0005b	50		 push	 eax
  0005c	51		 push	 ecx
  0005d	e8 00 00 00 00	 call	 ___stdio_common_vsprintf
  00062	83 c4 1c	 add	 esp, 28			; 0000001cH
  00065	89 45 8c	 mov	 DWORD PTR __Result$1[ebp], eax

; 1391 :             _CRT_INTERNAL_LOCAL_PRINTF_OPTIONS | _CRT_INTERNAL_PRINTF_LEGACY_VSPRINTF_NULL_TERMINATION,
; 1392 :             _Buffer, _BufferCount, _Format, _Locale, _ArgList);
; 1393 : 
; 1394 :         return _Result < 0 ? -1 : _Result;

  00068	83 7d 8c 00	 cmp	 DWORD PTR __Result$1[ebp], 0
  0006c	7d 06		 jge	 SHORT $LN9@Logf
  0006e	83 4d 80 ff	 or	 DWORD PTR tv88[ebp], -1
  00072	eb 06		 jmp	 SHORT $LN5@Logf
$LN9@Logf:
  00074	8b 45 8c	 mov	 eax, DWORD PTR __Result$1[ebp]
  00077	89 45 80	 mov	 DWORD PTR tv88[ebp], eax
$LN5@Logf:
; File D:\Metin2 Server Files\mainline\SRC_2014\Metin2Client\EterBase\Debug.cpp

; 88   : 	va_end(args);

  0007a	83 65 88 00	 and	 DWORD PTR _args$[ebp], 0

; 89   : #ifdef _DEBUG
; 90   : 	OutputDebugString(szBuf);	
; 91   : 	fputs(szBuf, stdout);
; 92   : #endif
; 93   : 
; 94   : 	if (isLogFile)

  0007e	83 3d 00 00 00
	00 00		 cmp	 DWORD PTR ?isLogFile@@3HA, 0
  00085	74 0a		 je	 SHORT $LN1@Logf

; 95   : 		LogFile(szBuf);

  00087	8d 45 90	 lea	 eax, DWORD PTR _szBuf$[ebp]
  0008a	50		 push	 eax
  0008b	e8 00 00 00 00	 call	 ?LogFile@@YAXPBD@Z	; LogFile
  00090	59		 pop	 ecx
$LN1@Logf:

; 96   : }

  00091	8b 8d 94 03 00
	00		 mov	 ecx, DWORD PTR __$ArrayPad$[ebp]
  00097	33 cd		 xor	 ecx, ebp
  00099	e8 00 00 00 00	 call	 @__security_check_cookie@4
  0009e	81 c5 98 03 00
	00		 add	 ebp, 920		; 00000398H
  000a4	c9		 leave
  000a5	c3		 ret	 0
?Logf@@YAXIPBDZZ ENDP					; Logf
_TEXT	ENDS
; Function compile flags: /Odspy
; File D:\Metin2 Server Files\mainline\SRC_2014\Metin2Client\EterBase\Debug.cpp
;	COMDAT ?Logn@@YAXIPBD@Z
_TEXT	SEGMENT
_uLevel$ = 8						; size = 4
_c_szMsg$ = 12						; size = 4
?Logn@@YAXIPBD@Z PROC					; Logn, COMDAT

; 73   : {

  00000	55		 push	 ebp
  00001	8b ec		 mov	 ebp, esp

; 74   : 	if (uLevel>=gs_uLevel)

  00003	8b 45 08	 mov	 eax, DWORD PTR _uLevel$[ebp]
  00006	3b 05 00 00 00
	00		 cmp	 eax, DWORD PTR ?gs_uLevel@@3IA
  0000c	72 09		 jb	 SHORT $LN1@Logn

; 75   : 		Tracen(c_szMsg);

  0000e	ff 75 0c	 push	 DWORD PTR _c_szMsg$[ebp]
  00011	e8 00 00 00 00	 call	 ?Tracen@@YAXPBD@Z	; Tracen
  00016	59		 pop	 ecx
$LN1@Logn:

; 76   : }

  00017	5d		 pop	 ebp
  00018	c3		 ret	 0
?Logn@@YAXIPBD@Z ENDP					; Logn
_TEXT	ENDS
; Function compile flags: /Odspy
; File D:\Metin2 Server Files\mainline\SRC_2014\Metin2Client\EterBase\Debug.cpp
;	COMDAT ?Log@@YAXIPBD@Z
_TEXT	SEGMENT
_uLevel$ = 8						; size = 4
_c_szMsg$ = 12						; size = 4
?Log@@YAXIPBD@Z PROC					; Log, COMDAT

; 67   : {

  00000	55		 push	 ebp
  00001	8b ec		 mov	 ebp, esp

; 68   : 	if (uLevel>=gs_uLevel)

  00003	8b 45 08	 mov	 eax, DWORD PTR _uLevel$[ebp]
  00006	3b 05 00 00 00
	00		 cmp	 eax, DWORD PTR ?gs_uLevel@@3IA
  0000c	72 09		 jb	 SHORT $LN1@Log

; 69   : 		Trace(c_szMsg);

  0000e	ff 75 0c	 push	 DWORD PTR _c_szMsg$[ebp]
  00011	e8 00 00 00 00	 call	 ?Trace@@YAXPBD@Z	; Trace
  00016	59		 pop	 ecx
$LN1@Log:

; 70   : }

  00017	5d		 pop	 ebp
  00018	c3		 ret	 0
?Log@@YAXIPBD@Z ENDP					; Log
_TEXT	ENDS
; Function compile flags: /Odspy
; File D:\Metin2 Server Files\mainline\SRC_2014\Metin2Client\EterBase\Debug.cpp
;	COMDAT ?SetLogLevel@@YAXI@Z
_TEXT	SEGMENT
_uLevel$ = 8						; size = 4
?SetLogLevel@@YAXI@Z PROC				; SetLogLevel, COMDAT

; 62   : {

  00000	55		 push	 ebp
  00001	8b ec		 mov	 ebp, esp

; 63   : 	gs_uLevel=uLevel;

  00003	8b 45 08	 mov	 eax, DWORD PTR _uLevel$[ebp]
  00006	a3 00 00 00 00	 mov	 DWORD PTR ?gs_uLevel@@3IA, eax

; 64   : }

  0000b	5d		 pop	 ebp
  0000c	c3		 ret	 0
?SetLogLevel@@YAXI@Z ENDP				; SetLogLevel
_TEXT	ENDS
; Function compile flags: /Odspy
; File C:\Program Files (x86)\Windows Kits\10\Include\10.0.18362.0\ucrt\stdio.h
;	COMDAT _fprintf
_TEXT	SEGMENT
__Result$ = -12						; size = 4
__Format$ = -8						; size = 4
__ArgList$ = -4						; size = 4
__Stream$ = 8						; size = 4
__Format$ = 12						; size = 4
_fprintf PROC						; COMDAT

; 835  :     {

  00000	55		 push	 ebp
  00001	8b ec		 mov	 ebp, esp
  00003	83 ec 0c	 sub	 esp, 12			; 0000000cH

; 836  :         int _Result;
; 837  :         va_list _ArgList;
; 838  :         __crt_va_start(_ArgList, _Format);

  00006	8d 45 10	 lea	 eax, DWORD PTR __Format$[ebp+4]
  00009	89 45 fc	 mov	 DWORD PTR __ArgList$[ebp], eax

; 839  :         _Result = _vfprintf_l(_Stream, _Format, NULL, _ArgList);

  0000c	8b 45 0c	 mov	 eax, DWORD PTR __Format$[ebp]
  0000f	89 45 f8	 mov	 DWORD PTR __Format$[ebp], eax

; 643  :         return __stdio_common_vfprintf(_CRT_INTERNAL_LOCAL_PRINTF_OPTIONS, _Stream, _Format, _Locale, _ArgList);

  00012	ff 75 fc	 push	 DWORD PTR __ArgList$[ebp]
  00015	6a 00		 push	 0
  00017	ff 75 f8	 push	 DWORD PTR __Format$[ebp]
  0001a	ff 75 08	 push	 DWORD PTR __Stream$[ebp]
  0001d	e8 00 00 00 00	 call	 ___local_stdio_printf_options
  00022	ff 70 04	 push	 DWORD PTR [eax+4]
  00025	ff 30		 push	 DWORD PTR [eax]
  00027	e8 00 00 00 00	 call	 ___stdio_common_vfprintf
  0002c	83 c4 18	 add	 esp, 24			; 00000018H

; 839  :         _Result = _vfprintf_l(_Stream, _Format, NULL, _ArgList);

  0002f	89 45 f4	 mov	 DWORD PTR __Result$[ebp], eax

; 840  :         __crt_va_end(_ArgList);

  00032	83 65 fc 00	 and	 DWORD PTR __ArgList$[ebp], 0

; 841  :         return _Result;

  00036	8b 45 f4	 mov	 eax, DWORD PTR __Result$[ebp]

; 842  :     }

  00039	c9		 leave
  0003a	c3		 ret	 0
_fprintf ENDP
_TEXT	ENDS
; Function compile flags: /Odspy
; File C:\Program Files (x86)\Windows Kits\10\Include\10.0.18362.0\ucrt\corecrt_stdio_config.h
;	COMDAT ___local_stdio_printf_options
_TEXT	SEGMENT
___local_stdio_printf_options PROC			; COMDAT

; 86   :     {

  00000	55		 push	 ebp
  00001	8b ec		 mov	 ebp, esp

; 87   :         static unsigned __int64 _OptionsStorage;
; 88   :         return &_OptionsStorage;

  00003	b8 00 00 00 00	 mov	 eax, OFFSET ?_OptionsStorage@?1??__local_stdio_printf_options@@9@4_KA ; `__local_stdio_printf_options'::`2'::_OptionsStorage

; 89   :     }

  00008	5d		 pop	 ebp
  00009	c3		 ret	 0
___local_stdio_printf_options ENDP
_TEXT	ENDS
END
