; Listing generated by Microsoft (R) Optimizing Compiler Version 19.28.29335.0 

	TITLE	D:\Metin2 Server Files\mainline\SRC_2014\Metin2Client\EterBase\FileBase.cpp
	.686P
	.XMM
	include listing.inc
	.model	flat

INCLUDELIB LIBCMT
INCLUDELIB OLDNAMES

PUBLIC	??0CFileBase@@QAE@XZ				; CFileBase::CFileBase
PUBLIC	??1CFileBase@@UAE@XZ				; CFileBase::~CFileBase
PUBLIC	?Destroy@CFileBase@@QAEXXZ			; CFileBase::Destroy
PUBLIC	?Close@CFileBase@@QAEXXZ			; CFileBase::Close
PUBLIC	?Create@CFileBase@@QAEHPBDW4EFileMode@1@@Z	; CFileBase::Create
PUBLIC	?Size@CFileBase@@QAEKXZ				; CFileBase::Size
PUBLIC	?SeekCur@CFileBase@@QAEXK@Z			; CFileBase::SeekCur
PUBLIC	?Seek@CFileBase@@QAEXK@Z			; CFileBase::Seek
PUBLIC	?GetPosition@CFileBase@@QAEKXZ			; CFileBase::GetPosition
PUBLIC	?Write@CFileBase@@UAEHPBXH@Z			; CFileBase::Write
PUBLIC	?Read@CFileBase@@QAEHPAXH@Z			; CFileBase::Read
PUBLIC	?GetFileName@CFileBase@@QAEPADXZ		; CFileBase::GetFileName
PUBLIC	?IsNull@CFileBase@@QAEHXZ			; CFileBase::IsNull
PUBLIC	??_GCFileBase@@UAEPAXI@Z			; CFileBase::`scalar deleting destructor'
PUBLIC	??_7CFileBase@@6B@				; CFileBase::`vftable'
PUBLIC	??_R4CFileBase@@6B@				; CFileBase::`RTTI Complete Object Locator'
PUBLIC	??_R0?AVCFileBase@@@8				; CFileBase `RTTI Type Descriptor'
PUBLIC	??_R3CFileBase@@8				; CFileBase::`RTTI Class Hierarchy Descriptor'
PUBLIC	??_R2CFileBase@@8				; CFileBase::`RTTI Base Class Array'
PUBLIC	??_R1A@?0A@EA@CFileBase@@8			; CFileBase::`RTTI Base Class Descriptor at (0,-1,0,64)'
EXTRN	??3@YAXPAXI@Z:PROC				; operator delete
EXTRN	_strncpy:PROC
EXTRN	__imp__CreateFileA@28:PROC
EXTRN	__imp__GetFileSize@8:PROC
EXTRN	__imp__ReadFile@20:PROC
EXTRN	__imp__SetFilePointer@16:PROC
EXTRN	__imp__WriteFile@20:PROC
EXTRN	__imp__CloseHandle@4:PROC
EXTRN	??_ECFileBase@@UAEPAXI@Z:PROC			; CFileBase::`vector deleting destructor'
EXTRN	@__security_check_cookie@4:PROC
EXTRN	___CxxFrameHandler3:PROC
EXTRN	??_7type_info@@6B@:QWORD			; type_info::`vftable'
EXTRN	___security_cookie:DWORD
;	COMDAT ??_R1A@?0A@EA@CFileBase@@8
rdata$r	SEGMENT
??_R1A@?0A@EA@CFileBase@@8 DD FLAT:??_R0?AVCFileBase@@@8 ; CFileBase::`RTTI Base Class Descriptor at (0,-1,0,64)'
	DD	00H
	DD	00H
	DD	0ffffffffH
	DD	00H
	DD	040H
	DD	FLAT:??_R3CFileBase@@8
rdata$r	ENDS
;	COMDAT ??_R2CFileBase@@8
rdata$r	SEGMENT
??_R2CFileBase@@8 DD FLAT:??_R1A@?0A@EA@CFileBase@@8	; CFileBase::`RTTI Base Class Array'
rdata$r	ENDS
;	COMDAT ??_R3CFileBase@@8
rdata$r	SEGMENT
??_R3CFileBase@@8 DD 00H				; CFileBase::`RTTI Class Hierarchy Descriptor'
	DD	00H
	DD	01H
	DD	FLAT:??_R2CFileBase@@8
rdata$r	ENDS
;	COMDAT ??_R0?AVCFileBase@@@8
data$rs	SEGMENT
??_R0?AVCFileBase@@@8 DD FLAT:??_7type_info@@6B@	; CFileBase `RTTI Type Descriptor'
	DD	00H
	DB	'.?AVCFileBase@@', 00H
data$rs	ENDS
;	COMDAT ??_R4CFileBase@@6B@
rdata$r	SEGMENT
??_R4CFileBase@@6B@ DD 00H				; CFileBase::`RTTI Complete Object Locator'
	DD	00H
	DD	00H
	DD	FLAT:??_R0?AVCFileBase@@@8
	DD	FLAT:??_R3CFileBase@@8
rdata$r	ENDS
;	COMDAT ??_7CFileBase@@6B@
CONST	SEGMENT
??_7CFileBase@@6B@ DD FLAT:??_R4CFileBase@@6B@		; CFileBase::`vftable'
	DD	FLAT:??_ECFileBase@@UAEPAXI@Z
	DD	FLAT:?Write@CFileBase@@UAEHPBXH@Z
CONST	ENDS
;	COMDAT xdata$x
xdata$x	SEGMENT
__ehfuncinfo$??1CFileBase@@UAE@XZ DD 019930522H
	DD	00H
	DD	00H
	DD	2 DUP(00H)
	DD	2 DUP(00H)
	DD	00H
	DD	05H
xdata$x	ENDS
; Function compile flags: /Odspy
;	COMDAT ??_GCFileBase@@UAEPAXI@Z
_TEXT	SEGMENT
_this$ = -4						; size = 4
___flags$ = 8						; size = 4
??_GCFileBase@@UAEPAXI@Z PROC				; CFileBase::`scalar deleting destructor', COMDAT
; _this$ = ecx
  00000	55		 push	 ebp
  00001	8b ec		 mov	 ebp, esp
  00003	51		 push	 ecx
  00004	89 4d fc	 mov	 DWORD PTR _this$[ebp], ecx
  00007	8b 4d fc	 mov	 ecx, DWORD PTR _this$[ebp]
  0000a	e8 00 00 00 00	 call	 ??1CFileBase@@UAE@XZ	; CFileBase::~CFileBase
  0000f	8b 45 08	 mov	 eax, DWORD PTR ___flags$[ebp]
  00012	83 e0 01	 and	 eax, 1
  00015	74 0f		 je	 SHORT $LN2@scalar
  00017	68 18 01 00 00	 push	 280			; 00000118H
  0001c	ff 75 fc	 push	 DWORD PTR _this$[ebp]
  0001f	e8 00 00 00 00	 call	 ??3@YAXPAXI@Z		; operator delete
  00024	59		 pop	 ecx
  00025	59		 pop	 ecx
$LN2@scalar:
  00026	8b 45 fc	 mov	 eax, DWORD PTR _this$[ebp]
  00029	c9		 leave
  0002a	c2 04 00	 ret	 4
??_GCFileBase@@UAEPAXI@Z ENDP				; CFileBase::`scalar deleting destructor'
_TEXT	ENDS
; Function compile flags: /Odspy
; File D:\Metin2 Server Files\mainline\SRC_2014\Metin2Client\EterBase\FileBase.cpp
;	COMDAT ?IsNull@CFileBase@@QAEHXZ
_TEXT	SEGMENT
_this$ = -8						; size = 4
tv66 = -1						; size = 1
?IsNull@CFileBase@@QAEHXZ PROC				; CFileBase::IsNull, COMDAT
; _this$ = ecx

; 113  : {

  00000	55		 push	 ebp
  00001	8b ec		 mov	 ebp, esp
  00003	51		 push	 ecx
  00004	51		 push	 ecx
  00005	89 4d f8	 mov	 DWORD PTR _this$[ebp], ecx

; 114  : 	return !m_hFile ? true : false;

  00008	8b 45 f8	 mov	 eax, DWORD PTR _this$[ebp]
  0000b	83 b8 10 01 00
	00 00		 cmp	 DWORD PTR [eax+272], 0
  00012	75 06		 jne	 SHORT $LN3@IsNull
  00014	c6 45 ff 01	 mov	 BYTE PTR tv66[ebp], 1
  00018	eb 04		 jmp	 SHORT $LN4@IsNull
$LN3@IsNull:
  0001a	c6 45 ff 00	 mov	 BYTE PTR tv66[ebp], 0
$LN4@IsNull:
  0001e	0f b6 45 ff	 movzx	 eax, BYTE PTR tv66[ebp]

; 115  : }

  00022	c9		 leave
  00023	c3		 ret	 0
?IsNull@CFileBase@@QAEHXZ ENDP				; CFileBase::IsNull
_TEXT	ENDS
; Function compile flags: /Odspy
; File D:\Metin2 Server Files\mainline\SRC_2014\Metin2Client\EterBase\FileBase.cpp
;	COMDAT ?GetFileName@CFileBase@@QAEPADXZ
_TEXT	SEGMENT
_this$ = -4						; size = 4
?GetFileName@CFileBase@@QAEPADXZ PROC			; CFileBase::GetFileName, COMDAT
; _this$ = ecx

; 14   : {

  00000	55		 push	 ebp
  00001	8b ec		 mov	 ebp, esp
  00003	51		 push	 ecx
  00004	89 4d fc	 mov	 DWORD PTR _this$[ebp], ecx

; 15   : 	return m_filename;

  00007	8b 45 fc	 mov	 eax, DWORD PTR _this$[ebp]
  0000a	83 c0 08	 add	 eax, 8

; 16   : }

  0000d	c9		 leave
  0000e	c3		 ret	 0
?GetFileName@CFileBase@@QAEPADXZ ENDP			; CFileBase::GetFileName
_TEXT	ENDS
; Function compile flags: /Odspy
; File D:\Metin2 Server Files\mainline\SRC_2014\Metin2Client\EterBase\FileBase.cpp
;	COMDAT ?Read@CFileBase@@QAEHPAXH@Z
_TEXT	SEGMENT
_dwUseless$ = -8					; size = 4
_this$ = -4						; size = 4
_dest$ = 8						; size = 4
_bytes$ = 12						; size = 4
?Read@CFileBase@@QAEHPAXH@Z PROC			; CFileBase::Read, COMDAT
; _this$ = ecx

; 107  : {

  00000	55		 push	 ebp
  00001	8b ec		 mov	 ebp, esp
  00003	51		 push	 ecx
  00004	51		 push	 ecx
  00005	89 4d fc	 mov	 DWORD PTR _this$[ebp], ecx

; 108  : 	DWORD dwUseless;
; 109  : 	return ReadFile(m_hFile, dest, bytes, &dwUseless, NULL);

  00008	6a 00		 push	 0
  0000a	8d 45 f8	 lea	 eax, DWORD PTR _dwUseless$[ebp]
  0000d	50		 push	 eax
  0000e	ff 75 0c	 push	 DWORD PTR _bytes$[ebp]
  00011	ff 75 08	 push	 DWORD PTR _dest$[ebp]
  00014	8b 45 fc	 mov	 eax, DWORD PTR _this$[ebp]
  00017	ff b0 10 01 00
	00		 push	 DWORD PTR [eax+272]
  0001d	ff 15 00 00 00
	00		 call	 DWORD PTR __imp__ReadFile@20

; 110  : }

  00023	c9		 leave
  00024	c2 08 00	 ret	 8
?Read@CFileBase@@QAEHPAXH@Z ENDP			; CFileBase::Read
_TEXT	ENDS
; Function compile flags: /Odspy
; File D:\Metin2 Server Files\mainline\SRC_2014\Metin2Client\EterBase\FileBase.cpp
;	COMDAT ?Write@CFileBase@@UAEHPBXH@Z
_TEXT	SEGMENT
_dwUseless$ = -12					; size = 4
_ret$ = -8						; size = 4
_this$ = -4						; size = 4
_src$ = 8						; size = 4
_bytes$ = 12						; size = 4
?Write@CFileBase@@UAEHPBXH@Z PROC			; CFileBase::Write, COMDAT
; _this$ = ecx

; 95   : {

  00000	55		 push	 ebp
  00001	8b ec		 mov	 ebp, esp
  00003	83 ec 0c	 sub	 esp, 12			; 0000000cH
  00006	89 4d fc	 mov	 DWORD PTR _this$[ebp], ecx

; 96   : 	DWORD dwUseless;
; 97   : 	BOOL ret = WriteFile(m_hFile, src, bytes, &dwUseless, NULL);

  00009	6a 00		 push	 0
  0000b	8d 45 f4	 lea	 eax, DWORD PTR _dwUseless$[ebp]
  0000e	50		 push	 eax
  0000f	ff 75 0c	 push	 DWORD PTR _bytes$[ebp]
  00012	ff 75 08	 push	 DWORD PTR _src$[ebp]
  00015	8b 45 fc	 mov	 eax, DWORD PTR _this$[ebp]
  00018	ff b0 10 01 00
	00		 push	 DWORD PTR [eax+272]
  0001e	ff 15 00 00 00
	00		 call	 DWORD PTR __imp__WriteFile@20
  00024	89 45 f8	 mov	 DWORD PTR _ret$[ebp], eax

; 98   : 	
; 99   : 	if (!ret)

  00027	83 7d f8 00	 cmp	 DWORD PTR _ret$[ebp], 0
  0002b	75 04		 jne	 SHORT $LN2@Write

; 100  : 		return false;

  0002d	33 c0		 xor	 eax, eax
  0002f	eb 1d		 jmp	 SHORT $LN1@Write
$LN2@Write:

; 101  : 
; 102  : 	m_dwSize = GetFileSize(m_hFile, NULL);

  00031	6a 00		 push	 0
  00033	8b 45 fc	 mov	 eax, DWORD PTR _this$[ebp]
  00036	ff b0 10 01 00
	00		 push	 DWORD PTR [eax+272]
  0003c	ff 15 00 00 00
	00		 call	 DWORD PTR __imp__GetFileSize@8
  00042	8b 4d fc	 mov	 ecx, DWORD PTR _this$[ebp]
  00045	89 81 14 01 00
	00		 mov	 DWORD PTR [ecx+276], eax

; 103  : 	return true;

  0004b	33 c0		 xor	 eax, eax
  0004d	40		 inc	 eax
$LN1@Write:

; 104  : }

  0004e	c9		 leave
  0004f	c2 08 00	 ret	 8
?Write@CFileBase@@UAEHPBXH@Z ENDP			; CFileBase::Write
_TEXT	ENDS
; Function compile flags: /Odspy
; File D:\Metin2 Server Files\mainline\SRC_2014\Metin2Client\EterBase\FileBase.cpp
;	COMDAT ?GetPosition@CFileBase@@QAEKXZ
_TEXT	SEGMENT
_this$ = -4						; size = 4
?GetPosition@CFileBase@@QAEKXZ PROC			; CFileBase::GetPosition, COMDAT
; _this$ = ecx

; 90   : {

  00000	55		 push	 ebp
  00001	8b ec		 mov	 ebp, esp
  00003	51		 push	 ecx
  00004	89 4d fc	 mov	 DWORD PTR _this$[ebp], ecx

; 91   : 	return SetFilePointer(m_hFile, 0, NULL, FILE_CURRENT);

  00007	6a 01		 push	 1
  00009	6a 00		 push	 0
  0000b	6a 00		 push	 0
  0000d	8b 45 fc	 mov	 eax, DWORD PTR _this$[ebp]
  00010	ff b0 10 01 00
	00		 push	 DWORD PTR [eax+272]
  00016	ff 15 00 00 00
	00		 call	 DWORD PTR __imp__SetFilePointer@16

; 92   : }

  0001c	c9		 leave
  0001d	c3		 ret	 0
?GetPosition@CFileBase@@QAEKXZ ENDP			; CFileBase::GetPosition
_TEXT	ENDS
; Function compile flags: /Odspy
; File D:\Metin2 Server Files\mainline\SRC_2014\Metin2Client\EterBase\FileBase.cpp
;	COMDAT ?Seek@CFileBase@@QAEXK@Z
_TEXT	SEGMENT
_this$ = -4						; size = 4
_offset$ = 8						; size = 4
?Seek@CFileBase@@QAEXK@Z PROC				; CFileBase::Seek, COMDAT
; _this$ = ecx

; 82   : {

  00000	55		 push	 ebp
  00001	8b ec		 mov	 ebp, esp
  00003	51		 push	 ecx
  00004	89 4d fc	 mov	 DWORD PTR _this$[ebp], ecx

; 83   : 	if (offset > m_dwSize)

  00007	8b 45 fc	 mov	 eax, DWORD PTR _this$[ebp]
  0000a	8b 4d 08	 mov	 ecx, DWORD PTR _offset$[ebp]
  0000d	3b 88 14 01 00
	00		 cmp	 ecx, DWORD PTR [eax+276]
  00013	76 0c		 jbe	 SHORT $LN2@Seek

; 84   : 		offset = m_dwSize;

  00015	8b 45 fc	 mov	 eax, DWORD PTR _this$[ebp]
  00018	8b 80 14 01 00
	00		 mov	 eax, DWORD PTR [eax+276]
  0001e	89 45 08	 mov	 DWORD PTR _offset$[ebp], eax
$LN2@Seek:

; 85   : 
; 86   : 	SetFilePointer(m_hFile, offset, NULL, FILE_BEGIN);

  00021	6a 00		 push	 0
  00023	6a 00		 push	 0
  00025	ff 75 08	 push	 DWORD PTR _offset$[ebp]
  00028	8b 45 fc	 mov	 eax, DWORD PTR _this$[ebp]
  0002b	ff b0 10 01 00
	00		 push	 DWORD PTR [eax+272]
  00031	ff 15 00 00 00
	00		 call	 DWORD PTR __imp__SetFilePointer@16

; 87   : }

  00037	c9		 leave
  00038	c2 04 00	 ret	 4
?Seek@CFileBase@@QAEXK@Z ENDP				; CFileBase::Seek
_TEXT	ENDS
; Function compile flags: /Odspy
; File D:\Metin2 Server Files\mainline\SRC_2014\Metin2Client\EterBase\FileBase.cpp
;	COMDAT ?SeekCur@CFileBase@@QAEXK@Z
_TEXT	SEGMENT
_this$ = -4						; size = 4
_size$ = 8						; size = 4
?SeekCur@CFileBase@@QAEXK@Z PROC			; CFileBase::SeekCur, COMDAT
; _this$ = ecx

; 77   : {

  00000	55		 push	 ebp
  00001	8b ec		 mov	 ebp, esp
  00003	51		 push	 ecx
  00004	89 4d fc	 mov	 DWORD PTR _this$[ebp], ecx

; 78   : 	SetFilePointer(m_hFile, size, NULL, FILE_CURRENT);

  00007	6a 01		 push	 1
  00009	6a 00		 push	 0
  0000b	ff 75 08	 push	 DWORD PTR _size$[ebp]
  0000e	8b 45 fc	 mov	 eax, DWORD PTR _this$[ebp]
  00011	ff b0 10 01 00
	00		 push	 DWORD PTR [eax+272]
  00017	ff 15 00 00 00
	00		 call	 DWORD PTR __imp__SetFilePointer@16

; 79   : }

  0001d	c9		 leave
  0001e	c2 04 00	 ret	 4
?SeekCur@CFileBase@@QAEXK@Z ENDP			; CFileBase::SeekCur
_TEXT	ENDS
; Function compile flags: /Odspy
; File D:\Metin2 Server Files\mainline\SRC_2014\Metin2Client\EterBase\FileBase.cpp
;	COMDAT ?Size@CFileBase@@QAEKXZ
_TEXT	SEGMENT
_this$ = -4						; size = 4
?Size@CFileBase@@QAEKXZ PROC				; CFileBase::Size, COMDAT
; _this$ = ecx

; 72   : {

  00000	55		 push	 ebp
  00001	8b ec		 mov	 ebp, esp
  00003	51		 push	 ecx
  00004	89 4d fc	 mov	 DWORD PTR _this$[ebp], ecx

; 73   : 	return (m_dwSize);

  00007	8b 45 fc	 mov	 eax, DWORD PTR _this$[ebp]
  0000a	8b 80 14 01 00
	00		 mov	 eax, DWORD PTR [eax+276]

; 74   : }

  00010	c9		 leave
  00011	c3		 ret	 0
?Size@CFileBase@@QAEKXZ ENDP				; CFileBase::Size
_TEXT	ENDS
; Function compile flags: /Odspy
; File D:\Metin2 Server Files\mainline\SRC_2014\Metin2Client\EterBase\FileBase.cpp
;	COMDAT ?Create@CFileBase@@QAEHPBDW4EFileMode@1@@Z
_TEXT	SEGMENT
_dwMode$ = -16						; size = 4
_dwShareMode$ = -12					; size = 4
tv75 = -8						; size = 4
_this$ = -4						; size = 4
_filename$ = 8						; size = 4
_mode$ = 12						; size = 4
?Create@CFileBase@@QAEHPBDW4EFileMode@1@@Z PROC		; CFileBase::Create, COMDAT
; _this$ = ecx

; 34   : {

  00000	55		 push	 ebp
  00001	8b ec		 mov	 ebp, esp
  00003	83 ec 10	 sub	 esp, 16			; 00000010H
  00006	89 4d fc	 mov	 DWORD PTR _this$[ebp], ecx

; 35   : 	Destroy();

  00009	8b 4d fc	 mov	 ecx, DWORD PTR _this$[ebp]
  0000c	e8 00 00 00 00	 call	 ?Destroy@CFileBase@@QAEXXZ ; CFileBase::Destroy

; 36   : 
; 37   : 	strncpy(m_filename, filename, MAX_PATH);

  00011	68 04 01 00 00	 push	 260			; 00000104H
  00016	ff 75 08	 push	 DWORD PTR _filename$[ebp]
  00019	8b 45 fc	 mov	 eax, DWORD PTR _this$[ebp]
  0001c	83 c0 08	 add	 eax, 8
  0001f	50		 push	 eax
  00020	e8 00 00 00 00	 call	 _strncpy
  00025	83 c4 0c	 add	 esp, 12			; 0000000cH

; 38   : 
; 39   : 	DWORD dwMode, dwShareMode = FILE_SHARE_READ;

  00028	c7 45 f4 01 00
	00 00		 mov	 DWORD PTR _dwShareMode$[ebp], 1

; 40   : 
; 41   : 	if (mode == FILEMODE_WRITE)

  0002f	83 7d 0c 02	 cmp	 DWORD PTR _mode$[ebp], 2
  00033	75 10		 jne	 SHORT $LN2@Create

; 42   : 	{
; 43   : 		dwMode = GENERIC_READ | GENERIC_WRITE;

  00035	c7 45 f0 00 00
	00 c0		 mov	 DWORD PTR _dwMode$[ebp], -1073741824 ; c0000000H

; 44   : 		dwShareMode = FILE_SHARE_READ | FILE_SHARE_WRITE;

  0003c	c7 45 f4 03 00
	00 00		 mov	 DWORD PTR _dwShareMode$[ebp], 3

; 45   : 	}

  00043	eb 07		 jmp	 SHORT $LN3@Create
$LN2@Create:

; 46   : 	else
; 47   : 		dwMode = GENERIC_READ;

  00045	c7 45 f0 00 00
	00 80		 mov	 DWORD PTR _dwMode$[ebp], -2147483648 ; 80000000H
$LN3@Create:

; 48   : 
; 49   : 	m_hFile = CreateFile(filename,					// name of the file

  0004c	83 7d 0c 01	 cmp	 DWORD PTR _mode$[ebp], 1
  00050	75 09		 jne	 SHORT $LN6@Create
  00052	c7 45 f8 03 00
	00 00		 mov	 DWORD PTR tv75[ebp], 3
  00059	eb 07		 jmp	 SHORT $LN7@Create
$LN6@Create:
  0005b	c7 45 f8 04 00
	00 00		 mov	 DWORD PTR tv75[ebp], 4
$LN7@Create:
  00062	6a 00		 push	 0
  00064	68 80 00 00 00	 push	 128			; 00000080H
  00069	ff 75 f8	 push	 DWORD PTR tv75[ebp]
  0006c	6a 00		 push	 0
  0006e	ff 75 f4	 push	 DWORD PTR _dwShareMode$[ebp]
  00071	ff 75 f0	 push	 DWORD PTR _dwMode$[ebp]
  00074	ff 75 08	 push	 DWORD PTR _filename$[ebp]
  00077	ff 15 00 00 00
	00		 call	 DWORD PTR __imp__CreateFileA@28
  0007d	8b 4d fc	 mov	 ecx, DWORD PTR _this$[ebp]
  00080	89 81 10 01 00
	00		 mov	 DWORD PTR [ecx+272], eax

; 50   : 						 dwMode,					// desired access
; 51   : 						 dwShareMode,				// share mode
; 52   : 						 NULL,						// security attributes
; 53   : 						 mode == FILEMODE_READ ? OPEN_EXISTING : OPEN_ALWAYS, // creation disposition
; 54   : 						 FILE_ATTRIBUTE_NORMAL,		// flags and attr
; 55   : 						 NULL);						// template file
; 56   : 
; 57   : 	if (m_hFile != INVALID_HANDLE_VALUE)

  00086	8b 45 fc	 mov	 eax, DWORD PTR _this$[ebp]
  00089	83 b8 10 01 00
	00 ff		 cmp	 DWORD PTR [eax+272], -1
  00090	74 28		 je	 SHORT $LN4@Create

; 58   : 	{
; 59   : 		m_dwSize = GetFileSize(m_hFile, NULL);

  00092	6a 00		 push	 0
  00094	8b 45 fc	 mov	 eax, DWORD PTR _this$[ebp]
  00097	ff b0 10 01 00
	00		 push	 DWORD PTR [eax+272]
  0009d	ff 15 00 00 00
	00		 call	 DWORD PTR __imp__GetFileSize@8
  000a3	8b 4d fc	 mov	 ecx, DWORD PTR _this$[ebp]
  000a6	89 81 14 01 00
	00		 mov	 DWORD PTR [ecx+276], eax

; 60   : 		m_mode = mode;

  000ac	8b 45 fc	 mov	 eax, DWORD PTR _this$[ebp]
  000af	8b 4d 0c	 mov	 ecx, DWORD PTR _mode$[ebp]
  000b2	89 48 04	 mov	 DWORD PTR [eax+4], ecx

; 61   : 		return true;

  000b5	33 c0		 xor	 eax, eax
  000b7	40		 inc	 eax
  000b8	eb 0c		 jmp	 SHORT $LN1@Create
$LN4@Create:

; 62   : 	}
; 63   : 
; 64   : /*	char buf[256];
; 65   : 	GetCurrentDirectory(256, buf);
; 66   : 	DWORD dwErr = GetLastError();*/
; 67   : 	m_hFile = NULL;

  000ba	8b 45 fc	 mov	 eax, DWORD PTR _this$[ebp]
  000bd	83 a0 10 01 00
	00 00		 and	 DWORD PTR [eax+272], 0

; 68   : 	return false;

  000c4	33 c0		 xor	 eax, eax
$LN1@Create:

; 69   : }

  000c6	c9		 leave
  000c7	c2 08 00	 ret	 8
?Create@CFileBase@@QAEHPBDW4EFileMode@1@@Z ENDP		; CFileBase::Create
_TEXT	ENDS
; Function compile flags: /Odspy
; File D:\Metin2 Server Files\mainline\SRC_2014\Metin2Client\EterBase\FileBase.cpp
;	COMDAT ?Close@CFileBase@@QAEXXZ
_TEXT	SEGMENT
_this$ = -4						; size = 4
?Close@CFileBase@@QAEXXZ PROC				; CFileBase::Close, COMDAT
; _this$ = ecx

; 25   : {

  00000	55		 push	 ebp
  00001	8b ec		 mov	 ebp, esp
  00003	51		 push	 ecx
  00004	89 4d fc	 mov	 DWORD PTR _this$[ebp], ecx

; 26   : 	if (m_hFile)

  00007	8b 45 fc	 mov	 eax, DWORD PTR _this$[ebp]
  0000a	83 b8 10 01 00
	00 00		 cmp	 DWORD PTR [eax+272], 0
  00011	74 19		 je	 SHORT $LN1@Close

; 27   : 	{
; 28   : 		CloseHandle(m_hFile);	

  00013	8b 45 fc	 mov	 eax, DWORD PTR _this$[ebp]
  00016	ff b0 10 01 00
	00		 push	 DWORD PTR [eax+272]
  0001c	ff 15 00 00 00
	00		 call	 DWORD PTR __imp__CloseHandle@4

; 29   : 		m_hFile = NULL;

  00022	8b 45 fc	 mov	 eax, DWORD PTR _this$[ebp]
  00025	83 a0 10 01 00
	00 00		 and	 DWORD PTR [eax+272], 0
$LN1@Close:

; 30   : 	}
; 31   : }

  0002c	c9		 leave
  0002d	c3		 ret	 0
?Close@CFileBase@@QAEXXZ ENDP				; CFileBase::Close
_TEXT	ENDS
; Function compile flags: /Odspy
; File D:\Metin2 Server Files\mainline\SRC_2014\Metin2Client\EterBase\FileBase.cpp
;	COMDAT ?Destroy@CFileBase@@QAEXXZ
_TEXT	SEGMENT
_this$ = -4						; size = 4
?Destroy@CFileBase@@QAEXXZ PROC				; CFileBase::Destroy, COMDAT
; _this$ = ecx

; 19   : {

  00000	55		 push	 ebp
  00001	8b ec		 mov	 ebp, esp
  00003	51		 push	 ecx
  00004	89 4d fc	 mov	 DWORD PTR _this$[ebp], ecx

; 20   : 	Close();

  00007	8b 4d fc	 mov	 ecx, DWORD PTR _this$[ebp]
  0000a	e8 00 00 00 00	 call	 ?Close@CFileBase@@QAEXXZ ; CFileBase::Close

; 21   : 	m_dwSize = 0;

  0000f	8b 45 fc	 mov	 eax, DWORD PTR _this$[ebp]
  00012	83 a0 14 01 00
	00 00		 and	 DWORD PTR [eax+276], 0

; 22   : }

  00019	c9		 leave
  0001a	c3		 ret	 0
?Destroy@CFileBase@@QAEXXZ ENDP				; CFileBase::Destroy
_TEXT	ENDS
; Function compile flags: /Odspy
; File D:\Metin2 Server Files\mainline\SRC_2014\Metin2Client\EterBase\FileBase.cpp
;	COMDAT ??1CFileBase@@UAE@XZ
_TEXT	SEGMENT
_this$ = -16						; size = 4
__$EHRec$ = -12						; size = 12
??1CFileBase@@UAE@XZ PROC				; CFileBase::~CFileBase, COMDAT
; _this$ = ecx

; 9    : {

  00000	55		 push	 ebp
  00001	8b ec		 mov	 ebp, esp
  00003	6a ff		 push	 -1
  00005	68 00 00 00 00	 push	 __ehhandler$??1CFileBase@@UAE@XZ
  0000a	64 a1 00 00 00
	00		 mov	 eax, DWORD PTR fs:0
  00010	50		 push	 eax
  00011	51		 push	 ecx
  00012	a1 00 00 00 00	 mov	 eax, DWORD PTR ___security_cookie
  00017	33 c5		 xor	 eax, ebp
  00019	50		 push	 eax
  0001a	8d 45 f4	 lea	 eax, DWORD PTR __$EHRec$[ebp]
  0001d	64 a3 00 00 00
	00		 mov	 DWORD PTR fs:0, eax
  00023	89 4d f0	 mov	 DWORD PTR _this$[ebp], ecx
  00026	8b 45 f0	 mov	 eax, DWORD PTR _this$[ebp]
  00029	c7 00 00 00 00
	00		 mov	 DWORD PTR [eax], OFFSET ??_7CFileBase@@6B@

; 10   : 	Destroy();

  0002f	8b 4d f0	 mov	 ecx, DWORD PTR _this$[ebp]
  00032	e8 00 00 00 00	 call	 ?Destroy@CFileBase@@QAEXXZ ; CFileBase::Destroy

; 11   : }

  00037	8b 4d f4	 mov	 ecx, DWORD PTR __$EHRec$[ebp]
  0003a	64 89 0d 00 00
	00 00		 mov	 DWORD PTR fs:0, ecx
  00041	59		 pop	 ecx
  00042	c9		 leave
  00043	c3		 ret	 0
  00044	cc		 int	 3
  00045	cc		 int	 3
  00046	cc		 int	 3
  00047	cc		 int	 3
  00048	cc		 int	 3
_TEXT	ENDS
;	COMDAT text$x
text$x	SEGMENT
__ehhandler$??1CFileBase@@UAE@XZ:
  00000	90		 npad	 1
  00001	90		 npad	 1
  00002	8b 54 24 08	 mov	 edx, DWORD PTR [esp+8]
  00006	8d 42 0c	 lea	 eax, DWORD PTR [edx+12]
  00009	8b 4a f8	 mov	 ecx, DWORD PTR [edx-8]
  0000c	33 c8		 xor	 ecx, eax
  0000e	e8 00 00 00 00	 call	 @__security_check_cookie@4
  00013	b8 00 00 00 00	 mov	 eax, OFFSET __ehfuncinfo$??1CFileBase@@UAE@XZ
  00018	e9 00 00 00 00	 jmp	 ___CxxFrameHandler3
text$x	ENDS
??1CFileBase@@UAE@XZ ENDP				; CFileBase::~CFileBase
; Function compile flags: /Odspy
; File D:\Metin2 Server Files\mainline\SRC_2014\Metin2Client\EterBase\FileBase.cpp
;	COMDAT ??0CFileBase@@QAE@XZ
_TEXT	SEGMENT
_this$ = -4						; size = 4
??0CFileBase@@QAE@XZ PROC				; CFileBase::CFileBase, COMDAT
; _this$ = ecx

; 5    : {

  00000	55		 push	 ebp
  00001	8b ec		 mov	 ebp, esp
  00003	51		 push	 ecx
  00004	89 4d fc	 mov	 DWORD PTR _this$[ebp], ecx
  00007	8b 45 fc	 mov	 eax, DWORD PTR _this$[ebp]
  0000a	c7 00 00 00 00
	00		 mov	 DWORD PTR [eax], OFFSET ??_7CFileBase@@6B@

; 4    : CFileBase::CFileBase() : m_hFile(NULL), m_dwSize(0)

  00010	8b 45 fc	 mov	 eax, DWORD PTR _this$[ebp]
  00013	83 a0 10 01 00
	00 00		 and	 DWORD PTR [eax+272], 0
  0001a	8b 45 fc	 mov	 eax, DWORD PTR _this$[ebp]
  0001d	83 a0 14 01 00
	00 00		 and	 DWORD PTR [eax+276], 0

; 6    : }

  00024	8b 45 fc	 mov	 eax, DWORD PTR _this$[ebp]
  00027	c9		 leave
  00028	c3		 ret	 0
??0CFileBase@@QAE@XZ ENDP				; CFileBase::CFileBase
_TEXT	ENDS
END
