; Listing generated by Microsoft (R) Optimizing Compiler Version 19.28.29335.0 

	TITLE	D:\Metin2 Server Files\mainline\SRC_2014\Metin2Client\EterBase\poly\Symbol.cpp
	.686P
	.XMM
	include listing.inc
	.model	flat

INCLUDELIB LIBCMT
INCLUDELIB OLDNAMES

PUBLIC	??0CSymbol@@QAE@XZ				; CSymbol::CSymbol
PUBLIC	??1CSymbol@@UAE@XZ				; CSymbol::~CSymbol
PUBLIC	?issymbol@CSymbol@@SAHH@Z			; CSymbol::issymbol
PUBLIC	?SetType@CSymbol@@QAEXH@Z			; CSymbol::SetType
PUBLIC	?GetType@CSymbol@@QAEHXZ			; CSymbol::GetType
PUBLIC	?Equal@CSymbol@@QAE_NV1@@Z			; CSymbol::Equal
PUBLIC	?Less@CSymbol@@QAE_NV1@@Z			; CSymbol::Less
PUBLIC	??_GCSymbol@@UAEPAXI@Z				; CSymbol::`scalar deleting destructor'
PUBLIC	??_7CSymbol@@6B@				; CSymbol::`vftable'
PUBLIC	??_R4CSymbol@@6B@				; CSymbol::`RTTI Complete Object Locator'
PUBLIC	??_R0?AVCSymbol@@@8				; CSymbol `RTTI Type Descriptor'
PUBLIC	??_R3CSymbol@@8					; CSymbol::`RTTI Class Hierarchy Descriptor'
PUBLIC	??_R2CSymbol@@8					; CSymbol::`RTTI Base Class Array'
PUBLIC	??_R1A@?0A@EA@CSymbol@@8			; CSymbol::`RTTI Base Class Descriptor at (0,-1,0,64)'
PUBLIC	??_R1A@?0A@EA@CBase@@8				; CBase::`RTTI Base Class Descriptor at (0,-1,0,64)'
PUBLIC	??_R0?AVCBase@@@8				; CBase `RTTI Type Descriptor'
PUBLIC	??_R3CBase@@8					; CBase::`RTTI Class Hierarchy Descriptor'
PUBLIC	??_R2CBase@@8					; CBase::`RTTI Base Class Array'
EXTRN	??3@YAXPAXI@Z:PROC				; operator delete
EXTRN	??0CBase@@QAE@XZ:PROC				; CBase::CBase
EXTRN	??1CBase@@UAE@XZ:PROC				; CBase::~CBase
EXTRN	??_ECSymbol@@UAEPAXI@Z:PROC			; CSymbol::`vector deleting destructor'
EXTRN	??_7type_info@@6B@:QWORD			; type_info::`vftable'
;	COMDAT ??_R2CBase@@8
rdata$r	SEGMENT
??_R2CBase@@8 DD FLAT:??_R1A@?0A@EA@CBase@@8		; CBase::`RTTI Base Class Array'
rdata$r	ENDS
;	COMDAT ??_R3CBase@@8
rdata$r	SEGMENT
??_R3CBase@@8 DD 00H					; CBase::`RTTI Class Hierarchy Descriptor'
	DD	00H
	DD	01H
	DD	FLAT:??_R2CBase@@8
rdata$r	ENDS
;	COMDAT ??_R0?AVCBase@@@8
data$rs	SEGMENT
??_R0?AVCBase@@@8 DD FLAT:??_7type_info@@6B@		; CBase `RTTI Type Descriptor'
	DD	00H
	DB	'.?AVCBase@@', 00H
data$rs	ENDS
;	COMDAT ??_R1A@?0A@EA@CBase@@8
rdata$r	SEGMENT
??_R1A@?0A@EA@CBase@@8 DD FLAT:??_R0?AVCBase@@@8	; CBase::`RTTI Base Class Descriptor at (0,-1,0,64)'
	DD	00H
	DD	00H
	DD	0ffffffffH
	DD	00H
	DD	040H
	DD	FLAT:??_R3CBase@@8
rdata$r	ENDS
;	COMDAT ??_R1A@?0A@EA@CSymbol@@8
rdata$r	SEGMENT
??_R1A@?0A@EA@CSymbol@@8 DD FLAT:??_R0?AVCSymbol@@@8	; CSymbol::`RTTI Base Class Descriptor at (0,-1,0,64)'
	DD	01H
	DD	00H
	DD	0ffffffffH
	DD	00H
	DD	040H
	DD	FLAT:??_R3CSymbol@@8
rdata$r	ENDS
;	COMDAT ??_R2CSymbol@@8
rdata$r	SEGMENT
??_R2CSymbol@@8 DD FLAT:??_R1A@?0A@EA@CSymbol@@8	; CSymbol::`RTTI Base Class Array'
	DD	FLAT:??_R1A@?0A@EA@CBase@@8
rdata$r	ENDS
;	COMDAT ??_R3CSymbol@@8
rdata$r	SEGMENT
??_R3CSymbol@@8 DD 00H					; CSymbol::`RTTI Class Hierarchy Descriptor'
	DD	00H
	DD	02H
	DD	FLAT:??_R2CSymbol@@8
rdata$r	ENDS
;	COMDAT ??_R0?AVCSymbol@@@8
data$rs	SEGMENT
??_R0?AVCSymbol@@@8 DD FLAT:??_7type_info@@6B@		; CSymbol `RTTI Type Descriptor'
	DD	00H
	DB	'.?AVCSymbol@@', 00H
data$rs	ENDS
;	COMDAT ??_R4CSymbol@@6B@
rdata$r	SEGMENT
??_R4CSymbol@@6B@ DD 00H				; CSymbol::`RTTI Complete Object Locator'
	DD	00H
	DD	00H
	DD	FLAT:??_R0?AVCSymbol@@@8
	DD	FLAT:??_R3CSymbol@@8
rdata$r	ENDS
;	COMDAT ??_7CSymbol@@6B@
CONST	SEGMENT
??_7CSymbol@@6B@ DD FLAT:??_R4CSymbol@@6B@		; CSymbol::`vftable'
	DD	FLAT:??_ECSymbol@@UAEPAXI@Z
CONST	ENDS
; Function compile flags: /Odspy
;	COMDAT ??_GCSymbol@@UAEPAXI@Z
_TEXT	SEGMENT
_this$ = -4						; size = 4
___flags$ = 8						; size = 4
??_GCSymbol@@UAEPAXI@Z PROC				; CSymbol::`scalar deleting destructor', COMDAT
; _this$ = ecx
  00000	55		 push	 ebp
  00001	8b ec		 mov	 ebp, esp
  00003	51		 push	 ecx
  00004	89 4d fc	 mov	 DWORD PTR _this$[ebp], ecx
  00007	8b 4d fc	 mov	 ecx, DWORD PTR _this$[ebp]
  0000a	e8 00 00 00 00	 call	 ??1CSymbol@@UAE@XZ	; CSymbol::~CSymbol
  0000f	8b 45 08	 mov	 eax, DWORD PTR ___flags$[ebp]
  00012	83 e0 01	 and	 eax, 1
  00015	74 0c		 je	 SHORT $LN2@scalar
  00017	6a 0c		 push	 12			; 0000000cH
  00019	ff 75 fc	 push	 DWORD PTR _this$[ebp]
  0001c	e8 00 00 00 00	 call	 ??3@YAXPAXI@Z		; operator delete
  00021	59		 pop	 ecx
  00022	59		 pop	 ecx
$LN2@scalar:
  00023	8b 45 fc	 mov	 eax, DWORD PTR _this$[ebp]
  00026	c9		 leave
  00027	c2 04 00	 ret	 4
??_GCSymbol@@UAEPAXI@Z ENDP				; CSymbol::`scalar deleting destructor'
_TEXT	ENDS
; Function compile flags: /Odspy
; File D:\Metin2 Server Files\mainline\SRC_2014\Metin2Client\EterBase\poly\Symbol.cpp
;	COMDAT ?Less@CSymbol@@QAE_NV1@@Z
_TEXT	SEGMENT
_this$ = -8						; size = 4
$T1 = -2						; size = 1
$T2 = -1						; size = 1
_dif$ = 8						; size = 12
?Less@CSymbol@@QAE_NV1@@Z PROC				; CSymbol::Less, COMDAT
; _this$ = ecx

; 22   : {

  00000	55		 push	 ebp
  00001	8b ec		 mov	 ebp, esp
  00003	51		 push	 ecx
  00004	51		 push	 ecx
  00005	56		 push	 esi
  00006	89 4d f8	 mov	 DWORD PTR _this$[ebp], ecx

; 23   :     if (dif.iType/10 > iType/10) return true;

  00009	8b 45 10	 mov	 eax, DWORD PTR _dif$[ebp+8]
  0000c	99		 cdq
  0000d	6a 0a		 push	 10			; 0000000aH
  0000f	59		 pop	 ecx
  00010	f7 f9		 idiv	 ecx
  00012	8b c8		 mov	 ecx, eax
  00014	8b 45 f8	 mov	 eax, DWORD PTR _this$[ebp]
  00017	8b 40 08	 mov	 eax, DWORD PTR [eax+8]
  0001a	99		 cdq
  0001b	6a 0a		 push	 10			; 0000000aH
  0001d	5e		 pop	 esi
  0001e	f7 fe		 idiv	 esi
  00020	3b c8		 cmp	 ecx, eax
  00022	7e 11		 jle	 SHORT $LN2@Less
  00024	c6 45 ff 01	 mov	 BYTE PTR $T2[ebp], 1
  00028	8d 4d 08	 lea	 ecx, DWORD PTR _dif$[ebp]
  0002b	e8 00 00 00 00	 call	 ??1CSymbol@@UAE@XZ	; CSymbol::~CSymbol
  00030	8a 45 ff	 mov	 al, BYTE PTR $T2[ebp]
  00033	eb 0f		 jmp	 SHORT $LN1@Less
$LN2@Less:

; 24   :     return false;

  00035	c6 45 fe 00	 mov	 BYTE PTR $T1[ebp], 0
  00039	8d 4d 08	 lea	 ecx, DWORD PTR _dif$[ebp]
  0003c	e8 00 00 00 00	 call	 ??1CSymbol@@UAE@XZ	; CSymbol::~CSymbol
  00041	8a 45 fe	 mov	 al, BYTE PTR $T1[ebp]
$LN1@Less:

; 25   : }

  00044	5e		 pop	 esi
  00045	c9		 leave
  00046	c2 0c 00	 ret	 12			; 0000000cH
?Less@CSymbol@@QAE_NV1@@Z ENDP				; CSymbol::Less
_TEXT	ENDS
; Function compile flags: /Odspy
; File D:\Metin2 Server Files\mainline\SRC_2014\Metin2Client\EterBase\poly\Symbol.cpp
;	COMDAT ?Equal@CSymbol@@QAE_NV1@@Z
_TEXT	SEGMENT
_this$ = -8						; size = 4
$T1 = -2						; size = 1
$T2 = -1						; size = 1
_dif$ = 8						; size = 12
?Equal@CSymbol@@QAE_NV1@@Z PROC				; CSymbol::Equal, COMDAT
; _this$ = ecx

; 16   : {

  00000	55		 push	 ebp
  00001	8b ec		 mov	 ebp, esp
  00003	51		 push	 ecx
  00004	51		 push	 ecx
  00005	56		 push	 esi
  00006	89 4d f8	 mov	 DWORD PTR _this$[ebp], ecx

; 17   :     if (dif.iType/10 == iType/10) return true;

  00009	8b 45 10	 mov	 eax, DWORD PTR _dif$[ebp+8]
  0000c	99		 cdq
  0000d	6a 0a		 push	 10			; 0000000aH
  0000f	59		 pop	 ecx
  00010	f7 f9		 idiv	 ecx
  00012	8b c8		 mov	 ecx, eax
  00014	8b 45 f8	 mov	 eax, DWORD PTR _this$[ebp]
  00017	8b 40 08	 mov	 eax, DWORD PTR [eax+8]
  0001a	99		 cdq
  0001b	6a 0a		 push	 10			; 0000000aH
  0001d	5e		 pop	 esi
  0001e	f7 fe		 idiv	 esi
  00020	3b c8		 cmp	 ecx, eax
  00022	75 11		 jne	 SHORT $LN2@Equal
  00024	c6 45 ff 01	 mov	 BYTE PTR $T2[ebp], 1
  00028	8d 4d 08	 lea	 ecx, DWORD PTR _dif$[ebp]
  0002b	e8 00 00 00 00	 call	 ??1CSymbol@@UAE@XZ	; CSymbol::~CSymbol
  00030	8a 45 ff	 mov	 al, BYTE PTR $T2[ebp]
  00033	eb 0f		 jmp	 SHORT $LN1@Equal
$LN2@Equal:

; 18   :     return false;

  00035	c6 45 fe 00	 mov	 BYTE PTR $T1[ebp], 0
  00039	8d 4d 08	 lea	 ecx, DWORD PTR _dif$[ebp]
  0003c	e8 00 00 00 00	 call	 ??1CSymbol@@UAE@XZ	; CSymbol::~CSymbol
  00041	8a 45 fe	 mov	 al, BYTE PTR $T1[ebp]
$LN1@Equal:

; 19   : }

  00044	5e		 pop	 esi
  00045	c9		 leave
  00046	c2 0c 00	 ret	 12			; 0000000cH
?Equal@CSymbol@@QAE_NV1@@Z ENDP				; CSymbol::Equal
_TEXT	ENDS
; Function compile flags: /Odspy
; File D:\Metin2 Server Files\mainline\SRC_2014\Metin2Client\EterBase\poly\Symbol.cpp
;	COMDAT ?GetType@CSymbol@@QAEHXZ
_TEXT	SEGMENT
_this$ = -4						; size = 4
?GetType@CSymbol@@QAEHXZ PROC				; CSymbol::GetType, COMDAT
; _this$ = ecx

; 28   : {

  00000	55		 push	 ebp
  00001	8b ec		 mov	 ebp, esp
  00003	51		 push	 ecx
  00004	89 4d fc	 mov	 DWORD PTR _this$[ebp], ecx

; 29   :     return iType;

  00007	8b 45 fc	 mov	 eax, DWORD PTR _this$[ebp]
  0000a	8b 40 08	 mov	 eax, DWORD PTR [eax+8]

; 30   : }

  0000d	c9		 leave
  0000e	c3		 ret	 0
?GetType@CSymbol@@QAEHXZ ENDP				; CSymbol::GetType
_TEXT	ENDS
; Function compile flags: /Odspy
; File D:\Metin2 Server Files\mainline\SRC_2014\Metin2Client\EterBase\poly\Symbol.cpp
;	COMDAT ?SetType@CSymbol@@QAEXH@Z
_TEXT	SEGMENT
_this$ = -4						; size = 4
_Type$ = 8						; size = 4
?SetType@CSymbol@@QAEXH@Z PROC				; CSymbol::SetType, COMDAT
; _this$ = ecx

; 33   : {

  00000	55		 push	 ebp
  00001	8b ec		 mov	 ebp, esp
  00003	51		 push	 ecx
  00004	89 4d fc	 mov	 DWORD PTR _this$[ebp], ecx

; 34   :     iType=Type;

  00007	8b 45 fc	 mov	 eax, DWORD PTR _this$[ebp]
  0000a	8b 4d 08	 mov	 ecx, DWORD PTR _Type$[ebp]
  0000d	89 48 08	 mov	 DWORD PTR [eax+8], ecx

; 35   : }

  00010	c9		 leave
  00011	c2 04 00	 ret	 4
?SetType@CSymbol@@QAEXH@Z ENDP				; CSymbol::SetType
_TEXT	ENDS
; Function compile flags: /Odspy
; File D:\Metin2 Server Files\mainline\SRC_2014\Metin2Client\EterBase\poly\Symbol.cpp
;	COMDAT ?issymbol@CSymbol@@SAHH@Z
_TEXT	SEGMENT
tv64 = -4						; size = 4
_ch$ = 8						; size = 4
?issymbol@CSymbol@@SAHH@Z PROC				; CSymbol::issymbol, COMDAT

; 38   : {

  00000	55		 push	 ebp
  00001	8b ec		 mov	 ebp, esp
  00003	51		 push	 ecx

; 39   :     switch(ch)

  00004	8b 45 08	 mov	 eax, DWORD PTR _ch$[ebp]
  00007	89 45 fc	 mov	 DWORD PTR tv64[ebp], eax
  0000a	83 7d fc 28	 cmp	 DWORD PTR tv64[ebp], 40	; 00000028H
  0000e	74 3f		 je	 SHORT $LN9@issymbol
  00010	83 7d fc 29	 cmp	 DWORD PTR tv64[ebp], 41	; 00000029H
  00014	74 3e		 je	 SHORT $LN10@issymbol
  00016	83 7d fc 2a	 cmp	 DWORD PTR tv64[ebp], 42	; 0000002aH
  0001a	74 24		 je	 SHORT $LN6@issymbol
  0001c	83 7d fc 2b	 cmp	 DWORD PTR tv64[ebp], 43	; 0000002bH
  00020	74 14		 je	 SHORT $LN4@issymbol
  00022	83 7d fc 2d	 cmp	 DWORD PTR tv64[ebp], 45	; 0000002dH
  00026	74 13		 je	 SHORT $LN5@issymbol
  00028	83 7d fc 2f	 cmp	 DWORD PTR tv64[ebp], 47	; 0000002fH
  0002c	74 17		 je	 SHORT $LN7@issymbol
  0002e	83 7d fc 5e	 cmp	 DWORD PTR tv64[ebp], 94	; 0000005eH
  00032	74 16		 je	 SHORT $LN8@issymbol
  00034	eb 23		 jmp	 SHORT $LN2@issymbol
$LN4@issymbol:

; 40   :     {
; 41   : 	case SY_PLUS	: return ST_PLUS;

  00036	6a 0b		 push	 11			; 0000000bH
  00038	58		 pop	 eax
  00039	eb 20		 jmp	 SHORT $LN1@issymbol
$LN5@issymbol:

; 42   : 	case SY_MINUS	: return ST_MINUS;

  0003b	6a 0c		 push	 12			; 0000000cH
  0003d	58		 pop	 eax
  0003e	eb 1b		 jmp	 SHORT $LN1@issymbol
$LN6@issymbol:

; 43   : 	case SY_MULTIPLY: return ST_MULTIPLY;

  00040	6a 17		 push	 23			; 00000017H
  00042	58		 pop	 eax
  00043	eb 16		 jmp	 SHORT $LN1@issymbol
$LN7@issymbol:

; 44   : 	case SY_DIVIDE	: return SY_DIVIDE;

  00045	6a 2f		 push	 47			; 0000002fH
  00047	58		 pop	 eax
  00048	eb 11		 jmp	 SHORT $LN1@issymbol
$LN8@issymbol:

; 45   : 	case SY_CARET	: return SY_CARET;

  0004a	6a 5e		 push	 94			; 0000005eH
  0004c	58		 pop	 eax
  0004d	eb 0c		 jmp	 SHORT $LN1@issymbol
$LN9@issymbol:

; 46   : 	case SY_OPEN	: return SY_OPEN;

  0004f	6a 28		 push	 40			; 00000028H
  00051	58		 pop	 eax
  00052	eb 07		 jmp	 SHORT $LN1@issymbol
$LN10@issymbol:

; 47   : 	case SY_CLOSE	: return ST_CLOSE;

  00054	6a 07		 push	 7
  00056	58		 pop	 eax
  00057	eb 02		 jmp	 SHORT $LN1@issymbol
$LN2@issymbol:

; 48   :     }
; 49   :     return 0;

  00059	33 c0		 xor	 eax, eax
$LN1@issymbol:

; 50   : }

  0005b	c9		 leave
  0005c	c3		 ret	 0
?issymbol@CSymbol@@SAHH@Z ENDP				; CSymbol::issymbol
_TEXT	ENDS
; Function compile flags: /Odspy
; File D:\Metin2 Server Files\mainline\SRC_2014\Metin2Client\EterBase\poly\Symbol.cpp
;	COMDAT ??1CSymbol@@UAE@XZ
_TEXT	SEGMENT
_this$ = -4						; size = 4
??1CSymbol@@UAE@XZ PROC					; CSymbol::~CSymbol, COMDAT
; _this$ = ecx

; 11   : {

  00000	55		 push	 ebp
  00001	8b ec		 mov	 ebp, esp
  00003	51		 push	 ecx
  00004	89 4d fc	 mov	 DWORD PTR _this$[ebp], ecx
  00007	8b 45 fc	 mov	 eax, DWORD PTR _this$[ebp]
  0000a	c7 00 00 00 00
	00		 mov	 DWORD PTR [eax], OFFSET ??_7CSymbol@@6B@

; 12   : 
; 13   : }

  00010	8b 4d fc	 mov	 ecx, DWORD PTR _this$[ebp]
  00013	e8 00 00 00 00	 call	 ??1CBase@@UAE@XZ	; CBase::~CBase
  00018	c9		 leave
  00019	c3		 ret	 0
??1CSymbol@@UAE@XZ ENDP					; CSymbol::~CSymbol
_TEXT	ENDS
; Function compile flags: /Odspy
; File D:\Metin2 Server Files\mainline\SRC_2014\Metin2Client\EterBase\poly\Symbol.cpp
;	COMDAT ??0CSymbol@@QAE@XZ
_TEXT	SEGMENT
_this$ = -4						; size = 4
??0CSymbol@@QAE@XZ PROC					; CSymbol::CSymbol, COMDAT
; _this$ = ecx

; 5    : {

  00000	55		 push	 ebp
  00001	8b ec		 mov	 ebp, esp
  00003	51		 push	 ecx
  00004	89 4d fc	 mov	 DWORD PTR _this$[ebp], ecx
  00007	8b 4d fc	 mov	 ecx, DWORD PTR _this$[ebp]
  0000a	e8 00 00 00 00	 call	 ??0CBase@@QAE@XZ	; CBase::CBase
  0000f	8b 45 fc	 mov	 eax, DWORD PTR _this$[ebp]
  00012	c7 00 00 00 00
	00		 mov	 DWORD PTR [eax], OFFSET ??_7CSymbol@@6B@

; 6    :     id = MID_SYMBOL;

  00018	8b 45 fc	 mov	 eax, DWORD PTR _this$[ebp]
  0001b	c7 40 04 00 04
	00 00		 mov	 DWORD PTR [eax+4], 1024	; 00000400H

; 7    :     iType = ST_UNKNOWN;

  00022	8b 45 fc	 mov	 eax, DWORD PTR _this$[ebp]
  00025	83 60 08 00	 and	 DWORD PTR [eax+8], 0

; 8    : }

  00029	8b 45 fc	 mov	 eax, DWORD PTR _this$[ebp]
  0002c	c9		 leave
  0002d	c3		 ret	 0
??0CSymbol@@QAE@XZ ENDP					; CSymbol::CSymbol
_TEXT	ENDS
END
