; Listing generated by Microsoft (R) Optimizing Compiler Version 19.28.29335.0 

	TITLE	D:\Metin2 Server Files\mainline\SRC_2014\Metin2Client\EterBase\Timer.cpp
	.686P
	.XMM
	include listing.inc
	.model	flat

INCLUDELIB LIBCMT
INCLUDELIB OLDNAMES

PUBLIC	??1?$CSingleton@VCTimer@@@@UAE@XZ		; CSingleton<CTimer>::~CSingleton<CTimer>
PUBLIC	??_G?$CSingleton@VCTimer@@@@UAEPAXI@Z		; CSingleton<CTimer>::`scalar deleting destructor'
PUBLIC	??0CTimer@@QAE@XZ				; CTimer::CTimer
PUBLIC	??1CTimer@@UAE@XZ				; CTimer::~CTimer
PUBLIC	?Advance@CTimer@@QAEXXZ				; CTimer::Advance
PUBLIC	?Adjust@CTimer@@QAEXH@Z				; CTimer::Adjust
PUBLIC	?SetBaseTime@CTimer@@QAEXXZ			; CTimer::SetBaseTime
PUBLIC	?GetCurrentSecond@CTimer@@QAEMXZ		; CTimer::GetCurrentSecond
PUBLIC	?GetCurrentMillisecond@CTimer@@QAEKXZ		; CTimer::GetCurrentMillisecond
PUBLIC	?GetElapsedSecond@CTimer@@QAEMXZ		; CTimer::GetElapsedSecond
PUBLIC	?GetElapsedMilliecond@CTimer@@QAEKXZ		; CTimer::GetElapsedMilliecond
PUBLIC	?UseCustomTime@CTimer@@QAEXXZ			; CTimer::UseCustomTime
PUBLIC	??_GCTimer@@UAEPAXI@Z				; CTimer::`scalar deleting destructor'
PUBLIC	?ELTimer_Init@@YAHXZ				; ELTimer_Init
PUBLIC	?ELTimer_GetMSec@@YAKXZ				; ELTimer_GetMSec
PUBLIC	?ELTimer_SetServerMSec@@YAXK@Z			; ELTimer_SetServerMSec
PUBLIC	?ELTimer_GetServerMSec@@YAKXZ			; ELTimer_GetServerMSec
PUBLIC	?ELTimer_SetFrameMSec@@YAXXZ			; ELTimer_SetFrameMSec
PUBLIC	?ELTimer_GetFrameMSec@@YAKXZ			; ELTimer_GetFrameMSec
PUBLIC	?ELTimer_GetServerFrameMSec@@YAKXZ		; ELTimer_GetServerFrameMSec
PUBLIC	?ms_singleton@?$CSingleton@VCTimer@@@@0PAVCTimer@@A ; CSingleton<CTimer>::ms_singleton
PUBLIC	??_7?$CSingleton@VCTimer@@@@6B@			; CSingleton<CTimer>::`vftable'
PUBLIC	??_7CTimer@@6B@					; CTimer::`vftable'
PUBLIC	??_R4CTimer@@6B@				; CTimer::`RTTI Complete Object Locator'
PUBLIC	??_R0?AVCTimer@@@8				; CTimer `RTTI Type Descriptor'
PUBLIC	??_R3CTimer@@8					; CTimer::`RTTI Class Hierarchy Descriptor'
PUBLIC	??_R2CTimer@@8					; CTimer::`RTTI Base Class Array'
PUBLIC	??_R1A@?0A@EA@CTimer@@8				; CTimer::`RTTI Base Class Descriptor at (0,-1,0,64)'
PUBLIC	??_R1A@?0A@EA@?$CSingleton@VCTimer@@@@8		; CSingleton<CTimer>::`RTTI Base Class Descriptor at (0,-1,0,64)'
PUBLIC	??_R0?AV?$CSingleton@VCTimer@@@@@8		; CSingleton<CTimer> `RTTI Type Descriptor'
PUBLIC	??_R3?$CSingleton@VCTimer@@@@8			; CSingleton<CTimer>::`RTTI Class Hierarchy Descriptor'
PUBLIC	??_R2?$CSingleton@VCTimer@@@@8			; CSingleton<CTimer>::`RTTI Base Class Array'
PUBLIC	??_R4?$CSingleton@VCTimer@@@@6B@		; CSingleton<CTimer>::`RTTI Complete Object Locator'
PUBLIC	__real@447a0000
PUBLIC	__xmm@41f00000000000000000000000000000
EXTRN	??3@YAXPAXI@Z:PROC				; operator delete
EXTRN	__imp__timeGetTime@0:PROC
EXTRN	??_E?$CSingleton@VCTimer@@@@UAEPAXI@Z:PROC	; CSingleton<CTimer>::`vector deleting destructor'
EXTRN	??_ECTimer@@UAEPAXI@Z:PROC			; CTimer::`vector deleting destructor'
EXTRN	@__security_check_cookie@4:PROC
EXTRN	___CxxFrameHandler3:PROC
EXTRN	??_7type_info@@6B@:QWORD			; type_info::`vftable'
EXTRN	___security_cookie:DWORD
EXTRN	__fltused:DWORD
;	COMDAT ?ms_singleton@?$CSingleton@VCTimer@@@@0PAVCTimer@@A
_BSS	SEGMENT
?ms_singleton@?$CSingleton@VCTimer@@@@0PAVCTimer@@A DD 01H DUP (?) ; CSingleton<CTimer>::ms_singleton
_BSS	ENDS
_BSS	SEGMENT
?gs_dwBaseTime@@3KA DD 01H DUP (?)			; gs_dwBaseTime
?gs_dwServerTime@@3KA DD 01H DUP (?)			; gs_dwServerTime
?gs_dwClientTime@@3KA DD 01H DUP (?)			; gs_dwClientTime
?gs_dwFrameTime@@3KA DD 01H DUP (?)			; gs_dwFrameTime
_BSS	ENDS
;	COMDAT __xmm@41f00000000000000000000000000000
CONST	SEGMENT
__xmm@41f00000000000000000000000000000 DB 00H, 00H, 00H, 00H, 00H, 00H, 00H
	DB	00H, 00H, 00H, 00H, 00H, 00H, 00H, 0f0H, 'A'
CONST	ENDS
;	COMDAT __real@447a0000
CONST	SEGMENT
__real@447a0000 DD 0447a0000r			; 1000
CONST	ENDS
;	COMDAT ??_R4?$CSingleton@VCTimer@@@@6B@
rdata$r	SEGMENT
??_R4?$CSingleton@VCTimer@@@@6B@ DD 00H			; CSingleton<CTimer>::`RTTI Complete Object Locator'
	DD	00H
	DD	00H
	DD	FLAT:??_R0?AV?$CSingleton@VCTimer@@@@@8
	DD	FLAT:??_R3?$CSingleton@VCTimer@@@@8
rdata$r	ENDS
;	COMDAT ??_R2?$CSingleton@VCTimer@@@@8
rdata$r	SEGMENT
??_R2?$CSingleton@VCTimer@@@@8 DD FLAT:??_R1A@?0A@EA@?$CSingleton@VCTimer@@@@8 ; CSingleton<CTimer>::`RTTI Base Class Array'
rdata$r	ENDS
;	COMDAT ??_R3?$CSingleton@VCTimer@@@@8
rdata$r	SEGMENT
??_R3?$CSingleton@VCTimer@@@@8 DD 00H			; CSingleton<CTimer>::`RTTI Class Hierarchy Descriptor'
	DD	00H
	DD	01H
	DD	FLAT:??_R2?$CSingleton@VCTimer@@@@8
rdata$r	ENDS
;	COMDAT ??_R0?AV?$CSingleton@VCTimer@@@@@8
data$rs	SEGMENT
??_R0?AV?$CSingleton@VCTimer@@@@@8 DD FLAT:??_7type_info@@6B@ ; CSingleton<CTimer> `RTTI Type Descriptor'
	DD	00H
	DB	'.?AV?$CSingleton@VCTimer@@@@', 00H
data$rs	ENDS
;	COMDAT ??_R1A@?0A@EA@?$CSingleton@VCTimer@@@@8
rdata$r	SEGMENT
??_R1A@?0A@EA@?$CSingleton@VCTimer@@@@8 DD FLAT:??_R0?AV?$CSingleton@VCTimer@@@@@8 ; CSingleton<CTimer>::`RTTI Base Class Descriptor at (0,-1,0,64)'
	DD	00H
	DD	00H
	DD	0ffffffffH
	DD	00H
	DD	040H
	DD	FLAT:??_R3?$CSingleton@VCTimer@@@@8
rdata$r	ENDS
;	COMDAT ??_R1A@?0A@EA@CTimer@@8
rdata$r	SEGMENT
??_R1A@?0A@EA@CTimer@@8 DD FLAT:??_R0?AVCTimer@@@8	; CTimer::`RTTI Base Class Descriptor at (0,-1,0,64)'
	DD	01H
	DD	00H
	DD	0ffffffffH
	DD	00H
	DD	040H
	DD	FLAT:??_R3CTimer@@8
rdata$r	ENDS
;	COMDAT ??_R2CTimer@@8
rdata$r	SEGMENT
??_R2CTimer@@8 DD FLAT:??_R1A@?0A@EA@CTimer@@8		; CTimer::`RTTI Base Class Array'
	DD	FLAT:??_R1A@?0A@EA@?$CSingleton@VCTimer@@@@8
rdata$r	ENDS
;	COMDAT ??_R3CTimer@@8
rdata$r	SEGMENT
??_R3CTimer@@8 DD 00H					; CTimer::`RTTI Class Hierarchy Descriptor'
	DD	00H
	DD	02H
	DD	FLAT:??_R2CTimer@@8
rdata$r	ENDS
;	COMDAT ??_R0?AVCTimer@@@8
data$rs	SEGMENT
??_R0?AVCTimer@@@8 DD FLAT:??_7type_info@@6B@		; CTimer `RTTI Type Descriptor'
	DD	00H
	DB	'.?AVCTimer@@', 00H
data$rs	ENDS
;	COMDAT ??_R4CTimer@@6B@
rdata$r	SEGMENT
??_R4CTimer@@6B@ DD 00H					; CTimer::`RTTI Complete Object Locator'
	DD	00H
	DD	00H
	DD	FLAT:??_R0?AVCTimer@@@8
	DD	FLAT:??_R3CTimer@@8
rdata$r	ENDS
;	COMDAT ??_7CTimer@@6B@
CONST	SEGMENT
??_7CTimer@@6B@ DD FLAT:??_R4CTimer@@6B@		; CTimer::`vftable'
	DD	FLAT:??_ECTimer@@UAEPAXI@Z
CONST	ENDS
;	COMDAT ??_7?$CSingleton@VCTimer@@@@6B@
CONST	SEGMENT
??_7?$CSingleton@VCTimer@@@@6B@ DD FLAT:??_R4?$CSingleton@VCTimer@@@@6B@ ; CSingleton<CTimer>::`vftable'
	DD	FLAT:??_E?$CSingleton@VCTimer@@@@UAEPAXI@Z
CONST	ENDS
;	COMDAT xdata$x
xdata$x	SEGMENT
__unwindtable$??0CTimer@@QAE@XZ DD 0ffffffffH
	DD	FLAT:__unwindfunclet$??0CTimer@@QAE@XZ$0
__ehfuncinfo$??0CTimer@@QAE@XZ DD 019930522H
	DD	01H
	DD	FLAT:__unwindtable$??0CTimer@@QAE@XZ
	DD	2 DUP(00H)
	DD	2 DUP(00H)
	DD	00H
	DD	01H
xdata$x	ENDS
; Function compile flags: /Odspy
; File D:\Metin2 Server Files\mainline\SRC_2014\Metin2Client\EterBase\Timer.cpp
;	COMDAT ?ELTimer_GetServerFrameMSec@@YAKXZ
_TEXT	SEGMENT
?ELTimer_GetServerFrameMSec@@YAKXZ PROC			; ELTimer_GetServerFrameMSec, COMDAT

; 59   : {

  00000	55		 push	 ebp
  00001	8b ec		 mov	 ebp, esp

; 60   : 	return ELTimer_GetFrameMSec() - gs_dwClientTime + gs_dwServerTime;

  00003	e8 00 00 00 00	 call	 ?ELTimer_GetFrameMSec@@YAKXZ ; ELTimer_GetFrameMSec
  00008	2b 05 00 00 00
	00		 sub	 eax, DWORD PTR ?gs_dwClientTime@@3KA
  0000e	03 05 00 00 00
	00		 add	 eax, DWORD PTR ?gs_dwServerTime@@3KA

; 61   : }

  00014	5d		 pop	 ebp
  00015	c3		 ret	 0
?ELTimer_GetServerFrameMSec@@YAKXZ ENDP			; ELTimer_GetServerFrameMSec
_TEXT	ENDS
; Function compile flags: /Odspy
; File D:\Metin2 Server Files\mainline\SRC_2014\Metin2Client\EterBase\Timer.cpp
;	COMDAT ?ELTimer_GetFrameMSec@@YAKXZ
_TEXT	SEGMENT
?ELTimer_GetFrameMSec@@YAKXZ PROC			; ELTimer_GetFrameMSec, COMDAT

; 54   : {

  00000	55		 push	 ebp
  00001	8b ec		 mov	 ebp, esp

; 55   : 	return gs_dwFrameTime;

  00003	a1 00 00 00 00	 mov	 eax, DWORD PTR ?gs_dwFrameTime@@3KA

; 56   : }

  00008	5d		 pop	 ebp
  00009	c3		 ret	 0
?ELTimer_GetFrameMSec@@YAKXZ ENDP			; ELTimer_GetFrameMSec
_TEXT	ENDS
; Function compile flags: /Odspy
; File D:\Metin2 Server Files\mainline\SRC_2014\Metin2Client\EterBase\Timer.cpp
;	COMDAT ?ELTimer_SetFrameMSec@@YAXXZ
_TEXT	SEGMENT
?ELTimer_SetFrameMSec@@YAXXZ PROC			; ELTimer_SetFrameMSec, COMDAT

; 64   : {

  00000	55		 push	 ebp
  00001	8b ec		 mov	 ebp, esp

; 65   : 	gs_dwFrameTime = ELTimer_GetMSec();

  00003	e8 00 00 00 00	 call	 ?ELTimer_GetMSec@@YAKXZ	; ELTimer_GetMSec
  00008	a3 00 00 00 00	 mov	 DWORD PTR ?gs_dwFrameTime@@3KA, eax

; 66   : }

  0000d	5d		 pop	 ebp
  0000e	c3		 ret	 0
?ELTimer_SetFrameMSec@@YAXXZ ENDP			; ELTimer_SetFrameMSec
_TEXT	ENDS
; Function compile flags: /Odspy
; File D:\Metin2 Server Files\mainline\SRC_2014\Metin2Client\EterBase\Timer.cpp
; File D:\Metin2 Server Files\mainline\SRC_2014\Metin2Client\EterBase\Singleton.h
; File D:\Metin2 Server Files\mainline\SRC_2014\Metin2Client\EterBase\Timer.cpp
;	COMDAT ?ELTimer_GetServerMSec@@YAKXZ
_TEXT	SEGMENT
$T1 = -4						; size = 4
?ELTimer_GetServerMSec@@YAKXZ PROC			; ELTimer_GetServerMSec, COMDAT

; 48   : {

  00000	55		 push	 ebp
  00001	8b ec		 mov	 ebp, esp
  00003	51		 push	 ecx
; File D:\Metin2 Server Files\mainline\SRC_2014\Metin2Client\EterBase\Singleton.h

; 38   : 		return (*ms_singleton);

  00004	a1 00 00 00 00	 mov	 eax, DWORD PTR ?ms_singleton@?$CSingleton@VCTimer@@@@0PAVCTimer@@A ; CSingleton<CTimer>::ms_singleton
  00009	89 45 fc	 mov	 DWORD PTR $T1[ebp], eax
; File D:\Metin2 Server Files\mainline\SRC_2014\Metin2Client\EterBase\Timer.cpp

; 49   : 	return CTimer::instance().GetCurrentMillisecond() - gs_dwClientTime + gs_dwServerTime;

  0000c	8b 4d fc	 mov	 ecx, DWORD PTR $T1[ebp]
  0000f	e8 00 00 00 00	 call	 ?GetCurrentMillisecond@CTimer@@QAEKXZ ; CTimer::GetCurrentMillisecond
  00014	2b 05 00 00 00
	00		 sub	 eax, DWORD PTR ?gs_dwClientTime@@3KA
  0001a	03 05 00 00 00
	00		 add	 eax, DWORD PTR ?gs_dwServerTime@@3KA

; 50   : 	//return ELTimer_GetMSec() - gs_dwClientTime + gs_dwServerTime;
; 51   : }

  00020	c9		 leave
  00021	c3		 ret	 0
?ELTimer_GetServerMSec@@YAKXZ ENDP			; ELTimer_GetServerMSec
_TEXT	ENDS
; Function compile flags: /Odspy
; File D:\Metin2 Server Files\mainline\SRC_2014\Metin2Client\EterBase\Timer.cpp
; File D:\Metin2 Server Files\mainline\SRC_2014\Metin2Client\EterBase\Singleton.h
; File D:\Metin2 Server Files\mainline\SRC_2014\Metin2Client\EterBase\Timer.cpp
;	COMDAT ?ELTimer_SetServerMSec@@YAXK@Z
_TEXT	SEGMENT
$T1 = -4						; size = 4
_dwServerTime$ = 8					; size = 4
?ELTimer_SetServerMSec@@YAXK@Z PROC			; ELTimer_SetServerMSec, COMDAT

; 37   : {

  00000	55		 push	 ebp
  00001	8b ec		 mov	 ebp, esp
  00003	51		 push	 ecx
  00004	53		 push	 ebx
  00005	56		 push	 esi
  00006	57		 push	 edi

; 38   : 	NANOBEGIN

  00007	eb		 DB	 -21			; ffffffebH
  00008	03		 DB	 3
  00009	d6		 DB	 -42			; ffffffd6H
  0000a	d7		 DB	 -41			; ffffffd7H
  0000b	01		 DB	 1
  0000c	83 7d 08 00	 cmp	 DWORD PTR _dwServerTime$[ebp], 0
  00010	74 1d		 je	 SHORT $LN2@ELTimer_Se

; 39   : 	if (0 != dwServerTime) // nanomite를 위한 더미 if
; 40   : 	{
; 41   : 		gs_dwServerTime = dwServerTime;

  00012	8b 45 08	 mov	 eax, DWORD PTR _dwServerTime$[ebp]
  00015	a3 00 00 00 00	 mov	 DWORD PTR ?gs_dwServerTime@@3KA, eax
; File D:\Metin2 Server Files\mainline\SRC_2014\Metin2Client\EterBase\Singleton.h

; 38   : 		return (*ms_singleton);

  0001a	a1 00 00 00 00	 mov	 eax, DWORD PTR ?ms_singleton@?$CSingleton@VCTimer@@@@0PAVCTimer@@A ; CSingleton<CTimer>::ms_singleton
  0001f	89 45 fc	 mov	 DWORD PTR $T1[ebp], eax
; File D:\Metin2 Server Files\mainline\SRC_2014\Metin2Client\EterBase\Timer.cpp

; 42   : 		gs_dwClientTime = CTimer::instance().GetCurrentMillisecond();

  00022	8b 4d fc	 mov	 ecx, DWORD PTR $T1[ebp]
  00025	e8 00 00 00 00	 call	 ?GetCurrentMillisecond@CTimer@@QAEKXZ ; CTimer::GetCurrentMillisecond
  0002a	a3 00 00 00 00	 mov	 DWORD PTR ?gs_dwClientTime@@3KA, eax
$LN2@ELTimer_Se:

; 43   : 	}
; 44   : 	NANOEND

  0002f	eb		 DB	 -21			; ffffffebH
  00030	03		 DB	 3
  00031	d6		 DB	 -42			; ffffffd6H
  00032	d7		 DB	 -41			; ffffffd7H
  00033	00		 DB	 0
  00034	5f		 pop	 edi
  00035	5e		 pop	 esi
  00036	5b		 pop	 ebx
  00037	c9		 leave
  00038	c3		 ret	 0
?ELTimer_SetServerMSec@@YAXK@Z ENDP			; ELTimer_SetServerMSec
_TEXT	ENDS
; Function compile flags: /Odspy
; File D:\Metin2 Server Files\mainline\SRC_2014\Metin2Client\EterBase\Timer.cpp
;	COMDAT ?ELTimer_GetMSec@@YAKXZ
_TEXT	SEGMENT
?ELTimer_GetMSec@@YAKXZ PROC				; ELTimer_GetMSec, COMDAT

; 29   : {

  00000	55		 push	 ebp
  00001	8b ec		 mov	 ebp, esp

; 30   : 	//assert(gs_dwBaseTime!=0 && "ELTimer_Init 를 먼저 실행하세요");
; 31   : 	//LARGE_INTEGER liTickCount;
; 32   : 	//QueryPerformanceCounter(&liTickCount);
; 33   : 	return timeGetTime() - gs_dwBaseTime; //(liTickCount.QuadPart*1000  / gs_liTickCountPerSec.QuadPart)-gs_dwBaseTime;		

  00003	ff 15 00 00 00
	00		 call	 DWORD PTR __imp__timeGetTime@0
  00009	2b 05 00 00 00
	00		 sub	 eax, DWORD PTR ?gs_dwBaseTime@@3KA

; 34   : }

  0000f	5d		 pop	 ebp
  00010	c3		 ret	 0
?ELTimer_GetMSec@@YAKXZ ENDP				; ELTimer_GetMSec
_TEXT	ENDS
; Function compile flags: /Odspy
; File D:\Metin2 Server Files\mainline\SRC_2014\Metin2Client\EterBase\Timer.cpp
;	COMDAT ?ELTimer_Init@@YAHXZ
_TEXT	SEGMENT
?ELTimer_Init@@YAHXZ PROC				; ELTimer_Init, COMDAT

; 13   : {	

  00000	55		 push	 ebp
  00001	8b ec		 mov	 ebp, esp

; 14   : 	/*
; 15   : 	gs_liTickCountPerSec.QuadPart=0;
; 16   : 
; 17   : 	if (!QueryPerformanceFrequency(&gs_liTickCountPerSec))
; 18   : 		return 0;
; 19   : 
; 20   : 	LARGE_INTEGER liTickCount;
; 21   : 	QueryPerformanceCounter(&liTickCount);
; 22   : 	gs_dwBaseTime= (liTickCount.QuadPart*1000  / gs_liTickCountPerSec.QuadPart);	
; 23   : 	*/
; 24   : 	gs_dwBaseTime = timeGetTime();

  00003	ff 15 00 00 00
	00		 call	 DWORD PTR __imp__timeGetTime@0
  00009	a3 00 00 00 00	 mov	 DWORD PTR ?gs_dwBaseTime@@3KA, eax

; 25   : 	return 1;

  0000e	33 c0		 xor	 eax, eax
  00010	40		 inc	 eax

; 26   : }

  00011	5d		 pop	 ebp
  00012	c3		 ret	 0
?ELTimer_Init@@YAHXZ ENDP				; ELTimer_Init
_TEXT	ENDS
; Function compile flags: /Odspy
;	COMDAT ??_GCTimer@@UAEPAXI@Z
_TEXT	SEGMENT
_this$ = -4						; size = 4
___flags$ = 8						; size = 4
??_GCTimer@@UAEPAXI@Z PROC				; CTimer::`scalar deleting destructor', COMDAT
; _this$ = ecx
  00000	55		 push	 ebp
  00001	8b ec		 mov	 ebp, esp
  00003	51		 push	 ecx
  00004	89 4d fc	 mov	 DWORD PTR _this$[ebp], ecx
  00007	8b 4d fc	 mov	 ecx, DWORD PTR _this$[ebp]
  0000a	e8 00 00 00 00	 call	 ??1CTimer@@UAE@XZ	; CTimer::~CTimer
  0000f	8b 45 08	 mov	 eax, DWORD PTR ___flags$[ebp]
  00012	83 e0 01	 and	 eax, 1
  00015	74 0c		 je	 SHORT $LN2@scalar
  00017	6a 1c		 push	 28			; 0000001cH
  00019	ff 75 fc	 push	 DWORD PTR _this$[ebp]
  0001c	e8 00 00 00 00	 call	 ??3@YAXPAXI@Z		; operator delete
  00021	59		 pop	 ecx
  00022	59		 pop	 ecx
$LN2@scalar:
  00023	8b 45 fc	 mov	 eax, DWORD PTR _this$[ebp]
  00026	c9		 leave
  00027	c2 04 00	 ret	 4
??_GCTimer@@UAEPAXI@Z ENDP				; CTimer::`scalar deleting destructor'
_TEXT	ENDS
; Function compile flags: /Odspy
; File D:\Metin2 Server Files\mainline\SRC_2014\Metin2Client\EterBase\Timer.cpp
;	COMDAT ?UseCustomTime@CTimer@@QAEXXZ
_TEXT	SEGMENT
_this$ = -4						; size = 4
?UseCustomTime@CTimer@@QAEXXZ PROC			; CTimer::UseCustomTime, COMDAT
; _this$ = ecx

; 154  : {

  00000	55		 push	 ebp
  00001	8b ec		 mov	 ebp, esp
  00003	51		 push	 ecx
  00004	89 4d fc	 mov	 DWORD PTR _this$[ebp], ecx

; 155  : 	m_bUseRealTime = false;

  00007	8b 45 fc	 mov	 eax, DWORD PTR _this$[ebp]
  0000a	c6 40 04 00	 mov	 BYTE PTR [eax+4], 0

; 156  : }

  0000e	c9		 leave
  0000f	c3		 ret	 0
?UseCustomTime@CTimer@@QAEXXZ ENDP			; CTimer::UseCustomTime
_TEXT	ENDS
; Function compile flags: /Odspy
; File D:\Metin2 Server Files\mainline\SRC_2014\Metin2Client\EterBase\Timer.cpp
;	COMDAT ?GetElapsedMilliecond@CTimer@@QAEKXZ
_TEXT	SEGMENT
_this$ = -4						; size = 4
?GetElapsedMilliecond@CTimer@@QAEKXZ PROC		; CTimer::GetElapsedMilliecond, COMDAT
; _this$ = ecx

; 146  : {

  00000	55		 push	 ebp
  00001	8b ec		 mov	 ebp, esp
  00003	51		 push	 ecx
  00004	89 4d fc	 mov	 DWORD PTR _this$[ebp], ecx

; 147  : 	if (!m_bUseRealTime)

  00007	8b 45 fc	 mov	 eax, DWORD PTR _this$[ebp]
  0000a	0f b6 40 04	 movzx	 eax, BYTE PTR [eax+4]
  0000e	85 c0		 test	 eax, eax
  00010	75 0e		 jne	 SHORT $LN2@GetElapsed

; 148  : 		return 16 + (m_index & 1);

  00012	8b 45 fc	 mov	 eax, DWORD PTR _this$[ebp]
  00015	8b 40 18	 mov	 eax, DWORD PTR [eax+24]
  00018	83 e0 01	 and	 eax, 1
  0001b	83 c0 10	 add	 eax, 16			; 00000010H
  0001e	eb 06		 jmp	 SHORT $LN1@GetElapsed
$LN2@GetElapsed:

; 149  : 
; 150  : 	return m_dwElapsedTime;

  00020	8b 45 fc	 mov	 eax, DWORD PTR _this$[ebp]
  00023	8b 40 14	 mov	 eax, DWORD PTR [eax+20]
$LN1@GetElapsed:

; 151  : }

  00026	c9		 leave
  00027	c3		 ret	 0
?GetElapsedMilliecond@CTimer@@QAEKXZ ENDP		; CTimer::GetElapsedMilliecond
_TEXT	ENDS
; Function compile flags: /Odspy
; File D:\Metin2 Server Files\mainline\SRC_2014\Metin2Client\EterBase\Timer.cpp
;	COMDAT ?GetElapsedSecond@CTimer@@QAEMXZ
_TEXT	SEGMENT
tv73 = -20						; size = 8
tv78 = -12						; size = 4
_this$ = -8						; size = 4
tv70 = -4						; size = 4
?GetElapsedSecond@CTimer@@QAEMXZ PROC			; CTimer::GetElapsedSecond, COMDAT
; _this$ = ecx

; 141  : {

  00000	55		 push	 ebp
  00001	8b ec		 mov	 ebp, esp
  00003	83 ec 14	 sub	 esp, 20			; 00000014H
  00006	89 4d f8	 mov	 DWORD PTR _this$[ebp], ecx

; 142  : 	return GetElapsedMilliecond() / 1000.0f;

  00009	8b 4d f8	 mov	 ecx, DWORD PTR _this$[ebp]
  0000c	e8 00 00 00 00	 call	 ?GetElapsedMilliecond@CTimer@@QAEKXZ ; CTimer::GetElapsedMilliecond
  00011	89 45 fc	 mov	 DWORD PTR tv70[ebp], eax
  00014	f2 0f 2a 45 fc	 cvtsi2sd xmm0, DWORD PTR tv70[ebp]
  00019	8b 45 fc	 mov	 eax, DWORD PTR tv70[ebp]
  0001c	c1 e8 1f	 shr	 eax, 31			; 0000001fH
  0001f	f2 0f 58 04 c5
	00 00 00 00	 addsd	 xmm0, QWORD PTR __xmm@41f00000000000000000000000000000[eax*8]
  00028	f2 0f 11 45 ec	 movsd	 QWORD PTR tv73[ebp], xmm0
  0002d	f2 0f 5a 45 ec	 cvtsd2ss xmm0, QWORD PTR tv73[ebp]
  00032	f3 0f 5e 05 00
	00 00 00	 divss	 xmm0, DWORD PTR __real@447a0000
  0003a	f3 0f 11 45 f4	 movss	 DWORD PTR tv78[ebp], xmm0
  0003f	d9 45 f4	 fld	 DWORD PTR tv78[ebp]

; 143  : }

  00042	c9		 leave
  00043	c3		 ret	 0
?GetElapsedSecond@CTimer@@QAEMXZ ENDP			; CTimer::GetElapsedSecond
_TEXT	ENDS
; Function compile flags: /Odspy
; File D:\Metin2 Server Files\mainline\SRC_2014\Metin2Client\EterBase\Timer.cpp
;	COMDAT ?GetCurrentMillisecond@CTimer@@QAEKXZ
_TEXT	SEGMENT
_this$ = -4						; size = 4
?GetCurrentMillisecond@CTimer@@QAEKXZ PROC		; CTimer::GetCurrentMillisecond, COMDAT
; _this$ = ecx

; 133  : {

  00000	55		 push	 ebp
  00001	8b ec		 mov	 ebp, esp
  00003	51		 push	 ecx
  00004	89 4d fc	 mov	 DWORD PTR _this$[ebp], ecx

; 134  : 	if (m_bUseRealTime)

  00007	8b 45 fc	 mov	 eax, DWORD PTR _this$[ebp]
  0000a	0f b6 40 04	 movzx	 eax, BYTE PTR [eax+4]
  0000e	85 c0		 test	 eax, eax
  00010	74 07		 je	 SHORT $LN2@GetCurrent

; 135  : 		return ELTimer_GetMSec();

  00012	e8 00 00 00 00	 call	 ?ELTimer_GetMSec@@YAKXZ	; ELTimer_GetMSec
  00017	eb 06		 jmp	 SHORT $LN1@GetCurrent
$LN2@GetCurrent:

; 136  : 
; 137  : 	return m_dwCurrentTime;

  00019	8b 45 fc	 mov	 eax, DWORD PTR _this$[ebp]
  0001c	8b 40 0c	 mov	 eax, DWORD PTR [eax+12]
$LN1@GetCurrent:

; 138  : }

  0001f	c9		 leave
  00020	c3		 ret	 0
?GetCurrentMillisecond@CTimer@@QAEKXZ ENDP		; CTimer::GetCurrentMillisecond
_TEXT	ENDS
; Function compile flags: /Odspy
; File D:\Metin2 Server Files\mainline\SRC_2014\Metin2Client\EterBase\Timer.cpp
;	COMDAT ?GetCurrentSecond@CTimer@@QAEMXZ
_TEXT	SEGMENT
tv77 = -20						; size = 8
tv82 = -12						; size = 4
_this$ = -8						; size = 4
tv74 = -4						; size = 4
?GetCurrentSecond@CTimer@@QAEMXZ PROC			; CTimer::GetCurrentSecond, COMDAT
; _this$ = ecx

; 125  : {

  00000	55		 push	 ebp
  00001	8b ec		 mov	 ebp, esp
  00003	83 ec 14	 sub	 esp, 20			; 00000014H
  00006	89 4d f8	 mov	 DWORD PTR _this$[ebp], ecx

; 126  : 	if (m_bUseRealTime)

  00009	8b 45 f8	 mov	 eax, DWORD PTR _this$[ebp]
  0000c	0f b6 40 04	 movzx	 eax, BYTE PTR [eax+4]
  00010	85 c0		 test	 eax, eax
  00012	74 38		 je	 SHORT $LN2@GetCurrent

; 127  : 		return ELTimer_GetMSec() / 1000.0f;

  00014	e8 00 00 00 00	 call	 ?ELTimer_GetMSec@@YAKXZ	; ELTimer_GetMSec
  00019	89 45 fc	 mov	 DWORD PTR tv74[ebp], eax
  0001c	f2 0f 2a 45 fc	 cvtsi2sd xmm0, DWORD PTR tv74[ebp]
  00021	8b 45 fc	 mov	 eax, DWORD PTR tv74[ebp]
  00024	c1 e8 1f	 shr	 eax, 31			; 0000001fH
  00027	f2 0f 58 04 c5
	00 00 00 00	 addsd	 xmm0, QWORD PTR __xmm@41f00000000000000000000000000000[eax*8]
  00030	f2 0f 11 45 ec	 movsd	 QWORD PTR tv77[ebp], xmm0
  00035	f2 0f 5a 45 ec	 cvtsd2ss xmm0, QWORD PTR tv77[ebp]
  0003a	f3 0f 5e 05 00
	00 00 00	 divss	 xmm0, DWORD PTR __real@447a0000
  00042	f3 0f 11 45 f4	 movss	 DWORD PTR tv82[ebp], xmm0
  00047	d9 45 f4	 fld	 DWORD PTR tv82[ebp]
  0004a	eb 06		 jmp	 SHORT $LN1@GetCurrent
$LN2@GetCurrent:

; 128  : 
; 129  : 	return m_fCurrentTime;

  0004c	8b 45 f8	 mov	 eax, DWORD PTR _this$[ebp]
  0004f	d9 40 10	 fld	 DWORD PTR [eax+16]
$LN1@GetCurrent:

; 130  : }

  00052	c9		 leave
  00053	c3		 ret	 0
?GetCurrentSecond@CTimer@@QAEMXZ ENDP			; CTimer::GetCurrentSecond
_TEXT	ENDS
; Function compile flags: /Odspy
; File D:\Metin2 Server Files\mainline\SRC_2014\Metin2Client\EterBase\Timer.cpp
;	COMDAT ?SetBaseTime@CTimer@@QAEXXZ
_TEXT	SEGMENT
_this$ = -4						; size = 4
?SetBaseTime@CTimer@@QAEXXZ PROC			; CTimer::SetBaseTime, COMDAT
; _this$ = ecx

; 91   : {

  00000	55		 push	 ebp
  00001	8b ec		 mov	 ebp, esp
  00003	51		 push	 ecx
  00004	89 4d fc	 mov	 DWORD PTR _this$[ebp], ecx

; 92   : 	m_dwCurrentTime = 0;

  00007	8b 45 fc	 mov	 eax, DWORD PTR _this$[ebp]
  0000a	83 60 0c 00	 and	 DWORD PTR [eax+12], 0

; 93   : }

  0000e	c9		 leave
  0000f	c3		 ret	 0
?SetBaseTime@CTimer@@QAEXXZ ENDP			; CTimer::SetBaseTime
_TEXT	ENDS
; Function compile flags: /Odspy
; File D:\Metin2 Server Files\mainline\SRC_2014\Metin2Client\EterBase\Timer.cpp
;	COMDAT ?Adjust@CTimer@@QAEXH@Z
_TEXT	SEGMENT
_this$ = -4						; size = 4
_iTimeGap$ = 8						; size = 4
?Adjust@CTimer@@QAEXH@Z PROC				; CTimer::Adjust, COMDAT
; _this$ = ecx

; 120  : {

  00000	55		 push	 ebp
  00001	8b ec		 mov	 ebp, esp
  00003	51		 push	 ecx
  00004	89 4d fc	 mov	 DWORD PTR _this$[ebp], ecx

; 121  : 	m_dwCurrentTime += iTimeGap;

  00007	8b 45 fc	 mov	 eax, DWORD PTR _this$[ebp]
  0000a	8b 40 0c	 mov	 eax, DWORD PTR [eax+12]
  0000d	03 45 08	 add	 eax, DWORD PTR _iTimeGap$[ebp]
  00010	8b 4d fc	 mov	 ecx, DWORD PTR _this$[ebp]
  00013	89 41 0c	 mov	 DWORD PTR [ecx+12], eax

; 122  : }

  00016	c9		 leave
  00017	c2 04 00	 ret	 4
?Adjust@CTimer@@QAEXH@Z ENDP				; CTimer::Adjust
_TEXT	ENDS
; Function compile flags: /Odspy
; File D:\Metin2 Server Files\mainline\SRC_2014\Metin2Client\EterBase\Timer.cpp
;	COMDAT ?Advance@CTimer@@QAEXXZ
_TEXT	SEGMENT
tv139 = -20						; size = 8
tv135 = -12						; size = 4
_currentTime$1 = -8					; size = 4
_this$ = -4						; size = 4
?Advance@CTimer@@QAEXXZ PROC				; CTimer::Advance, COMDAT
; _this$ = ecx

; 96   : {

  00000	55		 push	 ebp
  00001	8b ec		 mov	 ebp, esp
  00003	83 ec 14	 sub	 esp, 20			; 00000014H
  00006	89 4d fc	 mov	 DWORD PTR _this$[ebp], ecx

; 97   : 	if (!m_bUseRealTime)

  00009	8b 45 fc	 mov	 eax, DWORD PTR _this$[ebp]
  0000c	0f b6 40 04	 movzx	 eax, BYTE PTR [eax+4]
  00010	85 c0		 test	 eax, eax
  00012	75 6f		 jne	 SHORT $LN2@Advance

; 98   : 	{
; 99   : 		++m_index;

  00014	8b 45 fc	 mov	 eax, DWORD PTR _this$[ebp]
  00017	8b 40 18	 mov	 eax, DWORD PTR [eax+24]
  0001a	40		 inc	 eax
  0001b	8b 4d fc	 mov	 ecx, DWORD PTR _this$[ebp]
  0001e	89 41 18	 mov	 DWORD PTR [ecx+24], eax

; 100  : 
; 101  : 		if (m_index == 1)

  00021	8b 45 fc	 mov	 eax, DWORD PTR _this$[ebp]
  00024	83 78 18 01	 cmp	 DWORD PTR [eax+24], 1
  00028	75 07		 jne	 SHORT $LN4@Advance

; 102  : 			m_index = -1;

  0002a	8b 45 fc	 mov	 eax, DWORD PTR _this$[ebp]
  0002d	83 48 18 ff	 or	 DWORD PTR [eax+24], -1
$LN4@Advance:

; 103  : 
; 104  : 		m_dwCurrentTime += 16 + (m_index & 1);

  00031	8b 45 fc	 mov	 eax, DWORD PTR _this$[ebp]
  00034	8b 40 18	 mov	 eax, DWORD PTR [eax+24]
  00037	83 e0 01	 and	 eax, 1
  0003a	8b 4d fc	 mov	 ecx, DWORD PTR _this$[ebp]
  0003d	8b 49 0c	 mov	 ecx, DWORD PTR [ecx+12]
  00040	8d 44 08 10	 lea	 eax, DWORD PTR [eax+ecx+16]
  00044	8b 4d fc	 mov	 ecx, DWORD PTR _this$[ebp]
  00047	89 41 0c	 mov	 DWORD PTR [ecx+12], eax

; 105  : 		m_fCurrentTime = m_dwCurrentTime / 1000.0f;

  0004a	8b 45 fc	 mov	 eax, DWORD PTR _this$[ebp]
  0004d	8b 40 0c	 mov	 eax, DWORD PTR [eax+12]
  00050	89 45 f4	 mov	 DWORD PTR tv135[ebp], eax
  00053	f2 0f 2a 45 f4	 cvtsi2sd xmm0, DWORD PTR tv135[ebp]
  00058	8b 45 f4	 mov	 eax, DWORD PTR tv135[ebp]
  0005b	c1 e8 1f	 shr	 eax, 31			; 0000001fH
  0005e	f2 0f 58 04 c5
	00 00 00 00	 addsd	 xmm0, QWORD PTR __xmm@41f00000000000000000000000000000[eax*8]
  00067	f2 0f 11 45 ec	 movsd	 QWORD PTR tv139[ebp], xmm0
  0006c	f2 0f 5a 45 ec	 cvtsd2ss xmm0, QWORD PTR tv139[ebp]
  00071	f3 0f 5e 05 00
	00 00 00	 divss	 xmm0, DWORD PTR __real@447a0000
  00079	8b 45 fc	 mov	 eax, DWORD PTR _this$[ebp]
  0007c	f3 0f 11 40 10	 movss	 DWORD PTR [eax+16], xmm0

; 106  : 	}

  00081	eb 32		 jmp	 SHORT $LN3@Advance
$LN2@Advance:

; 107  : 	else
; 108  : 	{
; 109  : 		DWORD currentTime = ELTimer_GetMSec();

  00083	e8 00 00 00 00	 call	 ?ELTimer_GetMSec@@YAKXZ	; ELTimer_GetMSec
  00088	89 45 f8	 mov	 DWORD PTR _currentTime$1[ebp], eax

; 110  : 
; 111  : 		if (m_dwCurrentTime == 0)

  0008b	8b 45 fc	 mov	 eax, DWORD PTR _this$[ebp]
  0008e	83 78 0c 00	 cmp	 DWORD PTR [eax+12], 0
  00092	75 09		 jne	 SHORT $LN5@Advance

; 112  : 			m_dwCurrentTime = currentTime;

  00094	8b 45 fc	 mov	 eax, DWORD PTR _this$[ebp]
  00097	8b 4d f8	 mov	 ecx, DWORD PTR _currentTime$1[ebp]
  0009a	89 48 0c	 mov	 DWORD PTR [eax+12], ecx
$LN5@Advance:

; 113  : 
; 114  : 		m_dwElapsedTime = currentTime - m_dwCurrentTime;

  0009d	8b 45 fc	 mov	 eax, DWORD PTR _this$[ebp]
  000a0	8b 4d f8	 mov	 ecx, DWORD PTR _currentTime$1[ebp]
  000a3	2b 48 0c	 sub	 ecx, DWORD PTR [eax+12]
  000a6	8b 45 fc	 mov	 eax, DWORD PTR _this$[ebp]
  000a9	89 48 14	 mov	 DWORD PTR [eax+20], ecx

; 115  : 		m_dwCurrentTime = currentTime;

  000ac	8b 45 fc	 mov	 eax, DWORD PTR _this$[ebp]
  000af	8b 4d f8	 mov	 ecx, DWORD PTR _currentTime$1[ebp]
  000b2	89 48 0c	 mov	 DWORD PTR [eax+12], ecx
$LN3@Advance:

; 116  : 	}
; 117  : }

  000b5	c9		 leave
  000b6	c3		 ret	 0
?Advance@CTimer@@QAEXXZ ENDP				; CTimer::Advance
_TEXT	ENDS
; Function compile flags: /Odspy
; File D:\Metin2 Server Files\mainline\SRC_2014\Metin2Client\EterBase\Timer.cpp
; File D:\Metin2 Server Files\mainline\SRC_2014\Metin2Client\EterBase\Singleton.h
; File D:\Metin2 Server Files\mainline\SRC_2014\Metin2Client\EterBase\Timer.cpp
;	COMDAT ??1CTimer@@UAE@XZ
_TEXT	SEGMENT
_this$ = -4						; size = 4
??1CTimer@@UAE@XZ PROC					; CTimer::~CTimer, COMDAT
; _this$ = ecx

; 87   : {

  00000	55		 push	 ebp
  00001	8b ec		 mov	 ebp, esp
  00003	51		 push	 ecx
  00004	89 4d fc	 mov	 DWORD PTR _this$[ebp], ecx
  00007	8b 45 fc	 mov	 eax, DWORD PTR _this$[ebp]
  0000a	c7 00 00 00 00
	00		 mov	 DWORD PTR [eax], OFFSET ??_7CTimer@@6B@
; File D:\Metin2 Server Files\mainline\SRC_2014\Metin2Client\EterBase\Singleton.h

; 19   : 	{ 

  00010	8b 45 fc	 mov	 eax, DWORD PTR _this$[ebp]
  00013	c7 00 00 00 00
	00		 mov	 DWORD PTR [eax], OFFSET ??_7?$CSingleton@VCTimer@@@@6B@

; 20   : 		assert(ms_singleton);
; 21   : 		ms_singleton = 0; 

  00019	83 25 00 00 00
	00 00		 and	 DWORD PTR ?ms_singleton@?$CSingleton@VCTimer@@@@0PAVCTimer@@A, 0 ; CSingleton<CTimer>::ms_singleton
; File D:\Metin2 Server Files\mainline\SRC_2014\Metin2Client\EterBase\Timer.cpp

; 88   : }

  00020	c9		 leave
  00021	c3		 ret	 0
??1CTimer@@UAE@XZ ENDP					; CTimer::~CTimer
_TEXT	ENDS
; Function compile flags: /Odspy
; File D:\Metin2 Server Files\mainline\SRC_2014\Metin2Client\EterBase\Timer.cpp
; File D:\Metin2 Server Files\mainline\SRC_2014\Metin2Client\EterBase\Singleton.h
; File D:\Metin2 Server Files\mainline\SRC_2014\Metin2Client\EterBase\Timer.cpp
;	COMDAT ??0CTimer@@QAE@XZ
_TEXT	SEGMENT
_offset$2 = -20						; size = 4
_this$ = -16						; size = 4
__$EHRec$ = -12						; size = 12
??0CTimer@@QAE@XZ PROC					; CTimer::CTimer, COMDAT
; _this$ = ecx

; 69   : {

  00000	55		 push	 ebp
  00001	8b ec		 mov	 ebp, esp
  00003	6a ff		 push	 -1
  00005	68 00 00 00 00	 push	 __ehhandler$??0CTimer@@QAE@XZ
  0000a	64 a1 00 00 00
	00		 mov	 eax, DWORD PTR fs:0
  00010	50		 push	 eax
  00011	51		 push	 ecx
  00012	51		 push	 ecx
  00013	53		 push	 ebx
  00014	56		 push	 esi
  00015	57		 push	 edi
  00016	a1 00 00 00 00	 mov	 eax, DWORD PTR ___security_cookie
  0001b	33 c5		 xor	 eax, ebp
  0001d	50		 push	 eax
  0001e	8d 45 f4	 lea	 eax, DWORD PTR __$EHRec$[ebp]
  00021	64 a3 00 00 00
	00		 mov	 DWORD PTR fs:0, eax
  00027	89 4d f0	 mov	 DWORD PTR _this$[ebp], ecx
; File D:\Metin2 Server Files\mainline\SRC_2014\Metin2Client\EterBase\Singleton.h

; 12   : 	{ 

  0002a	8b 45 f0	 mov	 eax, DWORD PTR _this$[ebp]
  0002d	c7 00 00 00 00
	00		 mov	 DWORD PTR [eax], OFFSET ??_7?$CSingleton@VCTimer@@@@6B@

; 13   : 		assert(!ms_singleton);
; 14   : 		int offset = (int) (T*) 1 - (int) (CSingleton <T>*) (T*) 1; 

  00033	33 c0		 xor	 eax, eax
  00035	89 45 ec	 mov	 DWORD PTR _offset$2[ebp], eax

; 15   : 		ms_singleton = (T*) ((int) this + offset);

  00038	8b 45 f0	 mov	 eax, DWORD PTR _this$[ebp]
  0003b	03 45 ec	 add	 eax, DWORD PTR _offset$2[ebp]
  0003e	a3 00 00 00 00	 mov	 DWORD PTR ?ms_singleton@?$CSingleton@VCTimer@@@@0PAVCTimer@@A, eax ; CSingleton<CTimer>::ms_singleton
; File D:\Metin2 Server Files\mainline\SRC_2014\Metin2Client\EterBase\Timer.cpp

; 69   : {

  00043	83 65 fc 00	 and	 DWORD PTR __$EHRec$[ebp+8], 0
  00047	8b 45 f0	 mov	 eax, DWORD PTR _this$[ebp]
  0004a	c7 00 00 00 00
	00		 mov	 DWORD PTR [eax], OFFSET ??_7CTimer@@6B@

; 70   : 	ELTimer_Init();

  00050	e8 00 00 00 00	 call	 ?ELTimer_Init@@YAHXZ	; ELTimer_Init

; 71   : 
; 72   : 	NANOBEGIN

  00055	eb		 DB	 -21			; ffffffebH
  00056	03		 DB	 3
  00057	d6		 DB	 -42			; ffffffd6H
  00058	d7		 DB	 -41			; ffffffd7H
  00059	01		 DB	 1
  0005a	83 7d f0 00	 cmp	 DWORD PTR _this$[ebp], 0
  0005e	74 27		 je	 SHORT $LN2@CTimer

; 73   : 	if (this) // nanomite를 위한 더미 if
; 74   : 	{
; 75   : 		m_dwCurrentTime = 0;

  00060	8b 45 f0	 mov	 eax, DWORD PTR _this$[ebp]
  00063	83 60 0c 00	 and	 DWORD PTR [eax+12], 0

; 76   : 		m_bUseRealTime = true;

  00067	8b 45 f0	 mov	 eax, DWORD PTR _this$[ebp]
  0006a	c6 40 04 01	 mov	 BYTE PTR [eax+4], 1

; 77   : 		m_index = 0;

  0006e	8b 45 f0	 mov	 eax, DWORD PTR _this$[ebp]
  00071	83 60 18 00	 and	 DWORD PTR [eax+24], 0

; 78   : 	
; 79   : 		m_dwElapsedTime = 0;

  00075	8b 45 f0	 mov	 eax, DWORD PTR _this$[ebp]
  00078	83 60 14 00	 and	 DWORD PTR [eax+20], 0

; 80   : 
; 81   : 		m_fCurrentTime = 0.0f;

  0007c	8b 45 f0	 mov	 eax, DWORD PTR _this$[ebp]
  0007f	0f 57 c0	 xorps	 xmm0, xmm0
  00082	f3 0f 11 40 10	 movss	 DWORD PTR [eax+16], xmm0
$LN2@CTimer:

; 82   : 	}
; 83   : 	NANOEND

  00087	eb		 DB	 -21			; ffffffebH
  00088	03		 DB	 3
  00089	d6		 DB	 -42			; ffffffd6H
  0008a	d7		 DB	 -41			; ffffffd7H
  0008b	00		 DB	 0
  0008c	83 4d fc ff	 or	 DWORD PTR __$EHRec$[ebp+8], -1
  00090	8b 45 f0	 mov	 eax, DWORD PTR _this$[ebp]
  00093	8b 4d f4	 mov	 ecx, DWORD PTR __$EHRec$[ebp]
  00096	64 89 0d 00 00
	00 00		 mov	 DWORD PTR fs:0, ecx
  0009d	59		 pop	 ecx
  0009e	5f		 pop	 edi
  0009f	5e		 pop	 esi
  000a0	5b		 pop	 ebx
  000a1	c9		 leave
  000a2	c3		 ret	 0
_TEXT	ENDS
;	COMDAT text$x
text$x	SEGMENT
__unwindfunclet$??0CTimer@@QAE@XZ$0:
  00000	8b 4d f0	 mov	 ecx, DWORD PTR _this$[ebp]
  00003	e9 00 00 00 00	 jmp	 ??1?$CSingleton@VCTimer@@@@UAE@XZ ; CSingleton<CTimer>::~CSingleton<CTimer>
  00008	cc		 int	 3
  00009	cc		 int	 3
  0000a	cc		 int	 3
  0000b	cc		 int	 3
  0000c	cc		 int	 3
__ehhandler$??0CTimer@@QAE@XZ:
  0000d	90		 npad	 1
  0000e	90		 npad	 1
  0000f	8b 54 24 08	 mov	 edx, DWORD PTR [esp+8]
  00013	8d 42 0c	 lea	 eax, DWORD PTR [edx+12]
  00016	8b 4a e8	 mov	 ecx, DWORD PTR [edx-24]
  00019	33 c8		 xor	 ecx, eax
  0001b	e8 00 00 00 00	 call	 @__security_check_cookie@4
  00020	b8 00 00 00 00	 mov	 eax, OFFSET __ehfuncinfo$??0CTimer@@QAE@XZ
  00025	e9 00 00 00 00	 jmp	 ___CxxFrameHandler3
text$x	ENDS
??0CTimer@@QAE@XZ ENDP					; CTimer::CTimer
; Function compile flags: /Odspy
; File D:\Metin2 Server Files\mainline\SRC_2014\Metin2Client\EterBase\Singleton.h
;	COMDAT ??_G?$CSingleton@VCTimer@@@@UAEPAXI@Z
_TEXT	SEGMENT
_this$ = -4						; size = 4
___flags$ = 8						; size = 4
??_G?$CSingleton@VCTimer@@@@UAEPAXI@Z PROC		; CSingleton<CTimer>::`scalar deleting destructor', COMDAT
; _this$ = ecx
  00000	55		 push	 ebp
  00001	8b ec		 mov	 ebp, esp
  00003	51		 push	 ecx
  00004	89 4d fc	 mov	 DWORD PTR _this$[ebp], ecx

; 19   : 	{ 

  00007	8b 45 fc	 mov	 eax, DWORD PTR _this$[ebp]
  0000a	c7 00 00 00 00
	00		 mov	 DWORD PTR [eax], OFFSET ??_7?$CSingleton@VCTimer@@@@6B@

; 20   : 		assert(ms_singleton);
; 21   : 		ms_singleton = 0; 

  00010	83 25 00 00 00
	00 00		 and	 DWORD PTR ?ms_singleton@?$CSingleton@VCTimer@@@@0PAVCTimer@@A, 0 ; CSingleton<CTimer>::ms_singleton
  00017	8b 45 08	 mov	 eax, DWORD PTR ___flags$[ebp]
  0001a	83 e0 01	 and	 eax, 1
  0001d	74 0c		 je	 SHORT $LN2@scalar
  0001f	6a 04		 push	 4
  00021	ff 75 fc	 push	 DWORD PTR _this$[ebp]
  00024	e8 00 00 00 00	 call	 ??3@YAXPAXI@Z		; operator delete
  00029	59		 pop	 ecx
  0002a	59		 pop	 ecx
$LN2@scalar:
  0002b	8b 45 fc	 mov	 eax, DWORD PTR _this$[ebp]
  0002e	c9		 leave
  0002f	c2 04 00	 ret	 4
??_G?$CSingleton@VCTimer@@@@UAEPAXI@Z ENDP		; CSingleton<CTimer>::`scalar deleting destructor'
_TEXT	ENDS
; Function compile flags: /Odspy
; File D:\Metin2 Server Files\mainline\SRC_2014\Metin2Client\EterBase\Singleton.h
;	COMDAT ??1?$CSingleton@VCTimer@@@@UAE@XZ
_TEXT	SEGMENT
_this$ = -4						; size = 4
??1?$CSingleton@VCTimer@@@@UAE@XZ PROC			; CSingleton<CTimer>::~CSingleton<CTimer>, COMDAT
; _this$ = ecx

; 19   : 	{ 

  00000	55		 push	 ebp
  00001	8b ec		 mov	 ebp, esp
  00003	51		 push	 ecx
  00004	89 4d fc	 mov	 DWORD PTR _this$[ebp], ecx
  00007	8b 45 fc	 mov	 eax, DWORD PTR _this$[ebp]
  0000a	c7 00 00 00 00
	00		 mov	 DWORD PTR [eax], OFFSET ??_7?$CSingleton@VCTimer@@@@6B@

; 20   : 		assert(ms_singleton);
; 21   : 		ms_singleton = 0; 

  00010	83 25 00 00 00
	00 00		 and	 DWORD PTR ?ms_singleton@?$CSingleton@VCTimer@@@@0PAVCTimer@@A, 0 ; CSingleton<CTimer>::ms_singleton

; 22   : 	}

  00017	c9		 leave
  00018	c3		 ret	 0
??1?$CSingleton@VCTimer@@@@UAE@XZ ENDP			; CSingleton<CTimer>::~CSingleton<CTimer>
_TEXT	ENDS
END
