; Listing generated by Microsoft (R) Optimizing Compiler Version 19.28.29335.0 

	TITLE	D:\Metin2 Server Files\mainline\SRC_2014\Metin2Client\EterBase\Utils.cpp
	.686P
	.XMM
	include listing.inc
	.model	flat

INCLUDELIB LIBCMT
INCLUDELIB OLDNAMES

PUBLIC	___local_stdio_printf_options
PUBLIC	_fprintf
PUBLIC	_sprintf
PUBLIC	??0exception@std@@QAE@ABV01@@Z			; std::exception::exception
PUBLIC	?what@exception@std@@UBEPBDXZ			; std::exception::what
PUBLIC	??_Gexception@std@@UAEPAXI@Z			; std::exception::`scalar deleting destructor'
PUBLIC	??0bad_alloc@std@@QAE@ABV01@@Z			; std::bad_alloc::bad_alloc
PUBLIC	??_Gbad_alloc@std@@UAEPAXI@Z			; std::bad_alloc::`scalar deleting destructor'
PUBLIC	??0bad_array_new_length@std@@QAE@XZ		; std::bad_array_new_length::bad_array_new_length
PUBLIC	??1bad_array_new_length@std@@UAE@XZ		; std::bad_array_new_length::~bad_array_new_length
PUBLIC	??0bad_array_new_length@std@@QAE@ABV01@@Z	; std::bad_array_new_length::bad_array_new_length
PUBLIC	??_Gbad_array_new_length@std@@UAEPAXI@Z		; std::bad_array_new_length::`scalar deleting destructor'
PUBLIC	?_Throw_bad_array_new_length@std@@YAXXZ		; std::_Throw_bad_array_new_length
PUBLIC	?_Adjust_manually_vector_aligned@std@@YAXAAPAXAAI@Z ; std::_Adjust_manually_vector_aligned
PUBLIC	?_Xlen_string@std@@YAXXZ			; std::_Xlen_string
PUBLIC	??0?$_String_val@U?$_Simple_types@D@std@@@std@@QAE@XZ ; std::_String_val<std::_Simple_types<char> >::_String_val<std::_Simple_types<char> >
PUBLIC	?_Myptr@?$_String_val@U?$_Simple_types@D@std@@@std@@QAEPADXZ ; std::_String_val<std::_Simple_types<char> >::_Myptr
PUBLIC	?_Myptr@?$_String_val@U?$_Simple_types@D@std@@@std@@QBEPBDXZ ; std::_String_val<std::_Simple_types<char> >::_Myptr
PUBLIC	?_Xran@?$_String_val@U?$_Simple_types@D@std@@@std@@SAXXZ ; std::_String_val<std::_Simple_types<char> >::_Xran
PUBLIC	??0?$basic_string@DU?$char_traits@D@std@@V?$allocator@D@2@@std@@QAE@ABV01@@Z ; std::basic_string<char,std::char_traits<char>,std::allocator<char> >::basic_string<char,std::char_traits<char>,std::allocator<char> >
PUBLIC	??0?$basic_string@DU?$char_traits@D@std@@V?$allocator@D@2@@std@@QAE@XZ ; std::basic_string<char,std::char_traits<char>,std::allocator<char> >::basic_string<char,std::char_traits<char>,std::allocator<char> >
PUBLIC	??0?$basic_string@DU?$char_traits@D@std@@V?$allocator@D@2@@std@@QAE@QBD@Z ; std::basic_string<char,std::char_traits<char>,std::allocator<char> >::basic_string<char,std::char_traits<char>,std::allocator<char> >
PUBLIC	??0?$basic_string@DU?$char_traits@D@std@@V?$allocator@D@2@@std@@QAE@$$QAV01@@Z ; std::basic_string<char,std::char_traits<char>,std::allocator<char> >::basic_string<char,std::char_traits<char>,std::allocator<char> >
PUBLIC	??0?$basic_string@DU?$char_traits@D@std@@V?$allocator@D@2@@std@@QAE@U_String_constructor_concat_tag@1@ABV01@QBDI2I@Z ; std::basic_string<char,std::char_traits<char>,std::allocator<char> >::basic_string<char,std::char_traits<char>,std::allocator<char> >
PUBLIC	?_Move_assign@?$basic_string@DU?$char_traits@D@std@@V?$allocator@D@2@@std@@AAEXAAV12@U_Equal_allocators@2@@Z ; std::basic_string<char,std::char_traits<char>,std::allocator<char> >::_Move_assign
PUBLIC	?_Construct_lv_contents@?$basic_string@DU?$char_traits@D@std@@V?$allocator@D@2@@std@@AAEXABV12@@Z ; std::basic_string<char,std::char_traits<char>,std::allocator<char> >::_Construct_lv_contents
PUBLIC	??1?$basic_string@DU?$char_traits@D@std@@V?$allocator@D@2@@std@@QAE@XZ ; std::basic_string<char,std::char_traits<char>,std::allocator<char> >::~basic_string<char,std::char_traits<char>,std::allocator<char> >
PUBLIC	?append@?$basic_string@DU?$char_traits@D@std@@V?$allocator@D@2@@std@@QAEAAV12@ABV12@@Z ; std::basic_string<char,std::char_traits<char>,std::allocator<char> >::append
PUBLIC	?append@?$basic_string@DU?$char_traits@D@std@@V?$allocator@D@2@@std@@QAEAAV12@QBDI@Z ; std::basic_string<char,std::char_traits<char>,std::allocator<char> >::append
PUBLIC	?append@?$basic_string@DU?$char_traits@D@std@@V?$allocator@D@2@@std@@QAEAAV12@ID@Z ; std::basic_string<char,std::char_traits<char>,std::allocator<char> >::append
PUBLIC	?assign@?$basic_string@DU?$char_traits@D@std@@V?$allocator@D@2@@std@@QAEAAV12@ABV12@II@Z ; std::basic_string<char,std::char_traits<char>,std::allocator<char> >::assign
PUBLIC	?assign@?$basic_string@DU?$char_traits@D@std@@V?$allocator@D@2@@std@@QAEAAV12@QBDI@Z ; std::basic_string<char,std::char_traits<char>,std::allocator<char> >::assign
PUBLIC	??A?$basic_string@DU?$char_traits@D@std@@V?$allocator@D@2@@std@@QAEAADI@Z ; std::basic_string<char,std::char_traits<char>,std::allocator<char> >::operator[]
PUBLIC	?push_back@?$basic_string@DU?$char_traits@D@std@@V?$allocator@D@2@@std@@QAEXD@Z ; std::basic_string<char,std::char_traits<char>,std::allocator<char> >::push_back
PUBLIC	?c_str@?$basic_string@DU?$char_traits@D@std@@V?$allocator@D@2@@std@@QBEPBDXZ ; std::basic_string<char,std::char_traits<char>,std::allocator<char> >::c_str
PUBLIC	?max_size@?$basic_string@DU?$char_traits@D@std@@V?$allocator@D@2@@std@@QBEIXZ ; std::basic_string<char,std::char_traits<char>,std::allocator<char> >::max_size
PUBLIC	?reserve@?$basic_string@DU?$char_traits@D@std@@V?$allocator@D@2@@std@@QAEXI@Z ; std::basic_string<char,std::char_traits<char>,std::allocator<char> >::reserve
PUBLIC	?find_first_of@?$basic_string@DU?$char_traits@D@std@@V?$allocator@D@2@@std@@QBEIQBDI@Z ; std::basic_string<char,std::char_traits<char>,std::allocator<char> >::find_first_of
PUBLIC	?find_first_not_of@?$basic_string@DU?$char_traits@D@std@@V?$allocator@D@2@@std@@QBEIQBDI@Z ; std::basic_string<char,std::char_traits<char>,std::allocator<char> >::find_first_not_of
PUBLIC	?substr@?$basic_string@DU?$char_traits@D@std@@V?$allocator@D@2@@std@@QBE?AV12@II@Z ; std::basic_string<char,std::char_traits<char>,std::allocator<char> >::substr
PUBLIC	?_Calculate_growth@?$basic_string@DU?$char_traits@D@std@@V?$allocator@D@2@@std@@CAIIII@Z ; std::basic_string<char,std::char_traits<char>,std::allocator<char> >::_Calculate_growth
PUBLIC	?_Calculate_growth@?$basic_string@DU?$char_traits@D@std@@V?$allocator@D@2@@std@@ABEII@Z ; std::basic_string<char,std::char_traits<char>,std::allocator<char> >::_Calculate_growth
PUBLIC	?_Become_small@?$basic_string@DU?$char_traits@D@std@@V?$allocator@D@2@@std@@AAEXXZ ; std::basic_string<char,std::char_traits<char>,std::allocator<char> >::_Become_small
PUBLIC	?_Eos@?$basic_string@DU?$char_traits@D@std@@V?$allocator@D@2@@std@@AAEXI@Z ; std::basic_string<char,std::char_traits<char>,std::allocator<char> >::_Eos
PUBLIC	?_Tidy_init@?$basic_string@DU?$char_traits@D@std@@V?$allocator@D@2@@std@@AAEXXZ ; std::basic_string<char,std::char_traits<char>,std::allocator<char> >::_Tidy_init
PUBLIC	?_Tidy_deallocate@?$basic_string@DU?$char_traits@D@std@@V?$allocator@D@2@@std@@AAEXXZ ; std::basic_string<char,std::char_traits<char>,std::allocator<char> >::_Tidy_deallocate
PUBLIC	??1?$_Compressed_pair@V?$allocator@D@std@@V?$_String_val@U?$_Simple_types@D@std@@@2@$00@std@@QAE@XZ ; std::_Compressed_pair<std::allocator<char>,std::_String_val<std::_Simple_types<char> >,1>::~_Compressed_pair<std::allocator<char>,std::_String_val<std::_Simple_types<char> >,1>
PUBLIC	?CreateTempFileName@@YAPBDPBD@Z			; CreateTempFileName
PUBLIC	?GetFilePathNameExtension@@YAXPBDHPAV?$basic_string@DU?$char_traits@D@std@@V?$allocator@D@2@@std@@11@Z ; GetFilePathNameExtension
PUBLIC	?GetFileExtension@@YAXPBDHPAV?$basic_string@DU?$char_traits@D@std@@V?$allocator@D@2@@std@@@Z ; GetFileExtension
PUBLIC	?GetFileNameParts@@YAXPBDHPAD11@Z		; GetFileNameParts
PUBLIC	?GetOldIndexingName@@YAXPADH@Z			; GetOldIndexingName
PUBLIC	?GetIndexingName@@YAXPADK@Z			; GetIndexingName
PUBLIC	?GetOnlyFileName@@YAXPBDAAV?$basic_string@DU?$char_traits@D@std@@V?$allocator@D@2@@std@@@Z ; GetOnlyFileName
PUBLIC	?GetOnlyPathName@@YAXPBDAAV?$basic_string@DU?$char_traits@D@std@@V?$allocator@D@2@@std@@@Z ; GetOnlyPathName
PUBLIC	?GetOnlyPathName@@YAPBDPBD@Z			; GetOnlyPathName
PUBLIC	?GetLocalFileName@@YA_NPBD0PAV?$basic_string@DU?$char_traits@D@std@@V?$allocator@D@2@@std@@@Z ; GetLocalFileName
PUBLIC	?GetExceptionPathName@@YAXPBDAAV?$basic_string@DU?$char_traits@D@std@@V?$allocator@D@2@@std@@@Z ; GetExceptionPathName
PUBLIC	?GetWorkingFolder@@YAXAAV?$basic_string@DU?$char_traits@D@std@@V?$allocator@D@2@@std@@@Z ; GetWorkingFolder
PUBLIC	?StringLowers@@YAXPAD@Z				; StringLowers
PUBLIC	?StringPath@@YAXAAV?$basic_string@DU?$char_traits@D@std@@V?$allocator@D@2@@std@@@Z ; StringPath
PUBLIC	?StringPath@@YAXPAD@Z				; StringPath
PUBLIC	?StringPath@@YAXPBDPAD@Z			; StringPath
PUBLIC	?StringPath@@YAXPBDAAV?$basic_string@DU?$char_traits@D@std@@V?$allocator@D@2@@std@@@Z ; StringPath
PUBLIC	?PrintAsciiData@@YAXPBXH@Z			; PrintAsciiData
PUBLIC	?IsFile@@YA_NPBD@Z				; IsFile
PUBLIC	?IsGlobalFileName@@YA_NPBD@Z			; IsGlobalFileName
PUBLIC	?MIN@@YAHHH@Z					; MIN
PUBLIC	?MAX@@YAHHH@Z					; MAX
PUBLIC	?MINMAX@@YAHHHH@Z				; MINMAX
PUBLIC	?fMIN@@YAMMM@Z					; fMIN
PUBLIC	?fMAX@@YAMMM@Z					; fMAX
PUBLIC	?fMINMAX@@YAMMMM@Z				; fMINMAX
PUBLIC	?MyCreateDirectory@@YAXPBD@Z			; MyCreateDirectory
PUBLIC	?RemoveAllDirectory@@YAXPBD@Z			; RemoveAllDirectory
PUBLIC	?SplitLine@@YA_NPBD0PAV?$vector@V?$basic_string@DU?$char_traits@D@std@@V?$allocator@D@2@@std@@V?$allocator@V?$basic_string@DU?$char_traits@D@std@@V?$allocator@D@2@@std@@@2@@std@@@Z ; SplitLine
PUBLIC	?_getf@@YAPBDPBDZZ				; _getf
PUBLIC	?CommandLineToArgv@@YAPAPADPADPAH@Z		; CommandLineToArgv
PUBLIC	?StringExceptCharacter@@YAXPAV?$basic_string@DU?$char_traits@D@std@@V?$allocator@D@2@@std@@PBD@Z ; StringExceptCharacter
PUBLIC	?GetExcutedFileName@@YAXAAV?$basic_string@DU?$char_traits@D@std@@V?$allocator@D@2@@std@@@Z ; GetExcutedFileName
PUBLIC	??1CDirRemover@@UAE@XZ				; CDirRemover::~CDirRemover
PUBLIC	?OnFolder@CDirRemover@@UAE_NPBD00@Z		; CDirRemover::OnFolder
PUBLIC	?OnFile@CDirRemover@@UAE_NPBD0@Z		; CDirRemover::OnFile
PUBLIC	?RemoveAllDirectory@CDirRemover@@SAXXZ		; CDirRemover::RemoveAllDirectory
PUBLIC	??_GCDirRemover@@UAEPAXI@Z			; CDirRemover::`scalar deleting destructor'
PUBLIC	?deallocate@?$allocator@V?$basic_string@DU?$char_traits@D@std@@V?$allocator@D@2@@std@@@std@@QAEXQAV?$basic_string@DU?$char_traits@D@std@@V?$allocator@D@2@@2@I@Z ; std::allocator<std::basic_string<char,std::char_traits<char>,std::allocator<char> > >::deallocate
PUBLIC	??0?$deque@V?$basic_string@DU?$char_traits@D@std@@V?$allocator@D@2@@std@@V?$allocator@V?$basic_string@DU?$char_traits@D@std@@V?$allocator@D@2@@std@@@2@@std@@QAE@XZ ; std::deque<std::basic_string<char,std::char_traits<char>,std::allocator<char> >,std::allocator<std::basic_string<char,std::char_traits<char>,std::allocator<char> > > >::deque<std::basic_string<char,std::char_traits<char>,std::allocator<char> >,std::allocator<std::basic_string<char,std::char_traits<char>,std::allocator<char> > > >
PUBLIC	??1?$deque@V?$basic_string@DU?$char_traits@D@std@@V?$allocator@D@2@@std@@V?$allocator@V?$basic_string@DU?$char_traits@D@std@@V?$allocator@D@2@@std@@@2@@std@@QAE@XZ ; std::deque<std::basic_string<char,std::char_traits<char>,std::allocator<char> >,std::allocator<std::basic_string<char,std::char_traits<char>,std::allocator<char> > > >::~deque<std::basic_string<char,std::char_traits<char>,std::allocator<char> >,std::allocator<std::basic_string<char,std::char_traits<char>,std::allocator<char> > > >
PUBLIC	?begin@?$deque@V?$basic_string@DU?$char_traits@D@std@@V?$allocator@D@2@@std@@V?$allocator@V?$basic_string@DU?$char_traits@D@std@@V?$allocator@D@2@@std@@@2@@std@@QAE?AV?$_Deque_iterator@V?$_Deque_val@U?$_Deque_simple_types@V?$basic_string@DU?$char_traits@D@std@@V?$allocator@D@2@@std@@@std@@@std@@@2@XZ ; std::deque<std::basic_string<char,std::char_traits<char>,std::allocator<char> >,std::allocator<std::basic_string<char,std::char_traits<char>,std::allocator<char> > > >::begin
PUBLIC	?end@?$deque@V?$basic_string@DU?$char_traits@D@std@@V?$allocator@D@2@@std@@V?$allocator@V?$basic_string@DU?$char_traits@D@std@@V?$allocator@D@2@@std@@@2@@std@@QAE?AV?$_Deque_iterator@V?$_Deque_val@U?$_Deque_simple_types@V?$basic_string@DU?$char_traits@D@std@@V?$allocator@D@2@@std@@@std@@@std@@@2@XZ ; std::deque<std::basic_string<char,std::char_traits<char>,std::allocator<char> >,std::allocator<std::basic_string<char,std::char_traits<char>,std::allocator<char> > > >::end
PUBLIC	?pop_back@?$deque@V?$basic_string@DU?$char_traits@D@std@@V?$allocator@D@2@@std@@V?$allocator@V?$basic_string@DU?$char_traits@D@std@@V?$allocator@D@2@@std@@@2@@std@@QAEXXZ ; std::deque<std::basic_string<char,std::char_traits<char>,std::allocator<char> >,std::allocator<std::basic_string<char,std::char_traits<char>,std::allocator<char> > > >::pop_back
PUBLIC	?_Xlen@?$deque@V?$basic_string@DU?$char_traits@D@std@@V?$allocator@D@2@@std@@V?$allocator@V?$basic_string@DU?$char_traits@D@std@@V?$allocator@D@2@@std@@@2@@std@@ABEXXZ ; std::deque<std::basic_string<char,std::char_traits<char>,std::allocator<char> >,std::allocator<std::basic_string<char,std::char_traits<char>,std::allocator<char> > > >::_Xlen
PUBLIC	?_Growmap@?$deque@V?$basic_string@DU?$char_traits@D@std@@V?$allocator@D@2@@std@@V?$allocator@V?$basic_string@DU?$char_traits@D@std@@V?$allocator@D@2@@std@@@2@@std@@AAEXI@Z ; std::deque<std::basic_string<char,std::char_traits<char>,std::allocator<char> >,std::allocator<std::basic_string<char,std::char_traits<char>,std::allocator<char> > > >::_Growmap
PUBLIC	?_Tidy@?$deque@V?$basic_string@DU?$char_traits@D@std@@V?$allocator@D@2@@std@@V?$allocator@V?$basic_string@DU?$char_traits@D@std@@V?$allocator@D@2@@std@@@2@@std@@AAEXXZ ; std::deque<std::basic_string<char,std::char_traits<char>,std::allocator<char> >,std::allocator<std::basic_string<char,std::char_traits<char>,std::allocator<char> > > >::_Tidy
PUBLIC	??0?$_Deque_val@U?$_Deque_simple_types@V?$basic_string@DU?$char_traits@D@std@@V?$allocator@D@2@@std@@@std@@@std@@QAE@XZ ; std::_Deque_val<std::_Deque_simple_types<std::basic_string<char,std::char_traits<char>,std::allocator<char> > > >::_Deque_val<std::_Deque_simple_types<std::basic_string<char,std::char_traits<char>,std::allocator<char> > > >
PUBLIC	??D?$_Deque_const_iterator@V?$_Deque_val@U?$_Deque_simple_types@V?$basic_string@DU?$char_traits@D@std@@V?$allocator@D@2@@std@@@std@@@std@@@std@@QBEABV?$basic_string@DU?$char_traits@D@std@@V?$allocator@D@2@@1@XZ ; std::_Deque_const_iterator<std::_Deque_val<std::_Deque_simple_types<std::basic_string<char,std::char_traits<char>,std::allocator<char> > > > >::operator*
PUBLIC	??$?HDU?$char_traits@D@std@@V?$allocator@D@1@@std@@YA?AV?$basic_string@DU?$char_traits@D@std@@V?$allocator@D@2@@0@ABV10@0@Z ; std::operator+<char,std::char_traits<char>,std::allocator<char> >
PUBLIC	?_Reallocate_exactly@?$vector@V?$basic_string@DU?$char_traits@D@std@@V?$allocator@D@2@@std@@V?$allocator@V?$basic_string@DU?$char_traits@D@std@@V?$allocator@D@2@@std@@@2@@std@@AAEXI@Z ; std::vector<std::basic_string<char,std::char_traits<char>,std::allocator<char> >,std::allocator<std::basic_string<char,std::char_traits<char>,std::allocator<char> > > >::_Reallocate_exactly
PUBLIC	?reserve@?$vector@V?$basic_string@DU?$char_traits@D@std@@V?$allocator@D@2@@std@@V?$allocator@V?$basic_string@DU?$char_traits@D@std@@V?$allocator@D@2@@std@@@2@@std@@QAEXI@Z ; std::vector<std::basic_string<char,std::char_traits<char>,std::allocator<char> >,std::allocator<std::basic_string<char,std::char_traits<char>,std::allocator<char> > > >::reserve
PUBLIC	?clear@?$vector@V?$basic_string@DU?$char_traits@D@std@@V?$allocator@D@2@@std@@V?$allocator@V?$basic_string@DU?$char_traits@D@std@@V?$allocator@D@2@@std@@@2@@std@@QAEXXZ ; std::vector<std::basic_string<char,std::char_traits<char>,std::allocator<char> >,std::allocator<std::basic_string<char,std::char_traits<char>,std::allocator<char> > > >::clear
PUBLIC	?_Destroy@?$vector@V?$basic_string@DU?$char_traits@D@std@@V?$allocator@D@2@@std@@V?$allocator@V?$basic_string@DU?$char_traits@D@std@@V?$allocator@D@2@@std@@@2@@std@@AAEXPAV?$basic_string@DU?$char_traits@D@std@@V?$allocator@D@2@@2@0@Z ; std::vector<std::basic_string<char,std::char_traits<char>,std::allocator<char> >,std::allocator<std::basic_string<char,std::char_traits<char>,std::allocator<char> > > >::_Destroy
PUBLIC	?_Calculate_growth@?$vector@V?$basic_string@DU?$char_traits@D@std@@V?$allocator@D@2@@std@@V?$allocator@V?$basic_string@DU?$char_traits@D@std@@V?$allocator@D@2@@std@@@2@@std@@ABEII@Z ; std::vector<std::basic_string<char,std::char_traits<char>,std::allocator<char> >,std::allocator<std::basic_string<char,std::char_traits<char>,std::allocator<char> > > >::_Calculate_growth
PUBLIC	?_Change_array@?$vector@V?$basic_string@DU?$char_traits@D@std@@V?$allocator@D@2@@std@@V?$allocator@V?$basic_string@DU?$char_traits@D@std@@V?$allocator@D@2@@std@@@2@@std@@AAEXQAV?$basic_string@DU?$char_traits@D@std@@V?$allocator@D@2@@2@II@Z ; std::vector<std::basic_string<char,std::char_traits<char>,std::allocator<char> >,std::allocator<std::basic_string<char,std::char_traits<char>,std::allocator<char> > > >::_Change_array
PUBLIC	?_Xlength@?$vector@V?$basic_string@DU?$char_traits@D@std@@V?$allocator@D@2@@std@@V?$allocator@V?$basic_string@DU?$char_traits@D@std@@V?$allocator@D@2@@std@@@2@@std@@CAXXZ ; std::vector<std::basic_string<char,std::char_traits<char>,std::allocator<char> >,std::allocator<std::basic_string<char,std::char_traits<char>,std::allocator<char> > > >::_Xlength
PUBLIC	?_Getal@?$vector@V?$basic_string@DU?$char_traits@D@std@@V?$allocator@D@2@@std@@V?$allocator@V?$basic_string@DU?$char_traits@D@std@@V?$allocator@D@2@@std@@@2@@std@@AAEAAV?$allocator@V?$basic_string@DU?$char_traits@D@std@@V?$allocator@D@2@@std@@@2@XZ ; std::vector<std::basic_string<char,std::char_traits<char>,std::allocator<char> >,std::allocator<std::basic_string<char,std::char_traits<char>,std::allocator<char> > > >::_Getal
PUBLIC	??$emplace_back@V?$basic_string@DU?$char_traits@D@std@@V?$allocator@D@2@@std@@@?$vector@V?$basic_string@DU?$char_traits@D@std@@V?$allocator@D@2@@std@@V?$allocator@V?$basic_string@DU?$char_traits@D@std@@V?$allocator@D@2@@std@@@2@@std@@QAEX$$QAV?$basic_string@DU?$char_traits@D@std@@V?$allocator@D@2@@1@@Z ; std::vector<std::basic_string<char,std::char_traits<char>,std::allocator<char> >,std::allocator<std::basic_string<char,std::char_traits<char>,std::allocator<char> > > >::emplace_back<std::basic_string<char,std::char_traits<char>,std::allocator<char> > >
PUBLIC	??$_Emplace_back_with_unused_capacity@V?$basic_string@DU?$char_traits@D@std@@V?$allocator@D@2@@std@@@?$vector@V?$basic_string@DU?$char_traits@D@std@@V?$allocator@D@2@@std@@V?$allocator@V?$basic_string@DU?$char_traits@D@std@@V?$allocator@D@2@@std@@@2@@std@@AAEX$$QAV?$basic_string@DU?$char_traits@D@std@@V?$allocator@D@2@@1@@Z ; std::vector<std::basic_string<char,std::char_traits<char>,std::allocator<char> >,std::allocator<std::basic_string<char,std::char_traits<char>,std::allocator<char> > > >::_Emplace_back_with_unused_capacity<std::basic_string<char,std::char_traits<char>,std::allocator<char> > >
PUBLIC	??$_Emplace_reallocate@V?$basic_string@DU?$char_traits@D@std@@V?$allocator@D@2@@std@@@?$vector@V?$basic_string@DU?$char_traits@D@std@@V?$allocator@D@2@@std@@V?$allocator@V?$basic_string@DU?$char_traits@D@std@@V?$allocator@D@2@@std@@@2@@std@@QAEPAV?$basic_string@DU?$char_traits@D@std@@V?$allocator@D@2@@1@QAV21@$$QAV21@@Z ; std::vector<std::basic_string<char,std::char_traits<char>,std::allocator<char> >,std::allocator<std::basic_string<char,std::char_traits<char>,std::allocator<char> > > >::_Emplace_reallocate<std::basic_string<char,std::char_traits<char>,std::allocator<char> > >
PUBLIC	??$_Emplace_back_internal@ABV?$basic_string@DU?$char_traits@D@std@@V?$allocator@D@2@@std@@@?$deque@V?$basic_string@DU?$char_traits@D@std@@V?$allocator@D@2@@std@@V?$allocator@V?$basic_string@DU?$char_traits@D@std@@V?$allocator@D@2@@std@@@2@@std@@AAEXABV?$basic_string@DU?$char_traits@D@std@@V?$allocator@D@2@@1@@Z ; std::deque<std::basic_string<char,std::char_traits<char>,std::allocator<char> >,std::allocator<std::basic_string<char,std::char_traits<char>,std::allocator<char> > > >::_Emplace_back_internal<std::basic_string<char,std::char_traits<char>,std::allocator<char> > const &>
PUBLIC	??$_Delete_plain_internal@V?$allocator@U_Container_proxy@std@@@std@@@std@@YAXAAV?$allocator@U_Container_proxy@std@@@0@QAU_Container_proxy@0@@Z ; std::_Delete_plain_internal<std::allocator<std::_Container_proxy> >
PUBLIC	??$_Alloc_proxy@V?$allocator@U_Container_proxy@std@@@std@@@_Container_base12@std@@QAEX$$QAV?$allocator@U_Container_proxy@std@@@1@@Z ; std::_Container_base12::_Alloc_proxy<std::allocator<std::_Container_proxy> >
PUBLIC	??$_Traits_find_first_not_of@U?$char_traits@D@std@@@std@@YAIQBDII0IU?$integral_constant@_N$00@0@@Z ; std::_Traits_find_first_not_of<std::char_traits<char> >
PUBLIC	??$_Traits_find_first_of@U?$char_traits@D@std@@@std@@YAIQBDII0IU?$integral_constant@_N$00@0@@Z ; std::_Traits_find_first_of<std::char_traits<char> >
PUBLIC	??$_Reallocate_grow_by@V<lambda_67d87d4aa1269033985980465fd1d824>@@$$V@?$basic_string@DU?$char_traits@D@std@@V?$allocator@D@2@@std@@AAEAAV01@IV<lambda_67d87d4aa1269033985980465fd1d824>@@@Z ; std::basic_string<char,std::char_traits<char>,std::allocator<char> >::_Reallocate_grow_by<<lambda_67d87d4aa1269033985980465fd1d824> >
PUBLIC	??$_Reallocate_grow_by@V<lambda_ab246b20b9526e2ef7792587e4298a77>@@PBDI@?$basic_string@DU?$char_traits@D@std@@V?$allocator@D@2@@std@@AAEAAV01@IV<lambda_ab246b20b9526e2ef7792587e4298a77>@@PBDI@Z ; std::basic_string<char,std::char_traits<char>,std::allocator<char> >::_Reallocate_grow_by<<lambda_ab246b20b9526e2ef7792587e4298a77>,char const *,unsigned int>
PUBLIC	??$?0$$V@?$_Compressed_pair@V?$allocator@D@std@@V?$_String_val@U?$_Simple_types@D@std@@@2@$00@std@@QAE@U_Zero_then_variadic_args_t@1@@Z ; std::_Compressed_pair<std::allocator<char>,std::_String_val<std::_Simple_types<char> >,1>::_Compressed_pair<std::allocator<char>,std::_String_val<std::_Simple_types<char> >,1><>
PUBLIC	??$_Destroy_range@V?$allocator@V?$basic_string@DU?$char_traits@D@std@@V?$allocator@D@2@@std@@@std@@@std@@YAXPAV?$basic_string@DU?$char_traits@D@std@@V?$allocator@D@2@@0@QAV10@AAV?$allocator@V?$basic_string@DU?$char_traits@D@std@@V?$allocator@D@2@@std@@@0@@Z ; std::_Destroy_range<std::allocator<std::basic_string<char,std::char_traits<char>,std::allocator<char> > > >
PUBLIC	??$_Destroy_in_place@PAV?$basic_string@DU?$char_traits@D@std@@V?$allocator@D@2@@std@@@std@@YAXAAPAV?$basic_string@DU?$char_traits@D@std@@V?$allocator@D@2@@0@@Z ; std::_Destroy_in_place<std::basic_string<char,std::char_traits<char>,std::allocator<char> > *>
PUBLIC	??$_Destroy_in_place@PAD@std@@YAXAAPAD@Z	; std::_Destroy_in_place<char *>
PUBLIC	??$_Reallocate_grow_by@V<lambda_15711c68e099a15a58f4d77303cb286d>@@D@?$basic_string@DU?$char_traits@D@std@@V?$allocator@D@2@@std@@AAEAAV01@IV<lambda_15711c68e099a15a58f4d77303cb286d>@@D@Z ; std::basic_string<char,std::char_traits<char>,std::allocator<char> >::_Reallocate_grow_by<<lambda_15711c68e099a15a58f4d77303cb286d>,char>
PUBLIC	??$_Reallocate_for@V<lambda_9366063389c5f42a00a5088cf24e69de>@@PBD@?$basic_string@DU?$char_traits@D@std@@V?$allocator@D@2@@std@@AAEAAV01@IV<lambda_9366063389c5f42a00a5088cf24e69de>@@PBD@Z ; std::basic_string<char,std::char_traits<char>,std::allocator<char> >::_Reallocate_for<<lambda_9366063389c5f42a00a5088cf24e69de>,char const *>
PUBLIC	??$_Reallocate_grow_by@V<lambda_c1b8c41cb4019640539cfd828748c4d4>@@ID@?$basic_string@DU?$char_traits@D@std@@V?$allocator@D@2@@std@@AAEAAV01@IV<lambda_c1b8c41cb4019640539cfd828748c4d4>@@ID@Z ; std::basic_string<char,std::char_traits<char>,std::allocator<char> >::_Reallocate_grow_by<<lambda_c1b8c41cb4019640539cfd828748c4d4>,unsigned int,char>
PUBLIC	??$_Construct_in_place@PADABQAD@std@@YAXAAPADABQAD@Z ; std::_Construct_in_place<char *,char * const &>
PUBLIC	??$_Pocma@V?$allocator@D@std@@@std@@YAXAAV?$allocator@D@0@0@Z ; std::_Pocma<std::allocator<char> >
PUBLIC	??$_Deallocate@$07$0A@@std@@YAXPAXI@Z		; std::_Deallocate<8,0>
PUBLIC	??$_Allocate@$07U_Default_allocate_traits@std@@$0A@@std@@YAPAXI@Z ; std::_Allocate<8,std::_Default_allocate_traits,0>
PUBLIC	??$_Uninitialized_move@PAV?$basic_string@DU?$char_traits@D@std@@V?$allocator@D@2@@std@@V?$allocator@V?$basic_string@DU?$char_traits@D@std@@V?$allocator@D@2@@std@@@2@@std@@YAPAV?$basic_string@DU?$char_traits@D@std@@V?$allocator@D@2@@0@QAV10@0PAV10@AAV?$allocator@V?$basic_string@DU?$char_traits@D@std@@V?$allocator@D@2@@std@@@0@@Z ; std::_Uninitialized_move<std::basic_string<char,std::char_traits<char>,std::allocator<char> > *,std::allocator<std::basic_string<char,std::char_traits<char>,std::allocator<char> > > >
PUBLIC	??$_Deallocate_plain@V?$allocator@U_Container_proxy@std@@@std@@@std@@YAXAAV?$allocator@U_Container_proxy@std@@@0@QAU_Container_proxy@0@@Z ; std::_Deallocate_plain<std::allocator<std::_Container_proxy> >
PUBLIC	??$_Construct_in_place@U_Container_proxy@std@@PAU_Container_base12@2@@std@@YAXAAU_Container_proxy@0@$$QAPAU_Container_base12@0@@Z ; std::_Construct_in_place<std::_Container_proxy,std::_Container_base12 *>
PUBLIC	??$_Allocate_manually_vector_aligned@U_Default_allocate_traits@std@@@std@@YAPAXI@Z ; std::_Allocate_manually_vector_aligned<std::_Default_allocate_traits>
PUBLIC	??1?$_Uninitialized_backout_al@V?$allocator@V?$basic_string@DU?$char_traits@D@std@@V?$allocator@D@2@@std@@@std@@@std@@QAE@XZ ; std::_Uninitialized_backout_al<std::allocator<std::basic_string<char,std::char_traits<char>,std::allocator<char> > > >::~_Uninitialized_backout_al<std::allocator<std::basic_string<char,std::char_traits<char>,std::allocator<char> > > >
PUBLIC	??$_Emplace_back@V?$basic_string@DU?$char_traits@D@std@@V?$allocator@D@2@@std@@@?$_Uninitialized_backout_al@V?$allocator@V?$basic_string@DU?$char_traits@D@std@@V?$allocator@D@2@@std@@@std@@@std@@QAEX$$QAV?$basic_string@DU?$char_traits@D@std@@V?$allocator@D@2@@1@@Z ; std::_Uninitialized_backout_al<std::allocator<std::basic_string<char,std::char_traits<char>,std::allocator<char> > > >::_Emplace_back<std::basic_string<char,std::char_traits<char>,std::allocator<char> > >
PUBLIC	??$uninitialized_copy@PAPAV?$basic_string@DU?$char_traits@D@std@@V?$allocator@D@2@@std@@PAPAV12@@std@@YAPAPAV?$basic_string@DU?$char_traits@D@std@@V?$allocator@D@2@@0@QAPAV10@0PAPAV10@@Z ; std::uninitialized_copy<std::basic_string<char,std::char_traits<char>,std::allocator<char> > * *,std::basic_string<char,std::char_traits<char>,std::allocator<char> > * *>
PUBLIC	??$_Uninitialized_value_construct_n_unchecked1@PAPAV?$basic_string@DU?$char_traits@D@std@@V?$allocator@D@2@@std@@I@std@@YAPAPAV?$basic_string@DU?$char_traits@D@std@@V?$allocator@D@2@@0@PAPAV10@I@Z ; std::_Uninitialized_value_construct_n_unchecked1<std::basic_string<char,std::char_traits<char>,std::allocator<char> > * *,unsigned int>
PUBLIC	??$_Destroy_range@PAPAV?$basic_string@DU?$char_traits@D@std@@V?$allocator@D@2@@std@@PAPAV12@@std@@YAXPAPAV?$basic_string@DU?$char_traits@D@std@@V?$allocator@D@2@@0@QAPAV10@@Z ; std::_Destroy_range<std::basic_string<char,std::char_traits<char>,std::allocator<char> > * *,std::basic_string<char,std::char_traits<char>,std::allocator<char> > * *>
PUBLIC	??$_Copy_memmove@PAPAV?$basic_string@DU?$char_traits@D@std@@V?$allocator@D@2@@std@@PAPAV12@@std@@YAPAPAV?$basic_string@DU?$char_traits@D@std@@V?$allocator@D@2@@0@PAPAV10@00@Z ; std::_Copy_memmove<std::basic_string<char,std::char_traits<char>,std::allocator<char> > * *,std::basic_string<char,std::char_traits<char>,std::allocator<char> > * *>
PUBLIC	??$_Zero_range@PAPAV?$basic_string@DU?$char_traits@D@std@@V?$allocator@D@2@@std@@@std@@YAPAPAV?$basic_string@DU?$char_traits@D@std@@V?$allocator@D@2@@0@QAPAV10@0@Z ; std::_Zero_range<std::basic_string<char,std::char_traits<char>,std::allocator<char> > * *>
PUBLIC	?_OptionsStorage@?1??__local_stdio_printf_options@@9@4_KA ; `__local_stdio_printf_options'::`2'::_OptionsStorage
PUBLIC	??_7exception@std@@6B@				; std::exception::`vftable'
PUBLIC	??_C@_0BC@EOODALEL@Unknown?5exception@		; `string'
PUBLIC	??_7bad_alloc@std@@6B@				; std::bad_alloc::`vftable'
PUBLIC	??_7bad_array_new_length@std@@6B@		; std::bad_array_new_length::`vftable'
PUBLIC	??_C@_0BF@KINCDENJ@bad?5array?5new?5length@	; `string'
PUBLIC	__TI3?AVbad_array_new_length@std@@
PUBLIC	__CTA3?AVbad_array_new_length@std@@
PUBLIC	??_R0?AVbad_array_new_length@std@@@8		; std::bad_array_new_length `RTTI Type Descriptor'
PUBLIC	__CT??_R0?AVbad_array_new_length@std@@@8??0bad_array_new_length@std@@QAE@ABV01@@Z12
PUBLIC	??_R0?AVbad_alloc@std@@@8			; std::bad_alloc `RTTI Type Descriptor'
PUBLIC	__CT??_R0?AVbad_alloc@std@@@8??0bad_alloc@std@@QAE@ABV01@@Z12
PUBLIC	??_R0?AVexception@std@@@8			; std::exception `RTTI Type Descriptor'
PUBLIC	__CT??_R0?AVexception@std@@@8??0exception@std@@QAE@ABV01@@Z12
PUBLIC	??_C@_0BA@JFNIOLAK@string?5too?5long@		; `string'
PUBLIC	??_C@_03NGHAOOHL@etb@				; `string'
PUBLIC	??_C@_02GMHACPFF@?$CFu@				; `string'
PUBLIC	??_C@_00CNPNBAHC@@				; `string'
PUBLIC	??_C@_01LOCGONAA@?$AA@				; `string'
PUBLIC	??_C@_01KMDKNFGN@?1@				; `string'
PUBLIC	??_C@_0EE@CAMDODON@?9?9?9?9?9?9?9?9?9?9?9?9?9?9?9?9?9?9?9?9?9?9?9?9?9?9?9?9?9?9?9@ ; `string'
PUBLIC	??_C@_03NDEAONJP@?5?5?5@			; `string'
PUBLIC	??_C@_05CNDJFPDP@?$CF02x?5@			; `string'
PUBLIC	??_C@_02MINBJDHL@?$HM?5@			; `string'
PUBLIC	??_C@_01CLKCMJKC@?5@				; `string'
PUBLIC	??_C@_02HAOIJKIC@?$CFc@				; `string'
PUBLIC	??_C@_01EEMJAFIK@?6@				; `string'
PUBLIC	?ms_strDirectoryDeque@CDirRemover@@1V?$deque@V?$basic_string@DU?$char_traits@D@std@@V?$allocator@D@2@@std@@V?$allocator@V?$basic_string@DU?$char_traits@D@std@@V?$allocator@D@2@@std@@@2@@std@@A ; CDirRemover::ms_strDirectoryDeque
PUBLIC	??_7CDirRemover@@6B@				; CDirRemover::`vftable'
PUBLIC	??_C@_03EMIMMIHL@?$CK?4?$CK@			; `string'
PUBLIC	??_C@_01BJJEKLCA@?$CC@				; `string'
PUBLIC	??_C@_0BA@FOIKENOD@vector?5too?5long@		; `string'
PUBLIC	??_C@_0BI@CFPLBAOH@invalid?5string?5position@	; `string'
PUBLIC	??_C@_0BC@KBDMBKEH@deque?$DMT?$DO?5too?5long@	; `string'
PUBLIC	??_R4exception@std@@6B@				; std::exception::`RTTI Complete Object Locator'
PUBLIC	??_R3exception@std@@8				; std::exception::`RTTI Class Hierarchy Descriptor'
PUBLIC	??_R2exception@std@@8				; std::exception::`RTTI Base Class Array'
PUBLIC	??_R1A@?0A@EA@exception@std@@8			; std::exception::`RTTI Base Class Descriptor at (0,-1,0,64)'
PUBLIC	??_R4bad_alloc@std@@6B@				; std::bad_alloc::`RTTI Complete Object Locator'
PUBLIC	??_R3bad_alloc@std@@8				; std::bad_alloc::`RTTI Class Hierarchy Descriptor'
PUBLIC	??_R2bad_alloc@std@@8				; std::bad_alloc::`RTTI Base Class Array'
PUBLIC	??_R1A@?0A@EA@bad_alloc@std@@8			; std::bad_alloc::`RTTI Base Class Descriptor at (0,-1,0,64)'
PUBLIC	??_R4bad_array_new_length@std@@6B@		; std::bad_array_new_length::`RTTI Complete Object Locator'
PUBLIC	??_R3bad_array_new_length@std@@8		; std::bad_array_new_length::`RTTI Class Hierarchy Descriptor'
PUBLIC	??_R2bad_array_new_length@std@@8		; std::bad_array_new_length::`RTTI Base Class Array'
PUBLIC	??_R1A@?0A@EA@bad_array_new_length@std@@8	; std::bad_array_new_length::`RTTI Base Class Descriptor at (0,-1,0,64)'
PUBLIC	??_R4CDirRemover@@6B@				; CDirRemover::`RTTI Complete Object Locator'
PUBLIC	??_R0?AVCDirRemover@@@8				; CDirRemover `RTTI Type Descriptor'
PUBLIC	??_R3CDirRemover@@8				; CDirRemover::`RTTI Class Hierarchy Descriptor'
PUBLIC	??_R2CDirRemover@@8				; CDirRemover::`RTTI Base Class Array'
PUBLIC	??_R1A@?0A@EA@CDirRemover@@8			; CDirRemover::`RTTI Base Class Descriptor at (0,-1,0,64)'
PUBLIC	??_R1A@?0A@EA@CDir@@8				; CDir::`RTTI Base Class Descriptor at (0,-1,0,64)'
PUBLIC	??_R0?AVCDir@@@8				; CDir `RTTI Type Descriptor'
PUBLIC	??_R3CDir@@8					; CDir::`RTTI Class Hierarchy Descriptor'
PUBLIC	??_R2CDir@@8					; CDir::`RTTI Base Class Array'
EXTRN	??2@YAPAXI@Z:PROC				; operator new
EXTRN	??3@YAXPAXI@Z:PROC				; operator delete
EXTRN	??_U@YAPAXI@Z:PROC				; operator new[]
EXTRN	??_V@YAXPAX@Z:PROC				; operator delete[]
EXTRN	_atexit:PROC
EXTRN	___report_rangecheckfailure:PROC
EXTRN	__Init_thread_header:PROC
EXTRN	__Init_thread_footer:PROC
EXTRN	__invalid_parameter_noinfo_noreturn:PROC
EXTRN	_isprint:PROC
EXTRN	_memchr:PROC
EXTRN	_memcpy:PROC
EXTRN	_memmove:PROC
EXTRN	_memset:PROC
EXTRN	_strchr:PROC
EXTRN	_strcat:PROC
EXTRN	_strcpy:PROC
EXTRN	_strlen:PROC
EXTRN	_strncpy:PROC
EXTRN	__imp__CreateDirectoryA@8:PROC
EXTRN	__imp__DeleteFileA@4:PROC
EXTRN	__imp__RemoveDirectoryA@4:PROC
EXTRN	__imp__GetTempPathA@8:PROC
EXTRN	__imp__GetTempFileNameA@16:PROC
EXTRN	__imp__GetModuleFileNameA@12:PROC
EXTRN	__imp__GlobalAlloc@8:PROC
EXTRN	___acrt_iob_func:PROC
EXTRN	___stdio_common_vfprintf:PROC
EXTRN	___stdio_common_vsprintf:PROC
EXTRN	__ecvt:PROC
EXTRN	___std_exception_copy:PROC
EXTRN	___std_exception_destroy:PROC
EXTRN	??_Eexception@std@@UAEPAXI@Z:PROC		; std::exception::`vector deleting destructor'
EXTRN	??_Ebad_alloc@std@@UAEPAXI@Z:PROC		; std::bad_alloc::`vector deleting destructor'
EXTRN	??_Ebad_array_new_length@std@@UAEPAXI@Z:PROC	; std::bad_array_new_length::`vector deleting destructor'
EXTRN	?_Xlength_error@std@@YAXPBD@Z:PROC		; std::_Xlength_error
EXTRN	?_Xout_of_range@std@@YAXPBD@Z:PROC		; std::_Xout_of_range
EXTRN	__getcwd:PROC
EXTRN	__access:PROC
EXTRN	__chmod:PROC
EXTRN	??0CDir@@QAE@XZ:PROC				; CDir::CDir
EXTRN	??1CDir@@UAE@XZ:PROC				; CDir::~CDir
EXTRN	?Create@CDir@@QAE_NPBD0H@Z:PROC			; CDir::Create
EXTRN	?korean_tolower@@YADD@Z:PROC			; korean_tolower
EXTRN	??_ECDirRemover@@UAEPAXI@Z:PROC			; CDirRemover::`vector deleting destructor'
EXTRN	@__security_check_cookie@4:PROC
EXTRN	__CxxThrowException@8:PROC
EXTRN	___CxxFrameHandler3:PROC
EXTRN	_memset:PROC
EXTRN	__Init_thread_epoch:DWORD
EXTRN	??_7type_info@@6B@:QWORD			; type_info::`vftable'
EXTRN	___security_cookie:DWORD
EXTRN	__fltused:DWORD
EXTRN	__tls_array:DWORD
EXTRN	__tls_index:DWORD
;	COMDAT ?_OptionsStorage@?1??__local_stdio_printf_options@@9@4_KA
_BSS	SEGMENT
?_OptionsStorage@?1??__local_stdio_printf_options@@9@4_KA DQ 01H DUP (?) ; `__local_stdio_printf_options'::`2'::_OptionsStorage
_BSS	ENDS
;	COMDAT ?szTempName@?1??CreateTempFileName@@YAPBDPBD@Z@4PADA
_BSS	SEGMENT
?szTempName@?1??CreateTempFileName@@YAPBDPBD@Z@4PADA DB 0105H DUP (?) ; `CreateTempFileName'::`2'::szTempName
_BSS	ENDS
;	COMDAT ?strPathName@?1??GetOnlyPathName@@YAPBDPBD@Z@4V?$basic_string@DU?$char_traits@D@std@@V?$allocator@D@2@@std@@A
_BSS	SEGMENT
?strPathName@?1??GetOnlyPathName@@YAPBDPBD@Z@4V?$basic_string@DU?$char_traits@D@std@@V?$allocator@D@2@@std@@A DB 018H DUP (?) ; `GetOnlyPathName'::`2'::strPathName
_BSS	ENDS
;	COMDAT ?$TSS0@?1??GetOnlyPathName@@YAPBDPBD@Z@4HA
_BSS	SEGMENT
?$TSS0@?1??GetOnlyPathName@@YAPBDPBD@Z@4HA DD 01H DUP (?) ; `GetOnlyPathName'::`2'::$TSS0
_BSS	ENDS
_BSS	SEGMENT
?ms_strDirectoryDeque@CDirRemover@@1V?$deque@V?$basic_string@DU?$char_traits@D@std@@V?$allocator@D@2@@std@@V?$allocator@V?$basic_string@DU?$char_traits@D@std@@V?$allocator@D@2@@std@@@2@@std@@A DB 014H DUP (?) ; CDirRemover::ms_strDirectoryDeque
_BSS	ENDS
;	COMDAT ?szBuf@?1??_getf@@YAPBDPBDZZ@4PADA
_BSS	SEGMENT
?szBuf@?1??_getf@@YAPBDPBDZZ@4PADA DB 0100H DUP (?)	; `_getf'::`2'::szBuf
_BSS	ENDS
CRT$XCU	SEGMENT
??ms_strDirectoryDeque$initializer$@CDirRemover@@1P6AXXZA@@3P6AXXZA DD FLAT:??__E?ms_strDirectoryDeque@CDirRemover@@1V?$deque@V?$basic_string@DU?$char_traits@D@std@@V?$allocator@D@2@@std@@V?$allocator@V?$basic_string@DU?$char_traits@D@std@@V?$allocator@D@2@@std@@@2@@std@@A@@YAXXZ ; ??ms_strDirectoryDeque$initializer$@CDirRemover@@1P6AXXZA@@3P6AXXZA
CRT$XCU	ENDS
;	COMDAT ??_R2CDir@@8
rdata$r	SEGMENT
??_R2CDir@@8 DD	FLAT:??_R1A@?0A@EA@CDir@@8		; CDir::`RTTI Base Class Array'
rdata$r	ENDS
;	COMDAT ??_R3CDir@@8
rdata$r	SEGMENT
??_R3CDir@@8 DD	00H					; CDir::`RTTI Class Hierarchy Descriptor'
	DD	00H
	DD	01H
	DD	FLAT:??_R2CDir@@8
rdata$r	ENDS
;	COMDAT ??_R0?AVCDir@@@8
data$rs	SEGMENT
??_R0?AVCDir@@@8 DD FLAT:??_7type_info@@6B@		; CDir `RTTI Type Descriptor'
	DD	00H
	DB	'.?AVCDir@@', 00H
data$rs	ENDS
;	COMDAT ??_R1A@?0A@EA@CDir@@8
rdata$r	SEGMENT
??_R1A@?0A@EA@CDir@@8 DD FLAT:??_R0?AVCDir@@@8		; CDir::`RTTI Base Class Descriptor at (0,-1,0,64)'
	DD	00H
	DD	00H
	DD	0ffffffffH
	DD	00H
	DD	040H
	DD	FLAT:??_R3CDir@@8
rdata$r	ENDS
;	COMDAT ??_R1A@?0A@EA@CDirRemover@@8
rdata$r	SEGMENT
??_R1A@?0A@EA@CDirRemover@@8 DD FLAT:??_R0?AVCDirRemover@@@8 ; CDirRemover::`RTTI Base Class Descriptor at (0,-1,0,64)'
	DD	01H
	DD	00H
	DD	0ffffffffH
	DD	00H
	DD	040H
	DD	FLAT:??_R3CDirRemover@@8
rdata$r	ENDS
;	COMDAT ??_R2CDirRemover@@8
rdata$r	SEGMENT
??_R2CDirRemover@@8 DD FLAT:??_R1A@?0A@EA@CDirRemover@@8 ; CDirRemover::`RTTI Base Class Array'
	DD	FLAT:??_R1A@?0A@EA@CDir@@8
rdata$r	ENDS
;	COMDAT ??_R3CDirRemover@@8
rdata$r	SEGMENT
??_R3CDirRemover@@8 DD 00H				; CDirRemover::`RTTI Class Hierarchy Descriptor'
	DD	00H
	DD	02H
	DD	FLAT:??_R2CDirRemover@@8
rdata$r	ENDS
;	COMDAT ??_R0?AVCDirRemover@@@8
data$rs	SEGMENT
??_R0?AVCDirRemover@@@8 DD FLAT:??_7type_info@@6B@	; CDirRemover `RTTI Type Descriptor'
	DD	00H
	DB	'.?AVCDirRemover@@', 00H
data$rs	ENDS
;	COMDAT ??_R4CDirRemover@@6B@
rdata$r	SEGMENT
??_R4CDirRemover@@6B@ DD 00H				; CDirRemover::`RTTI Complete Object Locator'
	DD	00H
	DD	00H
	DD	FLAT:??_R0?AVCDirRemover@@@8
	DD	FLAT:??_R3CDirRemover@@8
rdata$r	ENDS
;	COMDAT ??_R1A@?0A@EA@bad_array_new_length@std@@8
rdata$r	SEGMENT
??_R1A@?0A@EA@bad_array_new_length@std@@8 DD FLAT:??_R0?AVbad_array_new_length@std@@@8 ; std::bad_array_new_length::`RTTI Base Class Descriptor at (0,-1,0,64)'
	DD	02H
	DD	00H
	DD	0ffffffffH
	DD	00H
	DD	040H
	DD	FLAT:??_R3bad_array_new_length@std@@8
rdata$r	ENDS
;	COMDAT ??_R2bad_array_new_length@std@@8
rdata$r	SEGMENT
??_R2bad_array_new_length@std@@8 DD FLAT:??_R1A@?0A@EA@bad_array_new_length@std@@8 ; std::bad_array_new_length::`RTTI Base Class Array'
	DD	FLAT:??_R1A@?0A@EA@bad_alloc@std@@8
	DD	FLAT:??_R1A@?0A@EA@exception@std@@8
rdata$r	ENDS
;	COMDAT ??_R3bad_array_new_length@std@@8
rdata$r	SEGMENT
??_R3bad_array_new_length@std@@8 DD 00H			; std::bad_array_new_length::`RTTI Class Hierarchy Descriptor'
	DD	00H
	DD	03H
	DD	FLAT:??_R2bad_array_new_length@std@@8
rdata$r	ENDS
;	COMDAT ??_R4bad_array_new_length@std@@6B@
rdata$r	SEGMENT
??_R4bad_array_new_length@std@@6B@ DD 00H		; std::bad_array_new_length::`RTTI Complete Object Locator'
	DD	00H
	DD	00H
	DD	FLAT:??_R0?AVbad_array_new_length@std@@@8
	DD	FLAT:??_R3bad_array_new_length@std@@8
rdata$r	ENDS
;	COMDAT ??_R1A@?0A@EA@bad_alloc@std@@8
rdata$r	SEGMENT
??_R1A@?0A@EA@bad_alloc@std@@8 DD FLAT:??_R0?AVbad_alloc@std@@@8 ; std::bad_alloc::`RTTI Base Class Descriptor at (0,-1,0,64)'
	DD	01H
	DD	00H
	DD	0ffffffffH
	DD	00H
	DD	040H
	DD	FLAT:??_R3bad_alloc@std@@8
rdata$r	ENDS
;	COMDAT ??_R2bad_alloc@std@@8
rdata$r	SEGMENT
??_R2bad_alloc@std@@8 DD FLAT:??_R1A@?0A@EA@bad_alloc@std@@8 ; std::bad_alloc::`RTTI Base Class Array'
	DD	FLAT:??_R1A@?0A@EA@exception@std@@8
rdata$r	ENDS
;	COMDAT ??_R3bad_alloc@std@@8
rdata$r	SEGMENT
??_R3bad_alloc@std@@8 DD 00H				; std::bad_alloc::`RTTI Class Hierarchy Descriptor'
	DD	00H
	DD	02H
	DD	FLAT:??_R2bad_alloc@std@@8
rdata$r	ENDS
;	COMDAT ??_R4bad_alloc@std@@6B@
rdata$r	SEGMENT
??_R4bad_alloc@std@@6B@ DD 00H				; std::bad_alloc::`RTTI Complete Object Locator'
	DD	00H
	DD	00H
	DD	FLAT:??_R0?AVbad_alloc@std@@@8
	DD	FLAT:??_R3bad_alloc@std@@8
rdata$r	ENDS
;	COMDAT ??_R1A@?0A@EA@exception@std@@8
rdata$r	SEGMENT
??_R1A@?0A@EA@exception@std@@8 DD FLAT:??_R0?AVexception@std@@@8 ; std::exception::`RTTI Base Class Descriptor at (0,-1,0,64)'
	DD	00H
	DD	00H
	DD	0ffffffffH
	DD	00H
	DD	040H
	DD	FLAT:??_R3exception@std@@8
rdata$r	ENDS
;	COMDAT ??_R2exception@std@@8
rdata$r	SEGMENT
??_R2exception@std@@8 DD FLAT:??_R1A@?0A@EA@exception@std@@8 ; std::exception::`RTTI Base Class Array'
rdata$r	ENDS
;	COMDAT ??_R3exception@std@@8
rdata$r	SEGMENT
??_R3exception@std@@8 DD 00H				; std::exception::`RTTI Class Hierarchy Descriptor'
	DD	00H
	DD	01H
	DD	FLAT:??_R2exception@std@@8
rdata$r	ENDS
;	COMDAT ??_R4exception@std@@6B@
rdata$r	SEGMENT
??_R4exception@std@@6B@ DD 00H				; std::exception::`RTTI Complete Object Locator'
	DD	00H
	DD	00H
	DD	FLAT:??_R0?AVexception@std@@@8
	DD	FLAT:??_R3exception@std@@8
rdata$r	ENDS
;	COMDAT ??_C@_0BC@KBDMBKEH@deque?$DMT?$DO?5too?5long@
CONST	SEGMENT
??_C@_0BC@KBDMBKEH@deque?$DMT?$DO?5too?5long@ DB 'deque<T> too long', 00H ; `string'
CONST	ENDS
;	COMDAT ??_C@_0BI@CFPLBAOH@invalid?5string?5position@
CONST	SEGMENT
??_C@_0BI@CFPLBAOH@invalid?5string?5position@ DB 'invalid string position'
	DB	00H						; `string'
CONST	ENDS
;	COMDAT ??_C@_0BA@FOIKENOD@vector?5too?5long@
CONST	SEGMENT
??_C@_0BA@FOIKENOD@vector?5too?5long@ DB 'vector too long', 00H ; `string'
CONST	ENDS
;	COMDAT ??_C@_01BJJEKLCA@?$CC@
CONST	SEGMENT
??_C@_01BJJEKLCA@?$CC@ DB '"', 00H			; `string'
CONST	ENDS
;	COMDAT ??_C@_03EMIMMIHL@?$CK?4?$CK@
CONST	SEGMENT
??_C@_03EMIMMIHL@?$CK?4?$CK@ DB '*.*', 00H		; `string'
CONST	ENDS
;	COMDAT ??_7CDirRemover@@6B@
CONST	SEGMENT
??_7CDirRemover@@6B@ DD FLAT:??_R4CDirRemover@@6B@	; CDirRemover::`vftable'
	DD	FLAT:??_ECDirRemover@@UAEPAXI@Z
	DD	FLAT:?OnFolder@CDirRemover@@UAE_NPBD00@Z
	DD	FLAT:?OnFile@CDirRemover@@UAE_NPBD0@Z
CONST	ENDS
;	COMDAT ??_C@_01EEMJAFIK@?6@
CONST	SEGMENT
??_C@_01EEMJAFIK@?6@ DB 0aH, 00H			; `string'
CONST	ENDS
;	COMDAT ??_C@_02HAOIJKIC@?$CFc@
CONST	SEGMENT
??_C@_02HAOIJKIC@?$CFc@ DB '%c', 00H			; `string'
CONST	ENDS
;	COMDAT ??_C@_01CLKCMJKC@?5@
CONST	SEGMENT
??_C@_01CLKCMJKC@?5@ DB ' ', 00H			; `string'
CONST	ENDS
;	COMDAT ??_C@_02MINBJDHL@?$HM?5@
CONST	SEGMENT
??_C@_02MINBJDHL@?$HM?5@ DB '| ', 00H			; `string'
CONST	ENDS
;	COMDAT ??_C@_05CNDJFPDP@?$CF02x?5@
CONST	SEGMENT
??_C@_05CNDJFPDP@?$CF02x?5@ DB '%02x ', 00H		; `string'
CONST	ENDS
;	COMDAT ??_C@_03NDEAONJP@?5?5?5@
CONST	SEGMENT
??_C@_03NDEAONJP@?5?5?5@ DB '   ', 00H			; `string'
CONST	ENDS
;	COMDAT ??_C@_0EE@CAMDODON@?9?9?9?9?9?9?9?9?9?9?9?9?9?9?9?9?9?9?9?9?9?9?9?9?9?9?9?9?9?9?9@
CONST	SEGMENT
??_C@_0EE@CAMDODON@?9?9?9?9?9?9?9?9?9?9?9?9?9?9?9?9?9?9?9?9?9?9?9?9?9?9?9?9?9?9?9@ DB '-'
	DB	'-------------------------------------------------------------'
	DB	'----', 0aH, 00H				; `string'
CONST	ENDS
;	COMDAT ??_C@_01KMDKNFGN@?1@
CONST	SEGMENT
??_C@_01KMDKNFGN@?1@ DB '/', 00H			; `string'
CONST	ENDS
;	COMDAT ??_C@_01LOCGONAA@?$AA@
CONST	SEGMENT
??_C@_01LOCGONAA@?$AA@ DB 00H, 00H			; `string'
CONST	ENDS
;	COMDAT ??_C@_00CNPNBAHC@@
CONST	SEGMENT
??_C@_00CNPNBAHC@@ DB 00H				; `string'
CONST	ENDS
;	COMDAT ??_C@_02GMHACPFF@?$CFu@
CONST	SEGMENT
??_C@_02GMHACPFF@?$CFu@ DB '%u', 00H			; `string'
CONST	ENDS
;	COMDAT ??_C@_03NGHAOOHL@etb@
CONST	SEGMENT
??_C@_03NGHAOOHL@etb@ DB 'etb', 00H			; `string'
CONST	ENDS
;	COMDAT ??_C@_0BA@JFNIOLAK@string?5too?5long@
CONST	SEGMENT
??_C@_0BA@JFNIOLAK@string?5too?5long@ DB 'string too long', 00H ; `string'
CONST	ENDS
;	COMDAT __CT??_R0?AVexception@std@@@8??0exception@std@@QAE@ABV01@@Z12
xdata$x	SEGMENT
__CT??_R0?AVexception@std@@@8??0exception@std@@QAE@ABV01@@Z12 DD 00H
	DD	FLAT:??_R0?AVexception@std@@@8
	DD	00H
	DD	0ffffffffH
	ORG $+4
	DD	0cH
	DD	FLAT:??0exception@std@@QAE@ABV01@@Z
xdata$x	ENDS
;	COMDAT ??_R0?AVexception@std@@@8
data$r	SEGMENT
??_R0?AVexception@std@@@8 DD FLAT:??_7type_info@@6B@	; std::exception `RTTI Type Descriptor'
	DD	00H
	DB	'.?AVexception@std@@', 00H
data$r	ENDS
;	COMDAT __CT??_R0?AVbad_alloc@std@@@8??0bad_alloc@std@@QAE@ABV01@@Z12
xdata$x	SEGMENT
__CT??_R0?AVbad_alloc@std@@@8??0bad_alloc@std@@QAE@ABV01@@Z12 DD 010H
	DD	FLAT:??_R0?AVbad_alloc@std@@@8
	DD	00H
	DD	0ffffffffH
	ORG $+4
	DD	0cH
	DD	FLAT:??0bad_alloc@std@@QAE@ABV01@@Z
xdata$x	ENDS
;	COMDAT ??_R0?AVbad_alloc@std@@@8
data$r	SEGMENT
??_R0?AVbad_alloc@std@@@8 DD FLAT:??_7type_info@@6B@	; std::bad_alloc `RTTI Type Descriptor'
	DD	00H
	DB	'.?AVbad_alloc@std@@', 00H
data$r	ENDS
;	COMDAT __CT??_R0?AVbad_array_new_length@std@@@8??0bad_array_new_length@std@@QAE@ABV01@@Z12
xdata$x	SEGMENT
__CT??_R0?AVbad_array_new_length@std@@@8??0bad_array_new_length@std@@QAE@ABV01@@Z12 DD 00H
	DD	FLAT:??_R0?AVbad_array_new_length@std@@@8
	DD	00H
	DD	0ffffffffH
	ORG $+4
	DD	0cH
	DD	FLAT:??0bad_array_new_length@std@@QAE@ABV01@@Z
xdata$x	ENDS
;	COMDAT ??_R0?AVbad_array_new_length@std@@@8
data$r	SEGMENT
??_R0?AVbad_array_new_length@std@@@8 DD FLAT:??_7type_info@@6B@ ; std::bad_array_new_length `RTTI Type Descriptor'
	DD	00H
	DB	'.?AVbad_array_new_length@std@@', 00H
data$r	ENDS
;	COMDAT __CTA3?AVbad_array_new_length@std@@
xdata$x	SEGMENT
__CTA3?AVbad_array_new_length@std@@ DD 03H
	DD	FLAT:__CT??_R0?AVbad_array_new_length@std@@@8??0bad_array_new_length@std@@QAE@ABV01@@Z12
	DD	FLAT:__CT??_R0?AVbad_alloc@std@@@8??0bad_alloc@std@@QAE@ABV01@@Z12
	DD	FLAT:__CT??_R0?AVexception@std@@@8??0exception@std@@QAE@ABV01@@Z12
xdata$x	ENDS
;	COMDAT __TI3?AVbad_array_new_length@std@@
xdata$x	SEGMENT
__TI3?AVbad_array_new_length@std@@ DD 00H
	DD	FLAT:??1bad_array_new_length@std@@UAE@XZ
	DD	00H
	DD	FLAT:__CTA3?AVbad_array_new_length@std@@
xdata$x	ENDS
;	COMDAT ??_C@_0BF@KINCDENJ@bad?5array?5new?5length@
CONST	SEGMENT
??_C@_0BF@KINCDENJ@bad?5array?5new?5length@ DB 'bad array new length', 00H ; `string'
CONST	ENDS
;	COMDAT ??_7bad_array_new_length@std@@6B@
CONST	SEGMENT
??_7bad_array_new_length@std@@6B@ DD FLAT:??_R4bad_array_new_length@std@@6B@ ; std::bad_array_new_length::`vftable'
	DD	FLAT:??_Ebad_array_new_length@std@@UAEPAXI@Z
	DD	FLAT:?what@exception@std@@UBEPBDXZ
CONST	ENDS
;	COMDAT ??_7bad_alloc@std@@6B@
CONST	SEGMENT
??_7bad_alloc@std@@6B@ DD FLAT:??_R4bad_alloc@std@@6B@	; std::bad_alloc::`vftable'
	DD	FLAT:??_Ebad_alloc@std@@UAEPAXI@Z
	DD	FLAT:?what@exception@std@@UBEPBDXZ
CONST	ENDS
;	COMDAT ??_C@_0BC@EOODALEL@Unknown?5exception@
CONST	SEGMENT
??_C@_0BC@EOODALEL@Unknown?5exception@ DB 'Unknown exception', 00H ; `string'
CONST	ENDS
;	COMDAT ??_7exception@std@@6B@
CONST	SEGMENT
??_7exception@std@@6B@ DD FLAT:??_R4exception@std@@6B@	; std::exception::`vftable'
	DD	FLAT:??_Eexception@std@@UAEPAXI@Z
	DD	FLAT:?what@exception@std@@UBEPBDXZ
CONST	ENDS
;	COMDAT xdata$x
xdata$x	SEGMENT
__unwindtable$??$_Uninitialized_move@PAV?$basic_string@DU?$char_traits@D@std@@V?$allocator@D@2@@std@@V?$allocator@V?$basic_string@DU?$char_traits@D@std@@V?$allocator@D@2@@std@@@2@@std@@YAPAV?$basic_string@DU?$char_traits@D@std@@V?$allocator@D@2@@0@QAV10@0PAV10@AAV?$allocator@V?$basic_string@DU?$char_traits@D@std@@V?$allocator@D@2@@std@@@0@@Z DD 0ffffffffH
	DD	FLAT:__unwindfunclet$??$_Uninitialized_move@PAV?$basic_string@DU?$char_traits@D@std@@V?$allocator@D@2@@std@@V?$allocator@V?$basic_string@DU?$char_traits@D@std@@V?$allocator@D@2@@std@@@2@@std@@YAPAV?$basic_string@DU?$char_traits@D@std@@V?$allocator@D@2@@0@QAV10@0PAV10@AAV?$allocator@V?$basic_string@DU?$char_traits@D@std@@V?$allocator@D@2@@std@@@0@@Z$0
__ehfuncinfo$??$_Uninitialized_move@PAV?$basic_string@DU?$char_traits@D@std@@V?$allocator@D@2@@std@@V?$allocator@V?$basic_string@DU?$char_traits@D@std@@V?$allocator@D@2@@std@@@2@@std@@YAPAV?$basic_string@DU?$char_traits@D@std@@V?$allocator@D@2@@0@QAV10@0PAV10@AAV?$allocator@V?$basic_string@DU?$char_traits@D@std@@V?$allocator@D@2@@std@@@0@@Z DD 019930522H
	DD	01H
	DD	FLAT:__unwindtable$??$_Uninitialized_move@PAV?$basic_string@DU?$char_traits@D@std@@V?$allocator@D@2@@std@@V?$allocator@V?$basic_string@DU?$char_traits@D@std@@V?$allocator@D@2@@std@@@2@@std@@YAPAV?$basic_string@DU?$char_traits@D@std@@V?$allocator@D@2@@0@QAV10@0PAV10@AAV?$allocator@V?$basic_string@DU?$char_traits@D@std@@V?$allocator@D@2@@std@@@0@@Z
	DD	2 DUP(00H)
	DD	2 DUP(00H)
	DD	00H
	DD	01H
xdata$x	ENDS
;	COMDAT xdata$x
xdata$x	SEGMENT
__ehfuncinfo$??$_Deallocate@$07$0A@@std@@YAXPAXI@Z DD 019930522H
	DD	00H
	DD	00H
	DD	2 DUP(00H)
	DD	2 DUP(00H)
	DD	00H
	DD	05H
xdata$x	ENDS
;	COMDAT xdata$x
xdata$x	SEGMENT
__catchsym$??$_Emplace_reallocate@V?$basic_string@DU?$char_traits@D@std@@V?$allocator@D@2@@std@@@?$vector@V?$basic_string@DU?$char_traits@D@std@@V?$allocator@D@2@@std@@V?$allocator@V?$basic_string@DU?$char_traits@D@std@@V?$allocator@D@2@@std@@@2@@std@@QAEPAV?$basic_string@DU?$char_traits@D@std@@V?$allocator@D@2@@1@QAV21@$$QAV21@@Z$40 DD 040H
	DD	00H
	DD	00H
	DD	FLAT:__catch$??$_Emplace_reallocate@V?$basic_string@DU?$char_traits@D@std@@V?$allocator@D@2@@std@@@?$vector@V?$basic_string@DU?$char_traits@D@std@@V?$allocator@D@2@@std@@V?$allocator@V?$basic_string@DU?$char_traits@D@std@@V?$allocator@D@2@@std@@@2@@std@@QAEPAV?$basic_string@DU?$char_traits@D@std@@V?$allocator@D@2@@1@QAV21@$$QAV21@@Z$0
__unwindtable$??$_Emplace_reallocate@V?$basic_string@DU?$char_traits@D@std@@V?$allocator@D@2@@std@@@?$vector@V?$basic_string@DU?$char_traits@D@std@@V?$allocator@D@2@@std@@V?$allocator@V?$basic_string@DU?$char_traits@D@std@@V?$allocator@D@2@@std@@@2@@std@@QAEPAV?$basic_string@DU?$char_traits@D@std@@V?$allocator@D@2@@1@QAV21@$$QAV21@@Z DD 0ffffffffH
	DD	00H
	DD	0ffffffffH
	DD	00H
__tryblocktable$??$_Emplace_reallocate@V?$basic_string@DU?$char_traits@D@std@@V?$allocator@D@2@@std@@@?$vector@V?$basic_string@DU?$char_traits@D@std@@V?$allocator@D@2@@std@@V?$allocator@V?$basic_string@DU?$char_traits@D@std@@V?$allocator@D@2@@std@@@2@@std@@QAEPAV?$basic_string@DU?$char_traits@D@std@@V?$allocator@D@2@@1@QAV21@$$QAV21@@Z DD 00H
	DD	00H
	DD	01H
	DD	01H
	DD	FLAT:__catchsym$??$_Emplace_reallocate@V?$basic_string@DU?$char_traits@D@std@@V?$allocator@D@2@@std@@@?$vector@V?$basic_string@DU?$char_traits@D@std@@V?$allocator@D@2@@std@@V?$allocator@V?$basic_string@DU?$char_traits@D@std@@V?$allocator@D@2@@std@@@2@@std@@QAEPAV?$basic_string@DU?$char_traits@D@std@@V?$allocator@D@2@@1@QAV21@$$QAV21@@Z$40
__ehfuncinfo$??$_Emplace_reallocate@V?$basic_string@DU?$char_traits@D@std@@V?$allocator@D@2@@std@@@?$vector@V?$basic_string@DU?$char_traits@D@std@@V?$allocator@D@2@@std@@V?$allocator@V?$basic_string@DU?$char_traits@D@std@@V?$allocator@D@2@@std@@@2@@std@@QAEPAV?$basic_string@DU?$char_traits@D@std@@V?$allocator@D@2@@1@QAV21@$$QAV21@@Z DD 019930522H
	DD	02H
	DD	FLAT:__unwindtable$??$_Emplace_reallocate@V?$basic_string@DU?$char_traits@D@std@@V?$allocator@D@2@@std@@@?$vector@V?$basic_string@DU?$char_traits@D@std@@V?$allocator@D@2@@std@@V?$allocator@V?$basic_string@DU?$char_traits@D@std@@V?$allocator@D@2@@std@@@2@@std@@QAEPAV?$basic_string@DU?$char_traits@D@std@@V?$allocator@D@2@@1@QAV21@$$QAV21@@Z
	DD	01H
	DD	FLAT:__tryblocktable$??$_Emplace_reallocate@V?$basic_string@DU?$char_traits@D@std@@V?$allocator@D@2@@std@@@?$vector@V?$basic_string@DU?$char_traits@D@std@@V?$allocator@D@2@@std@@V?$allocator@V?$basic_string@DU?$char_traits@D@std@@V?$allocator@D@2@@std@@@2@@std@@QAEPAV?$basic_string@DU?$char_traits@D@std@@V?$allocator@D@2@@1@QAV21@$$QAV21@@Z
	DD	2 DUP(00H)
	DD	00H
	DD	01H
xdata$x	ENDS
;	COMDAT xdata$x
xdata$x	SEGMENT
__catchsym$?_Reallocate_exactly@?$vector@V?$basic_string@DU?$char_traits@D@std@@V?$allocator@D@2@@std@@V?$allocator@V?$basic_string@DU?$char_traits@D@std@@V?$allocator@D@2@@std@@@2@@std@@AAEXI@Z$11 DD 040H
	DD	00H
	DD	00H
	DD	FLAT:__catch$?_Reallocate_exactly@?$vector@V?$basic_string@DU?$char_traits@D@std@@V?$allocator@D@2@@std@@V?$allocator@V?$basic_string@DU?$char_traits@D@std@@V?$allocator@D@2@@std@@@2@@std@@AAEXI@Z$0
__unwindtable$?_Reallocate_exactly@?$vector@V?$basic_string@DU?$char_traits@D@std@@V?$allocator@D@2@@std@@V?$allocator@V?$basic_string@DU?$char_traits@D@std@@V?$allocator@D@2@@std@@@2@@std@@AAEXI@Z DD 0ffffffffH
	DD	00H
	DD	0ffffffffH
	DD	00H
__tryblocktable$?_Reallocate_exactly@?$vector@V?$basic_string@DU?$char_traits@D@std@@V?$allocator@D@2@@std@@V?$allocator@V?$basic_string@DU?$char_traits@D@std@@V?$allocator@D@2@@std@@@2@@std@@AAEXI@Z DD 00H
	DD	00H
	DD	01H
	DD	01H
	DD	FLAT:__catchsym$?_Reallocate_exactly@?$vector@V?$basic_string@DU?$char_traits@D@std@@V?$allocator@D@2@@std@@V?$allocator@V?$basic_string@DU?$char_traits@D@std@@V?$allocator@D@2@@std@@@2@@std@@AAEXI@Z$11
__ehfuncinfo$?_Reallocate_exactly@?$vector@V?$basic_string@DU?$char_traits@D@std@@V?$allocator@D@2@@std@@V?$allocator@V?$basic_string@DU?$char_traits@D@std@@V?$allocator@D@2@@std@@@2@@std@@AAEXI@Z DD 019930522H
	DD	02H
	DD	FLAT:__unwindtable$?_Reallocate_exactly@?$vector@V?$basic_string@DU?$char_traits@D@std@@V?$allocator@D@2@@std@@V?$allocator@V?$basic_string@DU?$char_traits@D@std@@V?$allocator@D@2@@std@@@2@@std@@AAEXI@Z
	DD	01H
	DD	FLAT:__tryblocktable$?_Reallocate_exactly@?$vector@V?$basic_string@DU?$char_traits@D@std@@V?$allocator@D@2@@std@@V?$allocator@V?$basic_string@DU?$char_traits@D@std@@V?$allocator@D@2@@std@@@2@@std@@AAEXI@Z
	DD	2 DUP(00H)
	DD	00H
	DD	01H
xdata$x	ENDS
;	COMDAT xdata$x
xdata$x	SEGMENT
__unwindtable$?OnFile@CDirRemover@@UAE_NPBD0@Z DD 0ffffffffH
	DD	FLAT:__unwindfunclet$?OnFile@CDirRemover@@UAE_NPBD0@Z$0
__ehfuncinfo$?OnFile@CDirRemover@@UAE_NPBD0@Z DD 019930522H
	DD	01H
	DD	FLAT:__unwindtable$?OnFile@CDirRemover@@UAE_NPBD0@Z
	DD	2 DUP(00H)
	DD	2 DUP(00H)
	DD	00H
	DD	01H
xdata$x	ENDS
;	COMDAT xdata$x
xdata$x	SEGMENT
__unwindtable$?OnFolder@CDirRemover@@UAE_NPBD00@Z DD 0ffffffffH
	DD	FLAT:__unwindfunclet$?OnFolder@CDirRemover@@UAE_NPBD00@Z$0
	DD	00H
	DD	FLAT:__unwindfunclet$?OnFolder@CDirRemover@@UAE_NPBD00@Z$1
	DD	01H
	DD	FLAT:__unwindfunclet$?OnFolder@CDirRemover@@UAE_NPBD00@Z$2
__ehfuncinfo$?OnFolder@CDirRemover@@UAE_NPBD00@Z DD 019930522H
	DD	03H
	DD	FLAT:__unwindtable$?OnFolder@CDirRemover@@UAE_NPBD00@Z
	DD	2 DUP(00H)
	DD	2 DUP(00H)
	DD	00H
	DD	01H
xdata$x	ENDS
;	COMDAT xdata$x
xdata$x	SEGMENT
__unwindtable$?StringExceptCharacter@@YAXPAV?$basic_string@DU?$char_traits@D@std@@V?$allocator@D@2@@std@@PBD@Z DD 0ffffffffH
	DD	FLAT:__unwindfunclet$?StringExceptCharacter@@YAXPAV?$basic_string@DU?$char_traits@D@std@@V?$allocator@D@2@@std@@PBD@Z$0
	DD	00H
	DD	FLAT:__unwindfunclet$?StringExceptCharacter@@YAXPAV?$basic_string@DU?$char_traits@D@std@@V?$allocator@D@2@@std@@PBD@Z$1
__ehfuncinfo$?StringExceptCharacter@@YAXPAV?$basic_string@DU?$char_traits@D@std@@V?$allocator@D@2@@std@@PBD@Z DD 019930522H
	DD	02H
	DD	FLAT:__unwindtable$?StringExceptCharacter@@YAXPAV?$basic_string@DU?$char_traits@D@std@@V?$allocator@D@2@@std@@PBD@Z
	DD	2 DUP(00H)
	DD	2 DUP(00H)
	DD	00H
	DD	01H
xdata$x	ENDS
;	COMDAT xdata$x
xdata$x	SEGMENT
__unwindtable$?SplitLine@@YA_NPBD0PAV?$vector@V?$basic_string@DU?$char_traits@D@std@@V?$allocator@D@2@@std@@V?$allocator@V?$basic_string@DU?$char_traits@D@std@@V?$allocator@D@2@@std@@@2@@std@@@Z DD 0ffffffffH
	DD	FLAT:__unwindfunclet$?SplitLine@@YA_NPBD0PAV?$vector@V?$basic_string@DU?$char_traits@D@std@@V?$allocator@D@2@@std@@V?$allocator@V?$basic_string@DU?$char_traits@D@std@@V?$allocator@D@2@@std@@@2@@std@@@Z$0
	DD	00H
	DD	FLAT:__unwindfunclet$?SplitLine@@YA_NPBD0PAV?$vector@V?$basic_string@DU?$char_traits@D@std@@V?$allocator@D@2@@std@@V?$allocator@V?$basic_string@DU?$char_traits@D@std@@V?$allocator@D@2@@std@@@2@@std@@@Z$1
__ehfuncinfo$?SplitLine@@YA_NPBD0PAV?$vector@V?$basic_string@DU?$char_traits@D@std@@V?$allocator@D@2@@std@@V?$allocator@V?$basic_string@DU?$char_traits@D@std@@V?$allocator@D@2@@std@@@2@@std@@@Z DD 019930522H
	DD	02H
	DD	FLAT:__unwindtable$?SplitLine@@YA_NPBD0PAV?$vector@V?$basic_string@DU?$char_traits@D@std@@V?$allocator@D@2@@std@@V?$allocator@V?$basic_string@DU?$char_traits@D@std@@V?$allocator@D@2@@std@@@2@@std@@@Z
	DD	2 DUP(00H)
	DD	2 DUP(00H)
	DD	00H
	DD	01H
xdata$x	ENDS
;	COMDAT xdata$x
xdata$x	SEGMENT
__unwindtable$?RemoveAllDirectory@@YAXPBD@Z DD 0ffffffffH
	DD	FLAT:__unwindfunclet$?RemoveAllDirectory@@YAXPBD@Z$0
__ehfuncinfo$?RemoveAllDirectory@@YAXPBD@Z DD 019930522H
	DD	01H
	DD	FLAT:__unwindtable$?RemoveAllDirectory@@YAXPBD@Z
	DD	2 DUP(00H)
	DD	2 DUP(00H)
	DD	00H
	DD	01H
xdata$x	ENDS
;	COMDAT xdata$x
xdata$x	SEGMENT
__unwindtable$?GetLocalFileName@@YA_NPBD0PAV?$basic_string@DU?$char_traits@D@std@@V?$allocator@D@2@@std@@@Z DD 0ffffffffH
	DD	FLAT:__unwindfunclet$?GetLocalFileName@@YA_NPBD0PAV?$basic_string@DU?$char_traits@D@std@@V?$allocator@D@2@@std@@@Z$0
	DD	00H
	DD	FLAT:__unwindfunclet$?GetLocalFileName@@YA_NPBD0PAV?$basic_string@DU?$char_traits@D@std@@V?$allocator@D@2@@std@@@Z$1
	DD	01H
	DD	FLAT:__unwindfunclet$?GetLocalFileName@@YA_NPBD0PAV?$basic_string@DU?$char_traits@D@std@@V?$allocator@D@2@@std@@@Z$2
__ehfuncinfo$?GetLocalFileName@@YA_NPBD0PAV?$basic_string@DU?$char_traits@D@std@@V?$allocator@D@2@@std@@@Z DD 019930522H
	DD	03H
	DD	FLAT:__unwindtable$?GetLocalFileName@@YA_NPBD0PAV?$basic_string@DU?$char_traits@D@std@@V?$allocator@D@2@@std@@@Z
	DD	2 DUP(00H)
	DD	2 DUP(00H)
	DD	00H
	DD	01H
xdata$x	ENDS
;	COMDAT xdata$x
xdata$x	SEGMENT
__unwindtable$?substr@?$basic_string@DU?$char_traits@D@std@@V?$allocator@D@2@@std@@QBE?AV12@II@Z DD 0ffffffffH
	DD	FLAT:__unwindfunclet$?substr@?$basic_string@DU?$char_traits@D@std@@V?$allocator@D@2@@std@@QBE?AV12@II@Z$4
__ehfuncinfo$?substr@?$basic_string@DU?$char_traits@D@std@@V?$allocator@D@2@@std@@QBE?AV12@II@Z DD 019930522H
	DD	01H
	DD	FLAT:__unwindtable$?substr@?$basic_string@DU?$char_traits@D@std@@V?$allocator@D@2@@std@@QBE?AV12@II@Z
	DD	2 DUP(00H)
	DD	2 DUP(00H)
	DD	00H
	DD	01H
xdata$x	ENDS
;	COMDAT xdata$x
xdata$x	SEGMENT
__unwindtable$??0?$basic_string@DU?$char_traits@D@std@@V?$allocator@D@2@@std@@QAE@U_String_constructor_concat_tag@1@ABV01@QBDI2I@Z DD 0ffffffffH
	DD	FLAT:__unwindfunclet$??0?$basic_string@DU?$char_traits@D@std@@V?$allocator@D@2@@std@@QAE@U_String_constructor_concat_tag@1@ABV01@QBDI2I@Z$0
__ehfuncinfo$??0?$basic_string@DU?$char_traits@D@std@@V?$allocator@D@2@@std@@QAE@U_String_constructor_concat_tag@1@ABV01@QBDI2I@Z DD 019930522H
	DD	01H
	DD	FLAT:__unwindtable$??0?$basic_string@DU?$char_traits@D@std@@V?$allocator@D@2@@std@@QAE@U_String_constructor_concat_tag@1@ABV01@QBDI2I@Z
	DD	2 DUP(00H)
	DD	2 DUP(00H)
	DD	00H
	DD	01H
xdata$x	ENDS
;	COMDAT xdata$x
xdata$x	SEGMENT
__unwindtable$??0?$basic_string@DU?$char_traits@D@std@@V?$allocator@D@2@@std@@QAE@QBD@Z DD 0ffffffffH
	DD	FLAT:__unwindfunclet$??0?$basic_string@DU?$char_traits@D@std@@V?$allocator@D@2@@std@@QAE@QBD@Z$0
__ehfuncinfo$??0?$basic_string@DU?$char_traits@D@std@@V?$allocator@D@2@@std@@QAE@QBD@Z DD 019930522H
	DD	01H
	DD	FLAT:__unwindtable$??0?$basic_string@DU?$char_traits@D@std@@V?$allocator@D@2@@std@@QAE@QBD@Z
	DD	2 DUP(00H)
	DD	2 DUP(00H)
	DD	00H
	DD	01H
xdata$x	ENDS
;	COMDAT xdata$x
xdata$x	SEGMENT
__unwindtable$??0?$basic_string@DU?$char_traits@D@std@@V?$allocator@D@2@@std@@QAE@ABV01@@Z DD 0ffffffffH
	DD	FLAT:__unwindfunclet$??0?$basic_string@DU?$char_traits@D@std@@V?$allocator@D@2@@std@@QAE@ABV01@@Z$0
__ehfuncinfo$??0?$basic_string@DU?$char_traits@D@std@@V?$allocator@D@2@@std@@QAE@ABV01@@Z DD 019930522H
	DD	01H
	DD	FLAT:__unwindtable$??0?$basic_string@DU?$char_traits@D@std@@V?$allocator@D@2@@std@@QAE@ABV01@@Z
	DD	2 DUP(00H)
	DD	2 DUP(00H)
	DD	00H
	DD	01H
xdata$x	ENDS
; Function compile flags: /Odspy
; File C:\Program Files (x86)\Microsoft Visual Studio\2019\Community\VC\Tools\MSVC\14.28.29333\include\xmemory
;	COMDAT ??$_Zero_range@PAPAV?$basic_string@DU?$char_traits@D@std@@V?$allocator@D@2@@std@@@std@@YAPAPAV?$basic_string@DU?$char_traits@D@std@@V?$allocator@D@2@@0@QAPAV10@0@Z
_TEXT	SEGMENT
__Last_ch$ = -8						; size = 4
__First_ch$ = -4					; size = 4
__First$ = 8						; size = 4
__Last$ = 12						; size = 4
??$_Zero_range@PAPAV?$basic_string@DU?$char_traits@D@std@@V?$allocator@D@2@@std@@@std@@YAPAPAV?$basic_string@DU?$char_traits@D@std@@V?$allocator@D@2@@0@QAPAV10@0@Z PROC ; std::_Zero_range<std::basic_string<char,std::char_traits<char>,std::allocator<char> > * *>, COMDAT

; 1852 : _Ptr _Zero_range(const _Ptr _First, const _Ptr _Last) { // fill [_First, _Last) with zeroes

  00000	55		 push	 ebp
  00001	8b ec		 mov	 ebp, esp
  00003	51		 push	 ecx
  00004	51		 push	 ecx

; 1853 :     char* const _First_ch = reinterpret_cast<char*>(_First);

  00005	8b 45 08	 mov	 eax, DWORD PTR __First$[ebp]
  00008	89 45 fc	 mov	 DWORD PTR __First_ch$[ebp], eax

; 1854 :     char* const _Last_ch  = reinterpret_cast<char*>(_Last);

  0000b	8b 45 0c	 mov	 eax, DWORD PTR __Last$[ebp]
  0000e	89 45 f8	 mov	 DWORD PTR __Last_ch$[ebp], eax

; 1855 :     _CSTD memset(_First_ch, 0, static_cast<size_t>(_Last_ch - _First_ch));

  00011	8b 45 f8	 mov	 eax, DWORD PTR __Last_ch$[ebp]
  00014	2b 45 fc	 sub	 eax, DWORD PTR __First_ch$[ebp]
  00017	50		 push	 eax
  00018	6a 00		 push	 0
  0001a	ff 75 fc	 push	 DWORD PTR __First_ch$[ebp]
  0001d	e8 00 00 00 00	 call	 _memset
  00022	83 c4 0c	 add	 esp, 12			; 0000000cH

; 1856 :     return _Last;

  00025	8b 45 0c	 mov	 eax, DWORD PTR __Last$[ebp]

; 1857 : }

  00028	c9		 leave
  00029	c3		 ret	 0
??$_Zero_range@PAPAV?$basic_string@DU?$char_traits@D@std@@V?$allocator@D@2@@std@@@std@@YAPAPAV?$basic_string@DU?$char_traits@D@std@@V?$allocator@D@2@@0@QAPAV10@0@Z ENDP ; std::_Zero_range<std::basic_string<char,std::char_traits<char>,std::allocator<char> > * *>
_TEXT	ENDS
; Function compile flags: /Odspy
; File C:\Program Files (x86)\Microsoft Visual Studio\2019\Community\VC\Tools\MSVC\14.28.29333\include\xutility
;	COMDAT ??$_Copy_memmove@PAPAV?$basic_string@DU?$char_traits@D@std@@V?$allocator@D@2@@std@@PAPAV12@@std@@YAPAPAV?$basic_string@DU?$char_traits@D@std@@V?$allocator@D@2@@0@PAPAV10@00@Z
_TEXT	SEGMENT
__Last_ch$ = -16					; size = 4
__Count$ = -12						; size = 4
__Dest_ch$ = -8						; size = 4
__First_ch$ = -4					; size = 4
__First$ = 8						; size = 4
__Last$ = 12						; size = 4
__Dest$ = 16						; size = 4
??$_Copy_memmove@PAPAV?$basic_string@DU?$char_traits@D@std@@V?$allocator@D@2@@std@@PAPAV12@@std@@YAPAPAV?$basic_string@DU?$char_traits@D@std@@V?$allocator@D@2@@0@PAPAV10@00@Z PROC ; std::_Copy_memmove<std::basic_string<char,std::char_traits<char>,std::allocator<char> > * *,std::basic_string<char,std::char_traits<char>,std::allocator<char> > * *>, COMDAT

; 4360 : _OutIt _Copy_memmove(_InIt _First, _InIt _Last, _OutIt _Dest) {

  00000	55		 push	 ebp
  00001	8b ec		 mov	 ebp, esp
  00003	83 ec 10	 sub	 esp, 16			; 00000010H

; 4361 :     const char* const _First_ch = const_cast<const char*>(reinterpret_cast<const volatile char*>(_First));

  00006	8b 45 08	 mov	 eax, DWORD PTR __First$[ebp]
  00009	89 45 fc	 mov	 DWORD PTR __First_ch$[ebp], eax

; 4362 :     const char* const _Last_ch  = const_cast<const char*>(reinterpret_cast<const volatile char*>(_Last));

  0000c	8b 45 0c	 mov	 eax, DWORD PTR __Last$[ebp]
  0000f	89 45 f0	 mov	 DWORD PTR __Last_ch$[ebp], eax

; 4363 :     char* const _Dest_ch        = const_cast<char*>(reinterpret_cast<volatile char*>(_Dest));

  00012	8b 45 10	 mov	 eax, DWORD PTR __Dest$[ebp]
  00015	89 45 f8	 mov	 DWORD PTR __Dest_ch$[ebp], eax

; 4364 :     const auto _Count           = static_cast<size_t>(_Last_ch - _First_ch);

  00018	8b 45 f0	 mov	 eax, DWORD PTR __Last_ch$[ebp]
  0001b	2b 45 fc	 sub	 eax, DWORD PTR __First_ch$[ebp]
  0001e	89 45 f4	 mov	 DWORD PTR __Count$[ebp], eax

; 4365 :     _CSTD memmove(_Dest_ch, _First_ch, _Count);

  00021	ff 75 f4	 push	 DWORD PTR __Count$[ebp]
  00024	ff 75 fc	 push	 DWORD PTR __First_ch$[ebp]
  00027	ff 75 f8	 push	 DWORD PTR __Dest_ch$[ebp]
  0002a	e8 00 00 00 00	 call	 _memmove
  0002f	83 c4 0c	 add	 esp, 12			; 0000000cH

; 4366 :     return reinterpret_cast<_OutIt>(_Dest_ch + _Count);

  00032	8b 45 f8	 mov	 eax, DWORD PTR __Dest_ch$[ebp]
  00035	03 45 f4	 add	 eax, DWORD PTR __Count$[ebp]

; 4367 : }

  00038	c9		 leave
  00039	c3		 ret	 0
??$_Copy_memmove@PAPAV?$basic_string@DU?$char_traits@D@std@@V?$allocator@D@2@@std@@PAPAV12@@std@@YAPAPAV?$basic_string@DU?$char_traits@D@std@@V?$allocator@D@2@@0@PAPAV10@00@Z ENDP ; std::_Copy_memmove<std::basic_string<char,std::char_traits<char>,std::allocator<char> > * *,std::basic_string<char,std::char_traits<char>,std::allocator<char> > * *>
_TEXT	ENDS
; Function compile flags: /Odspy
; File C:\Program Files (x86)\Microsoft Visual Studio\2019\Community\VC\Tools\MSVC\14.28.29333\include\xmemory
;	COMDAT ??$_Destroy_range@PAPAV?$basic_string@DU?$char_traits@D@std@@V?$allocator@D@2@@std@@PAPAV12@@std@@YAXPAPAV?$basic_string@DU?$char_traits@D@std@@V?$allocator@D@2@@0@QAPAV10@@Z
_TEXT	SEGMENT
__First$ = 8						; size = 4
__Last$ = 12						; size = 4
??$_Destroy_range@PAPAV?$basic_string@DU?$char_traits@D@std@@V?$allocator@D@2@@std@@PAPAV12@@std@@YAXPAPAV?$basic_string@DU?$char_traits@D@std@@V?$allocator@D@2@@0@QAPAV10@@Z PROC ; std::_Destroy_range<std::basic_string<char,std::char_traits<char>,std::allocator<char> > * *,std::basic_string<char,std::char_traits<char>,std::allocator<char> > * *>, COMDAT

; 974  : /* _CONSTEXPR20_DYNALLOC */ void _Destroy_range(_NoThrowFwdIt _First, const _NoThrowSentinel _Last) noexcept {

  00000	55		 push	 ebp
  00001	8b ec		 mov	 ebp, esp

; 975  :     // note that this is an optimization for debug mode codegen; in release mode the BE removes all of this
; 976  :     if _CONSTEXPR_IF (!is_trivially_destructible_v<_Iter_value_t<_NoThrowFwdIt>>) {
; 977  :         for (; _First != _Last; ++_First) {
; 978  :             _Destroy_in_place(*_First);
; 979  :         }
; 980  :     }
; 981  : }

  00003	5d		 pop	 ebp
  00004	c3		 ret	 0
??$_Destroy_range@PAPAV?$basic_string@DU?$char_traits@D@std@@V?$allocator@D@2@@std@@PAPAV12@@std@@YAXPAPAV?$basic_string@DU?$char_traits@D@std@@V?$allocator@D@2@@0@QAPAV10@@Z ENDP ; std::_Destroy_range<std::basic_string<char,std::char_traits<char>,std::allocator<char> > * *,std::basic_string<char,std::char_traits<char>,std::allocator<char> > * *>
_TEXT	ENDS
; Function compile flags: /Odspy
; File C:\Program Files (x86)\Microsoft Visual Studio\2019\Community\VC\Tools\MSVC\14.28.29333\include\xmemory
;	COMDAT ??$_Uninitialized_value_construct_n_unchecked1@PAPAV?$basic_string@DU?$char_traits@D@std@@V?$allocator@D@2@@std@@I@std@@YAPAPAV?$basic_string@DU?$char_traits@D@std@@V?$allocator@D@2@@0@PAPAV10@I@Z
_TEXT	SEGMENT
__UFirst$ = 8						; size = 4
__Count$ = 12						; size = 4
??$_Uninitialized_value_construct_n_unchecked1@PAPAV?$basic_string@DU?$char_traits@D@std@@V?$allocator@D@2@@std@@I@std@@YAPAPAV?$basic_string@DU?$char_traits@D@std@@V?$allocator@D@2@@0@PAPAV10@I@Z PROC ; std::_Uninitialized_value_construct_n_unchecked1<std::basic_string<char,std::char_traits<char>,std::allocator<char> > * *,unsigned int>, COMDAT

; 1912 : _NoThrowFwdIt _Uninitialized_value_construct_n_unchecked1(_NoThrowFwdIt _UFirst, _Diff _Count) {

  00000	55		 push	 ebp
  00001	8b ec		 mov	 ebp, esp

; 1913 :     // value-initialize all elements in [_UFirst, _UFirst + _Count_raw)
; 1914 :     _STL_INTERNAL_CHECK(_Count >= 0);
; 1915 :     if constexpr (_Use_memset_value_construct_v<_NoThrowFwdIt>) {
; 1916 :         return _Zero_range(_UFirst, _UFirst + _Count);

  00003	8b 45 0c	 mov	 eax, DWORD PTR __Count$[ebp]
  00006	8b 4d 08	 mov	 ecx, DWORD PTR __UFirst$[ebp]
  00009	8d 04 81	 lea	 eax, DWORD PTR [ecx+eax*4]
  0000c	50		 push	 eax
  0000d	ff 75 08	 push	 DWORD PTR __UFirst$[ebp]
  00010	e8 00 00 00 00	 call	 ??$_Zero_range@PAPAV?$basic_string@DU?$char_traits@D@std@@V?$allocator@D@2@@std@@@std@@YAPAPAV?$basic_string@DU?$char_traits@D@std@@V?$allocator@D@2@@0@QAPAV10@0@Z ; std::_Zero_range<std::basic_string<char,std::char_traits<char>,std::allocator<char> > * *>
  00015	59		 pop	 ecx
  00016	59		 pop	 ecx

; 1917 :     } else {
; 1918 :         _Uninitialized_backout<_NoThrowFwdIt> _Backout{_UFirst};
; 1919 :         for (; 0 < _Count; --_Count) {
; 1920 :             _Backout._Emplace_back();
; 1921 :         }
; 1922 : 
; 1923 :         return _Backout._Release();
; 1924 :     }
; 1925 : }

  00017	5d		 pop	 ebp
  00018	c3		 ret	 0
??$_Uninitialized_value_construct_n_unchecked1@PAPAV?$basic_string@DU?$char_traits@D@std@@V?$allocator@D@2@@std@@I@std@@YAPAPAV?$basic_string@DU?$char_traits@D@std@@V?$allocator@D@2@@0@PAPAV10@I@Z ENDP ; std::_Uninitialized_value_construct_n_unchecked1<std::basic_string<char,std::char_traits<char>,std::allocator<char> > * *,unsigned int>
_TEXT	ENDS
; Function compile flags: /Odspy
; File C:\Program Files (x86)\Microsoft Visual Studio\2019\Community\VC\Tools\MSVC\14.28.29333\include\xmemory
; File C:\Program Files (x86)\Microsoft Visual Studio\2019\Community\VC\Tools\MSVC\14.28.29333\include\xutility
; File C:\Program Files (x86)\Microsoft Visual Studio\2019\Community\VC\Tools\MSVC\14.28.29333\include\xmemory
; File C:\Program Files (x86)\Microsoft Visual Studio\2019\Community\VC\Tools\MSVC\14.28.29333\include\xutility
; File C:\Program Files (x86)\Microsoft Visual Studio\2019\Community\VC\Tools\MSVC\14.28.29333\include\xmemory
;	COMDAT ??$uninitialized_copy@PAPAV?$basic_string@DU?$char_traits@D@std@@V?$allocator@D@2@@std@@PAPAV12@@std@@YAPAPAV?$basic_string@DU?$char_traits@D@std@@V?$allocator@D@2@@0@QAPAV10@0PAPAV10@@Z
_TEXT	SEGMENT
$T1 = -16						; size = 4
__UFirst$ = -12						; size = 4
__ULast$ = -8						; size = 4
__UDest$ = -4						; size = 4
__First$ = 8						; size = 4
__Last$ = 12						; size = 4
__Dest$ = 16						; size = 4
??$uninitialized_copy@PAPAV?$basic_string@DU?$char_traits@D@std@@V?$allocator@D@2@@std@@PAPAV12@@std@@YAPAPAV?$basic_string@DU?$char_traits@D@std@@V?$allocator@D@2@@0@QAPAV10@0PAPAV10@@Z PROC ; std::uninitialized_copy<std::basic_string<char,std::char_traits<char>,std::allocator<char> > * *,std::basic_string<char,std::char_traits<char>,std::allocator<char> > * *>, COMDAT

; 1629 : _NoThrowFwdIt uninitialized_copy(const _InIt _First, const _InIt _Last, _NoThrowFwdIt _Dest) {

  00000	55		 push	 ebp
  00001	8b ec		 mov	 ebp, esp
  00003	83 ec 10	 sub	 esp, 16			; 00000010H

; 1630 :     // copy [_First, _Last) to raw [_Dest, ...)
; 1631 :     _Adl_verify_range(_First, _Last);
; 1632 :     auto _UFirst      = _Get_unwrapped(_First);

  00006	8b 45 08	 mov	 eax, DWORD PTR __First$[ebp]
  00009	89 45 f4	 mov	 DWORD PTR __UFirst$[ebp], eax

; 1633 :     const auto _ULast = _Get_unwrapped(_Last);

  0000c	8b 45 0c	 mov	 eax, DWORD PTR __Last$[ebp]
  0000f	89 45 f8	 mov	 DWORD PTR __ULast$[ebp], eax
; File C:\Program Files (x86)\Microsoft Visual Studio\2019\Community\VC\Tools\MSVC\14.28.29333\include\xutility

; 1557 :         return static_cast<_Iter_diff_t<_Checked>>(_Last - _First);

  00012	8b 45 f8	 mov	 eax, DWORD PTR __ULast$[ebp]
  00015	2b 45 f4	 sub	 eax, DWORD PTR __UFirst$[ebp]
  00018	c1 f8 02	 sar	 eax, 2
  0001b	89 45 f0	 mov	 DWORD PTR $T1[ebp], eax
; File C:\Program Files (x86)\Microsoft Visual Studio\2019\Community\VC\Tools\MSVC\14.28.29333\include\xmemory

; 1634 :     auto _UDest       = _Get_unwrapped_n(_Dest, _Idl_distance<_InIt>(_UFirst, _ULast));

  0001e	8b 45 10	 mov	 eax, DWORD PTR __Dest$[ebp]
  00021	89 45 fc	 mov	 DWORD PTR __UDest$[ebp], eax

; 1635 :     if constexpr (_Ptr_copy_cat<decltype(_UFirst), decltype(_UDest)>::_Really_trivial) {
; 1636 :         _UDest = _Copy_memmove(_UFirst, _ULast, _UDest);

  00024	ff 75 fc	 push	 DWORD PTR __UDest$[ebp]
  00027	ff 75 f8	 push	 DWORD PTR __ULast$[ebp]
  0002a	ff 75 f4	 push	 DWORD PTR __UFirst$[ebp]
  0002d	e8 00 00 00 00	 call	 ??$_Copy_memmove@PAPAV?$basic_string@DU?$char_traits@D@std@@V?$allocator@D@2@@std@@PAPAV12@@std@@YAPAPAV?$basic_string@DU?$char_traits@D@std@@V?$allocator@D@2@@0@PAPAV10@00@Z ; std::_Copy_memmove<std::basic_string<char,std::char_traits<char>,std::allocator<char> > * *,std::basic_string<char,std::char_traits<char>,std::allocator<char> > * *>
  00032	83 c4 0c	 add	 esp, 12			; 0000000cH
  00035	89 45 fc	 mov	 DWORD PTR __UDest$[ebp], eax
; File C:\Program Files (x86)\Microsoft Visual Studio\2019\Community\VC\Tools\MSVC\14.28.29333\include\xutility

; 1492 :         _It = static_cast<_UIter&&>(_UIt);

  00038	8b 45 fc	 mov	 eax, DWORD PTR __UDest$[ebp]
  0003b	89 45 10	 mov	 DWORD PTR __Dest$[ebp], eax
; File C:\Program Files (x86)\Microsoft Visual Studio\2019\Community\VC\Tools\MSVC\14.28.29333\include\xmemory

; 1647 :     return _Dest;

  0003e	8b 45 10	 mov	 eax, DWORD PTR __Dest$[ebp]

; 1648 : }

  00041	c9		 leave
  00042	c3		 ret	 0
??$uninitialized_copy@PAPAV?$basic_string@DU?$char_traits@D@std@@V?$allocator@D@2@@std@@PAPAV12@@std@@YAPAPAV?$basic_string@DU?$char_traits@D@std@@V?$allocator@D@2@@0@QAPAV10@0PAPAV10@@Z ENDP ; std::uninitialized_copy<std::basic_string<char,std::char_traits<char>,std::allocator<char> > * *,std::basic_string<char,std::char_traits<char>,std::allocator<char> > * *>
_TEXT	ENDS
; Function compile flags: /Odspy
; File C:\Program Files (x86)\Microsoft Visual Studio\2019\Community\VC\Tools\MSVC\14.28.29333\include\xmemory
; File C:\Program Files (x86)\Microsoft Visual Studio\2019\Community\VC\Tools\MSVC\14.28.29333\include\type_traits
; File C:\Program Files (x86)\Microsoft Visual Studio\2019\Community\VC\Tools\MSVC\14.28.29333\include\xmemory
; File C:\Program Files (x86)\Microsoft Visual Studio\2019\Community\VC\Tools\MSVC\14.28.29333\include\xstddef
; File C:\Program Files (x86)\Microsoft Visual Studio\2019\Community\VC\Tools\MSVC\14.28.29333\include\xmemory
; File C:\Program Files (x86)\Microsoft Visual Studio\2019\Community\VC\Tools\MSVC\14.28.29333\include\vcruntime_new.h
; File C:\Program Files (x86)\Microsoft Visual Studio\2019\Community\VC\Tools\MSVC\14.28.29333\include\type_traits
; File C:\Program Files (x86)\Microsoft Visual Studio\2019\Community\VC\Tools\MSVC\14.28.29333\include\xmemory
;	COMDAT ??$_Emplace_back@V?$basic_string@DU?$char_traits@D@std@@V?$allocator@D@2@@std@@@?$_Uninitialized_backout_al@V?$allocator@V?$basic_string@DU?$char_traits@D@std@@V?$allocator@D@2@@std@@@std@@@std@@QAEX$$QAV?$basic_string@DU?$char_traits@D@std@@V?$allocator@D@2@@1@@Z
_TEXT	SEGMENT
___formal$ = -28					; size = 4
$T1 = -24						; size = 4
$T2 = -20						; size = 4
$T3 = -16						; size = 4
$T4 = -12						; size = 4
__Ptr$ = -8						; size = 4
_this$ = -4						; size = 4
_<_Vals_0>$ = 8						; size = 4
??$_Emplace_back@V?$basic_string@DU?$char_traits@D@std@@V?$allocator@D@2@@std@@@?$_Uninitialized_backout_al@V?$allocator@V?$basic_string@DU?$char_traits@D@std@@V?$allocator@D@2@@std@@@std@@@std@@QAEX$$QAV?$basic_string@DU?$char_traits@D@std@@V?$allocator@D@2@@1@@Z PROC ; std::_Uninitialized_backout_al<std::allocator<std::basic_string<char,std::char_traits<char>,std::allocator<char> > > >::_Emplace_back<std::basic_string<char,std::char_traits<char>,std::allocator<char> > >, COMDAT
; _this$ = ecx

; 1545 :     void _Emplace_back(_Types&&... _Vals) { // construct a new element at *_Last and increment

  00000	55		 push	 ebp
  00001	8b ec		 mov	 ebp, esp
  00003	83 ec 1c	 sub	 esp, 28			; 0000001cH
  00006	89 4d fc	 mov	 DWORD PTR _this$[ebp], ecx
; File C:\Program Files (x86)\Microsoft Visual Studio\2019\Community\VC\Tools\MSVC\14.28.29333\include\type_traits

; 1443 :     return static_cast<_Ty&&>(_Arg);

  00009	8b 45 08	 mov	 eax, DWORD PTR _<_Vals_0>$[ebp]
  0000c	89 45 f0	 mov	 DWORD PTR $T3[ebp], eax
; File C:\Program Files (x86)\Microsoft Visual Studio\2019\Community\VC\Tools\MSVC\14.28.29333\include\xmemory

; 1546 :         allocator_traits<_Alloc>::construct(_Al, _Unfancy(_Last), _STD forward<_Types>(_Vals)...);

  0000f	8b 45 fc	 mov	 eax, DWORD PTR _this$[ebp]
  00012	8b 40 04	 mov	 eax, DWORD PTR [eax+4]
  00015	89 45 f8	 mov	 DWORD PTR __Ptr$[ebp], eax
; File C:\Program Files (x86)\Microsoft Visual Studio\2019\Community\VC\Tools\MSVC\14.28.29333\include\xstddef

; 289  :     return _Ptr;

  00018	8b 45 f8	 mov	 eax, DWORD PTR __Ptr$[ebp]
  0001b	89 45 f4	 mov	 DWORD PTR $T4[ebp], eax
; File C:\Program Files (x86)\Microsoft Visual Studio\2019\Community\VC\Tools\MSVC\14.28.29333\include\xmemory

; 1546 :         allocator_traits<_Alloc>::construct(_Al, _Unfancy(_Last), _STD forward<_Types>(_Vals)...);

  0001e	8b 45 fc	 mov	 eax, DWORD PTR _this$[ebp]
  00021	8b 40 08	 mov	 eax, DWORD PTR [eax+8]
  00024	89 45 e4	 mov	 DWORD PTR ___formal$[ebp], eax
; File C:\Program Files (x86)\Microsoft Visual Studio\2019\Community\VC\Tools\MSVC\14.28.29333\include\vcruntime_new.h

; 169  :         return _Where;

  00027	8b 45 f4	 mov	 eax, DWORD PTR $T4[ebp]
  0002a	89 45 e8	 mov	 DWORD PTR $T1[ebp], eax
; File C:\Program Files (x86)\Microsoft Visual Studio\2019\Community\VC\Tools\MSVC\14.28.29333\include\type_traits

; 1443 :     return static_cast<_Ty&&>(_Arg);

  0002d	8b 45 f0	 mov	 eax, DWORD PTR $T3[ebp]
  00030	89 45 ec	 mov	 DWORD PTR $T2[ebp], eax
; File C:\Program Files (x86)\Microsoft Visual Studio\2019\Community\VC\Tools\MSVC\14.28.29333\include\xmemory

; 701  :         ::new (const_cast<void*>(static_cast<const volatile void*>(_Ptr))) _Objty(_STD forward<_Types>(_Args)...);

  00033	ff 75 ec	 push	 DWORD PTR $T2[ebp]
  00036	8b 4d e8	 mov	 ecx, DWORD PTR $T1[ebp]
  00039	e8 00 00 00 00	 call	 ??0?$basic_string@DU?$char_traits@D@std@@V?$allocator@D@2@@std@@QAE@$$QAV01@@Z ; std::basic_string<char,std::char_traits<char>,std::allocator<char> >::basic_string<char,std::char_traits<char>,std::allocator<char> >

; 1547 :         ++_Last;

  0003e	8b 45 fc	 mov	 eax, DWORD PTR _this$[ebp]
  00041	8b 40 04	 mov	 eax, DWORD PTR [eax+4]
  00044	83 c0 18	 add	 eax, 24			; 00000018H
  00047	8b 4d fc	 mov	 ecx, DWORD PTR _this$[ebp]
  0004a	89 41 04	 mov	 DWORD PTR [ecx+4], eax

; 1548 :     }

  0004d	c9		 leave
  0004e	c2 04 00	 ret	 4
??$_Emplace_back@V?$basic_string@DU?$char_traits@D@std@@V?$allocator@D@2@@std@@@?$_Uninitialized_backout_al@V?$allocator@V?$basic_string@DU?$char_traits@D@std@@V?$allocator@D@2@@std@@@std@@@std@@QAEX$$QAV?$basic_string@DU?$char_traits@D@std@@V?$allocator@D@2@@1@@Z ENDP ; std::_Uninitialized_backout_al<std::allocator<std::basic_string<char,std::char_traits<char>,std::allocator<char> > > >::_Emplace_back<std::basic_string<char,std::char_traits<char>,std::allocator<char> > >
_TEXT	ENDS
; Function compile flags: /Odspy
; File C:\Program Files (x86)\Microsoft Visual Studio\2019\Community\VC\Tools\MSVC\14.28.29333\include\xmemory
;	COMDAT ??1?$_Uninitialized_backout_al@V?$allocator@V?$basic_string@DU?$char_traits@D@std@@V?$allocator@D@2@@std@@@std@@@std@@QAE@XZ
_TEXT	SEGMENT
_this$ = -4						; size = 4
??1?$_Uninitialized_backout_al@V?$allocator@V?$basic_string@DU?$char_traits@D@std@@V?$allocator@D@2@@std@@@std@@@std@@QAE@XZ PROC ; std::_Uninitialized_backout_al<std::allocator<std::basic_string<char,std::char_traits<char>,std::allocator<char> > > >::~_Uninitialized_backout_al<std::allocator<std::basic_string<char,std::char_traits<char>,std::allocator<char> > > >, COMDAT
; _this$ = ecx

; 1540 :     ~_Uninitialized_backout_al() {

  00000	55		 push	 ebp
  00001	8b ec		 mov	 ebp, esp
  00003	51		 push	 ecx
  00004	89 4d fc	 mov	 DWORD PTR _this$[ebp], ecx

; 1541 :         _Destroy_range(_First, _Last, _Al);

  00007	8b 45 fc	 mov	 eax, DWORD PTR _this$[ebp]
  0000a	ff 70 08	 push	 DWORD PTR [eax+8]
  0000d	8b 45 fc	 mov	 eax, DWORD PTR _this$[ebp]
  00010	ff 70 04	 push	 DWORD PTR [eax+4]
  00013	8b 45 fc	 mov	 eax, DWORD PTR _this$[ebp]
  00016	ff 30		 push	 DWORD PTR [eax]
  00018	e8 00 00 00 00	 call	 ??$_Destroy_range@V?$allocator@V?$basic_string@DU?$char_traits@D@std@@V?$allocator@D@2@@std@@@std@@@std@@YAXPAV?$basic_string@DU?$char_traits@D@std@@V?$allocator@D@2@@0@QAV10@AAV?$allocator@V?$basic_string@DU?$char_traits@D@std@@V?$allocator@D@2@@std@@@0@@Z ; std::_Destroy_range<std::allocator<std::basic_string<char,std::char_traits<char>,std::allocator<char> > > >
  0001d	83 c4 0c	 add	 esp, 12			; 0000000cH

; 1542 :     }

  00020	c9		 leave
  00021	c3		 ret	 0
??1?$_Uninitialized_backout_al@V?$allocator@V?$basic_string@DU?$char_traits@D@std@@V?$allocator@D@2@@std@@@std@@@std@@QAE@XZ ENDP ; std::_Uninitialized_backout_al<std::allocator<std::basic_string<char,std::char_traits<char>,std::allocator<char> > > >::~_Uninitialized_backout_al<std::allocator<std::basic_string<char,std::char_traits<char>,std::allocator<char> > > >
_TEXT	ENDS
; Function compile flags: /Odspy
; File C:\Program Files (x86)\Microsoft Visual Studio\2019\Community\VC\Tools\MSVC\14.28.29333\include\xmemory
;	COMDAT ??$_Allocate_manually_vector_aligned@U_Default_allocate_traits@std@@@std@@YAPAXI@Z
_TEXT	SEGMENT
__Ptr$ = -12						; size = 4
__Block_size$ = -8					; size = 4
__Ptr_container$ = -4					; size = 4
__Bytes$ = 8						; size = 4
??$_Allocate_manually_vector_aligned@U_Default_allocate_traits@std@@@std@@YAPAXI@Z PROC ; std::_Allocate_manually_vector_aligned<std::_Default_allocate_traits>, COMDAT

; 113  : __declspec(allocator) void* _Allocate_manually_vector_aligned(const size_t _Bytes) {

  00000	55		 push	 ebp
  00001	8b ec		 mov	 ebp, esp
  00003	83 ec 0c	 sub	 esp, 12			; 0000000cH

; 114  :     // allocate _Bytes manually aligned to at least _Big_allocation_alignment
; 115  :     const size_t _Block_size = _Non_user_size + _Bytes;

  00006	8b 45 08	 mov	 eax, DWORD PTR __Bytes$[ebp]
  00009	83 c0 23	 add	 eax, 35			; 00000023H
  0000c	89 45 f8	 mov	 DWORD PTR __Block_size$[ebp], eax

; 116  :     if (_Block_size <= _Bytes) {

  0000f	8b 45 f8	 mov	 eax, DWORD PTR __Block_size$[ebp]
  00012	3b 45 08	 cmp	 eax, DWORD PTR __Bytes$[ebp]
  00015	77 05		 ja	 SHORT $LN12@Allocate_m

; 117  :         _Throw_bad_array_new_length(); // add overflow

  00017	e8 00 00 00 00	 call	 ?_Throw_bad_array_new_length@std@@YAXXZ ; std::_Throw_bad_array_new_length
$LN12@Allocate_m:

; 77   :         return ::operator new(_Bytes);

  0001c	ff 75 f8	 push	 DWORD PTR __Block_size$[ebp]
  0001f	e8 00 00 00 00	 call	 ??2@YAPAXI@Z		; operator new
  00024	59		 pop	 ecx

; 118  :     }
; 119  : 
; 120  :     const uintptr_t _Ptr_container = reinterpret_cast<uintptr_t>(_Traits::_Allocate(_Block_size));

  00025	89 45 fc	 mov	 DWORD PTR __Ptr_container$[ebp], eax
$LN4@Allocate_m:

; 121  :     _STL_VERIFY(_Ptr_container != 0, "invalid argument"); // validate even in release since we're doing p[-1]

  00028	83 7d fc 00	 cmp	 DWORD PTR __Ptr_container$[ebp], 0
  0002c	74 02		 je	 SHORT $LN7@Allocate_m
  0002e	eb 09		 jmp	 SHORT $LN2@Allocate_m
$LN7@Allocate_m:
  00030	e8 00 00 00 00	 call	 __invalid_parameter_noinfo_noreturn
  00035	33 c0		 xor	 eax, eax
  00037	75 f7		 jne	 SHORT $LN7@Allocate_m
$LN2@Allocate_m:
  00039	33 c0		 xor	 eax, eax
  0003b	75 eb		 jne	 SHORT $LN4@Allocate_m

; 122  :     void* const _Ptr = reinterpret_cast<void*>((_Ptr_container + _Non_user_size) & ~(_Big_allocation_alignment - 1));

  0003d	8b 45 fc	 mov	 eax, DWORD PTR __Ptr_container$[ebp]
  00040	83 c0 23	 add	 eax, 35			; 00000023H
  00043	83 e0 e0	 and	 eax, -32		; ffffffe0H
  00046	89 45 f4	 mov	 DWORD PTR __Ptr$[ebp], eax

; 123  :     static_cast<uintptr_t*>(_Ptr)[-1] = _Ptr_container;

  00049	6a 04		 push	 4
  0004b	58		 pop	 eax
  0004c	6b c0 ff	 imul	 eax, eax, -1
  0004f	8b 4d f4	 mov	 ecx, DWORD PTR __Ptr$[ebp]
  00052	8b 55 fc	 mov	 edx, DWORD PTR __Ptr_container$[ebp]
  00055	89 14 01	 mov	 DWORD PTR [ecx+eax], edx

; 124  : 
; 125  : #ifdef _DEBUG
; 126  :     static_cast<uintptr_t*>(_Ptr)[-2] = _Big_allocation_sentinel;
; 127  : #endif // _DEBUG
; 128  :     return _Ptr;

  00058	8b 45 f4	 mov	 eax, DWORD PTR __Ptr$[ebp]
$LN11@Allocate_m:

; 129  : }

  0005b	c9		 leave
  0005c	c3		 ret	 0
??$_Allocate_manually_vector_aligned@U_Default_allocate_traits@std@@@std@@YAPAXI@Z ENDP ; std::_Allocate_manually_vector_aligned<std::_Default_allocate_traits>
_TEXT	ENDS
; Function compile flags: /Odspy
; File C:\Program Files (x86)\Microsoft Visual Studio\2019\Community\VC\Tools\MSVC\14.28.29333\include\xmemory
; File C:\Program Files (x86)\Microsoft Visual Studio\2019\Community\VC\Tools\MSVC\14.28.29333\include\xstddef
; File C:\Program Files (x86)\Microsoft Visual Studio\2019\Community\VC\Tools\MSVC\14.28.29333\include\vcruntime_new.h
; File C:\Program Files (x86)\Microsoft Visual Studio\2019\Community\VC\Tools\MSVC\14.28.29333\include\type_traits
; File C:\Program Files (x86)\Microsoft Visual Studio\2019\Community\VC\Tools\MSVC\14.28.29333\include\xmemory
;	COMDAT ??$_Construct_in_place@U_Container_proxy@std@@PAU_Container_base12@2@@std@@YAXAAU_Container_proxy@0@$$QAPAU_Container_base12@0@@Z
_TEXT	SEGMENT
__Mycont_$ = -16					; size = 4
$T1 = -12						; size = 4
$T2 = -8						; size = 4
$T3 = -4						; size = 4
__Obj$ = 8						; size = 4
_<_Args_0>$ = 12					; size = 4
??$_Construct_in_place@U_Container_proxy@std@@PAU_Container_base12@2@@std@@YAXAAU_Container_proxy@0@$$QAPAU_Container_base12@0@@Z PROC ; std::_Construct_in_place<std::_Container_proxy,std::_Container_base12 *>, COMDAT

; 228  : void _Construct_in_place(_Ty& _Obj, _Types&&... _Args) noexcept(is_nothrow_constructible_v<_Ty, _Types...>) {

  00000	55		 push	 ebp
  00001	8b ec		 mov	 ebp, esp
  00003	83 ec 10	 sub	 esp, 16			; 00000010H
; File C:\Program Files (x86)\Microsoft Visual Studio\2019\Community\VC\Tools\MSVC\14.28.29333\include\xstddef

; 275  :     return __builtin_addressof(_Val);

  00006	8b 45 08	 mov	 eax, DWORD PTR __Obj$[ebp]
  00009	89 45 f8	 mov	 DWORD PTR $T2[ebp], eax
; File C:\Program Files (x86)\Microsoft Visual Studio\2019\Community\VC\Tools\MSVC\14.28.29333\include\vcruntime_new.h

; 169  :         return _Where;

  0000c	8b 45 f8	 mov	 eax, DWORD PTR $T2[ebp]
  0000f	89 45 fc	 mov	 DWORD PTR $T3[ebp], eax
; File C:\Program Files (x86)\Microsoft Visual Studio\2019\Community\VC\Tools\MSVC\14.28.29333\include\type_traits

; 1443 :     return static_cast<_Ty&&>(_Arg);

  00012	8b 45 0c	 mov	 eax, DWORD PTR _<_Args_0>$[ebp]
  00015	89 45 f4	 mov	 DWORD PTR $T1[ebp], eax
; File C:\Program Files (x86)\Microsoft Visual Studio\2019\Community\VC\Tools\MSVC\14.28.29333\include\xmemory

; 229  :     ::new (const_cast<void*>(static_cast<const volatile void*>(_STD addressof(_Obj))))

  00018	8b 45 f4	 mov	 eax, DWORD PTR $T1[ebp]
  0001b	8b 00		 mov	 eax, DWORD PTR [eax]
  0001d	89 45 f0	 mov	 DWORD PTR __Mycont_$[ebp], eax

; 1089 :     _Container_proxy(_Container_base12* _Mycont_) noexcept : _Mycont(_Mycont_), _Myfirstiter(nullptr) {}

  00020	8b 45 fc	 mov	 eax, DWORD PTR $T3[ebp]
  00023	8b 4d f0	 mov	 ecx, DWORD PTR __Mycont_$[ebp]
  00026	89 08		 mov	 DWORD PTR [eax], ecx
  00028	8b 45 fc	 mov	 eax, DWORD PTR $T3[ebp]
  0002b	83 60 04 00	 and	 DWORD PTR [eax+4], 0

; 230  :         _Ty(_STD forward<_Types>(_Args)...);
; 231  : }

  0002f	c9		 leave
  00030	c3		 ret	 0
??$_Construct_in_place@U_Container_proxy@std@@PAU_Container_base12@2@@std@@YAXAAU_Container_proxy@0@$$QAPAU_Container_base12@0@@Z ENDP ; std::_Construct_in_place<std::_Container_proxy,std::_Container_base12 *>
_TEXT	ENDS
; Function compile flags: /Odspy
; File C:\Program Files (x86)\Microsoft Visual Studio\2019\Community\VC\Tools\MSVC\14.28.29333\include\xmemory
;	COMDAT ??$_Deallocate_plain@V?$allocator@U_Container_proxy@std@@@std@@@std@@YAXAAV?$allocator@U_Container_proxy@std@@@0@QAU_Container_proxy@0@@Z
_TEXT	SEGMENT
__Al$ = 8						; size = 4
__Ptr$ = 12						; size = 4
??$_Deallocate_plain@V?$allocator@U_Container_proxy@std@@@std@@@std@@YAXAAV?$allocator@U_Container_proxy@std@@@0@QAU_Container_proxy@0@@Z PROC ; std::_Deallocate_plain<std::allocator<std::_Container_proxy> >, COMDAT

; 1003 : void _Deallocate_plain(_Alloc& _Al, typename _Alloc::value_type* const _Ptr) noexcept {

  00000	55		 push	 ebp
  00001	8b ec		 mov	 ebp, esp

; 696  :         _Deallocate<_New_alignof<value_type>>(_Ptr, sizeof(value_type) * _Count);

  00003	33 c0		 xor	 eax, eax
  00005	40		 inc	 eax
  00006	c1 e0 03	 shl	 eax, 3
  00009	50		 push	 eax
  0000a	ff 75 0c	 push	 DWORD PTR __Ptr$[ebp]
  0000d	e8 00 00 00 00	 call	 ??$_Deallocate@$07$0A@@std@@YAXPAXI@Z ; std::_Deallocate<8,0>
  00012	59		 pop	 ecx
  00013	59		 pop	 ecx

; 1004 :     // deallocate a plain pointer using an allocator
; 1005 :     using _Alloc_traits = allocator_traits<_Alloc>;
; 1006 :     if constexpr (is_same_v<_Alloc_ptr_t<_Alloc>, typename _Alloc::value_type*>) {
; 1007 :         _Alloc_traits::deallocate(_Al, _Ptr, 1);
; 1008 :     } else {
; 1009 :         using _Ptr_traits = pointer_traits<_Alloc_ptr_t<_Alloc>>;
; 1010 :         _Alloc_traits::deallocate(_Al, _Ptr_traits::pointer_to(*_Ptr), 1);
; 1011 :     }
; 1012 : }

  00014	5d		 pop	 ebp
  00015	c3		 ret	 0
??$_Deallocate_plain@V?$allocator@U_Container_proxy@std@@@std@@@std@@YAXAAV?$allocator@U_Container_proxy@std@@@0@QAU_Container_proxy@0@@Z ENDP ; std::_Deallocate_plain<std::allocator<std::_Container_proxy> >
_TEXT	ENDS
; Function compile flags: /Odspy
; File C:\Program Files (x86)\Microsoft Visual Studio\2019\Community\VC\Tools\MSVC\14.28.29333\include\xmemory
; File C:\Program Files (x86)\Microsoft Visual Studio\2019\Community\VC\Tools\MSVC\14.28.29333\include\type_traits
; File C:\Program Files (x86)\Microsoft Visual Studio\2019\Community\VC\Tools\MSVC\14.28.29333\include\xmemory
;	COMDAT ??$_Uninitialized_move@PAV?$basic_string@DU?$char_traits@D@std@@V?$allocator@D@2@@std@@V?$allocator@V?$basic_string@DU?$char_traits@D@std@@V?$allocator@D@2@@std@@@2@@std@@YAPAV?$basic_string@DU?$char_traits@D@std@@V?$allocator@D@2@@0@QAV10@0PAV10@AAV?$allocator@V?$basic_string@DU?$char_traits@D@std@@V?$allocator@D@2@@std@@@0@@Z
_TEXT	SEGMENT
__Backout$2 = -40					; size = 12
$T3 = -28						; size = 4
$T4 = -24						; size = 4
__ULast$ = -20						; size = 4
__UFirst$ = -16						; size = 4
__$EHRec$ = -12						; size = 12
__First$ = 8						; size = 4
__Last$ = 12						; size = 4
__Dest$ = 16						; size = 4
__Al$ = 20						; size = 4
??$_Uninitialized_move@PAV?$basic_string@DU?$char_traits@D@std@@V?$allocator@D@2@@std@@V?$allocator@V?$basic_string@DU?$char_traits@D@std@@V?$allocator@D@2@@std@@@2@@std@@YAPAV?$basic_string@DU?$char_traits@D@std@@V?$allocator@D@2@@0@QAV10@0PAV10@AAV?$allocator@V?$basic_string@DU?$char_traits@D@std@@V?$allocator@D@2@@std@@@0@@Z PROC ; std::_Uninitialized_move<std::basic_string<char,std::char_traits<char>,std::allocator<char> > *,std::allocator<std::basic_string<char,std::char_traits<char>,std::allocator<char> > > >, COMDAT

; 1685 :     const _InIt _First, const _InIt _Last, _Alloc_ptr_t<_Alloc> _Dest, _Alloc& _Al) {

  00000	55		 push	 ebp
  00001	8b ec		 mov	 ebp, esp
  00003	6a ff		 push	 -1
  00005	68 00 00 00 00	 push	 __ehhandler$??$_Uninitialized_move@PAV?$basic_string@DU?$char_traits@D@std@@V?$allocator@D@2@@std@@V?$allocator@V?$basic_string@DU?$char_traits@D@std@@V?$allocator@D@2@@std@@@2@@std@@YAPAV?$basic_string@DU?$char_traits@D@std@@V?$allocator@D@2@@0@QAV10@0PAV10@AAV?$allocator@V?$basic_string@DU?$char_traits@D@std@@V?$allocator@D@2@@std@@@0@@Z
  0000a	64 a1 00 00 00
	00		 mov	 eax, DWORD PTR fs:0
  00010	50		 push	 eax
  00011	83 ec 1c	 sub	 esp, 28			; 0000001cH
  00014	a1 00 00 00 00	 mov	 eax, DWORD PTR ___security_cookie
  00019	33 c5		 xor	 eax, ebp
  0001b	50		 push	 eax
  0001c	8d 45 f4	 lea	 eax, DWORD PTR __$EHRec$[ebp]
  0001f	64 a3 00 00 00
	00		 mov	 DWORD PTR fs:0, eax

; 1686 :     // move [_First, _Last) to raw _Dest, using _Al
; 1687 :     // note: only called internally from elsewhere in the STL
; 1688 :     using _Ptrval     = typename _Alloc::value_type*;
; 1689 :     auto _UFirst      = _Get_unwrapped(_First);

  00025	8b 45 08	 mov	 eax, DWORD PTR __First$[ebp]
  00028	89 45 f0	 mov	 DWORD PTR __UFirst$[ebp], eax

; 1690 :     const auto _ULast = _Get_unwrapped(_Last);

  0002b	8b 45 0c	 mov	 eax, DWORD PTR __Last$[ebp]
  0002e	89 45 ec	 mov	 DWORD PTR __ULast$[ebp], eax

; 1535 :     _Uninitialized_backout_al(pointer _Dest, _Alloc& _Al_) : _First(_Dest), _Last(_Dest), _Al(_Al_) {}

  00031	8b 45 10	 mov	 eax, DWORD PTR __Dest$[ebp]
  00034	89 45 d8	 mov	 DWORD PTR __Backout$2[ebp], eax
  00037	8b 45 10	 mov	 eax, DWORD PTR __Dest$[ebp]
  0003a	89 45 dc	 mov	 DWORD PTR __Backout$2[ebp+4], eax
  0003d	8b 45 14	 mov	 eax, DWORD PTR __Al$[ebp]
  00040	89 45 e0	 mov	 DWORD PTR __Backout$2[ebp+8], eax

; 1691 :     if constexpr (conjunction_v<bool_constant<_Ptr_move_cat<decltype(_UFirst), _Ptrval>::_Really_trivial>,
; 1692 :                       _Uses_default_construct<_Alloc, _Ptrval, decltype(_STD move(*_UFirst))>>) {
; 1693 :         _Copy_memmove(_UFirst, _ULast, _Unfancy(_Dest));
; 1694 :         return _Dest + (_ULast - _UFirst);
; 1695 :     } else {
; 1696 :         _Uninitialized_backout_al<_Alloc> _Backout{_Dest, _Al};

  00043	83 65 fc 00	 and	 DWORD PTR __$EHRec$[ebp+8], 0

; 1697 :         for (; _UFirst != _ULast; ++_UFirst) {

  00047	eb 09		 jmp	 SHORT $LN4@Uninitiali
$LN2@Uninitiali:
  00049	8b 45 f0	 mov	 eax, DWORD PTR __UFirst$[ebp]
  0004c	83 c0 18	 add	 eax, 24			; 00000018H
  0004f	89 45 f0	 mov	 DWORD PTR __UFirst$[ebp], eax
$LN4@Uninitiali:
  00052	8b 45 f0	 mov	 eax, DWORD PTR __UFirst$[ebp]
  00055	3b 45 ec	 cmp	 eax, DWORD PTR __ULast$[ebp]
  00058	74 13		 je	 SHORT $LN3@Uninitiali
; File C:\Program Files (x86)\Microsoft Visual Studio\2019\Community\VC\Tools\MSVC\14.28.29333\include\type_traits

; 1455 :     return static_cast<remove_reference_t<_Ty>&&>(_Arg);

  0005a	8b 45 f0	 mov	 eax, DWORD PTR __UFirst$[ebp]
  0005d	89 45 e8	 mov	 DWORD PTR $T4[ebp], eax
; File C:\Program Files (x86)\Microsoft Visual Studio\2019\Community\VC\Tools\MSVC\14.28.29333\include\xmemory

; 1698 :             _Backout._Emplace_back(_STD move(*_UFirst));

  00060	ff 75 e8	 push	 DWORD PTR $T4[ebp]
  00063	8d 4d d8	 lea	 ecx, DWORD PTR __Backout$2[ebp]
  00066	e8 00 00 00 00	 call	 ??$_Emplace_back@V?$basic_string@DU?$char_traits@D@std@@V?$allocator@D@2@@std@@@?$_Uninitialized_backout_al@V?$allocator@V?$basic_string@DU?$char_traits@D@std@@V?$allocator@D@2@@std@@@std@@@std@@QAEX$$QAV?$basic_string@DU?$char_traits@D@std@@V?$allocator@D@2@@1@@Z ; std::_Uninitialized_backout_al<std::allocator<std::basic_string<char,std::char_traits<char>,std::allocator<char> > > >::_Emplace_back<std::basic_string<char,std::char_traits<char>,std::allocator<char> > >

; 1699 :         }

  0006b	eb dc		 jmp	 SHORT $LN2@Uninitiali
$LN3@Uninitiali:

; 1551 :         _First = _Last;

  0006d	8b 45 dc	 mov	 eax, DWORD PTR __Backout$2[ebp+4]
  00070	89 45 d8	 mov	 DWORD PTR __Backout$2[ebp], eax

; 1552 :         return _Last;

  00073	8b 45 dc	 mov	 eax, DWORD PTR __Backout$2[ebp+4]
  00076	89 45 e4	 mov	 DWORD PTR $T3[ebp], eax

; 1700 : 
; 1701 :         return _Backout._Release();

  00079	83 4d fc ff	 or	 DWORD PTR __$EHRec$[ebp+8], -1

; 1541 :         _Destroy_range(_First, _Last, _Al);

  0007d	ff 75 e0	 push	 DWORD PTR __Backout$2[ebp+8]
  00080	ff 75 dc	 push	 DWORD PTR __Backout$2[ebp+4]
  00083	ff 75 d8	 push	 DWORD PTR __Backout$2[ebp]
  00086	e8 00 00 00 00	 call	 ??$_Destroy_range@V?$allocator@V?$basic_string@DU?$char_traits@D@std@@V?$allocator@D@2@@std@@@std@@@std@@YAXPAV?$basic_string@DU?$char_traits@D@std@@V?$allocator@D@2@@0@QAV10@AAV?$allocator@V?$basic_string@DU?$char_traits@D@std@@V?$allocator@D@2@@std@@@0@@Z ; std::_Destroy_range<std::allocator<std::basic_string<char,std::char_traits<char>,std::allocator<char> > > >
  0008b	83 c4 0c	 add	 esp, 12			; 0000000cH

; 1700 : 
; 1701 :         return _Backout._Release();

  0008e	8b 45 e4	 mov	 eax, DWORD PTR $T3[ebp]

; 1702 :     }
; 1703 : }

  00091	8b 4d f4	 mov	 ecx, DWORD PTR __$EHRec$[ebp]
  00094	64 89 0d 00 00
	00 00		 mov	 DWORD PTR fs:0, ecx
  0009b	59		 pop	 ecx
  0009c	c9		 leave
  0009d	c3		 ret	 0
_TEXT	ENDS
;	COMDAT text$x
text$x	SEGMENT
__unwindfunclet$??$_Uninitialized_move@PAV?$basic_string@DU?$char_traits@D@std@@V?$allocator@D@2@@std@@V?$allocator@V?$basic_string@DU?$char_traits@D@std@@V?$allocator@D@2@@std@@@2@@std@@YAPAV?$basic_string@DU?$char_traits@D@std@@V?$allocator@D@2@@0@QAV10@0PAV10@AAV?$allocator@V?$basic_string@DU?$char_traits@D@std@@V?$allocator@D@2@@std@@@0@@Z$0:
  00000	8d 4d d8	 lea	 ecx, DWORD PTR __Backout$2[ebp]
  00003	e9 00 00 00 00	 jmp	 ??1?$_Uninitialized_backout_al@V?$allocator@V?$basic_string@DU?$char_traits@D@std@@V?$allocator@D@2@@std@@@std@@@std@@QAE@XZ ; std::_Uninitialized_backout_al<std::allocator<std::basic_string<char,std::char_traits<char>,std::allocator<char> > > >::~_Uninitialized_backout_al<std::allocator<std::basic_string<char,std::char_traits<char>,std::allocator<char> > > >
  00008	cc		 int	 3
  00009	cc		 int	 3
  0000a	cc		 int	 3
  0000b	cc		 int	 3
  0000c	cc		 int	 3
__ehhandler$??$_Uninitialized_move@PAV?$basic_string@DU?$char_traits@D@std@@V?$allocator@D@2@@std@@V?$allocator@V?$basic_string@DU?$char_traits@D@std@@V?$allocator@D@2@@std@@@2@@std@@YAPAV?$basic_string@DU?$char_traits@D@std@@V?$allocator@D@2@@0@QAV10@0PAV10@AAV?$allocator@V?$basic_string@DU?$char_traits@D@std@@V?$allocator@D@2@@std@@@0@@Z:
  0000d	90		 npad	 1
  0000e	90		 npad	 1
  0000f	8b 54 24 08	 mov	 edx, DWORD PTR [esp+8]
  00013	8d 42 0c	 lea	 eax, DWORD PTR [edx+12]
  00016	8b 4a e0	 mov	 ecx, DWORD PTR [edx-32]
  00019	33 c8		 xor	 ecx, eax
  0001b	e8 00 00 00 00	 call	 @__security_check_cookie@4
  00020	b8 00 00 00 00	 mov	 eax, OFFSET __ehfuncinfo$??$_Uninitialized_move@PAV?$basic_string@DU?$char_traits@D@std@@V?$allocator@D@2@@std@@V?$allocator@V?$basic_string@DU?$char_traits@D@std@@V?$allocator@D@2@@std@@@2@@std@@YAPAV?$basic_string@DU?$char_traits@D@std@@V?$allocator@D@2@@0@QAV10@0PAV10@AAV?$allocator@V?$basic_string@DU?$char_traits@D@std@@V?$allocator@D@2@@std@@@0@@Z
  00025	e9 00 00 00 00	 jmp	 ___CxxFrameHandler3
text$x	ENDS
??$_Uninitialized_move@PAV?$basic_string@DU?$char_traits@D@std@@V?$allocator@D@2@@std@@V?$allocator@V?$basic_string@DU?$char_traits@D@std@@V?$allocator@D@2@@std@@@2@@std@@YAPAV?$basic_string@DU?$char_traits@D@std@@V?$allocator@D@2@@0@QAV10@0PAV10@AAV?$allocator@V?$basic_string@DU?$char_traits@D@std@@V?$allocator@D@2@@std@@@0@@Z ENDP ; std::_Uninitialized_move<std::basic_string<char,std::char_traits<char>,std::allocator<char> > *,std::allocator<std::basic_string<char,std::char_traits<char>,std::allocator<char> > > >
; Function compile flags: /Odspy
; File C:\Program Files (x86)\Microsoft Visual Studio\2019\Community\VC\Tools\MSVC\14.28.29333\include\xmemory
;	COMDAT ??$_Allocate@$07U_Default_allocate_traits@std@@$0A@@std@@YAPAXI@Z
_TEXT	SEGMENT
__Bytes$ = 8						; size = 4
??$_Allocate@$07U_Default_allocate_traits@std@@$0A@@std@@YAPAXI@Z PROC ; std::_Allocate<8,std::_Default_allocate_traits,0>, COMDAT

; 197  : __declspec(allocator) void* _Allocate(const size_t _Bytes) {

  00000	55		 push	 ebp
  00001	8b ec		 mov	 ebp, esp

; 198  :     // allocate _Bytes when !_HAS_ALIGNED_NEW || _Align <= __STDCPP_DEFAULT_NEW_ALIGNMENT__
; 199  : #if defined(_M_IX86) || defined(_M_X64)
; 200  :     if (_Bytes >= _Big_allocation_threshold) { // boost the alignment of big allocations to help autovectorization

  00003	81 7d 08 00 10
	00 00		 cmp	 DWORD PTR __Bytes$[ebp], 4096 ; 00001000H
  0000a	72 0b		 jb	 SHORT $LN2@Allocate

; 201  :         return _Allocate_manually_vector_aligned<_Traits>(_Bytes);

  0000c	ff 75 08	 push	 DWORD PTR __Bytes$[ebp]
  0000f	e8 00 00 00 00	 call	 ??$_Allocate_manually_vector_aligned@U_Default_allocate_traits@std@@@std@@YAPAXI@Z ; std::_Allocate_manually_vector_aligned<std::_Default_allocate_traits>
  00014	59		 pop	 ecx
  00015	eb 13		 jmp	 SHORT $LN1@Allocate
$LN2@Allocate:

; 202  :     }
; 203  : #endif // defined(_M_IX86) || defined(_M_X64)
; 204  : 
; 205  :     if (_Bytes != 0) {

  00017	83 7d 08 00	 cmp	 DWORD PTR __Bytes$[ebp], 0
  0001b	74 0b		 je	 SHORT $LN3@Allocate

; 77   :         return ::operator new(_Bytes);

  0001d	ff 75 08	 push	 DWORD PTR __Bytes$[ebp]
  00020	e8 00 00 00 00	 call	 ??2@YAPAXI@Z		; operator new
  00025	59		 pop	 ecx

; 206  :         return _Traits::_Allocate(_Bytes);

  00026	eb 02		 jmp	 SHORT $LN1@Allocate
$LN3@Allocate:

; 207  :     }
; 208  : 
; 209  :     return nullptr;

  00028	33 c0		 xor	 eax, eax
$LN1@Allocate:

; 210  : }

  0002a	5d		 pop	 ebp
  0002b	c3		 ret	 0
??$_Allocate@$07U_Default_allocate_traits@std@@$0A@@std@@YAPAXI@Z ENDP ; std::_Allocate<8,std::_Default_allocate_traits,0>
_TEXT	ENDS
; Function compile flags: /Odspy
; File C:\Program Files (x86)\Microsoft Visual Studio\2019\Community\VC\Tools\MSVC\14.28.29333\include\xmemory
;	COMDAT ??$_Deallocate@$07$0A@@std@@YAXPAXI@Z
_TEXT	SEGMENT
__$EHRec$ = -12						; size = 12
__Ptr$ = 8						; size = 4
__Bytes$ = 12						; size = 4
??$_Deallocate@$07$0A@@std@@YAXPAXI@Z PROC		; std::_Deallocate<8,0>, COMDAT

; 213  : void _Deallocate(void* _Ptr, size_t _Bytes) noexcept {

  00000	55		 push	 ebp
  00001	8b ec		 mov	 ebp, esp
  00003	6a ff		 push	 -1
  00005	68 00 00 00 00	 push	 __ehhandler$??$_Deallocate@$07$0A@@std@@YAXPAXI@Z
  0000a	64 a1 00 00 00
	00		 mov	 eax, DWORD PTR fs:0
  00010	50		 push	 eax
  00011	a1 00 00 00 00	 mov	 eax, DWORD PTR ___security_cookie
  00016	33 c5		 xor	 eax, ebp
  00018	50		 push	 eax
  00019	8d 45 f4	 lea	 eax, DWORD PTR __$EHRec$[ebp]
  0001c	64 a3 00 00 00
	00		 mov	 DWORD PTR fs:0, eax

; 214  :     // deallocate storage allocated by _Allocate when !_HAS_ALIGNED_NEW || _Align <= __STDCPP_DEFAULT_NEW_ALIGNMENT__
; 215  : #if defined(_M_IX86) || defined(_M_X64)
; 216  :     if (_Bytes >= _Big_allocation_threshold) { // boost the alignment of big allocations to help autovectorization

  00022	81 7d 0c 00 10
	00 00		 cmp	 DWORD PTR __Bytes$[ebp], 4096 ; 00001000H
  00029	72 0f		 jb	 SHORT $LN2@Deallocate

; 217  :         _Adjust_manually_vector_aligned(_Ptr, _Bytes);

  0002b	8d 45 0c	 lea	 eax, DWORD PTR __Bytes$[ebp]
  0002e	50		 push	 eax
  0002f	8d 45 08	 lea	 eax, DWORD PTR __Ptr$[ebp]
  00032	50		 push	 eax
  00033	e8 00 00 00 00	 call	 ?_Adjust_manually_vector_aligned@std@@YAXAAPAXAAI@Z ; std::_Adjust_manually_vector_aligned
  00038	59		 pop	 ecx
  00039	59		 pop	 ecx
$LN2@Deallocate:

; 218  :     }
; 219  : #endif // defined(_M_IX86) || defined(_M_X64)
; 220  : 
; 221  :     ::operator delete(_Ptr, _Bytes);

  0003a	ff 75 0c	 push	 DWORD PTR __Bytes$[ebp]
  0003d	ff 75 08	 push	 DWORD PTR __Ptr$[ebp]
  00040	e8 00 00 00 00	 call	 ??3@YAXPAXI@Z		; operator delete
  00045	59		 pop	 ecx
  00046	59		 pop	 ecx

; 222  : }

  00047	8b 4d f4	 mov	 ecx, DWORD PTR __$EHRec$[ebp]
  0004a	64 89 0d 00 00
	00 00		 mov	 DWORD PTR fs:0, ecx
  00051	59		 pop	 ecx
  00052	c9		 leave
  00053	c3		 ret	 0
  00054	cc		 int	 3
  00055	cc		 int	 3
  00056	cc		 int	 3
  00057	cc		 int	 3
  00058	cc		 int	 3
_TEXT	ENDS
;	COMDAT text$x
text$x	SEGMENT
__ehhandler$??$_Deallocate@$07$0A@@std@@YAXPAXI@Z:
  00000	90		 npad	 1
  00001	90		 npad	 1
  00002	8b 54 24 08	 mov	 edx, DWORD PTR [esp+8]
  00006	8d 42 0c	 lea	 eax, DWORD PTR [edx+12]
  00009	8b 4a fc	 mov	 ecx, DWORD PTR [edx-4]
  0000c	33 c8		 xor	 ecx, eax
  0000e	e8 00 00 00 00	 call	 @__security_check_cookie@4
  00013	b8 00 00 00 00	 mov	 eax, OFFSET __ehfuncinfo$??$_Deallocate@$07$0A@@std@@YAXPAXI@Z
  00018	e9 00 00 00 00	 jmp	 ___CxxFrameHandler3
text$x	ENDS
??$_Deallocate@$07$0A@@std@@YAXPAXI@Z ENDP		; std::_Deallocate<8,0>
; Function compile flags: /Odspy
; File C:\Program Files (x86)\Microsoft Visual Studio\2019\Community\VC\Tools\MSVC\14.28.29333\include\xmemory
;	COMDAT ??$_Pocma@V?$allocator@D@std@@@std@@YAXAAV?$allocator@D@0@0@Z
_TEXT	SEGMENT
__Left$ = 8						; size = 4
__Right$ = 12						; size = 4
??$_Pocma@V?$allocator@D@std@@@std@@YAXAAV?$allocator@D@0@0@Z PROC ; std::_Pocma<std::allocator<char> >, COMDAT

; 908  : void _Pocma(_Alloc& _Left, _Alloc& _Right) noexcept { // (maybe) propagate on container move assignment

  00000	55		 push	 ebp
  00001	8b ec		 mov	 ebp, esp

; 909  :     if constexpr (allocator_traits<_Alloc>::propagate_on_container_move_assignment::value) {
; 910  :         _Left = _STD move(_Right);
; 911  :     }
; 912  : }

  00003	5d		 pop	 ebp
  00004	c3		 ret	 0
??$_Pocma@V?$allocator@D@std@@@std@@YAXAAV?$allocator@D@0@0@Z ENDP ; std::_Pocma<std::allocator<char> >
_TEXT	ENDS
; Function compile flags: /Odspy
; File C:\Program Files (x86)\Microsoft Visual Studio\2019\Community\VC\Tools\MSVC\14.28.29333\include\xmemory
; File C:\Program Files (x86)\Microsoft Visual Studio\2019\Community\VC\Tools\MSVC\14.28.29333\include\xstddef
; File C:\Program Files (x86)\Microsoft Visual Studio\2019\Community\VC\Tools\MSVC\14.28.29333\include\vcruntime_new.h
; File C:\Program Files (x86)\Microsoft Visual Studio\2019\Community\VC\Tools\MSVC\14.28.29333\include\type_traits
; File C:\Program Files (x86)\Microsoft Visual Studio\2019\Community\VC\Tools\MSVC\14.28.29333\include\xmemory
;	COMDAT ??$_Construct_in_place@PADABQAD@std@@YAXAAPADABQAD@Z
_TEXT	SEGMENT
$T1 = -12						; size = 4
$T2 = -8						; size = 4
$T3 = -4						; size = 4
__Obj$ = 8						; size = 4
_<_Args_0>$ = 12					; size = 4
??$_Construct_in_place@PADABQAD@std@@YAXAAPADABQAD@Z PROC ; std::_Construct_in_place<char *,char * const &>, COMDAT

; 228  : void _Construct_in_place(_Ty& _Obj, _Types&&... _Args) noexcept(is_nothrow_constructible_v<_Ty, _Types...>) {

  00000	55		 push	 ebp
  00001	8b ec		 mov	 ebp, esp
  00003	83 ec 0c	 sub	 esp, 12			; 0000000cH
; File C:\Program Files (x86)\Microsoft Visual Studio\2019\Community\VC\Tools\MSVC\14.28.29333\include\xstddef

; 275  :     return __builtin_addressof(_Val);

  00006	8b 45 08	 mov	 eax, DWORD PTR __Obj$[ebp]
  00009	89 45 fc	 mov	 DWORD PTR $T3[ebp], eax
; File C:\Program Files (x86)\Microsoft Visual Studio\2019\Community\VC\Tools\MSVC\14.28.29333\include\vcruntime_new.h

; 169  :         return _Where;

  0000c	8b 45 fc	 mov	 eax, DWORD PTR $T3[ebp]
  0000f	89 45 f8	 mov	 DWORD PTR $T2[ebp], eax
; File C:\Program Files (x86)\Microsoft Visual Studio\2019\Community\VC\Tools\MSVC\14.28.29333\include\type_traits

; 1443 :     return static_cast<_Ty&&>(_Arg);

  00012	8b 45 0c	 mov	 eax, DWORD PTR _<_Args_0>$[ebp]
  00015	89 45 f4	 mov	 DWORD PTR $T1[ebp], eax
; File C:\Program Files (x86)\Microsoft Visual Studio\2019\Community\VC\Tools\MSVC\14.28.29333\include\xmemory

; 229  :     ::new (const_cast<void*>(static_cast<const volatile void*>(_STD addressof(_Obj))))

  00018	8b 45 f8	 mov	 eax, DWORD PTR $T2[ebp]
  0001b	8b 4d f4	 mov	 ecx, DWORD PTR $T1[ebp]
  0001e	8b 09		 mov	 ecx, DWORD PTR [ecx]
  00020	89 08		 mov	 DWORD PTR [eax], ecx

; 230  :         _Ty(_STD forward<_Types>(_Args)...);
; 231  : }

  00022	c9		 leave
  00023	c3		 ret	 0
??$_Construct_in_place@PADABQAD@std@@YAXAAPADABQAD@Z ENDP ; std::_Construct_in_place<char *,char * const &>
_TEXT	ENDS
; Function compile flags: /Odspy
; File C:\Program Files (x86)\Microsoft Visual Studio\2019\Community\VC\Tools\MSVC\14.28.29333\include\xstring
; File C:\Program Files (x86)\Microsoft Visual Studio\2019\Community\VC\Tools\MSVC\14.28.29333\include\xmemory
; File C:\Program Files (x86)\Microsoft Visual Studio\2019\Community\VC\Tools\MSVC\14.28.29333\include\xstring
; File C:\Program Files (x86)\Microsoft Visual Studio\2019\Community\VC\Tools\MSVC\14.28.29333\include\xmemory
; File C:\Program Files (x86)\Microsoft Visual Studio\2019\Community\VC\Tools\MSVC\14.28.29333\include\xstring
; File C:\Program Files (x86)\Microsoft Visual Studio\2019\Community\VC\Tools\MSVC\14.28.29333\include\xmemory
; File C:\Program Files (x86)\Microsoft Visual Studio\2019\Community\VC\Tools\MSVC\14.28.29333\include\xstring
; File C:\Program Files (x86)\Microsoft Visual Studio\2019\Community\VC\Tools\MSVC\14.28.29333\include\xstddef
; File C:\Program Files (x86)\Microsoft Visual Studio\2019\Community\VC\Tools\MSVC\14.28.29333\include\xstring
; File C:\Program Files (x86)\Microsoft Visual Studio\2019\Community\VC\Tools\MSVC\14.28.29333\include\xstddef
; File C:\Program Files (x86)\Microsoft Visual Studio\2019\Community\VC\Tools\MSVC\14.28.29333\include\xstring
; File C:\Program Files (x86)\Microsoft Visual Studio\2019\Community\VC\Tools\MSVC\14.28.29333\include\xmemory
; File C:\Program Files (x86)\Microsoft Visual Studio\2019\Community\VC\Tools\MSVC\14.28.29333\include\xstring
;	COMDAT ??$_Reallocate_grow_by@V<lambda_c1b8c41cb4019640539cfd828748c4d4>@@ID@?$basic_string@DU?$char_traits@D@std@@V?$allocator@D@2@@std@@AAEAAV01@IV<lambda_c1b8c41cb4019640539cfd828748c4d4>@@ID@Z
_TEXT	SEGMENT
__Al$ = -56						; size = 4
$T1 = -52						; size = 4
__Ptr$ = -48						; size = 4
$T2 = -44						; size = 4
__Old_ptr$3 = -40					; size = 4
__Old_capacity$ = -36					; size = 4
__New_capacity$ = -32					; size = 4
__New_size$ = -28					; size = 4
__New_ptr$ = -24					; size = 4
_this$ = -20						; size = 4
__Raw_new$ = -16					; size = 4
__My_data$ = -12					; size = 4
__Old_size$ = -8					; size = 4
__Overflow_is_possible$4 = -3				; size = 1
$T5 = -2						; size = 1
$T6 = -1						; size = 1
__Size_increase$ = 8					; size = 4
__Fn$ = 12						; size = 1
_<_Args_0>$ = 16					; size = 4
_<_Args_1>$ = 20					; size = 1
??$_Reallocate_grow_by@V<lambda_c1b8c41cb4019640539cfd828748c4d4>@@ID@?$basic_string@DU?$char_traits@D@std@@V?$allocator@D@2@@std@@AAEAAV01@IV<lambda_c1b8c41cb4019640539cfd828748c4d4>@@ID@Z PROC ; std::basic_string<char,std::char_traits<char>,std::allocator<char> >::_Reallocate_grow_by<<lambda_c1b8c41cb4019640539cfd828748c4d4>,unsigned int,char>, COMDAT
; _this$ = ecx

; 4328 :     basic_string& _Reallocate_grow_by(const size_type _Size_increase, _Fty _Fn, _ArgTys... _Args) {

  00000	55		 push	 ebp
  00001	8b ec		 mov	 ebp, esp
  00003	83 ec 38	 sub	 esp, 56			; 00000038H
  00006	89 4d ec	 mov	 DWORD PTR _this$[ebp], ecx

; 4329 :         // reallocate to increase size by _Size_increase elements, new buffer prepared by
; 4330 :         // _Fn(_New_ptr, _Old_ptr, _Old_size, _Args...)
; 4331 :         auto& _My_data            = _Mypair._Myval2;

  00009	8b 45 ec	 mov	 eax, DWORD PTR _this$[ebp]
  0000c	89 45 f4	 mov	 DWORD PTR __My_data$[ebp], eax

; 4332 :         const size_type _Old_size = _My_data._Mysize;

  0000f	8b 45 f4	 mov	 eax, DWORD PTR __My_data$[ebp]
  00012	8b 40 10	 mov	 eax, DWORD PTR [eax+16]
  00015	89 45 f8	 mov	 DWORD PTR __Old_size$[ebp], eax

; 4333 :         if (max_size() - _Old_size < _Size_increase) {

  00018	8b 4d ec	 mov	 ecx, DWORD PTR _this$[ebp]
  0001b	e8 00 00 00 00	 call	 ?max_size@?$basic_string@DU?$char_traits@D@std@@V?$allocator@D@2@@std@@QBEIXZ ; std::basic_string<char,std::char_traits<char>,std::allocator<char> >::max_size
  00020	2b 45 f8	 sub	 eax, DWORD PTR __Old_size$[ebp]
  00023	3b 45 08	 cmp	 eax, DWORD PTR __Size_increase$[ebp]
  00026	73 05		 jae	 SHORT $LN2@Reallocate

; 4334 :             _Xlen_string(); // result too long

  00028	e8 00 00 00 00	 call	 ?_Xlen_string@std@@YAXXZ ; std::_Xlen_string
$LN2@Reallocate:

; 4335 :         }
; 4336 : 
; 4337 :         const size_type _New_size     = _Old_size + _Size_increase;

  0002d	8b 45 f8	 mov	 eax, DWORD PTR __Old_size$[ebp]
  00030	03 45 08	 add	 eax, DWORD PTR __Size_increase$[ebp]
  00033	89 45 e4	 mov	 DWORD PTR __New_size$[ebp], eax

; 4338 :         const size_type _Old_capacity = _My_data._Myres;

  00036	8b 45 f4	 mov	 eax, DWORD PTR __My_data$[ebp]
  00039	8b 40 14	 mov	 eax, DWORD PTR [eax+20]
  0003c	89 45 dc	 mov	 DWORD PTR __Old_capacity$[ebp], eax

; 4298 :         return _Calculate_growth(_Requested, _Mypair._Myval2._Myres, max_size());

  0003f	8b 4d ec	 mov	 ecx, DWORD PTR _this$[ebp]
  00042	e8 00 00 00 00	 call	 ?max_size@?$basic_string@DU?$char_traits@D@std@@V?$allocator@D@2@@std@@QBEIXZ ; std::basic_string<char,std::char_traits<char>,std::allocator<char> >::max_size
  00047	50		 push	 eax
  00048	8b 45 ec	 mov	 eax, DWORD PTR _this$[ebp]
  0004b	ff 70 14	 push	 DWORD PTR [eax+20]
  0004e	ff 75 e4	 push	 DWORD PTR __New_size$[ebp]
  00051	e8 00 00 00 00	 call	 ?_Calculate_growth@?$basic_string@DU?$char_traits@D@std@@V?$allocator@D@2@@std@@CAIIII@Z ; std::basic_string<char,std::char_traits<char>,std::allocator<char> >::_Calculate_growth
  00056	83 c4 0c	 add	 esp, 12			; 0000000cH
  00059	89 45 e0	 mov	 DWORD PTR __New_capacity$[ebp], eax

; 4409 :         return _Mypair._Get_first();

  0005c	8b 45 ec	 mov	 eax, DWORD PTR _this$[ebp]
; File C:\Program Files (x86)\Microsoft Visual Studio\2019\Community\VC\Tools\MSVC\14.28.29333\include\xmemory

; 1347 :         return *this;

  0005f	89 45 d4	 mov	 DWORD PTR $T2[ebp], eax
; File C:\Program Files (x86)\Microsoft Visual Studio\2019\Community\VC\Tools\MSVC\14.28.29333\include\xstring

; 4409 :         return _Mypair._Get_first();

  00062	8b 45 d4	 mov	 eax, DWORD PTR $T2[ebp]
  00065	89 45 c8	 mov	 DWORD PTR __Al$[ebp], eax
; File C:\Program Files (x86)\Microsoft Visual Studio\2019\Community\VC\Tools\MSVC\14.28.29333\include\xmemory

; 56   :     constexpr bool _Overflow_is_possible = _Ty_size > 1;

  00068	c6 45 fd 00	 mov	 BYTE PTR __Overflow_is_possible$4[ebp], 0
; File C:\Program Files (x86)\Microsoft Visual Studio\2019\Community\VC\Tools\MSVC\14.28.29333\include\xstring

; 4341 :         const pointer _New_ptr        = _Al.allocate(_New_capacity + 1); // throws

  0006c	8b 45 e0	 mov	 eax, DWORD PTR __New_capacity$[ebp]
  0006f	40		 inc	 eax
; File C:\Program Files (x86)\Microsoft Visual Studio\2019\Community\VC\Tools\MSVC\14.28.29333\include\xmemory

; 814  :         return static_cast<_Ty*>(_Allocate<_New_alignof<_Ty>>(_Get_size_of_n<sizeof(_Ty)>(_Count)));

  00070	50		 push	 eax
  00071	e8 00 00 00 00	 call	 ??$_Allocate@$07U_Default_allocate_traits@std@@$0A@@std@@YAPAXI@Z ; std::_Allocate<8,std::_Default_allocate_traits,0>
  00076	59		 pop	 ecx
; File C:\Program Files (x86)\Microsoft Visual Studio\2019\Community\VC\Tools\MSVC\14.28.29333\include\xstring

; 4341 :         const pointer _New_ptr        = _Al.allocate(_New_capacity + 1); // throws

  00077	89 45 e8	 mov	 DWORD PTR __New_ptr$[ebp], eax

; 4342 :         _My_data._Orphan_all();
; 4343 :         _My_data._Mysize      = _New_size;

  0007a	8b 45 f4	 mov	 eax, DWORD PTR __My_data$[ebp]
  0007d	8b 4d e4	 mov	 ecx, DWORD PTR __New_size$[ebp]
  00080	89 48 10	 mov	 DWORD PTR [eax+16], ecx

; 4344 :         _My_data._Myres       = _New_capacity;

  00083	8b 45 f4	 mov	 eax, DWORD PTR __My_data$[ebp]
  00086	8b 4d e0	 mov	 ecx, DWORD PTR __New_capacity$[ebp]
  00089	89 48 14	 mov	 DWORD PTR [eax+20], ecx

; 4345 :         _Elem* const _Raw_new = _Unfancy(_New_ptr);

  0008c	8b 45 e8	 mov	 eax, DWORD PTR __New_ptr$[ebp]
  0008f	89 45 d0	 mov	 DWORD PTR __Ptr$[ebp], eax
; File C:\Program Files (x86)\Microsoft Visual Studio\2019\Community\VC\Tools\MSVC\14.28.29333\include\xstddef

; 289  :     return _Ptr;

  00092	8b 45 d0	 mov	 eax, DWORD PTR __Ptr$[ebp]
  00095	89 45 f0	 mov	 DWORD PTR __Raw_new$[ebp], eax
; File C:\Program Files (x86)\Microsoft Visual Studio\2019\Community\VC\Tools\MSVC\14.28.29333\include\xstring

; 4346 :         if (_BUF_SIZE <= _Old_capacity) {

  00098	83 7d dc 10	 cmp	 DWORD PTR __Old_capacity$[ebp], 16 ; 00000010H
  0009c	72 62		 jb	 SHORT $LN3@Reallocate

; 4347 :             const pointer _Old_ptr = _My_data._Bx._Ptr;

  0009e	8b 45 f4	 mov	 eax, DWORD PTR __My_data$[ebp]
  000a1	8b 00		 mov	 eax, DWORD PTR [eax]
  000a3	89 45 d8	 mov	 DWORD PTR __Old_ptr$3[ebp], eax
; File C:\Program Files (x86)\Microsoft Visual Studio\2019\Community\VC\Tools\MSVC\14.28.29333\include\xstddef

; 289  :     return _Ptr;

  000a6	8b 45 d8	 mov	 eax, DWORD PTR __Old_ptr$3[ebp]
  000a9	89 45 cc	 mov	 DWORD PTR $T1[ebp], eax
; File C:\Program Files (x86)\Microsoft Visual Studio\2019\Community\VC\Tools\MSVC\14.28.29333\include\xstring

; 62   :         _CSTD memcpy(_First1, _First2, _Count * sizeof(_Elem));

  000ac	ff 75 f8	 push	 DWORD PTR __Old_size$[ebp]
  000af	ff 75 cc	 push	 DWORD PTR $T1[ebp]
  000b2	ff 75 f0	 push	 DWORD PTR __Raw_new$[ebp]
  000b5	e8 00 00 00 00	 call	 _memcpy
  000ba	83 c4 0c	 add	 esp, 12			; 0000000cH

; 424  :         return static_cast<_Elem*>(_CSTD memset(_First, _Ch, _Count));

  000bd	ff 75 10	 push	 DWORD PTR _<_Args_0>$[ebp]
  000c0	0f be 45 14	 movsx	 eax, BYTE PTR _<_Args_1>$[ebp]
  000c4	50		 push	 eax

; 2976 :                 _Traits::assign(_New_ptr + _Old_size, _Count, _Ch);

  000c5	8b 45 f0	 mov	 eax, DWORD PTR __Raw_new$[ebp]
  000c8	03 45 f8	 add	 eax, DWORD PTR __Old_size$[ebp]

; 424  :         return static_cast<_Elem*>(_CSTD memset(_First, _Ch, _Count));

  000cb	50		 push	 eax
  000cc	e8 00 00 00 00	 call	 _memset
  000d1	83 c4 0c	 add	 esp, 12			; 0000000cH

; 2977 :                 _Traits::assign(_New_ptr[_Old_size + _Count], _Elem());

  000d4	c6 45 ff 00	 mov	 BYTE PTR $T6[ebp], 0
  000d8	8b 45 f8	 mov	 eax, DWORD PTR __Old_size$[ebp]
  000db	03 45 10	 add	 eax, DWORD PTR _<_Args_0>$[ebp]

; 428  :         _Left = _Right;

  000de	8b 4d f0	 mov	 ecx, DWORD PTR __Raw_new$[ebp]
  000e1	8a 55 ff	 mov	 dl, BYTE PTR $T6[ebp]
  000e4	88 14 01	 mov	 BYTE PTR [ecx+eax], dl

; 4348 :             _Fn(_Raw_new, _Unfancy(_Old_ptr), _Old_size, _Args...);
; 4349 :             _Al.deallocate(_Old_ptr, _Old_capacity + 1);

  000e7	8b 45 dc	 mov	 eax, DWORD PTR __Old_capacity$[ebp]
  000ea	40		 inc	 eax
; File C:\Program Files (x86)\Microsoft Visual Studio\2019\Community\VC\Tools\MSVC\14.28.29333\include\xmemory

; 810  :         _Deallocate<_New_alignof<_Ty>>(_Ptr, sizeof(_Ty) * _Count);

  000eb	50		 push	 eax
  000ec	ff 75 d8	 push	 DWORD PTR __Old_ptr$3[ebp]
  000ef	e8 00 00 00 00	 call	 ??$_Deallocate@$07$0A@@std@@YAXPAXI@Z ; std::_Deallocate<8,0>
  000f4	59		 pop	 ecx
  000f5	59		 pop	 ecx
; File C:\Program Files (x86)\Microsoft Visual Studio\2019\Community\VC\Tools\MSVC\14.28.29333\include\xstring

; 4350 :             _My_data._Bx._Ptr = _New_ptr;

  000f6	8b 45 f4	 mov	 eax, DWORD PTR __My_data$[ebp]
  000f9	8b 4d e8	 mov	 ecx, DWORD PTR __New_ptr$[ebp]
  000fc	89 08		 mov	 DWORD PTR [eax], ecx

; 4351 :         } else {

  000fe	eb 49		 jmp	 SHORT $LN4@Reallocate
$LN3@Reallocate:

; 62   :         _CSTD memcpy(_First1, _First2, _Count * sizeof(_Elem));

  00100	ff 75 f8	 push	 DWORD PTR __Old_size$[ebp]
  00103	ff 75 f4	 push	 DWORD PTR __My_data$[ebp]
  00106	ff 75 f0	 push	 DWORD PTR __Raw_new$[ebp]
  00109	e8 00 00 00 00	 call	 _memcpy
  0010e	83 c4 0c	 add	 esp, 12			; 0000000cH

; 424  :         return static_cast<_Elem*>(_CSTD memset(_First, _Ch, _Count));

  00111	ff 75 10	 push	 DWORD PTR _<_Args_0>$[ebp]
  00114	0f be 45 14	 movsx	 eax, BYTE PTR _<_Args_1>$[ebp]
  00118	50		 push	 eax

; 2976 :                 _Traits::assign(_New_ptr + _Old_size, _Count, _Ch);

  00119	8b 45 f0	 mov	 eax, DWORD PTR __Raw_new$[ebp]
  0011c	03 45 f8	 add	 eax, DWORD PTR __Old_size$[ebp]

; 424  :         return static_cast<_Elem*>(_CSTD memset(_First, _Ch, _Count));

  0011f	50		 push	 eax
  00120	e8 00 00 00 00	 call	 _memset
  00125	83 c4 0c	 add	 esp, 12			; 0000000cH

; 2977 :                 _Traits::assign(_New_ptr[_Old_size + _Count], _Elem());

  00128	c6 45 fe 00	 mov	 BYTE PTR $T5[ebp], 0
  0012c	8b 45 f8	 mov	 eax, DWORD PTR __Old_size$[ebp]
  0012f	03 45 10	 add	 eax, DWORD PTR _<_Args_0>$[ebp]

; 428  :         _Left = _Right;

  00132	8b 4d f0	 mov	 ecx, DWORD PTR __Raw_new$[ebp]
  00135	8a 55 fe	 mov	 dl, BYTE PTR $T5[ebp]
  00138	88 14 01	 mov	 BYTE PTR [ecx+eax], dl

; 4352 :             _Fn(_Raw_new, _My_data._Bx._Buf, _Old_size, _Args...);
; 4353 :             _Construct_in_place(_My_data._Bx._Ptr, _New_ptr);

  0013b	8d 45 e8	 lea	 eax, DWORD PTR __New_ptr$[ebp]
  0013e	50		 push	 eax
  0013f	ff 75 f4	 push	 DWORD PTR __My_data$[ebp]
  00142	e8 00 00 00 00	 call	 ??$_Construct_in_place@PADABQAD@std@@YAXAAPADABQAD@Z ; std::_Construct_in_place<char *,char * const &>
  00147	59		 pop	 ecx
  00148	59		 pop	 ecx
$LN4@Reallocate:

; 4354 :         }
; 4355 : 
; 4356 :         return *this;

  00149	8b 45 ec	 mov	 eax, DWORD PTR _this$[ebp]
$LN5@Reallocate:

; 4357 :     }

  0014c	c9		 leave
  0014d	c2 10 00	 ret	 16			; 00000010H
??$_Reallocate_grow_by@V<lambda_c1b8c41cb4019640539cfd828748c4d4>@@ID@?$basic_string@DU?$char_traits@D@std@@V?$allocator@D@2@@std@@AAEAAV01@IV<lambda_c1b8c41cb4019640539cfd828748c4d4>@@ID@Z ENDP ; std::basic_string<char,std::char_traits<char>,std::allocator<char> >::_Reallocate_grow_by<<lambda_c1b8c41cb4019640539cfd828748c4d4>,unsigned int,char>
_TEXT	ENDS
; Function compile flags: /Odspy
; File C:\Program Files (x86)\Microsoft Visual Studio\2019\Community\VC\Tools\MSVC\14.28.29333\include\xstring
; File C:\Program Files (x86)\Microsoft Visual Studio\2019\Community\VC\Tools\MSVC\14.28.29333\include\xmemory
; File C:\Program Files (x86)\Microsoft Visual Studio\2019\Community\VC\Tools\MSVC\14.28.29333\include\xstring
; File C:\Program Files (x86)\Microsoft Visual Studio\2019\Community\VC\Tools\MSVC\14.28.29333\include\xmemory
; File C:\Program Files (x86)\Microsoft Visual Studio\2019\Community\VC\Tools\MSVC\14.28.29333\include\xstring
; File C:\Program Files (x86)\Microsoft Visual Studio\2019\Community\VC\Tools\MSVC\14.28.29333\include\xmemory
; File C:\Program Files (x86)\Microsoft Visual Studio\2019\Community\VC\Tools\MSVC\14.28.29333\include\xstring
; File C:\Program Files (x86)\Microsoft Visual Studio\2019\Community\VC\Tools\MSVC\14.28.29333\include\xstddef
; File C:\Program Files (x86)\Microsoft Visual Studio\2019\Community\VC\Tools\MSVC\14.28.29333\include\xstring
; File C:\Program Files (x86)\Microsoft Visual Studio\2019\Community\VC\Tools\MSVC\14.28.29333\include\xmemory
; File C:\Program Files (x86)\Microsoft Visual Studio\2019\Community\VC\Tools\MSVC\14.28.29333\include\xstring
;	COMDAT ??$_Reallocate_for@V<lambda_9366063389c5f42a00a5088cf24e69de>@@PBD@?$basic_string@DU?$char_traits@D@std@@V?$allocator@D@2@@std@@AAEAAV01@IV<lambda_9366063389c5f42a00a5088cf24e69de>@@PBD@Z
_TEXT	SEGMENT
__Al$ = -40						; size = 4
__Ptr$ = -36						; size = 4
__Ptr$ = -32						; size = 4
$T1 = -28						; size = 4
__Old_capacity$ = -24					; size = 4
$T2 = -20						; size = 4
__New_capacity$ = -16					; size = 4
__New_ptr$ = -12					; size = 4
_this$ = -8						; size = 4
__Overflow_is_possible$3 = -2				; size = 1
$T4 = -1						; size = 1
__New_size$ = 8						; size = 4
__Fn$ = 12						; size = 1
_<_Args_0>$ = 16					; size = 4
??$_Reallocate_for@V<lambda_9366063389c5f42a00a5088cf24e69de>@@PBD@?$basic_string@DU?$char_traits@D@std@@V?$allocator@D@2@@std@@AAEAAV01@IV<lambda_9366063389c5f42a00a5088cf24e69de>@@PBD@Z PROC ; std::basic_string<char,std::char_traits<char>,std::allocator<char> >::_Reallocate_for<<lambda_9366063389c5f42a00a5088cf24e69de>,char const *>, COMDAT
; _this$ = ecx

; 4302 :     basic_string& _Reallocate_for(const size_type _New_size, _Fty _Fn, _ArgTys... _Args) {

  00000	55		 push	 ebp
  00001	8b ec		 mov	 ebp, esp
  00003	83 ec 28	 sub	 esp, 40			; 00000028H
  00006	89 4d f8	 mov	 DWORD PTR _this$[ebp], ecx

; 4303 :         // reallocate to store exactly _New_size elements, new buffer prepared by
; 4304 :         // _Fn(_New_ptr, _New_size, _Args...)
; 4305 :         if (_New_size > max_size()) {

  00009	8b 4d f8	 mov	 ecx, DWORD PTR _this$[ebp]
  0000c	e8 00 00 00 00	 call	 ?max_size@?$basic_string@DU?$char_traits@D@std@@V?$allocator@D@2@@std@@QBEIXZ ; std::basic_string<char,std::char_traits<char>,std::allocator<char> >::max_size
  00011	39 45 08	 cmp	 DWORD PTR __New_size$[ebp], eax
  00014	76 05		 jbe	 SHORT $LN2@Reallocate

; 4306 :             _Xlen_string(); // result too long

  00016	e8 00 00 00 00	 call	 ?_Xlen_string@std@@YAXXZ ; std::_Xlen_string
$LN2@Reallocate:

; 4307 :         }
; 4308 : 
; 4309 :         const size_type _Old_capacity = _Mypair._Myval2._Myres;

  0001b	8b 45 f8	 mov	 eax, DWORD PTR _this$[ebp]
  0001e	8b 40 14	 mov	 eax, DWORD PTR [eax+20]
  00021	89 45 e8	 mov	 DWORD PTR __Old_capacity$[ebp], eax

; 4310 :         const size_type _New_capacity = _Calculate_growth(_New_size);

  00024	ff 75 08	 push	 DWORD PTR __New_size$[ebp]
  00027	8b 4d f8	 mov	 ecx, DWORD PTR _this$[ebp]
  0002a	e8 00 00 00 00	 call	 ?_Calculate_growth@?$basic_string@DU?$char_traits@D@std@@V?$allocator@D@2@@std@@ABEII@Z ; std::basic_string<char,std::char_traits<char>,std::allocator<char> >::_Calculate_growth
  0002f	89 45 f0	 mov	 DWORD PTR __New_capacity$[ebp], eax

; 4409 :         return _Mypair._Get_first();

  00032	8b 45 f8	 mov	 eax, DWORD PTR _this$[ebp]
; File C:\Program Files (x86)\Microsoft Visual Studio\2019\Community\VC\Tools\MSVC\14.28.29333\include\xmemory

; 1347 :         return *this;

  00035	89 45 e4	 mov	 DWORD PTR $T1[ebp], eax
; File C:\Program Files (x86)\Microsoft Visual Studio\2019\Community\VC\Tools\MSVC\14.28.29333\include\xstring

; 4409 :         return _Mypair._Get_first();

  00038	8b 45 e4	 mov	 eax, DWORD PTR $T1[ebp]
  0003b	89 45 d8	 mov	 DWORD PTR __Al$[ebp], eax
; File C:\Program Files (x86)\Microsoft Visual Studio\2019\Community\VC\Tools\MSVC\14.28.29333\include\xmemory

; 56   :     constexpr bool _Overflow_is_possible = _Ty_size > 1;

  0003e	c6 45 fe 00	 mov	 BYTE PTR __Overflow_is_possible$3[ebp], 0
; File C:\Program Files (x86)\Microsoft Visual Studio\2019\Community\VC\Tools\MSVC\14.28.29333\include\xstring

; 4312 :         const pointer _New_ptr        = _Al.allocate(_New_capacity + 1); // throws

  00042	8b 45 f0	 mov	 eax, DWORD PTR __New_capacity$[ebp]
  00045	40		 inc	 eax
; File C:\Program Files (x86)\Microsoft Visual Studio\2019\Community\VC\Tools\MSVC\14.28.29333\include\xmemory

; 814  :         return static_cast<_Ty*>(_Allocate<_New_alignof<_Ty>>(_Get_size_of_n<sizeof(_Ty)>(_Count)));

  00046	50		 push	 eax
  00047	e8 00 00 00 00	 call	 ??$_Allocate@$07U_Default_allocate_traits@std@@$0A@@std@@YAPAXI@Z ; std::_Allocate<8,std::_Default_allocate_traits,0>
  0004c	59		 pop	 ecx
; File C:\Program Files (x86)\Microsoft Visual Studio\2019\Community\VC\Tools\MSVC\14.28.29333\include\xstring

; 4312 :         const pointer _New_ptr        = _Al.allocate(_New_capacity + 1); // throws

  0004d	89 45 f4	 mov	 DWORD PTR __New_ptr$[ebp], eax

; 4313 :         _Mypair._Myval2._Orphan_all();
; 4314 :         _Mypair._Myval2._Mysize = _New_size;

  00050	8b 45 f8	 mov	 eax, DWORD PTR _this$[ebp]
  00053	8b 4d 08	 mov	 ecx, DWORD PTR __New_size$[ebp]
  00056	89 48 10	 mov	 DWORD PTR [eax+16], ecx

; 4315 :         _Mypair._Myval2._Myres  = _New_capacity;

  00059	8b 45 f8	 mov	 eax, DWORD PTR _this$[ebp]
  0005c	8b 4d f0	 mov	 ecx, DWORD PTR __New_capacity$[ebp]
  0005f	89 48 14	 mov	 DWORD PTR [eax+20], ecx

; 4316 :         _Fn(_Unfancy(_New_ptr), _New_size, _Args...);

  00062	8b 45 f4	 mov	 eax, DWORD PTR __New_ptr$[ebp]
  00065	89 45 e0	 mov	 DWORD PTR __Ptr$[ebp], eax
; File C:\Program Files (x86)\Microsoft Visual Studio\2019\Community\VC\Tools\MSVC\14.28.29333\include\xstddef

; 289  :     return _Ptr;

  00068	8b 45 e0	 mov	 eax, DWORD PTR __Ptr$[ebp]
  0006b	89 45 ec	 mov	 DWORD PTR $T2[ebp], eax
; File C:\Program Files (x86)\Microsoft Visual Studio\2019\Community\VC\Tools\MSVC\14.28.29333\include\xstring

; 62   :         _CSTD memcpy(_First1, _First2, _Count * sizeof(_Elem));

  0006e	ff 75 08	 push	 DWORD PTR __New_size$[ebp]
  00071	ff 75 10	 push	 DWORD PTR _<_Args_0>$[ebp]
  00074	ff 75 ec	 push	 DWORD PTR $T2[ebp]
  00077	e8 00 00 00 00	 call	 _memcpy
  0007c	83 c4 0c	 add	 esp, 12			; 0000000cH

; 3056 :                 _Traits::assign(_New_ptr[_Count], _Elem());

  0007f	c6 45 ff 00	 mov	 BYTE PTR $T4[ebp], 0

; 428  :         _Left = _Right;

  00083	8b 45 ec	 mov	 eax, DWORD PTR $T2[ebp]
  00086	03 45 08	 add	 eax, DWORD PTR __New_size$[ebp]
  00089	8a 4d ff	 mov	 cl, BYTE PTR $T4[ebp]
  0008c	88 08		 mov	 BYTE PTR [eax], cl

; 4317 :         if (_BUF_SIZE <= _Old_capacity) {

  0008e	83 7d e8 10	 cmp	 DWORD PTR __Old_capacity$[ebp], 16 ; 00000010H
  00092	72 21		 jb	 SHORT $LN3@Reallocate

; 4318 :             _Al.deallocate(_Mypair._Myval2._Bx._Ptr, _Old_capacity + 1);

  00094	8b 45 f8	 mov	 eax, DWORD PTR _this$[ebp]
  00097	8b 00		 mov	 eax, DWORD PTR [eax]
  00099	89 45 dc	 mov	 DWORD PTR __Ptr$[ebp], eax
  0009c	8b 45 e8	 mov	 eax, DWORD PTR __Old_capacity$[ebp]
  0009f	40		 inc	 eax
; File C:\Program Files (x86)\Microsoft Visual Studio\2019\Community\VC\Tools\MSVC\14.28.29333\include\xmemory

; 810  :         _Deallocate<_New_alignof<_Ty>>(_Ptr, sizeof(_Ty) * _Count);

  000a0	50		 push	 eax
  000a1	ff 75 dc	 push	 DWORD PTR __Ptr$[ebp]
  000a4	e8 00 00 00 00	 call	 ??$_Deallocate@$07$0A@@std@@YAXPAXI@Z ; std::_Deallocate<8,0>
  000a9	59		 pop	 ecx
  000aa	59		 pop	 ecx
; File C:\Program Files (x86)\Microsoft Visual Studio\2019\Community\VC\Tools\MSVC\14.28.29333\include\xstring

; 4319 :             _Mypair._Myval2._Bx._Ptr = _New_ptr;

  000ab	8b 45 f8	 mov	 eax, DWORD PTR _this$[ebp]
  000ae	8b 4d f4	 mov	 ecx, DWORD PTR __New_ptr$[ebp]
  000b1	89 08		 mov	 DWORD PTR [eax], ecx

; 4320 :         } else {

  000b3	eb 0e		 jmp	 SHORT $LN4@Reallocate
$LN3@Reallocate:

; 4321 :             _Construct_in_place(_Mypair._Myval2._Bx._Ptr, _New_ptr);

  000b5	8d 45 f4	 lea	 eax, DWORD PTR __New_ptr$[ebp]
  000b8	50		 push	 eax
  000b9	ff 75 f8	 push	 DWORD PTR _this$[ebp]
  000bc	e8 00 00 00 00	 call	 ??$_Construct_in_place@PADABQAD@std@@YAXAAPADABQAD@Z ; std::_Construct_in_place<char *,char * const &>
  000c1	59		 pop	 ecx
  000c2	59		 pop	 ecx
$LN4@Reallocate:

; 4322 :         }
; 4323 : 
; 4324 :         return *this;

  000c3	8b 45 f8	 mov	 eax, DWORD PTR _this$[ebp]
$LN5@Reallocate:

; 4325 :     }

  000c6	c9		 leave
  000c7	c2 0c 00	 ret	 12			; 0000000cH
??$_Reallocate_for@V<lambda_9366063389c5f42a00a5088cf24e69de>@@PBD@?$basic_string@DU?$char_traits@D@std@@V?$allocator@D@2@@std@@AAEAAV01@IV<lambda_9366063389c5f42a00a5088cf24e69de>@@PBD@Z ENDP ; std::basic_string<char,std::char_traits<char>,std::allocator<char> >::_Reallocate_for<<lambda_9366063389c5f42a00a5088cf24e69de>,char const *>
_TEXT	ENDS
; Function compile flags: /Odspy
; File C:\Program Files (x86)\Microsoft Visual Studio\2019\Community\VC\Tools\MSVC\14.28.29333\include\xstring
; File C:\Program Files (x86)\Microsoft Visual Studio\2019\Community\VC\Tools\MSVC\14.28.29333\include\xmemory
; File C:\Program Files (x86)\Microsoft Visual Studio\2019\Community\VC\Tools\MSVC\14.28.29333\include\xstring
; File C:\Program Files (x86)\Microsoft Visual Studio\2019\Community\VC\Tools\MSVC\14.28.29333\include\xmemory
; File C:\Program Files (x86)\Microsoft Visual Studio\2019\Community\VC\Tools\MSVC\14.28.29333\include\xstring
; File C:\Program Files (x86)\Microsoft Visual Studio\2019\Community\VC\Tools\MSVC\14.28.29333\include\xmemory
; File C:\Program Files (x86)\Microsoft Visual Studio\2019\Community\VC\Tools\MSVC\14.28.29333\include\xstring
; File C:\Program Files (x86)\Microsoft Visual Studio\2019\Community\VC\Tools\MSVC\14.28.29333\include\xstddef
; File C:\Program Files (x86)\Microsoft Visual Studio\2019\Community\VC\Tools\MSVC\14.28.29333\include\xstring
; File C:\Program Files (x86)\Microsoft Visual Studio\2019\Community\VC\Tools\MSVC\14.28.29333\include\xstddef
; File C:\Program Files (x86)\Microsoft Visual Studio\2019\Community\VC\Tools\MSVC\14.28.29333\include\xstring
; File C:\Program Files (x86)\Microsoft Visual Studio\2019\Community\VC\Tools\MSVC\14.28.29333\include\xmemory
; File C:\Program Files (x86)\Microsoft Visual Studio\2019\Community\VC\Tools\MSVC\14.28.29333\include\xstring
;	COMDAT ??$_Reallocate_grow_by@V<lambda_15711c68e099a15a58f4d77303cb286d>@@D@?$basic_string@DU?$char_traits@D@std@@V?$allocator@D@2@@std@@AAEAAV01@IV<lambda_15711c68e099a15a58f4d77303cb286d>@@D@Z
_TEXT	SEGMENT
__Al$ = -68						; size = 4
$T1 = -64						; size = 4
__Ptr$ = -60						; size = 4
$T2 = -56						; size = 4
__Old_ptr$3 = -52					; size = 4
__Old_capacity$ = -48					; size = 4
__New_capacity$ = -44					; size = 4
__New_size$ = -40					; size = 4
__New_ptr$ = -36					; size = 4
_this$ = -32						; size = 4
__Raw_new$ = -28					; size = 4
__My_data$ = -24					; size = 4
__Old_size$ = -20					; size = 4
__Overflow_is_possible$4 = -14				; size = 1
$T5 = -13						; size = 1
__Ch$ = -12						; size = 1
$T6 = -5						; size = 1
__Ch$ = -4						; size = 1
__Size_increase$ = 8					; size = 4
__Fn$ = 12						; size = 1
_<_Args_0>$ = 16					; size = 1
??$_Reallocate_grow_by@V<lambda_15711c68e099a15a58f4d77303cb286d>@@D@?$basic_string@DU?$char_traits@D@std@@V?$allocator@D@2@@std@@AAEAAV01@IV<lambda_15711c68e099a15a58f4d77303cb286d>@@D@Z PROC ; std::basic_string<char,std::char_traits<char>,std::allocator<char> >::_Reallocate_grow_by<<lambda_15711c68e099a15a58f4d77303cb286d>,char>, COMDAT
; _this$ = ecx

; 4328 :     basic_string& _Reallocate_grow_by(const size_type _Size_increase, _Fty _Fn, _ArgTys... _Args) {

  00000	55		 push	 ebp
  00001	8b ec		 mov	 ebp, esp
  00003	83 ec 44	 sub	 esp, 68			; 00000044H
  00006	89 4d e0	 mov	 DWORD PTR _this$[ebp], ecx

; 4329 :         // reallocate to increase size by _Size_increase elements, new buffer prepared by
; 4330 :         // _Fn(_New_ptr, _Old_ptr, _Old_size, _Args...)
; 4331 :         auto& _My_data            = _Mypair._Myval2;

  00009	8b 45 e0	 mov	 eax, DWORD PTR _this$[ebp]
  0000c	89 45 e8	 mov	 DWORD PTR __My_data$[ebp], eax

; 4332 :         const size_type _Old_size = _My_data._Mysize;

  0000f	8b 45 e8	 mov	 eax, DWORD PTR __My_data$[ebp]
  00012	8b 40 10	 mov	 eax, DWORD PTR [eax+16]
  00015	89 45 ec	 mov	 DWORD PTR __Old_size$[ebp], eax

; 4333 :         if (max_size() - _Old_size < _Size_increase) {

  00018	8b 4d e0	 mov	 ecx, DWORD PTR _this$[ebp]
  0001b	e8 00 00 00 00	 call	 ?max_size@?$basic_string@DU?$char_traits@D@std@@V?$allocator@D@2@@std@@QBEIXZ ; std::basic_string<char,std::char_traits<char>,std::allocator<char> >::max_size
  00020	2b 45 ec	 sub	 eax, DWORD PTR __Old_size$[ebp]
  00023	3b 45 08	 cmp	 eax, DWORD PTR __Size_increase$[ebp]
  00026	73 05		 jae	 SHORT $LN2@Reallocate

; 4334 :             _Xlen_string(); // result too long

  00028	e8 00 00 00 00	 call	 ?_Xlen_string@std@@YAXXZ ; std::_Xlen_string
$LN2@Reallocate:

; 4335 :         }
; 4336 : 
; 4337 :         const size_type _New_size     = _Old_size + _Size_increase;

  0002d	8b 45 ec	 mov	 eax, DWORD PTR __Old_size$[ebp]
  00030	03 45 08	 add	 eax, DWORD PTR __Size_increase$[ebp]
  00033	89 45 d8	 mov	 DWORD PTR __New_size$[ebp], eax

; 4338 :         const size_type _Old_capacity = _My_data._Myres;

  00036	8b 45 e8	 mov	 eax, DWORD PTR __My_data$[ebp]
  00039	8b 40 14	 mov	 eax, DWORD PTR [eax+20]
  0003c	89 45 d0	 mov	 DWORD PTR __Old_capacity$[ebp], eax

; 4298 :         return _Calculate_growth(_Requested, _Mypair._Myval2._Myres, max_size());

  0003f	8b 4d e0	 mov	 ecx, DWORD PTR _this$[ebp]
  00042	e8 00 00 00 00	 call	 ?max_size@?$basic_string@DU?$char_traits@D@std@@V?$allocator@D@2@@std@@QBEIXZ ; std::basic_string<char,std::char_traits<char>,std::allocator<char> >::max_size
  00047	50		 push	 eax
  00048	8b 45 e0	 mov	 eax, DWORD PTR _this$[ebp]
  0004b	ff 70 14	 push	 DWORD PTR [eax+20]
  0004e	ff 75 d8	 push	 DWORD PTR __New_size$[ebp]
  00051	e8 00 00 00 00	 call	 ?_Calculate_growth@?$basic_string@DU?$char_traits@D@std@@V?$allocator@D@2@@std@@CAIIII@Z ; std::basic_string<char,std::char_traits<char>,std::allocator<char> >::_Calculate_growth
  00056	83 c4 0c	 add	 esp, 12			; 0000000cH
  00059	89 45 d4	 mov	 DWORD PTR __New_capacity$[ebp], eax

; 4409 :         return _Mypair._Get_first();

  0005c	8b 45 e0	 mov	 eax, DWORD PTR _this$[ebp]
; File C:\Program Files (x86)\Microsoft Visual Studio\2019\Community\VC\Tools\MSVC\14.28.29333\include\xmemory

; 1347 :         return *this;

  0005f	89 45 c8	 mov	 DWORD PTR $T2[ebp], eax
; File C:\Program Files (x86)\Microsoft Visual Studio\2019\Community\VC\Tools\MSVC\14.28.29333\include\xstring

; 4409 :         return _Mypair._Get_first();

  00062	8b 45 c8	 mov	 eax, DWORD PTR $T2[ebp]
  00065	89 45 bc	 mov	 DWORD PTR __Al$[ebp], eax
; File C:\Program Files (x86)\Microsoft Visual Studio\2019\Community\VC\Tools\MSVC\14.28.29333\include\xmemory

; 56   :     constexpr bool _Overflow_is_possible = _Ty_size > 1;

  00068	c6 45 f2 00	 mov	 BYTE PTR __Overflow_is_possible$4[ebp], 0
; File C:\Program Files (x86)\Microsoft Visual Studio\2019\Community\VC\Tools\MSVC\14.28.29333\include\xstring

; 4341 :         const pointer _New_ptr        = _Al.allocate(_New_capacity + 1); // throws

  0006c	8b 45 d4	 mov	 eax, DWORD PTR __New_capacity$[ebp]
  0006f	40		 inc	 eax
; File C:\Program Files (x86)\Microsoft Visual Studio\2019\Community\VC\Tools\MSVC\14.28.29333\include\xmemory

; 814  :         return static_cast<_Ty*>(_Allocate<_New_alignof<_Ty>>(_Get_size_of_n<sizeof(_Ty)>(_Count)));

  00070	50		 push	 eax
  00071	e8 00 00 00 00	 call	 ??$_Allocate@$07U_Default_allocate_traits@std@@$0A@@std@@YAPAXI@Z ; std::_Allocate<8,std::_Default_allocate_traits,0>
  00076	59		 pop	 ecx
; File C:\Program Files (x86)\Microsoft Visual Studio\2019\Community\VC\Tools\MSVC\14.28.29333\include\xstring

; 4341 :         const pointer _New_ptr        = _Al.allocate(_New_capacity + 1); // throws

  00077	89 45 dc	 mov	 DWORD PTR __New_ptr$[ebp], eax

; 4342 :         _My_data._Orphan_all();
; 4343 :         _My_data._Mysize      = _New_size;

  0007a	8b 45 e8	 mov	 eax, DWORD PTR __My_data$[ebp]
  0007d	8b 4d d8	 mov	 ecx, DWORD PTR __New_size$[ebp]
  00080	89 48 10	 mov	 DWORD PTR [eax+16], ecx

; 4344 :         _My_data._Myres       = _New_capacity;

  00083	8b 45 e8	 mov	 eax, DWORD PTR __My_data$[ebp]
  00086	8b 4d d4	 mov	 ecx, DWORD PTR __New_capacity$[ebp]
  00089	89 48 14	 mov	 DWORD PTR [eax+20], ecx

; 4345 :         _Elem* const _Raw_new = _Unfancy(_New_ptr);

  0008c	8b 45 dc	 mov	 eax, DWORD PTR __New_ptr$[ebp]
  0008f	89 45 c4	 mov	 DWORD PTR __Ptr$[ebp], eax
; File C:\Program Files (x86)\Microsoft Visual Studio\2019\Community\VC\Tools\MSVC\14.28.29333\include\xstddef

; 289  :     return _Ptr;

  00092	8b 45 c4	 mov	 eax, DWORD PTR __Ptr$[ebp]
  00095	89 45 e4	 mov	 DWORD PTR __Raw_new$[ebp], eax
; File C:\Program Files (x86)\Microsoft Visual Studio\2019\Community\VC\Tools\MSVC\14.28.29333\include\xstring

; 4346 :         if (_BUF_SIZE <= _Old_capacity) {

  00098	83 7d d0 10	 cmp	 DWORD PTR __Old_capacity$[ebp], 16 ; 00000010H
  0009c	72 59		 jb	 SHORT $LN3@Reallocate

; 4347 :             const pointer _Old_ptr = _My_data._Bx._Ptr;

  0009e	8b 45 e8	 mov	 eax, DWORD PTR __My_data$[ebp]
  000a1	8b 00		 mov	 eax, DWORD PTR [eax]
  000a3	89 45 cc	 mov	 DWORD PTR __Old_ptr$3[ebp], eax
; File C:\Program Files (x86)\Microsoft Visual Studio\2019\Community\VC\Tools\MSVC\14.28.29333\include\xstddef

; 289  :     return _Ptr;

  000a6	8b 45 cc	 mov	 eax, DWORD PTR __Old_ptr$3[ebp]
  000a9	89 45 c0	 mov	 DWORD PTR $T1[ebp], eax
; File C:\Program Files (x86)\Microsoft Visual Studio\2019\Community\VC\Tools\MSVC\14.28.29333\include\xstring

; 4348 :             _Fn(_Raw_new, _Unfancy(_Old_ptr), _Old_size, _Args...);

  000ac	8a 45 10	 mov	 al, BYTE PTR _<_Args_0>$[ebp]
  000af	88 45 fc	 mov	 BYTE PTR __Ch$[ebp], al

; 62   :         _CSTD memcpy(_First1, _First2, _Count * sizeof(_Elem));

  000b2	ff 75 ec	 push	 DWORD PTR __Old_size$[ebp]
  000b5	ff 75 c0	 push	 DWORD PTR $T1[ebp]
  000b8	ff 75 e4	 push	 DWORD PTR __Raw_new$[ebp]
  000bb	e8 00 00 00 00	 call	 _memcpy
  000c0	83 c4 0c	 add	 esp, 12			; 0000000cH

; 428  :         _Left = _Right;

  000c3	8b 45 e4	 mov	 eax, DWORD PTR __Raw_new$[ebp]
  000c6	03 45 ec	 add	 eax, DWORD PTR __Old_size$[ebp]
  000c9	8a 4d fc	 mov	 cl, BYTE PTR __Ch$[ebp]
  000cc	88 08		 mov	 BYTE PTR [eax], cl

; 3706 :                 _Traits::assign(_New_ptr[_Old_size + 1], _Elem());

  000ce	c6 45 fb 00	 mov	 BYTE PTR $T6[ebp], 0

; 428  :         _Left = _Right;

  000d2	8b 45 e4	 mov	 eax, DWORD PTR __Raw_new$[ebp]
  000d5	03 45 ec	 add	 eax, DWORD PTR __Old_size$[ebp]
  000d8	8a 4d fb	 mov	 cl, BYTE PTR $T6[ebp]
  000db	88 48 01	 mov	 BYTE PTR [eax+1], cl

; 4349 :             _Al.deallocate(_Old_ptr, _Old_capacity + 1);

  000de	8b 45 d0	 mov	 eax, DWORD PTR __Old_capacity$[ebp]
  000e1	40		 inc	 eax
; File C:\Program Files (x86)\Microsoft Visual Studio\2019\Community\VC\Tools\MSVC\14.28.29333\include\xmemory

; 810  :         _Deallocate<_New_alignof<_Ty>>(_Ptr, sizeof(_Ty) * _Count);

  000e2	50		 push	 eax
  000e3	ff 75 cc	 push	 DWORD PTR __Old_ptr$3[ebp]
  000e6	e8 00 00 00 00	 call	 ??$_Deallocate@$07$0A@@std@@YAXPAXI@Z ; std::_Deallocate<8,0>
  000eb	59		 pop	 ecx
  000ec	59		 pop	 ecx
; File C:\Program Files (x86)\Microsoft Visual Studio\2019\Community\VC\Tools\MSVC\14.28.29333\include\xstring

; 4350 :             _My_data._Bx._Ptr = _New_ptr;

  000ed	8b 45 e8	 mov	 eax, DWORD PTR __My_data$[ebp]
  000f0	8b 4d dc	 mov	 ecx, DWORD PTR __New_ptr$[ebp]
  000f3	89 08		 mov	 DWORD PTR [eax], ecx

; 4351 :         } else {

  000f5	eb 40		 jmp	 SHORT $LN4@Reallocate
$LN3@Reallocate:

; 4352 :             _Fn(_Raw_new, _My_data._Bx._Buf, _Old_size, _Args...);

  000f7	8a 45 10	 mov	 al, BYTE PTR _<_Args_0>$[ebp]
  000fa	88 45 f4	 mov	 BYTE PTR __Ch$[ebp], al

; 62   :         _CSTD memcpy(_First1, _First2, _Count * sizeof(_Elem));

  000fd	ff 75 ec	 push	 DWORD PTR __Old_size$[ebp]
  00100	ff 75 e8	 push	 DWORD PTR __My_data$[ebp]
  00103	ff 75 e4	 push	 DWORD PTR __Raw_new$[ebp]
  00106	e8 00 00 00 00	 call	 _memcpy
  0010b	83 c4 0c	 add	 esp, 12			; 0000000cH

; 428  :         _Left = _Right;

  0010e	8b 45 e4	 mov	 eax, DWORD PTR __Raw_new$[ebp]
  00111	03 45 ec	 add	 eax, DWORD PTR __Old_size$[ebp]
  00114	8a 4d f4	 mov	 cl, BYTE PTR __Ch$[ebp]
  00117	88 08		 mov	 BYTE PTR [eax], cl

; 3706 :                 _Traits::assign(_New_ptr[_Old_size + 1], _Elem());

  00119	c6 45 f3 00	 mov	 BYTE PTR $T5[ebp], 0

; 428  :         _Left = _Right;

  0011d	8b 45 e4	 mov	 eax, DWORD PTR __Raw_new$[ebp]
  00120	03 45 ec	 add	 eax, DWORD PTR __Old_size$[ebp]
  00123	8a 4d f3	 mov	 cl, BYTE PTR $T5[ebp]
  00126	88 48 01	 mov	 BYTE PTR [eax+1], cl

; 4353 :             _Construct_in_place(_My_data._Bx._Ptr, _New_ptr);

  00129	8d 45 dc	 lea	 eax, DWORD PTR __New_ptr$[ebp]
  0012c	50		 push	 eax
  0012d	ff 75 e8	 push	 DWORD PTR __My_data$[ebp]
  00130	e8 00 00 00 00	 call	 ??$_Construct_in_place@PADABQAD@std@@YAXAAPADABQAD@Z ; std::_Construct_in_place<char *,char * const &>
  00135	59		 pop	 ecx
  00136	59		 pop	 ecx
$LN4@Reallocate:

; 4354 :         }
; 4355 : 
; 4356 :         return *this;

  00137	8b 45 e0	 mov	 eax, DWORD PTR _this$[ebp]
$LN5@Reallocate:

; 4357 :     }

  0013a	c9		 leave
  0013b	c2 0c 00	 ret	 12			; 0000000cH
??$_Reallocate_grow_by@V<lambda_15711c68e099a15a58f4d77303cb286d>@@D@?$basic_string@DU?$char_traits@D@std@@V?$allocator@D@2@@std@@AAEAAV01@IV<lambda_15711c68e099a15a58f4d77303cb286d>@@D@Z ENDP ; std::basic_string<char,std::char_traits<char>,std::allocator<char> >::_Reallocate_grow_by<<lambda_15711c68e099a15a58f4d77303cb286d>,char>
_TEXT	ENDS
; Function compile flags: /Odspy
; File C:\Program Files (x86)\Microsoft Visual Studio\2019\Community\VC\Tools\MSVC\14.28.29333\include\xmemory
;	COMDAT ??$_Destroy_in_place@PAD@std@@YAXAAPAD@Z
_TEXT	SEGMENT
__Obj$ = 8						; size = 4
??$_Destroy_in_place@PAD@std@@YAXAAPAD@Z PROC		; std::_Destroy_in_place<char *>, COMDAT

; 270  : /* _CONSTEXPR20_DYNALLOC */ void _Destroy_in_place(_Ty& _Obj) noexcept {

  00000	55		 push	 ebp
  00001	8b ec		 mov	 ebp, esp

; 271  : #if _HAS_IF_CONSTEXPR
; 272  :     if constexpr (is_array_v<_Ty>) {
; 273  :         _Destroy_range(_Obj, _Obj + extent_v<_Ty>);
; 274  :     } else
; 275  : #endif // _HAS_IF_CONSTEXPR
; 276  :     {
; 277  :         _Obj.~_Ty();
; 278  :     }
; 279  : }

  00003	5d		 pop	 ebp
  00004	c3		 ret	 0
??$_Destroy_in_place@PAD@std@@YAXAAPAD@Z ENDP		; std::_Destroy_in_place<char *>
_TEXT	ENDS
; Function compile flags: /Odspy
; File C:\Program Files (x86)\Microsoft Visual Studio\2019\Community\VC\Tools\MSVC\14.28.29333\include\xmemory
;	COMDAT ??$_Destroy_in_place@PAV?$basic_string@DU?$char_traits@D@std@@V?$allocator@D@2@@std@@@std@@YAXAAPAV?$basic_string@DU?$char_traits@D@std@@V?$allocator@D@2@@0@@Z
_TEXT	SEGMENT
__Obj$ = 8						; size = 4
??$_Destroy_in_place@PAV?$basic_string@DU?$char_traits@D@std@@V?$allocator@D@2@@std@@@std@@YAXAAPAV?$basic_string@DU?$char_traits@D@std@@V?$allocator@D@2@@0@@Z PROC ; std::_Destroy_in_place<std::basic_string<char,std::char_traits<char>,std::allocator<char> > *>, COMDAT

; 270  : /* _CONSTEXPR20_DYNALLOC */ void _Destroy_in_place(_Ty& _Obj) noexcept {

  00000	55		 push	 ebp
  00001	8b ec		 mov	 ebp, esp

; 271  : #if _HAS_IF_CONSTEXPR
; 272  :     if constexpr (is_array_v<_Ty>) {
; 273  :         _Destroy_range(_Obj, _Obj + extent_v<_Ty>);
; 274  :     } else
; 275  : #endif // _HAS_IF_CONSTEXPR
; 276  :     {
; 277  :         _Obj.~_Ty();
; 278  :     }
; 279  : }

  00003	5d		 pop	 ebp
  00004	c3		 ret	 0
??$_Destroy_in_place@PAV?$basic_string@DU?$char_traits@D@std@@V?$allocator@D@2@@std@@@std@@YAXAAPAV?$basic_string@DU?$char_traits@D@std@@V?$allocator@D@2@@0@@Z ENDP ; std::_Destroy_in_place<std::basic_string<char,std::char_traits<char>,std::allocator<char> > *>
_TEXT	ENDS
; Function compile flags: /Odspy
; File C:\Program Files (x86)\Microsoft Visual Studio\2019\Community\VC\Tools\MSVC\14.28.29333\include\xmemory
; File C:\Program Files (x86)\Microsoft Visual Studio\2019\Community\VC\Tools\MSVC\14.28.29333\include\xstddef
; File C:\Program Files (x86)\Microsoft Visual Studio\2019\Community\VC\Tools\MSVC\14.28.29333\include\xstring
; File C:\Program Files (x86)\Microsoft Visual Studio\2019\Community\VC\Tools\MSVC\14.28.29333\include\xmemory
;	COMDAT ??$_Destroy_range@V?$allocator@V?$basic_string@DU?$char_traits@D@std@@V?$allocator@D@2@@std@@@std@@@std@@YAXPAV?$basic_string@DU?$char_traits@D@std@@V?$allocator@D@2@@0@QAV10@AAV?$allocator@V?$basic_string@DU?$char_traits@D@std@@V?$allocator@D@2@@std@@@0@@Z
_TEXT	SEGMENT
$T1 = -4						; size = 4
__First$ = 8						; size = 4
__Last$ = 12						; size = 4
__Al$ = 16						; size = 4
??$_Destroy_range@V?$allocator@V?$basic_string@DU?$char_traits@D@std@@V?$allocator@D@2@@std@@@std@@@std@@YAXPAV?$basic_string@DU?$char_traits@D@std@@V?$allocator@D@2@@0@QAV10@AAV?$allocator@V?$basic_string@DU?$char_traits@D@std@@V?$allocator@D@2@@std@@@0@@Z PROC ; std::_Destroy_range<std::allocator<std::basic_string<char,std::char_traits<char>,std::allocator<char> > > >, COMDAT

; 962  :     _Alloc_ptr_t<_Alloc> _First, const _Alloc_ptr_t<_Alloc> _Last, _Alloc& _Al) noexcept {

  00000	55		 push	 ebp
  00001	8b ec		 mov	 ebp, esp
  00003	51		 push	 ecx

; 963  :     // note that this is an optimization for debug mode codegen; in release mode the BE removes all of this
; 964  :     using _Ty = typename _Alloc::value_type;
; 965  :     if _CONSTEXPR_IF (!conjunction_v<is_trivially_destructible<_Ty>, _Uses_default_destroy<_Alloc, _Ty*>>) {
; 966  :         for (; _First != _Last; ++_First) {

  00004	eb 09		 jmp	 SHORT $LN4@Destroy_ra
$LN2@Destroy_ra:
  00006	8b 45 08	 mov	 eax, DWORD PTR __First$[ebp]
  00009	83 c0 18	 add	 eax, 24			; 00000018H
  0000c	89 45 08	 mov	 DWORD PTR __First$[ebp], eax
$LN4@Destroy_ra:
  0000f	8b 45 08	 mov	 eax, DWORD PTR __First$[ebp]
  00012	3b 45 0c	 cmp	 eax, DWORD PTR __Last$[ebp]
  00015	74 23		 je	 SHORT $LN5@Destroy_ra
; File C:\Program Files (x86)\Microsoft Visual Studio\2019\Community\VC\Tools\MSVC\14.28.29333\include\xstddef

; 289  :     return _Ptr;

  00017	8b 45 08	 mov	 eax, DWORD PTR __First$[ebp]
  0001a	89 45 fc	 mov	 DWORD PTR $T1[ebp], eax
; File C:\Program Files (x86)\Microsoft Visual Studio\2019\Community\VC\Tools\MSVC\14.28.29333\include\xstring

; 2801 :         _Tidy_deallocate();

  0001d	8b 4d fc	 mov	 ecx, DWORD PTR $T1[ebp]
  00020	e8 00 00 00 00	 call	 ?_Tidy_deallocate@?$basic_string@DU?$char_traits@D@std@@V?$allocator@D@2@@std@@AAEXXZ ; std::basic_string<char,std::char_traits<char>,std::allocator<char> >::_Tidy_deallocate
  00025	33 c0		 xor	 eax, eax
  00027	83 e0 01	 and	 eax, 1
  0002a	74 0c		 je	 SHORT $LN9@Destroy_ra
  0002c	6a 18		 push	 24			; 00000018H
  0002e	ff 75 fc	 push	 DWORD PTR $T1[ebp]
  00031	e8 00 00 00 00	 call	 ??3@YAXPAXI@Z		; operator delete
  00036	59		 pop	 ecx
  00037	59		 pop	 ecx
$LN9@Destroy_ra:
; File C:\Program Files (x86)\Microsoft Visual Studio\2019\Community\VC\Tools\MSVC\14.28.29333\include\xmemory

; 968  :         }

  00038	eb cc		 jmp	 SHORT $LN2@Destroy_ra
$LN5@Destroy_ra:

; 969  :     }
; 970  : }

  0003a	c9		 leave
  0003b	c3		 ret	 0
??$_Destroy_range@V?$allocator@V?$basic_string@DU?$char_traits@D@std@@V?$allocator@D@2@@std@@@std@@@std@@YAXPAV?$basic_string@DU?$char_traits@D@std@@V?$allocator@D@2@@0@QAV10@AAV?$allocator@V?$basic_string@DU?$char_traits@D@std@@V?$allocator@D@2@@std@@@0@@Z ENDP ; std::_Destroy_range<std::allocator<std::basic_string<char,std::char_traits<char>,std::allocator<char> > > >
_TEXT	ENDS
; Function compile flags: /Odspy
; File C:\Program Files (x86)\Microsoft Visual Studio\2019\Community\VC\Tools\MSVC\14.28.29333\include\xmemory
; File C:\Program Files (x86)\Microsoft Visual Studio\2019\Community\VC\Tools\MSVC\14.28.29333\include\xstring
; File C:\Program Files (x86)\Microsoft Visual Studio\2019\Community\VC\Tools\MSVC\14.28.29333\include\xmemory
;	COMDAT ??$?0$$V@?$_Compressed_pair@V?$allocator@D@std@@V?$_String_val@U?$_Simple_types@D@std@@@2@$00@std@@QAE@U_Zero_then_variadic_args_t@1@@Z
_TEXT	SEGMENT
_this$ = -8						; size = 4
_this$ = -4						; size = 4
___formal$ = 8						; size = 1
??$?0$$V@?$_Compressed_pair@V?$allocator@D@std@@V?$_String_val@U?$_Simple_types@D@std@@@2@$00@std@@QAE@U_Zero_then_variadic_args_t@1@@Z PROC ; std::_Compressed_pair<std::allocator<char>,std::_String_val<std::_Simple_types<char> >,1>::_Compressed_pair<std::allocator<char>,std::_String_val<std::_Simple_types<char> >,1><>, COMDAT
; _this$ = ecx

; 1339 :         : _Ty1(), _Myval2(_STD forward<_Other2>(_Val2)...) {}

  00000	55		 push	 ebp
  00001	8b ec		 mov	 ebp, esp
  00003	51		 push	 ecx
  00004	51		 push	 ecx
  00005	89 4d f8	 mov	 DWORD PTR _this$[ebp], ecx
  00008	8b 45 f8	 mov	 eax, DWORD PTR _this$[ebp]
  0000b	89 45 fc	 mov	 DWORD PTR _this$[ebp], eax
; File C:\Program Files (x86)\Microsoft Visual Studio\2019\Community\VC\Tools\MSVC\14.28.29333\include\xstring

; 2198 :     _String_val() noexcept : _Bx(), _Mysize(0), _Myres(0) {}

  0000e	8b 45 fc	 mov	 eax, DWORD PTR _this$[ebp]
  00011	83 60 10 00	 and	 DWORD PTR [eax+16], 0
  00015	8b 45 fc	 mov	 eax, DWORD PTR _this$[ebp]
  00018	83 60 14 00	 and	 DWORD PTR [eax+20], 0
; File C:\Program Files (x86)\Microsoft Visual Studio\2019\Community\VC\Tools\MSVC\14.28.29333\include\xmemory

; 1339 :         : _Ty1(), _Myval2(_STD forward<_Other2>(_Val2)...) {}

  0001c	8b 45 f8	 mov	 eax, DWORD PTR _this$[ebp]
  0001f	c9		 leave
  00020	c2 04 00	 ret	 4
??$?0$$V@?$_Compressed_pair@V?$allocator@D@std@@V?$_String_val@U?$_Simple_types@D@std@@@2@$00@std@@QAE@U_Zero_then_variadic_args_t@1@@Z ENDP ; std::_Compressed_pair<std::allocator<char>,std::_String_val<std::_Simple_types<char> >,1>::_Compressed_pair<std::allocator<char>,std::_String_val<std::_Simple_types<char> >,1><>
_TEXT	ENDS
; Function compile flags: /Odspy
; File C:\Program Files (x86)\Microsoft Visual Studio\2019\Community\VC\Tools\MSVC\14.28.29333\include\xstring
; File C:\Program Files (x86)\Microsoft Visual Studio\2019\Community\VC\Tools\MSVC\14.28.29333\include\xmemory
; File C:\Program Files (x86)\Microsoft Visual Studio\2019\Community\VC\Tools\MSVC\14.28.29333\include\xstring
; File C:\Program Files (x86)\Microsoft Visual Studio\2019\Community\VC\Tools\MSVC\14.28.29333\include\xmemory
; File C:\Program Files (x86)\Microsoft Visual Studio\2019\Community\VC\Tools\MSVC\14.28.29333\include\xstring
; File C:\Program Files (x86)\Microsoft Visual Studio\2019\Community\VC\Tools\MSVC\14.28.29333\include\xmemory
; File C:\Program Files (x86)\Microsoft Visual Studio\2019\Community\VC\Tools\MSVC\14.28.29333\include\xstring
; File C:\Program Files (x86)\Microsoft Visual Studio\2019\Community\VC\Tools\MSVC\14.28.29333\include\xstddef
; File C:\Program Files (x86)\Microsoft Visual Studio\2019\Community\VC\Tools\MSVC\14.28.29333\include\xstring
; File C:\Program Files (x86)\Microsoft Visual Studio\2019\Community\VC\Tools\MSVC\14.28.29333\include\xstddef
; File C:\Program Files (x86)\Microsoft Visual Studio\2019\Community\VC\Tools\MSVC\14.28.29333\include\xstring
; File C:\Program Files (x86)\Microsoft Visual Studio\2019\Community\VC\Tools\MSVC\14.28.29333\include\xmemory
; File C:\Program Files (x86)\Microsoft Visual Studio\2019\Community\VC\Tools\MSVC\14.28.29333\include\xstring
;	COMDAT ??$_Reallocate_grow_by@V<lambda_ab246b20b9526e2ef7792587e4298a77>@@PBDI@?$basic_string@DU?$char_traits@D@std@@V?$allocator@D@2@@std@@AAEAAV01@IV<lambda_ab246b20b9526e2ef7792587e4298a77>@@PBDI@Z
_TEXT	SEGMENT
__Al$ = -64						; size = 4
__First1$ = -60						; size = 4
__First1$ = -56						; size = 4
$T1 = -52						; size = 4
__Ptr$ = -48						; size = 4
$T2 = -44						; size = 4
__Old_ptr$3 = -40					; size = 4
__Old_capacity$ = -36					; size = 4
__New_capacity$ = -32					; size = 4
__New_size$ = -28					; size = 4
__New_ptr$ = -24					; size = 4
_this$ = -20						; size = 4
__Raw_new$ = -16					; size = 4
__My_data$ = -12					; size = 4
__Old_size$ = -8					; size = 4
__Overflow_is_possible$4 = -3				; size = 1
$T5 = -2						; size = 1
$T6 = -1						; size = 1
__Size_increase$ = 8					; size = 4
__Fn$ = 12						; size = 1
_<_Args_0>$ = 16					; size = 4
_<_Args_1>$ = 20					; size = 4
??$_Reallocate_grow_by@V<lambda_ab246b20b9526e2ef7792587e4298a77>@@PBDI@?$basic_string@DU?$char_traits@D@std@@V?$allocator@D@2@@std@@AAEAAV01@IV<lambda_ab246b20b9526e2ef7792587e4298a77>@@PBDI@Z PROC ; std::basic_string<char,std::char_traits<char>,std::allocator<char> >::_Reallocate_grow_by<<lambda_ab246b20b9526e2ef7792587e4298a77>,char const *,unsigned int>, COMDAT
; _this$ = ecx

; 4328 :     basic_string& _Reallocate_grow_by(const size_type _Size_increase, _Fty _Fn, _ArgTys... _Args) {

  00000	55		 push	 ebp
  00001	8b ec		 mov	 ebp, esp
  00003	83 ec 40	 sub	 esp, 64			; 00000040H
  00006	89 4d ec	 mov	 DWORD PTR _this$[ebp], ecx

; 4329 :         // reallocate to increase size by _Size_increase elements, new buffer prepared by
; 4330 :         // _Fn(_New_ptr, _Old_ptr, _Old_size, _Args...)
; 4331 :         auto& _My_data            = _Mypair._Myval2;

  00009	8b 45 ec	 mov	 eax, DWORD PTR _this$[ebp]
  0000c	89 45 f4	 mov	 DWORD PTR __My_data$[ebp], eax

; 4332 :         const size_type _Old_size = _My_data._Mysize;

  0000f	8b 45 f4	 mov	 eax, DWORD PTR __My_data$[ebp]
  00012	8b 40 10	 mov	 eax, DWORD PTR [eax+16]
  00015	89 45 f8	 mov	 DWORD PTR __Old_size$[ebp], eax

; 4333 :         if (max_size() - _Old_size < _Size_increase) {

  00018	8b 4d ec	 mov	 ecx, DWORD PTR _this$[ebp]
  0001b	e8 00 00 00 00	 call	 ?max_size@?$basic_string@DU?$char_traits@D@std@@V?$allocator@D@2@@std@@QBEIXZ ; std::basic_string<char,std::char_traits<char>,std::allocator<char> >::max_size
  00020	2b 45 f8	 sub	 eax, DWORD PTR __Old_size$[ebp]
  00023	3b 45 08	 cmp	 eax, DWORD PTR __Size_increase$[ebp]
  00026	73 05		 jae	 SHORT $LN2@Reallocate

; 4334 :             _Xlen_string(); // result too long

  00028	e8 00 00 00 00	 call	 ?_Xlen_string@std@@YAXXZ ; std::_Xlen_string
$LN2@Reallocate:

; 4335 :         }
; 4336 : 
; 4337 :         const size_type _New_size     = _Old_size + _Size_increase;

  0002d	8b 45 f8	 mov	 eax, DWORD PTR __Old_size$[ebp]
  00030	03 45 08	 add	 eax, DWORD PTR __Size_increase$[ebp]
  00033	89 45 e4	 mov	 DWORD PTR __New_size$[ebp], eax

; 4338 :         const size_type _Old_capacity = _My_data._Myres;

  00036	8b 45 f4	 mov	 eax, DWORD PTR __My_data$[ebp]
  00039	8b 40 14	 mov	 eax, DWORD PTR [eax+20]
  0003c	89 45 dc	 mov	 DWORD PTR __Old_capacity$[ebp], eax

; 4298 :         return _Calculate_growth(_Requested, _Mypair._Myval2._Myres, max_size());

  0003f	8b 4d ec	 mov	 ecx, DWORD PTR _this$[ebp]
  00042	e8 00 00 00 00	 call	 ?max_size@?$basic_string@DU?$char_traits@D@std@@V?$allocator@D@2@@std@@QBEIXZ ; std::basic_string<char,std::char_traits<char>,std::allocator<char> >::max_size
  00047	50		 push	 eax
  00048	8b 45 ec	 mov	 eax, DWORD PTR _this$[ebp]
  0004b	ff 70 14	 push	 DWORD PTR [eax+20]
  0004e	ff 75 e4	 push	 DWORD PTR __New_size$[ebp]
  00051	e8 00 00 00 00	 call	 ?_Calculate_growth@?$basic_string@DU?$char_traits@D@std@@V?$allocator@D@2@@std@@CAIIII@Z ; std::basic_string<char,std::char_traits<char>,std::allocator<char> >::_Calculate_growth
  00056	83 c4 0c	 add	 esp, 12			; 0000000cH
  00059	89 45 e0	 mov	 DWORD PTR __New_capacity$[ebp], eax

; 4409 :         return _Mypair._Get_first();

  0005c	8b 45 ec	 mov	 eax, DWORD PTR _this$[ebp]
; File C:\Program Files (x86)\Microsoft Visual Studio\2019\Community\VC\Tools\MSVC\14.28.29333\include\xmemory

; 1347 :         return *this;

  0005f	89 45 d4	 mov	 DWORD PTR $T2[ebp], eax
; File C:\Program Files (x86)\Microsoft Visual Studio\2019\Community\VC\Tools\MSVC\14.28.29333\include\xstring

; 4409 :         return _Mypair._Get_first();

  00062	8b 45 d4	 mov	 eax, DWORD PTR $T2[ebp]
  00065	89 45 c0	 mov	 DWORD PTR __Al$[ebp], eax
; File C:\Program Files (x86)\Microsoft Visual Studio\2019\Community\VC\Tools\MSVC\14.28.29333\include\xmemory

; 56   :     constexpr bool _Overflow_is_possible = _Ty_size > 1;

  00068	c6 45 fd 00	 mov	 BYTE PTR __Overflow_is_possible$4[ebp], 0
; File C:\Program Files (x86)\Microsoft Visual Studio\2019\Community\VC\Tools\MSVC\14.28.29333\include\xstring

; 4341 :         const pointer _New_ptr        = _Al.allocate(_New_capacity + 1); // throws

  0006c	8b 45 e0	 mov	 eax, DWORD PTR __New_capacity$[ebp]
  0006f	40		 inc	 eax
; File C:\Program Files (x86)\Microsoft Visual Studio\2019\Community\VC\Tools\MSVC\14.28.29333\include\xmemory

; 814  :         return static_cast<_Ty*>(_Allocate<_New_alignof<_Ty>>(_Get_size_of_n<sizeof(_Ty)>(_Count)));

  00070	50		 push	 eax
  00071	e8 00 00 00 00	 call	 ??$_Allocate@$07U_Default_allocate_traits@std@@$0A@@std@@YAPAXI@Z ; std::_Allocate<8,std::_Default_allocate_traits,0>
  00076	59		 pop	 ecx
; File C:\Program Files (x86)\Microsoft Visual Studio\2019\Community\VC\Tools\MSVC\14.28.29333\include\xstring

; 4341 :         const pointer _New_ptr        = _Al.allocate(_New_capacity + 1); // throws

  00077	89 45 e8	 mov	 DWORD PTR __New_ptr$[ebp], eax

; 4342 :         _My_data._Orphan_all();
; 4343 :         _My_data._Mysize      = _New_size;

  0007a	8b 45 f4	 mov	 eax, DWORD PTR __My_data$[ebp]
  0007d	8b 4d e4	 mov	 ecx, DWORD PTR __New_size$[ebp]
  00080	89 48 10	 mov	 DWORD PTR [eax+16], ecx

; 4344 :         _My_data._Myres       = _New_capacity;

  00083	8b 45 f4	 mov	 eax, DWORD PTR __My_data$[ebp]
  00086	8b 4d e0	 mov	 ecx, DWORD PTR __New_capacity$[ebp]
  00089	89 48 14	 mov	 DWORD PTR [eax+20], ecx

; 4345 :         _Elem* const _Raw_new = _Unfancy(_New_ptr);

  0008c	8b 45 e8	 mov	 eax, DWORD PTR __New_ptr$[ebp]
  0008f	89 45 d0	 mov	 DWORD PTR __Ptr$[ebp], eax
; File C:\Program Files (x86)\Microsoft Visual Studio\2019\Community\VC\Tools\MSVC\14.28.29333\include\xstddef

; 289  :     return _Ptr;

  00092	8b 45 d0	 mov	 eax, DWORD PTR __Ptr$[ebp]
  00095	89 45 f0	 mov	 DWORD PTR __Raw_new$[ebp], eax
; File C:\Program Files (x86)\Microsoft Visual Studio\2019\Community\VC\Tools\MSVC\14.28.29333\include\xstring

; 4346 :         if (_BUF_SIZE <= _Old_capacity) {

  00098	83 7d dc 10	 cmp	 DWORD PTR __Old_capacity$[ebp], 16 ; 00000010H
  0009c	72 65		 jb	 SHORT $LN3@Reallocate

; 4347 :             const pointer _Old_ptr = _My_data._Bx._Ptr;

  0009e	8b 45 f4	 mov	 eax, DWORD PTR __My_data$[ebp]
  000a1	8b 00		 mov	 eax, DWORD PTR [eax]
  000a3	89 45 d8	 mov	 DWORD PTR __Old_ptr$3[ebp], eax
; File C:\Program Files (x86)\Microsoft Visual Studio\2019\Community\VC\Tools\MSVC\14.28.29333\include\xstddef

; 289  :     return _Ptr;

  000a6	8b 45 d8	 mov	 eax, DWORD PTR __Old_ptr$3[ebp]
  000a9	89 45 cc	 mov	 DWORD PTR $T1[ebp], eax
; File C:\Program Files (x86)\Microsoft Visual Studio\2019\Community\VC\Tools\MSVC\14.28.29333\include\xstring

; 62   :         _CSTD memcpy(_First1, _First2, _Count * sizeof(_Elem));

  000ac	ff 75 f8	 push	 DWORD PTR __Old_size$[ebp]
  000af	ff 75 cc	 push	 DWORD PTR $T1[ebp]
  000b2	ff 75 f0	 push	 DWORD PTR __Raw_new$[ebp]
  000b5	e8 00 00 00 00	 call	 _memcpy
  000ba	83 c4 0c	 add	 esp, 12			; 0000000cH

; 2951 :                 _Traits::copy(_New_ptr + _Old_size, _Ptr, _Count);

  000bd	8b 45 f0	 mov	 eax, DWORD PTR __Raw_new$[ebp]
  000c0	03 45 f8	 add	 eax, DWORD PTR __Old_size$[ebp]
  000c3	89 45 c8	 mov	 DWORD PTR __First1$[ebp], eax

; 62   :         _CSTD memcpy(_First1, _First2, _Count * sizeof(_Elem));

  000c6	ff 75 14	 push	 DWORD PTR _<_Args_1>$[ebp]
  000c9	ff 75 10	 push	 DWORD PTR _<_Args_0>$[ebp]
  000cc	ff 75 c8	 push	 DWORD PTR __First1$[ebp]
  000cf	e8 00 00 00 00	 call	 _memcpy
  000d4	83 c4 0c	 add	 esp, 12			; 0000000cH

; 2952 :                 _Traits::assign(_New_ptr[_Old_size + _Count], _Elem());

  000d7	c6 45 ff 00	 mov	 BYTE PTR $T6[ebp], 0
  000db	8b 45 f8	 mov	 eax, DWORD PTR __Old_size$[ebp]
  000de	03 45 14	 add	 eax, DWORD PTR _<_Args_1>$[ebp]

; 428  :         _Left = _Right;

  000e1	8b 4d f0	 mov	 ecx, DWORD PTR __Raw_new$[ebp]
  000e4	8a 55 ff	 mov	 dl, BYTE PTR $T6[ebp]
  000e7	88 14 01	 mov	 BYTE PTR [ecx+eax], dl

; 4348 :             _Fn(_Raw_new, _Unfancy(_Old_ptr), _Old_size, _Args...);
; 4349 :             _Al.deallocate(_Old_ptr, _Old_capacity + 1);

  000ea	8b 45 dc	 mov	 eax, DWORD PTR __Old_capacity$[ebp]
  000ed	40		 inc	 eax
; File C:\Program Files (x86)\Microsoft Visual Studio\2019\Community\VC\Tools\MSVC\14.28.29333\include\xmemory

; 810  :         _Deallocate<_New_alignof<_Ty>>(_Ptr, sizeof(_Ty) * _Count);

  000ee	50		 push	 eax
  000ef	ff 75 d8	 push	 DWORD PTR __Old_ptr$3[ebp]
  000f2	e8 00 00 00 00	 call	 ??$_Deallocate@$07$0A@@std@@YAXPAXI@Z ; std::_Deallocate<8,0>
  000f7	59		 pop	 ecx
  000f8	59		 pop	 ecx
; File C:\Program Files (x86)\Microsoft Visual Studio\2019\Community\VC\Tools\MSVC\14.28.29333\include\xstring

; 4350 :             _My_data._Bx._Ptr = _New_ptr;

  000f9	8b 45 f4	 mov	 eax, DWORD PTR __My_data$[ebp]
  000fc	8b 4d e8	 mov	 ecx, DWORD PTR __New_ptr$[ebp]
  000ff	89 08		 mov	 DWORD PTR [eax], ecx

; 4351 :         } else {

  00101	eb 4c		 jmp	 SHORT $LN4@Reallocate
$LN3@Reallocate:

; 62   :         _CSTD memcpy(_First1, _First2, _Count * sizeof(_Elem));

  00103	ff 75 f8	 push	 DWORD PTR __Old_size$[ebp]
  00106	ff 75 f4	 push	 DWORD PTR __My_data$[ebp]
  00109	ff 75 f0	 push	 DWORD PTR __Raw_new$[ebp]
  0010c	e8 00 00 00 00	 call	 _memcpy
  00111	83 c4 0c	 add	 esp, 12			; 0000000cH

; 2951 :                 _Traits::copy(_New_ptr + _Old_size, _Ptr, _Count);

  00114	8b 45 f0	 mov	 eax, DWORD PTR __Raw_new$[ebp]
  00117	03 45 f8	 add	 eax, DWORD PTR __Old_size$[ebp]
  0011a	89 45 c4	 mov	 DWORD PTR __First1$[ebp], eax

; 62   :         _CSTD memcpy(_First1, _First2, _Count * sizeof(_Elem));

  0011d	ff 75 14	 push	 DWORD PTR _<_Args_1>$[ebp]
  00120	ff 75 10	 push	 DWORD PTR _<_Args_0>$[ebp]
  00123	ff 75 c4	 push	 DWORD PTR __First1$[ebp]
  00126	e8 00 00 00 00	 call	 _memcpy
  0012b	83 c4 0c	 add	 esp, 12			; 0000000cH

; 2952 :                 _Traits::assign(_New_ptr[_Old_size + _Count], _Elem());

  0012e	c6 45 fe 00	 mov	 BYTE PTR $T5[ebp], 0
  00132	8b 45 f8	 mov	 eax, DWORD PTR __Old_size$[ebp]
  00135	03 45 14	 add	 eax, DWORD PTR _<_Args_1>$[ebp]

; 428  :         _Left = _Right;

  00138	8b 4d f0	 mov	 ecx, DWORD PTR __Raw_new$[ebp]
  0013b	8a 55 fe	 mov	 dl, BYTE PTR $T5[ebp]
  0013e	88 14 01	 mov	 BYTE PTR [ecx+eax], dl

; 4352 :             _Fn(_Raw_new, _My_data._Bx._Buf, _Old_size, _Args...);
; 4353 :             _Construct_in_place(_My_data._Bx._Ptr, _New_ptr);

  00141	8d 45 e8	 lea	 eax, DWORD PTR __New_ptr$[ebp]
  00144	50		 push	 eax
  00145	ff 75 f4	 push	 DWORD PTR __My_data$[ebp]
  00148	e8 00 00 00 00	 call	 ??$_Construct_in_place@PADABQAD@std@@YAXAAPADABQAD@Z ; std::_Construct_in_place<char *,char * const &>
  0014d	59		 pop	 ecx
  0014e	59		 pop	 ecx
$LN4@Reallocate:

; 4354 :         }
; 4355 : 
; 4356 :         return *this;

  0014f	8b 45 ec	 mov	 eax, DWORD PTR _this$[ebp]
$LN5@Reallocate:

; 4357 :     }

  00152	c9		 leave
  00153	c2 10 00	 ret	 16			; 00000010H
??$_Reallocate_grow_by@V<lambda_ab246b20b9526e2ef7792587e4298a77>@@PBDI@?$basic_string@DU?$char_traits@D@std@@V?$allocator@D@2@@std@@AAEAAV01@IV<lambda_ab246b20b9526e2ef7792587e4298a77>@@PBDI@Z ENDP ; std::basic_string<char,std::char_traits<char>,std::allocator<char> >::_Reallocate_grow_by<<lambda_ab246b20b9526e2ef7792587e4298a77>,char const *,unsigned int>
_TEXT	ENDS
; Function compile flags: /Odspy
; File C:\Program Files (x86)\Microsoft Visual Studio\2019\Community\VC\Tools\MSVC\14.28.29333\include\xstring
; File C:\Program Files (x86)\Microsoft Visual Studio\2019\Community\VC\Tools\MSVC\14.28.29333\include\xmemory
; File C:\Program Files (x86)\Microsoft Visual Studio\2019\Community\VC\Tools\MSVC\14.28.29333\include\xstring
; File C:\Program Files (x86)\Microsoft Visual Studio\2019\Community\VC\Tools\MSVC\14.28.29333\include\xmemory
; File C:\Program Files (x86)\Microsoft Visual Studio\2019\Community\VC\Tools\MSVC\14.28.29333\include\xstring
; File C:\Program Files (x86)\Microsoft Visual Studio\2019\Community\VC\Tools\MSVC\14.28.29333\include\xmemory
; File C:\Program Files (x86)\Microsoft Visual Studio\2019\Community\VC\Tools\MSVC\14.28.29333\include\xstring
; File C:\Program Files (x86)\Microsoft Visual Studio\2019\Community\VC\Tools\MSVC\14.28.29333\include\xstddef
; File C:\Program Files (x86)\Microsoft Visual Studio\2019\Community\VC\Tools\MSVC\14.28.29333\include\xstring
; File C:\Program Files (x86)\Microsoft Visual Studio\2019\Community\VC\Tools\MSVC\14.28.29333\include\xstddef
; File C:\Program Files (x86)\Microsoft Visual Studio\2019\Community\VC\Tools\MSVC\14.28.29333\include\xstring
; File C:\Program Files (x86)\Microsoft Visual Studio\2019\Community\VC\Tools\MSVC\14.28.29333\include\xmemory
; File C:\Program Files (x86)\Microsoft Visual Studio\2019\Community\VC\Tools\MSVC\14.28.29333\include\xstring
;	COMDAT ??$_Reallocate_grow_by@V<lambda_67d87d4aa1269033985980465fd1d824>@@$$V@?$basic_string@DU?$char_traits@D@std@@V?$allocator@D@2@@std@@AAEAAV01@IV<lambda_67d87d4aa1269033985980465fd1d824>@@@Z
_TEXT	SEGMENT
__Al$ = -56						; size = 4
$T1 = -52						; size = 4
__Ptr$ = -48						; size = 4
$T2 = -44						; size = 4
__Raw_new$ = -40					; size = 4
__Old_ptr$3 = -36					; size = 4
__Old_capacity$ = -32					; size = 4
__New_capacity$ = -28					; size = 4
__New_size$ = -24					; size = 4
__New_ptr$ = -20					; size = 4
__Old_size$ = -16					; size = 4
_this$ = -12						; size = 4
__My_data$ = -8						; size = 4
__Overflow_is_possible$4 = -1				; size = 1
__Size_increase$ = 8					; size = 4
__Fn$ = 12						; size = 1
??$_Reallocate_grow_by@V<lambda_67d87d4aa1269033985980465fd1d824>@@$$V@?$basic_string@DU?$char_traits@D@std@@V?$allocator@D@2@@std@@AAEAAV01@IV<lambda_67d87d4aa1269033985980465fd1d824>@@@Z PROC ; std::basic_string<char,std::char_traits<char>,std::allocator<char> >::_Reallocate_grow_by<<lambda_67d87d4aa1269033985980465fd1d824> >, COMDAT
; _this$ = ecx

; 4328 :     basic_string& _Reallocate_grow_by(const size_type _Size_increase, _Fty _Fn, _ArgTys... _Args) {

  00000	55		 push	 ebp
  00001	8b ec		 mov	 ebp, esp
  00003	83 ec 38	 sub	 esp, 56			; 00000038H
  00006	89 4d f4	 mov	 DWORD PTR _this$[ebp], ecx

; 4329 :         // reallocate to increase size by _Size_increase elements, new buffer prepared by
; 4330 :         // _Fn(_New_ptr, _Old_ptr, _Old_size, _Args...)
; 4331 :         auto& _My_data            = _Mypair._Myval2;

  00009	8b 45 f4	 mov	 eax, DWORD PTR _this$[ebp]
  0000c	89 45 f8	 mov	 DWORD PTR __My_data$[ebp], eax

; 4332 :         const size_type _Old_size = _My_data._Mysize;

  0000f	8b 45 f8	 mov	 eax, DWORD PTR __My_data$[ebp]
  00012	8b 40 10	 mov	 eax, DWORD PTR [eax+16]
  00015	89 45 f0	 mov	 DWORD PTR __Old_size$[ebp], eax

; 4333 :         if (max_size() - _Old_size < _Size_increase) {

  00018	8b 4d f4	 mov	 ecx, DWORD PTR _this$[ebp]
  0001b	e8 00 00 00 00	 call	 ?max_size@?$basic_string@DU?$char_traits@D@std@@V?$allocator@D@2@@std@@QBEIXZ ; std::basic_string<char,std::char_traits<char>,std::allocator<char> >::max_size
  00020	2b 45 f0	 sub	 eax, DWORD PTR __Old_size$[ebp]
  00023	3b 45 08	 cmp	 eax, DWORD PTR __Size_increase$[ebp]
  00026	73 05		 jae	 SHORT $LN2@Reallocate

; 4334 :             _Xlen_string(); // result too long

  00028	e8 00 00 00 00	 call	 ?_Xlen_string@std@@YAXXZ ; std::_Xlen_string
$LN2@Reallocate:

; 4335 :         }
; 4336 : 
; 4337 :         const size_type _New_size     = _Old_size + _Size_increase;

  0002d	8b 45 f0	 mov	 eax, DWORD PTR __Old_size$[ebp]
  00030	03 45 08	 add	 eax, DWORD PTR __Size_increase$[ebp]
  00033	89 45 e8	 mov	 DWORD PTR __New_size$[ebp], eax

; 4338 :         const size_type _Old_capacity = _My_data._Myres;

  00036	8b 45 f8	 mov	 eax, DWORD PTR __My_data$[ebp]
  00039	8b 40 14	 mov	 eax, DWORD PTR [eax+20]
  0003c	89 45 e0	 mov	 DWORD PTR __Old_capacity$[ebp], eax

; 4298 :         return _Calculate_growth(_Requested, _Mypair._Myval2._Myres, max_size());

  0003f	8b 4d f4	 mov	 ecx, DWORD PTR _this$[ebp]
  00042	e8 00 00 00 00	 call	 ?max_size@?$basic_string@DU?$char_traits@D@std@@V?$allocator@D@2@@std@@QBEIXZ ; std::basic_string<char,std::char_traits<char>,std::allocator<char> >::max_size
  00047	50		 push	 eax
  00048	8b 45 f4	 mov	 eax, DWORD PTR _this$[ebp]
  0004b	ff 70 14	 push	 DWORD PTR [eax+20]
  0004e	ff 75 e8	 push	 DWORD PTR __New_size$[ebp]
  00051	e8 00 00 00 00	 call	 ?_Calculate_growth@?$basic_string@DU?$char_traits@D@std@@V?$allocator@D@2@@std@@CAIIII@Z ; std::basic_string<char,std::char_traits<char>,std::allocator<char> >::_Calculate_growth
  00056	83 c4 0c	 add	 esp, 12			; 0000000cH
  00059	89 45 e4	 mov	 DWORD PTR __New_capacity$[ebp], eax

; 4409 :         return _Mypair._Get_first();

  0005c	8b 45 f4	 mov	 eax, DWORD PTR _this$[ebp]
; File C:\Program Files (x86)\Microsoft Visual Studio\2019\Community\VC\Tools\MSVC\14.28.29333\include\xmemory

; 1347 :         return *this;

  0005f	89 45 d4	 mov	 DWORD PTR $T2[ebp], eax
; File C:\Program Files (x86)\Microsoft Visual Studio\2019\Community\VC\Tools\MSVC\14.28.29333\include\xstring

; 4409 :         return _Mypair._Get_first();

  00062	8b 45 d4	 mov	 eax, DWORD PTR $T2[ebp]
  00065	89 45 c8	 mov	 DWORD PTR __Al$[ebp], eax
; File C:\Program Files (x86)\Microsoft Visual Studio\2019\Community\VC\Tools\MSVC\14.28.29333\include\xmemory

; 56   :     constexpr bool _Overflow_is_possible = _Ty_size > 1;

  00068	c6 45 ff 00	 mov	 BYTE PTR __Overflow_is_possible$4[ebp], 0
; File C:\Program Files (x86)\Microsoft Visual Studio\2019\Community\VC\Tools\MSVC\14.28.29333\include\xstring

; 4341 :         const pointer _New_ptr        = _Al.allocate(_New_capacity + 1); // throws

  0006c	8b 45 e4	 mov	 eax, DWORD PTR __New_capacity$[ebp]
  0006f	40		 inc	 eax
; File C:\Program Files (x86)\Microsoft Visual Studio\2019\Community\VC\Tools\MSVC\14.28.29333\include\xmemory

; 814  :         return static_cast<_Ty*>(_Allocate<_New_alignof<_Ty>>(_Get_size_of_n<sizeof(_Ty)>(_Count)));

  00070	50		 push	 eax
  00071	e8 00 00 00 00	 call	 ??$_Allocate@$07U_Default_allocate_traits@std@@$0A@@std@@YAPAXI@Z ; std::_Allocate<8,std::_Default_allocate_traits,0>
  00076	59		 pop	 ecx
; File C:\Program Files (x86)\Microsoft Visual Studio\2019\Community\VC\Tools\MSVC\14.28.29333\include\xstring

; 4341 :         const pointer _New_ptr        = _Al.allocate(_New_capacity + 1); // throws

  00077	89 45 ec	 mov	 DWORD PTR __New_ptr$[ebp], eax

; 4342 :         _My_data._Orphan_all();
; 4343 :         _My_data._Mysize      = _New_size;

  0007a	8b 45 f8	 mov	 eax, DWORD PTR __My_data$[ebp]
  0007d	8b 4d e8	 mov	 ecx, DWORD PTR __New_size$[ebp]
  00080	89 48 10	 mov	 DWORD PTR [eax+16], ecx

; 4344 :         _My_data._Myres       = _New_capacity;

  00083	8b 45 f8	 mov	 eax, DWORD PTR __My_data$[ebp]
  00086	8b 4d e4	 mov	 ecx, DWORD PTR __New_capacity$[ebp]
  00089	89 48 14	 mov	 DWORD PTR [eax+20], ecx

; 4345 :         _Elem* const _Raw_new = _Unfancy(_New_ptr);

  0008c	8b 45 ec	 mov	 eax, DWORD PTR __New_ptr$[ebp]
  0008f	89 45 d0	 mov	 DWORD PTR __Ptr$[ebp], eax
; File C:\Program Files (x86)\Microsoft Visual Studio\2019\Community\VC\Tools\MSVC\14.28.29333\include\xstddef

; 289  :     return _Ptr;

  00092	8b 45 d0	 mov	 eax, DWORD PTR __Ptr$[ebp]
  00095	89 45 d8	 mov	 DWORD PTR __Raw_new$[ebp], eax
; File C:\Program Files (x86)\Microsoft Visual Studio\2019\Community\VC\Tools\MSVC\14.28.29333\include\xstring

; 4346 :         if (_BUF_SIZE <= _Old_capacity) {

  00098	83 7d e0 10	 cmp	 DWORD PTR __Old_capacity$[ebp], 16 ; 00000010H
  0009c	72 3a		 jb	 SHORT $LN3@Reallocate

; 4347 :             const pointer _Old_ptr = _My_data._Bx._Ptr;

  0009e	8b 45 f8	 mov	 eax, DWORD PTR __My_data$[ebp]
  000a1	8b 00		 mov	 eax, DWORD PTR [eax]
  000a3	89 45 dc	 mov	 DWORD PTR __Old_ptr$3[ebp], eax
; File C:\Program Files (x86)\Microsoft Visual Studio\2019\Community\VC\Tools\MSVC\14.28.29333\include\xstddef

; 289  :     return _Ptr;

  000a6	8b 45 dc	 mov	 eax, DWORD PTR __Old_ptr$3[ebp]
  000a9	89 45 cc	 mov	 DWORD PTR $T1[ebp], eax
; File C:\Program Files (x86)\Microsoft Visual Studio\2019\Community\VC\Tools\MSVC\14.28.29333\include\xstring

; 3830 :                     _Traits::copy(_New_ptr, _Old_ptr, _Old_size + 1);

  000ac	8b 45 f0	 mov	 eax, DWORD PTR __Old_size$[ebp]
  000af	40		 inc	 eax

; 62   :         _CSTD memcpy(_First1, _First2, _Count * sizeof(_Elem));

  000b0	50		 push	 eax
  000b1	ff 75 cc	 push	 DWORD PTR $T1[ebp]
  000b4	ff 75 d8	 push	 DWORD PTR __Raw_new$[ebp]
  000b7	e8 00 00 00 00	 call	 _memcpy
  000bc	83 c4 0c	 add	 esp, 12			; 0000000cH

; 4348 :             _Fn(_Raw_new, _Unfancy(_Old_ptr), _Old_size, _Args...);
; 4349 :             _Al.deallocate(_Old_ptr, _Old_capacity + 1);

  000bf	8b 45 e0	 mov	 eax, DWORD PTR __Old_capacity$[ebp]
  000c2	40		 inc	 eax
; File C:\Program Files (x86)\Microsoft Visual Studio\2019\Community\VC\Tools\MSVC\14.28.29333\include\xmemory

; 810  :         _Deallocate<_New_alignof<_Ty>>(_Ptr, sizeof(_Ty) * _Count);

  000c3	50		 push	 eax
  000c4	ff 75 dc	 push	 DWORD PTR __Old_ptr$3[ebp]
  000c7	e8 00 00 00 00	 call	 ??$_Deallocate@$07$0A@@std@@YAXPAXI@Z ; std::_Deallocate<8,0>
  000cc	59		 pop	 ecx
  000cd	59		 pop	 ecx
; File C:\Program Files (x86)\Microsoft Visual Studio\2019\Community\VC\Tools\MSVC\14.28.29333\include\xstring

; 4350 :             _My_data._Bx._Ptr = _New_ptr;

  000ce	8b 45 f8	 mov	 eax, DWORD PTR __My_data$[ebp]
  000d1	8b 4d ec	 mov	 ecx, DWORD PTR __New_ptr$[ebp]
  000d4	89 08		 mov	 DWORD PTR [eax], ecx

; 4351 :         } else {

  000d6	eb 21		 jmp	 SHORT $LN4@Reallocate
$LN3@Reallocate:

; 3830 :                     _Traits::copy(_New_ptr, _Old_ptr, _Old_size + 1);

  000d8	8b 45 f0	 mov	 eax, DWORD PTR __Old_size$[ebp]
  000db	40		 inc	 eax

; 62   :         _CSTD memcpy(_First1, _First2, _Count * sizeof(_Elem));

  000dc	50		 push	 eax
  000dd	ff 75 f8	 push	 DWORD PTR __My_data$[ebp]
  000e0	ff 75 d8	 push	 DWORD PTR __Raw_new$[ebp]
  000e3	e8 00 00 00 00	 call	 _memcpy
  000e8	83 c4 0c	 add	 esp, 12			; 0000000cH

; 4352 :             _Fn(_Raw_new, _My_data._Bx._Buf, _Old_size, _Args...);
; 4353 :             _Construct_in_place(_My_data._Bx._Ptr, _New_ptr);

  000eb	8d 45 ec	 lea	 eax, DWORD PTR __New_ptr$[ebp]
  000ee	50		 push	 eax
  000ef	ff 75 f8	 push	 DWORD PTR __My_data$[ebp]
  000f2	e8 00 00 00 00	 call	 ??$_Construct_in_place@PADABQAD@std@@YAXAAPADABQAD@Z ; std::_Construct_in_place<char *,char * const &>
  000f7	59		 pop	 ecx
  000f8	59		 pop	 ecx
$LN4@Reallocate:

; 4354 :         }
; 4355 : 
; 4356 :         return *this;

  000f9	8b 45 f4	 mov	 eax, DWORD PTR _this$[ebp]
$LN5@Reallocate:

; 4357 :     }

  000fc	c9		 leave
  000fd	c2 08 00	 ret	 8
??$_Reallocate_grow_by@V<lambda_67d87d4aa1269033985980465fd1d824>@@$$V@?$basic_string@DU?$char_traits@D@std@@V?$allocator@D@2@@std@@AAEAAV01@IV<lambda_67d87d4aa1269033985980465fd1d824>@@@Z ENDP ; std::basic_string<char,std::char_traits<char>,std::allocator<char> >::_Reallocate_grow_by<<lambda_67d87d4aa1269033985980465fd1d824> >
_TEXT	ENDS
; Function compile flags: /Odspy
; File C:\Program Files (x86)\Microsoft Visual Studio\2019\Community\VC\Tools\MSVC\14.28.29333\include\xstring
;	COMDAT ??$_Traits_find_first_of@U?$char_traits@D@std@@@std@@YAIQBDII0IU?$integral_constant@_N$00@0@@Z
_TEXT	SEGMENT
__End$1 = -124						; size = 4
$T2 = -120						; size = 4
__End$3 = -116						; size = 4
$T4 = -112						; size = 4
___formal$ = -108					; size = 1
__First$ = -104						; size = 4
__Match_try$5 = -100					; size = 4
__Match_try$6 = -96					; size = 4
$T7 = -90						; size = 1
$T8 = -89						; size = 1
__Matches$9 = -88					; size = 256
__$ArrayPad$ = 168					; size = 4
__Haystack$ = 180					; size = 4
__Hay_size$ = 184					; size = 4
__Start_at$ = 188					; size = 4
__Needle$ = 192						; size = 4
__Needle_size$ = 196					; size = 4
___formal$ = 200					; size = 1
??$_Traits_find_first_of@U?$char_traits@D@std@@@std@@YAIQBDII0IU?$integral_constant@_N$00@0@@Z PROC ; std::_Traits_find_first_of<std::char_traits<char> >, COMDAT

; 748  :     const size_t _Needle_size, true_type) noexcept {

  00000	55		 push	 ebp
  00001	8d ac 24 54 ff
	ff ff		 lea	 ebp, DWORD PTR [esp-172]
  00008	81 ec 28 01 00
	00		 sub	 esp, 296		; 00000128H
  0000e	a1 00 00 00 00	 mov	 eax, DWORD PTR ___security_cookie
  00013	33 c5		 xor	 eax, ebp
  00015	89 85 a8 00 00
	00		 mov	 DWORD PTR __$ArrayPad$[ebp], eax

; 749  :     // in [_Haystack, _Haystack + _Hay_size), look for one of [_Needle, _Needle + _Needle_size), at/after _Start_at
; 750  :     // special case for std::char_traits
; 751  :     if (_Needle_size != 0 && _Start_at < _Hay_size) { // room for match, look for it

  0001b	83 bd c4 00 00
	00 00		 cmp	 DWORD PTR __Needle_size$[ebp], 0
  00022	0f 84 3d 01 00
	00		 je	 $LN5@Traits_fin
  00028	8b 85 bc 00 00
	00		 mov	 eax, DWORD PTR __Start_at$[ebp]
  0002e	3b 85 b8 00 00
	00		 cmp	 eax, DWORD PTR __Hay_size$[ebp]
  00034	0f 83 2b 01 00
	00		 jae	 $LN5@Traits_fin
  0003a	68 00 01 00 00	 push	 256			; 00000100H
  0003f	6a 00		 push	 0
  00041	8d 45 a8	 lea	 eax, DWORD PTR __Matches$9[ebp]
  00044	50		 push	 eax
  00045	e8 00 00 00 00	 call	 _memset
  0004a	83 c4 0c	 add	 esp, 12			; 0000000cH

; 752  :         _String_bitmap<typename _Traits::char_type> _Matches;
; 753  :         if (!_Matches._Mark(_Needle, _Needle + _Needle_size)) { // couldn't put one of the characters into the bitmap,

  0004d	8b 85 c0 00 00
	00		 mov	 eax, DWORD PTR __Needle$[ebp]
  00053	89 45 98	 mov	 DWORD PTR __First$[ebp], eax
  00056	eb 07		 jmp	 SHORT $LN15@Traits_fin
$LN13@Traits_fin:

; 682  :         for (; _First != _Last; ++_First) {

  00058	8b 45 98	 mov	 eax, DWORD PTR __First$[ebp]
  0005b	40		 inc	 eax
  0005c	89 45 98	 mov	 DWORD PTR __First$[ebp], eax
$LN15@Traits_fin:

; 752  :         _String_bitmap<typename _Traits::char_type> _Matches;
; 753  :         if (!_Matches._Mark(_Needle, _Needle + _Needle_size)) { // couldn't put one of the characters into the bitmap,

  0005f	8b 85 c0 00 00
	00		 mov	 eax, DWORD PTR __Needle$[ebp]
  00065	03 85 c4 00 00
	00		 add	 eax, DWORD PTR __Needle_size$[ebp]

; 682  :         for (; _First != _Last; ++_First) {

  0006b	39 45 98	 cmp	 DWORD PTR __First$[ebp], eax
  0006e	74 0d		 je	 SHORT $LN12@Traits_fin

; 683  :             _Matches[static_cast<unsigned char>(*_First)] = true;

  00070	8b 45 98	 mov	 eax, DWORD PTR __First$[ebp]
  00073	0f b6 00	 movzx	 eax, BYTE PTR [eax]
  00076	c6 44 05 a8 01	 mov	 BYTE PTR __Matches$9[ebp+eax], 1

; 684  :         }

  0007b	eb db		 jmp	 SHORT $LN13@Traits_fin
$LN12@Traits_fin:

; 752  :         _String_bitmap<typename _Traits::char_type> _Matches;
; 753  :         if (!_Matches._Mark(_Needle, _Needle + _Needle_size)) { // couldn't put one of the characters into the bitmap,

  0007d	33 c0		 xor	 eax, eax
  0007f	40		 inc	 eax
  00080	0f 85 8e 00 00
	00		 jne	 $LN6@Traits_fin

; 754  :                                                                 // fall back to the serial algorithm
; 755  :             return _Traits_find_first_of<_Traits>(_Haystack, _Hay_size, _Start_at, _Needle, _Needle_size, false_type{});

  00086	33 c0		 xor	 eax, eax
  00088	88 45 a7	 mov	 BYTE PTR $T8[ebp], al
  0008b	8a 45 a7	 mov	 al, BYTE PTR $T8[ebp]
  0008e	88 45 94	 mov	 BYTE PTR ___formal$[ebp], al

; 733  :     if (_Needle_size != 0 && _Start_at < _Hay_size) { // room for match, look for it

  00091	83 bd c4 00 00
	00 00		 cmp	 DWORD PTR __Needle_size$[ebp], 0
  00098	74 71		 je	 SHORT $LN21@Traits_fin
  0009a	8b 85 bc 00 00
	00		 mov	 eax, DWORD PTR __Start_at$[ebp]
  000a0	3b 85 b8 00 00
	00		 cmp	 eax, DWORD PTR __Hay_size$[ebp]
  000a6	73 63		 jae	 SHORT $LN21@Traits_fin

; 734  :         const auto _End = _Haystack + _Hay_size;

  000a8	8b 85 b4 00 00
	00		 mov	 eax, DWORD PTR __Haystack$[ebp]
  000ae	03 85 b8 00 00
	00		 add	 eax, DWORD PTR __Hay_size$[ebp]
  000b4	89 45 8c	 mov	 DWORD PTR __End$3[ebp], eax

; 735  :         for (auto _Match_try = _Haystack + _Start_at; _Match_try < _End; ++_Match_try) {

  000b7	8b 85 b4 00 00
	00		 mov	 eax, DWORD PTR __Haystack$[ebp]
  000bd	03 85 bc 00 00
	00		 add	 eax, DWORD PTR __Start_at$[ebp]
  000c3	89 45 a0	 mov	 DWORD PTR __Match_try$6[ebp], eax
  000c6	eb 07		 jmp	 SHORT $LN20@Traits_fin
$LN18@Traits_fin:
  000c8	8b 45 a0	 mov	 eax, DWORD PTR __Match_try$6[ebp]
  000cb	40		 inc	 eax
  000cc	89 45 a0	 mov	 DWORD PTR __Match_try$6[ebp], eax
$LN20@Traits_fin:
  000cf	8b 45 a0	 mov	 eax, DWORD PTR __Match_try$6[ebp]
  000d2	3b 45 8c	 cmp	 eax, DWORD PTR __End$3[ebp]
  000d5	73 34		 jae	 SHORT $LN21@Traits_fin

; 410  :         return static_cast<const _Elem*>(_CSTD memchr(_First, _Ch, _Count));

  000d7	ff b5 c4 00 00
	00		 push	 DWORD PTR __Needle_size$[ebp]
  000dd	8b 45 a0	 mov	 eax, DWORD PTR __Match_try$6[ebp]
  000e0	0f be 00	 movsx	 eax, BYTE PTR [eax]
  000e3	50		 push	 eax
  000e4	ff b5 c0 00 00
	00		 push	 DWORD PTR __Needle$[ebp]
  000ea	e8 00 00 00 00	 call	 _memchr
  000ef	83 c4 0c	 add	 esp, 12			; 0000000cH
  000f2	89 45 88	 mov	 DWORD PTR $T2[ebp], eax

; 736  :             if (_Traits::find(_Needle, _Needle_size, *_Match_try)) {

  000f5	83 7d 88 00	 cmp	 DWORD PTR $T2[ebp], 0
  000f9	74 0e		 je	 SHORT $LN22@Traits_fin

; 737  :                 return static_cast<size_t>(_Match_try - _Haystack); // found a match

  000fb	8b 45 a0	 mov	 eax, DWORD PTR __Match_try$6[ebp]
  000fe	2b 85 b4 00 00
	00		 sub	 eax, DWORD PTR __Haystack$[ebp]
  00104	89 45 90	 mov	 DWORD PTR $T4[ebp], eax
  00107	eb 06		 jmp	 SHORT $LN23@Traits_fin
$LN22@Traits_fin:

; 738  :             }
; 739  :         }

  00109	eb bd		 jmp	 SHORT $LN18@Traits_fin
$LN21@Traits_fin:

; 740  :     }
; 741  : 
; 742  :     return static_cast<size_t>(-1); // no match

  0010b	83 4d 90 ff	 or	 DWORD PTR $T4[ebp], -1
$LN23@Traits_fin:

; 754  :                                                                 // fall back to the serial algorithm
; 755  :             return _Traits_find_first_of<_Traits>(_Haystack, _Hay_size, _Start_at, _Needle, _Needle_size, false_type{});

  0010f	8b 45 90	 mov	 eax, DWORD PTR $T4[ebp]
  00112	eb 54		 jmp	 SHORT $LN8@Traits_fin
$LN6@Traits_fin:

; 756  :         }
; 757  : 
; 758  :         const auto _End = _Haystack + _Hay_size;

  00114	8b 85 b4 00 00
	00		 mov	 eax, DWORD PTR __Haystack$[ebp]
  0011a	03 85 b8 00 00
	00		 add	 eax, DWORD PTR __Hay_size$[ebp]
  00120	89 45 84	 mov	 DWORD PTR __End$1[ebp], eax

; 759  :         for (auto _Match_try = _Haystack + _Start_at; _Match_try < _End; ++_Match_try) {

  00123	8b 85 b4 00 00
	00		 mov	 eax, DWORD PTR __Haystack$[ebp]
  00129	03 85 bc 00 00
	00		 add	 eax, DWORD PTR __Start_at$[ebp]
  0012f	89 45 9c	 mov	 DWORD PTR __Match_try$5[ebp], eax
  00132	eb 07		 jmp	 SHORT $LN4@Traits_fin
$LN2@Traits_fin:
  00134	8b 45 9c	 mov	 eax, DWORD PTR __Match_try$5[ebp]
  00137	40		 inc	 eax
  00138	89 45 9c	 mov	 DWORD PTR __Match_try$5[ebp], eax
$LN4@Traits_fin:
  0013b	8b 45 9c	 mov	 eax, DWORD PTR __Match_try$5[ebp]
  0013e	3b 45 84	 cmp	 eax, DWORD PTR __End$1[ebp]
  00141	73 22		 jae	 SHORT $LN5@Traits_fin

; 690  :         return _Matches[static_cast<unsigned char>(_Ch)];

  00143	8b 45 9c	 mov	 eax, DWORD PTR __Match_try$5[ebp]
  00146	0f b6 00	 movzx	 eax, BYTE PTR [eax]
  00149	8a 44 05 a8	 mov	 al, BYTE PTR __Matches$9[ebp+eax]
  0014d	88 45 a6	 mov	 BYTE PTR $T7[ebp], al

; 760  :             if (_Matches._Match(*_Match_try)) {

  00150	0f b6 45 a6	 movzx	 eax, BYTE PTR $T7[ebp]
  00154	85 c0		 test	 eax, eax
  00156	74 0b		 je	 SHORT $LN7@Traits_fin

; 761  :                 return static_cast<size_t>(_Match_try - _Haystack); // found a match

  00158	8b 45 9c	 mov	 eax, DWORD PTR __Match_try$5[ebp]
  0015b	2b 85 b4 00 00
	00		 sub	 eax, DWORD PTR __Haystack$[ebp]
  00161	eb 05		 jmp	 SHORT $LN8@Traits_fin
$LN7@Traits_fin:

; 762  :             }
; 763  :         }

  00163	eb cf		 jmp	 SHORT $LN2@Traits_fin
$LN5@Traits_fin:

; 764  :     }
; 765  : 
; 766  :     return static_cast<size_t>(-1); // no match

  00165	83 c8 ff	 or	 eax, -1
$LN8@Traits_fin:

; 767  : }

  00168	8b 8d a8 00 00
	00		 mov	 ecx, DWORD PTR __$ArrayPad$[ebp]
  0016e	33 cd		 xor	 ecx, ebp
  00170	e8 00 00 00 00	 call	 @__security_check_cookie@4
  00175	81 c5 ac 00 00
	00		 add	 ebp, 172		; 000000acH
  0017b	c9		 leave
  0017c	c3		 ret	 0
??$_Traits_find_first_of@U?$char_traits@D@std@@@std@@YAIQBDII0IU?$integral_constant@_N$00@0@@Z ENDP ; std::_Traits_find_first_of<std::char_traits<char> >
_TEXT	ENDS
; Function compile flags: /Odspy
; File C:\Program Files (x86)\Microsoft Visual Studio\2019\Community\VC\Tools\MSVC\14.28.29333\include\xstring
;	COMDAT ??$_Traits_find_first_not_of@U?$char_traits@D@std@@@std@@YAIQBDII0IU?$integral_constant@_N$00@0@@Z
_TEXT	SEGMENT
__End$1 = -124						; size = 4
$T2 = -120						; size = 4
__End$3 = -116						; size = 4
$T4 = -112						; size = 4
___formal$ = -108					; size = 1
__First$ = -104						; size = 4
__Match_try$5 = -100					; size = 4
__Match_try$6 = -96					; size = 4
$T7 = -90						; size = 1
$T8 = -89						; size = 1
__Matches$9 = -88					; size = 256
__$ArrayPad$ = 168					; size = 4
__Haystack$ = 180					; size = 4
__Hay_size$ = 184					; size = 4
__Start_at$ = 188					; size = 4
__Needle$ = 192						; size = 4
__Needle_size$ = 196					; size = 4
___formal$ = 200					; size = 1
??$_Traits_find_first_not_of@U?$char_traits@D@std@@@std@@YAIQBDII0IU?$integral_constant@_N$00@0@@Z PROC ; std::_Traits_find_first_not_of<std::char_traits<char> >, COMDAT

; 838  :     const size_t _Needle_size, true_type) noexcept {

  00000	55		 push	 ebp
  00001	8d ac 24 54 ff
	ff ff		 lea	 ebp, DWORD PTR [esp-172]
  00008	81 ec 28 01 00
	00		 sub	 esp, 296		; 00000128H
  0000e	a1 00 00 00 00	 mov	 eax, DWORD PTR ___security_cookie
  00013	33 c5		 xor	 eax, ebp
  00015	89 85 a8 00 00
	00		 mov	 DWORD PTR __$ArrayPad$[ebp], eax

; 839  :     // in [_Haystack, _Haystack + _Hay_size), look for none of [_Needle, _Needle + _Needle_size), at/after _Start_at
; 840  :     // special case for std::char_traits
; 841  :     if (_Start_at < _Hay_size) { // room for match, look for it

  0001b	8b 85 bc 00 00
	00		 mov	 eax, DWORD PTR __Start_at$[ebp]
  00021	3b 85 b8 00 00
	00		 cmp	 eax, DWORD PTR __Hay_size$[ebp]
  00027	0f 83 22 01 00
	00		 jae	 $LN5@Traits_fin
  0002d	68 00 01 00 00	 push	 256			; 00000100H
  00032	6a 00		 push	 0
  00034	8d 45 a8	 lea	 eax, DWORD PTR __Matches$9[ebp]
  00037	50		 push	 eax
  00038	e8 00 00 00 00	 call	 _memset
  0003d	83 c4 0c	 add	 esp, 12			; 0000000cH

; 842  :         _String_bitmap<typename _Traits::char_type> _Matches;
; 843  :         if (!_Matches._Mark(_Needle, _Needle + _Needle_size)) { // couldn't put one of the characters into the bitmap,

  00040	8b 85 c0 00 00
	00		 mov	 eax, DWORD PTR __Needle$[ebp]
  00046	89 45 98	 mov	 DWORD PTR __First$[ebp], eax
  00049	eb 07		 jmp	 SHORT $LN15@Traits_fin
$LN13@Traits_fin:

; 682  :         for (; _First != _Last; ++_First) {

  0004b	8b 45 98	 mov	 eax, DWORD PTR __First$[ebp]
  0004e	40		 inc	 eax
  0004f	89 45 98	 mov	 DWORD PTR __First$[ebp], eax
$LN15@Traits_fin:

; 842  :         _String_bitmap<typename _Traits::char_type> _Matches;
; 843  :         if (!_Matches._Mark(_Needle, _Needle + _Needle_size)) { // couldn't put one of the characters into the bitmap,

  00052	8b 85 c0 00 00
	00		 mov	 eax, DWORD PTR __Needle$[ebp]
  00058	03 85 c4 00 00
	00		 add	 eax, DWORD PTR __Needle_size$[ebp]

; 682  :         for (; _First != _Last; ++_First) {

  0005e	39 45 98	 cmp	 DWORD PTR __First$[ebp], eax
  00061	74 0d		 je	 SHORT $LN12@Traits_fin

; 683  :             _Matches[static_cast<unsigned char>(*_First)] = true;

  00063	8b 45 98	 mov	 eax, DWORD PTR __First$[ebp]
  00066	0f b6 00	 movzx	 eax, BYTE PTR [eax]
  00069	c6 44 05 a8 01	 mov	 BYTE PTR __Matches$9[ebp+eax], 1

; 684  :         }

  0006e	eb db		 jmp	 SHORT $LN13@Traits_fin
$LN12@Traits_fin:

; 842  :         _String_bitmap<typename _Traits::char_type> _Matches;
; 843  :         if (!_Matches._Mark(_Needle, _Needle + _Needle_size)) { // couldn't put one of the characters into the bitmap,

  00070	33 c0		 xor	 eax, eax
  00072	40		 inc	 eax
  00073	0f 85 85 00 00
	00		 jne	 $LN6@Traits_fin

; 844  :                                                                 // fall back to the serial algorithm
; 845  :             return _Traits_find_first_not_of<_Traits>(

  00079	33 c0		 xor	 eax, eax
  0007b	88 45 a7	 mov	 BYTE PTR $T8[ebp], al
  0007e	8a 45 a7	 mov	 al, BYTE PTR $T8[ebp]
  00081	88 45 94	 mov	 BYTE PTR ___formal$[ebp], al

; 823  :     if (_Start_at < _Hay_size) { // room for match, look for it

  00084	8b 85 bc 00 00
	00		 mov	 eax, DWORD PTR __Start_at$[ebp]
  0008a	3b 85 b8 00 00
	00		 cmp	 eax, DWORD PTR __Hay_size$[ebp]
  00090	73 63		 jae	 SHORT $LN21@Traits_fin

; 824  :         const auto _End = _Haystack + _Hay_size;

  00092	8b 85 b4 00 00
	00		 mov	 eax, DWORD PTR __Haystack$[ebp]
  00098	03 85 b8 00 00
	00		 add	 eax, DWORD PTR __Hay_size$[ebp]
  0009e	89 45 8c	 mov	 DWORD PTR __End$3[ebp], eax

; 825  :         for (auto _Match_try = _Haystack + _Start_at; _Match_try < _End; ++_Match_try) {

  000a1	8b 85 b4 00 00
	00		 mov	 eax, DWORD PTR __Haystack$[ebp]
  000a7	03 85 bc 00 00
	00		 add	 eax, DWORD PTR __Start_at$[ebp]
  000ad	89 45 a0	 mov	 DWORD PTR __Match_try$6[ebp], eax
  000b0	eb 07		 jmp	 SHORT $LN20@Traits_fin
$LN18@Traits_fin:
  000b2	8b 45 a0	 mov	 eax, DWORD PTR __Match_try$6[ebp]
  000b5	40		 inc	 eax
  000b6	89 45 a0	 mov	 DWORD PTR __Match_try$6[ebp], eax
$LN20@Traits_fin:
  000b9	8b 45 a0	 mov	 eax, DWORD PTR __Match_try$6[ebp]
  000bc	3b 45 8c	 cmp	 eax, DWORD PTR __End$3[ebp]
  000bf	73 34		 jae	 SHORT $LN21@Traits_fin

; 410  :         return static_cast<const _Elem*>(_CSTD memchr(_First, _Ch, _Count));

  000c1	ff b5 c4 00 00
	00		 push	 DWORD PTR __Needle_size$[ebp]
  000c7	8b 45 a0	 mov	 eax, DWORD PTR __Match_try$6[ebp]
  000ca	0f be 00	 movsx	 eax, BYTE PTR [eax]
  000cd	50		 push	 eax
  000ce	ff b5 c0 00 00
	00		 push	 DWORD PTR __Needle$[ebp]
  000d4	e8 00 00 00 00	 call	 _memchr
  000d9	83 c4 0c	 add	 esp, 12			; 0000000cH
  000dc	89 45 88	 mov	 DWORD PTR $T2[ebp], eax

; 826  :             if (!_Traits::find(_Needle, _Needle_size, *_Match_try)) {

  000df	83 7d 88 00	 cmp	 DWORD PTR $T2[ebp], 0
  000e3	75 0e		 jne	 SHORT $LN22@Traits_fin

; 827  :                 return static_cast<size_t>(_Match_try - _Haystack); // found a match

  000e5	8b 45 a0	 mov	 eax, DWORD PTR __Match_try$6[ebp]
  000e8	2b 85 b4 00 00
	00		 sub	 eax, DWORD PTR __Haystack$[ebp]
  000ee	89 45 90	 mov	 DWORD PTR $T4[ebp], eax
  000f1	eb 06		 jmp	 SHORT $LN23@Traits_fin
$LN22@Traits_fin:

; 828  :             }
; 829  :         }

  000f3	eb bd		 jmp	 SHORT $LN18@Traits_fin
$LN21@Traits_fin:

; 830  :     }
; 831  : 
; 832  :     return static_cast<size_t>(-1); // no match

  000f5	83 4d 90 ff	 or	 DWORD PTR $T4[ebp], -1
$LN23@Traits_fin:

; 844  :                                                                 // fall back to the serial algorithm
; 845  :             return _Traits_find_first_not_of<_Traits>(

  000f9	8b 45 90	 mov	 eax, DWORD PTR $T4[ebp]
  000fc	eb 54		 jmp	 SHORT $LN8@Traits_fin
$LN6@Traits_fin:

; 846  :                 _Haystack, _Hay_size, _Start_at, _Needle, _Needle_size, false_type{});
; 847  :         }
; 848  : 
; 849  :         const auto _End = _Haystack + _Hay_size;

  000fe	8b 85 b4 00 00
	00		 mov	 eax, DWORD PTR __Haystack$[ebp]
  00104	03 85 b8 00 00
	00		 add	 eax, DWORD PTR __Hay_size$[ebp]
  0010a	89 45 84	 mov	 DWORD PTR __End$1[ebp], eax

; 850  :         for (auto _Match_try = _Haystack + _Start_at; _Match_try < _End; ++_Match_try) {

  0010d	8b 85 b4 00 00
	00		 mov	 eax, DWORD PTR __Haystack$[ebp]
  00113	03 85 bc 00 00
	00		 add	 eax, DWORD PTR __Start_at$[ebp]
  00119	89 45 9c	 mov	 DWORD PTR __Match_try$5[ebp], eax
  0011c	eb 07		 jmp	 SHORT $LN4@Traits_fin
$LN2@Traits_fin:
  0011e	8b 45 9c	 mov	 eax, DWORD PTR __Match_try$5[ebp]
  00121	40		 inc	 eax
  00122	89 45 9c	 mov	 DWORD PTR __Match_try$5[ebp], eax
$LN4@Traits_fin:
  00125	8b 45 9c	 mov	 eax, DWORD PTR __Match_try$5[ebp]
  00128	3b 45 84	 cmp	 eax, DWORD PTR __End$1[ebp]
  0012b	73 22		 jae	 SHORT $LN5@Traits_fin

; 690  :         return _Matches[static_cast<unsigned char>(_Ch)];

  0012d	8b 45 9c	 mov	 eax, DWORD PTR __Match_try$5[ebp]
  00130	0f b6 00	 movzx	 eax, BYTE PTR [eax]
  00133	8a 44 05 a8	 mov	 al, BYTE PTR __Matches$9[ebp+eax]
  00137	88 45 a6	 mov	 BYTE PTR $T7[ebp], al

; 851  :             if (!_Matches._Match(*_Match_try)) {

  0013a	0f b6 45 a6	 movzx	 eax, BYTE PTR $T7[ebp]
  0013e	85 c0		 test	 eax, eax
  00140	75 0b		 jne	 SHORT $LN7@Traits_fin

; 852  :                 return static_cast<size_t>(_Match_try - _Haystack); // found a match

  00142	8b 45 9c	 mov	 eax, DWORD PTR __Match_try$5[ebp]
  00145	2b 85 b4 00 00
	00		 sub	 eax, DWORD PTR __Haystack$[ebp]
  0014b	eb 05		 jmp	 SHORT $LN8@Traits_fin
$LN7@Traits_fin:

; 853  :             }
; 854  :         }

  0014d	eb cf		 jmp	 SHORT $LN2@Traits_fin
$LN5@Traits_fin:

; 855  :     }
; 856  : 
; 857  :     return static_cast<size_t>(-1); // no match

  0014f	83 c8 ff	 or	 eax, -1
$LN8@Traits_fin:

; 858  : }

  00152	8b 8d a8 00 00
	00		 mov	 ecx, DWORD PTR __$ArrayPad$[ebp]
  00158	33 cd		 xor	 ecx, ebp
  0015a	e8 00 00 00 00	 call	 @__security_check_cookie@4
  0015f	81 c5 ac 00 00
	00		 add	 ebp, 172		; 000000acH
  00165	c9		 leave
  00166	c3		 ret	 0
??$_Traits_find_first_not_of@U?$char_traits@D@std@@@std@@YAIQBDII0IU?$integral_constant@_N$00@0@@Z ENDP ; std::_Traits_find_first_not_of<std::char_traits<char> >
_TEXT	ENDS
; Function compile flags: /Odspy
; File C:\Program Files (x86)\Microsoft Visual Studio\2019\Community\VC\Tools\MSVC\14.28.29333\include\xmemory
; File C:\Program Files (x86)\Microsoft Visual Studio\2019\Community\VC\Tools\MSVC\14.28.29333\include\xstddef
; File C:\Program Files (x86)\Microsoft Visual Studio\2019\Community\VC\Tools\MSVC\14.28.29333\include\xmemory
;	COMDAT ??$_Alloc_proxy@V?$allocator@U_Container_proxy@std@@@std@@@_Container_base12@std@@QAEX$$QAV?$allocator@U_Container_proxy@std@@@1@@Z
_TEXT	SEGMENT
__Max_possible$1 = -28					; size = 4
$T2 = -24						; size = 4
$T3 = -20						; size = 4
$T4 = -16						; size = 4
_this$ = -12						; size = 4
__New_proxy$ = -8					; size = 4
__Overflow_is_possible$5 = -1				; size = 1
__Al$ = 8						; size = 4
??$_Alloc_proxy@V?$allocator@U_Container_proxy@std@@@std@@@_Container_base12@std@@QAEX$$QAV?$allocator@U_Container_proxy@std@@@1@@Z PROC ; std::_Container_base12::_Alloc_proxy<std::allocator<std::_Container_proxy> >, COMDAT
; _this$ = ecx

; 1106 :     void _Alloc_proxy(_Alloc&& _Al) {

  00000	55		 push	 ebp
  00001	8b ec		 mov	 ebp, esp
  00003	83 ec 1c	 sub	 esp, 28			; 0000001cH
  00006	89 4d f4	 mov	 DWORD PTR _this$[ebp], ecx

; 56   :     constexpr bool _Overflow_is_possible = _Ty_size > 1;

  00009	c6 45 ff 01	 mov	 BYTE PTR __Overflow_is_possible$5[ebp], 1

; 57   : 
; 58   :     if _CONSTEXPR_IF (_Overflow_is_possible) {
; 59   :         constexpr size_t _Max_possible = static_cast<size_t>(-1) / _Ty_size;

  0000d	c7 45 e4 ff ff
	ff 1f		 mov	 DWORD PTR __Max_possible$1[ebp], 536870911 ; 1fffffffH

; 60   :         if (_Count > _Max_possible) {

  00014	33 c0		 xor	 eax, eax
  00016	40		 inc	 eax
  00017	3d ff ff ff 1f	 cmp	 eax, 536870911		; 1fffffffH
  0001c	76 05		 jbe	 SHORT $LN6@Alloc_prox

; 61   :             _Throw_bad_array_new_length(); // multiply overflow

  0001e	e8 00 00 00 00	 call	 ?_Throw_bad_array_new_length@std@@YAXXZ ; std::_Throw_bad_array_new_length
$LN6@Alloc_prox:

; 62   :         }
; 63   :     }
; 64   : 
; 65   :     return _Count * _Ty_size;

  00023	33 c0		 xor	 eax, eax
  00025	40		 inc	 eax
  00026	c1 e0 03	 shl	 eax, 3
  00029	89 45 f0	 mov	 DWORD PTR $T4[ebp], eax

; 814  :         return static_cast<_Ty*>(_Allocate<_New_alignof<_Ty>>(_Get_size_of_n<sizeof(_Ty)>(_Count)));

  0002c	ff 75 f0	 push	 DWORD PTR $T4[ebp]
  0002f	e8 00 00 00 00	 call	 ??$_Allocate@$07U_Default_allocate_traits@std@@$0A@@std@@YAPAXI@Z ; std::_Allocate<8,std::_Default_allocate_traits,0>
  00034	59		 pop	 ecx
  00035	89 45 ec	 mov	 DWORD PTR $T3[ebp], eax
; File C:\Program Files (x86)\Microsoft Visual Studio\2019\Community\VC\Tools\MSVC\14.28.29333\include\xstddef

; 289  :     return _Ptr;

  00038	8b 45 ec	 mov	 eax, DWORD PTR $T3[ebp]
  0003b	89 45 f8	 mov	 DWORD PTR __New_proxy$[ebp], eax
; File C:\Program Files (x86)\Microsoft Visual Studio\2019\Community\VC\Tools\MSVC\14.28.29333\include\xmemory

; 1108 :         _Construct_in_place(*_New_proxy, this);

  0003e	8b 45 f4	 mov	 eax, DWORD PTR _this$[ebp]
  00041	89 45 e8	 mov	 DWORD PTR $T2[ebp], eax
  00044	8d 45 e8	 lea	 eax, DWORD PTR $T2[ebp]
  00047	50		 push	 eax
  00048	ff 75 f8	 push	 DWORD PTR __New_proxy$[ebp]
  0004b	e8 00 00 00 00	 call	 ??$_Construct_in_place@U_Container_proxy@std@@PAU_Container_base12@2@@std@@YAXAAU_Container_proxy@0@$$QAPAU_Container_base12@0@@Z ; std::_Construct_in_place<std::_Container_proxy,std::_Container_base12 *>
  00050	59		 pop	 ecx
  00051	59		 pop	 ecx

; 1109 :         _Myproxy            = _New_proxy;

  00052	8b 45 f4	 mov	 eax, DWORD PTR _this$[ebp]
  00055	8b 4d f8	 mov	 ecx, DWORD PTR __New_proxy$[ebp]
  00058	89 08		 mov	 DWORD PTR [eax], ecx

; 1110 :         _New_proxy->_Mycont = this;

  0005a	8b 45 f8	 mov	 eax, DWORD PTR __New_proxy$[ebp]
  0005d	8b 4d f4	 mov	 ecx, DWORD PTR _this$[ebp]
  00060	89 08		 mov	 DWORD PTR [eax], ecx
$LN9@Alloc_prox:

; 1111 :     }

  00062	c9		 leave
  00063	c2 04 00	 ret	 4
??$_Alloc_proxy@V?$allocator@U_Container_proxy@std@@@std@@@_Container_base12@std@@QAEX$$QAV?$allocator@U_Container_proxy@std@@@1@@Z ENDP ; std::_Container_base12::_Alloc_proxy<std::allocator<std::_Container_proxy> >
_TEXT	ENDS
; Function compile flags: /Odspy
; File C:\Program Files (x86)\Microsoft Visual Studio\2019\Community\VC\Tools\MSVC\14.28.29333\include\xmemory
;	COMDAT ??$_Delete_plain_internal@V?$allocator@U_Container_proxy@std@@@std@@@std@@YAXAAV?$allocator@U_Container_proxy@std@@@0@QAU_Container_proxy@0@@Z
_TEXT	SEGMENT
__Al$ = 8						; size = 4
__Ptr$ = 12						; size = 4
??$_Delete_plain_internal@V?$allocator@U_Container_proxy@std@@@std@@@std@@YAXAAV?$allocator@U_Container_proxy@std@@@0@QAU_Container_proxy@0@@Z PROC ; std::_Delete_plain_internal<std::allocator<std::_Container_proxy> >, COMDAT

; 1031 : void _Delete_plain_internal(_Alloc& _Al, typename _Alloc::value_type* const _Ptr) noexcept {

  00000	55		 push	 ebp
  00001	8b ec		 mov	 ebp, esp

; 1032 :     // destroy *_Ptr in place, then deallocate _Ptr using _Al; used for internal container types the user didn't name
; 1033 :     using _Ty = typename _Alloc::value_type;
; 1034 :     _Ptr->~_Ty();
; 1035 :     _Deallocate_plain(_Al, _Ptr);

  00003	ff 75 0c	 push	 DWORD PTR __Ptr$[ebp]
  00006	ff 75 08	 push	 DWORD PTR __Al$[ebp]
  00009	e8 00 00 00 00	 call	 ??$_Deallocate_plain@V?$allocator@U_Container_proxy@std@@@std@@@std@@YAXAAV?$allocator@U_Container_proxy@std@@@0@QAU_Container_proxy@0@@Z ; std::_Deallocate_plain<std::allocator<std::_Container_proxy> >
  0000e	59		 pop	 ecx
  0000f	59		 pop	 ecx

; 1036 : }

  00010	5d		 pop	 ebp
  00011	c3		 ret	 0
??$_Delete_plain_internal@V?$allocator@U_Container_proxy@std@@@std@@@std@@YAXAAV?$allocator@U_Container_proxy@std@@@0@QAU_Container_proxy@0@@Z ENDP ; std::_Delete_plain_internal<std::allocator<std::_Container_proxy> >
_TEXT	ENDS
; Function compile flags: /Odspy
; File C:\Program Files (x86)\Microsoft Visual Studio\2019\Community\VC\Tools\MSVC\14.28.29333\include\deque
; File C:\Program Files (x86)\Microsoft Visual Studio\2019\Community\VC\Tools\MSVC\14.28.29333\include\xmemory
; File C:\Program Files (x86)\Microsoft Visual Studio\2019\Community\VC\Tools\MSVC\14.28.29333\include\deque
; File C:\Program Files (x86)\Microsoft Visual Studio\2019\Community\VC\Tools\MSVC\14.28.29333\include\xmemory
; File C:\Program Files (x86)\Microsoft Visual Studio\2019\Community\VC\Tools\MSVC\14.28.29333\include\deque
; File C:\Program Files (x86)\Microsoft Visual Studio\2019\Community\VC\Tools\MSVC\14.28.29333\include\type_traits
; File C:\Program Files (x86)\Microsoft Visual Studio\2019\Community\VC\Tools\MSVC\14.28.29333\include\deque
; File C:\Program Files (x86)\Microsoft Visual Studio\2019\Community\VC\Tools\MSVC\14.28.29333\include\xstddef
; File C:\Program Files (x86)\Microsoft Visual Studio\2019\Community\VC\Tools\MSVC\14.28.29333\include\deque
; File C:\Program Files (x86)\Microsoft Visual Studio\2019\Community\VC\Tools\MSVC\14.28.29333\include\xmemory
; File C:\Program Files (x86)\Microsoft Visual Studio\2019\Community\VC\Tools\MSVC\14.28.29333\include\deque
; File C:\Program Files (x86)\Microsoft Visual Studio\2019\Community\VC\Tools\MSVC\14.28.29333\include\vcruntime_new.h
; File C:\Program Files (x86)\Microsoft Visual Studio\2019\Community\VC\Tools\MSVC\14.28.29333\include\type_traits
; File C:\Program Files (x86)\Microsoft Visual Studio\2019\Community\VC\Tools\MSVC\14.28.29333\include\xmemory
; File C:\Program Files (x86)\Microsoft Visual Studio\2019\Community\VC\Tools\MSVC\14.28.29333\include\deque
;	COMDAT ??$_Emplace_back_internal@ABV?$basic_string@DU?$char_traits@D@std@@V?$allocator@D@2@@std@@@?$deque@V?$basic_string@DU?$char_traits@D@std@@V?$allocator@D@2@@std@@V?$allocator@V?$basic_string@DU?$char_traits@D@std@@V?$allocator@D@2@@std@@@2@@std@@AAEXABV?$basic_string@DU?$char_traits@D@std@@V?$allocator@D@2@@1@@Z
_TEXT	SEGMENT
$T1 = -60						; size = 4
$T2 = -56						; size = 4
__Max_possible$3 = -52					; size = 4
$T4 = -48						; size = 4
$T5 = -44						; size = 4
$T6 = -40						; size = 4
$T7 = -36						; size = 4
$T8 = -32						; size = 4
$T9 = -28						; size = 4
$T10 = -24						; size = 4
$T11 = -20						; size = 4
__Ptr$ = -16						; size = 4
$T12 = -12						; size = 4
$T13 = -8						; size = 4
$T14 = -4						; size = 4
$T15 = 0						; size = 4
$T16 = 4						; size = 4
$T17 = 8						; size = 4
$T18 = 12						; size = 4
$T19 = 16						; size = 4
$T20 = 20						; size = 4
$T21 = 24						; size = 4
$T22 = 28						; size = 4
$T23 = 32						; size = 4
$T24 = 36						; size = 4
$T25 = 40						; size = 4
$T26 = 44						; size = 4
$T27 = 48						; size = 4
$T28 = 52						; size = 4
$T29 = 56						; size = 4
$T30 = 60						; size = 4
$T31 = 64						; size = 4
$T32 = 68						; size = 4
$T33 = 72						; size = 4
$T34 = 76						; size = 4
$T35 = 80						; size = 4
$T36 = 84						; size = 4
$T37 = 88						; size = 4
__Newoff$ = 92						; size = 4
tv161 = 96						; size = 4
__Block$ = 100						; size = 4
tv84 = 104						; size = 4
__Overflow_is_possible$38 = 111				; size = 1
_this$ = 112						; size = 4
_<_Vals_0>$ = 124					; size = 4
??$_Emplace_back_internal@ABV?$basic_string@DU?$char_traits@D@std@@V?$allocator@D@2@@std@@@?$deque@V?$basic_string@DU?$char_traits@D@std@@V?$allocator@D@2@@std@@V?$allocator@V?$basic_string@DU?$char_traits@D@std@@V?$allocator@D@2@@std@@@2@@std@@AAEXABV?$basic_string@DU?$char_traits@D@std@@V?$allocator@D@2@@1@@Z PROC ; std::deque<std::basic_string<char,std::char_traits<char>,std::allocator<char> >,std::allocator<std::basic_string<char,std::char_traits<char>,std::allocator<char> > > >::_Emplace_back_internal<std::basic_string<char,std::char_traits<char>,std::allocator<char> > const &>, COMDAT
; _this$ = ecx

; 1114 :     void _Emplace_back_internal(_Tys&&... _Vals) {

  00000	55		 push	 ebp
  00001	8d 6c 24 8c	 lea	 ebp, DWORD PTR [esp-116]
  00005	81 ec b0 00 00
	00		 sub	 esp, 176		; 000000b0H
  0000b	89 4d 70	 mov	 DWORD PTR _this$[ebp], ecx

; 1530 :         return _Mypair._Myval2;

  0000e	8b 45 70	 mov	 eax, DWORD PTR _this$[ebp]
  00011	89 45 58	 mov	 DWORD PTR $T37[ebp], eax

; 1554 :         return _Get_data()._Myoff;

  00014	8b 45 58	 mov	 eax, DWORD PTR $T37[ebp]
  00017	83 c0 0c	 add	 eax, 12			; 0000000cH
  0001a	89 45 50	 mov	 DWORD PTR $T35[ebp], eax

; 1530 :         return _Mypair._Myval2;

  0001d	8b 45 70	 mov	 eax, DWORD PTR _this$[ebp]
  00020	89 45 54	 mov	 DWORD PTR $T36[ebp], eax

; 1562 :         return _Get_data()._Mysize;

  00023	8b 45 54	 mov	 eax, DWORD PTR $T36[ebp]
  00026	83 c0 10	 add	 eax, 16			; 00000010H
  00029	89 45 4c	 mov	 DWORD PTR $T34[ebp], eax

; 1115 :         _PUSH_BACK_BEGIN;

  0002c	8b 45 50	 mov	 eax, DWORD PTR $T35[ebp]
  0002f	8b 00		 mov	 eax, DWORD PTR [eax]
  00031	8b 4d 4c	 mov	 ecx, DWORD PTR $T34[ebp]
  00034	03 01		 add	 eax, DWORD PTR [ecx]
  00036	33 d2		 xor	 edx, edx
  00038	33 c9		 xor	 ecx, ecx
  0003a	41		 inc	 ecx
  0003b	f7 f1		 div	 ecx
  0003d	85 d2		 test	 edx, edx
  0003f	75 35		 jne	 SHORT $LN2@Emplace_ba

; 1530 :         return _Mypair._Myval2;

  00041	8b 45 70	 mov	 eax, DWORD PTR _this$[ebp]
  00044	89 45 48	 mov	 DWORD PTR $T33[ebp], eax

; 1546 :         return _Get_data()._Mapsize;

  00047	8b 45 48	 mov	 eax, DWORD PTR $T33[ebp]
  0004a	83 c0 08	 add	 eax, 8
  0004d	89 45 3c	 mov	 DWORD PTR $T30[ebp], eax

; 1530 :         return _Mypair._Myval2;

  00050	8b 45 70	 mov	 eax, DWORD PTR _this$[ebp]
  00053	89 45 44	 mov	 DWORD PTR $T32[ebp], eax

; 1562 :         return _Get_data()._Mysize;

  00056	8b 45 44	 mov	 eax, DWORD PTR $T32[ebp]
  00059	83 c0 10	 add	 eax, 16			; 00000010H
  0005c	89 45 40	 mov	 DWORD PTR $T31[ebp], eax

; 1115 :         _PUSH_BACK_BEGIN;

  0005f	8b 45 40	 mov	 eax, DWORD PTR $T31[ebp]
  00062	8b 00		 mov	 eax, DWORD PTR [eax]
  00064	40		 inc	 eax
  00065	8b 4d 3c	 mov	 ecx, DWORD PTR $T30[ebp]
  00068	39 01		 cmp	 DWORD PTR [ecx], eax
  0006a	77 0a		 ja	 SHORT $LN2@Emplace_ba
  0006c	6a 01		 push	 1
  0006e	8b 4d 70	 mov	 ecx, DWORD PTR _this$[ebp]
  00071	e8 00 00 00 00	 call	 ?_Growmap@?$deque@V?$basic_string@DU?$char_traits@D@std@@V?$allocator@D@2@@std@@V?$allocator@V?$basic_string@DU?$char_traits@D@std@@V?$allocator@D@2@@std@@@2@@std@@AAEXI@Z ; std::deque<std::basic_string<char,std::char_traits<char>,std::allocator<char> >,std::allocator<std::basic_string<char,std::char_traits<char>,std::allocator<char> > > >::_Growmap
$LN2@Emplace_ba:
  00076	8b 45 d4	 mov	 eax, DWORD PTR $T5[ebp]
  00079	89 45 68	 mov	 DWORD PTR tv84[ebp], eax

; 1530 :         return _Mypair._Myval2;

  0007c	8b 45 70	 mov	 eax, DWORD PTR _this$[ebp]
  0007f	89 45 38	 mov	 DWORD PTR $T29[ebp], eax

; 1554 :         return _Get_data()._Myoff;

  00082	8b 45 38	 mov	 eax, DWORD PTR $T29[ebp]
  00085	83 c0 0c	 add	 eax, 12			; 0000000cH
  00088	89 45 68	 mov	 DWORD PTR tv84[ebp], eax

; 1530 :         return _Mypair._Myval2;

  0008b	8b 45 70	 mov	 eax, DWORD PTR _this$[ebp]
  0008e	89 45 34	 mov	 DWORD PTR $T28[ebp], eax

; 1546 :         return _Get_data()._Mapsize;

  00091	8b 45 34	 mov	 eax, DWORD PTR $T28[ebp]
  00094	83 c0 08	 add	 eax, 8
  00097	89 45 30	 mov	 DWORD PTR $T27[ebp], eax

; 1115 :         _PUSH_BACK_BEGIN;

  0009a	8b 45 30	 mov	 eax, DWORD PTR $T27[ebp]
  0009d	8b 00		 mov	 eax, DWORD PTR [eax]
  0009f	48		 dec	 eax
  000a0	8b 4d 68	 mov	 ecx, DWORD PTR tv84[ebp]
  000a3	23 01		 and	 eax, DWORD PTR [ecx]
  000a5	8b 4d 68	 mov	 ecx, DWORD PTR tv84[ebp]
  000a8	89 01		 mov	 DWORD PTR [ecx], eax

; 1530 :         return _Mypair._Myval2;

  000aa	8b 45 70	 mov	 eax, DWORD PTR _this$[ebp]
  000ad	89 45 2c	 mov	 DWORD PTR $T26[ebp], eax

; 1554 :         return _Get_data()._Myoff;

  000b0	8b 45 2c	 mov	 eax, DWORD PTR $T26[ebp]
  000b3	83 c0 0c	 add	 eax, 12			; 0000000cH
  000b6	89 45 24	 mov	 DWORD PTR $T24[ebp], eax

; 1530 :         return _Mypair._Myval2;

  000b9	8b 45 70	 mov	 eax, DWORD PTR _this$[ebp]
  000bc	89 45 28	 mov	 DWORD PTR $T25[ebp], eax

; 1562 :         return _Get_data()._Mysize;

  000bf	8b 45 28	 mov	 eax, DWORD PTR $T25[ebp]
  000c2	83 c0 10	 add	 eax, 16			; 00000010H
  000c5	89 45 20	 mov	 DWORD PTR $T23[ebp], eax

; 1115 :         _PUSH_BACK_BEGIN;

  000c8	8b 45 24	 mov	 eax, DWORD PTR $T24[ebp]
  000cb	8b 00		 mov	 eax, DWORD PTR [eax]
  000cd	8b 4d 20	 mov	 ecx, DWORD PTR $T23[ebp]
  000d0	03 01		 add	 eax, DWORD PTR [ecx]
  000d2	89 45 5c	 mov	 DWORD PTR __Newoff$[ebp], eax

; 1534 :         return _Mypair._Myval2;

  000d5	8b 45 70	 mov	 eax, DWORD PTR _this$[ebp]
  000d8	89 45 1c	 mov	 DWORD PTR $T22[ebp], eax

; 548  :         return (_Off / _DEQUESIZ) & (_Mapsize - 1);

  000db	8b 45 1c	 mov	 eax, DWORD PTR $T22[ebp]
  000de	8b 40 08	 mov	 eax, DWORD PTR [eax+8]
  000e1	48		 dec	 eax
  000e2	23 45 5c	 and	 eax, DWORD PTR __Newoff$[ebp]
  000e5	89 45 18	 mov	 DWORD PTR $T21[ebp], eax

; 1514 :         return _Get_data()._Getblock(_Off);

  000e8	8b 45 18	 mov	 eax, DWORD PTR $T21[ebp]
  000eb	89 45 64	 mov	 DWORD PTR __Block$[ebp], eax

; 1530 :         return _Mypair._Myval2;

  000ee	8b 45 70	 mov	 eax, DWORD PTR _this$[ebp]
  000f1	89 45 14	 mov	 DWORD PTR $T20[ebp], eax

; 1538 :         return _Get_data()._Map;

  000f4	8b 45 14	 mov	 eax, DWORD PTR $T20[ebp]
  000f7	83 c0 04	 add	 eax, 4
  000fa	89 45 10	 mov	 DWORD PTR $T19[ebp], eax

; 1115 :         _PUSH_BACK_BEGIN;

  000fd	8b 45 10	 mov	 eax, DWORD PTR $T19[ebp]
  00100	8b 00		 mov	 eax, DWORD PTR [eax]
  00102	8b 4d 64	 mov	 ecx, DWORD PTR __Block$[ebp]
  00105	83 3c 88 00	 cmp	 DWORD PTR [eax+ecx*4], 0
  00109	75 58		 jne	 SHORT $LN3@Emplace_ba

; 1522 :         return _Mypair._Get_first();

  0010b	8b 45 70	 mov	 eax, DWORD PTR _this$[ebp]
; File C:\Program Files (x86)\Microsoft Visual Studio\2019\Community\VC\Tools\MSVC\14.28.29333\include\xmemory

; 1347 :         return *this;

  0010e	89 45 0c	 mov	 DWORD PTR $T18[ebp], eax
; File C:\Program Files (x86)\Microsoft Visual Studio\2019\Community\VC\Tools\MSVC\14.28.29333\include\deque

; 1522 :         return _Mypair._Get_first();

  00111	8b 45 0c	 mov	 eax, DWORD PTR $T18[ebp]
  00114	89 45 d0	 mov	 DWORD PTR $T4[ebp], eax
; File C:\Program Files (x86)\Microsoft Visual Studio\2019\Community\VC\Tools\MSVC\14.28.29333\include\xmemory

; 56   :     constexpr bool _Overflow_is_possible = _Ty_size > 1;

  00117	c6 45 6f 01	 mov	 BYTE PTR __Overflow_is_possible$38[ebp], 1

; 57   : 
; 58   :     if _CONSTEXPR_IF (_Overflow_is_possible) {
; 59   :         constexpr size_t _Max_possible = static_cast<size_t>(-1) / _Ty_size;

  0011b	c7 45 cc aa aa
	aa 0a		 mov	 DWORD PTR __Max_possible$3[ebp], 178956970 ; 0aaaaaaaH

; 60   :         if (_Count > _Max_possible) {

  00122	33 c0		 xor	 eax, eax
  00124	40		 inc	 eax
  00125	3d aa aa aa 0a	 cmp	 eax, 178956970		; 0aaaaaaaH
  0012a	76 05		 jbe	 SHORT $LN77@Emplace_ba

; 61   :             _Throw_bad_array_new_length(); // multiply overflow

  0012c	e8 00 00 00 00	 call	 ?_Throw_bad_array_new_length@std@@YAXXZ ; std::_Throw_bad_array_new_length
$LN77@Emplace_ba:

; 62   :         }
; 63   :     }
; 64   : 
; 65   :     return _Count * _Ty_size;

  00131	33 c0		 xor	 eax, eax
  00133	40		 inc	 eax
  00134	6b c0 18	 imul	 eax, eax, 24
  00137	89 45 08	 mov	 DWORD PTR $T17[ebp], eax

; 814  :         return static_cast<_Ty*>(_Allocate<_New_alignof<_Ty>>(_Get_size_of_n<sizeof(_Ty)>(_Count)));

  0013a	ff 75 08	 push	 DWORD PTR $T17[ebp]
  0013d	e8 00 00 00 00	 call	 ??$_Allocate@$07U_Default_allocate_traits@std@@$0A@@std@@YAPAXI@Z ; std::_Allocate<8,std::_Default_allocate_traits,0>
  00142	59		 pop	 ecx
  00143	89 45 fc	 mov	 DWORD PTR $T14[ebp], eax
; File C:\Program Files (x86)\Microsoft Visual Studio\2019\Community\VC\Tools\MSVC\14.28.29333\include\deque

; 1530 :         return _Mypair._Myval2;

  00146	8b 45 70	 mov	 eax, DWORD PTR _this$[ebp]
  00149	89 45 04	 mov	 DWORD PTR $T16[ebp], eax

; 1538 :         return _Get_data()._Map;

  0014c	8b 45 04	 mov	 eax, DWORD PTR $T16[ebp]
  0014f	83 c0 04	 add	 eax, 4
  00152	89 45 00	 mov	 DWORD PTR $T15[ebp], eax

; 1115 :         _PUSH_BACK_BEGIN;

  00155	8b 45 00	 mov	 eax, DWORD PTR $T15[ebp]
  00158	8b 00		 mov	 eax, DWORD PTR [eax]
  0015a	8b 4d 64	 mov	 ecx, DWORD PTR __Block$[ebp]
  0015d	8b 55 fc	 mov	 edx, DWORD PTR $T14[ebp]
  00160	89 14 88	 mov	 DWORD PTR [eax+ecx*4], edx
$LN3@Emplace_ba:
; File C:\Program Files (x86)\Microsoft Visual Studio\2019\Community\VC\Tools\MSVC\14.28.29333\include\type_traits

; 1443 :     return static_cast<_Ty&&>(_Arg);

  00163	8b 45 7c	 mov	 eax, DWORD PTR _<_Vals_0>$[ebp]
  00166	89 45 e4	 mov	 DWORD PTR $T9[ebp], eax
; File C:\Program Files (x86)\Microsoft Visual Studio\2019\Community\VC\Tools\MSVC\14.28.29333\include\deque

; 1530 :         return _Mypair._Myval2;

  00169	8b 45 70	 mov	 eax, DWORD PTR _this$[ebp]
  0016c	89 45 f8	 mov	 DWORD PTR $T13[ebp], eax

; 1538 :         return _Get_data()._Map;

  0016f	8b 45 f8	 mov	 eax, DWORD PTR $T13[ebp]
  00172	83 c0 04	 add	 eax, 4
  00175	89 45 f4	 mov	 DWORD PTR $T12[ebp], eax

; 1116 :         _Alty_traits::construct(_Getal(), _Unfancy(_Map()[_Block] + _Newoff % _DEQUESIZ), _STD forward<_Tys>(_Vals)...);

  00178	8b 45 5c	 mov	 eax, DWORD PTR __Newoff$[ebp]
  0017b	33 d2		 xor	 edx, edx
  0017d	33 c9		 xor	 ecx, ecx
  0017f	41		 inc	 ecx
  00180	f7 f1		 div	 ecx
  00182	6b c2 18	 imul	 eax, edx, 24
  00185	8b 4d f4	 mov	 ecx, DWORD PTR $T12[ebp]
  00188	8b 09		 mov	 ecx, DWORD PTR [ecx]
  0018a	8b 55 64	 mov	 edx, DWORD PTR __Block$[ebp]
  0018d	03 04 91	 add	 eax, DWORD PTR [ecx+edx*4]
  00190	89 45 f0	 mov	 DWORD PTR __Ptr$[ebp], eax
; File C:\Program Files (x86)\Microsoft Visual Studio\2019\Community\VC\Tools\MSVC\14.28.29333\include\xstddef

; 289  :     return _Ptr;

  00193	8b 45 f0	 mov	 eax, DWORD PTR __Ptr$[ebp]
  00196	89 45 e8	 mov	 DWORD PTR $T10[ebp], eax
; File C:\Program Files (x86)\Microsoft Visual Studio\2019\Community\VC\Tools\MSVC\14.28.29333\include\deque

; 1522 :         return _Mypair._Get_first();

  00199	8b 45 70	 mov	 eax, DWORD PTR _this$[ebp]
; File C:\Program Files (x86)\Microsoft Visual Studio\2019\Community\VC\Tools\MSVC\14.28.29333\include\xmemory

; 1347 :         return *this;

  0019c	89 45 ec	 mov	 DWORD PTR $T11[ebp], eax
; File C:\Program Files (x86)\Microsoft Visual Studio\2019\Community\VC\Tools\MSVC\14.28.29333\include\deque

; 1522 :         return _Mypair._Get_first();

  0019f	8b 45 ec	 mov	 eax, DWORD PTR $T11[ebp]
  001a2	89 45 c8	 mov	 DWORD PTR $T2[ebp], eax
; File C:\Program Files (x86)\Microsoft Visual Studio\2019\Community\VC\Tools\MSVC\14.28.29333\include\vcruntime_new.h

; 169  :         return _Where;

  001a5	8b 45 e8	 mov	 eax, DWORD PTR $T10[ebp]
  001a8	89 45 dc	 mov	 DWORD PTR $T7[ebp], eax
; File C:\Program Files (x86)\Microsoft Visual Studio\2019\Community\VC\Tools\MSVC\14.28.29333\include\type_traits

; 1443 :     return static_cast<_Ty&&>(_Arg);

  001ab	8b 45 e4	 mov	 eax, DWORD PTR $T9[ebp]
  001ae	89 45 e0	 mov	 DWORD PTR $T8[ebp], eax
; File C:\Program Files (x86)\Microsoft Visual Studio\2019\Community\VC\Tools\MSVC\14.28.29333\include\xmemory

; 701  :         ::new (const_cast<void*>(static_cast<const volatile void*>(_Ptr))) _Objty(_STD forward<_Types>(_Args)...);

  001b1	ff 75 e0	 push	 DWORD PTR $T8[ebp]
  001b4	8b 4d dc	 mov	 ecx, DWORD PTR $T7[ebp]
  001b7	e8 00 00 00 00	 call	 ??0?$basic_string@DU?$char_traits@D@std@@V?$allocator@D@2@@std@@QAE@ABV01@@Z ; std::basic_string<char,std::char_traits<char>,std::allocator<char> >::basic_string<char,std::char_traits<char>,std::allocator<char> >
; File C:\Program Files (x86)\Microsoft Visual Studio\2019\Community\VC\Tools\MSVC\14.28.29333\include\deque

; 1117 :         _PUSH_BACK_END;

  001bc	8b 45 c4	 mov	 eax, DWORD PTR $T1[ebp]
  001bf	89 45 60	 mov	 DWORD PTR tv161[ebp], eax

; 1530 :         return _Mypair._Myval2;

  001c2	8b 45 70	 mov	 eax, DWORD PTR _this$[ebp]
  001c5	89 45 d8	 mov	 DWORD PTR $T6[ebp], eax

; 1562 :         return _Get_data()._Mysize;

  001c8	8b 45 d8	 mov	 eax, DWORD PTR $T6[ebp]
  001cb	83 c0 10	 add	 eax, 16			; 00000010H
  001ce	89 45 60	 mov	 DWORD PTR tv161[ebp], eax

; 1117 :         _PUSH_BACK_END;

  001d1	8b 45 60	 mov	 eax, DWORD PTR tv161[ebp]
  001d4	8b 00		 mov	 eax, DWORD PTR [eax]
  001d6	40		 inc	 eax
  001d7	8b 4d 60	 mov	 ecx, DWORD PTR tv161[ebp]
  001da	89 01		 mov	 DWORD PTR [ecx], eax
$LN80@Emplace_ba:

; 1118 :     }

  001dc	83 c5 74	 add	 ebp, 116		; 00000074H
  001df	c9		 leave
  001e0	c2 04 00	 ret	 4
??$_Emplace_back_internal@ABV?$basic_string@DU?$char_traits@D@std@@V?$allocator@D@2@@std@@@?$deque@V?$basic_string@DU?$char_traits@D@std@@V?$allocator@D@2@@std@@V?$allocator@V?$basic_string@DU?$char_traits@D@std@@V?$allocator@D@2@@std@@@2@@std@@AAEXABV?$basic_string@DU?$char_traits@D@std@@V?$allocator@D@2@@1@@Z ENDP ; std::deque<std::basic_string<char,std::char_traits<char>,std::allocator<char> >,std::allocator<std::basic_string<char,std::char_traits<char>,std::allocator<char> > > >::_Emplace_back_internal<std::basic_string<char,std::char_traits<char>,std::allocator<char> > const &>
_TEXT	ENDS
; Function compile flags: /Odspy
; File C:\Program Files (x86)\Microsoft Visual Studio\2019\Community\VC\Tools\MSVC\14.28.29333\include\vector
; File C:\Program Files (x86)\Microsoft Visual Studio\2019\Community\VC\Tools\MSVC\14.28.29333\include\xmemory
; File C:\Program Files (x86)\Microsoft Visual Studio\2019\Community\VC\Tools\MSVC\14.28.29333\include\vector
; File C:\Program Files (x86)\Microsoft Visual Studio\2019\Community\VC\Tools\MSVC\14.28.29333\include\xmemory
; File C:\Program Files (x86)\Microsoft Visual Studio\2019\Community\VC\Tools\MSVC\14.28.29333\include\vector
; File C:\Program Files (x86)\Microsoft Visual Studio\2019\Community\VC\Tools\MSVC\14.28.29333\include\xmemory
; File C:\Program Files (x86)\Microsoft Visual Studio\2019\Community\VC\Tools\MSVC\14.28.29333\include\limits
; File C:\Program Files (x86)\Microsoft Visual Studio\2019\Community\VC\Tools\MSVC\14.28.29333\include\vector
; File C:\Program Files (x86)\Microsoft Visual Studio\2019\Community\VC\Tools\MSVC\14.28.29333\include\utility
; File C:\Program Files (x86)\Microsoft Visual Studio\2019\Community\VC\Tools\MSVC\14.28.29333\include\vector
; File C:\Program Files (x86)\Microsoft Visual Studio\2019\Community\VC\Tools\MSVC\14.28.29333\include\xmemory
; File C:\Program Files (x86)\Microsoft Visual Studio\2019\Community\VC\Tools\MSVC\14.28.29333\include\vector
; File C:\Program Files (x86)\Microsoft Visual Studio\2019\Community\VC\Tools\MSVC\14.28.29333\include\type_traits
; File C:\Program Files (x86)\Microsoft Visual Studio\2019\Community\VC\Tools\MSVC\14.28.29333\include\vector
; File C:\Program Files (x86)\Microsoft Visual Studio\2019\Community\VC\Tools\MSVC\14.28.29333\include\xstddef
; File C:\Program Files (x86)\Microsoft Visual Studio\2019\Community\VC\Tools\MSVC\14.28.29333\include\vcruntime_new.h
; File C:\Program Files (x86)\Microsoft Visual Studio\2019\Community\VC\Tools\MSVC\14.28.29333\include\type_traits
; File C:\Program Files (x86)\Microsoft Visual Studio\2019\Community\VC\Tools\MSVC\14.28.29333\include\xmemory
; File C:\Program Files (x86)\Microsoft Visual Studio\2019\Community\VC\Tools\MSVC\14.28.29333\include\vector
; File C:\Program Files (x86)\Microsoft Visual Studio\2019\Community\VC\Tools\MSVC\14.28.29333\include\xmemory
; File C:\Program Files (x86)\Microsoft Visual Studio\2019\Community\VC\Tools\MSVC\14.28.29333\include\vector
; File C:\Program Files (x86)\Microsoft Visual Studio\2019\Community\VC\Tools\MSVC\14.28.29333\include\xmemory
; File C:\Program Files (x86)\Microsoft Visual Studio\2019\Community\VC\Tools\MSVC\14.28.29333\include\vector
; File C:\Program Files (x86)\Microsoft Visual Studio\2019\Community\VC\Tools\MSVC\14.28.29333\include\xmemory
; File C:\Program Files (x86)\Microsoft Visual Studio\2019\Community\VC\Tools\MSVC\14.28.29333\include\vector
;	COMDAT ??$_Emplace_reallocate@V?$basic_string@DU?$char_traits@D@std@@V?$allocator@D@2@@std@@@?$vector@V?$basic_string@DU?$char_traits@D@std@@V?$allocator@D@2@@std@@V?$allocator@V?$basic_string@DU?$char_traits@D@std@@V?$allocator@D@2@@std@@@2@@std@@QAEPAV?$basic_string@DU?$char_traits@D@std@@V?$allocator@D@2@@1@QAV21@$$QAV21@@Z
_TEXT	SEGMENT
__Max_possible$2 = -68					; size = 4
$T3 = -64						; size = 4
__Al$ = -60						; size = 4
__Last$ = -56						; size = 4
$T4 = -52						; size = 4
$T5 = -48						; size = 4
__First$ = -44						; size = 4
$T6 = -40						; size = 4
$T7 = -36						; size = 4
__First$ = -32						; size = 4
__Last$ = -28						; size = 4
$T8 = -24						; size = 4
$T9 = -20						; size = 4
__$EHRec$ = -16						; size = 16
$T10 = 0						; size = 4
$T11 = 4						; size = 4
$T12 = 8						; size = 4
$T13 = 12						; size = 4
$T14 = 16						; size = 4
$T15 = 20						; size = 4
$T16 = 24						; size = 4
$T17 = 28						; size = 4
$T18 = 32						; size = 4
$T19 = 36						; size = 4
$T20 = 40						; size = 4
__Newsize$ = 44						; size = 4
__Constructed_last$ = 48				; size = 4
__Oldsize$ = 52						; size = 4
tv172 = 56						; size = 4
$T21 = 60						; size = 4
$T22 = 64						; size = 4
__My_data$ = 68						; size = 4
__Constructed_first$ = 72				; size = 4
___formal$ = 76						; size = 1
__Overflow_is_possible$23 = 83				; size = 1
__Newcapacity$ = 84					; size = 4
__Mylast$ = 88						; size = 4
__Myfirst$ = 92						; size = 4
__Whereoff$ = 96					; size = 4
$T24 = 103						; size = 1
_this$ = 104						; size = 4
__Newvec$ = 108						; size = 4
__Whereptr$ = 120					; size = 4
_<_Val_0>$ = 124					; size = 4
??$_Emplace_reallocate@V?$basic_string@DU?$char_traits@D@std@@V?$allocator@D@2@@std@@@?$vector@V?$basic_string@DU?$char_traits@D@std@@V?$allocator@D@2@@std@@V?$allocator@V?$basic_string@DU?$char_traits@D@std@@V?$allocator@D@2@@std@@@2@@std@@QAEPAV?$basic_string@DU?$char_traits@D@std@@V?$allocator@D@2@@1@QAV21@$$QAV21@@Z PROC ; std::vector<std::basic_string<char,std::char_traits<char>,std::allocator<char> >,std::allocator<std::basic_string<char,std::char_traits<char>,std::allocator<char> > > >::_Emplace_reallocate<std::basic_string<char,std::char_traits<char>,std::allocator<char> > >, COMDAT
; _this$ = ecx

; 725  :     pointer _Emplace_reallocate(const pointer _Whereptr, _Valty&&... _Val) {

  00000	55		 push	 ebp
  00001	8d 6c 24 90	 lea	 ebp, DWORD PTR [esp-112]
  00005	83 ec 70	 sub	 esp, 112		; 00000070H
  00008	6a ff		 push	 -1
  0000a	68 00 00 00 00	 push	 __ehhandler$??$_Emplace_reallocate@V?$basic_string@DU?$char_traits@D@std@@V?$allocator@D@2@@std@@@?$vector@V?$basic_string@DU?$char_traits@D@std@@V?$allocator@D@2@@std@@V?$allocator@V?$basic_string@DU?$char_traits@D@std@@V?$allocator@D@2@@std@@@2@@std@@QAEPAV?$basic_string@DU?$char_traits@D@std@@V?$allocator@D@2@@1@QAV21@$$QAV21@@Z
  0000f	64 a1 00 00 00
	00		 mov	 eax, DWORD PTR fs:0
  00015	50		 push	 eax
  00016	51		 push	 ecx
  00017	83 ec 34	 sub	 esp, 52			; 00000034H
  0001a	53		 push	 ebx
  0001b	56		 push	 esi
  0001c	57		 push	 edi
  0001d	a1 00 00 00 00	 mov	 eax, DWORD PTR ___security_cookie
  00022	33 c5		 xor	 eax, ebp
  00024	50		 push	 eax
  00025	8d 45 f4	 lea	 eax, DWORD PTR __$EHRec$[ebp+4]
  00028	64 a3 00 00 00
	00		 mov	 DWORD PTR fs:0, eax
  0002e	89 65 f0	 mov	 DWORD PTR __$EHRec$[ebp], esp
  00031	89 4d 68	 mov	 DWORD PTR _this$[ebp], ecx

; 1733 :         return _Mypair._Get_first();

  00034	8b 45 68	 mov	 eax, DWORD PTR _this$[ebp]
; File C:\Program Files (x86)\Microsoft Visual Studio\2019\Community\VC\Tools\MSVC\14.28.29333\include\xmemory

; 1347 :         return *this;

  00037	89 45 28	 mov	 DWORD PTR $T20[ebp], eax
; File C:\Program Files (x86)\Microsoft Visual Studio\2019\Community\VC\Tools\MSVC\14.28.29333\include\vector

; 1733 :         return _Mypair._Get_first();

  0003a	8b 45 28	 mov	 eax, DWORD PTR $T20[ebp]
  0003d	89 45 c4	 mov	 DWORD PTR __Al$[ebp], eax

; 726  :         // reallocate and insert by perfectly forwarding _Val at _Whereptr
; 727  :         _Alty& _Al        = _Getal();
; 728  :         auto& _My_data    = _Mypair._Myval2;

  00040	8b 45 68	 mov	 eax, DWORD PTR _this$[ebp]
  00043	89 45 44	 mov	 DWORD PTR __My_data$[ebp], eax

; 729  :         pointer& _Myfirst = _My_data._Myfirst;

  00046	8b 45 44	 mov	 eax, DWORD PTR __My_data$[ebp]
  00049	89 45 5c	 mov	 DWORD PTR __Myfirst$[ebp], eax

; 730  :         pointer& _Mylast  = _My_data._Mylast;

  0004c	8b 45 44	 mov	 eax, DWORD PTR __My_data$[ebp]
  0004f	83 c0 04	 add	 eax, 4
  00052	89 45 58	 mov	 DWORD PTR __Mylast$[ebp], eax

; 731  : 
; 732  :         _STL_INTERNAL_CHECK(_Mylast == _My_data._Myend); // check that we have no unused capacity
; 733  : 
; 734  :         const auto _Whereoff = static_cast<size_type>(_Whereptr - _Myfirst);

  00055	8b 45 5c	 mov	 eax, DWORD PTR __Myfirst$[ebp]
  00058	8b 4d 78	 mov	 ecx, DWORD PTR __Whereptr$[ebp]
  0005b	2b 08		 sub	 ecx, DWORD PTR [eax]
  0005d	8b c1		 mov	 eax, ecx
  0005f	99		 cdq
  00060	6a 18		 push	 24			; 00000018H
  00062	59		 pop	 ecx
  00063	f7 f9		 idiv	 ecx
  00065	89 45 60	 mov	 DWORD PTR __Whereoff$[ebp], eax

; 735  :         const auto _Oldsize  = static_cast<size_type>(_Mylast - _Myfirst);

  00068	8b 45 58	 mov	 eax, DWORD PTR __Mylast$[ebp]
  0006b	8b 4d 5c	 mov	 ecx, DWORD PTR __Myfirst$[ebp]
  0006e	8b 00		 mov	 eax, DWORD PTR [eax]
  00070	2b 01		 sub	 eax, DWORD PTR [ecx]
  00072	99		 cdq
  00073	6a 18		 push	 24			; 00000018H
  00075	59		 pop	 ecx
  00076	f7 f9		 idiv	 ecx
  00078	89 45 34	 mov	 DWORD PTR __Oldsize$[ebp], eax

; 1737 :         return _Mypair._Get_first();

  0007b	8b 45 68	 mov	 eax, DWORD PTR _this$[ebp]
; File C:\Program Files (x86)\Microsoft Visual Studio\2019\Community\VC\Tools\MSVC\14.28.29333\include\xmemory

; 1351 :         return *this;

  0007e	89 45 24	 mov	 DWORD PTR $T19[ebp], eax
; File C:\Program Files (x86)\Microsoft Visual Studio\2019\Community\VC\Tools\MSVC\14.28.29333\include\vector

; 1737 :         return _Mypair._Get_first();

  00081	8b 45 24	 mov	 eax, DWORD PTR $T19[ebp]
  00084	89 45 c0	 mov	 DWORD PTR $T3[ebp], eax
; File C:\Program Files (x86)\Microsoft Visual Studio\2019\Community\VC\Tools\MSVC\14.28.29333\include\xmemory

; 710  :         return static_cast<size_t>(-1) / sizeof(value_type);

  00087	c7 45 40 aa aa
	aa 0a		 mov	 DWORD PTR $T22[ebp], 178956970 ; 0aaaaaaaH
; File C:\Program Files (x86)\Microsoft Visual Studio\2019\Community\VC\Tools\MSVC\14.28.29333\include\limits

; 557  :         return INT_MAX;

  0008e	c7 45 20 ff ff
	ff 7f		 mov	 DWORD PTR $T18[ebp], 2147483647 ; 7fffffffH
; File C:\Program Files (x86)\Microsoft Visual Studio\2019\Community\VC\Tools\MSVC\14.28.29333\include\vector

; 1488 :         return (_STD min)(

  00095	8b 45 20	 mov	 eax, DWORD PTR $T18[ebp]
  00098	89 45 3c	 mov	 DWORD PTR $T21[ebp], eax
; File C:\Program Files (x86)\Microsoft Visual Studio\2019\Community\VC\Tools\MSVC\14.28.29333\include\utility

; 68   :     return _Right < _Left ? _Right : _Left;

  0009b	8b 45 40	 mov	 eax, DWORD PTR $T22[ebp]
  0009e	3b 45 3c	 cmp	 eax, DWORD PTR $T21[ebp]
  000a1	73 08		 jae	 SHORT $LN34@Emplace_re
  000a3	8d 45 40	 lea	 eax, DWORD PTR $T22[ebp]
  000a6	89 45 38	 mov	 DWORD PTR tv172[ebp], eax
  000a9	eb 06		 jmp	 SHORT $LN35@Emplace_re
$LN34@Emplace_re:
  000ab	8d 45 3c	 lea	 eax, DWORD PTR $T21[ebp]
  000ae	89 45 38	 mov	 DWORD PTR tv172[ebp], eax
$LN35@Emplace_re:
  000b1	8b 45 38	 mov	 eax, DWORD PTR tv172[ebp]
  000b4	89 45 1c	 mov	 DWORD PTR $T17[ebp], eax
  000b7	8b 45 1c	 mov	 eax, DWORD PTR $T17[ebp]
  000ba	89 45 18	 mov	 DWORD PTR $T16[ebp], eax
; File C:\Program Files (x86)\Microsoft Visual Studio\2019\Community\VC\Tools\MSVC\14.28.29333\include\vector

; 1488 :         return (_STD min)(

  000bd	8b 45 18	 mov	 eax, DWORD PTR $T16[ebp]
  000c0	8b 00		 mov	 eax, DWORD PTR [eax]
  000c2	89 45 14	 mov	 DWORD PTR $T15[ebp], eax

; 736  : 
; 737  :         if (_Oldsize == max_size()) {

  000c5	8b 45 34	 mov	 eax, DWORD PTR __Oldsize$[ebp]
  000c8	3b 45 14	 cmp	 eax, DWORD PTR $T15[ebp]
  000cb	75 05		 jne	 SHORT $LN2@Emplace_re

; 738  :             _Xlength();

  000cd	e8 00 00 00 00	 call	 ?_Xlength@?$vector@V?$basic_string@DU?$char_traits@D@std@@V?$allocator@D@2@@std@@V?$allocator@V?$basic_string@DU?$char_traits@D@std@@V?$allocator@D@2@@std@@@2@@std@@CAXXZ ; std::vector<std::basic_string<char,std::char_traits<char>,std::allocator<char> >,std::allocator<std::basic_string<char,std::char_traits<char>,std::allocator<char> > > >::_Xlength
$LN2@Emplace_re:

; 739  :         }
; 740  : 
; 741  :         const size_type _Newsize     = _Oldsize + 1;

  000d2	8b 45 34	 mov	 eax, DWORD PTR __Oldsize$[ebp]
  000d5	40		 inc	 eax
  000d6	89 45 2c	 mov	 DWORD PTR __Newsize$[ebp], eax

; 742  :         const size_type _Newcapacity = _Calculate_growth(_Newsize);

  000d9	ff 75 2c	 push	 DWORD PTR __Newsize$[ebp]
  000dc	8b 4d 68	 mov	 ecx, DWORD PTR _this$[ebp]
  000df	e8 00 00 00 00	 call	 ?_Calculate_growth@?$vector@V?$basic_string@DU?$char_traits@D@std@@V?$allocator@D@2@@std@@V?$allocator@V?$basic_string@DU?$char_traits@D@std@@V?$allocator@D@2@@std@@@2@@std@@ABEII@Z ; std::vector<std::basic_string<char,std::char_traits<char>,std::allocator<char> >,std::allocator<std::basic_string<char,std::char_traits<char>,std::allocator<char> > > >::_Calculate_growth
  000e4	89 45 54	 mov	 DWORD PTR __Newcapacity$[ebp], eax
; File C:\Program Files (x86)\Microsoft Visual Studio\2019\Community\VC\Tools\MSVC\14.28.29333\include\xmemory

; 56   :     constexpr bool _Overflow_is_possible = _Ty_size > 1;

  000e7	c6 45 53 01	 mov	 BYTE PTR __Overflow_is_possible$23[ebp], 1

; 57   : 
; 58   :     if _CONSTEXPR_IF (_Overflow_is_possible) {
; 59   :         constexpr size_t _Max_possible = static_cast<size_t>(-1) / _Ty_size;

  000eb	c7 45 bc aa aa
	aa 0a		 mov	 DWORD PTR __Max_possible$2[ebp], 178956970 ; 0aaaaaaaH

; 60   :         if (_Count > _Max_possible) {

  000f2	81 7d 54 aa aa
	aa 0a		 cmp	 DWORD PTR __Newcapacity$[ebp], 178956970 ; 0aaaaaaaH
  000f9	76 05		 jbe	 SHORT $LN67@Emplace_re

; 61   :             _Throw_bad_array_new_length(); // multiply overflow

  000fb	e8 00 00 00 00	 call	 ?_Throw_bad_array_new_length@std@@YAXXZ ; std::_Throw_bad_array_new_length
$LN67@Emplace_re:

; 62   :         }
; 63   :     }
; 64   : 
; 65   :     return _Count * _Ty_size;

  00100	6b 45 54 18	 imul	 eax, DWORD PTR __Newcapacity$[ebp], 24
  00104	89 45 10	 mov	 DWORD PTR $T14[ebp], eax

; 814  :         return static_cast<_Ty*>(_Allocate<_New_alignof<_Ty>>(_Get_size_of_n<sizeof(_Ty)>(_Count)));

  00107	ff 75 10	 push	 DWORD PTR $T14[ebp]
  0010a	e8 00 00 00 00	 call	 ??$_Allocate@$07U_Default_allocate_traits@std@@$0A@@std@@YAPAXI@Z ; std::_Allocate<8,std::_Default_allocate_traits,0>
  0010f	59		 pop	 ecx
  00110	89 45 6c	 mov	 DWORD PTR __Newvec$[ebp], eax
; File C:\Program Files (x86)\Microsoft Visual Studio\2019\Community\VC\Tools\MSVC\14.28.29333\include\vector

; 745  :         const pointer _Constructed_last = _Newvec + _Whereoff + 1;

  00113	6b 45 60 18	 imul	 eax, DWORD PTR __Whereoff$[ebp], 24
  00117	8b 4d 6c	 mov	 ecx, DWORD PTR __Newvec$[ebp]
  0011a	8d 44 01 18	 lea	 eax, DWORD PTR [ecx+eax+24]
  0011e	89 45 30	 mov	 DWORD PTR __Constructed_last$[ebp], eax

; 746  :         pointer _Constructed_first      = _Constructed_last;

  00121	8b 45 30	 mov	 eax, DWORD PTR __Constructed_last$[ebp]
  00124	89 45 48	 mov	 DWORD PTR __Constructed_first$[ebp], eax

; 747  : 
; 748  :         _TRY_BEGIN

  00127	83 65 fc 00	 and	 DWORD PTR __$EHRec$[ebp+12], 0
; File C:\Program Files (x86)\Microsoft Visual Studio\2019\Community\VC\Tools\MSVC\14.28.29333\include\type_traits

; 1443 :     return static_cast<_Ty&&>(_Arg);

  0012b	8b 45 7c	 mov	 eax, DWORD PTR _<_Val_0>$[ebp]
  0012e	89 45 08	 mov	 DWORD PTR $T12[ebp], eax
; File C:\Program Files (x86)\Microsoft Visual Studio\2019\Community\VC\Tools\MSVC\14.28.29333\include\vector

; 749  :         _Alty_traits::construct(_Al, _Unfancy(_Newvec + _Whereoff), _STD forward<_Valty>(_Val)...);

  00131	6b 45 60 18	 imul	 eax, DWORD PTR __Whereoff$[ebp], 24
  00135	03 45 6c	 add	 eax, DWORD PTR __Newvec$[ebp]
; File C:\Program Files (x86)\Microsoft Visual Studio\2019\Community\VC\Tools\MSVC\14.28.29333\include\xstddef

; 289  :     return _Ptr;

  00138	89 45 0c	 mov	 DWORD PTR $T13[ebp], eax
; File C:\Program Files (x86)\Microsoft Visual Studio\2019\Community\VC\Tools\MSVC\14.28.29333\include\vcruntime_new.h

; 169  :         return _Where;

  0013b	8b 45 0c	 mov	 eax, DWORD PTR $T13[ebp]
  0013e	89 45 00	 mov	 DWORD PTR $T10[ebp], eax
; File C:\Program Files (x86)\Microsoft Visual Studio\2019\Community\VC\Tools\MSVC\14.28.29333\include\type_traits

; 1443 :     return static_cast<_Ty&&>(_Arg);

  00141	8b 45 08	 mov	 eax, DWORD PTR $T12[ebp]
  00144	89 45 04	 mov	 DWORD PTR $T11[ebp], eax
; File C:\Program Files (x86)\Microsoft Visual Studio\2019\Community\VC\Tools\MSVC\14.28.29333\include\xmemory

; 701  :         ::new (const_cast<void*>(static_cast<const volatile void*>(_Ptr))) _Objty(_STD forward<_Types>(_Args)...);

  00147	ff 75 04	 push	 DWORD PTR $T11[ebp]
  0014a	8b 4d 00	 mov	 ecx, DWORD PTR $T10[ebp]
  0014d	e8 00 00 00 00	 call	 ??0?$basic_string@DU?$char_traits@D@std@@V?$allocator@D@2@@std@@QAE@$$QAV01@@Z ; std::basic_string<char,std::char_traits<char>,std::allocator<char> >::basic_string<char,std::char_traits<char>,std::allocator<char> >
; File C:\Program Files (x86)\Microsoft Visual Studio\2019\Community\VC\Tools\MSVC\14.28.29333\include\vector

; 750  :         _Constructed_first = _Newvec + _Whereoff;

  00152	6b 45 60 18	 imul	 eax, DWORD PTR __Whereoff$[ebp], 24
  00156	03 45 6c	 add	 eax, DWORD PTR __Newvec$[ebp]
  00159	89 45 48	 mov	 DWORD PTR __Constructed_first$[ebp], eax

; 751  : 
; 752  :         if (_Whereptr == _Mylast) { // at back, provide strong guarantee

  0015c	8b 45 58	 mov	 eax, DWORD PTR __Mylast$[ebp]
  0015f	8b 4d 78	 mov	 ecx, DWORD PTR __Whereptr$[ebp]
  00162	3b 08		 cmp	 ecx, DWORD PTR [eax]
  00164	75 3d		 jne	 SHORT $LN4@Emplace_re

; 753  :             _Umove_if_noexcept(_Myfirst, _Mylast, _Newvec);

  00166	8b 45 58	 mov	 eax, DWORD PTR __Mylast$[ebp]
  00169	8b 00		 mov	 eax, DWORD PTR [eax]
  0016b	89 45 e4	 mov	 DWORD PTR __Last$[ebp], eax
  0016e	8b 45 5c	 mov	 eax, DWORD PTR __Myfirst$[ebp]
  00171	8b 00		 mov	 eax, DWORD PTR [eax]
  00173	89 45 e0	 mov	 DWORD PTR __First$[ebp], eax

; 1607 :         _Umove_if_noexcept1(_First, _Last, _Dest,

  00176	33 c0		 xor	 eax, eax
  00178	88 45 67	 mov	 BYTE PTR $T24[ebp], al
  0017b	8a 45 67	 mov	 al, BYTE PTR $T24[ebp]
  0017e	88 45 4c	 mov	 BYTE PTR ___formal$[ebp], al

; 1733 :         return _Mypair._Get_first();

  00181	8b 45 68	 mov	 eax, DWORD PTR _this$[ebp]
; File C:\Program Files (x86)\Microsoft Visual Studio\2019\Community\VC\Tools\MSVC\14.28.29333\include\xmemory

; 1347 :         return *this;

  00184	89 45 ec	 mov	 DWORD PTR $T9[ebp], eax
; File C:\Program Files (x86)\Microsoft Visual Studio\2019\Community\VC\Tools\MSVC\14.28.29333\include\vector

; 1733 :         return _Mypair._Get_first();

  00187	8b 45 ec	 mov	 eax, DWORD PTR $T9[ebp]
  0018a	89 45 e8	 mov	 DWORD PTR $T8[ebp], eax

; 1597 :         _Uninitialized_move(_First, _Last, _Dest, _Getal());

  0018d	ff 75 e8	 push	 DWORD PTR $T8[ebp]
  00190	ff 75 6c	 push	 DWORD PTR __Newvec$[ebp]
  00193	ff 75 e4	 push	 DWORD PTR __Last$[ebp]
  00196	ff 75 e0	 push	 DWORD PTR __First$[ebp]
  00199	e8 00 00 00 00	 call	 ??$_Uninitialized_move@PAV?$basic_string@DU?$char_traits@D@std@@V?$allocator@D@2@@std@@V?$allocator@V?$basic_string@DU?$char_traits@D@std@@V?$allocator@D@2@@std@@@2@@std@@YAPAV?$basic_string@DU?$char_traits@D@std@@V?$allocator@D@2@@0@QAV10@0PAV10@AAV?$allocator@V?$basic_string@DU?$char_traits@D@std@@V?$allocator@D@2@@std@@@0@@Z ; std::_Uninitialized_move<std::basic_string<char,std::char_traits<char>,std::allocator<char> > *,std::allocator<std::basic_string<char,std::char_traits<char>,std::allocator<char> > > >
  0019e	83 c4 10	 add	 esp, 16			; 00000010H

; 754  :         } else { // provide basic guarantee

  001a1	eb 5f		 jmp	 SHORT $LN5@Emplace_re
$LN4@Emplace_re:

; 755  :             _Umove(_Myfirst, _Whereptr, _Newvec);

  001a3	8b 45 5c	 mov	 eax, DWORD PTR __Myfirst$[ebp]
  001a6	8b 00		 mov	 eax, DWORD PTR [eax]
  001a8	89 45 d4	 mov	 DWORD PTR __First$[ebp], eax

; 1733 :         return _Mypair._Get_first();

  001ab	8b 45 68	 mov	 eax, DWORD PTR _this$[ebp]
; File C:\Program Files (x86)\Microsoft Visual Studio\2019\Community\VC\Tools\MSVC\14.28.29333\include\xmemory

; 1347 :         return *this;

  001ae	89 45 dc	 mov	 DWORD PTR $T7[ebp], eax
; File C:\Program Files (x86)\Microsoft Visual Studio\2019\Community\VC\Tools\MSVC\14.28.29333\include\vector

; 1733 :         return _Mypair._Get_first();

  001b1	8b 45 dc	 mov	 eax, DWORD PTR $T7[ebp]
  001b4	89 45 d8	 mov	 DWORD PTR $T6[ebp], eax

; 1592 :         return _Uninitialized_move(_First, _Last, _Dest, _Getal());

  001b7	ff 75 d8	 push	 DWORD PTR $T6[ebp]
  001ba	ff 75 6c	 push	 DWORD PTR __Newvec$[ebp]
  001bd	ff 75 78	 push	 DWORD PTR __Whereptr$[ebp]
  001c0	ff 75 d4	 push	 DWORD PTR __First$[ebp]
  001c3	e8 00 00 00 00	 call	 ??$_Uninitialized_move@PAV?$basic_string@DU?$char_traits@D@std@@V?$allocator@D@2@@std@@V?$allocator@V?$basic_string@DU?$char_traits@D@std@@V?$allocator@D@2@@std@@@2@@std@@YAPAV?$basic_string@DU?$char_traits@D@std@@V?$allocator@D@2@@0@QAV10@0PAV10@AAV?$allocator@V?$basic_string@DU?$char_traits@D@std@@V?$allocator@D@2@@std@@@0@@Z ; std::_Uninitialized_move<std::basic_string<char,std::char_traits<char>,std::allocator<char> > *,std::allocator<std::basic_string<char,std::char_traits<char>,std::allocator<char> > > >
  001c8	83 c4 10	 add	 esp, 16			; 00000010H

; 756  :             _Constructed_first = _Newvec;

  001cb	8b 45 6c	 mov	 eax, DWORD PTR __Newvec$[ebp]
  001ce	89 45 48	 mov	 DWORD PTR __Constructed_first$[ebp], eax

; 757  :             _Umove(_Whereptr, _Mylast, _Newvec + _Whereoff + 1);

  001d1	8b 45 58	 mov	 eax, DWORD PTR __Mylast$[ebp]
  001d4	8b 00		 mov	 eax, DWORD PTR [eax]
  001d6	89 45 c8	 mov	 DWORD PTR __Last$[ebp], eax

; 1733 :         return _Mypair._Get_first();

  001d9	8b 45 68	 mov	 eax, DWORD PTR _this$[ebp]
; File C:\Program Files (x86)\Microsoft Visual Studio\2019\Community\VC\Tools\MSVC\14.28.29333\include\xmemory

; 1347 :         return *this;

  001dc	89 45 d0	 mov	 DWORD PTR $T5[ebp], eax
; File C:\Program Files (x86)\Microsoft Visual Studio\2019\Community\VC\Tools\MSVC\14.28.29333\include\vector

; 1733 :         return _Mypair._Get_first();

  001df	8b 45 d0	 mov	 eax, DWORD PTR $T5[ebp]
  001e2	89 45 cc	 mov	 DWORD PTR $T4[ebp], eax

; 1592 :         return _Uninitialized_move(_First, _Last, _Dest, _Getal());

  001e5	ff 75 cc	 push	 DWORD PTR $T4[ebp]

; 757  :             _Umove(_Whereptr, _Mylast, _Newvec + _Whereoff + 1);

  001e8	6b 45 60 18	 imul	 eax, DWORD PTR __Whereoff$[ebp], 24
  001ec	8b 4d 6c	 mov	 ecx, DWORD PTR __Newvec$[ebp]
  001ef	8d 44 01 18	 lea	 eax, DWORD PTR [ecx+eax+24]

; 1592 :         return _Uninitialized_move(_First, _Last, _Dest, _Getal());

  001f3	50		 push	 eax
  001f4	ff 75 c8	 push	 DWORD PTR __Last$[ebp]
  001f7	ff 75 78	 push	 DWORD PTR __Whereptr$[ebp]
  001fa	e8 00 00 00 00	 call	 ??$_Uninitialized_move@PAV?$basic_string@DU?$char_traits@D@std@@V?$allocator@D@2@@std@@V?$allocator@V?$basic_string@DU?$char_traits@D@std@@V?$allocator@D@2@@std@@@2@@std@@YAPAV?$basic_string@DU?$char_traits@D@std@@V?$allocator@D@2@@0@QAV10@0PAV10@AAV?$allocator@V?$basic_string@DU?$char_traits@D@std@@V?$allocator@D@2@@std@@@0@@Z ; std::_Uninitialized_move<std::basic_string<char,std::char_traits<char>,std::allocator<char> > *,std::allocator<std::basic_string<char,std::char_traits<char>,std::allocator<char> > > >
  001ff	83 c4 10	 add	 esp, 16			; 00000010H
$LN5@Emplace_re:

; 757  :             _Umove(_Whereptr, _Mylast, _Newvec + _Whereoff + 1);

  00202	eb 2b		 jmp	 SHORT $LN7@Emplace_re
__catch$??$_Emplace_reallocate@V?$basic_string@DU?$char_traits@D@std@@V?$allocator@D@2@@std@@@?$vector@V?$basic_string@DU?$char_traits@D@std@@V?$allocator@D@2@@std@@V?$allocator@V?$basic_string@DU?$char_traits@D@std@@V?$allocator@D@2@@std@@@2@@std@@QAEPAV?$basic_string@DU?$char_traits@D@std@@V?$allocator@D@2@@1@QAV21@$$QAV21@@Z$0:

; 758  :         }
; 759  :         _CATCH_ALL
; 760  :         _Destroy(_Constructed_first, _Constructed_last);

  00204	ff 75 30	 push	 DWORD PTR __Constructed_last$[ebp]
  00207	ff 75 48	 push	 DWORD PTR __Constructed_first$[ebp]
  0020a	8b 4d 68	 mov	 ecx, DWORD PTR _this$[ebp]
  0020d	e8 00 00 00 00	 call	 ?_Destroy@?$vector@V?$basic_string@DU?$char_traits@D@std@@V?$allocator@D@2@@std@@V?$allocator@V?$basic_string@DU?$char_traits@D@std@@V?$allocator@D@2@@std@@@2@@std@@AAEXPAV?$basic_string@DU?$char_traits@D@std@@V?$allocator@D@2@@2@0@Z ; std::vector<std::basic_string<char,std::char_traits<char>,std::allocator<char> >,std::allocator<std::basic_string<char,std::char_traits<char>,std::allocator<char> > > >::_Destroy

; 761  :         _Al.deallocate(_Newvec, _Newcapacity);

  00212	ff 75 54	 push	 DWORD PTR __Newcapacity$[ebp]
  00215	ff 75 6c	 push	 DWORD PTR __Newvec$[ebp]
  00218	8b 4d c4	 mov	 ecx, DWORD PTR __Al$[ebp]
  0021b	e8 00 00 00 00	 call	 ?deallocate@?$allocator@V?$basic_string@DU?$char_traits@D@std@@V?$allocator@D@2@@std@@@std@@QAEXQAV?$basic_string@DU?$char_traits@D@std@@V?$allocator@D@2@@2@I@Z ; std::allocator<std::basic_string<char,std::char_traits<char>,std::allocator<char> > >::deallocate

; 762  :         _RERAISE;

  00220	6a 00		 push	 0
  00222	6a 00		 push	 0
  00224	e8 00 00 00 00	 call	 __CxxThrowException@8

; 763  :         _CATCH_END

  00229	b8 00 00 00 00	 mov	 eax, $LN10@Emplace_re
  0022e	c3		 ret	 0
$LN7@Emplace_re:
  0022f	83 4d fc ff	 or	 DWORD PTR __$EHRec$[ebp+12], -1
  00233	eb 04		 jmp	 SHORT __tryend$??$_Emplace_reallocate@V?$basic_string@DU?$char_traits@D@std@@V?$allocator@D@2@@std@@@?$vector@V?$basic_string@DU?$char_traits@D@std@@V?$allocator@D@2@@std@@V?$allocator@V?$basic_string@DU?$char_traits@D@std@@V?$allocator@D@2@@std@@@2@@std@@QAEPAV?$basic_string@DU?$char_traits@D@std@@V?$allocator@D@2@@1@QAV21@$$QAV21@@Z$1
$LN10@Emplace_re:
; File C:\Program Files (x86)\Microsoft Visual Studio\2019\Community\VC\Tools\MSVC\14.28.29333\include\xmemory
  00235	83 4d fc ff	 or	 DWORD PTR __$EHRec$[ebp+12], -1
__tryend$??$_Emplace_reallocate@V?$basic_string@DU?$char_traits@D@std@@V?$allocator@D@2@@std@@@?$vector@V?$basic_string@DU?$char_traits@D@std@@V?$allocator@D@2@@std@@V?$allocator@V?$basic_string@DU?$char_traits@D@std@@V?$allocator@D@2@@std@@@2@@std@@QAEPAV?$basic_string@DU?$char_traits@D@std@@V?$allocator@D@2@@1@QAV21@$$QAV21@@Z$1:
; File C:\Program Files (x86)\Microsoft Visual Studio\2019\Community\VC\Tools\MSVC\14.28.29333\include\vector

; 764  : 
; 765  :         _Change_array(_Newvec, _Newsize, _Newcapacity);

  00239	ff 75 54	 push	 DWORD PTR __Newcapacity$[ebp]
  0023c	ff 75 2c	 push	 DWORD PTR __Newsize$[ebp]
  0023f	ff 75 6c	 push	 DWORD PTR __Newvec$[ebp]
  00242	8b 4d 68	 mov	 ecx, DWORD PTR _this$[ebp]
  00245	e8 00 00 00 00	 call	 ?_Change_array@?$vector@V?$basic_string@DU?$char_traits@D@std@@V?$allocator@D@2@@std@@V?$allocator@V?$basic_string@DU?$char_traits@D@std@@V?$allocator@D@2@@std@@@2@@std@@AAEXQAV?$basic_string@DU?$char_traits@D@std@@V?$allocator@D@2@@2@II@Z ; std::vector<std::basic_string<char,std::char_traits<char>,std::allocator<char> >,std::allocator<std::basic_string<char,std::char_traits<char>,std::allocator<char> > > >::_Change_array

; 766  :         return _Newvec + _Whereoff;

  0024a	6b 45 60 18	 imul	 eax, DWORD PTR __Whereoff$[ebp], 24
  0024e	03 45 6c	 add	 eax, DWORD PTR __Newvec$[ebp]
$LN70@Emplace_re:

; 767  :     }

  00251	8b 4d f4	 mov	 ecx, DWORD PTR __$EHRec$[ebp+4]
  00254	64 89 0d 00 00
	00 00		 mov	 DWORD PTR fs:0, ecx
  0025b	59		 pop	 ecx
  0025c	5f		 pop	 edi
  0025d	5e		 pop	 esi
  0025e	5b		 pop	 ebx
  0025f	83 c5 70	 add	 ebp, 112		; 00000070H
  00262	c9		 leave
  00263	c2 08 00	 ret	 8
  00266	cc		 int	 3
  00267	cc		 int	 3
  00268	cc		 int	 3
  00269	cc		 int	 3
  0026a	cc		 int	 3
_TEXT	ENDS
;	COMDAT text$x
text$x	SEGMENT
__ehhandler$??$_Emplace_reallocate@V?$basic_string@DU?$char_traits@D@std@@V?$allocator@D@2@@std@@@?$vector@V?$basic_string@DU?$char_traits@D@std@@V?$allocator@D@2@@std@@V?$allocator@V?$basic_string@DU?$char_traits@D@std@@V?$allocator@D@2@@std@@@2@@std@@QAEPAV?$basic_string@DU?$char_traits@D@std@@V?$allocator@D@2@@1@QAV21@$$QAV21@@Z:
  00000	90		 npad	 1
  00001	90		 npad	 1
  00002	8b 54 24 08	 mov	 edx, DWORD PTR [esp+8]
  00006	8d 42 0c	 lea	 eax, DWORD PTR [edx+12]
  00009	8b 4a b8	 mov	 ecx, DWORD PTR [edx-72]
  0000c	33 c8		 xor	 ecx, eax
  0000e	e8 00 00 00 00	 call	 @__security_check_cookie@4
  00013	b8 00 00 00 00	 mov	 eax, OFFSET __ehfuncinfo$??$_Emplace_reallocate@V?$basic_string@DU?$char_traits@D@std@@V?$allocator@D@2@@std@@@?$vector@V?$basic_string@DU?$char_traits@D@std@@V?$allocator@D@2@@std@@V?$allocator@V?$basic_string@DU?$char_traits@D@std@@V?$allocator@D@2@@std@@@2@@std@@QAEPAV?$basic_string@DU?$char_traits@D@std@@V?$allocator@D@2@@1@QAV21@$$QAV21@@Z
  00018	e9 00 00 00 00	 jmp	 ___CxxFrameHandler3
text$x	ENDS
??$_Emplace_reallocate@V?$basic_string@DU?$char_traits@D@std@@V?$allocator@D@2@@std@@@?$vector@V?$basic_string@DU?$char_traits@D@std@@V?$allocator@D@2@@std@@V?$allocator@V?$basic_string@DU?$char_traits@D@std@@V?$allocator@D@2@@std@@@2@@std@@QAEPAV?$basic_string@DU?$char_traits@D@std@@V?$allocator@D@2@@1@QAV21@$$QAV21@@Z ENDP ; std::vector<std::basic_string<char,std::char_traits<char>,std::allocator<char> >,std::allocator<std::basic_string<char,std::char_traits<char>,std::allocator<char> > > >::_Emplace_reallocate<std::basic_string<char,std::char_traits<char>,std::allocator<char> > >
; Function compile flags: /Odspy
; File C:\Program Files (x86)\Microsoft Visual Studio\2019\Community\VC\Tools\MSVC\14.28.29333\include\vector
; File C:\Program Files (x86)\Microsoft Visual Studio\2019\Community\VC\Tools\MSVC\14.28.29333\include\type_traits
; File C:\Program Files (x86)\Microsoft Visual Studio\2019\Community\VC\Tools\MSVC\14.28.29333\include\vector
; File C:\Program Files (x86)\Microsoft Visual Studio\2019\Community\VC\Tools\MSVC\14.28.29333\include\xstddef
; File C:\Program Files (x86)\Microsoft Visual Studio\2019\Community\VC\Tools\MSVC\14.28.29333\include\vector
; File C:\Program Files (x86)\Microsoft Visual Studio\2019\Community\VC\Tools\MSVC\14.28.29333\include\xmemory
; File C:\Program Files (x86)\Microsoft Visual Studio\2019\Community\VC\Tools\MSVC\14.28.29333\include\vector
; File C:\Program Files (x86)\Microsoft Visual Studio\2019\Community\VC\Tools\MSVC\14.28.29333\include\vcruntime_new.h
; File C:\Program Files (x86)\Microsoft Visual Studio\2019\Community\VC\Tools\MSVC\14.28.29333\include\type_traits
; File C:\Program Files (x86)\Microsoft Visual Studio\2019\Community\VC\Tools\MSVC\14.28.29333\include\xmemory
; File C:\Program Files (x86)\Microsoft Visual Studio\2019\Community\VC\Tools\MSVC\14.28.29333\include\vector
;	COMDAT ??$_Emplace_back_with_unused_capacity@V?$basic_string@DU?$char_traits@D@std@@V?$allocator@D@2@@std@@@?$vector@V?$basic_string@DU?$char_traits@D@std@@V?$allocator@D@2@@std@@V?$allocator@V?$basic_string@DU?$char_traits@D@std@@V?$allocator@D@2@@std@@@2@@std@@AAEX$$QAV?$basic_string@DU?$char_traits@D@std@@V?$allocator@D@2@@1@@Z
_TEXT	SEGMENT
__Result$ = -44						; size = 4
$T1 = -40						; size = 4
$T2 = -36						; size = 4
$T3 = -32						; size = 4
$T4 = -28						; size = 4
$T5 = -24						; size = 4
$T6 = -20						; size = 4
__Ptr$ = -16						; size = 4
__My_data$ = -12					; size = 4
_this$ = -8						; size = 4
__Mylast$ = -4						; size = 4
_<_Val_0>$ = 8						; size = 4
??$_Emplace_back_with_unused_capacity@V?$basic_string@DU?$char_traits@D@std@@V?$allocator@D@2@@std@@@?$vector@V?$basic_string@DU?$char_traits@D@std@@V?$allocator@D@2@@std@@V?$allocator@V?$basic_string@DU?$char_traits@D@std@@V?$allocator@D@2@@std@@@2@@std@@AAEX$$QAV?$basic_string@DU?$char_traits@D@std@@V?$allocator@D@2@@1@@Z PROC ; std::vector<std::basic_string<char,std::char_traits<char>,std::allocator<char> >,std::allocator<std::basic_string<char,std::char_traits<char>,std::allocator<char> > > >::_Emplace_back_with_unused_capacity<std::basic_string<char,std::char_traits<char>,std::allocator<char> > >, COMDAT
; _this$ = ecx

; 682  :     decltype(auto) _Emplace_back_with_unused_capacity(_Valty&&... _Val) {

  00000	55		 push	 ebp
  00001	8b ec		 mov	 ebp, esp
  00003	83 ec 2c	 sub	 esp, 44			; 0000002cH
  00006	89 4d f8	 mov	 DWORD PTR _this$[ebp], ecx

; 683  :         // insert by perfectly forwarding into element at end, provide strong guarantee
; 684  :         auto& _My_data   = _Mypair._Myval2;

  00009	8b 45 f8	 mov	 eax, DWORD PTR _this$[ebp]
  0000c	89 45 f4	 mov	 DWORD PTR __My_data$[ebp], eax

; 685  :         pointer& _Mylast = _My_data._Mylast;

  0000f	8b 45 f4	 mov	 eax, DWORD PTR __My_data$[ebp]
  00012	83 c0 04	 add	 eax, 4
  00015	89 45 fc	 mov	 DWORD PTR __Mylast$[ebp], eax
; File C:\Program Files (x86)\Microsoft Visual Studio\2019\Community\VC\Tools\MSVC\14.28.29333\include\type_traits

; 1443 :     return static_cast<_Ty&&>(_Arg);

  00018	8b 45 08	 mov	 eax, DWORD PTR _<_Val_0>$[ebp]
  0001b	89 45 e4	 mov	 DWORD PTR $T4[ebp], eax
; File C:\Program Files (x86)\Microsoft Visual Studio\2019\Community\VC\Tools\MSVC\14.28.29333\include\vector

; 687  :         _Alty_traits::construct(_Getal(), _Unfancy(_Mylast), _STD forward<_Valty>(_Val)...);

  0001e	8b 45 fc	 mov	 eax, DWORD PTR __Mylast$[ebp]
  00021	8b 00		 mov	 eax, DWORD PTR [eax]
  00023	89 45 f0	 mov	 DWORD PTR __Ptr$[ebp], eax
; File C:\Program Files (x86)\Microsoft Visual Studio\2019\Community\VC\Tools\MSVC\14.28.29333\include\xstddef

; 289  :     return _Ptr;

  00026	8b 45 f0	 mov	 eax, DWORD PTR __Ptr$[ebp]
  00029	89 45 e8	 mov	 DWORD PTR $T5[ebp], eax
; File C:\Program Files (x86)\Microsoft Visual Studio\2019\Community\VC\Tools\MSVC\14.28.29333\include\vector

; 1733 :         return _Mypair._Get_first();

  0002c	8b 45 f8	 mov	 eax, DWORD PTR _this$[ebp]
; File C:\Program Files (x86)\Microsoft Visual Studio\2019\Community\VC\Tools\MSVC\14.28.29333\include\xmemory

; 1347 :         return *this;

  0002f	89 45 ec	 mov	 DWORD PTR $T6[ebp], eax
; File C:\Program Files (x86)\Microsoft Visual Studio\2019\Community\VC\Tools\MSVC\14.28.29333\include\vector

; 1733 :         return _Mypair._Get_first();

  00032	8b 45 ec	 mov	 eax, DWORD PTR $T6[ebp]
  00035	89 45 d8	 mov	 DWORD PTR $T1[ebp], eax
; File C:\Program Files (x86)\Microsoft Visual Studio\2019\Community\VC\Tools\MSVC\14.28.29333\include\vcruntime_new.h

; 169  :         return _Where;

  00038	8b 45 e8	 mov	 eax, DWORD PTR $T5[ebp]
  0003b	89 45 dc	 mov	 DWORD PTR $T2[ebp], eax
; File C:\Program Files (x86)\Microsoft Visual Studio\2019\Community\VC\Tools\MSVC\14.28.29333\include\type_traits

; 1443 :     return static_cast<_Ty&&>(_Arg);

  0003e	8b 45 e4	 mov	 eax, DWORD PTR $T4[ebp]
  00041	89 45 e0	 mov	 DWORD PTR $T3[ebp], eax
; File C:\Program Files (x86)\Microsoft Visual Studio\2019\Community\VC\Tools\MSVC\14.28.29333\include\xmemory

; 701  :         ::new (const_cast<void*>(static_cast<const volatile void*>(_Ptr))) _Objty(_STD forward<_Types>(_Args)...);

  00044	ff 75 e0	 push	 DWORD PTR $T3[ebp]
  00047	8b 4d dc	 mov	 ecx, DWORD PTR $T2[ebp]
  0004a	e8 00 00 00 00	 call	 ??0?$basic_string@DU?$char_traits@D@std@@V?$allocator@D@2@@std@@QAE@$$QAV01@@Z ; std::basic_string<char,std::char_traits<char>,std::allocator<char> >::basic_string<char,std::char_traits<char>,std::allocator<char> >
; File C:\Program Files (x86)\Microsoft Visual Studio\2019\Community\VC\Tools\MSVC\14.28.29333\include\vector

; 689  :         _Ty& _Result = *_Mylast;

  0004f	8b 45 fc	 mov	 eax, DWORD PTR __Mylast$[ebp]
  00052	8b 00		 mov	 eax, DWORD PTR [eax]
  00054	89 45 d4	 mov	 DWORD PTR __Result$[ebp], eax

; 690  :         ++_Mylast;

  00057	8b 45 fc	 mov	 eax, DWORD PTR __Mylast$[ebp]
  0005a	8b 00		 mov	 eax, DWORD PTR [eax]
  0005c	83 c0 18	 add	 eax, 24			; 00000018H
  0005f	8b 4d fc	 mov	 ecx, DWORD PTR __Mylast$[ebp]
  00062	89 01		 mov	 DWORD PTR [ecx], eax

; 691  : #if _HAS_CXX17
; 692  :         return _Result;
; 693  : #else // ^^^ _HAS_CXX17 ^^^ // vvv !_HAS_CXX17 vvv
; 694  :         (void) _Result;
; 695  : #endif // _HAS_CXX17
; 696  :     }

  00064	c9		 leave
  00065	c2 04 00	 ret	 4
??$_Emplace_back_with_unused_capacity@V?$basic_string@DU?$char_traits@D@std@@V?$allocator@D@2@@std@@@?$vector@V?$basic_string@DU?$char_traits@D@std@@V?$allocator@D@2@@std@@V?$allocator@V?$basic_string@DU?$char_traits@D@std@@V?$allocator@D@2@@std@@@2@@std@@AAEX$$QAV?$basic_string@DU?$char_traits@D@std@@V?$allocator@D@2@@1@@Z ENDP ; std::vector<std::basic_string<char,std::char_traits<char>,std::allocator<char> >,std::allocator<std::basic_string<char,std::char_traits<char>,std::allocator<char> > > >::_Emplace_back_with_unused_capacity<std::basic_string<char,std::char_traits<char>,std::allocator<char> > >
_TEXT	ENDS
; Function compile flags: /Odspy
; File C:\Program Files (x86)\Microsoft Visual Studio\2019\Community\VC\Tools\MSVC\14.28.29333\include\vector
; File C:\Program Files (x86)\Microsoft Visual Studio\2019\Community\VC\Tools\MSVC\14.28.29333\include\type_traits
; File C:\Program Files (x86)\Microsoft Visual Studio\2019\Community\VC\Tools\MSVC\14.28.29333\include\vector
; File C:\Program Files (x86)\Microsoft Visual Studio\2019\Community\VC\Tools\MSVC\14.28.29333\include\type_traits
; File C:\Program Files (x86)\Microsoft Visual Studio\2019\Community\VC\Tools\MSVC\14.28.29333\include\vector
;	COMDAT ??$emplace_back@V?$basic_string@DU?$char_traits@D@std@@V?$allocator@D@2@@std@@@?$vector@V?$basic_string@DU?$char_traits@D@std@@V?$allocator@D@2@@std@@V?$allocator@V?$basic_string@DU?$char_traits@D@std@@V?$allocator@D@2@@std@@@2@@std@@QAEX$$QAV?$basic_string@DU?$char_traits@D@std@@V?$allocator@D@2@@1@@Z
_TEXT	SEGMENT
__Result$ = -24						; size = 4
$T1 = -20						; size = 4
$T2 = -16						; size = 4
__Mylast$ = -12						; size = 4
__My_data$ = -8						; size = 4
_this$ = -4						; size = 4
_<_Val_0>$ = 8						; size = 4
??$emplace_back@V?$basic_string@DU?$char_traits@D@std@@V?$allocator@D@2@@std@@@?$vector@V?$basic_string@DU?$char_traits@D@std@@V?$allocator@D@2@@std@@V?$allocator@V?$basic_string@DU?$char_traits@D@std@@V?$allocator@D@2@@std@@@2@@std@@QAEX$$QAV?$basic_string@DU?$char_traits@D@std@@V?$allocator@D@2@@1@@Z PROC ; std::vector<std::basic_string<char,std::char_traits<char>,std::allocator<char> >,std::allocator<std::basic_string<char,std::char_traits<char>,std::allocator<char> > > >::emplace_back<std::basic_string<char,std::char_traits<char>,std::allocator<char> > >, COMDAT
; _this$ = ecx

; 700  :     decltype(auto) emplace_back(_Valty&&... _Val) {

  00000	55		 push	 ebp
  00001	8b ec		 mov	 ebp, esp
  00003	83 ec 18	 sub	 esp, 24			; 00000018H
  00006	89 4d fc	 mov	 DWORD PTR _this$[ebp], ecx

; 701  :         // insert by perfectly forwarding into element at end, provide strong guarantee
; 702  :         auto& _My_data   = _Mypair._Myval2;

  00009	8b 45 fc	 mov	 eax, DWORD PTR _this$[ebp]
  0000c	89 45 f8	 mov	 DWORD PTR __My_data$[ebp], eax

; 703  :         pointer& _Mylast = _My_data._Mylast;

  0000f	8b 45 f8	 mov	 eax, DWORD PTR __My_data$[ebp]
  00012	83 c0 04	 add	 eax, 4
  00015	89 45 f4	 mov	 DWORD PTR __Mylast$[ebp], eax

; 704  :         if (_Mylast != _My_data._Myend) {

  00018	8b 45 f4	 mov	 eax, DWORD PTR __Mylast$[ebp]
  0001b	8b 4d f8	 mov	 ecx, DWORD PTR __My_data$[ebp]
  0001e	8b 00		 mov	 eax, DWORD PTR [eax]
  00020	3b 41 08	 cmp	 eax, DWORD PTR [ecx+8]
  00023	74 13		 je	 SHORT $LN2@emplace_ba
; File C:\Program Files (x86)\Microsoft Visual Studio\2019\Community\VC\Tools\MSVC\14.28.29333\include\type_traits

; 1443 :     return static_cast<_Ty&&>(_Arg);

  00025	8b 45 08	 mov	 eax, DWORD PTR _<_Val_0>$[ebp]
  00028	89 45 f0	 mov	 DWORD PTR $T2[ebp], eax
; File C:\Program Files (x86)\Microsoft Visual Studio\2019\Community\VC\Tools\MSVC\14.28.29333\include\vector

; 705  :             return _Emplace_back_with_unused_capacity(_STD forward<_Valty>(_Val)...);

  0002b	ff 75 f0	 push	 DWORD PTR $T2[ebp]
  0002e	8b 4d fc	 mov	 ecx, DWORD PTR _this$[ebp]
  00031	e8 00 00 00 00	 call	 ??$_Emplace_back_with_unused_capacity@V?$basic_string@DU?$char_traits@D@std@@V?$allocator@D@2@@std@@@?$vector@V?$basic_string@DU?$char_traits@D@std@@V?$allocator@D@2@@std@@V?$allocator@V?$basic_string@DU?$char_traits@D@std@@V?$allocator@D@2@@std@@@2@@std@@AAEX$$QAV?$basic_string@DU?$char_traits@D@std@@V?$allocator@D@2@@1@@Z ; std::vector<std::basic_string<char,std::char_traits<char>,std::allocator<char> >,std::allocator<std::basic_string<char,std::char_traits<char>,std::allocator<char> > > >::_Emplace_back_with_unused_capacity<std::basic_string<char,std::char_traits<char>,std::allocator<char> > >
  00036	eb 19		 jmp	 SHORT $LN1@emplace_ba
$LN2@emplace_ba:
; File C:\Program Files (x86)\Microsoft Visual Studio\2019\Community\VC\Tools\MSVC\14.28.29333\include\type_traits

; 1443 :     return static_cast<_Ty&&>(_Arg);

  00038	8b 45 08	 mov	 eax, DWORD PTR _<_Val_0>$[ebp]
  0003b	89 45 ec	 mov	 DWORD PTR $T1[ebp], eax
; File C:\Program Files (x86)\Microsoft Visual Studio\2019\Community\VC\Tools\MSVC\14.28.29333\include\vector

; 708  :         _Ty& _Result = *_Emplace_reallocate(_Mylast, _STD forward<_Valty>(_Val)...);

  0003e	ff 75 ec	 push	 DWORD PTR $T1[ebp]
  00041	8b 45 f4	 mov	 eax, DWORD PTR __Mylast$[ebp]
  00044	ff 30		 push	 DWORD PTR [eax]
  00046	8b 4d fc	 mov	 ecx, DWORD PTR _this$[ebp]
  00049	e8 00 00 00 00	 call	 ??$_Emplace_reallocate@V?$basic_string@DU?$char_traits@D@std@@V?$allocator@D@2@@std@@@?$vector@V?$basic_string@DU?$char_traits@D@std@@V?$allocator@D@2@@std@@V?$allocator@V?$basic_string@DU?$char_traits@D@std@@V?$allocator@D@2@@std@@@2@@std@@QAEPAV?$basic_string@DU?$char_traits@D@std@@V?$allocator@D@2@@1@QAV21@$$QAV21@@Z ; std::vector<std::basic_string<char,std::char_traits<char>,std::allocator<char> >,std::allocator<std::basic_string<char,std::char_traits<char>,std::allocator<char> > > >::_Emplace_reallocate<std::basic_string<char,std::char_traits<char>,std::allocator<char> > >
  0004e	89 45 e8	 mov	 DWORD PTR __Result$[ebp], eax
$LN1@emplace_ba:

; 709  : #if _HAS_CXX17
; 710  :         return _Result;
; 711  : #else // ^^^ _HAS_CXX17 ^^^ // vvv !_HAS_CXX17 vvv
; 712  :         (void) _Result;
; 713  : #endif // _HAS_CXX17
; 714  :     }

  00051	c9		 leave
  00052	c2 04 00	 ret	 4
??$emplace_back@V?$basic_string@DU?$char_traits@D@std@@V?$allocator@D@2@@std@@@?$vector@V?$basic_string@DU?$char_traits@D@std@@V?$allocator@D@2@@std@@V?$allocator@V?$basic_string@DU?$char_traits@D@std@@V?$allocator@D@2@@std@@@2@@std@@QAEX$$QAV?$basic_string@DU?$char_traits@D@std@@V?$allocator@D@2@@1@@Z ENDP ; std::vector<std::basic_string<char,std::char_traits<char>,std::allocator<char> >,std::allocator<std::basic_string<char,std::char_traits<char>,std::allocator<char> > > >::emplace_back<std::basic_string<char,std::char_traits<char>,std::allocator<char> > >
_TEXT	ENDS
; Function compile flags: /Odspy
; File C:\Program Files (x86)\Microsoft Visual Studio\2019\Community\VC\Tools\MSVC\14.28.29333\include\vector
; File C:\Program Files (x86)\Microsoft Visual Studio\2019\Community\VC\Tools\MSVC\14.28.29333\include\xmemory
; File C:\Program Files (x86)\Microsoft Visual Studio\2019\Community\VC\Tools\MSVC\14.28.29333\include\vector
;	COMDAT ?_Getal@?$vector@V?$basic_string@DU?$char_traits@D@std@@V?$allocator@D@2@@std@@V?$allocator@V?$basic_string@DU?$char_traits@D@std@@V?$allocator@D@2@@std@@@2@@std@@AAEAAV?$allocator@V?$basic_string@DU?$char_traits@D@std@@V?$allocator@D@2@@std@@@2@XZ
_TEXT	SEGMENT
$T1 = -8						; size = 4
_this$ = -4						; size = 4
?_Getal@?$vector@V?$basic_string@DU?$char_traits@D@std@@V?$allocator@D@2@@std@@V?$allocator@V?$basic_string@DU?$char_traits@D@std@@V?$allocator@D@2@@std@@@2@@std@@AAEAAV?$allocator@V?$basic_string@DU?$char_traits@D@std@@V?$allocator@D@2@@std@@@2@XZ PROC ; std::vector<std::basic_string<char,std::char_traits<char>,std::allocator<char> >,std::allocator<std::basic_string<char,std::char_traits<char>,std::allocator<char> > > >::_Getal, COMDAT
; _this$ = ecx

; 1732 :     _Alty& _Getal() noexcept {

  00000	55		 push	 ebp
  00001	8b ec		 mov	 ebp, esp
  00003	51		 push	 ecx
  00004	51		 push	 ecx
  00005	89 4d fc	 mov	 DWORD PTR _this$[ebp], ecx

; 1733 :         return _Mypair._Get_first();

  00008	8b 45 fc	 mov	 eax, DWORD PTR _this$[ebp]
; File C:\Program Files (x86)\Microsoft Visual Studio\2019\Community\VC\Tools\MSVC\14.28.29333\include\xmemory

; 1347 :         return *this;

  0000b	89 45 f8	 mov	 DWORD PTR $T1[ebp], eax
; File C:\Program Files (x86)\Microsoft Visual Studio\2019\Community\VC\Tools\MSVC\14.28.29333\include\vector

; 1733 :         return _Mypair._Get_first();

  0000e	8b 45 f8	 mov	 eax, DWORD PTR $T1[ebp]

; 1734 :     }

  00011	c9		 leave
  00012	c3		 ret	 0
?_Getal@?$vector@V?$basic_string@DU?$char_traits@D@std@@V?$allocator@D@2@@std@@V?$allocator@V?$basic_string@DU?$char_traits@D@std@@V?$allocator@D@2@@std@@@2@@std@@AAEAAV?$allocator@V?$basic_string@DU?$char_traits@D@std@@V?$allocator@D@2@@std@@@2@XZ ENDP ; std::vector<std::basic_string<char,std::char_traits<char>,std::allocator<char> >,std::allocator<std::basic_string<char,std::char_traits<char>,std::allocator<char> > > >::_Getal
_TEXT	ENDS
; Function compile flags: /Odspy
; File C:\Program Files (x86)\Microsoft Visual Studio\2019\Community\VC\Tools\MSVC\14.28.29333\include\vector
;	COMDAT ?_Xlength@?$vector@V?$basic_string@DU?$char_traits@D@std@@V?$allocator@D@2@@std@@V?$allocator@V?$basic_string@DU?$char_traits@D@std@@V?$allocator@D@2@@std@@@2@@std@@CAXXZ
_TEXT	SEGMENT
?_Xlength@?$vector@V?$basic_string@DU?$char_traits@D@std@@V?$allocator@D@2@@std@@V?$allocator@V?$basic_string@DU?$char_traits@D@std@@V?$allocator@D@2@@std@@@2@@std@@CAXXZ PROC ; std::vector<std::basic_string<char,std::char_traits<char>,std::allocator<char> >,std::allocator<std::basic_string<char,std::char_traits<char>,std::allocator<char> > > >::_Xlength, COMDAT

; 1704 :     [[noreturn]] static void _Xlength() {

  00000	55		 push	 ebp
  00001	8b ec		 mov	 ebp, esp

; 1705 :         _Xlength_error("vector too long");

  00003	68 00 00 00 00	 push	 OFFSET ??_C@_0BA@FOIKENOD@vector?5too?5long@
  00008	e8 00 00 00 00	 call	 ?_Xlength_error@std@@YAXPBD@Z ; std::_Xlength_error
$LN2@Xlength:

; 1706 :     }

  0000d	5d		 pop	 ebp
  0000e	c3		 ret	 0
?_Xlength@?$vector@V?$basic_string@DU?$char_traits@D@std@@V?$allocator@D@2@@std@@V?$allocator@V?$basic_string@DU?$char_traits@D@std@@V?$allocator@D@2@@std@@@2@@std@@CAXXZ ENDP ; std::vector<std::basic_string<char,std::char_traits<char>,std::allocator<char> >,std::allocator<std::basic_string<char,std::char_traits<char>,std::allocator<char> > > >::_Xlength
_TEXT	ENDS
; Function compile flags: /Odspy
; File C:\Program Files (x86)\Microsoft Visual Studio\2019\Community\VC\Tools\MSVC\14.28.29333\include\vector
; File C:\Program Files (x86)\Microsoft Visual Studio\2019\Community\VC\Tools\MSVC\14.28.29333\include\xmemory
; File C:\Program Files (x86)\Microsoft Visual Studio\2019\Community\VC\Tools\MSVC\14.28.29333\include\vector
; File C:\Program Files (x86)\Microsoft Visual Studio\2019\Community\VC\Tools\MSVC\14.28.29333\include\xmemory
; File C:\Program Files (x86)\Microsoft Visual Studio\2019\Community\VC\Tools\MSVC\14.28.29333\include\vector
; File C:\Program Files (x86)\Microsoft Visual Studio\2019\Community\VC\Tools\MSVC\14.28.29333\include\xmemory
; File C:\Program Files (x86)\Microsoft Visual Studio\2019\Community\VC\Tools\MSVC\14.28.29333\include\vector
;	COMDAT ?_Change_array@?$vector@V?$basic_string@DU?$char_traits@D@std@@V?$allocator@D@2@@std@@V?$allocator@V?$basic_string@DU?$char_traits@D@std@@V?$allocator@D@2@@std@@@2@@std@@AAEXQAV?$basic_string@DU?$char_traits@D@std@@V?$allocator@D@2@@2@II@Z
_TEXT	SEGMENT
$T1 = -52						; size = 4
__Ptr$ = -48						; size = 4
__Count$ = -44						; size = 4
$T2 = -40						; size = 4
__First$ = -36						; size = 4
__Last$ = -32						; size = 4
$T3 = -28						; size = 4
$T4 = -24						; size = 4
__Myend$ = -20						; size = 4
__Mylast$ = -16						; size = 4
_this$ = -12						; size = 4
__My_data$ = -8						; size = 4
__Myfirst$ = -4						; size = 4
__Newvec$ = 8						; size = 4
__Newsize$ = 12						; size = 4
__Newcapacity$ = 16					; size = 4
?_Change_array@?$vector@V?$basic_string@DU?$char_traits@D@std@@V?$allocator@D@2@@std@@V?$allocator@V?$basic_string@DU?$char_traits@D@std@@V?$allocator@D@2@@std@@@2@@std@@AAEXQAV?$basic_string@DU?$char_traits@D@std@@V?$allocator@D@2@@2@II@Z PROC ; std::vector<std::basic_string<char,std::char_traits<char>,std::allocator<char> >,std::allocator<std::basic_string<char,std::char_traits<char>,std::allocator<char> > > >::_Change_array, COMDAT
; _this$ = ecx

; 1667 :     void _Change_array(const pointer _Newvec, const size_type _Newsize, const size_type _Newcapacity) {

  00000	55		 push	 ebp
  00001	8b ec		 mov	 ebp, esp
  00003	83 ec 34	 sub	 esp, 52			; 00000034H
  00006	89 4d f4	 mov	 DWORD PTR _this$[ebp], ecx

; 1668 :         // orphan all iterators, discard old array, acquire new array
; 1669 :         auto& _My_data    = _Mypair._Myval2;

  00009	8b 45 f4	 mov	 eax, DWORD PTR _this$[ebp]
  0000c	89 45 f8	 mov	 DWORD PTR __My_data$[ebp], eax

; 1670 :         pointer& _Myfirst = _My_data._Myfirst;

  0000f	8b 45 f8	 mov	 eax, DWORD PTR __My_data$[ebp]
  00012	89 45 fc	 mov	 DWORD PTR __Myfirst$[ebp], eax

; 1671 :         pointer& _Mylast  = _My_data._Mylast;

  00015	8b 45 f8	 mov	 eax, DWORD PTR __My_data$[ebp]
  00018	83 c0 04	 add	 eax, 4
  0001b	89 45 f0	 mov	 DWORD PTR __Mylast$[ebp], eax

; 1672 :         pointer& _Myend   = _My_data._Myend;

  0001e	8b 45 f8	 mov	 eax, DWORD PTR __My_data$[ebp]
  00021	83 c0 08	 add	 eax, 8
  00024	89 45 ec	 mov	 DWORD PTR __Myend$[ebp], eax

; 1673 : 
; 1674 :         _My_data._Orphan_all();
; 1675 : 
; 1676 :         if (_Myfirst) { // destroy and deallocate old array

  00027	8b 45 fc	 mov	 eax, DWORD PTR __Myfirst$[ebp]
  0002a	83 38 00	 cmp	 DWORD PTR [eax], 0
  0002d	74 63		 je	 SHORT $LN2@Change_arr

; 1677 :             _Destroy(_Myfirst, _Mylast);

  0002f	8b 45 f0	 mov	 eax, DWORD PTR __Mylast$[ebp]
  00032	8b 00		 mov	 eax, DWORD PTR [eax]
  00034	89 45 e0	 mov	 DWORD PTR __Last$[ebp], eax
  00037	8b 45 fc	 mov	 eax, DWORD PTR __Myfirst$[ebp]
  0003a	8b 00		 mov	 eax, DWORD PTR [eax]
  0003c	89 45 dc	 mov	 DWORD PTR __First$[ebp], eax

; 1733 :         return _Mypair._Get_first();

  0003f	8b 45 f4	 mov	 eax, DWORD PTR _this$[ebp]
; File C:\Program Files (x86)\Microsoft Visual Studio\2019\Community\VC\Tools\MSVC\14.28.29333\include\xmemory

; 1347 :         return *this;

  00042	89 45 e8	 mov	 DWORD PTR $T4[ebp], eax
; File C:\Program Files (x86)\Microsoft Visual Studio\2019\Community\VC\Tools\MSVC\14.28.29333\include\vector

; 1733 :         return _Mypair._Get_first();

  00045	8b 45 e8	 mov	 eax, DWORD PTR $T4[ebp]
  00048	89 45 e4	 mov	 DWORD PTR $T3[ebp], eax

; 1612 :         _Destroy_range(_First, _Last, _Getal());

  0004b	ff 75 e4	 push	 DWORD PTR $T3[ebp]
  0004e	ff 75 e0	 push	 DWORD PTR __Last$[ebp]
  00051	ff 75 dc	 push	 DWORD PTR __First$[ebp]
  00054	e8 00 00 00 00	 call	 ??$_Destroy_range@V?$allocator@V?$basic_string@DU?$char_traits@D@std@@V?$allocator@D@2@@std@@@std@@@std@@YAXPAV?$basic_string@DU?$char_traits@D@std@@V?$allocator@D@2@@0@QAV10@AAV?$allocator@V?$basic_string@DU?$char_traits@D@std@@V?$allocator@D@2@@std@@@0@@Z ; std::_Destroy_range<std::allocator<std::basic_string<char,std::char_traits<char>,std::allocator<char> > > >
  00059	83 c4 0c	 add	 esp, 12			; 0000000cH

; 1733 :         return _Mypair._Get_first();

  0005c	8b 45 f4	 mov	 eax, DWORD PTR _this$[ebp]
; File C:\Program Files (x86)\Microsoft Visual Studio\2019\Community\VC\Tools\MSVC\14.28.29333\include\xmemory

; 1347 :         return *this;

  0005f	89 45 d8	 mov	 DWORD PTR $T2[ebp], eax
; File C:\Program Files (x86)\Microsoft Visual Studio\2019\Community\VC\Tools\MSVC\14.28.29333\include\vector

; 1733 :         return _Mypair._Get_first();

  00062	8b 45 d8	 mov	 eax, DWORD PTR $T2[ebp]
  00065	89 45 cc	 mov	 DWORD PTR $T1[ebp], eax

; 1678 :             _Getal().deallocate(_Myfirst, static_cast<size_type>(_Myend - _Myfirst));

  00068	8b 45 ec	 mov	 eax, DWORD PTR __Myend$[ebp]
  0006b	8b 4d fc	 mov	 ecx, DWORD PTR __Myfirst$[ebp]
  0006e	8b 00		 mov	 eax, DWORD PTR [eax]
  00070	2b 01		 sub	 eax, DWORD PTR [ecx]
  00072	99		 cdq
  00073	6a 18		 push	 24			; 00000018H
  00075	59		 pop	 ecx
  00076	f7 f9		 idiv	 ecx
  00078	89 45 d4	 mov	 DWORD PTR __Count$[ebp], eax
  0007b	8b 45 fc	 mov	 eax, DWORD PTR __Myfirst$[ebp]
  0007e	8b 00		 mov	 eax, DWORD PTR [eax]
  00080	89 45 d0	 mov	 DWORD PTR __Ptr$[ebp], eax
; File C:\Program Files (x86)\Microsoft Visual Studio\2019\Community\VC\Tools\MSVC\14.28.29333\include\xmemory

; 810  :         _Deallocate<_New_alignof<_Ty>>(_Ptr, sizeof(_Ty) * _Count);

  00083	6b 45 d4 18	 imul	 eax, DWORD PTR __Count$[ebp], 24
  00087	50		 push	 eax
  00088	ff 75 d0	 push	 DWORD PTR __Ptr$[ebp]
  0008b	e8 00 00 00 00	 call	 ??$_Deallocate@$07$0A@@std@@YAXPAXI@Z ; std::_Deallocate<8,0>
  00090	59		 pop	 ecx
  00091	59		 pop	 ecx
$LN2@Change_arr:
; File C:\Program Files (x86)\Microsoft Visual Studio\2019\Community\VC\Tools\MSVC\14.28.29333\include\vector

; 1681 :         _Myfirst = _Newvec;

  00092	8b 45 fc	 mov	 eax, DWORD PTR __Myfirst$[ebp]
  00095	8b 4d 08	 mov	 ecx, DWORD PTR __Newvec$[ebp]
  00098	89 08		 mov	 DWORD PTR [eax], ecx

; 1682 :         _Mylast  = _Newvec + _Newsize;

  0009a	6b 45 0c 18	 imul	 eax, DWORD PTR __Newsize$[ebp], 24
  0009e	03 45 08	 add	 eax, DWORD PTR __Newvec$[ebp]
  000a1	8b 4d f0	 mov	 ecx, DWORD PTR __Mylast$[ebp]
  000a4	89 01		 mov	 DWORD PTR [ecx], eax

; 1683 :         _Myend   = _Newvec + _Newcapacity;

  000a6	6b 45 10 18	 imul	 eax, DWORD PTR __Newcapacity$[ebp], 24
  000aa	03 45 08	 add	 eax, DWORD PTR __Newvec$[ebp]
  000ad	8b 4d ec	 mov	 ecx, DWORD PTR __Myend$[ebp]
  000b0	89 01		 mov	 DWORD PTR [ecx], eax

; 1684 :     }

  000b2	c9		 leave
  000b3	c2 0c 00	 ret	 12			; 0000000cH
?_Change_array@?$vector@V?$basic_string@DU?$char_traits@D@std@@V?$allocator@D@2@@std@@V?$allocator@V?$basic_string@DU?$char_traits@D@std@@V?$allocator@D@2@@std@@@2@@std@@AAEXQAV?$basic_string@DU?$char_traits@D@std@@V?$allocator@D@2@@2@II@Z ENDP ; std::vector<std::basic_string<char,std::char_traits<char>,std::allocator<char> >,std::allocator<std::basic_string<char,std::char_traits<char>,std::allocator<char> > > >::_Change_array
_TEXT	ENDS
; Function compile flags: /Odspy
; File C:\Program Files (x86)\Microsoft Visual Studio\2019\Community\VC\Tools\MSVC\14.28.29333\include\vector
; File C:\Program Files (x86)\Microsoft Visual Studio\2019\Community\VC\Tools\MSVC\14.28.29333\include\xmemory
; File C:\Program Files (x86)\Microsoft Visual Studio\2019\Community\VC\Tools\MSVC\14.28.29333\include\vector
; File C:\Program Files (x86)\Microsoft Visual Studio\2019\Community\VC\Tools\MSVC\14.28.29333\include\xmemory
; File C:\Program Files (x86)\Microsoft Visual Studio\2019\Community\VC\Tools\MSVC\14.28.29333\include\limits
; File C:\Program Files (x86)\Microsoft Visual Studio\2019\Community\VC\Tools\MSVC\14.28.29333\include\vector
; File C:\Program Files (x86)\Microsoft Visual Studio\2019\Community\VC\Tools\MSVC\14.28.29333\include\utility
; File C:\Program Files (x86)\Microsoft Visual Studio\2019\Community\VC\Tools\MSVC\14.28.29333\include\vector
;	COMDAT ?_Calculate_growth@?$vector@V?$basic_string@DU?$char_traits@D@std@@V?$allocator@D@2@@std@@V?$allocator@V?$basic_string@DU?$char_traits@D@std@@V?$allocator@D@2@@std@@@2@@std@@ABEII@Z
_TEXT	SEGMENT
$T1 = -52						; size = 4
$T2 = -48						; size = 4
$T3 = -44						; size = 4
$T4 = -40						; size = 4
$T5 = -36						; size = 4
__Geometric$ = -32					; size = 4
__Max$ = -28						; size = 4
tv82 = -24						; size = 4
$T6 = -20						; size = 4
$T7 = -16						; size = 4
_this$ = -12						; size = 4
__My_data$8 = -8					; size = 4
__Oldcapacity$ = -4					; size = 4
__Newsize$ = 8						; size = 4
?_Calculate_growth@?$vector@V?$basic_string@DU?$char_traits@D@std@@V?$allocator@D@2@@std@@V?$allocator@V?$basic_string@DU?$char_traits@D@std@@V?$allocator@D@2@@std@@@2@@std@@ABEII@Z PROC ; std::vector<std::basic_string<char,std::char_traits<char>,std::allocator<char> >,std::allocator<std::basic_string<char,std::char_traits<char>,std::allocator<char> > > >::_Calculate_growth, COMDAT
; _this$ = ecx

; 1615 :     size_type _Calculate_growth(const size_type _Newsize) const {

  00000	55		 push	 ebp
  00001	8b ec		 mov	 ebp, esp
  00003	83 ec 34	 sub	 esp, 52			; 00000034H
  00006	89 4d f4	 mov	 DWORD PTR _this$[ebp], ecx

; 1493 :         auto& _My_data = _Mypair._Myval2;

  00009	8b 45 f4	 mov	 eax, DWORD PTR _this$[ebp]
  0000c	89 45 f8	 mov	 DWORD PTR __My_data$8[ebp], eax

; 1494 :         return static_cast<size_type>(_My_data._Myend - _My_data._Myfirst);

  0000f	8b 45 f8	 mov	 eax, DWORD PTR __My_data$8[ebp]
  00012	8b 4d f8	 mov	 ecx, DWORD PTR __My_data$8[ebp]
  00015	8b 40 08	 mov	 eax, DWORD PTR [eax+8]
  00018	2b 01		 sub	 eax, DWORD PTR [ecx]
  0001a	99		 cdq
  0001b	6a 18		 push	 24			; 00000018H
  0001d	59		 pop	 ecx
  0001e	f7 f9		 idiv	 ecx
  00020	89 45 fc	 mov	 DWORD PTR __Oldcapacity$[ebp], eax

; 1737 :         return _Mypair._Get_first();

  00023	8b 45 f4	 mov	 eax, DWORD PTR _this$[ebp]
; File C:\Program Files (x86)\Microsoft Visual Studio\2019\Community\VC\Tools\MSVC\14.28.29333\include\xmemory

; 1351 :         return *this;

  00026	89 45 dc	 mov	 DWORD PTR $T5[ebp], eax
; File C:\Program Files (x86)\Microsoft Visual Studio\2019\Community\VC\Tools\MSVC\14.28.29333\include\vector

; 1737 :         return _Mypair._Get_first();

  00029	8b 45 dc	 mov	 eax, DWORD PTR $T5[ebp]
  0002c	89 45 cc	 mov	 DWORD PTR $T1[ebp], eax
; File C:\Program Files (x86)\Microsoft Visual Studio\2019\Community\VC\Tools\MSVC\14.28.29333\include\xmemory

; 710  :         return static_cast<size_t>(-1) / sizeof(value_type);

  0002f	c7 45 f0 aa aa
	aa 0a		 mov	 DWORD PTR $T7[ebp], 178956970 ; 0aaaaaaaH
; File C:\Program Files (x86)\Microsoft Visual Studio\2019\Community\VC\Tools\MSVC\14.28.29333\include\limits

; 557  :         return INT_MAX;

  00036	c7 45 d8 ff ff
	ff 7f		 mov	 DWORD PTR $T4[ebp], 2147483647 ; 7fffffffH
; File C:\Program Files (x86)\Microsoft Visual Studio\2019\Community\VC\Tools\MSVC\14.28.29333\include\vector

; 1488 :         return (_STD min)(

  0003d	8b 45 d8	 mov	 eax, DWORD PTR $T4[ebp]
  00040	89 45 ec	 mov	 DWORD PTR $T6[ebp], eax
; File C:\Program Files (x86)\Microsoft Visual Studio\2019\Community\VC\Tools\MSVC\14.28.29333\include\utility

; 68   :     return _Right < _Left ? _Right : _Left;

  00043	8b 45 f0	 mov	 eax, DWORD PTR $T7[ebp]
  00046	3b 45 ec	 cmp	 eax, DWORD PTR $T6[ebp]
  00049	73 08		 jae	 SHORT $LN25@Calculate_
  0004b	8d 45 f0	 lea	 eax, DWORD PTR $T7[ebp]
  0004e	89 45 e8	 mov	 DWORD PTR tv82[ebp], eax
  00051	eb 06		 jmp	 SHORT $LN26@Calculate_
$LN25@Calculate_:
  00053	8d 45 ec	 lea	 eax, DWORD PTR $T6[ebp]
  00056	89 45 e8	 mov	 DWORD PTR tv82[ebp], eax
$LN26@Calculate_:
  00059	8b 45 e8	 mov	 eax, DWORD PTR tv82[ebp]
  0005c	89 45 d4	 mov	 DWORD PTR $T3[ebp], eax
  0005f	8b 45 d4	 mov	 eax, DWORD PTR $T3[ebp]
  00062	89 45 d0	 mov	 DWORD PTR $T2[ebp], eax
; File C:\Program Files (x86)\Microsoft Visual Studio\2019\Community\VC\Tools\MSVC\14.28.29333\include\vector

; 1488 :         return (_STD min)(

  00065	8b 45 d0	 mov	 eax, DWORD PTR $T2[ebp]
  00068	8b 00		 mov	 eax, DWORD PTR [eax]
  0006a	89 45 e4	 mov	 DWORD PTR __Max$[ebp], eax

; 1616 :         // given _Oldcapacity and _Newsize, calculate geometric growth
; 1617 :         const size_type _Oldcapacity = capacity();
; 1618 :         const auto _Max              = max_size();
; 1619 : 
; 1620 :         if (_Oldcapacity > _Max - _Oldcapacity / 2) {

  0006d	8b 45 fc	 mov	 eax, DWORD PTR __Oldcapacity$[ebp]
  00070	d1 e8		 shr	 eax, 1
  00072	8b 4d e4	 mov	 ecx, DWORD PTR __Max$[ebp]
  00075	2b c8		 sub	 ecx, eax
  00077	39 4d fc	 cmp	 DWORD PTR __Oldcapacity$[ebp], ecx
  0007a	76 05		 jbe	 SHORT $LN2@Calculate_

; 1621 :             return _Max; // geometric growth would overflow

  0007c	8b 45 e4	 mov	 eax, DWORD PTR __Max$[ebp]
  0007f	eb 1b		 jmp	 SHORT $LN1@Calculate_
$LN2@Calculate_:

; 1622 :         }
; 1623 : 
; 1624 :         const size_type _Geometric = _Oldcapacity + _Oldcapacity / 2;

  00081	8b 45 fc	 mov	 eax, DWORD PTR __Oldcapacity$[ebp]
  00084	d1 e8		 shr	 eax, 1
  00086	03 45 fc	 add	 eax, DWORD PTR __Oldcapacity$[ebp]
  00089	89 45 e0	 mov	 DWORD PTR __Geometric$[ebp], eax

; 1625 : 
; 1626 :         if (_Geometric < _Newsize) {

  0008c	8b 45 e0	 mov	 eax, DWORD PTR __Geometric$[ebp]
  0008f	3b 45 08	 cmp	 eax, DWORD PTR __Newsize$[ebp]
  00092	73 05		 jae	 SHORT $LN3@Calculate_

; 1627 :             return _Newsize; // geometric growth would be insufficient

  00094	8b 45 08	 mov	 eax, DWORD PTR __Newsize$[ebp]
  00097	eb 03		 jmp	 SHORT $LN1@Calculate_
$LN3@Calculate_:

; 1628 :         }
; 1629 : 
; 1630 :         return _Geometric; // geometric growth is sufficient

  00099	8b 45 e0	 mov	 eax, DWORD PTR __Geometric$[ebp]
$LN1@Calculate_:

; 1631 :     }

  0009c	c9		 leave
  0009d	c2 04 00	 ret	 4
?_Calculate_growth@?$vector@V?$basic_string@DU?$char_traits@D@std@@V?$allocator@D@2@@std@@V?$allocator@V?$basic_string@DU?$char_traits@D@std@@V?$allocator@D@2@@std@@@2@@std@@ABEII@Z ENDP ; std::vector<std::basic_string<char,std::char_traits<char>,std::allocator<char> >,std::allocator<std::basic_string<char,std::char_traits<char>,std::allocator<char> > > >::_Calculate_growth
_TEXT	ENDS
; Function compile flags: /Odspy
; File C:\Program Files (x86)\Microsoft Visual Studio\2019\Community\VC\Tools\MSVC\14.28.29333\include\vector
; File C:\Program Files (x86)\Microsoft Visual Studio\2019\Community\VC\Tools\MSVC\14.28.29333\include\xmemory
; File C:\Program Files (x86)\Microsoft Visual Studio\2019\Community\VC\Tools\MSVC\14.28.29333\include\vector
;	COMDAT ?_Destroy@?$vector@V?$basic_string@DU?$char_traits@D@std@@V?$allocator@D@2@@std@@V?$allocator@V?$basic_string@DU?$char_traits@D@std@@V?$allocator@D@2@@std@@@2@@std@@AAEXPAV?$basic_string@DU?$char_traits@D@std@@V?$allocator@D@2@@2@0@Z
_TEXT	SEGMENT
$T1 = -12						; size = 4
$T2 = -8						; size = 4
_this$ = -4						; size = 4
__First$ = 8						; size = 4
__Last$ = 12						; size = 4
?_Destroy@?$vector@V?$basic_string@DU?$char_traits@D@std@@V?$allocator@D@2@@std@@V?$allocator@V?$basic_string@DU?$char_traits@D@std@@V?$allocator@D@2@@std@@@2@@std@@AAEXPAV?$basic_string@DU?$char_traits@D@std@@V?$allocator@D@2@@2@0@Z PROC ; std::vector<std::basic_string<char,std::char_traits<char>,std::allocator<char> >,std::allocator<std::basic_string<char,std::char_traits<char>,std::allocator<char> > > >::_Destroy, COMDAT
; _this$ = ecx

; 1611 :     void _Destroy(pointer _First, pointer _Last) { // destroy [_First, _Last) using allocator

  00000	55		 push	 ebp
  00001	8b ec		 mov	 ebp, esp
  00003	83 ec 0c	 sub	 esp, 12			; 0000000cH
  00006	89 4d fc	 mov	 DWORD PTR _this$[ebp], ecx

; 1733 :         return _Mypair._Get_first();

  00009	8b 45 fc	 mov	 eax, DWORD PTR _this$[ebp]
; File C:\Program Files (x86)\Microsoft Visual Studio\2019\Community\VC\Tools\MSVC\14.28.29333\include\xmemory

; 1347 :         return *this;

  0000c	89 45 f8	 mov	 DWORD PTR $T2[ebp], eax
; File C:\Program Files (x86)\Microsoft Visual Studio\2019\Community\VC\Tools\MSVC\14.28.29333\include\vector

; 1733 :         return _Mypair._Get_first();

  0000f	8b 45 f8	 mov	 eax, DWORD PTR $T2[ebp]
  00012	89 45 f4	 mov	 DWORD PTR $T1[ebp], eax

; 1612 :         _Destroy_range(_First, _Last, _Getal());

  00015	ff 75 f4	 push	 DWORD PTR $T1[ebp]
  00018	ff 75 0c	 push	 DWORD PTR __Last$[ebp]
  0001b	ff 75 08	 push	 DWORD PTR __First$[ebp]
  0001e	e8 00 00 00 00	 call	 ??$_Destroy_range@V?$allocator@V?$basic_string@DU?$char_traits@D@std@@V?$allocator@D@2@@std@@@std@@@std@@YAXPAV?$basic_string@DU?$char_traits@D@std@@V?$allocator@D@2@@0@QAV10@AAV?$allocator@V?$basic_string@DU?$char_traits@D@std@@V?$allocator@D@2@@std@@@0@@Z ; std::_Destroy_range<std::allocator<std::basic_string<char,std::char_traits<char>,std::allocator<char> > > >
  00023	83 c4 0c	 add	 esp, 12			; 0000000cH

; 1613 :     }

  00026	c9		 leave
  00027	c2 08 00	 ret	 8
?_Destroy@?$vector@V?$basic_string@DU?$char_traits@D@std@@V?$allocator@D@2@@std@@V?$allocator@V?$basic_string@DU?$char_traits@D@std@@V?$allocator@D@2@@std@@@2@@std@@AAEXPAV?$basic_string@DU?$char_traits@D@std@@V?$allocator@D@2@@2@0@Z ENDP ; std::vector<std::basic_string<char,std::char_traits<char>,std::allocator<char> >,std::allocator<std::basic_string<char,std::char_traits<char>,std::allocator<char> > > >::_Destroy
_TEXT	ENDS
; Function compile flags: /Odspy
; File C:\Program Files (x86)\Microsoft Visual Studio\2019\Community\VC\Tools\MSVC\14.28.29333\include\vector
; File C:\Program Files (x86)\Microsoft Visual Studio\2019\Community\VC\Tools\MSVC\14.28.29333\include\xmemory
; File C:\Program Files (x86)\Microsoft Visual Studio\2019\Community\VC\Tools\MSVC\14.28.29333\include\vector
;	COMDAT ?clear@?$vector@V?$basic_string@DU?$char_traits@D@std@@V?$allocator@D@2@@std@@V?$allocator@V?$basic_string@DU?$char_traits@D@std@@V?$allocator@D@2@@std@@@2@@std@@QAEXXZ
_TEXT	SEGMENT
__First$ = -32						; size = 4
__Last$ = -28						; size = 4
$T1 = -24						; size = 4
$T2 = -20						; size = 4
__Myfirst$ = -16					; size = 4
__Mylast$ = -12						; size = 4
_this$ = -8						; size = 4
__My_data$ = -4						; size = 4
?clear@?$vector@V?$basic_string@DU?$char_traits@D@std@@V?$allocator@D@2@@std@@V?$allocator@V?$basic_string@DU?$char_traits@D@std@@V?$allocator@D@2@@std@@@2@@std@@QAEXXZ PROC ; std::vector<std::basic_string<char,std::char_traits<char>,std::allocator<char> >,std::allocator<std::basic_string<char,std::char_traits<char>,std::allocator<char> > > >::clear, COMDAT
; _this$ = ecx

; 1383 :     void clear() noexcept { // erase all

  00000	55		 push	 ebp
  00001	8b ec		 mov	 ebp, esp
  00003	83 ec 20	 sub	 esp, 32			; 00000020H
  00006	89 4d f8	 mov	 DWORD PTR _this$[ebp], ecx

; 1384 :         auto& _My_data    = _Mypair._Myval2;

  00009	8b 45 f8	 mov	 eax, DWORD PTR _this$[ebp]
  0000c	89 45 fc	 mov	 DWORD PTR __My_data$[ebp], eax

; 1385 :         pointer& _Myfirst = _My_data._Myfirst;

  0000f	8b 45 fc	 mov	 eax, DWORD PTR __My_data$[ebp]
  00012	89 45 f0	 mov	 DWORD PTR __Myfirst$[ebp], eax

; 1386 :         pointer& _Mylast  = _My_data._Mylast;

  00015	8b 45 fc	 mov	 eax, DWORD PTR __My_data$[ebp]
  00018	83 c0 04	 add	 eax, 4
  0001b	89 45 f4	 mov	 DWORD PTR __Mylast$[ebp], eax

; 1387 : 
; 1388 :         _My_data._Orphan_all();
; 1389 :         _Destroy(_Myfirst, _Mylast);

  0001e	8b 45 f4	 mov	 eax, DWORD PTR __Mylast$[ebp]
  00021	8b 00		 mov	 eax, DWORD PTR [eax]
  00023	89 45 e4	 mov	 DWORD PTR __Last$[ebp], eax
  00026	8b 45 f0	 mov	 eax, DWORD PTR __Myfirst$[ebp]
  00029	8b 00		 mov	 eax, DWORD PTR [eax]
  0002b	89 45 e0	 mov	 DWORD PTR __First$[ebp], eax

; 1733 :         return _Mypair._Get_first();

  0002e	8b 45 f8	 mov	 eax, DWORD PTR _this$[ebp]
; File C:\Program Files (x86)\Microsoft Visual Studio\2019\Community\VC\Tools\MSVC\14.28.29333\include\xmemory

; 1347 :         return *this;

  00031	89 45 ec	 mov	 DWORD PTR $T2[ebp], eax
; File C:\Program Files (x86)\Microsoft Visual Studio\2019\Community\VC\Tools\MSVC\14.28.29333\include\vector

; 1733 :         return _Mypair._Get_first();

  00034	8b 45 ec	 mov	 eax, DWORD PTR $T2[ebp]
  00037	89 45 e8	 mov	 DWORD PTR $T1[ebp], eax

; 1612 :         _Destroy_range(_First, _Last, _Getal());

  0003a	ff 75 e8	 push	 DWORD PTR $T1[ebp]
  0003d	ff 75 e4	 push	 DWORD PTR __Last$[ebp]
  00040	ff 75 e0	 push	 DWORD PTR __First$[ebp]
  00043	e8 00 00 00 00	 call	 ??$_Destroy_range@V?$allocator@V?$basic_string@DU?$char_traits@D@std@@V?$allocator@D@2@@std@@@std@@@std@@YAXPAV?$basic_string@DU?$char_traits@D@std@@V?$allocator@D@2@@0@QAV10@AAV?$allocator@V?$basic_string@DU?$char_traits@D@std@@V?$allocator@D@2@@std@@@0@@Z ; std::_Destroy_range<std::allocator<std::basic_string<char,std::char_traits<char>,std::allocator<char> > > >
  00048	83 c4 0c	 add	 esp, 12			; 0000000cH

; 1390 :         _Mylast = _Myfirst;

  0004b	8b 45 f4	 mov	 eax, DWORD PTR __Mylast$[ebp]
  0004e	8b 4d f0	 mov	 ecx, DWORD PTR __Myfirst$[ebp]
  00051	8b 09		 mov	 ecx, DWORD PTR [ecx]
  00053	89 08		 mov	 DWORD PTR [eax], ecx

; 1391 :     }

  00055	c9		 leave
  00056	c3		 ret	 0
?clear@?$vector@V?$basic_string@DU?$char_traits@D@std@@V?$allocator@D@2@@std@@V?$allocator@V?$basic_string@DU?$char_traits@D@std@@V?$allocator@D@2@@std@@@2@@std@@QAEXXZ ENDP ; std::vector<std::basic_string<char,std::char_traits<char>,std::allocator<char> >,std::allocator<std::basic_string<char,std::char_traits<char>,std::allocator<char> > > >::clear
_TEXT	ENDS
; Function compile flags: /Odspy
; File C:\Program Files (x86)\Microsoft Visual Studio\2019\Community\VC\Tools\MSVC\14.28.29333\include\vector
; File C:\Program Files (x86)\Microsoft Visual Studio\2019\Community\VC\Tools\MSVC\14.28.29333\include\xmemory
; File C:\Program Files (x86)\Microsoft Visual Studio\2019\Community\VC\Tools\MSVC\14.28.29333\include\vector
; File C:\Program Files (x86)\Microsoft Visual Studio\2019\Community\VC\Tools\MSVC\14.28.29333\include\xmemory
; File C:\Program Files (x86)\Microsoft Visual Studio\2019\Community\VC\Tools\MSVC\14.28.29333\include\limits
; File C:\Program Files (x86)\Microsoft Visual Studio\2019\Community\VC\Tools\MSVC\14.28.29333\include\vector
; File C:\Program Files (x86)\Microsoft Visual Studio\2019\Community\VC\Tools\MSVC\14.28.29333\include\utility
; File C:\Program Files (x86)\Microsoft Visual Studio\2019\Community\VC\Tools\MSVC\14.28.29333\include\vector
;	COMDAT ?reserve@?$vector@V?$basic_string@DU?$char_traits@D@std@@V?$allocator@D@2@@std@@V?$allocator@V?$basic_string@DU?$char_traits@D@std@@V?$allocator@D@2@@std@@@2@@std@@QAEXI@Z
_TEXT	SEGMENT
$T1 = -48						; size = 4
$T2 = -44						; size = 4
$T3 = -40						; size = 4
$T4 = -36						; size = 4
$T5 = -32						; size = 4
$T6 = -28						; size = 4
$T7 = -24						; size = 4
tv81 = -20						; size = 4
$T8 = -16						; size = 4
$T9 = -12						; size = 4
__My_data$10 = -8					; size = 4
_this$ = -4						; size = 4
__Newcapacity$ = 8					; size = 4
?reserve@?$vector@V?$basic_string@DU?$char_traits@D@std@@V?$allocator@D@2@@std@@V?$allocator@V?$basic_string@DU?$char_traits@D@std@@V?$allocator@D@2@@std@@@2@@std@@QAEXI@Z PROC ; std::vector<std::basic_string<char,std::char_traits<char>,std::allocator<char> >,std::allocator<std::basic_string<char,std::char_traits<char>,std::allocator<char> > > >::reserve, COMDAT
; _this$ = ecx

; 1304 :     void reserve(_CRT_GUARDOVERFLOW const size_type _Newcapacity) {

  00000	55		 push	 ebp
  00001	8b ec		 mov	 ebp, esp
  00003	83 ec 30	 sub	 esp, 48			; 00000030H
  00006	89 4d fc	 mov	 DWORD PTR _this$[ebp], ecx

; 1493 :         auto& _My_data = _Mypair._Myval2;

  00009	8b 45 fc	 mov	 eax, DWORD PTR _this$[ebp]
  0000c	89 45 f8	 mov	 DWORD PTR __My_data$10[ebp], eax

; 1494 :         return static_cast<size_type>(_My_data._Myend - _My_data._Myfirst);

  0000f	8b 45 f8	 mov	 eax, DWORD PTR __My_data$10[ebp]
  00012	8b 4d f8	 mov	 ecx, DWORD PTR __My_data$10[ebp]
  00015	8b 40 08	 mov	 eax, DWORD PTR [eax+8]
  00018	2b 01		 sub	 eax, DWORD PTR [ecx]
  0001a	99		 cdq
  0001b	6a 18		 push	 24			; 00000018H
  0001d	59		 pop	 ecx
  0001e	f7 f9		 idiv	 ecx
  00020	89 45 e8	 mov	 DWORD PTR $T7[ebp], eax

; 1305 :         // increase capacity to _Newcapacity (without geometric growth), provide strong guarantee
; 1306 :         if (_Newcapacity > capacity()) { // something to do (reserve() never shrinks)

  00023	8b 45 08	 mov	 eax, DWORD PTR __Newcapacity$[ebp]
  00026	3b 45 e8	 cmp	 eax, DWORD PTR $T7[ebp]
  00029	76 62		 jbe	 SHORT $LN4@reserve

; 1737 :         return _Mypair._Get_first();

  0002b	8b 45 fc	 mov	 eax, DWORD PTR _this$[ebp]
; File C:\Program Files (x86)\Microsoft Visual Studio\2019\Community\VC\Tools\MSVC\14.28.29333\include\xmemory

; 1351 :         return *this;

  0002e	89 45 e4	 mov	 DWORD PTR $T6[ebp], eax
; File C:\Program Files (x86)\Microsoft Visual Studio\2019\Community\VC\Tools\MSVC\14.28.29333\include\vector

; 1737 :         return _Mypair._Get_first();

  00031	8b 45 e4	 mov	 eax, DWORD PTR $T6[ebp]
  00034	89 45 d0	 mov	 DWORD PTR $T1[ebp], eax
; File C:\Program Files (x86)\Microsoft Visual Studio\2019\Community\VC\Tools\MSVC\14.28.29333\include\xmemory

; 710  :         return static_cast<size_t>(-1) / sizeof(value_type);

  00037	c7 45 f4 aa aa
	aa 0a		 mov	 DWORD PTR $T9[ebp], 178956970 ; 0aaaaaaaH
; File C:\Program Files (x86)\Microsoft Visual Studio\2019\Community\VC\Tools\MSVC\14.28.29333\include\limits

; 557  :         return INT_MAX;

  0003e	c7 45 e0 ff ff
	ff 7f		 mov	 DWORD PTR $T5[ebp], 2147483647 ; 7fffffffH
; File C:\Program Files (x86)\Microsoft Visual Studio\2019\Community\VC\Tools\MSVC\14.28.29333\include\vector

; 1488 :         return (_STD min)(

  00045	8b 45 e0	 mov	 eax, DWORD PTR $T5[ebp]
  00048	89 45 f0	 mov	 DWORD PTR $T8[ebp], eax
; File C:\Program Files (x86)\Microsoft Visual Studio\2019\Community\VC\Tools\MSVC\14.28.29333\include\utility

; 68   :     return _Right < _Left ? _Right : _Left;

  0004b	8b 45 f4	 mov	 eax, DWORD PTR $T9[ebp]
  0004e	3b 45 f0	 cmp	 eax, DWORD PTR $T8[ebp]
  00051	73 08		 jae	 SHORT $LN25@reserve
  00053	8d 45 f4	 lea	 eax, DWORD PTR $T9[ebp]
  00056	89 45 ec	 mov	 DWORD PTR tv81[ebp], eax
  00059	eb 06		 jmp	 SHORT $LN26@reserve
$LN25@reserve:
  0005b	8d 45 f0	 lea	 eax, DWORD PTR $T8[ebp]
  0005e	89 45 ec	 mov	 DWORD PTR tv81[ebp], eax
$LN26@reserve:
  00061	8b 45 ec	 mov	 eax, DWORD PTR tv81[ebp]
  00064	89 45 dc	 mov	 DWORD PTR $T4[ebp], eax
  00067	8b 45 dc	 mov	 eax, DWORD PTR $T4[ebp]
  0006a	89 45 d8	 mov	 DWORD PTR $T3[ebp], eax
; File C:\Program Files (x86)\Microsoft Visual Studio\2019\Community\VC\Tools\MSVC\14.28.29333\include\vector

; 1488 :         return (_STD min)(

  0006d	8b 45 d8	 mov	 eax, DWORD PTR $T3[ebp]
  00070	8b 00		 mov	 eax, DWORD PTR [eax]
  00072	89 45 d4	 mov	 DWORD PTR $T2[ebp], eax

; 1307 :             if (_Newcapacity > max_size()) {

  00075	8b 45 08	 mov	 eax, DWORD PTR __Newcapacity$[ebp]
  00078	3b 45 d4	 cmp	 eax, DWORD PTR $T2[ebp]
  0007b	76 05		 jbe	 SHORT $LN3@reserve

; 1308 :                 _Xlength();

  0007d	e8 00 00 00 00	 call	 ?_Xlength@?$vector@V?$basic_string@DU?$char_traits@D@std@@V?$allocator@D@2@@std@@V?$allocator@V?$basic_string@DU?$char_traits@D@std@@V?$allocator@D@2@@std@@@2@@std@@CAXXZ ; std::vector<std::basic_string<char,std::char_traits<char>,std::allocator<char> >,std::allocator<std::basic_string<char,std::char_traits<char>,std::allocator<char> > > >::_Xlength
$LN3@reserve:

; 1309 :             }
; 1310 : 
; 1311 :             _Reallocate_exactly(_Newcapacity);

  00082	ff 75 08	 push	 DWORD PTR __Newcapacity$[ebp]
  00085	8b 4d fc	 mov	 ecx, DWORD PTR _this$[ebp]
  00088	e8 00 00 00 00	 call	 ?_Reallocate_exactly@?$vector@V?$basic_string@DU?$char_traits@D@std@@V?$allocator@D@2@@std@@V?$allocator@V?$basic_string@DU?$char_traits@D@std@@V?$allocator@D@2@@std@@@2@@std@@AAEXI@Z ; std::vector<std::basic_string<char,std::char_traits<char>,std::allocator<char> >,std::allocator<std::basic_string<char,std::char_traits<char>,std::allocator<char> > > >::_Reallocate_exactly
$LN4@reserve:

; 1312 :         }
; 1313 :     }

  0008d	c9		 leave
  0008e	c2 04 00	 ret	 4
?reserve@?$vector@V?$basic_string@DU?$char_traits@D@std@@V?$allocator@D@2@@std@@V?$allocator@V?$basic_string@DU?$char_traits@D@std@@V?$allocator@D@2@@std@@@2@@std@@QAEXI@Z ENDP ; std::vector<std::basic_string<char,std::char_traits<char>,std::allocator<char> >,std::allocator<std::basic_string<char,std::char_traits<char>,std::allocator<char> > > >::reserve
_TEXT	ENDS
; Function compile flags: /Odspy
; File C:\Program Files (x86)\Microsoft Visual Studio\2019\Community\VC\Tools\MSVC\14.28.29333\include\vector
; File C:\Program Files (x86)\Microsoft Visual Studio\2019\Community\VC\Tools\MSVC\14.28.29333\include\xmemory
; File C:\Program Files (x86)\Microsoft Visual Studio\2019\Community\VC\Tools\MSVC\14.28.29333\include\vector
; File C:\Program Files (x86)\Microsoft Visual Studio\2019\Community\VC\Tools\MSVC\14.28.29333\include\xmemory
; File C:\Program Files (x86)\Microsoft Visual Studio\2019\Community\VC\Tools\MSVC\14.28.29333\include\vector
; File C:\Program Files (x86)\Microsoft Visual Studio\2019\Community\VC\Tools\MSVC\14.28.29333\include\xmemory
; File C:\Program Files (x86)\Microsoft Visual Studio\2019\Community\VC\Tools\MSVC\14.28.29333\include\vector
;	COMDAT ?_Reallocate_exactly@?$vector@V?$basic_string@DU?$char_traits@D@std@@V?$allocator@D@2@@std@@V?$allocator@V?$basic_string@DU?$char_traits@D@std@@V?$allocator@D@2@@std@@@2@@std@@AAEXI@Z
_TEXT	SEGMENT
__Max_possible$2 = -80					; size = 4
$T3 = -76						; size = 4
__Size$ = -72						; size = 4
__First$ = -68						; size = 4
__Last$ = -64						; size = 4
$T4 = -60						; size = 4
$T5 = -56						; size = 4
$T6 = -52						; size = 4
$T7 = -48						; size = 4
__Myfirst$ = -44					; size = 4
__Mylast$ = -40						; size = 4
__My_data$ = -36					; size = 4
__Newvec$ = -32						; size = 4
_this$ = -28						; size = 4
___formal$ = -24					; size = 1
__Overflow_is_possible$8 = -18				; size = 1
$T9 = -17						; size = 1
__$EHRec$ = -16						; size = 16
__Newcapacity$ = 8					; size = 4
?_Reallocate_exactly@?$vector@V?$basic_string@DU?$char_traits@D@std@@V?$allocator@D@2@@std@@V?$allocator@V?$basic_string@DU?$char_traits@D@std@@V?$allocator@D@2@@std@@@2@@std@@AAEXI@Z PROC ; std::vector<std::basic_string<char,std::char_traits<char>,std::allocator<char> >,std::allocator<std::basic_string<char,std::char_traits<char>,std::allocator<char> > > >::_Reallocate_exactly, COMDAT
; _this$ = ecx

; 1251 :     void _Reallocate_exactly(const size_type _Newcapacity) {

  00000	55		 push	 ebp
  00001	8b ec		 mov	 ebp, esp
  00003	6a ff		 push	 -1
  00005	68 00 00 00 00	 push	 __ehhandler$?_Reallocate_exactly@?$vector@V?$basic_string@DU?$char_traits@D@std@@V?$allocator@D@2@@std@@V?$allocator@V?$basic_string@DU?$char_traits@D@std@@V?$allocator@D@2@@std@@@2@@std@@AAEXI@Z
  0000a	64 a1 00 00 00
	00		 mov	 eax, DWORD PTR fs:0
  00010	50		 push	 eax
  00011	51		 push	 ecx
  00012	83 ec 40	 sub	 esp, 64			; 00000040H
  00015	53		 push	 ebx
  00016	56		 push	 esi
  00017	57		 push	 edi
  00018	a1 00 00 00 00	 mov	 eax, DWORD PTR ___security_cookie
  0001d	33 c5		 xor	 eax, ebp
  0001f	50		 push	 eax
  00020	8d 45 f4	 lea	 eax, DWORD PTR __$EHRec$[ebp+4]
  00023	64 a3 00 00 00
	00		 mov	 DWORD PTR fs:0, eax
  00029	89 65 f0	 mov	 DWORD PTR __$EHRec$[ebp], esp
  0002c	89 4d e4	 mov	 DWORD PTR _this$[ebp], ecx

; 1252 :         // set capacity to _Newcapacity (without geometric growth), provide strong guarantee
; 1253 :         auto& _My_data    = _Mypair._Myval2;

  0002f	8b 45 e4	 mov	 eax, DWORD PTR _this$[ebp]
  00032	89 45 dc	 mov	 DWORD PTR __My_data$[ebp], eax

; 1254 :         pointer& _Myfirst = _My_data._Myfirst;

  00035	8b 45 dc	 mov	 eax, DWORD PTR __My_data$[ebp]
  00038	89 45 d4	 mov	 DWORD PTR __Myfirst$[ebp], eax

; 1255 :         pointer& _Mylast  = _My_data._Mylast;

  0003b	8b 45 dc	 mov	 eax, DWORD PTR __My_data$[ebp]
  0003e	83 c0 04	 add	 eax, 4
  00041	89 45 d8	 mov	 DWORD PTR __Mylast$[ebp], eax

; 1256 : 
; 1257 :         const auto _Size = static_cast<size_type>(_Mylast - _Myfirst);

  00044	8b 45 d8	 mov	 eax, DWORD PTR __Mylast$[ebp]
  00047	8b 4d d4	 mov	 ecx, DWORD PTR __Myfirst$[ebp]
  0004a	8b 00		 mov	 eax, DWORD PTR [eax]
  0004c	2b 01		 sub	 eax, DWORD PTR [ecx]
  0004e	99		 cdq
  0004f	6a 18		 push	 24			; 00000018H
  00051	59		 pop	 ecx
  00052	f7 f9		 idiv	 ecx
  00054	89 45 b8	 mov	 DWORD PTR __Size$[ebp], eax

; 1733 :         return _Mypair._Get_first();

  00057	8b 45 e4	 mov	 eax, DWORD PTR _this$[ebp]
; File C:\Program Files (x86)\Microsoft Visual Studio\2019\Community\VC\Tools\MSVC\14.28.29333\include\xmemory

; 1347 :         return *this;

  0005a	89 45 d0	 mov	 DWORD PTR $T7[ebp], eax
; File C:\Program Files (x86)\Microsoft Visual Studio\2019\Community\VC\Tools\MSVC\14.28.29333\include\vector

; 1733 :         return _Mypair._Get_first();

  0005d	8b 45 d0	 mov	 eax, DWORD PTR $T7[ebp]
  00060	89 45 b4	 mov	 DWORD PTR $T3[ebp], eax
; File C:\Program Files (x86)\Microsoft Visual Studio\2019\Community\VC\Tools\MSVC\14.28.29333\include\xmemory

; 56   :     constexpr bool _Overflow_is_possible = _Ty_size > 1;

  00063	c6 45 ee 01	 mov	 BYTE PTR __Overflow_is_possible$8[ebp], 1

; 57   : 
; 58   :     if _CONSTEXPR_IF (_Overflow_is_possible) {
; 59   :         constexpr size_t _Max_possible = static_cast<size_t>(-1) / _Ty_size;

  00067	c7 45 b0 aa aa
	aa 0a		 mov	 DWORD PTR __Max_possible$2[ebp], 178956970 ; 0aaaaaaaH

; 60   :         if (_Count > _Max_possible) {

  0006e	81 7d 08 aa aa
	aa 0a		 cmp	 DWORD PTR __Newcapacity$[ebp], 178956970 ; 0aaaaaaaH
  00075	76 05		 jbe	 SHORT $LN17@Reallocate

; 61   :             _Throw_bad_array_new_length(); // multiply overflow

  00077	e8 00 00 00 00	 call	 ?_Throw_bad_array_new_length@std@@YAXXZ ; std::_Throw_bad_array_new_length
$LN17@Reallocate:

; 62   :         }
; 63   :     }
; 64   : 
; 65   :     return _Count * _Ty_size;

  0007c	6b 45 08 18	 imul	 eax, DWORD PTR __Newcapacity$[ebp], 24
  00080	89 45 cc	 mov	 DWORD PTR $T6[ebp], eax

; 814  :         return static_cast<_Ty*>(_Allocate<_New_alignof<_Ty>>(_Get_size_of_n<sizeof(_Ty)>(_Count)));

  00083	ff 75 cc	 push	 DWORD PTR $T6[ebp]
  00086	e8 00 00 00 00	 call	 ??$_Allocate@$07U_Default_allocate_traits@std@@$0A@@std@@YAPAXI@Z ; std::_Allocate<8,std::_Default_allocate_traits,0>
  0008b	59		 pop	 ecx
  0008c	89 45 e0	 mov	 DWORD PTR __Newvec$[ebp], eax
; File C:\Program Files (x86)\Microsoft Visual Studio\2019\Community\VC\Tools\MSVC\14.28.29333\include\vector

; 1261 :         _TRY_BEGIN

  0008f	83 65 fc 00	 and	 DWORD PTR __$EHRec$[ebp+12], 0

; 1262 :         _Umove_if_noexcept(_Myfirst, _Mylast, _Newvec);

  00093	8b 45 d8	 mov	 eax, DWORD PTR __Mylast$[ebp]
  00096	8b 00		 mov	 eax, DWORD PTR [eax]
  00098	89 45 c0	 mov	 DWORD PTR __Last$[ebp], eax
  0009b	8b 45 d4	 mov	 eax, DWORD PTR __Myfirst$[ebp]
  0009e	8b 00		 mov	 eax, DWORD PTR [eax]
  000a0	89 45 bc	 mov	 DWORD PTR __First$[ebp], eax

; 1607 :         _Umove_if_noexcept1(_First, _Last, _Dest,

  000a3	33 c0		 xor	 eax, eax
  000a5	88 45 ef	 mov	 BYTE PTR $T9[ebp], al
  000a8	8a 45 ef	 mov	 al, BYTE PTR $T9[ebp]
  000ab	88 45 e8	 mov	 BYTE PTR ___formal$[ebp], al

; 1733 :         return _Mypair._Get_first();

  000ae	8b 45 e4	 mov	 eax, DWORD PTR _this$[ebp]
; File C:\Program Files (x86)\Microsoft Visual Studio\2019\Community\VC\Tools\MSVC\14.28.29333\include\xmemory

; 1347 :         return *this;

  000b1	89 45 c8	 mov	 DWORD PTR $T5[ebp], eax
; File C:\Program Files (x86)\Microsoft Visual Studio\2019\Community\VC\Tools\MSVC\14.28.29333\include\vector

; 1733 :         return _Mypair._Get_first();

  000b4	8b 45 c8	 mov	 eax, DWORD PTR $T5[ebp]
  000b7	89 45 c4	 mov	 DWORD PTR $T4[ebp], eax

; 1597 :         _Uninitialized_move(_First, _Last, _Dest, _Getal());

  000ba	ff 75 c4	 push	 DWORD PTR $T4[ebp]
  000bd	ff 75 e0	 push	 DWORD PTR __Newvec$[ebp]
  000c0	ff 75 c0	 push	 DWORD PTR __Last$[ebp]
  000c3	ff 75 bc	 push	 DWORD PTR __First$[ebp]
  000c6	e8 00 00 00 00	 call	 ??$_Uninitialized_move@PAV?$basic_string@DU?$char_traits@D@std@@V?$allocator@D@2@@std@@V?$allocator@V?$basic_string@DU?$char_traits@D@std@@V?$allocator@D@2@@std@@@2@@std@@YAPAV?$basic_string@DU?$char_traits@D@std@@V?$allocator@D@2@@0@QAV10@0PAV10@AAV?$allocator@V?$basic_string@DU?$char_traits@D@std@@V?$allocator@D@2@@std@@@0@@Z ; std::_Uninitialized_move<std::basic_string<char,std::char_traits<char>,std::allocator<char> > *,std::allocator<std::basic_string<char,std::char_traits<char>,std::allocator<char> > > >
  000cb	83 c4 10	 add	 esp, 16			; 00000010H

; 1262 :         _Umove_if_noexcept(_Myfirst, _Mylast, _Newvec);

  000ce	eb 24		 jmp	 SHORT $LN4@Reallocate
__catch$?_Reallocate_exactly@?$vector@V?$basic_string@DU?$char_traits@D@std@@V?$allocator@D@2@@std@@V?$allocator@V?$basic_string@DU?$char_traits@D@std@@V?$allocator@D@2@@std@@@2@@std@@AAEXI@Z$0:

; 1263 :         _CATCH_ALL
; 1264 :         _Getal().deallocate(_Newvec, _Newcapacity);

  000d0	ff 75 08	 push	 DWORD PTR __Newcapacity$[ebp]
  000d3	ff 75 e0	 push	 DWORD PTR __Newvec$[ebp]
  000d6	8b 4d e4	 mov	 ecx, DWORD PTR _this$[ebp]
  000d9	e8 00 00 00 00	 call	 ?_Getal@?$vector@V?$basic_string@DU?$char_traits@D@std@@V?$allocator@D@2@@std@@V?$allocator@V?$basic_string@DU?$char_traits@D@std@@V?$allocator@D@2@@std@@@2@@std@@AAEAAV?$allocator@V?$basic_string@DU?$char_traits@D@std@@V?$allocator@D@2@@std@@@2@XZ ; std::vector<std::basic_string<char,std::char_traits<char>,std::allocator<char> >,std::allocator<std::basic_string<char,std::char_traits<char>,std::allocator<char> > > >::_Getal
  000de	8b c8		 mov	 ecx, eax
  000e0	e8 00 00 00 00	 call	 ?deallocate@?$allocator@V?$basic_string@DU?$char_traits@D@std@@V?$allocator@D@2@@std@@@std@@QAEXQAV?$basic_string@DU?$char_traits@D@std@@V?$allocator@D@2@@2@I@Z ; std::allocator<std::basic_string<char,std::char_traits<char>,std::allocator<char> > >::deallocate

; 1265 :         _RERAISE;

  000e5	6a 00		 push	 0
  000e7	6a 00		 push	 0
  000e9	e8 00 00 00 00	 call	 __CxxThrowException@8

; 1266 :         _CATCH_END

  000ee	b8 00 00 00 00	 mov	 eax, $LN7@Reallocate
  000f3	c3		 ret	 0
$LN4@Reallocate:
  000f4	83 4d fc ff	 or	 DWORD PTR __$EHRec$[ebp+12], -1
  000f8	eb 04		 jmp	 SHORT __tryend$?_Reallocate_exactly@?$vector@V?$basic_string@DU?$char_traits@D@std@@V?$allocator@D@2@@std@@V?$allocator@V?$basic_string@DU?$char_traits@D@std@@V?$allocator@D@2@@std@@@2@@std@@AAEXI@Z$1
$LN7@Reallocate:
; File C:\Program Files (x86)\Microsoft Visual Studio\2019\Community\VC\Tools\MSVC\14.28.29333\include\xmemory
  000fa	83 4d fc ff	 or	 DWORD PTR __$EHRec$[ebp+12], -1
__tryend$?_Reallocate_exactly@?$vector@V?$basic_string@DU?$char_traits@D@std@@V?$allocator@D@2@@std@@V?$allocator@V?$basic_string@DU?$char_traits@D@std@@V?$allocator@D@2@@std@@@2@@std@@AAEXI@Z$1:
; File C:\Program Files (x86)\Microsoft Visual Studio\2019\Community\VC\Tools\MSVC\14.28.29333\include\vector

; 1267 : 
; 1268 :         _Change_array(_Newvec, _Size, _Newcapacity);

  000fe	ff 75 08	 push	 DWORD PTR __Newcapacity$[ebp]
  00101	ff 75 b8	 push	 DWORD PTR __Size$[ebp]
  00104	ff 75 e0	 push	 DWORD PTR __Newvec$[ebp]
  00107	8b 4d e4	 mov	 ecx, DWORD PTR _this$[ebp]
  0010a	e8 00 00 00 00	 call	 ?_Change_array@?$vector@V?$basic_string@DU?$char_traits@D@std@@V?$allocator@D@2@@std@@V?$allocator@V?$basic_string@DU?$char_traits@D@std@@V?$allocator@D@2@@std@@@2@@std@@AAEXQAV?$basic_string@DU?$char_traits@D@std@@V?$allocator@D@2@@2@II@Z ; std::vector<std::basic_string<char,std::char_traits<char>,std::allocator<char> >,std::allocator<std::basic_string<char,std::char_traits<char>,std::allocator<char> > > >::_Change_array
$LN20@Reallocate:

; 1269 :     }

  0010f	8b 4d f4	 mov	 ecx, DWORD PTR __$EHRec$[ebp+4]
  00112	64 89 0d 00 00
	00 00		 mov	 DWORD PTR fs:0, ecx
  00119	59		 pop	 ecx
  0011a	5f		 pop	 edi
  0011b	5e		 pop	 esi
  0011c	5b		 pop	 ebx
  0011d	c9		 leave
  0011e	c2 04 00	 ret	 4
  00121	cc		 int	 3
  00122	cc		 int	 3
  00123	cc		 int	 3
  00124	cc		 int	 3
  00125	cc		 int	 3
_TEXT	ENDS
;	COMDAT text$x
text$x	SEGMENT
__ehhandler$?_Reallocate_exactly@?$vector@V?$basic_string@DU?$char_traits@D@std@@V?$allocator@D@2@@std@@V?$allocator@V?$basic_string@DU?$char_traits@D@std@@V?$allocator@D@2@@std@@@2@@std@@AAEXI@Z:
  00000	90		 npad	 1
  00001	90		 npad	 1
  00002	8b 54 24 08	 mov	 edx, DWORD PTR [esp+8]
  00006	8d 42 0c	 lea	 eax, DWORD PTR [edx+12]
  00009	8b 4a ac	 mov	 ecx, DWORD PTR [edx-84]
  0000c	33 c8		 xor	 ecx, eax
  0000e	e8 00 00 00 00	 call	 @__security_check_cookie@4
  00013	b8 00 00 00 00	 mov	 eax, OFFSET __ehfuncinfo$?_Reallocate_exactly@?$vector@V?$basic_string@DU?$char_traits@D@std@@V?$allocator@D@2@@std@@V?$allocator@V?$basic_string@DU?$char_traits@D@std@@V?$allocator@D@2@@std@@@2@@std@@AAEXI@Z
  00018	e9 00 00 00 00	 jmp	 ___CxxFrameHandler3
text$x	ENDS
?_Reallocate_exactly@?$vector@V?$basic_string@DU?$char_traits@D@std@@V?$allocator@D@2@@std@@V?$allocator@V?$basic_string@DU?$char_traits@D@std@@V?$allocator@D@2@@std@@@2@@std@@AAEXI@Z ENDP ; std::vector<std::basic_string<char,std::char_traits<char>,std::allocator<char> >,std::allocator<std::basic_string<char,std::char_traits<char>,std::allocator<char> > > >::_Reallocate_exactly
; Function compile flags: /Odspy
; File C:\Program Files (x86)\Microsoft Visual Studio\2019\Community\VC\Tools\MSVC\14.28.29333\include\xstring
;	COMDAT ??$?HDU?$char_traits@D@std@@V?$allocator@D@1@@std@@YA?AV?$basic_string@DU?$char_traits@D@std@@V?$allocator@D@2@@0@ABV10@0@Z
_TEXT	SEGMENT
$T1 = -28						; size = 1
tv86 = -24						; size = 4
tv89 = -20						; size = 4
$T2 = -16						; size = 4
__Left_size$ = -12					; size = 4
__Right_size$ = -8					; size = 4
$T3 = -2						; size = 1
$T4 = -1						; size = 1
___$ReturnUdt$ = 8					; size = 4
__Left$ = 12						; size = 4
__Right$ = 16						; size = 4
??$?HDU?$char_traits@D@std@@V?$allocator@D@1@@std@@YA?AV?$basic_string@DU?$char_traits@D@std@@V?$allocator@D@2@@0@ABV10@0@Z PROC ; std::operator+<char,std::char_traits<char>,std::allocator<char> >, COMDAT

; 4444 :     const basic_string<_Elem, _Traits, _Alloc>& _Left, const basic_string<_Elem, _Traits, _Alloc>& _Right) {

  00000	55		 push	 ebp
  00001	8b ec		 mov	 ebp, esp
  00003	83 ec 1c	 sub	 esp, 28			; 0000001cH
  00006	83 65 f0 00	 and	 DWORD PTR $T2[ebp], 0

; 3770 :         return _Mypair._Myval2._Mysize;

  0000a	8b 45 0c	 mov	 eax, DWORD PTR __Left$[ebp]
  0000d	8b 40 10	 mov	 eax, DWORD PTR [eax+16]
  00010	89 45 f4	 mov	 DWORD PTR __Left_size$[ebp], eax
  00013	8b 45 10	 mov	 eax, DWORD PTR __Right$[ebp]
  00016	8b 40 10	 mov	 eax, DWORD PTR [eax+16]
  00019	89 45 f8	 mov	 DWORD PTR __Right_size$[ebp], eax

; 4445 :     const auto _Left_size  = _Left.size();
; 4446 :     const auto _Right_size = _Right.size();
; 4447 :     if (_Left.max_size() - _Left_size < _Right_size) {

  0001c	8b 4d 0c	 mov	 ecx, DWORD PTR __Left$[ebp]
  0001f	e8 00 00 00 00	 call	 ?max_size@?$basic_string@DU?$char_traits@D@std@@V?$allocator@D@2@@std@@QBEIXZ ; std::basic_string<char,std::char_traits<char>,std::allocator<char> >::max_size
  00024	2b 45 f4	 sub	 eax, DWORD PTR __Left_size$[ebp]
  00027	3b 45 f8	 cmp	 eax, DWORD PTR __Right_size$[ebp]
  0002a	73 05		 jae	 SHORT $LN2@operator

; 4448 :         _Xlen_string();

  0002c	e8 00 00 00 00	 call	 ?_Xlen_string@std@@YAXXZ ; std::_Xlen_string
$LN2@operator:

; 4449 :     }
; 4450 : 
; 4451 :     return {_String_constructor_concat_tag{}, _Left, _Left.c_str(), _Left_size, _Right.c_str(), _Right_size};

  00031	8a 45 fe	 mov	 al, BYTE PTR $T3[ebp]
  00034	88 45 ff	 mov	 BYTE PTR $T4[ebp], al
  00037	8a 45 ff	 mov	 al, BYTE PTR $T4[ebp]
  0003a	88 45 e4	 mov	 BYTE PTR $T1[ebp], al
  0003d	8b 4d 0c	 mov	 ecx, DWORD PTR __Left$[ebp]
  00040	e8 00 00 00 00	 call	 ?c_str@?$basic_string@DU?$char_traits@D@std@@V?$allocator@D@2@@std@@QBEPBDXZ ; std::basic_string<char,std::char_traits<char>,std::allocator<char> >::c_str
  00045	89 45 e8	 mov	 DWORD PTR tv86[ebp], eax
  00048	8b 4d 10	 mov	 ecx, DWORD PTR __Right$[ebp]
  0004b	e8 00 00 00 00	 call	 ?c_str@?$basic_string@DU?$char_traits@D@std@@V?$allocator@D@2@@std@@QBEPBDXZ ; std::basic_string<char,std::char_traits<char>,std::allocator<char> >::c_str
  00050	89 45 ec	 mov	 DWORD PTR tv89[ebp], eax
  00053	ff 75 f8	 push	 DWORD PTR __Right_size$[ebp]
  00056	ff 75 ec	 push	 DWORD PTR tv89[ebp]
  00059	ff 75 f4	 push	 DWORD PTR __Left_size$[ebp]
  0005c	ff 75 e8	 push	 DWORD PTR tv86[ebp]
  0005f	ff 75 0c	 push	 DWORD PTR __Left$[ebp]
  00062	ff 75 e4	 push	 DWORD PTR $T1[ebp]
  00065	8b 4d 08	 mov	 ecx, DWORD PTR ___$ReturnUdt$[ebp]
  00068	e8 00 00 00 00	 call	 ??0?$basic_string@DU?$char_traits@D@std@@V?$allocator@D@2@@std@@QAE@U_String_constructor_concat_tag@1@ABV01@QBDI2I@Z ; std::basic_string<char,std::char_traits<char>,std::allocator<char> >::basic_string<char,std::char_traits<char>,std::allocator<char> >
  0006d	8b 45 f0	 mov	 eax, DWORD PTR $T2[ebp]
  00070	83 c8 01	 or	 eax, 1
  00073	89 45 f0	 mov	 DWORD PTR $T2[ebp], eax
  00076	8b 45 08	 mov	 eax, DWORD PTR ___$ReturnUdt$[ebp]
$LN3@operator:

; 4452 : }

  00079	c9		 leave
  0007a	c3		 ret	 0
??$?HDU?$char_traits@D@std@@V?$allocator@D@1@@std@@YA?AV?$basic_string@DU?$char_traits@D@std@@V?$allocator@D@2@@0@ABV10@0@Z ENDP ; std::operator+<char,std::char_traits<char>,std::allocator<char> >
_TEXT	ENDS
; Function compile flags: /Odspy
;	COMDAT ??__F?ms_strDirectoryDeque@CDirRemover@@1V?$deque@V?$basic_string@DU?$char_traits@D@std@@V?$allocator@D@2@@std@@V?$allocator@V?$basic_string@DU?$char_traits@D@std@@V?$allocator@D@2@@std@@@2@@std@@A@@YAXXZ
text$yd	SEGMENT
??__F?ms_strDirectoryDeque@CDirRemover@@1V?$deque@V?$basic_string@DU?$char_traits@D@std@@V?$allocator@D@2@@std@@V?$allocator@V?$basic_string@DU?$char_traits@D@std@@V?$allocator@D@2@@std@@@2@@std@@A@@YAXXZ PROC ; `dynamic atexit destructor for 'CDirRemover::ms_strDirectoryDeque'', COMDAT
  00000	55		 push	 ebp
  00001	8b ec		 mov	 ebp, esp
  00003	b9 00 00 00 00	 mov	 ecx, OFFSET ?ms_strDirectoryDeque@CDirRemover@@1V?$deque@V?$basic_string@DU?$char_traits@D@std@@V?$allocator@D@2@@std@@V?$allocator@V?$basic_string@DU?$char_traits@D@std@@V?$allocator@D@2@@std@@@2@@std@@A ; CDirRemover::ms_strDirectoryDeque
  00008	e8 00 00 00 00	 call	 ??1?$deque@V?$basic_string@DU?$char_traits@D@std@@V?$allocator@D@2@@std@@V?$allocator@V?$basic_string@DU?$char_traits@D@std@@V?$allocator@D@2@@std@@@2@@std@@QAE@XZ ; std::deque<std::basic_string<char,std::char_traits<char>,std::allocator<char> >,std::allocator<std::basic_string<char,std::char_traits<char>,std::allocator<char> > > >::~deque<std::basic_string<char,std::char_traits<char>,std::allocator<char> >,std::allocator<std::basic_string<char,std::char_traits<char>,std::allocator<char> > > >
  0000d	5d		 pop	 ebp
  0000e	c3		 ret	 0
??__F?ms_strDirectoryDeque@CDirRemover@@1V?$deque@V?$basic_string@DU?$char_traits@D@std@@V?$allocator@D@2@@std@@V?$allocator@V?$basic_string@DU?$char_traits@D@std@@V?$allocator@D@2@@std@@@2@@std@@A@@YAXXZ ENDP ; `dynamic atexit destructor for 'CDirRemover::ms_strDirectoryDeque''
text$yd	ENDS
; Function compile flags: /Odspy
; File D:\Metin2 Server Files\mainline\SRC_2014\Metin2Client\EterBase\Utils.cpp
;	COMDAT ??__E?ms_strDirectoryDeque@CDirRemover@@1V?$deque@V?$basic_string@DU?$char_traits@D@std@@V?$allocator@D@2@@std@@V?$allocator@V?$basic_string@DU?$char_traits@D@std@@V?$allocator@D@2@@std@@@2@@std@@A@@YAXXZ
text$di	SEGMENT
??__E?ms_strDirectoryDeque@CDirRemover@@1V?$deque@V?$basic_string@DU?$char_traits@D@std@@V?$allocator@D@2@@std@@V?$allocator@V?$basic_string@DU?$char_traits@D@std@@V?$allocator@D@2@@std@@@2@@std@@A@@YAXXZ PROC ; `dynamic initializer for 'CDirRemover::ms_strDirectoryDeque'', COMDAT

; 512  : std::deque<std::string> CDirRemover::ms_strDirectoryDeque;

  00000	55		 push	 ebp
  00001	8b ec		 mov	 ebp, esp
  00003	b9 00 00 00 00	 mov	 ecx, OFFSET ?ms_strDirectoryDeque@CDirRemover@@1V?$deque@V?$basic_string@DU?$char_traits@D@std@@V?$allocator@D@2@@std@@V?$allocator@V?$basic_string@DU?$char_traits@D@std@@V?$allocator@D@2@@std@@@2@@std@@A ; CDirRemover::ms_strDirectoryDeque
  00008	e8 00 00 00 00	 call	 ??0?$deque@V?$basic_string@DU?$char_traits@D@std@@V?$allocator@D@2@@std@@V?$allocator@V?$basic_string@DU?$char_traits@D@std@@V?$allocator@D@2@@std@@@2@@std@@QAE@XZ ; std::deque<std::basic_string<char,std::char_traits<char>,std::allocator<char> >,std::allocator<std::basic_string<char,std::char_traits<char>,std::allocator<char> > > >::deque<std::basic_string<char,std::char_traits<char>,std::allocator<char> >,std::allocator<std::basic_string<char,std::char_traits<char>,std::allocator<char> > > >
  0000d	68 00 00 00 00	 push	 OFFSET ??__F?ms_strDirectoryDeque@CDirRemover@@1V?$deque@V?$basic_string@DU?$char_traits@D@std@@V?$allocator@D@2@@std@@V?$allocator@V?$basic_string@DU?$char_traits@D@std@@V?$allocator@D@2@@std@@@2@@std@@A@@YAXXZ ; `dynamic atexit destructor for 'CDirRemover::ms_strDirectoryDeque''
  00012	e8 00 00 00 00	 call	 _atexit
  00017	59		 pop	 ecx
  00018	5d		 pop	 ebp
  00019	c3		 ret	 0
??__E?ms_strDirectoryDeque@CDirRemover@@1V?$deque@V?$basic_string@DU?$char_traits@D@std@@V?$allocator@D@2@@std@@V?$allocator@V?$basic_string@DU?$char_traits@D@std@@V?$allocator@D@2@@std@@@2@@std@@A@@YAXXZ ENDP ; `dynamic initializer for 'CDirRemover::ms_strDirectoryDeque''
text$di	ENDS
; Function compile flags: /Odspy
; File C:\Program Files (x86)\Microsoft Visual Studio\2019\Community\VC\Tools\MSVC\14.28.29333\include\deque
; File C:\Program Files (x86)\Microsoft Visual Studio\2019\Community\VC\Tools\MSVC\14.28.29333\include\xmemory
; File C:\Program Files (x86)\Microsoft Visual Studio\2019\Community\VC\Tools\MSVC\14.28.29333\include\deque
;	COMDAT ??D?$_Deque_const_iterator@V?$_Deque_val@U?$_Deque_simple_types@V?$basic_string@DU?$char_traits@D@std@@V?$allocator@D@2@@std@@@std@@@std@@@std@@QBEABV?$basic_string@DU?$char_traits@D@std@@V?$allocator@D@2@@1@XZ
_TEXT	SEGMENT
__Block$ = -24						; size = 4
__Off$ = -20						; size = 4
__Off$ = -16						; size = 4
__Mycont$ = -12						; size = 4
tv89 = -8						; size = 4
_this$ = -4						; size = 4
??D?$_Deque_const_iterator@V?$_Deque_val@U?$_Deque_simple_types@V?$basic_string@DU?$char_traits@D@std@@V?$allocator@D@2@@std@@@std@@@std@@@std@@QBEABV?$basic_string@DU?$char_traits@D@std@@V?$allocator@D@2@@1@XZ PROC ; std::_Deque_const_iterator<std::_Deque_val<std::_Deque_simple_types<std::basic_string<char,std::char_traits<char>,std::allocator<char> > > > >::operator*, COMDAT
; _this$ = ecx

; 260  :     _NODISCARD reference operator*() const noexcept {

  00000	55		 push	 ebp
  00001	8b ec		 mov	 ebp, esp
  00003	83 ec 18	 sub	 esp, 24			; 00000018H
  00006	89 4d fc	 mov	 DWORD PTR _this$[ebp], ecx
; File C:\Program Files (x86)\Microsoft Visual Studio\2019\Community\VC\Tools\MSVC\14.28.29333\include\xmemory

; 1185 :         return _Myproxy ? _Myproxy->_Mycont : nullptr;

  00009	8b 45 fc	 mov	 eax, DWORD PTR _this$[ebp]
  0000c	83 38 00	 cmp	 DWORD PTR [eax], 0
  0000f	74 0c		 je	 SHORT $LN5@operator
  00011	8b 45 fc	 mov	 eax, DWORD PTR _this$[ebp]
  00014	8b 00		 mov	 eax, DWORD PTR [eax]
  00016	8b 00		 mov	 eax, DWORD PTR [eax]
  00018	89 45 f8	 mov	 DWORD PTR tv89[ebp], eax
  0001b	eb 04		 jmp	 SHORT $LN6@operator
$LN5@operator:
  0001d	83 65 f8 00	 and	 DWORD PTR tv89[ebp], 0
$LN6@operator:
  00021	8b 45 f8	 mov	 eax, DWORD PTR tv89[ebp]
  00024	89 45 f4	 mov	 DWORD PTR __Mycont$[ebp], eax
; File C:\Program Files (x86)\Microsoft Visual Studio\2019\Community\VC\Tools\MSVC\14.28.29333\include\deque

; 268  :         _Size_type _Block = _Mycont->_Getblock(_Myoff);

  00027	8b 45 fc	 mov	 eax, DWORD PTR _this$[ebp]
  0002a	8b 40 08	 mov	 eax, DWORD PTR [eax+8]
  0002d	89 45 f0	 mov	 DWORD PTR __Off$[ebp], eax

; 548  :         return (_Off / _DEQUESIZ) & (_Mapsize - 1);

  00030	8b 45 f4	 mov	 eax, DWORD PTR __Mycont$[ebp]
  00033	8b 40 08	 mov	 eax, DWORD PTR [eax+8]
  00036	48		 dec	 eax
  00037	23 45 f0	 and	 eax, DWORD PTR __Off$[ebp]
  0003a	89 45 e8	 mov	 DWORD PTR __Block$[ebp], eax

; 269  :         _Size_type _Off   = _Myoff % _DEQUESIZ;

  0003d	8b 45 fc	 mov	 eax, DWORD PTR _this$[ebp]
  00040	8b 40 08	 mov	 eax, DWORD PTR [eax+8]
  00043	33 d2		 xor	 edx, edx
  00045	33 c9		 xor	 ecx, ecx
  00047	41		 inc	 ecx
  00048	f7 f1		 div	 ecx
  0004a	89 55 ec	 mov	 DWORD PTR __Off$[ebp], edx

; 270  :         return _Mycont->_Map[_Block][_Off];

  0004d	8b 45 f4	 mov	 eax, DWORD PTR __Mycont$[ebp]
  00050	8b 40 04	 mov	 eax, DWORD PTR [eax+4]
  00053	6b 4d ec 18	 imul	 ecx, DWORD PTR __Off$[ebp], 24
  00057	8b 55 e8	 mov	 edx, DWORD PTR __Block$[ebp]
  0005a	03 0c 90	 add	 ecx, DWORD PTR [eax+edx*4]
  0005d	8b c1		 mov	 eax, ecx

; 271  :     }

  0005f	c9		 leave
  00060	c3		 ret	 0
??D?$_Deque_const_iterator@V?$_Deque_val@U?$_Deque_simple_types@V?$basic_string@DU?$char_traits@D@std@@V?$allocator@D@2@@std@@@std@@@std@@@std@@QBEABV?$basic_string@DU?$char_traits@D@std@@V?$allocator@D@2@@1@XZ ENDP ; std::_Deque_const_iterator<std::_Deque_val<std::_Deque_simple_types<std::basic_string<char,std::char_traits<char>,std::allocator<char> > > > >::operator*
_TEXT	ENDS
; Function compile flags: /Odspy
; File C:\Program Files (x86)\Microsoft Visual Studio\2019\Community\VC\Tools\MSVC\14.28.29333\include\deque
; File C:\Program Files (x86)\Microsoft Visual Studio\2019\Community\VC\Tools\MSVC\14.28.29333\include\xmemory
; File C:\Program Files (x86)\Microsoft Visual Studio\2019\Community\VC\Tools\MSVC\14.28.29333\include\deque
;	COMDAT ??0?$_Deque_val@U?$_Deque_simple_types@V?$basic_string@DU?$char_traits@D@std@@V?$allocator@D@2@@std@@@std@@@std@@QAE@XZ
_TEXT	SEGMENT
_this$ = -4						; size = 4
??0?$_Deque_val@U?$_Deque_simple_types@V?$basic_string@DU?$char_traits@D@std@@V?$allocator@D@2@@std@@@std@@@std@@QAE@XZ PROC ; std::_Deque_val<std::_Deque_simple_types<std::basic_string<char,std::char_traits<char>,std::allocator<char> > > >::_Deque_val<std::_Deque_simple_types<std::basic_string<char,std::char_traits<char>,std::allocator<char> > > >, COMDAT
; _this$ = ecx

; 544  :     _Deque_val() noexcept : _Map(), _Mapsize(0), _Myoff(0), _Mysize(0) {}

  00000	55		 push	 ebp
  00001	8b ec		 mov	 ebp, esp
  00003	51		 push	 ecx
  00004	89 4d fc	 mov	 DWORD PTR _this$[ebp], ecx
; File C:\Program Files (x86)\Microsoft Visual Studio\2019\Community\VC\Tools\MSVC\14.28.29333\include\xmemory

; 1097 :     _Container_base12() noexcept : _Myproxy(nullptr) {}

  00007	8b 45 fc	 mov	 eax, DWORD PTR _this$[ebp]
  0000a	83 20 00	 and	 DWORD PTR [eax], 0
; File C:\Program Files (x86)\Microsoft Visual Studio\2019\Community\VC\Tools\MSVC\14.28.29333\include\deque

; 544  :     _Deque_val() noexcept : _Map(), _Mapsize(0), _Myoff(0), _Mysize(0) {}

  0000d	8b 45 fc	 mov	 eax, DWORD PTR _this$[ebp]
  00010	83 60 04 00	 and	 DWORD PTR [eax+4], 0
  00014	8b 45 fc	 mov	 eax, DWORD PTR _this$[ebp]
  00017	83 60 08 00	 and	 DWORD PTR [eax+8], 0
  0001b	8b 45 fc	 mov	 eax, DWORD PTR _this$[ebp]
  0001e	83 60 0c 00	 and	 DWORD PTR [eax+12], 0
  00022	8b 45 fc	 mov	 eax, DWORD PTR _this$[ebp]
  00025	83 60 10 00	 and	 DWORD PTR [eax+16], 0
  00029	8b 45 fc	 mov	 eax, DWORD PTR _this$[ebp]
  0002c	c9		 leave
  0002d	c3		 ret	 0
??0?$_Deque_val@U?$_Deque_simple_types@V?$basic_string@DU?$char_traits@D@std@@V?$allocator@D@2@@std@@@std@@@std@@QAE@XZ ENDP ; std::_Deque_val<std::_Deque_simple_types<std::basic_string<char,std::char_traits<char>,std::allocator<char> > > >::_Deque_val<std::_Deque_simple_types<std::basic_string<char,std::char_traits<char>,std::allocator<char> > > >
_TEXT	ENDS
; Function compile flags: /Odspy
; File C:\Program Files (x86)\Microsoft Visual Studio\2019\Community\VC\Tools\MSVC\14.28.29333\include\deque
; File C:\Program Files (x86)\Microsoft Visual Studio\2019\Community\VC\Tools\MSVC\14.28.29333\include\xmemory
; File C:\Program Files (x86)\Microsoft Visual Studio\2019\Community\VC\Tools\MSVC\14.28.29333\include\deque
; File C:\Program Files (x86)\Microsoft Visual Studio\2019\Community\VC\Tools\MSVC\14.28.29333\include\xmemory
; File C:\Program Files (x86)\Microsoft Visual Studio\2019\Community\VC\Tools\MSVC\14.28.29333\include\deque
; File C:\Program Files (x86)\Microsoft Visual Studio\2019\Community\VC\Tools\MSVC\14.28.29333\include\xmemory
; File C:\Program Files (x86)\Microsoft Visual Studio\2019\Community\VC\Tools\MSVC\14.28.29333\include\deque
; File C:\Program Files (x86)\Microsoft Visual Studio\2019\Community\VC\Tools\MSVC\14.28.29333\include\xmemory
; File C:\Program Files (x86)\Microsoft Visual Studio\2019\Community\VC\Tools\MSVC\14.28.29333\include\deque
;	COMDAT ?_Tidy@?$deque@V?$basic_string@DU?$char_traits@D@std@@V?$allocator@D@2@@std@@V?$allocator@V?$basic_string@DU?$char_traits@D@std@@V?$allocator@D@2@@std@@@2@@std@@AAEXXZ
_TEXT	SEGMENT
$T1 = -128						; size = 4
$T2 = -124						; size = 4
$T3 = -120						; size = 4
$T4 = -116						; size = 4
$T5 = -112						; size = 4
$T6 = -108						; size = 4
$T7 = -104						; size = 4
__Ptr$ = -100						; size = 4
__Count$ = -96						; size = 4
$T8 = -92						; size = 4
$T9 = -88						; size = 4
$T10 = -84						; size = 4
$T11 = -80						; size = 4
$T12 = -76						; size = 4
$T13 = -72						; size = 4
$T14 = -68						; size = 4
$T15 = -64						; size = 4
__Ptr$ = -60						; size = 4
$T16 = -56						; size = 4
$T17 = -52						; size = 4
$T18 = -48						; size = 4
$T19 = -44						; size = 4
$T20 = -40						; size = 4
$T21 = -36						; size = 4
$T22 = -32						; size = 4
$T23 = -28						; size = 4
$T24 = -24						; size = 4
$T25 = -20						; size = 4
tv149 = -16						; size = 4
__Block$26 = -12					; size = 4
_this$ = -8						; size = 4
$T27 = -1						; size = 1
?_Tidy@?$deque@V?$basic_string@DU?$char_traits@D@std@@V?$allocator@D@2@@std@@V?$allocator@V?$basic_string@DU?$char_traits@D@std@@V?$allocator@D@2@@std@@@2@@std@@AAEXXZ PROC ; std::deque<std::basic_string<char,std::char_traits<char>,std::allocator<char> >,std::allocator<std::basic_string<char,std::char_traits<char>,std::allocator<char> > > >::_Tidy, COMDAT
; _this$ = ecx

; 1469 :     void _Tidy() noexcept { // free all storage

  00000	55		 push	 ebp
  00001	8b ec		 mov	 ebp, esp
  00003	81 ec 80 00 00
	00		 sub	 esp, 128		; 00000080H
  00009	89 4d f8	 mov	 DWORD PTR _this$[ebp], ecx

; 1530 :         return _Mypair._Myval2;

  0000c	8b 45 f8	 mov	 eax, DWORD PTR _this$[ebp]
  0000f	89 45 88	 mov	 DWORD PTR $T3[ebp], eax

; 1522 :         return _Mypair._Get_first();

  00012	8b 45 f8	 mov	 eax, DWORD PTR _this$[ebp]
; File C:\Program Files (x86)\Microsoft Visual Studio\2019\Community\VC\Tools\MSVC\14.28.29333\include\xmemory

; 1347 :         return *this;

  00015	89 45 ec	 mov	 DWORD PTR $T25[ebp], eax
; File C:\Program Files (x86)\Microsoft Visual Studio\2019\Community\VC\Tools\MSVC\14.28.29333\include\deque

; 1522 :         return _Mypair._Get_first();

  00018	8b 45 ec	 mov	 eax, DWORD PTR $T25[ebp]
  0001b	89 45 84	 mov	 DWORD PTR $T2[ebp], eax
$LN2@Tidy:

; 1534 :         return _Mypair._Myval2;

  0001e	8b 45 f8	 mov	 eax, DWORD PTR _this$[ebp]
  00021	89 45 e8	 mov	 DWORD PTR $T24[ebp], eax

; 1566 :         return _Get_data()._Mysize;

  00024	8b 45 e8	 mov	 eax, DWORD PTR $T24[ebp]
  00027	83 c0 10	 add	 eax, 16			; 00000010H
  0002a	89 45 e4	 mov	 DWORD PTR $T23[ebp], eax

; 1010 :         return _Mysize() == 0;

  0002d	8b 45 e4	 mov	 eax, DWORD PTR $T23[ebp]
  00030	83 38 00	 cmp	 DWORD PTR [eax], 0
  00033	75 09		 jne	 SHORT $LN30@Tidy
  00035	c7 45 f0 01 00
	00 00		 mov	 DWORD PTR tv149[ebp], 1
  0003c	eb 04		 jmp	 SHORT $LN31@Tidy
$LN30@Tidy:
  0003e	83 65 f0 00	 and	 DWORD PTR tv149[ebp], 0
$LN31@Tidy:
  00042	8a 45 f0	 mov	 al, BYTE PTR tv149[ebp]
  00045	88 45 ff	 mov	 BYTE PTR $T27[ebp], al

; 1470 :         _Orphan_all();
; 1471 : 
; 1472 :         _Alpty _Almap(_Getal());
; 1473 :         while (!empty()) {

  00048	0f b6 45 ff	 movzx	 eax, BYTE PTR $T27[ebp]
  0004c	85 c0		 test	 eax, eax
  0004e	75 0a		 jne	 SHORT $LN3@Tidy

; 1474 :             pop_back();

  00050	8b 4d f8	 mov	 ecx, DWORD PTR _this$[ebp]
  00053	e8 00 00 00 00	 call	 ?pop_back@?$deque@V?$basic_string@DU?$char_traits@D@std@@V?$allocator@D@2@@std@@V?$allocator@V?$basic_string@DU?$char_traits@D@std@@V?$allocator@D@2@@std@@@2@@std@@QAEXXZ ; std::deque<std::basic_string<char,std::char_traits<char>,std::allocator<char> >,std::allocator<std::basic_string<char,std::char_traits<char>,std::allocator<char> > > >::pop_back

; 1475 :         }

  00058	eb c4		 jmp	 SHORT $LN2@Tidy
$LN3@Tidy:

; 1530 :         return _Mypair._Myval2;

  0005a	8b 45 f8	 mov	 eax, DWORD PTR _this$[ebp]
  0005d	89 45 e0	 mov	 DWORD PTR $T22[ebp], eax

; 1546 :         return _Get_data()._Mapsize;

  00060	8b 45 e0	 mov	 eax, DWORD PTR $T22[ebp]
  00063	83 c0 08	 add	 eax, 8
  00066	89 45 dc	 mov	 DWORD PTR $T21[ebp], eax

; 1476 : 
; 1477 :         for (size_type _Block = _Mapsize(); 0 < _Block;) { // free storage for a block and destroy pointer

  00069	8b 45 dc	 mov	 eax, DWORD PTR $T21[ebp]
  0006c	8b 00		 mov	 eax, DWORD PTR [eax]
  0006e	89 45 f4	 mov	 DWORD PTR __Block$26[ebp], eax
$LN6@Tidy:
  00071	83 7d f4 00	 cmp	 DWORD PTR __Block$26[ebp], 0
  00075	0f 86 84 00 00
	00		 jbe	 $LN5@Tidy

; 1478 :             if (_Map()[--_Block]) { // free block and destroy its pointer

  0007b	8b 45 f4	 mov	 eax, DWORD PTR __Block$26[ebp]
  0007e	48		 dec	 eax
  0007f	89 45 f4	 mov	 DWORD PTR __Block$26[ebp], eax

; 1530 :         return _Mypair._Myval2;

  00082	8b 45 f8	 mov	 eax, DWORD PTR _this$[ebp]
  00085	89 45 d8	 mov	 DWORD PTR $T20[ebp], eax

; 1538 :         return _Get_data()._Map;

  00088	8b 45 d8	 mov	 eax, DWORD PTR $T20[ebp]
  0008b	83 c0 04	 add	 eax, 4
  0008e	89 45 d4	 mov	 DWORD PTR $T19[ebp], eax

; 1478 :             if (_Map()[--_Block]) { // free block and destroy its pointer

  00091	8b 45 d4	 mov	 eax, DWORD PTR $T19[ebp]
  00094	8b 00		 mov	 eax, DWORD PTR [eax]
  00096	8b 4d f4	 mov	 ecx, DWORD PTR __Block$26[ebp]
  00099	83 3c 88 00	 cmp	 DWORD PTR [eax+ecx*4], 0
  0009d	74 5b		 je	 SHORT $LN7@Tidy

; 1530 :         return _Mypair._Myval2;

  0009f	8b 45 f8	 mov	 eax, DWORD PTR _this$[ebp]
  000a2	89 45 d0	 mov	 DWORD PTR $T18[ebp], eax

; 1538 :         return _Get_data()._Map;

  000a5	8b 45 d0	 mov	 eax, DWORD PTR $T18[ebp]
  000a8	83 c0 04	 add	 eax, 4
  000ab	89 45 c8	 mov	 DWORD PTR $T16[ebp], eax

; 1522 :         return _Mypair._Get_first();

  000ae	8b 45 f8	 mov	 eax, DWORD PTR _this$[ebp]
; File C:\Program Files (x86)\Microsoft Visual Studio\2019\Community\VC\Tools\MSVC\14.28.29333\include\xmemory

; 1347 :         return *this;

  000b1	89 45 cc	 mov	 DWORD PTR $T17[ebp], eax
; File C:\Program Files (x86)\Microsoft Visual Studio\2019\Community\VC\Tools\MSVC\14.28.29333\include\deque

; 1522 :         return _Mypair._Get_first();

  000b4	8b 45 cc	 mov	 eax, DWORD PTR $T17[ebp]
  000b7	89 45 80	 mov	 DWORD PTR $T1[ebp], eax

; 1479 :                 _Getal().deallocate(_Map()[_Block], _DEQUESIZ);

  000ba	8b 45 c8	 mov	 eax, DWORD PTR $T16[ebp]
  000bd	8b 00		 mov	 eax, DWORD PTR [eax]
  000bf	8b 4d f4	 mov	 ecx, DWORD PTR __Block$26[ebp]
  000c2	8b 04 88	 mov	 eax, DWORD PTR [eax+ecx*4]
  000c5	89 45 c4	 mov	 DWORD PTR __Ptr$[ebp], eax
; File C:\Program Files (x86)\Microsoft Visual Studio\2019\Community\VC\Tools\MSVC\14.28.29333\include\xmemory

; 810  :         _Deallocate<_New_alignof<_Ty>>(_Ptr, sizeof(_Ty) * _Count);

  000c8	33 c0		 xor	 eax, eax
  000ca	40		 inc	 eax
  000cb	6b c0 18	 imul	 eax, eax, 24
  000ce	50		 push	 eax
  000cf	ff 75 c4	 push	 DWORD PTR __Ptr$[ebp]
  000d2	e8 00 00 00 00	 call	 ??$_Deallocate@$07$0A@@std@@YAXPAXI@Z ; std::_Deallocate<8,0>
  000d7	59		 pop	 ecx
  000d8	59		 pop	 ecx
; File C:\Program Files (x86)\Microsoft Visual Studio\2019\Community\VC\Tools\MSVC\14.28.29333\include\deque

; 1530 :         return _Mypair._Myval2;

  000d9	8b 45 f8	 mov	 eax, DWORD PTR _this$[ebp]
  000dc	89 45 c0	 mov	 DWORD PTR $T15[ebp], eax

; 1538 :         return _Get_data()._Map;

  000df	8b 45 c0	 mov	 eax, DWORD PTR $T15[ebp]
  000e2	83 c0 04	 add	 eax, 4
  000e5	89 45 bc	 mov	 DWORD PTR $T14[ebp], eax

; 1480 :                 _Destroy_in_place(_Map()[_Block]);

  000e8	8b 45 bc	 mov	 eax, DWORD PTR $T14[ebp]
  000eb	8b 00		 mov	 eax, DWORD PTR [eax]
  000ed	8b 4d f4	 mov	 ecx, DWORD PTR __Block$26[ebp]
  000f0	8d 04 88	 lea	 eax, DWORD PTR [eax+ecx*4]
  000f3	50		 push	 eax
  000f4	e8 00 00 00 00	 call	 ??$_Destroy_in_place@PAV?$basic_string@DU?$char_traits@D@std@@V?$allocator@D@2@@std@@@std@@YAXAAPAV?$basic_string@DU?$char_traits@D@std@@V?$allocator@D@2@@0@@Z ; std::_Destroy_in_place<std::basic_string<char,std::char_traits<char>,std::allocator<char> > *>
  000f9	59		 pop	 ecx
$LN7@Tidy:

; 1481 :             }
; 1482 :         }

  000fa	e9 72 ff ff ff	 jmp	 $LN6@Tidy
$LN5@Tidy:

; 1530 :         return _Mypair._Myval2;

  000ff	8b 45 f8	 mov	 eax, DWORD PTR _this$[ebp]
  00102	89 45 b8	 mov	 DWORD PTR $T13[ebp], eax

; 1538 :         return _Get_data()._Map;

  00105	8b 45 b8	 mov	 eax, DWORD PTR $T13[ebp]
  00108	83 c0 04	 add	 eax, 4
  0010b	89 45 b4	 mov	 DWORD PTR $T12[ebp], eax

; 1483 : 
; 1484 :         if (_Map() != _Mapptr()) {

  0010e	8b 45 b4	 mov	 eax, DWORD PTR $T12[ebp]
  00111	83 38 00	 cmp	 DWORD PTR [eax], 0
  00114	74 3f		 je	 SHORT $LN8@Tidy

; 1530 :         return _Mypair._Myval2;

  00116	8b 45 f8	 mov	 eax, DWORD PTR _this$[ebp]
  00119	89 45 b0	 mov	 DWORD PTR $T11[ebp], eax

; 1546 :         return _Get_data()._Mapsize;

  0011c	8b 45 b0	 mov	 eax, DWORD PTR $T11[ebp]
  0011f	83 c0 08	 add	 eax, 8
  00122	89 45 a8	 mov	 DWORD PTR $T9[ebp], eax

; 1530 :         return _Mypair._Myval2;

  00125	8b 45 f8	 mov	 eax, DWORD PTR _this$[ebp]
  00128	89 45 ac	 mov	 DWORD PTR $T10[ebp], eax

; 1538 :         return _Get_data()._Map;

  0012b	8b 45 ac	 mov	 eax, DWORD PTR $T10[ebp]
  0012e	83 c0 04	 add	 eax, 4
  00131	89 45 a4	 mov	 DWORD PTR $T8[ebp], eax

; 1485 :             _Almap.deallocate(_Map(), _Mapsize()); // free storage for map

  00134	8b 45 a8	 mov	 eax, DWORD PTR $T9[ebp]
  00137	8b 00		 mov	 eax, DWORD PTR [eax]
  00139	89 45 a0	 mov	 DWORD PTR __Count$[ebp], eax
  0013c	8b 45 a4	 mov	 eax, DWORD PTR $T8[ebp]
  0013f	8b 00		 mov	 eax, DWORD PTR [eax]
  00141	89 45 9c	 mov	 DWORD PTR __Ptr$[ebp], eax
; File C:\Program Files (x86)\Microsoft Visual Studio\2019\Community\VC\Tools\MSVC\14.28.29333\include\xmemory

; 810  :         _Deallocate<_New_alignof<_Ty>>(_Ptr, sizeof(_Ty) * _Count);

  00144	8b 45 a0	 mov	 eax, DWORD PTR __Count$[ebp]
  00147	c1 e0 02	 shl	 eax, 2
  0014a	50		 push	 eax
  0014b	ff 75 9c	 push	 DWORD PTR __Ptr$[ebp]
  0014e	e8 00 00 00 00	 call	 ??$_Deallocate@$07$0A@@std@@YAXPAXI@Z ; std::_Deallocate<8,0>
  00153	59		 pop	 ecx
  00154	59		 pop	 ecx
$LN8@Tidy:
; File C:\Program Files (x86)\Microsoft Visual Studio\2019\Community\VC\Tools\MSVC\14.28.29333\include\deque

; 1530 :         return _Mypair._Myval2;

  00155	8b 45 f8	 mov	 eax, DWORD PTR _this$[ebp]
  00158	89 45 98	 mov	 DWORD PTR $T7[ebp], eax

; 1546 :         return _Get_data()._Mapsize;

  0015b	8b 45 98	 mov	 eax, DWORD PTR $T7[ebp]
  0015e	83 c0 08	 add	 eax, 8
  00161	89 45 94	 mov	 DWORD PTR $T6[ebp], eax

; 1486 :         }
; 1487 : 
; 1488 :         _Mapsize() = 0;

  00164	8b 45 94	 mov	 eax, DWORD PTR $T6[ebp]
  00167	83 20 00	 and	 DWORD PTR [eax], 0

; 1530 :         return _Mypair._Myval2;

  0016a	8b 45 f8	 mov	 eax, DWORD PTR _this$[ebp]
  0016d	89 45 90	 mov	 DWORD PTR $T5[ebp], eax

; 1538 :         return _Get_data()._Map;

  00170	8b 45 90	 mov	 eax, DWORD PTR $T5[ebp]
  00173	83 c0 04	 add	 eax, 4
  00176	89 45 8c	 mov	 DWORD PTR $T4[ebp], eax

; 1489 :         _Map()     = _Mapptr();

  00179	8b 45 8c	 mov	 eax, DWORD PTR $T4[ebp]
  0017c	83 20 00	 and	 DWORD PTR [eax], 0

; 1490 :     }

  0017f	c9		 leave
  00180	c3		 ret	 0
?_Tidy@?$deque@V?$basic_string@DU?$char_traits@D@std@@V?$allocator@D@2@@std@@V?$allocator@V?$basic_string@DU?$char_traits@D@std@@V?$allocator@D@2@@std@@@2@@std@@AAEXXZ ENDP ; std::deque<std::basic_string<char,std::char_traits<char>,std::allocator<char> >,std::allocator<std::basic_string<char,std::char_traits<char>,std::allocator<char> > > >::_Tidy
_TEXT	ENDS
; Function compile flags: /Odspy
; File C:\Program Files (x86)\Microsoft Visual Studio\2019\Community\VC\Tools\MSVC\14.28.29333\include\deque
; File C:\Program Files (x86)\Microsoft Visual Studio\2019\Community\VC\Tools\MSVC\14.28.29333\include\xmemory
; File C:\Program Files (x86)\Microsoft Visual Studio\2019\Community\VC\Tools\MSVC\14.28.29333\include\deque
; File C:\Program Files (x86)\Microsoft Visual Studio\2019\Community\VC\Tools\MSVC\14.28.29333\include\xmemory
; File C:\Program Files (x86)\Microsoft Visual Studio\2019\Community\VC\Tools\MSVC\14.28.29333\include\deque
; File C:\Program Files (x86)\Microsoft Visual Studio\2019\Community\VC\Tools\MSVC\14.28.29333\include\xmemory
; File C:\Program Files (x86)\Microsoft Visual Studio\2019\Community\VC\Tools\MSVC\14.28.29333\include\limits
; File C:\Program Files (x86)\Microsoft Visual Studio\2019\Community\VC\Tools\MSVC\14.28.29333\include\deque
; File C:\Program Files (x86)\Microsoft Visual Studio\2019\Community\VC\Tools\MSVC\14.28.29333\include\utility
; File C:\Program Files (x86)\Microsoft Visual Studio\2019\Community\VC\Tools\MSVC\14.28.29333\include\deque
; File C:\Program Files (x86)\Microsoft Visual Studio\2019\Community\VC\Tools\MSVC\14.28.29333\include\xmemory
; File C:\Program Files (x86)\Microsoft Visual Studio\2019\Community\VC\Tools\MSVC\14.28.29333\include\deque
; File C:\Program Files (x86)\Microsoft Visual Studio\2019\Community\VC\Tools\MSVC\14.28.29333\include\xmemory
; File C:\Program Files (x86)\Microsoft Visual Studio\2019\Community\VC\Tools\MSVC\14.28.29333\include\deque
;	COMDAT ?_Growmap@?$deque@V?$basic_string@DU?$char_traits@D@std@@V?$allocator@D@2@@std@@V?$allocator@V?$basic_string@DU?$char_traits@D@std@@V?$allocator@D@2@@std@@@2@@std@@AAEXI@Z
_TEXT	SEGMENT
$T1 = -164						; size = 4
__Max_possible$2 = -160					; size = 4
$T3 = -156						; size = 4
$T4 = -152						; size = 4
$T5 = -148						; size = 4
$T6 = -144						; size = 4
$T7 = -140						; size = 4
__Ptr$ = -136						; size = 4
__Count$ = -132						; size = 4
$T8 = -128						; size = 4
$T9 = -124						; size = 4
$T10 = -120						; size = 4
$T11 = -116						; size = 4
$T12 = -112						; size = 4
$T13 = -108						; size = 4
$T14 = -104						; size = 4
$T15 = -100						; size = 4
$T16 = -96						; size = 4
$T17 = -92						; size = 4
$T18 = -88						; size = 4
$T19 = -84						; size = 4
$T20 = -80						; size = 4
$T21 = -76						; size = 4
$T22 = -72						; size = 4
$T23 = -68						; size = 4
$T24 = -64						; size = 4
$T25 = -60						; size = 4
$T26 = -56						; size = 4
$T27 = -52						; size = 4
$T28 = -48						; size = 4
$T29 = -44						; size = 4
$T30 = -40						; size = 4
$T31 = -36						; size = 4
$T32 = -32						; size = 4
$T33 = -28						; size = 4
$T34 = -24						; size = 4
$T35 = -20						; size = 4
$T36 = -16						; size = 4
$T37 = -12						; size = 4
$T38 = -8						; size = 4
$T39 = -4						; size = 4
$T40 = 0						; size = 4
$T41 = 4						; size = 4
$T42 = 8						; size = 4
$T43 = 12						; size = 4
$T44 = 16						; size = 4
$T45 = 20						; size = 4
$T46 = 24						; size = 4
$T47 = 28						; size = 4
$T48 = 32						; size = 4
$T49 = 36						; size = 4
$T50 = 40						; size = 4
$T51 = 44						; size = 4
$T52 = 48						; size = 4
$T53 = 52						; size = 4
$T54 = 56						; size = 4
$T55 = 60						; size = 4
$T56 = 64						; size = 4
__Count$ = 68						; size = 4
tv230 = 72						; size = 4
$T57 = 76						; size = 4
$T58 = 80						; size = 4
tv73 = 84						; size = 4
tv212 = 88						; size = 4
__Overflow_is_possible$59 = 95				; size = 1
__Newmap$ = 96						; size = 4
__Newsize$ = 100					; size = 4
__Myboff$ = 104						; size = 4
__Myptr$ = 108						; size = 4
_this$ = 112						; size = 4
__Count$ = 124						; size = 4
?_Growmap@?$deque@V?$basic_string@DU?$char_traits@D@std@@V?$allocator@D@2@@std@@V?$allocator@V?$basic_string@DU?$char_traits@D@std@@V?$allocator@D@2@@std@@@2@@std@@AAEXI@Z PROC ; std::deque<std::basic_string<char,std::char_traits<char>,std::allocator<char> >,std::allocator<std::basic_string<char,std::char_traits<char>,std::allocator<char> > > >::_Growmap, COMDAT
; _this$ = ecx

; 1430 :     void _Growmap(size_type _Count) { // grow map by at least _Count pointers, _Mapsize() a power of 2

  00000	55		 push	 ebp
  00001	8d 6c 24 8c	 lea	 ebp, DWORD PTR [esp-116]
  00005	81 ec 18 01 00
	00		 sub	 esp, 280		; 00000118H
  0000b	89 4d 70	 mov	 DWORD PTR _this$[ebp], ecx

; 1522 :         return _Mypair._Get_first();

  0000e	8b 45 70	 mov	 eax, DWORD PTR _this$[ebp]
; File C:\Program Files (x86)\Microsoft Visual Studio\2019\Community\VC\Tools\MSVC\14.28.29333\include\xmemory

; 1347 :         return *this;

  00011	89 45 40	 mov	 DWORD PTR $T56[ebp], eax
; File C:\Program Files (x86)\Microsoft Visual Studio\2019\Community\VC\Tools\MSVC\14.28.29333\include\deque

; 1522 :         return _Mypair._Get_first();

  00014	8b 45 40	 mov	 eax, DWORD PTR $T56[ebp]
  00017	89 85 68 ff ff
	ff		 mov	 DWORD PTR $T4[ebp], eax

; 1530 :         return _Mypair._Myval2;

  0001d	8b 45 70	 mov	 eax, DWORD PTR _this$[ebp]
  00020	89 45 3c	 mov	 DWORD PTR $T55[ebp], eax

; 1546 :         return _Get_data()._Mapsize;

  00023	8b 45 3c	 mov	 eax, DWORD PTR $T55[ebp]
  00026	83 c0 08	 add	 eax, 8
  00029	89 45 38	 mov	 DWORD PTR $T54[ebp], eax

; 1431 :         static_assert(1 < _DEQUEMAPSIZ, "The _Xlen() test should always be performed.");
; 1432 : 
; 1433 :         _Alpty _Almap(_Getal());
; 1434 :         size_type _Newsize = 0 < _Mapsize() ? _Mapsize() : 1;

  0002c	8b 45 38	 mov	 eax, DWORD PTR $T54[ebp]
  0002f	83 38 00	 cmp	 DWORD PTR [eax], 0
  00032	76 19		 jbe	 SHORT $LN10@Growmap

; 1530 :         return _Mypair._Myval2;

  00034	8b 45 70	 mov	 eax, DWORD PTR _this$[ebp]
  00037	89 45 34	 mov	 DWORD PTR $T53[ebp], eax

; 1546 :         return _Get_data()._Mapsize;

  0003a	8b 45 34	 mov	 eax, DWORD PTR $T53[ebp]
  0003d	83 c0 08	 add	 eax, 8
  00040	89 45 30	 mov	 DWORD PTR $T52[ebp], eax

; 1431 :         static_assert(1 < _DEQUEMAPSIZ, "The _Xlen() test should always be performed.");
; 1432 : 
; 1433 :         _Alpty _Almap(_Getal());
; 1434 :         size_type _Newsize = 0 < _Mapsize() ? _Mapsize() : 1;

  00043	8b 45 30	 mov	 eax, DWORD PTR $T52[ebp]
  00046	8b 00		 mov	 eax, DWORD PTR [eax]
  00048	89 45 54	 mov	 DWORD PTR tv73[ebp], eax
  0004b	eb 07		 jmp	 SHORT $LN11@Growmap
$LN10@Growmap:
  0004d	c7 45 54 01 00
	00 00		 mov	 DWORD PTR tv73[ebp], 1
$LN11@Growmap:
  00054	8b 45 54	 mov	 eax, DWORD PTR tv73[ebp]
  00057	89 45 64	 mov	 DWORD PTR __Newsize$[ebp], eax
$LN2@Growmap:

; 1530 :         return _Mypair._Myval2;

  0005a	8b 45 70	 mov	 eax, DWORD PTR _this$[ebp]
  0005d	89 45 2c	 mov	 DWORD PTR $T51[ebp], eax

; 1546 :         return _Get_data()._Mapsize;

  00060	8b 45 2c	 mov	 eax, DWORD PTR $T51[ebp]
  00063	83 c0 08	 add	 eax, 8
  00066	89 45 28	 mov	 DWORD PTR $T50[ebp], eax

; 1435 :         while (_Newsize - _Mapsize() < _Count || _Newsize < _DEQUEMAPSIZ) {

  00069	8b 45 28	 mov	 eax, DWORD PTR $T50[ebp]
  0006c	8b 4d 64	 mov	 ecx, DWORD PTR __Newsize$[ebp]
  0006f	2b 08		 sub	 ecx, DWORD PTR [eax]
  00071	3b 4d 7c	 cmp	 ecx, DWORD PTR __Count$[ebp]
  00074	72 06		 jb	 SHORT $LN4@Growmap
  00076	83 7d 64 08	 cmp	 DWORD PTR __Newsize$[ebp], 8
  0007a	73 6d		 jae	 SHORT $LN3@Growmap
$LN4@Growmap:

; 1526 :         return _Mypair._Get_first();

  0007c	8b 45 70	 mov	 eax, DWORD PTR _this$[ebp]
; File C:\Program Files (x86)\Microsoft Visual Studio\2019\Community\VC\Tools\MSVC\14.28.29333\include\xmemory

; 1351 :         return *this;

  0007f	89 45 24	 mov	 DWORD PTR $T49[ebp], eax
; File C:\Program Files (x86)\Microsoft Visual Studio\2019\Community\VC\Tools\MSVC\14.28.29333\include\deque

; 1526 :         return _Mypair._Get_first();

  00082	8b 45 24	 mov	 eax, DWORD PTR $T49[ebp]
  00085	89 85 64 ff ff
	ff		 mov	 DWORD PTR $T3[ebp], eax
; File C:\Program Files (x86)\Microsoft Visual Studio\2019\Community\VC\Tools\MSVC\14.28.29333\include\xmemory

; 710  :         return static_cast<size_t>(-1) / sizeof(value_type);

  0008b	c7 45 50 aa aa
	aa 0a		 mov	 DWORD PTR $T58[ebp], 178956970 ; 0aaaaaaaH
; File C:\Program Files (x86)\Microsoft Visual Studio\2019\Community\VC\Tools\MSVC\14.28.29333\include\limits

; 557  :         return INT_MAX;

  00092	c7 45 20 ff ff
	ff 7f		 mov	 DWORD PTR $T48[ebp], 2147483647 ; 7fffffffH
; File C:\Program Files (x86)\Microsoft Visual Studio\2019\Community\VC\Tools\MSVC\14.28.29333\include\deque

; 1005 :         return (_STD min)(

  00099	8b 45 20	 mov	 eax, DWORD PTR $T48[ebp]
  0009c	89 45 4c	 mov	 DWORD PTR $T57[ebp], eax
; File C:\Program Files (x86)\Microsoft Visual Studio\2019\Community\VC\Tools\MSVC\14.28.29333\include\utility

; 68   :     return _Right < _Left ? _Right : _Left;

  0009f	8b 45 50	 mov	 eax, DWORD PTR $T58[ebp]
  000a2	3b 45 4c	 cmp	 eax, DWORD PTR $T57[ebp]
  000a5	73 08		 jae	 SHORT $LN56@Growmap
  000a7	8d 45 50	 lea	 eax, DWORD PTR $T58[ebp]
  000aa	89 45 48	 mov	 DWORD PTR tv230[ebp], eax
  000ad	eb 06		 jmp	 SHORT $LN57@Growmap
$LN56@Growmap:
  000af	8d 45 4c	 lea	 eax, DWORD PTR $T57[ebp]
  000b2	89 45 48	 mov	 DWORD PTR tv230[ebp], eax
$LN57@Growmap:
  000b5	8b 45 48	 mov	 eax, DWORD PTR tv230[ebp]
  000b8	89 45 1c	 mov	 DWORD PTR $T47[ebp], eax
  000bb	8b 45 1c	 mov	 eax, DWORD PTR $T47[ebp]
  000be	89 45 18	 mov	 DWORD PTR $T46[ebp], eax
; File C:\Program Files (x86)\Microsoft Visual Studio\2019\Community\VC\Tools\MSVC\14.28.29333\include\deque

; 1005 :         return (_STD min)(

  000c1	8b 45 18	 mov	 eax, DWORD PTR $T46[ebp]
  000c4	8b 00		 mov	 eax, DWORD PTR [eax]
  000c6	89 45 14	 mov	 DWORD PTR $T45[ebp], eax

; 1436 :             // scale _Newsize to 2^N >= _Mapsize() + _Count
; 1437 :             if (max_size() / _DEQUESIZ - _Newsize < _Newsize) {

  000c9	8b 45 14	 mov	 eax, DWORD PTR $T45[ebp]
  000cc	2b 45 64	 sub	 eax, DWORD PTR __Newsize$[ebp]
  000cf	3b 45 64	 cmp	 eax, DWORD PTR __Newsize$[ebp]
  000d2	73 08		 jae	 SHORT $LN5@Growmap

; 1438 :                 _Xlen(); // result too long

  000d4	8b 4d 70	 mov	 ecx, DWORD PTR _this$[ebp]
  000d7	e8 00 00 00 00	 call	 ?_Xlen@?$deque@V?$basic_string@DU?$char_traits@D@std@@V?$allocator@D@2@@std@@V?$allocator@V?$basic_string@DU?$char_traits@D@std@@V?$allocator@D@2@@std@@@2@@std@@ABEXXZ ; std::deque<std::basic_string<char,std::char_traits<char>,std::allocator<char> >,std::allocator<std::basic_string<char,std::char_traits<char>,std::allocator<char> > > >::_Xlen
$LN5@Growmap:

; 1439 :             }
; 1440 : 
; 1441 :             _Newsize *= 2;

  000dc	8b 45 64	 mov	 eax, DWORD PTR __Newsize$[ebp]
  000df	d1 e0		 shl	 eax, 1
  000e1	89 45 64	 mov	 DWORD PTR __Newsize$[ebp], eax

; 1442 :         }

  000e4	e9 71 ff ff ff	 jmp	 $LN2@Growmap
$LN3@Growmap:

; 1530 :         return _Mypair._Myval2;

  000e9	8b 45 70	 mov	 eax, DWORD PTR _this$[ebp]
  000ec	89 45 10	 mov	 DWORD PTR $T44[ebp], eax

; 1546 :         return _Get_data()._Mapsize;

  000ef	8b 45 10	 mov	 eax, DWORD PTR $T44[ebp]
  000f2	83 c0 08	 add	 eax, 8
  000f5	89 45 0c	 mov	 DWORD PTR $T43[ebp], eax

; 1443 :         _Count = _Newsize - _Mapsize();

  000f8	8b 45 0c	 mov	 eax, DWORD PTR $T43[ebp]
  000fb	8b 4d 64	 mov	 ecx, DWORD PTR __Newsize$[ebp]
  000fe	2b 08		 sub	 ecx, DWORD PTR [eax]
  00100	89 4d 7c	 mov	 DWORD PTR __Count$[ebp], ecx

; 1530 :         return _Mypair._Myval2;

  00103	8b 45 70	 mov	 eax, DWORD PTR _this$[ebp]
  00106	89 45 08	 mov	 DWORD PTR $T42[ebp], eax

; 1554 :         return _Get_data()._Myoff;

  00109	8b 45 08	 mov	 eax, DWORD PTR $T42[ebp]
  0010c	83 c0 0c	 add	 eax, 12			; 0000000cH
  0010f	89 45 04	 mov	 DWORD PTR $T41[ebp], eax

; 1444 : 
; 1445 :         size_type _Myboff = _Myoff() / _DEQUESIZ;

  00112	8b 45 04	 mov	 eax, DWORD PTR $T41[ebp]
  00115	8b 00		 mov	 eax, DWORD PTR [eax]
  00117	89 45 68	 mov	 DWORD PTR __Myboff$[ebp], eax

; 1530 :         return _Mypair._Myval2;

  0011a	8b 45 70	 mov	 eax, DWORD PTR _this$[ebp]
  0011d	89 45 00	 mov	 DWORD PTR $T40[ebp], eax

; 1546 :         return _Get_data()._Mapsize;

  00120	8b 45 00	 mov	 eax, DWORD PTR $T40[ebp]
  00123	83 c0 08	 add	 eax, 8
  00126	89 45 fc	 mov	 DWORD PTR $T39[ebp], eax

; 1446 :         _Mapptr _Newmap   = _Almap.allocate(_Mapsize() + _Count);

  00129	8b 45 fc	 mov	 eax, DWORD PTR $T39[ebp]
  0012c	8b 00		 mov	 eax, DWORD PTR [eax]
  0012e	03 45 7c	 add	 eax, DWORD PTR __Count$[ebp]
  00131	89 45 44	 mov	 DWORD PTR __Count$[ebp], eax
; File C:\Program Files (x86)\Microsoft Visual Studio\2019\Community\VC\Tools\MSVC\14.28.29333\include\xmemory

; 56   :     constexpr bool _Overflow_is_possible = _Ty_size > 1;

  00134	c6 45 5f 01	 mov	 BYTE PTR __Overflow_is_possible$59[ebp], 1

; 57   : 
; 58   :     if _CONSTEXPR_IF (_Overflow_is_possible) {
; 59   :         constexpr size_t _Max_possible = static_cast<size_t>(-1) / _Ty_size;

  00138	c7 85 60 ff ff
	ff ff ff ff 3f	 mov	 DWORD PTR __Max_possible$2[ebp], 1073741823 ; 3fffffffH

; 60   :         if (_Count > _Max_possible) {

  00142	81 7d 44 ff ff
	ff 3f		 cmp	 DWORD PTR __Count$[ebp], 1073741823 ; 3fffffffH
  00149	76 05		 jbe	 SHORT $LN80@Growmap

; 61   :             _Throw_bad_array_new_length(); // multiply overflow

  0014b	e8 00 00 00 00	 call	 ?_Throw_bad_array_new_length@std@@YAXXZ ; std::_Throw_bad_array_new_length
$LN80@Growmap:

; 62   :         }
; 63   :     }
; 64   : 
; 65   :     return _Count * _Ty_size;

  00150	8b 45 44	 mov	 eax, DWORD PTR __Count$[ebp]
  00153	c1 e0 02	 shl	 eax, 2
  00156	89 45 f8	 mov	 DWORD PTR $T38[ebp], eax

; 814  :         return static_cast<_Ty*>(_Allocate<_New_alignof<_Ty>>(_Get_size_of_n<sizeof(_Ty)>(_Count)));

  00159	ff 75 f8	 push	 DWORD PTR $T38[ebp]
  0015c	e8 00 00 00 00	 call	 ??$_Allocate@$07U_Default_allocate_traits@std@@$0A@@std@@YAPAXI@Z ; std::_Allocate<8,std::_Default_allocate_traits,0>
  00161	59		 pop	 ecx
  00162	89 45 60	 mov	 DWORD PTR __Newmap$[ebp], eax
; File C:\Program Files (x86)\Microsoft Visual Studio\2019\Community\VC\Tools\MSVC\14.28.29333\include\deque

; 1447 :         _Mapptr _Myptr    = _Newmap + _Myboff;

  00165	8b 45 68	 mov	 eax, DWORD PTR __Myboff$[ebp]
  00168	8b 4d 60	 mov	 ecx, DWORD PTR __Newmap$[ebp]
  0016b	8d 04 81	 lea	 eax, DWORD PTR [ecx+eax*4]
  0016e	89 45 6c	 mov	 DWORD PTR __Myptr$[ebp], eax

; 1530 :         return _Mypair._Myval2;

  00171	8b 45 70	 mov	 eax, DWORD PTR _this$[ebp]
  00174	89 45 f4	 mov	 DWORD PTR $T37[ebp], eax

; 1538 :         return _Get_data()._Map;

  00177	8b 45 f4	 mov	 eax, DWORD PTR $T37[ebp]
  0017a	83 c0 04	 add	 eax, 4
  0017d	89 45 e4	 mov	 DWORD PTR $T33[ebp], eax

; 1530 :         return _Mypair._Myval2;

  00180	8b 45 70	 mov	 eax, DWORD PTR _this$[ebp]
  00183	89 45 f0	 mov	 DWORD PTR $T36[ebp], eax

; 1546 :         return _Get_data()._Mapsize;

  00186	8b 45 f0	 mov	 eax, DWORD PTR $T36[ebp]
  00189	83 c0 08	 add	 eax, 8
  0018c	89 45 e8	 mov	 DWORD PTR $T34[ebp], eax

; 1530 :         return _Mypair._Myval2;

  0018f	8b 45 70	 mov	 eax, DWORD PTR _this$[ebp]
  00192	89 45 ec	 mov	 DWORD PTR $T35[ebp], eax

; 1538 :         return _Get_data()._Map;

  00195	8b 45 ec	 mov	 eax, DWORD PTR $T35[ebp]
  00198	83 c0 04	 add	 eax, 4
  0019b	89 45 e0	 mov	 DWORD PTR $T32[ebp], eax

; 1448 : 
; 1449 :         _Myptr = _STD uninitialized_copy(_Map() + _Myboff, _Map() + _Mapsize(), _Myptr); // copy initial to end

  0019e	ff 75 6c	 push	 DWORD PTR __Myptr$[ebp]
  001a1	8b 45 e8	 mov	 eax, DWORD PTR $T34[ebp]
  001a4	8b 00		 mov	 eax, DWORD PTR [eax]
  001a6	8b 4d e4	 mov	 ecx, DWORD PTR $T33[ebp]
  001a9	8b 09		 mov	 ecx, DWORD PTR [ecx]
  001ab	8d 04 81	 lea	 eax, DWORD PTR [ecx+eax*4]
  001ae	50		 push	 eax
  001af	8b 45 e0	 mov	 eax, DWORD PTR $T32[ebp]
  001b2	8b 00		 mov	 eax, DWORD PTR [eax]
  001b4	8b 4d 68	 mov	 ecx, DWORD PTR __Myboff$[ebp]
  001b7	8d 04 88	 lea	 eax, DWORD PTR [eax+ecx*4]
  001ba	50		 push	 eax
  001bb	e8 00 00 00 00	 call	 ??$uninitialized_copy@PAPAV?$basic_string@DU?$char_traits@D@std@@V?$allocator@D@2@@std@@PAPAV12@@std@@YAPAPAV?$basic_string@DU?$char_traits@D@std@@V?$allocator@D@2@@0@QAPAV10@0PAPAV10@@Z ; std::uninitialized_copy<std::basic_string<char,std::char_traits<char>,std::allocator<char> > * *,std::basic_string<char,std::char_traits<char>,std::allocator<char> > * *>
  001c0	83 c4 0c	 add	 esp, 12			; 0000000cH
  001c3	89 45 6c	 mov	 DWORD PTR __Myptr$[ebp], eax

; 1450 :         if (_Myboff <= _Count) { // increment greater than offset of initial block

  001c6	8b 45 68	 mov	 eax, DWORD PTR __Myboff$[ebp]
  001c9	3b 45 7c	 cmp	 eax, DWORD PTR __Count$[ebp]
  001cc	77 60		 ja	 SHORT $LN6@Growmap

; 1530 :         return _Mypair._Myval2;

  001ce	8b 45 70	 mov	 eax, DWORD PTR _this$[ebp]
  001d1	89 45 dc	 mov	 DWORD PTR $T31[ebp], eax

; 1538 :         return _Get_data()._Map;

  001d4	8b 45 dc	 mov	 eax, DWORD PTR $T31[ebp]
  001d7	83 c0 04	 add	 eax, 4
  001da	89 45 d4	 mov	 DWORD PTR $T29[ebp], eax

; 1530 :         return _Mypair._Myval2;

  001dd	8b 45 70	 mov	 eax, DWORD PTR _this$[ebp]
  001e0	89 45 d8	 mov	 DWORD PTR $T30[ebp], eax

; 1538 :         return _Get_data()._Map;

  001e3	8b 45 d8	 mov	 eax, DWORD PTR $T30[ebp]
  001e6	83 c0 04	 add	 eax, 4
  001e9	89 45 d0	 mov	 DWORD PTR $T28[ebp], eax

; 1451 :             _Myptr = _STD uninitialized_copy(_Map(), _Map() + _Myboff, _Myptr); // copy rest of old

  001ec	ff 75 6c	 push	 DWORD PTR __Myptr$[ebp]
  001ef	8b 45 d4	 mov	 eax, DWORD PTR $T29[ebp]
  001f2	8b 00		 mov	 eax, DWORD PTR [eax]
  001f4	8b 4d 68	 mov	 ecx, DWORD PTR __Myboff$[ebp]
  001f7	8d 04 88	 lea	 eax, DWORD PTR [eax+ecx*4]
  001fa	50		 push	 eax
  001fb	8b 45 d0	 mov	 eax, DWORD PTR $T28[ebp]
  001fe	ff 30		 push	 DWORD PTR [eax]
  00200	e8 00 00 00 00	 call	 ??$uninitialized_copy@PAPAV?$basic_string@DU?$char_traits@D@std@@V?$allocator@D@2@@std@@PAPAV12@@std@@YAPAPAV?$basic_string@DU?$char_traits@D@std@@V?$allocator@D@2@@0@QAPAV10@0PAPAV10@@Z ; std::uninitialized_copy<std::basic_string<char,std::char_traits<char>,std::allocator<char> > * *,std::basic_string<char,std::char_traits<char>,std::allocator<char> > * *>
  00205	83 c4 0c	 add	 esp, 12			; 0000000cH
  00208	89 45 6c	 mov	 DWORD PTR __Myptr$[ebp], eax

; 1452 :             _Uninitialized_value_construct_n_unchecked1(_Myptr, _Count - _Myboff); // clear suffix of new

  0020b	8b 45 7c	 mov	 eax, DWORD PTR __Count$[ebp]
  0020e	2b 45 68	 sub	 eax, DWORD PTR __Myboff$[ebp]
  00211	50		 push	 eax
  00212	ff 75 6c	 push	 DWORD PTR __Myptr$[ebp]
  00215	e8 00 00 00 00	 call	 ??$_Uninitialized_value_construct_n_unchecked1@PAPAV?$basic_string@DU?$char_traits@D@std@@V?$allocator@D@2@@std@@I@std@@YAPAPAV?$basic_string@DU?$char_traits@D@std@@V?$allocator@D@2@@0@PAPAV10@I@Z ; std::_Uninitialized_value_construct_n_unchecked1<std::basic_string<char,std::char_traits<char>,std::allocator<char> > * *,unsigned int>
  0021a	59		 pop	 ecx
  0021b	59		 pop	 ecx

; 1453 :             _Uninitialized_value_construct_n_unchecked1(_Newmap, _Myboff); // clear prefix of new

  0021c	ff 75 68	 push	 DWORD PTR __Myboff$[ebp]
  0021f	ff 75 60	 push	 DWORD PTR __Newmap$[ebp]
  00222	e8 00 00 00 00	 call	 ??$_Uninitialized_value_construct_n_unchecked1@PAPAV?$basic_string@DU?$char_traits@D@std@@V?$allocator@D@2@@std@@I@std@@YAPAPAV?$basic_string@DU?$char_traits@D@std@@V?$allocator@D@2@@0@PAPAV10@I@Z ; std::_Uninitialized_value_construct_n_unchecked1<std::basic_string<char,std::char_traits<char>,std::allocator<char> > * *,unsigned int>
  00227	59		 pop	 ecx
  00228	59		 pop	 ecx

; 1454 :         } else { // increment not greater than offset of initial block

  00229	e9 8b 00 00 00	 jmp	 $LN7@Growmap
$LN6@Growmap:

; 1530 :         return _Mypair._Myval2;

  0022e	8b 45 70	 mov	 eax, DWORD PTR _this$[ebp]
  00231	89 45 cc	 mov	 DWORD PTR $T27[ebp], eax

; 1538 :         return _Get_data()._Map;

  00234	8b 45 cc	 mov	 eax, DWORD PTR $T27[ebp]
  00237	83 c0 04	 add	 eax, 4
  0023a	89 45 c4	 mov	 DWORD PTR $T25[ebp], eax

; 1530 :         return _Mypair._Myval2;

  0023d	8b 45 70	 mov	 eax, DWORD PTR _this$[ebp]
  00240	89 45 c8	 mov	 DWORD PTR $T26[ebp], eax

; 1538 :         return _Get_data()._Map;

  00243	8b 45 c8	 mov	 eax, DWORD PTR $T26[ebp]
  00246	83 c0 04	 add	 eax, 4
  00249	89 45 c0	 mov	 DWORD PTR $T24[ebp], eax

; 1455 :             _STD uninitialized_copy(_Map(), _Map() + _Count, _Myptr); // copy more old

  0024c	ff 75 6c	 push	 DWORD PTR __Myptr$[ebp]
  0024f	8b 45 c4	 mov	 eax, DWORD PTR $T25[ebp]
  00252	8b 00		 mov	 eax, DWORD PTR [eax]
  00254	8b 4d 7c	 mov	 ecx, DWORD PTR __Count$[ebp]
  00257	8d 04 88	 lea	 eax, DWORD PTR [eax+ecx*4]
  0025a	50		 push	 eax
  0025b	8b 45 c0	 mov	 eax, DWORD PTR $T24[ebp]
  0025e	ff 30		 push	 DWORD PTR [eax]
  00260	e8 00 00 00 00	 call	 ??$uninitialized_copy@PAPAV?$basic_string@DU?$char_traits@D@std@@V?$allocator@D@2@@std@@PAPAV12@@std@@YAPAPAV?$basic_string@DU?$char_traits@D@std@@V?$allocator@D@2@@0@QAPAV10@0PAPAV10@@Z ; std::uninitialized_copy<std::basic_string<char,std::char_traits<char>,std::allocator<char> > * *,std::basic_string<char,std::char_traits<char>,std::allocator<char> > * *>
  00265	83 c4 0c	 add	 esp, 12			; 0000000cH

; 1530 :         return _Mypair._Myval2;

  00268	8b 45 70	 mov	 eax, DWORD PTR _this$[ebp]
  0026b	89 45 bc	 mov	 DWORD PTR $T23[ebp], eax

; 1538 :         return _Get_data()._Map;

  0026e	8b 45 bc	 mov	 eax, DWORD PTR $T23[ebp]
  00271	83 c0 04	 add	 eax, 4
  00274	89 45 b4	 mov	 DWORD PTR $T21[ebp], eax

; 1530 :         return _Mypair._Myval2;

  00277	8b 45 70	 mov	 eax, DWORD PTR _this$[ebp]
  0027a	89 45 b8	 mov	 DWORD PTR $T22[ebp], eax

; 1538 :         return _Get_data()._Map;

  0027d	8b 45 b8	 mov	 eax, DWORD PTR $T22[ebp]
  00280	83 c0 04	 add	 eax, 4
  00283	89 45 b0	 mov	 DWORD PTR $T20[ebp], eax

; 1456 :             _Myptr = _STD uninitialized_copy(_Map() + _Count, _Map() + _Myboff, _Newmap); // copy rest of old

  00286	ff 75 60	 push	 DWORD PTR __Newmap$[ebp]
  00289	8b 45 b4	 mov	 eax, DWORD PTR $T21[ebp]
  0028c	8b 00		 mov	 eax, DWORD PTR [eax]
  0028e	8b 4d 68	 mov	 ecx, DWORD PTR __Myboff$[ebp]
  00291	8d 04 88	 lea	 eax, DWORD PTR [eax+ecx*4]
  00294	50		 push	 eax
  00295	8b 45 b0	 mov	 eax, DWORD PTR $T20[ebp]
  00298	8b 00		 mov	 eax, DWORD PTR [eax]
  0029a	8b 4d 7c	 mov	 ecx, DWORD PTR __Count$[ebp]
  0029d	8d 04 88	 lea	 eax, DWORD PTR [eax+ecx*4]
  002a0	50		 push	 eax
  002a1	e8 00 00 00 00	 call	 ??$uninitialized_copy@PAPAV?$basic_string@DU?$char_traits@D@std@@V?$allocator@D@2@@std@@PAPAV12@@std@@YAPAPAV?$basic_string@DU?$char_traits@D@std@@V?$allocator@D@2@@0@QAPAV10@0PAPAV10@@Z ; std::uninitialized_copy<std::basic_string<char,std::char_traits<char>,std::allocator<char> > * *,std::basic_string<char,std::char_traits<char>,std::allocator<char> > * *>
  002a6	83 c4 0c	 add	 esp, 12			; 0000000cH
  002a9	89 45 6c	 mov	 DWORD PTR __Myptr$[ebp], eax

; 1457 :             _Uninitialized_value_construct_n_unchecked1(_Myptr, _Count); // clear rest to initial block

  002ac	ff 75 7c	 push	 DWORD PTR __Count$[ebp]
  002af	ff 75 6c	 push	 DWORD PTR __Myptr$[ebp]
  002b2	e8 00 00 00 00	 call	 ??$_Uninitialized_value_construct_n_unchecked1@PAPAV?$basic_string@DU?$char_traits@D@std@@V?$allocator@D@2@@std@@I@std@@YAPAPAV?$basic_string@DU?$char_traits@D@std@@V?$allocator@D@2@@0@PAPAV10@I@Z ; std::_Uninitialized_value_construct_n_unchecked1<std::basic_string<char,std::char_traits<char>,std::allocator<char> > * *,unsigned int>
  002b7	59		 pop	 ecx
  002b8	59		 pop	 ecx
$LN7@Growmap:

; 1530 :         return _Mypair._Myval2;

  002b9	8b 45 70	 mov	 eax, DWORD PTR _this$[ebp]
  002bc	89 45 ac	 mov	 DWORD PTR $T19[ebp], eax

; 1538 :         return _Get_data()._Map;

  002bf	8b 45 ac	 mov	 eax, DWORD PTR $T19[ebp]
  002c2	83 c0 04	 add	 eax, 4
  002c5	89 45 9c	 mov	 DWORD PTR $T15[ebp], eax

; 1530 :         return _Mypair._Myval2;

  002c8	8b 45 70	 mov	 eax, DWORD PTR _this$[ebp]
  002cb	89 45 a8	 mov	 DWORD PTR $T18[ebp], eax

; 1546 :         return _Get_data()._Mapsize;

  002ce	8b 45 a8	 mov	 eax, DWORD PTR $T18[ebp]
  002d1	83 c0 08	 add	 eax, 8
  002d4	89 45 a0	 mov	 DWORD PTR $T16[ebp], eax

; 1530 :         return _Mypair._Myval2;

  002d7	8b 45 70	 mov	 eax, DWORD PTR _this$[ebp]
  002da	89 45 a4	 mov	 DWORD PTR $T17[ebp], eax

; 1538 :         return _Get_data()._Map;

  002dd	8b 45 a4	 mov	 eax, DWORD PTR $T17[ebp]
  002e0	83 c0 04	 add	 eax, 4
  002e3	89 45 98	 mov	 DWORD PTR $T14[ebp], eax

; 1458 :         }
; 1459 : 
; 1460 :         _Destroy_range(_Map() + _Myboff, _Map() + _Mapsize());

  002e6	8b 45 a0	 mov	 eax, DWORD PTR $T16[ebp]
  002e9	8b 00		 mov	 eax, DWORD PTR [eax]
  002eb	8b 4d 9c	 mov	 ecx, DWORD PTR $T15[ebp]
  002ee	8b 09		 mov	 ecx, DWORD PTR [ecx]
  002f0	8d 04 81	 lea	 eax, DWORD PTR [ecx+eax*4]
  002f3	50		 push	 eax
  002f4	8b 45 98	 mov	 eax, DWORD PTR $T14[ebp]
  002f7	8b 00		 mov	 eax, DWORD PTR [eax]
  002f9	8b 4d 68	 mov	 ecx, DWORD PTR __Myboff$[ebp]
  002fc	8d 04 88	 lea	 eax, DWORD PTR [eax+ecx*4]
  002ff	50		 push	 eax
  00300	e8 00 00 00 00	 call	 ??$_Destroy_range@PAPAV?$basic_string@DU?$char_traits@D@std@@V?$allocator@D@2@@std@@PAPAV12@@std@@YAXPAPAV?$basic_string@DU?$char_traits@D@std@@V?$allocator@D@2@@0@QAPAV10@@Z ; std::_Destroy_range<std::basic_string<char,std::char_traits<char>,std::allocator<char> > * *,std::basic_string<char,std::char_traits<char>,std::allocator<char> > * *>
  00305	59		 pop	 ecx
  00306	59		 pop	 ecx

; 1530 :         return _Mypair._Myval2;

  00307	8b 45 70	 mov	 eax, DWORD PTR _this$[ebp]
  0030a	89 45 94	 mov	 DWORD PTR $T13[ebp], eax

; 1538 :         return _Get_data()._Map;

  0030d	8b 45 94	 mov	 eax, DWORD PTR $T13[ebp]
  00310	83 c0 04	 add	 eax, 4
  00313	89 45 90	 mov	 DWORD PTR $T12[ebp], eax

; 1461 :         if (_Map() != _Mapptr()) {

  00316	8b 45 90	 mov	 eax, DWORD PTR $T12[ebp]
  00319	83 38 00	 cmp	 DWORD PTR [eax], 0
  0031c	74 4b		 je	 SHORT $LN8@Growmap

; 1530 :         return _Mypair._Myval2;

  0031e	8b 45 70	 mov	 eax, DWORD PTR _this$[ebp]
  00321	89 45 8c	 mov	 DWORD PTR $T11[ebp], eax

; 1546 :         return _Get_data()._Mapsize;

  00324	8b 45 8c	 mov	 eax, DWORD PTR $T11[ebp]
  00327	83 c0 08	 add	 eax, 8
  0032a	89 45 84	 mov	 DWORD PTR $T9[ebp], eax

; 1530 :         return _Mypair._Myval2;

  0032d	8b 45 70	 mov	 eax, DWORD PTR _this$[ebp]
  00330	89 45 88	 mov	 DWORD PTR $T10[ebp], eax

; 1538 :         return _Get_data()._Map;

  00333	8b 45 88	 mov	 eax, DWORD PTR $T10[ebp]
  00336	83 c0 04	 add	 eax, 4
  00339	89 45 80	 mov	 DWORD PTR $T8[ebp], eax

; 1462 :             _Almap.deallocate(_Map(), _Mapsize()); // free storage for old

  0033c	8b 45 84	 mov	 eax, DWORD PTR $T9[ebp]
  0033f	8b 00		 mov	 eax, DWORD PTR [eax]
  00341	89 85 7c ff ff
	ff		 mov	 DWORD PTR __Count$[ebp], eax
  00347	8b 45 80	 mov	 eax, DWORD PTR $T8[ebp]
  0034a	8b 00		 mov	 eax, DWORD PTR [eax]
  0034c	89 85 78 ff ff
	ff		 mov	 DWORD PTR __Ptr$[ebp], eax
; File C:\Program Files (x86)\Microsoft Visual Studio\2019\Community\VC\Tools\MSVC\14.28.29333\include\xmemory

; 810  :         _Deallocate<_New_alignof<_Ty>>(_Ptr, sizeof(_Ty) * _Count);

  00352	8b 85 7c ff ff
	ff		 mov	 eax, DWORD PTR __Count$[ebp]
  00358	c1 e0 02	 shl	 eax, 2
  0035b	50		 push	 eax
  0035c	ff b5 78 ff ff
	ff		 push	 DWORD PTR __Ptr$[ebp]
  00362	e8 00 00 00 00	 call	 ??$_Deallocate@$07$0A@@std@@YAXPAXI@Z ; std::_Deallocate<8,0>
  00367	59		 pop	 ecx
  00368	59		 pop	 ecx
$LN8@Growmap:
; File C:\Program Files (x86)\Microsoft Visual Studio\2019\Community\VC\Tools\MSVC\14.28.29333\include\deque

; 1530 :         return _Mypair._Myval2;

  00369	8b 45 70	 mov	 eax, DWORD PTR _this$[ebp]
  0036c	89 85 74 ff ff
	ff		 mov	 DWORD PTR $T7[ebp], eax

; 1538 :         return _Get_data()._Map;

  00372	8b 85 74 ff ff
	ff		 mov	 eax, DWORD PTR $T7[ebp]
  00378	83 c0 04	 add	 eax, 4
  0037b	89 85 70 ff ff
	ff		 mov	 DWORD PTR $T6[ebp], eax

; 1463 :         }
; 1464 : 
; 1465 :         _Map() = _Newmap; // point at new

  00381	8b 85 70 ff ff
	ff		 mov	 eax, DWORD PTR $T6[ebp]
  00387	8b 4d 60	 mov	 ecx, DWORD PTR __Newmap$[ebp]
  0038a	89 08		 mov	 DWORD PTR [eax], ecx

; 1466 :         _Mapsize() += _Count;

  0038c	8b 85 5c ff ff
	ff		 mov	 eax, DWORD PTR $T1[ebp]
  00392	89 45 58	 mov	 DWORD PTR tv212[ebp], eax

; 1530 :         return _Mypair._Myval2;

  00395	8b 45 70	 mov	 eax, DWORD PTR _this$[ebp]
  00398	89 85 6c ff ff
	ff		 mov	 DWORD PTR $T5[ebp], eax

; 1546 :         return _Get_data()._Mapsize;

  0039e	8b 85 6c ff ff
	ff		 mov	 eax, DWORD PTR $T5[ebp]
  003a4	83 c0 08	 add	 eax, 8
  003a7	89 45 58	 mov	 DWORD PTR tv212[ebp], eax

; 1466 :         _Mapsize() += _Count;

  003aa	8b 45 58	 mov	 eax, DWORD PTR tv212[ebp]
  003ad	8b 00		 mov	 eax, DWORD PTR [eax]
  003af	03 45 7c	 add	 eax, DWORD PTR __Count$[ebp]
  003b2	8b 4d 58	 mov	 ecx, DWORD PTR tv212[ebp]
  003b5	89 01		 mov	 DWORD PTR [ecx], eax
$LN83@Growmap:

; 1467 :     }

  003b7	83 c5 74	 add	 ebp, 116		; 00000074H
  003ba	c9		 leave
  003bb	c2 04 00	 ret	 4
?_Growmap@?$deque@V?$basic_string@DU?$char_traits@D@std@@V?$allocator@D@2@@std@@V?$allocator@V?$basic_string@DU?$char_traits@D@std@@V?$allocator@D@2@@std@@@2@@std@@AAEXI@Z ENDP ; std::deque<std::basic_string<char,std::char_traits<char>,std::allocator<char> >,std::allocator<std::basic_string<char,std::char_traits<char>,std::allocator<char> > > >::_Growmap
_TEXT	ENDS
; Function compile flags: /Odspy
; File C:\Program Files (x86)\Microsoft Visual Studio\2019\Community\VC\Tools\MSVC\14.28.29333\include\deque
;	COMDAT ?_Xlen@?$deque@V?$basic_string@DU?$char_traits@D@std@@V?$allocator@D@2@@std@@V?$allocator@V?$basic_string@DU?$char_traits@D@std@@V?$allocator@D@2@@std@@@2@@std@@ABEXXZ
_TEXT	SEGMENT
_this$ = -4						; size = 4
?_Xlen@?$deque@V?$basic_string@DU?$char_traits@D@std@@V?$allocator@D@2@@std@@V?$allocator@V?$basic_string@DU?$char_traits@D@std@@V?$allocator@D@2@@std@@@2@@std@@ABEXXZ PROC ; std::deque<std::basic_string<char,std::char_traits<char>,std::allocator<char> >,std::allocator<std::basic_string<char,std::char_traits<char>,std::allocator<char> > > >::_Xlen, COMDAT
; _this$ = ecx

; 1422 :     [[noreturn]] void _Xlen() const {

  00000	55		 push	 ebp
  00001	8b ec		 mov	 ebp, esp
  00003	51		 push	 ecx
  00004	89 4d fc	 mov	 DWORD PTR _this$[ebp], ecx

; 1423 :         _Xlength_error("deque<T> too long");

  00007	68 00 00 00 00	 push	 OFFSET ??_C@_0BC@KBDMBKEH@deque?$DMT?$DO?5too?5long@
  0000c	e8 00 00 00 00	 call	 ?_Xlength_error@std@@YAXPBD@Z ; std::_Xlength_error
$LN2@Xlen:

; 1424 :     }

  00011	c9		 leave
  00012	c3		 ret	 0
?_Xlen@?$deque@V?$basic_string@DU?$char_traits@D@std@@V?$allocator@D@2@@std@@V?$allocator@V?$basic_string@DU?$char_traits@D@std@@V?$allocator@D@2@@std@@@2@@std@@ABEXXZ ENDP ; std::deque<std::basic_string<char,std::char_traits<char>,std::allocator<char> >,std::allocator<std::basic_string<char,std::char_traits<char>,std::allocator<char> > > >::_Xlen
_TEXT	ENDS
; Function compile flags: /Odspy
; File C:\Program Files (x86)\Microsoft Visual Studio\2019\Community\VC\Tools\MSVC\14.28.29333\include\deque
; File C:\Program Files (x86)\Microsoft Visual Studio\2019\Community\VC\Tools\MSVC\14.28.29333\include\xstddef
; File C:\Program Files (x86)\Microsoft Visual Studio\2019\Community\VC\Tools\MSVC\14.28.29333\include\deque
; File C:\Program Files (x86)\Microsoft Visual Studio\2019\Community\VC\Tools\MSVC\14.28.29333\include\xmemory
; File C:\Program Files (x86)\Microsoft Visual Studio\2019\Community\VC\Tools\MSVC\14.28.29333\include\deque
; File C:\Program Files (x86)\Microsoft Visual Studio\2019\Community\VC\Tools\MSVC\14.28.29333\include\xstring
; File C:\Program Files (x86)\Microsoft Visual Studio\2019\Community\VC\Tools\MSVC\14.28.29333\include\deque
;	COMDAT ?pop_back@?$deque@V?$basic_string@DU?$char_traits@D@std@@V?$allocator@D@2@@std@@V?$allocator@V?$basic_string@DU?$char_traits@D@std@@V?$allocator@D@2@@std@@@2@@std@@QAEXXZ
_TEXT	SEGMENT
$T1 = -80						; size = 4
$T2 = -76						; size = 4
$T3 = -72						; size = 4
$T4 = -68						; size = 4
$T5 = -64						; size = 4
$T6 = -60						; size = 4
__Ptr$ = -56						; size = 4
__Block$ = -52						; size = 4
$T7 = -48						; size = 4
$T8 = -44						; size = 4
$T9 = -40						; size = 4
$T10 = -36						; size = 4
$T11 = -32						; size = 4
$T12 = -28						; size = 4
$T13 = -24						; size = 4
$T14 = -20						; size = 4
$T15 = -16						; size = 4
__Newoff$ = -12						; size = 4
tv88 = -8						; size = 4
_this$ = -4						; size = 4
?pop_back@?$deque@V?$basic_string@DU?$char_traits@D@std@@V?$allocator@D@2@@std@@V?$allocator@V?$basic_string@DU?$char_traits@D@std@@V?$allocator@D@2@@std@@@2@@std@@QAEXXZ PROC ; std::deque<std::basic_string<char,std::char_traits<char>,std::allocator<char> >,std::allocator<std::basic_string<char,std::char_traits<char>,std::allocator<char> > > >::pop_back, COMDAT
; _this$ = ecx

; 1126 :     void pop_back() noexcept /* strengthened */ {

  00000	55		 push	 ebp
  00001	8b ec		 mov	 ebp, esp
  00003	83 ec 50	 sub	 esp, 80			; 00000050H
  00006	89 4d fc	 mov	 DWORD PTR _this$[ebp], ecx

; 1530 :         return _Mypair._Myval2;

  00009	8b 45 fc	 mov	 eax, DWORD PTR _this$[ebp]
  0000c	89 45 ec	 mov	 DWORD PTR $T14[ebp], eax

; 1554 :         return _Get_data()._Myoff;

  0000f	8b 45 ec	 mov	 eax, DWORD PTR $T14[ebp]
  00012	83 c0 0c	 add	 eax, 12			; 0000000cH
  00015	89 45 e4	 mov	 DWORD PTR $T12[ebp], eax

; 1530 :         return _Mypair._Myval2;

  00018	8b 45 fc	 mov	 eax, DWORD PTR _this$[ebp]
  0001b	89 45 e8	 mov	 DWORD PTR $T13[ebp], eax

; 1562 :         return _Get_data()._Mysize;

  0001e	8b 45 e8	 mov	 eax, DWORD PTR $T13[ebp]
  00021	83 c0 10	 add	 eax, 16			; 00000010H
  00024	89 45 e0	 mov	 DWORD PTR $T11[ebp], eax

; 1127 : #if _ITERATOR_DEBUG_LEVEL == 2
; 1128 :         if (empty()) {
; 1129 :             _STL_REPORT_ERROR("deque empty before pop");
; 1130 :         } else { // something to erase, do it
; 1131 :             size_type _Newoff = _Myoff() + _Mysize() - 1;
; 1132 :             _Orphan_off(_Newoff);
; 1133 :             size_type _Block = _Getblock(_Newoff);
; 1134 :             _Alty_traits::destroy(_Getal(), _Unfancy(_Map()[_Block] + _Newoff % _DEQUESIZ));
; 1135 :             if (--_Mysize() == 0) {
; 1136 :                 _Myoff() = 0;
; 1137 :             }
; 1138 :         }
; 1139 : 
; 1140 : #else // _ITERATOR_DEBUG_LEVEL == 2
; 1141 :         size_type _Newoff = _Myoff() + _Mysize() - 1;

  00027	8b 45 e4	 mov	 eax, DWORD PTR $T12[ebp]
  0002a	8b 00		 mov	 eax, DWORD PTR [eax]
  0002c	8b 4d e0	 mov	 ecx, DWORD PTR $T11[ebp]
  0002f	8b 09		 mov	 ecx, DWORD PTR [ecx]
  00031	8d 44 08 ff	 lea	 eax, DWORD PTR [eax+ecx-1]
  00035	89 45 f4	 mov	 DWORD PTR __Newoff$[ebp], eax

; 1534 :         return _Mypair._Myval2;

  00038	8b 45 fc	 mov	 eax, DWORD PTR _this$[ebp]
  0003b	89 45 dc	 mov	 DWORD PTR $T10[ebp], eax

; 548  :         return (_Off / _DEQUESIZ) & (_Mapsize - 1);

  0003e	8b 45 dc	 mov	 eax, DWORD PTR $T10[ebp]
  00041	8b 40 08	 mov	 eax, DWORD PTR [eax+8]
  00044	48		 dec	 eax
  00045	23 45 f4	 and	 eax, DWORD PTR __Newoff$[ebp]
  00048	89 45 d8	 mov	 DWORD PTR $T9[ebp], eax

; 1514 :         return _Get_data()._Getblock(_Off);

  0004b	8b 45 d8	 mov	 eax, DWORD PTR $T9[ebp]
  0004e	89 45 cc	 mov	 DWORD PTR __Block$[ebp], eax

; 1530 :         return _Mypair._Myval2;

  00051	8b 45 fc	 mov	 eax, DWORD PTR _this$[ebp]
  00054	89 45 d4	 mov	 DWORD PTR $T8[ebp], eax

; 1538 :         return _Get_data()._Map;

  00057	8b 45 d4	 mov	 eax, DWORD PTR $T8[ebp]
  0005a	83 c0 04	 add	 eax, 4
  0005d	89 45 d0	 mov	 DWORD PTR $T7[ebp], eax

; 1142 :         size_type _Block  = _Getblock(_Newoff);
; 1143 :         _Alty_traits::destroy(_Getal(), _Unfancy(_Map()[_Block] + _Newoff % _DEQUESIZ));

  00060	8b 45 f4	 mov	 eax, DWORD PTR __Newoff$[ebp]
  00063	33 d2		 xor	 edx, edx
  00065	33 c9		 xor	 ecx, ecx
  00067	41		 inc	 ecx
  00068	f7 f1		 div	 ecx
  0006a	6b c2 18	 imul	 eax, edx, 24
  0006d	8b 4d d0	 mov	 ecx, DWORD PTR $T7[ebp]
  00070	8b 09		 mov	 ecx, DWORD PTR [ecx]
  00072	8b 55 cc	 mov	 edx, DWORD PTR __Block$[ebp]
  00075	03 04 91	 add	 eax, DWORD PTR [ecx+edx*4]
  00078	89 45 c8	 mov	 DWORD PTR __Ptr$[ebp], eax
; File C:\Program Files (x86)\Microsoft Visual Studio\2019\Community\VC\Tools\MSVC\14.28.29333\include\xstddef

; 289  :     return _Ptr;

  0007b	8b 45 c8	 mov	 eax, DWORD PTR __Ptr$[ebp]
  0007e	89 45 f0	 mov	 DWORD PTR $T15[ebp], eax
; File C:\Program Files (x86)\Microsoft Visual Studio\2019\Community\VC\Tools\MSVC\14.28.29333\include\deque

; 1522 :         return _Mypair._Get_first();

  00081	8b 45 fc	 mov	 eax, DWORD PTR _this$[ebp]
; File C:\Program Files (x86)\Microsoft Visual Studio\2019\Community\VC\Tools\MSVC\14.28.29333\include\xmemory

; 1347 :         return *this;

  00084	89 45 c4	 mov	 DWORD PTR $T6[ebp], eax
; File C:\Program Files (x86)\Microsoft Visual Studio\2019\Community\VC\Tools\MSVC\14.28.29333\include\deque

; 1522 :         return _Mypair._Get_first();

  00087	8b 45 c4	 mov	 eax, DWORD PTR $T6[ebp]
  0008a	89 45 b4	 mov	 DWORD PTR $T2[ebp], eax
; File C:\Program Files (x86)\Microsoft Visual Studio\2019\Community\VC\Tools\MSVC\14.28.29333\include\xstring

; 2801 :         _Tidy_deallocate();

  0008d	8b 4d f0	 mov	 ecx, DWORD PTR $T15[ebp]
  00090	e8 00 00 00 00	 call	 ?_Tidy_deallocate@?$basic_string@DU?$char_traits@D@std@@V?$allocator@D@2@@std@@AAEXXZ ; std::basic_string<char,std::char_traits<char>,std::allocator<char> >::_Tidy_deallocate
  00095	33 c0		 xor	 eax, eax
  00097	83 e0 01	 and	 eax, 1
  0009a	74 0c		 je	 SHORT $LN40@pop_back
  0009c	6a 18		 push	 24			; 00000018H
  0009e	ff 75 f0	 push	 DWORD PTR $T15[ebp]
  000a1	e8 00 00 00 00	 call	 ??3@YAXPAXI@Z		; operator delete
  000a6	59		 pop	 ecx
  000a7	59		 pop	 ecx
$LN40@pop_back:
; File C:\Program Files (x86)\Microsoft Visual Studio\2019\Community\VC\Tools\MSVC\14.28.29333\include\deque

; 1144 :         if (--_Mysize() == 0) {

  000a8	8b 45 b0	 mov	 eax, DWORD PTR $T1[ebp]
  000ab	89 45 f8	 mov	 DWORD PTR tv88[ebp], eax

; 1530 :         return _Mypair._Myval2;

  000ae	8b 45 fc	 mov	 eax, DWORD PTR _this$[ebp]
  000b1	89 45 c0	 mov	 DWORD PTR $T5[ebp], eax

; 1562 :         return _Get_data()._Mysize;

  000b4	8b 45 c0	 mov	 eax, DWORD PTR $T5[ebp]
  000b7	83 c0 10	 add	 eax, 16			; 00000010H
  000ba	89 45 f8	 mov	 DWORD PTR tv88[ebp], eax

; 1144 :         if (--_Mysize() == 0) {

  000bd	8b 45 f8	 mov	 eax, DWORD PTR tv88[ebp]
  000c0	8b 00		 mov	 eax, DWORD PTR [eax]
  000c2	48		 dec	 eax
  000c3	8b 4d f8	 mov	 ecx, DWORD PTR tv88[ebp]
  000c6	89 01		 mov	 DWORD PTR [ecx], eax
  000c8	8b 45 f8	 mov	 eax, DWORD PTR tv88[ebp]
  000cb	83 38 00	 cmp	 DWORD PTR [eax], 0
  000ce	75 15		 jne	 SHORT $LN3@pop_back

; 1530 :         return _Mypair._Myval2;

  000d0	8b 45 fc	 mov	 eax, DWORD PTR _this$[ebp]
  000d3	89 45 bc	 mov	 DWORD PTR $T4[ebp], eax

; 1554 :         return _Get_data()._Myoff;

  000d6	8b 45 bc	 mov	 eax, DWORD PTR $T4[ebp]
  000d9	83 c0 0c	 add	 eax, 12			; 0000000cH
  000dc	89 45 b8	 mov	 DWORD PTR $T3[ebp], eax

; 1145 :             _Myoff() = 0;

  000df	8b 45 b8	 mov	 eax, DWORD PTR $T3[ebp]
  000e2	83 20 00	 and	 DWORD PTR [eax], 0
$LN3@pop_back:

; 1146 :         }
; 1147 : #endif // _ITERATOR_DEBUG_LEVEL == 2
; 1148 :     }

  000e5	c9		 leave
  000e6	c3		 ret	 0
?pop_back@?$deque@V?$basic_string@DU?$char_traits@D@std@@V?$allocator@D@2@@std@@V?$allocator@V?$basic_string@DU?$char_traits@D@std@@V?$allocator@D@2@@std@@@2@@std@@QAEXXZ ENDP ; std::deque<std::basic_string<char,std::char_traits<char>,std::allocator<char> >,std::allocator<std::basic_string<char,std::char_traits<char>,std::allocator<char> > > >::pop_back
_TEXT	ENDS
; Function compile flags: /Odspy
; File C:\Program Files (x86)\Microsoft Visual Studio\2019\Community\VC\Tools\MSVC\14.28.29333\include\deque
; File C:\Program Files (x86)\Microsoft Visual Studio\2019\Community\VC\Tools\MSVC\14.28.29333\include\xstddef
; File C:\Program Files (x86)\Microsoft Visual Studio\2019\Community\VC\Tools\MSVC\14.28.29333\include\deque
; File C:\Program Files (x86)\Microsoft Visual Studio\2019\Community\VC\Tools\MSVC\14.28.29333\include\xmemory
; File C:\Program Files (x86)\Microsoft Visual Studio\2019\Community\VC\Tools\MSVC\14.28.29333\include\deque
; File C:\Program Files (x86)\Microsoft Visual Studio\2019\Community\VC\Tools\MSVC\14.28.29333\include\xmemory
; File C:\Program Files (x86)\Microsoft Visual Studio\2019\Community\VC\Tools\MSVC\14.28.29333\include\deque
;	COMDAT ?end@?$deque@V?$basic_string@DU?$char_traits@D@std@@V?$allocator@D@2@@std@@V?$allocator@V?$basic_string@DU?$char_traits@D@std@@V?$allocator@D@2@@std@@@2@@std@@QAE?AV?$_Deque_iterator@V?$_Deque_val@U?$_Deque_simple_types@V?$basic_string@DU?$char_traits@D@std@@V?$allocator@D@2@@std@@@std@@@std@@@2@XZ
_TEXT	SEGMENT
__Parent_proxy$1 = -36					; size = 4
___param0$ = -32					; size = 4
$T2 = -28						; size = 4
$T3 = -24						; size = 4
$T4 = -20						; size = 4
$T5 = -16						; size = 4
$T6 = -12						; size = 4
$T7 = -8						; size = 4
_this$ = -4						; size = 4
___$ReturnUdt$ = 8					; size = 4
?end@?$deque@V?$basic_string@DU?$char_traits@D@std@@V?$allocator@D@2@@std@@V?$allocator@V?$basic_string@DU?$char_traits@D@std@@V?$allocator@D@2@@std@@@2@@std@@QAE?AV?$_Deque_iterator@V?$_Deque_val@U?$_Deque_simple_types@V?$basic_string@DU?$char_traits@D@std@@V?$allocator@D@2@@std@@@std@@@std@@@2@XZ PROC ; std::deque<std::basic_string<char,std::char_traits<char>,std::allocator<char> >,std::allocator<std::basic_string<char,std::char_traits<char>,std::allocator<char> > > >::end, COMDAT
; _this$ = ecx

; 905  :     _NODISCARD iterator end() noexcept {

  00000	55		 push	 ebp
  00001	8b ec		 mov	 ebp, esp
  00003	83 ec 24	 sub	 esp, 36			; 00000024H
  00006	89 4d fc	 mov	 DWORD PTR _this$[ebp], ecx

; 1530 :         return _Mypair._Myval2;

  00009	8b 45 fc	 mov	 eax, DWORD PTR _this$[ebp]
  0000c	89 45 f4	 mov	 DWORD PTR $T6[ebp], eax
; File C:\Program Files (x86)\Microsoft Visual Studio\2019\Community\VC\Tools\MSVC\14.28.29333\include\xstddef

; 275  :     return __builtin_addressof(_Val);

  0000f	8b 45 f4	 mov	 eax, DWORD PTR $T6[ebp]
  00012	89 45 f8	 mov	 DWORD PTR $T7[ebp], eax
; File C:\Program Files (x86)\Microsoft Visual Studio\2019\Community\VC\Tools\MSVC\14.28.29333\include\deque

; 1530 :         return _Mypair._Myval2;

  00015	8b 45 fc	 mov	 eax, DWORD PTR _this$[ebp]
  00018	89 45 f0	 mov	 DWORD PTR $T5[ebp], eax

; 1554 :         return _Get_data()._Myoff;

  0001b	8b 45 f0	 mov	 eax, DWORD PTR $T5[ebp]
  0001e	83 c0 0c	 add	 eax, 12			; 0000000cH
  00021	89 45 e8	 mov	 DWORD PTR $T3[ebp], eax

; 1530 :         return _Mypair._Myval2;

  00024	8b 45 fc	 mov	 eax, DWORD PTR _this$[ebp]
  00027	89 45 ec	 mov	 DWORD PTR $T4[ebp], eax

; 1562 :         return _Get_data()._Mysize;

  0002a	8b 45 ec	 mov	 eax, DWORD PTR $T4[ebp]
  0002d	83 c0 10	 add	 eax, 16			; 00000010H
  00030	89 45 e4	 mov	 DWORD PTR $T2[ebp], eax

; 906  :         return iterator(_Myoff() + _Mysize(), _STD addressof(_Get_data()));

  00033	8b 45 e8	 mov	 eax, DWORD PTR $T3[ebp]
  00036	8b 00		 mov	 eax, DWORD PTR [eax]
  00038	8b 4d e4	 mov	 ecx, DWORD PTR $T2[ebp]
  0003b	03 01		 add	 eax, DWORD PTR [ecx]
  0003d	89 45 e0	 mov	 DWORD PTR ___param0$[ebp], eax
; File C:\Program Files (x86)\Microsoft Visual Studio\2019\Community\VC\Tools\MSVC\14.28.29333\include\xmemory

; 1126 :     _Iterator_base12() noexcept : _Myproxy(nullptr), _Mynextiter(nullptr) {} // construct orphaned iterator

  00040	8b 45 08	 mov	 eax, DWORD PTR ___$ReturnUdt$[ebp]
  00043	83 20 00	 and	 DWORD PTR [eax], 0
  00046	8b 45 08	 mov	 eax, DWORD PTR ___$ReturnUdt$[ebp]
  00049	83 60 04 00	 and	 DWORD PTR [eax+4], 0
; File C:\Program Files (x86)\Microsoft Visual Studio\2019\Community\VC\Tools\MSVC\14.28.29333\include\deque

; 256  :     _Deque_const_iterator(_Size_type _Off, const _Container_base12* _Pdeque) noexcept : _Myoff(_Off) {

  0004d	8b 45 08	 mov	 eax, DWORD PTR ___$ReturnUdt$[ebp]
  00050	8b 4d e0	 mov	 ecx, DWORD PTR ___param0$[ebp]
  00053	89 48 08	 mov	 DWORD PTR [eax+8], ecx
; File C:\Program Files (x86)\Microsoft Visual Studio\2019\Community\VC\Tools\MSVC\14.28.29333\include\xmemory

; 1157 :         if (_Parent) {

  00056	83 7d f8 00	 cmp	 DWORD PTR $T7[ebp], 0
  0005a	74 12		 je	 SHORT $LN34@end

; 1158 :             // have a parent, do adoption
; 1159 :             _Container_proxy* _Parent_proxy = _Parent->_Myproxy;

  0005c	8b 45 f8	 mov	 eax, DWORD PTR $T7[ebp]
  0005f	8b 00		 mov	 eax, DWORD PTR [eax]
  00061	89 45 dc	 mov	 DWORD PTR __Parent_proxy$1[ebp], eax

; 1160 : 
; 1161 : #if _ITERATOR_DEBUG_LEVEL == 2
; 1162 :             if (_Myproxy != _Parent_proxy) { // change parentage
; 1163 :                 _Lockit _Lock(_LOCK_DEBUG);
; 1164 :                 _Orphan_me();
; 1165 :                 _Mynextiter                 = _Parent_proxy->_Myfirstiter;
; 1166 :                 _Parent_proxy->_Myfirstiter = this;
; 1167 :                 _Myproxy                    = _Parent_proxy;
; 1168 :             }
; 1169 : 
; 1170 : #else // _ITERATOR_DEBUG_LEVEL == 2
; 1171 :             _Myproxy = _Parent_proxy;

  00064	8b 45 08	 mov	 eax, DWORD PTR ___$ReturnUdt$[ebp]
  00067	8b 4d dc	 mov	 ecx, DWORD PTR __Parent_proxy$1[ebp]
  0006a	89 08		 mov	 DWORD PTR [eax], ecx

; 1172 : #endif // _ITERATOR_DEBUG_LEVEL == 2
; 1173 :         } else {

  0006c	eb 06		 jmp	 SHORT $LN22@end
$LN34@end:

; 1174 :             // no future parent, just disown current parent
; 1175 : #if _ITERATOR_DEBUG_LEVEL == 2
; 1176 :             _Lockit _Lock(_LOCK_DEBUG);
; 1177 :             _Orphan_me();
; 1178 : #else // _ITERATOR_DEBUG_LEVEL == 2
; 1179 :             _Myproxy = nullptr;

  0006e	8b 45 08	 mov	 eax, DWORD PTR ___$ReturnUdt$[ebp]
  00071	83 20 00	 and	 DWORD PTR [eax], 0
$LN22@end:
; File C:\Program Files (x86)\Microsoft Visual Studio\2019\Community\VC\Tools\MSVC\14.28.29333\include\deque

; 906  :         return iterator(_Myoff() + _Mysize(), _STD addressof(_Get_data()));

  00074	8b 45 08	 mov	 eax, DWORD PTR ___$ReturnUdt$[ebp]

; 907  :     }

  00077	c9		 leave
  00078	c2 04 00	 ret	 4
?end@?$deque@V?$basic_string@DU?$char_traits@D@std@@V?$allocator@D@2@@std@@V?$allocator@V?$basic_string@DU?$char_traits@D@std@@V?$allocator@D@2@@std@@@2@@std@@QAE?AV?$_Deque_iterator@V?$_Deque_val@U?$_Deque_simple_types@V?$basic_string@DU?$char_traits@D@std@@V?$allocator@D@2@@std@@@std@@@std@@@2@XZ ENDP ; std::deque<std::basic_string<char,std::char_traits<char>,std::allocator<char> >,std::allocator<std::basic_string<char,std::char_traits<char>,std::allocator<char> > > >::end
_TEXT	ENDS
; Function compile flags: /Odspy
; File C:\Program Files (x86)\Microsoft Visual Studio\2019\Community\VC\Tools\MSVC\14.28.29333\include\deque
; File C:\Program Files (x86)\Microsoft Visual Studio\2019\Community\VC\Tools\MSVC\14.28.29333\include\xstddef
; File C:\Program Files (x86)\Microsoft Visual Studio\2019\Community\VC\Tools\MSVC\14.28.29333\include\deque
; File C:\Program Files (x86)\Microsoft Visual Studio\2019\Community\VC\Tools\MSVC\14.28.29333\include\xmemory
; File C:\Program Files (x86)\Microsoft Visual Studio\2019\Community\VC\Tools\MSVC\14.28.29333\include\deque
; File C:\Program Files (x86)\Microsoft Visual Studio\2019\Community\VC\Tools\MSVC\14.28.29333\include\xmemory
; File C:\Program Files (x86)\Microsoft Visual Studio\2019\Community\VC\Tools\MSVC\14.28.29333\include\deque
;	COMDAT ?begin@?$deque@V?$basic_string@DU?$char_traits@D@std@@V?$allocator@D@2@@std@@V?$allocator@V?$basic_string@DU?$char_traits@D@std@@V?$allocator@D@2@@std@@@2@@std@@QAE?AV?$_Deque_iterator@V?$_Deque_val@U?$_Deque_simple_types@V?$basic_string@DU?$char_traits@D@std@@V?$allocator@D@2@@std@@@std@@@std@@@2@XZ
_TEXT	SEGMENT
__Parent_proxy$1 = -28					; size = 4
___param0$ = -24					; size = 4
$T2 = -20						; size = 4
$T3 = -16						; size = 4
$T4 = -12						; size = 4
$T5 = -8						; size = 4
_this$ = -4						; size = 4
___$ReturnUdt$ = 8					; size = 4
?begin@?$deque@V?$basic_string@DU?$char_traits@D@std@@V?$allocator@D@2@@std@@V?$allocator@V?$basic_string@DU?$char_traits@D@std@@V?$allocator@D@2@@std@@@2@@std@@QAE?AV?$_Deque_iterator@V?$_Deque_val@U?$_Deque_simple_types@V?$basic_string@DU?$char_traits@D@std@@V?$allocator@D@2@@std@@@std@@@std@@@2@XZ PROC ; std::deque<std::basic_string<char,std::char_traits<char>,std::allocator<char> >,std::allocator<std::basic_string<char,std::char_traits<char>,std::allocator<char> > > >::begin, COMDAT
; _this$ = ecx

; 897  :     _NODISCARD iterator begin() noexcept {

  00000	55		 push	 ebp
  00001	8b ec		 mov	 ebp, esp
  00003	83 ec 1c	 sub	 esp, 28			; 0000001cH
  00006	89 4d fc	 mov	 DWORD PTR _this$[ebp], ecx

; 1530 :         return _Mypair._Myval2;

  00009	8b 45 fc	 mov	 eax, DWORD PTR _this$[ebp]
  0000c	89 45 f4	 mov	 DWORD PTR $T4[ebp], eax
; File C:\Program Files (x86)\Microsoft Visual Studio\2019\Community\VC\Tools\MSVC\14.28.29333\include\xstddef

; 275  :     return __builtin_addressof(_Val);

  0000f	8b 45 f4	 mov	 eax, DWORD PTR $T4[ebp]
  00012	89 45 f8	 mov	 DWORD PTR $T5[ebp], eax
; File C:\Program Files (x86)\Microsoft Visual Studio\2019\Community\VC\Tools\MSVC\14.28.29333\include\deque

; 1530 :         return _Mypair._Myval2;

  00015	8b 45 fc	 mov	 eax, DWORD PTR _this$[ebp]
  00018	89 45 f0	 mov	 DWORD PTR $T3[ebp], eax

; 1554 :         return _Get_data()._Myoff;

  0001b	8b 45 f0	 mov	 eax, DWORD PTR $T3[ebp]
  0001e	83 c0 0c	 add	 eax, 12			; 0000000cH
  00021	89 45 ec	 mov	 DWORD PTR $T2[ebp], eax

; 898  :         return iterator(_Myoff(), _STD addressof(_Get_data()));

  00024	8b 45 ec	 mov	 eax, DWORD PTR $T2[ebp]
  00027	8b 00		 mov	 eax, DWORD PTR [eax]
  00029	89 45 e8	 mov	 DWORD PTR ___param0$[ebp], eax
; File C:\Program Files (x86)\Microsoft Visual Studio\2019\Community\VC\Tools\MSVC\14.28.29333\include\xmemory

; 1126 :     _Iterator_base12() noexcept : _Myproxy(nullptr), _Mynextiter(nullptr) {} // construct orphaned iterator

  0002c	8b 45 08	 mov	 eax, DWORD PTR ___$ReturnUdt$[ebp]
  0002f	83 20 00	 and	 DWORD PTR [eax], 0
  00032	8b 45 08	 mov	 eax, DWORD PTR ___$ReturnUdt$[ebp]
  00035	83 60 04 00	 and	 DWORD PTR [eax+4], 0
; File C:\Program Files (x86)\Microsoft Visual Studio\2019\Community\VC\Tools\MSVC\14.28.29333\include\deque

; 256  :     _Deque_const_iterator(_Size_type _Off, const _Container_base12* _Pdeque) noexcept : _Myoff(_Off) {

  00039	8b 45 08	 mov	 eax, DWORD PTR ___$ReturnUdt$[ebp]
  0003c	8b 4d e8	 mov	 ecx, DWORD PTR ___param0$[ebp]
  0003f	89 48 08	 mov	 DWORD PTR [eax+8], ecx
; File C:\Program Files (x86)\Microsoft Visual Studio\2019\Community\VC\Tools\MSVC\14.28.29333\include\xmemory

; 1157 :         if (_Parent) {

  00042	83 7d f8 00	 cmp	 DWORD PTR $T5[ebp], 0
  00046	74 12		 je	 SHORT $LN28@begin

; 1158 :             // have a parent, do adoption
; 1159 :             _Container_proxy* _Parent_proxy = _Parent->_Myproxy;

  00048	8b 45 f8	 mov	 eax, DWORD PTR $T5[ebp]
  0004b	8b 00		 mov	 eax, DWORD PTR [eax]
  0004d	89 45 e4	 mov	 DWORD PTR __Parent_proxy$1[ebp], eax

; 1160 : 
; 1161 : #if _ITERATOR_DEBUG_LEVEL == 2
; 1162 :             if (_Myproxy != _Parent_proxy) { // change parentage
; 1163 :                 _Lockit _Lock(_LOCK_DEBUG);
; 1164 :                 _Orphan_me();
; 1165 :                 _Mynextiter                 = _Parent_proxy->_Myfirstiter;
; 1166 :                 _Parent_proxy->_Myfirstiter = this;
; 1167 :                 _Myproxy                    = _Parent_proxy;
; 1168 :             }
; 1169 : 
; 1170 : #else // _ITERATOR_DEBUG_LEVEL == 2
; 1171 :             _Myproxy = _Parent_proxy;

  00050	8b 45 08	 mov	 eax, DWORD PTR ___$ReturnUdt$[ebp]
  00053	8b 4d e4	 mov	 ecx, DWORD PTR __Parent_proxy$1[ebp]
  00056	89 08		 mov	 DWORD PTR [eax], ecx

; 1172 : #endif // _ITERATOR_DEBUG_LEVEL == 2
; 1173 :         } else {

  00058	eb 06		 jmp	 SHORT $LN16@begin
$LN28@begin:

; 1174 :             // no future parent, just disown current parent
; 1175 : #if _ITERATOR_DEBUG_LEVEL == 2
; 1176 :             _Lockit _Lock(_LOCK_DEBUG);
; 1177 :             _Orphan_me();
; 1178 : #else // _ITERATOR_DEBUG_LEVEL == 2
; 1179 :             _Myproxy = nullptr;

  0005a	8b 45 08	 mov	 eax, DWORD PTR ___$ReturnUdt$[ebp]
  0005d	83 20 00	 and	 DWORD PTR [eax], 0
$LN16@begin:
; File C:\Program Files (x86)\Microsoft Visual Studio\2019\Community\VC\Tools\MSVC\14.28.29333\include\deque

; 898  :         return iterator(_Myoff(), _STD addressof(_Get_data()));

  00060	8b 45 08	 mov	 eax, DWORD PTR ___$ReturnUdt$[ebp]

; 899  :     }

  00063	c9		 leave
  00064	c2 04 00	 ret	 4
?begin@?$deque@V?$basic_string@DU?$char_traits@D@std@@V?$allocator@D@2@@std@@V?$allocator@V?$basic_string@DU?$char_traits@D@std@@V?$allocator@D@2@@std@@@2@@std@@QAE?AV?$_Deque_iterator@V?$_Deque_val@U?$_Deque_simple_types@V?$basic_string@DU?$char_traits@D@std@@V?$allocator@D@2@@std@@@std@@@std@@@2@XZ ENDP ; std::deque<std::basic_string<char,std::char_traits<char>,std::allocator<char> >,std::allocator<std::basic_string<char,std::char_traits<char>,std::allocator<char> > > >::begin
_TEXT	ENDS
; Function compile flags: /Odspy
; File C:\Program Files (x86)\Microsoft Visual Studio\2019\Community\VC\Tools\MSVC\14.28.29333\include\deque
; File C:\Program Files (x86)\Microsoft Visual Studio\2019\Community\VC\Tools\MSVC\14.28.29333\include\xmemory
; File C:\Program Files (x86)\Microsoft Visual Studio\2019\Community\VC\Tools\MSVC\14.28.29333\include\deque
; File C:\Program Files (x86)\Microsoft Visual Studio\2019\Community\VC\Tools\MSVC\14.28.29333\include\utility
; File C:\Program Files (x86)\Microsoft Visual Studio\2019\Community\VC\Tools\MSVC\14.28.29333\include\deque
;	COMDAT ??1?$deque@V?$basic_string@DU?$char_traits@D@std@@V?$allocator@D@2@@std@@V?$allocator@V?$basic_string@DU?$char_traits@D@std@@V?$allocator@D@2@@std@@@2@@std@@QAE@XZ
_TEXT	SEGMENT
$T1 = -32						; size = 4
$T2 = -28						; size = 4
__Old_val$3 = -24					; size = 4
$T4 = -20						; size = 4
$T5 = -16						; size = 4
$T6 = -12						; size = 4
_this$ = -8						; size = 4
__Proxy_allocator$ = -1					; size = 1
??1?$deque@V?$basic_string@DU?$char_traits@D@std@@V?$allocator@D@2@@std@@V?$allocator@V?$basic_string@DU?$char_traits@D@std@@V?$allocator@D@2@@std@@@2@@std@@QAE@XZ PROC ; std::deque<std::basic_string<char,std::char_traits<char>,std::allocator<char> >,std::allocator<std::basic_string<char,std::char_traits<char>,std::allocator<char> > > >::~deque<std::basic_string<char,std::char_traits<char>,std::allocator<char> >,std::allocator<std::basic_string<char,std::char_traits<char>,std::allocator<char> > > >, COMDAT
; _this$ = ecx

; 869  :     ~deque() noexcept {

  00000	55		 push	 ebp
  00001	8b ec		 mov	 ebp, esp
  00003	83 ec 20	 sub	 esp, 32			; 00000020H
  00006	89 4d f8	 mov	 DWORD PTR _this$[ebp], ecx

; 870  :         _Tidy();

  00009	8b 4d f8	 mov	 ecx, DWORD PTR _this$[ebp]
  0000c	e8 00 00 00 00	 call	 ?_Tidy@?$deque@V?$basic_string@DU?$char_traits@D@std@@V?$allocator@D@2@@std@@V?$allocator@V?$basic_string@DU?$char_traits@D@std@@V?$allocator@D@2@@std@@@2@@std@@AAEXXZ ; std::deque<std::basic_string<char,std::char_traits<char>,std::allocator<char> >,std::allocator<std::basic_string<char,std::char_traits<char>,std::allocator<char> > > >::_Tidy

; 1522 :         return _Mypair._Get_first();

  00011	8b 45 f8	 mov	 eax, DWORD PTR _this$[ebp]
; File C:\Program Files (x86)\Microsoft Visual Studio\2019\Community\VC\Tools\MSVC\14.28.29333\include\xmemory

; 1347 :         return *this;

  00014	89 45 f0	 mov	 DWORD PTR $T5[ebp], eax
; File C:\Program Files (x86)\Microsoft Visual Studio\2019\Community\VC\Tools\MSVC\14.28.29333\include\deque

; 1522 :         return _Mypair._Get_first();

  00017	8b 45 f0	 mov	 eax, DWORD PTR $T5[ebp]
  0001a	89 45 e0	 mov	 DWORD PTR $T1[ebp], eax

; 872  :         _Delete_plain_internal(_Proxy_allocator, _STD exchange(_Get_data()._Myproxy, nullptr));

  0001d	83 65 ec 00	 and	 DWORD PTR $T4[ebp], 0

; 1530 :         return _Mypair._Myval2;

  00021	8b 45 f8	 mov	 eax, DWORD PTR _this$[ebp]
  00024	89 45 f4	 mov	 DWORD PTR $T6[ebp], eax
; File C:\Program Files (x86)\Microsoft Visual Studio\2019\Community\VC\Tools\MSVC\14.28.29333\include\utility

; 598  :     _Ty _Old_val = static_cast<_Ty&&>(_Val);

  00027	8b 45 f4	 mov	 eax, DWORD PTR $T6[ebp]
  0002a	8b 00		 mov	 eax, DWORD PTR [eax]
  0002c	89 45 e8	 mov	 DWORD PTR __Old_val$3[ebp], eax

; 599  :     _Val         = static_cast<_Other&&>(_New_val);

  0002f	8b 45 f4	 mov	 eax, DWORD PTR $T6[ebp]
  00032	8b 4d ec	 mov	 ecx, DWORD PTR $T4[ebp]
  00035	89 08		 mov	 DWORD PTR [eax], ecx

; 600  :     return _Old_val;

  00037	8b 45 e8	 mov	 eax, DWORD PTR __Old_val$3[ebp]
  0003a	89 45 e4	 mov	 DWORD PTR $T2[ebp], eax
; File C:\Program Files (x86)\Microsoft Visual Studio\2019\Community\VC\Tools\MSVC\14.28.29333\include\deque

; 872  :         _Delete_plain_internal(_Proxy_allocator, _STD exchange(_Get_data()._Myproxy, nullptr));

  0003d	ff 75 e4	 push	 DWORD PTR $T2[ebp]
  00040	8d 45 ff	 lea	 eax, DWORD PTR __Proxy_allocator$[ebp]
  00043	50		 push	 eax
  00044	e8 00 00 00 00	 call	 ??$_Delete_plain_internal@V?$allocator@U_Container_proxy@std@@@std@@@std@@YAXAAV?$allocator@U_Container_proxy@std@@@0@QAU_Container_proxy@0@@Z ; std::_Delete_plain_internal<std::allocator<std::_Container_proxy> >
  00049	59		 pop	 ecx
  0004a	59		 pop	 ecx

; 873  :     }

  0004b	c9		 leave
  0004c	c3		 ret	 0
??1?$deque@V?$basic_string@DU?$char_traits@D@std@@V?$allocator@D@2@@std@@V?$allocator@V?$basic_string@DU?$char_traits@D@std@@V?$allocator@D@2@@std@@@2@@std@@QAE@XZ ENDP ; std::deque<std::basic_string<char,std::char_traits<char>,std::allocator<char> >,std::allocator<std::basic_string<char,std::char_traits<char>,std::allocator<char> > > >::~deque<std::basic_string<char,std::char_traits<char>,std::allocator<char> >,std::allocator<std::basic_string<char,std::char_traits<char>,std::allocator<char> > > >
_TEXT	ENDS
; Function compile flags: /Odspy
; File C:\Program Files (x86)\Microsoft Visual Studio\2019\Community\VC\Tools\MSVC\14.28.29333\include\deque
; File C:\Program Files (x86)\Microsoft Visual Studio\2019\Community\VC\Tools\MSVC\14.28.29333\include\xmemory
; File C:\Program Files (x86)\Microsoft Visual Studio\2019\Community\VC\Tools\MSVC\14.28.29333\include\deque
; File C:\Program Files (x86)\Microsoft Visual Studio\2019\Community\VC\Tools\MSVC\14.28.29333\include\xmemory
; File C:\Program Files (x86)\Microsoft Visual Studio\2019\Community\VC\Tools\MSVC\14.28.29333\include\deque
;	COMDAT ??0?$deque@V?$basic_string@DU?$char_traits@D@std@@V?$allocator@D@2@@std@@V?$allocator@V?$basic_string@DU?$char_traits@D@std@@V?$allocator@D@2@@std@@@2@@std@@QAE@XZ
_TEXT	SEGMENT
$T1 = -24						; size = 4
$T2 = -20						; size = 4
$T3 = -16						; size = 4
_this$ = -12						; size = 4
_this$ = -8						; size = 4
$T4 = -1						; size = 1
??0?$deque@V?$basic_string@DU?$char_traits@D@std@@V?$allocator@D@2@@std@@V?$allocator@V?$basic_string@DU?$char_traits@D@std@@V?$allocator@D@2@@std@@@2@@std@@QAE@XZ PROC ; std::deque<std::basic_string<char,std::char_traits<char>,std::allocator<char> >,std::allocator<std::basic_string<char,std::char_traits<char>,std::allocator<char> > > >::deque<std::basic_string<char,std::char_traits<char>,std::allocator<char> >,std::allocator<std::basic_string<char,std::char_traits<char>,std::allocator<char> > > >, COMDAT
; _this$ = ecx

; 596  :     deque() : _Mypair(_Zero_then_variadic_args_t{}) {

  00000	55		 push	 ebp
  00001	8b ec		 mov	 ebp, esp
  00003	83 ec 18	 sub	 esp, 24			; 00000018H
  00006	89 4d f8	 mov	 DWORD PTR _this$[ebp], ecx
  00009	8b 45 f8	 mov	 eax, DWORD PTR _this$[ebp]
  0000c	89 45 f4	 mov	 DWORD PTR _this$[ebp], eax
; File C:\Program Files (x86)\Microsoft Visual Studio\2019\Community\VC\Tools\MSVC\14.28.29333\include\xmemory

; 1339 :         : _Ty1(), _Myval2(_STD forward<_Other2>(_Val2)...) {}

  0000f	8b 4d f4	 mov	 ecx, DWORD PTR _this$[ebp]
  00012	e8 00 00 00 00	 call	 ??0?$_Deque_val@U?$_Deque_simple_types@V?$basic_string@DU?$char_traits@D@std@@V?$allocator@D@2@@std@@@std@@@std@@QAE@XZ ; std::_Deque_val<std::_Deque_simple_types<std::basic_string<char,std::char_traits<char>,std::allocator<char> > > >::_Deque_val<std::_Deque_simple_types<std::basic_string<char,std::char_traits<char>,std::allocator<char> > > >
; File C:\Program Files (x86)\Microsoft Visual Studio\2019\Community\VC\Tools\MSVC\14.28.29333\include\deque

; 1522 :         return _Mypair._Get_first();

  00017	8b 45 f8	 mov	 eax, DWORD PTR _this$[ebp]
; File C:\Program Files (x86)\Microsoft Visual Studio\2019\Community\VC\Tools\MSVC\14.28.29333\include\xmemory

; 1347 :         return *this;

  0001a	89 45 f0	 mov	 DWORD PTR $T3[ebp], eax
; File C:\Program Files (x86)\Microsoft Visual Studio\2019\Community\VC\Tools\MSVC\14.28.29333\include\deque

; 1522 :         return _Mypair._Get_first();

  0001d	8b 45 f0	 mov	 eax, DWORD PTR $T3[ebp]
  00020	89 45 e8	 mov	 DWORD PTR $T1[ebp], eax

; 1530 :         return _Mypair._Myval2;

  00023	8b 45 f8	 mov	 eax, DWORD PTR _this$[ebp]
  00026	89 45 ec	 mov	 DWORD PTR $T2[ebp], eax

; 597  :         _Get_data()._Alloc_proxy(static_cast<_Alproxy_ty>(_Getal()));

  00029	8d 45 ff	 lea	 eax, DWORD PTR $T4[ebp]
  0002c	50		 push	 eax
  0002d	8b 4d ec	 mov	 ecx, DWORD PTR $T2[ebp]
  00030	e8 00 00 00 00	 call	 ??$_Alloc_proxy@V?$allocator@U_Container_proxy@std@@@std@@@_Container_base12@std@@QAEX$$QAV?$allocator@U_Container_proxy@std@@@1@@Z ; std::_Container_base12::_Alloc_proxy<std::allocator<std::_Container_proxy> >

; 598  :     }

  00035	8b 45 f8	 mov	 eax, DWORD PTR _this$[ebp]
  00038	c9		 leave
  00039	c3		 ret	 0
??0?$deque@V?$basic_string@DU?$char_traits@D@std@@V?$allocator@D@2@@std@@V?$allocator@V?$basic_string@DU?$char_traits@D@std@@V?$allocator@D@2@@std@@@2@@std@@QAE@XZ ENDP ; std::deque<std::basic_string<char,std::char_traits<char>,std::allocator<char> >,std::allocator<std::basic_string<char,std::char_traits<char>,std::allocator<char> > > >::deque<std::basic_string<char,std::char_traits<char>,std::allocator<char> >,std::allocator<std::basic_string<char,std::char_traits<char>,std::allocator<char> > > >
_TEXT	ENDS
; Function compile flags: /Odspy
; File C:\Program Files (x86)\Microsoft Visual Studio\2019\Community\VC\Tools\MSVC\14.28.29333\include\xmemory
;	COMDAT ?deallocate@?$allocator@V?$basic_string@DU?$char_traits@D@std@@V?$allocator@D@2@@std@@@std@@QAEXQAV?$basic_string@DU?$char_traits@D@std@@V?$allocator@D@2@@2@I@Z
_TEXT	SEGMENT
_this$ = -4						; size = 4
__Ptr$ = 8						; size = 4
__Count$ = 12						; size = 4
?deallocate@?$allocator@V?$basic_string@DU?$char_traits@D@std@@V?$allocator@D@2@@std@@@std@@QAEXQAV?$basic_string@DU?$char_traits@D@std@@V?$allocator@D@2@@2@I@Z PROC ; std::allocator<std::basic_string<char,std::char_traits<char>,std::allocator<char> > >::deallocate, COMDAT
; _this$ = ecx

; 808  :     void deallocate(_Ty* const _Ptr, const size_t _Count) {

  00000	55		 push	 ebp
  00001	8b ec		 mov	 ebp, esp
  00003	51		 push	 ecx
  00004	89 4d fc	 mov	 DWORD PTR _this$[ebp], ecx

; 809  :         // no overflow check on the following multiply; we assume _Allocate did that check
; 810  :         _Deallocate<_New_alignof<_Ty>>(_Ptr, sizeof(_Ty) * _Count);

  00007	6b 45 0c 18	 imul	 eax, DWORD PTR __Count$[ebp], 24
  0000b	50		 push	 eax
  0000c	ff 75 08	 push	 DWORD PTR __Ptr$[ebp]
  0000f	e8 00 00 00 00	 call	 ??$_Deallocate@$07$0A@@std@@YAXPAXI@Z ; std::_Deallocate<8,0>
  00014	59		 pop	 ecx
  00015	59		 pop	 ecx

; 811  :     }

  00016	c9		 leave
  00017	c2 08 00	 ret	 8
?deallocate@?$allocator@V?$basic_string@DU?$char_traits@D@std@@V?$allocator@D@2@@std@@@std@@QAEXQAV?$basic_string@DU?$char_traits@D@std@@V?$allocator@D@2@@2@I@Z ENDP ; std::allocator<std::basic_string<char,std::char_traits<char>,std::allocator<char> > >::deallocate
_TEXT	ENDS
; Function compile flags: /Odspy
; File D:\Metin2 Server Files\mainline\SRC_2014\Metin2Client\EterBase\Utils.cpp
;	COMDAT ??_GCDirRemover@@UAEPAXI@Z
_TEXT	SEGMENT
_this$ = -4						; size = 4
___flags$ = 8						; size = 4
??_GCDirRemover@@UAEPAXI@Z PROC				; CDirRemover::`scalar deleting destructor', COMDAT
; _this$ = ecx
  00000	55		 push	 ebp
  00001	8b ec		 mov	 ebp, esp
  00003	51		 push	 ecx
  00004	89 4d fc	 mov	 DWORD PTR _this$[ebp], ecx

; 467  : 		{

  00007	8b 45 fc	 mov	 eax, DWORD PTR _this$[ebp]
  0000a	c7 00 00 00 00
	00		 mov	 DWORD PTR [eax], OFFSET ??_7CDirRemover@@6B@

; 468  : 		}

  00010	8b 4d fc	 mov	 ecx, DWORD PTR _this$[ebp]
  00013	e8 00 00 00 00	 call	 ??1CDir@@UAE@XZ		; CDir::~CDir
  00018	8b 45 08	 mov	 eax, DWORD PTR ___flags$[ebp]
  0001b	83 e0 01	 and	 eax, 1
  0001e	74 0f		 je	 SHORT $LN2@scalar
  00020	68 48 01 00 00	 push	 328			; 00000148H
  00025	ff 75 fc	 push	 DWORD PTR _this$[ebp]
  00028	e8 00 00 00 00	 call	 ??3@YAXPAXI@Z		; operator delete
  0002d	59		 pop	 ecx
  0002e	59		 pop	 ecx
$LN2@scalar:
  0002f	8b 45 fc	 mov	 eax, DWORD PTR _this$[ebp]
  00032	c9		 leave
  00033	c2 04 00	 ret	 4
??_GCDirRemover@@UAEPAXI@Z ENDP				; CDirRemover::`scalar deleting destructor'
_TEXT	ENDS
; Function compile flags: /Odspy
; File D:\Metin2 Server Files\mainline\SRC_2014\Metin2Client\EterBase\Utils.cpp
; File C:\Program Files (x86)\Microsoft Visual Studio\2019\Community\VC\Tools\MSVC\14.28.29333\include\deque
; File D:\Metin2 Server Files\mainline\SRC_2014\Metin2Client\EterBase\Utils.cpp
; File C:\Program Files (x86)\Microsoft Visual Studio\2019\Community\VC\Tools\MSVC\14.28.29333\include\deque
; File D:\Metin2 Server Files\mainline\SRC_2014\Metin2Client\EterBase\Utils.cpp
; File C:\Program Files (x86)\Microsoft Visual Studio\2019\Community\VC\Tools\MSVC\14.28.29333\include\deque
; File D:\Metin2 Server Files\mainline\SRC_2014\Metin2Client\EterBase\Utils.cpp
; File C:\Program Files (x86)\Microsoft Visual Studio\2019\Community\VC\Tools\MSVC\14.28.29333\include\deque
; File D:\Metin2 Server Files\mainline\SRC_2014\Metin2Client\EterBase\Utils.cpp
;	COMDAT ?RemoveAllDirectory@CDirRemover@@SAXXZ
_TEXT	SEGMENT
$T1 = -44						; size = 12
_itor$2 = -32						; size = 12
_c_rstrDirectory$3 = -20				; size = 4
$T4 = -16						; size = 4
tv205 = -12						; size = 4
tv173 = -8						; size = 4
$T5 = -2						; size = 1
$T6 = -1						; size = 1
?RemoveAllDirectory@CDirRemover@@SAXXZ PROC		; CDirRemover::RemoveAllDirectory, COMDAT

; 498  : 		{

  00000	55		 push	 ebp
  00001	8b ec		 mov	 ebp, esp
  00003	83 ec 2c	 sub	 esp, 44			; 0000002cH

; 499  : 			for (std::deque<std::string>::iterator itor = ms_strDirectoryDeque.begin(); itor != ms_strDirectoryDeque.end(); ++itor)

  00006	8d 45 e0	 lea	 eax, DWORD PTR _itor$2[ebp]
  00009	50		 push	 eax
  0000a	b9 00 00 00 00	 mov	 ecx, OFFSET ?ms_strDirectoryDeque@CDirRemover@@1V?$deque@V?$basic_string@DU?$char_traits@D@std@@V?$allocator@D@2@@std@@V?$allocator@V?$basic_string@DU?$char_traits@D@std@@V?$allocator@D@2@@std@@@2@@std@@A ; CDirRemover::ms_strDirectoryDeque
  0000f	e8 00 00 00 00	 call	 ?begin@?$deque@V?$basic_string@DU?$char_traits@D@std@@V?$allocator@D@2@@std@@V?$allocator@V?$basic_string@DU?$char_traits@D@std@@V?$allocator@D@2@@std@@@2@@std@@QAE?AV?$_Deque_iterator@V?$_Deque_val@U?$_Deque_simple_types@V?$basic_string@DU?$char_traits@D@std@@V?$allocator@D@2@@std@@@std@@@std@@@2@XZ ; std::deque<std::basic_string<char,std::char_traits<char>,std::allocator<char> >,std::allocator<std::basic_string<char,std::char_traits<char>,std::allocator<char> > > >::begin
  00014	eb 07		 jmp	 SHORT $LN4@RemoveAllD
$LN2@RemoveAllD:
; File C:\Program Files (x86)\Microsoft Visual Studio\2019\Community\VC\Tools\MSVC\14.28.29333\include\deque

; 284  :         ++_Myoff;

  00016	8b 45 e8	 mov	 eax, DWORD PTR _itor$2[ebp+8]
  00019	40		 inc	 eax
  0001a	89 45 e8	 mov	 DWORD PTR _itor$2[ebp+8], eax
$LN4@RemoveAllD:
; File D:\Metin2 Server Files\mainline\SRC_2014\Metin2Client\EterBase\Utils.cpp

; 499  : 			for (std::deque<std::string>::iterator itor = ms_strDirectoryDeque.begin(); itor != ms_strDirectoryDeque.end(); ++itor)

  0001d	8d 45 d4	 lea	 eax, DWORD PTR $T1[ebp]
  00020	50		 push	 eax
  00021	b9 00 00 00 00	 mov	 ecx, OFFSET ?ms_strDirectoryDeque@CDirRemover@@1V?$deque@V?$basic_string@DU?$char_traits@D@std@@V?$allocator@D@2@@std@@V?$allocator@V?$basic_string@DU?$char_traits@D@std@@V?$allocator@D@2@@std@@@2@@std@@A ; CDirRemover::ms_strDirectoryDeque
  00026	e8 00 00 00 00	 call	 ?end@?$deque@V?$basic_string@DU?$char_traits@D@std@@V?$allocator@D@2@@std@@V?$allocator@V?$basic_string@DU?$char_traits@D@std@@V?$allocator@D@2@@std@@@2@@std@@QAE?AV?$_Deque_iterator@V?$_Deque_val@U?$_Deque_simple_types@V?$basic_string@DU?$char_traits@D@std@@V?$allocator@D@2@@std@@@std@@@std@@@2@XZ ; std::deque<std::basic_string<char,std::char_traits<char>,std::allocator<char> >,std::allocator<std::basic_string<char,std::char_traits<char>,std::allocator<char> > > >::end
  0002b	89 45 f0	 mov	 DWORD PTR $T4[ebp], eax
; File C:\Program Files (x86)\Microsoft Visual Studio\2019\Community\VC\Tools\MSVC\14.28.29333\include\deque

; 351  :         return this->_Myoff == _Right._Myoff;

  0002e	8b 45 f0	 mov	 eax, DWORD PTR $T4[ebp]
  00031	8b 4d e8	 mov	 ecx, DWORD PTR _itor$2[ebp+8]
  00034	3b 48 08	 cmp	 ecx, DWORD PTR [eax+8]
  00037	75 09		 jne	 SHORT $LN77@RemoveAllD
  00039	c7 45 f8 01 00
	00 00		 mov	 DWORD PTR tv173[ebp], 1
  00040	eb 04		 jmp	 SHORT $LN78@RemoveAllD
$LN77@RemoveAllD:
  00042	83 65 f8 00	 and	 DWORD PTR tv173[ebp], 0
$LN78@RemoveAllD:
  00046	8a 45 f8	 mov	 al, BYTE PTR tv173[ebp]
  00049	88 45 ff	 mov	 BYTE PTR $T6[ebp], al

; 355  :         return !(*this == _Right);

  0004c	0f b6 45 ff	 movzx	 eax, BYTE PTR $T6[ebp]
  00050	85 c0		 test	 eax, eax
  00052	75 09		 jne	 SHORT $LN72@RemoveAllD
  00054	c7 45 f4 01 00
	00 00		 mov	 DWORD PTR tv205[ebp], 1
  0005b	eb 04		 jmp	 SHORT $LN73@RemoveAllD
$LN72@RemoveAllD:
  0005d	83 65 f4 00	 and	 DWORD PTR tv205[ebp], 0
$LN73@RemoveAllD:
  00061	8a 45 f4	 mov	 al, BYTE PTR tv205[ebp]
  00064	88 45 fe	 mov	 BYTE PTR $T5[ebp], al
; File D:\Metin2 Server Files\mainline\SRC_2014\Metin2Client\EterBase\Utils.cpp

; 499  : 			for (std::deque<std::string>::iterator itor = ms_strDirectoryDeque.begin(); itor != ms_strDirectoryDeque.end(); ++itor)

  00067	0f b6 45 fe	 movzx	 eax, BYTE PTR $T5[ebp]
  0006b	85 c0		 test	 eax, eax
  0006d	74 1c		 je	 SHORT $LN122@RemoveAllD
; File C:\Program Files (x86)\Microsoft Visual Studio\2019\Community\VC\Tools\MSVC\14.28.29333\include\deque

; 446  :         return const_cast<reference>(_Mybase::operator*());

  0006f	8d 4d e0	 lea	 ecx, DWORD PTR _itor$2[ebp]
  00072	e8 00 00 00 00	 call	 ??D?$_Deque_const_iterator@V?$_Deque_val@U?$_Deque_simple_types@V?$basic_string@DU?$char_traits@D@std@@V?$allocator@D@2@@std@@@std@@@std@@@std@@QBEABV?$basic_string@DU?$char_traits@D@std@@V?$allocator@D@2@@1@XZ ; std::_Deque_const_iterator<std::_Deque_val<std::_Deque_simple_types<std::basic_string<char,std::char_traits<char>,std::allocator<char> > > > >::operator*
  00077	89 45 ec	 mov	 DWORD PTR _c_rstrDirectory$3[ebp], eax
; File D:\Metin2 Server Files\mainline\SRC_2014\Metin2Client\EterBase\Utils.cpp

; 502  : 				RemoveDirectory(c_rstrDirectory.c_str());

  0007a	8b 4d ec	 mov	 ecx, DWORD PTR _c_rstrDirectory$3[ebp]
  0007d	e8 00 00 00 00	 call	 ?c_str@?$basic_string@DU?$char_traits@D@std@@V?$allocator@D@2@@std@@QBEPBDXZ ; std::basic_string<char,std::char_traits<char>,std::allocator<char> >::c_str
  00082	50		 push	 eax
  00083	ff 15 00 00 00
	00		 call	 DWORD PTR __imp__RemoveDirectoryA@4

; 503  : 			}

  00089	eb 8b		 jmp	 SHORT $LN2@RemoveAllD
$LN122@RemoveAllD:
; File C:\Program Files (x86)\Microsoft Visual Studio\2019\Community\VC\Tools\MSVC\14.28.29333\include\deque

; 1330 :         _Tidy();

  0008b	b9 00 00 00 00	 mov	 ecx, OFFSET ?ms_strDirectoryDeque@CDirRemover@@1V?$deque@V?$basic_string@DU?$char_traits@D@std@@V?$allocator@D@2@@std@@V?$allocator@V?$basic_string@DU?$char_traits@D@std@@V?$allocator@D@2@@std@@@2@@std@@A ; CDirRemover::ms_strDirectoryDeque
  00090	e8 00 00 00 00	 call	 ?_Tidy@?$deque@V?$basic_string@DU?$char_traits@D@std@@V?$allocator@D@2@@std@@V?$allocator@V?$basic_string@DU?$char_traits@D@std@@V?$allocator@D@2@@std@@@2@@std@@AAEXXZ ; std::deque<std::basic_string<char,std::char_traits<char>,std::allocator<char> >,std::allocator<std::basic_string<char,std::char_traits<char>,std::allocator<char> > > >::_Tidy
; File D:\Metin2 Server Files\mainline\SRC_2014\Metin2Client\EterBase\Utils.cpp

; 506  : 		}

  00095	c9		 leave
  00096	c3		 ret	 0
?RemoveAllDirectory@CDirRemover@@SAXXZ ENDP		; CDirRemover::RemoveAllDirectory
_TEXT	ENDS
; Function compile flags: /Odspy
; File D:\Metin2 Server Files\mainline\SRC_2014\Metin2Client\EterBase\Utils.cpp
; File C:\Program Files (x86)\Microsoft Visual Studio\2019\Community\VC\Tools\MSVC\14.28.29333\include\xstring
; File C:\Program Files (x86)\Microsoft Visual Studio\2019\Community\VC\Tools\MSVC\14.28.29333\include\xmemory
; File C:\Program Files (x86)\Microsoft Visual Studio\2019\Community\VC\Tools\MSVC\14.28.29333\include\xstring
; File D:\Metin2 Server Files\mainline\SRC_2014\Metin2Client\EterBase\Utils.cpp
; File C:\Program Files (x86)\Microsoft Visual Studio\2019\Community\VC\Tools\MSVC\14.28.29333\include\xstring
; File C:\Program Files (x86)\Microsoft Visual Studio\2019\Community\VC\Tools\MSVC\14.28.29333\include\xmemory
; File C:\Program Files (x86)\Microsoft Visual Studio\2019\Community\VC\Tools\MSVC\14.28.29333\include\xstring
; File C:\Program Files (x86)\Microsoft Visual Studio\2019\Community\VC\Tools\MSVC\14.28.29333\include\xmemory
; File C:\Program Files (x86)\Microsoft Visual Studio\2019\Community\VC\Tools\MSVC\14.28.29333\include\xstring
; File D:\Metin2 Server Files\mainline\SRC_2014\Metin2Client\EterBase\Utils.cpp
; File C:\Program Files (x86)\Microsoft Visual Studio\2019\Community\VC\Tools\MSVC\14.28.29333\include\xstring
; File D:\Metin2 Server Files\mainline\SRC_2014\Metin2Client\EterBase\Utils.cpp
;	COMDAT ?OnFile@CDirRemover@@UAE_NPBD0@Z
_TEXT	SEGMENT
_this$ = -68						; size = 4
$T2 = -64						; size = 4
$T3 = -60						; size = 4
$T4 = -56						; size = 4
$T5 = -52						; size = 4
_this$ = -48						; size = 4
$T6 = -41						; size = 1
_strFullPathName$ = -40					; size = 24
__$ArrayPad$ = -16					; size = 4
__$EHRec$ = -12						; size = 12
_c_szPathName$ = 8					; size = 4
_c_szFileName$ = 12					; size = 4
?OnFile@CDirRemover@@UAE_NPBD0@Z PROC			; CDirRemover::OnFile, COMDAT
; _this$ = ecx

; 488  : 		{

  00000	55		 push	 ebp
  00001	8b ec		 mov	 ebp, esp
  00003	6a ff		 push	 -1
  00005	68 00 00 00 00	 push	 __ehhandler$?OnFile@CDirRemover@@UAE_NPBD0@Z
  0000a	64 a1 00 00 00
	00		 mov	 eax, DWORD PTR fs:0
  00010	50		 push	 eax
  00011	83 ec 38	 sub	 esp, 56			; 00000038H
  00014	a1 00 00 00 00	 mov	 eax, DWORD PTR ___security_cookie
  00019	33 c5		 xor	 eax, ebp
  0001b	89 45 f0	 mov	 DWORD PTR __$ArrayPad$[ebp], eax
  0001e	50		 push	 eax
  0001f	8d 45 f4	 lea	 eax, DWORD PTR __$EHRec$[ebp]
  00022	64 a3 00 00 00
	00		 mov	 DWORD PTR fs:0, eax
  00028	89 4d bc	 mov	 DWORD PTR _this$[ebp], ecx
; File C:\Program Files (x86)\Microsoft Visual Studio\2019\Community\VC\Tools\MSVC\14.28.29333\include\xstring

; 2365 :     basic_string() noexcept(is_nothrow_default_constructible_v<_Alty>) : _Mypair(_Zero_then_variadic_args_t{}) {

  0002b	8d 45 d8	 lea	 eax, DWORD PTR _strFullPathName$[ebp]
  0002e	89 45 d0	 mov	 DWORD PTR _this$[ebp], eax
; File C:\Program Files (x86)\Microsoft Visual Studio\2019\Community\VC\Tools\MSVC\14.28.29333\include\xmemory

; 1339 :         : _Ty1(), _Myval2(_STD forward<_Other2>(_Val2)...) {}

  00031	8b 4d d0	 mov	 ecx, DWORD PTR _this$[ebp]
  00034	e8 00 00 00 00	 call	 ??0?$_String_val@U?$_Simple_types@D@std@@@std@@QAE@XZ ; std::_String_val<std::_Simple_types<char> >::_String_val<std::_Simple_types<char> >
; File C:\Program Files (x86)\Microsoft Visual Studio\2019\Community\VC\Tools\MSVC\14.28.29333\include\xstring

; 2367 :         _Tidy_init();

  00039	8d 4d d8	 lea	 ecx, DWORD PTR _strFullPathName$[ebp]
  0003c	e8 00 00 00 00	 call	 ?_Tidy_init@?$basic_string@DU?$char_traits@D@std@@V?$allocator@D@2@@std@@AAEXXZ ; std::basic_string<char,std::char_traits<char>,std::allocator<char> >::_Tidy_init
; File D:\Metin2 Server Files\mainline\SRC_2014\Metin2Client\EterBase\Utils.cpp

; 489  : 			std::string strFullPathName;

  00041	83 65 fc 00	 and	 DWORD PTR __$EHRec$[ebp+8], 0
; File C:\Program Files (x86)\Microsoft Visual Studio\2019\Community\VC\Tools\MSVC\14.28.29333\include\xstring

; 389  :         return _CSTD strlen(reinterpret_cast<const char*>(_First));

  00045	ff 75 08	 push	 DWORD PTR _c_szPathName$[ebp]
  00048	e8 00 00 00 00	 call	 _strlen
  0004d	59		 pop	 ecx
  0004e	89 45 cc	 mov	 DWORD PTR $T5[ebp], eax
; File C:\Program Files (x86)\Microsoft Visual Studio\2019\Community\VC\Tools\MSVC\14.28.29333\include\xmemory

; 997  :     return _Len;

  00051	8b 45 cc	 mov	 eax, DWORD PTR $T5[ebp]
  00054	89 45 c8	 mov	 DWORD PTR $T4[ebp], eax
; File C:\Program Files (x86)\Microsoft Visual Studio\2019\Community\VC\Tools\MSVC\14.28.29333\include\xstring

; 3062 :         return assign(_Ptr, _Convert_size<size_type>(_Traits::length(_Ptr)));

  00057	ff 75 c8	 push	 DWORD PTR $T4[ebp]
  0005a	ff 75 08	 push	 DWORD PTR _c_szPathName$[ebp]
  0005d	8d 4d d8	 lea	 ecx, DWORD PTR _strFullPathName$[ebp]
  00060	e8 00 00 00 00	 call	 ?assign@?$basic_string@DU?$char_traits@D@std@@V?$allocator@D@2@@std@@QAEAAV12@QBDI@Z ; std::basic_string<char,std::char_traits<char>,std::allocator<char> >::assign

; 389  :         return _CSTD strlen(reinterpret_cast<const char*>(_First));

  00065	ff 75 0c	 push	 DWORD PTR _c_szFileName$[ebp]
  00068	e8 00 00 00 00	 call	 _strlen
  0006d	59		 pop	 ecx
  0006e	89 45 c4	 mov	 DWORD PTR $T3[ebp], eax
; File C:\Program Files (x86)\Microsoft Visual Studio\2019\Community\VC\Tools\MSVC\14.28.29333\include\xmemory

; 997  :     return _Len;

  00071	8b 45 c4	 mov	 eax, DWORD PTR $T3[ebp]
  00074	89 45 c0	 mov	 DWORD PTR $T2[ebp], eax
; File C:\Program Files (x86)\Microsoft Visual Studio\2019\Community\VC\Tools\MSVC\14.28.29333\include\xstring

; 2958 :         return append(_Ptr, _Convert_size<size_type>(_Traits::length(_Ptr)));

  00077	ff 75 c0	 push	 DWORD PTR $T2[ebp]
  0007a	ff 75 0c	 push	 DWORD PTR _c_szFileName$[ebp]
  0007d	8d 4d d8	 lea	 ecx, DWORD PTR _strFullPathName$[ebp]
  00080	e8 00 00 00 00	 call	 ?append@?$basic_string@DU?$char_traits@D@std@@V?$allocator@D@2@@std@@QAEAAV12@QBDI@Z ; std::basic_string<char,std::char_traits<char>,std::allocator<char> >::append
; File D:\Metin2 Server Files\mainline\SRC_2014\Metin2Client\EterBase\Utils.cpp

; 492  : 			_chmod(strFullPathName.c_str(), _S_IWRITE);

  00085	68 80 00 00 00	 push	 128			; 00000080H
  0008a	8d 4d d8	 lea	 ecx, DWORD PTR _strFullPathName$[ebp]
  0008d	e8 00 00 00 00	 call	 ?c_str@?$basic_string@DU?$char_traits@D@std@@V?$allocator@D@2@@std@@QBEPBDXZ ; std::basic_string<char,std::char_traits<char>,std::allocator<char> >::c_str
  00092	50		 push	 eax
  00093	e8 00 00 00 00	 call	 __chmod
  00098	59		 pop	 ecx
  00099	59		 pop	 ecx

; 493  : 			DeleteFile(strFullPathName.c_str());

  0009a	8d 4d d8	 lea	 ecx, DWORD PTR _strFullPathName$[ebp]
  0009d	e8 00 00 00 00	 call	 ?c_str@?$basic_string@DU?$char_traits@D@std@@V?$allocator@D@2@@std@@QBEPBDXZ ; std::basic_string<char,std::char_traits<char>,std::allocator<char> >::c_str
  000a2	50		 push	 eax
  000a3	ff 15 00 00 00
	00		 call	 DWORD PTR __imp__DeleteFileA@4

; 494  : 			return true;

  000a9	c6 45 d7 01	 mov	 BYTE PTR $T6[ebp], 1
  000ad	83 4d fc ff	 or	 DWORD PTR __$EHRec$[ebp+8], -1
; File C:\Program Files (x86)\Microsoft Visual Studio\2019\Community\VC\Tools\MSVC\14.28.29333\include\xstring

; 2801 :         _Tidy_deallocate();

  000b1	8d 4d d8	 lea	 ecx, DWORD PTR _strFullPathName$[ebp]
  000b4	e8 00 00 00 00	 call	 ?_Tidy_deallocate@?$basic_string@DU?$char_traits@D@std@@V?$allocator@D@2@@std@@AAEXXZ ; std::basic_string<char,std::char_traits<char>,std::allocator<char> >::_Tidy_deallocate
; File D:\Metin2 Server Files\mainline\SRC_2014\Metin2Client\EterBase\Utils.cpp

; 494  : 			return true;

  000b9	8a 45 d7	 mov	 al, BYTE PTR $T6[ebp]

; 495  : 		}

  000bc	8b 4d f4	 mov	 ecx, DWORD PTR __$EHRec$[ebp]
  000bf	64 89 0d 00 00
	00 00		 mov	 DWORD PTR fs:0, ecx
  000c6	59		 pop	 ecx
  000c7	8b 4d f0	 mov	 ecx, DWORD PTR __$ArrayPad$[ebp]
  000ca	33 cd		 xor	 ecx, ebp
  000cc	e8 00 00 00 00	 call	 @__security_check_cookie@4
  000d1	c9		 leave
  000d2	c2 08 00	 ret	 8
_TEXT	ENDS
;	COMDAT text$x
text$x	SEGMENT
__unwindfunclet$?OnFile@CDirRemover@@UAE_NPBD0@Z$0:
  00000	8d 4d d8	 lea	 ecx, DWORD PTR _strFullPathName$[ebp]
  00003	e9 00 00 00 00	 jmp	 ??1?$basic_string@DU?$char_traits@D@std@@V?$allocator@D@2@@std@@QAE@XZ ; std::basic_string<char,std::char_traits<char>,std::allocator<char> >::~basic_string<char,std::char_traits<char>,std::allocator<char> >
  00008	cc		 int	 3
  00009	cc		 int	 3
  0000a	cc		 int	 3
  0000b	cc		 int	 3
  0000c	cc		 int	 3
__ehhandler$?OnFile@CDirRemover@@UAE_NPBD0@Z:
  0000d	90		 npad	 1
  0000e	90		 npad	 1
  0000f	8b 54 24 08	 mov	 edx, DWORD PTR [esp+8]
  00013	8d 42 0c	 lea	 eax, DWORD PTR [edx+12]
  00016	8b 4a c4	 mov	 ecx, DWORD PTR [edx-60]
  00019	33 c8		 xor	 ecx, eax
  0001b	e8 00 00 00 00	 call	 @__security_check_cookie@4
  00020	8b 4a fc	 mov	 ecx, DWORD PTR [edx-4]
  00023	33 c8		 xor	 ecx, eax
  00025	e8 00 00 00 00	 call	 @__security_check_cookie@4
  0002a	b8 00 00 00 00	 mov	 eax, OFFSET __ehfuncinfo$?OnFile@CDirRemover@@UAE_NPBD0@Z
  0002f	e9 00 00 00 00	 jmp	 ___CxxFrameHandler3
text$x	ENDS
?OnFile@CDirRemover@@UAE_NPBD0@Z ENDP			; CDirRemover::OnFile
; Function compile flags: /Odspy
; File D:\Metin2 Server Files\mainline\SRC_2014\Metin2Client\EterBase\Utils.cpp
; File C:\Program Files (x86)\Microsoft Visual Studio\2019\Community\VC\Tools\MSVC\14.28.29333\include\xstring
; File C:\Program Files (x86)\Microsoft Visual Studio\2019\Community\VC\Tools\MSVC\14.28.29333\include\xmemory
; File C:\Program Files (x86)\Microsoft Visual Studio\2019\Community\VC\Tools\MSVC\14.28.29333\include\xstring
; File D:\Metin2 Server Files\mainline\SRC_2014\Metin2Client\EterBase\Utils.cpp
; File C:\Program Files (x86)\Microsoft Visual Studio\2019\Community\VC\Tools\MSVC\14.28.29333\include\xstring
; File C:\Program Files (x86)\Microsoft Visual Studio\2019\Community\VC\Tools\MSVC\14.28.29333\include\xmemory
; File C:\Program Files (x86)\Microsoft Visual Studio\2019\Community\VC\Tools\MSVC\14.28.29333\include\xstring
; File C:\Program Files (x86)\Microsoft Visual Studio\2019\Community\VC\Tools\MSVC\14.28.29333\include\xmemory
; File C:\Program Files (x86)\Microsoft Visual Studio\2019\Community\VC\Tools\MSVC\14.28.29333\include\xstring
; File D:\Metin2 Server Files\mainline\SRC_2014\Metin2Client\EterBase\Utils.cpp
; File C:\Program Files (x86)\Microsoft Visual Studio\2019\Community\VC\Tools\MSVC\14.28.29333\include\xstring
; File C:\Program Files (x86)\Microsoft Visual Studio\2019\Community\VC\Tools\MSVC\14.28.29333\include\xmemory
; File C:\Program Files (x86)\Microsoft Visual Studio\2019\Community\VC\Tools\MSVC\14.28.29333\include\xstring
; File D:\Metin2 Server Files\mainline\SRC_2014\Metin2Client\EterBase\Utils.cpp
; File C:\Program Files (x86)\Microsoft Visual Studio\2019\Community\VC\Tools\MSVC\14.28.29333\include\xstring
; File C:\Program Files (x86)\Microsoft Visual Studio\2019\Community\VC\Tools\MSVC\14.28.29333\include\xmemory
; File C:\Program Files (x86)\Microsoft Visual Studio\2019\Community\VC\Tools\MSVC\14.28.29333\include\xstring
; File D:\Metin2 Server Files\mainline\SRC_2014\Metin2Client\EterBase\Utils.cpp
; File C:\Program Files (x86)\Microsoft Visual Studio\2019\Community\VC\Tools\MSVC\14.28.29333\include\deque
; File D:\Metin2 Server Files\mainline\SRC_2014\Metin2Client\EterBase\Utils.cpp
; File C:\Program Files (x86)\Microsoft Visual Studio\2019\Community\VC\Tools\MSVC\14.28.29333\include\xstring
; File D:\Metin2 Server Files\mainline\SRC_2014\Metin2Client\EterBase\Utils.cpp
; File C:\Program Files (x86)\Microsoft Visual Studio\2019\Community\VC\Tools\MSVC\14.28.29333\include\xstring
; File D:\Metin2 Server Files\mainline\SRC_2014\Metin2Client\EterBase\Utils.cpp
;	COMDAT ?OnFolder@CDirRemover@@UAE_NPBD00@Z
_TEXT	SEGMENT
$T2 = -436						; size = 4
_this$ = -432						; size = 4
$T3 = -428						; size = 4
$T4 = -424						; size = 4
_this$ = -420						; size = 4
$T5 = -416						; size = 4
$T6 = -412						; size = 4
$T7 = -408						; size = 4
$T8 = -404						; size = 4
_this$ = -400						; size = 4
$T9 = -393						; size = 1
_remover$ = -392					; size = 328
_strFullPathName$ = -64					; size = 24
_strWorkingFolder$ = -40				; size = 24
__$ArrayPad$ = -16					; size = 4
__$EHRec$ = -12						; size = 12
_c_szFilter$ = 8					; size = 4
_c_szPathName$ = 12					; size = 4
_c_szFileName$ = 16					; size = 4
?OnFolder@CDirRemover@@UAE_NPBD00@Z PROC		; CDirRemover::OnFolder, COMDAT
; _this$ = ecx

; 471  : 		{

  00000	55		 push	 ebp
  00001	8b ec		 mov	 ebp, esp
  00003	6a ff		 push	 -1
  00005	68 00 00 00 00	 push	 __ehhandler$?OnFolder@CDirRemover@@UAE_NPBD00@Z
  0000a	64 a1 00 00 00
	00		 mov	 eax, DWORD PTR fs:0
  00010	50		 push	 eax
  00011	81 ec a8 01 00
	00		 sub	 esp, 424		; 000001a8H
  00017	a1 00 00 00 00	 mov	 eax, DWORD PTR ___security_cookie
  0001c	33 c5		 xor	 eax, ebp
  0001e	89 45 f0	 mov	 DWORD PTR __$ArrayPad$[ebp], eax
  00021	50		 push	 eax
  00022	8d 45 f4	 lea	 eax, DWORD PTR __$EHRec$[ebp]
  00025	64 a3 00 00 00
	00		 mov	 DWORD PTR fs:0, eax
  0002b	89 8d 50 fe ff
	ff		 mov	 DWORD PTR _this$[ebp], ecx
; File C:\Program Files (x86)\Microsoft Visual Studio\2019\Community\VC\Tools\MSVC\14.28.29333\include\xstring

; 2365 :     basic_string() noexcept(is_nothrow_default_constructible_v<_Alty>) : _Mypair(_Zero_then_variadic_args_t{}) {

  00031	8d 45 c0	 lea	 eax, DWORD PTR _strFullPathName$[ebp]
  00034	89 85 70 fe ff
	ff		 mov	 DWORD PTR _this$[ebp], eax
; File C:\Program Files (x86)\Microsoft Visual Studio\2019\Community\VC\Tools\MSVC\14.28.29333\include\xmemory

; 1339 :         : _Ty1(), _Myval2(_STD forward<_Other2>(_Val2)...) {}

  0003a	8b 8d 70 fe ff
	ff		 mov	 ecx, DWORD PTR _this$[ebp]
  00040	e8 00 00 00 00	 call	 ??0?$_String_val@U?$_Simple_types@D@std@@@std@@QAE@XZ ; std::_String_val<std::_Simple_types<char> >::_String_val<std::_Simple_types<char> >
; File C:\Program Files (x86)\Microsoft Visual Studio\2019\Community\VC\Tools\MSVC\14.28.29333\include\xstring

; 2367 :         _Tidy_init();

  00045	8d 4d c0	 lea	 ecx, DWORD PTR _strFullPathName$[ebp]
  00048	e8 00 00 00 00	 call	 ?_Tidy_init@?$basic_string@DU?$char_traits@D@std@@V?$allocator@D@2@@std@@AAEXXZ ; std::basic_string<char,std::char_traits<char>,std::allocator<char> >::_Tidy_init
; File D:\Metin2 Server Files\mainline\SRC_2014\Metin2Client\EterBase\Utils.cpp

; 472  : 			std::string strFullPathName;

  0004d	83 65 fc 00	 and	 DWORD PTR __$EHRec$[ebp+8], 0
; File C:\Program Files (x86)\Microsoft Visual Studio\2019\Community\VC\Tools\MSVC\14.28.29333\include\xstring

; 389  :         return _CSTD strlen(reinterpret_cast<const char*>(_First));

  00051	ff 75 0c	 push	 DWORD PTR _c_szPathName$[ebp]
  00054	e8 00 00 00 00	 call	 _strlen
  00059	59		 pop	 ecx
  0005a	89 85 6c fe ff
	ff		 mov	 DWORD PTR $T8[ebp], eax
; File C:\Program Files (x86)\Microsoft Visual Studio\2019\Community\VC\Tools\MSVC\14.28.29333\include\xmemory

; 997  :     return _Len;

  00060	8b 85 6c fe ff
	ff		 mov	 eax, DWORD PTR $T8[ebp]
  00066	89 85 68 fe ff
	ff		 mov	 DWORD PTR $T7[ebp], eax
; File C:\Program Files (x86)\Microsoft Visual Studio\2019\Community\VC\Tools\MSVC\14.28.29333\include\xstring

; 3062 :         return assign(_Ptr, _Convert_size<size_type>(_Traits::length(_Ptr)));

  0006c	ff b5 68 fe ff
	ff		 push	 DWORD PTR $T7[ebp]
  00072	ff 75 0c	 push	 DWORD PTR _c_szPathName$[ebp]
  00075	8d 4d c0	 lea	 ecx, DWORD PTR _strFullPathName$[ebp]
  00078	e8 00 00 00 00	 call	 ?assign@?$basic_string@DU?$char_traits@D@std@@V?$allocator@D@2@@std@@QAEAAV12@QBDI@Z ; std::basic_string<char,std::char_traits<char>,std::allocator<char> >::assign

; 389  :         return _CSTD strlen(reinterpret_cast<const char*>(_First));

  0007d	ff 75 10	 push	 DWORD PTR _c_szFileName$[ebp]
  00080	e8 00 00 00 00	 call	 _strlen
  00085	59		 pop	 ecx
  00086	89 85 64 fe ff
	ff		 mov	 DWORD PTR $T6[ebp], eax
; File C:\Program Files (x86)\Microsoft Visual Studio\2019\Community\VC\Tools\MSVC\14.28.29333\include\xmemory

; 997  :     return _Len;

  0008c	8b 85 64 fe ff
	ff		 mov	 eax, DWORD PTR $T6[ebp]
  00092	89 85 60 fe ff
	ff		 mov	 DWORD PTR $T5[ebp], eax
; File C:\Program Files (x86)\Microsoft Visual Studio\2019\Community\VC\Tools\MSVC\14.28.29333\include\xstring

; 2958 :         return append(_Ptr, _Convert_size<size_type>(_Traits::length(_Ptr)));

  00098	ff b5 60 fe ff
	ff		 push	 DWORD PTR $T5[ebp]
  0009e	ff 75 10	 push	 DWORD PTR _c_szFileName$[ebp]
  000a1	8d 4d c0	 lea	 ecx, DWORD PTR _strFullPathName$[ebp]
  000a4	e8 00 00 00 00	 call	 ?append@?$basic_string@DU?$char_traits@D@std@@V?$allocator@D@2@@std@@QAEAAV12@QBDI@Z ; std::basic_string<char,std::char_traits<char>,std::allocator<char> >::append
; File D:\Metin2 Server Files\mainline\SRC_2014\Metin2Client\EterBase\Utils.cpp

; 463  : 		CDirRemover()

  000a9	8d 8d 78 fe ff
	ff		 lea	 ecx, DWORD PTR _remover$[ebp]
  000af	e8 00 00 00 00	 call	 ??0CDir@@QAE@XZ		; CDir::CDir
  000b4	c7 85 78 fe ff
	ff 00 00 00 00	 mov	 DWORD PTR _remover$[ebp], OFFSET ??_7CDirRemover@@6B@

; 473  : 			strFullPathName = c_szPathName;
; 474  : 			strFullPathName += c_szFileName; 
; 475  : 
; 476  : 			CDirRemover remover;

  000be	c6 45 fc 01	 mov	 BYTE PTR __$EHRec$[ebp+8], 1

; 477  : 			remover.Create(c_szFilter, strFullPathName.c_str());

  000c2	6a 00		 push	 0
  000c4	8d 4d c0	 lea	 ecx, DWORD PTR _strFullPathName$[ebp]
  000c7	e8 00 00 00 00	 call	 ?c_str@?$basic_string@DU?$char_traits@D@std@@V?$allocator@D@2@@std@@QBEPBDXZ ; std::basic_string<char,std::char_traits<char>,std::allocator<char> >::c_str
  000cc	50		 push	 eax
  000cd	ff 75 08	 push	 DWORD PTR _c_szFilter$[ebp]
  000d0	8d 8d 78 fe ff
	ff		 lea	 ecx, DWORD PTR _remover$[ebp]
  000d6	e8 00 00 00 00	 call	 ?Create@CDir@@QAE_NPBD0H@Z ; CDir::Create
; File C:\Program Files (x86)\Microsoft Visual Studio\2019\Community\VC\Tools\MSVC\14.28.29333\include\xstring

; 2365 :     basic_string() noexcept(is_nothrow_default_constructible_v<_Alty>) : _Mypair(_Zero_then_variadic_args_t{}) {

  000db	8d 45 d8	 lea	 eax, DWORD PTR _strWorkingFolder$[ebp]
  000de	89 85 5c fe ff
	ff		 mov	 DWORD PTR _this$[ebp], eax
; File C:\Program Files (x86)\Microsoft Visual Studio\2019\Community\VC\Tools\MSVC\14.28.29333\include\xmemory

; 1339 :         : _Ty1(), _Myval2(_STD forward<_Other2>(_Val2)...) {}

  000e4	8b 8d 5c fe ff
	ff		 mov	 ecx, DWORD PTR _this$[ebp]
  000ea	e8 00 00 00 00	 call	 ??0?$_String_val@U?$_Simple_types@D@std@@@std@@QAE@XZ ; std::_String_val<std::_Simple_types<char> >::_String_val<std::_Simple_types<char> >
; File C:\Program Files (x86)\Microsoft Visual Studio\2019\Community\VC\Tools\MSVC\14.28.29333\include\xstring

; 2367 :         _Tidy_init();

  000ef	8d 4d d8	 lea	 ecx, DWORD PTR _strWorkingFolder$[ebp]
  000f2	e8 00 00 00 00	 call	 ?_Tidy_init@?$basic_string@DU?$char_traits@D@std@@V?$allocator@D@2@@std@@AAEXXZ ; std::basic_string<char,std::char_traits<char>,std::allocator<char> >::_Tidy_init
; File D:\Metin2 Server Files\mainline\SRC_2014\Metin2Client\EterBase\Utils.cpp

; 479  : 			std::string strWorkingFolder;

  000f7	c6 45 fc 02	 mov	 BYTE PTR __$EHRec$[ebp+8], 2

; 480  : 			GetWorkingFolder(strWorkingFolder);

  000fb	8d 45 d8	 lea	 eax, DWORD PTR _strWorkingFolder$[ebp]
  000fe	50		 push	 eax
  000ff	e8 00 00 00 00	 call	 ?GetWorkingFolder@@YAXAAV?$basic_string@DU?$char_traits@D@std@@V?$allocator@D@2@@std@@@Z ; GetWorkingFolder
  00104	59		 pop	 ecx
; File C:\Program Files (x86)\Microsoft Visual Studio\2019\Community\VC\Tools\MSVC\14.28.29333\include\xstring

; 2890 :         return append(_Right);

  00105	8d 45 c0	 lea	 eax, DWORD PTR _strFullPathName$[ebp]
  00108	50		 push	 eax
  00109	8d 4d d8	 lea	 ecx, DWORD PTR _strWorkingFolder$[ebp]
  0010c	e8 00 00 00 00	 call	 ?append@?$basic_string@DU?$char_traits@D@std@@V?$allocator@D@2@@std@@QAEAAV12@ABV12@@Z ; std::basic_string<char,std::char_traits<char>,std::allocator<char> >::append

; 389  :         return _CSTD strlen(reinterpret_cast<const char*>(_First));

  00111	68 00 00 00 00	 push	 OFFSET ??_C@_01KMDKNFGN@?1@
  00116	e8 00 00 00 00	 call	 _strlen
  0011b	59		 pop	 ecx
  0011c	89 85 58 fe ff
	ff		 mov	 DWORD PTR $T4[ebp], eax
; File C:\Program Files (x86)\Microsoft Visual Studio\2019\Community\VC\Tools\MSVC\14.28.29333\include\xmemory

; 997  :     return _Len;

  00122	8b 85 58 fe ff
	ff		 mov	 eax, DWORD PTR $T4[ebp]
  00128	89 85 54 fe ff
	ff		 mov	 DWORD PTR $T3[ebp], eax
; File C:\Program Files (x86)\Microsoft Visual Studio\2019\Community\VC\Tools\MSVC\14.28.29333\include\xstring

; 2958 :         return append(_Ptr, _Convert_size<size_type>(_Traits::length(_Ptr)));

  0012e	ff b5 54 fe ff
	ff		 push	 DWORD PTR $T3[ebp]
  00134	68 00 00 00 00	 push	 OFFSET ??_C@_01KMDKNFGN@?1@
  00139	8d 4d d8	 lea	 ecx, DWORD PTR _strWorkingFolder$[ebp]
  0013c	e8 00 00 00 00	 call	 ?append@?$basic_string@DU?$char_traits@D@std@@V?$allocator@D@2@@std@@QAEAAV12@QBDI@Z ; std::basic_string<char,std::char_traits<char>,std::allocator<char> >::append
; File D:\Metin2 Server Files\mainline\SRC_2014\Metin2Client\EterBase\Utils.cpp

; 483  : 			StringPath(strWorkingFolder);

  00141	8d 45 d8	 lea	 eax, DWORD PTR _strWorkingFolder$[ebp]
  00144	50		 push	 eax
  00145	e8 00 00 00 00	 call	 ?StringPath@@YAXAAV?$basic_string@DU?$char_traits@D@std@@V?$allocator@D@2@@std@@@Z ; StringPath
  0014a	59		 pop	 ecx
; File C:\Program Files (x86)\Microsoft Visual Studio\2019\Community\VC\Tools\MSVC\14.28.29333\include\deque

; 1530 :         return _Mypair._Myval2;

  0014b	c7 85 4c fe ff
	ff 00 00 00 00	 mov	 DWORD PTR $T2[ebp], OFFSET ?ms_strDirectoryDeque@CDirRemover@@1V?$deque@V?$basic_string@DU?$char_traits@D@std@@V?$allocator@D@2@@std@@V?$allocator@V?$basic_string@DU?$char_traits@D@std@@V?$allocator@D@2@@std@@@2@@std@@A ; CDirRemover::ms_strDirectoryDeque

; 1123 :         _Emplace_back_internal(_Val);

  00155	8d 45 d8	 lea	 eax, DWORD PTR _strWorkingFolder$[ebp]
  00158	50		 push	 eax
  00159	b9 00 00 00 00	 mov	 ecx, OFFSET ?ms_strDirectoryDeque@CDirRemover@@1V?$deque@V?$basic_string@DU?$char_traits@D@std@@V?$allocator@D@2@@std@@V?$allocator@V?$basic_string@DU?$char_traits@D@std@@V?$allocator@D@2@@std@@@2@@std@@A ; CDirRemover::ms_strDirectoryDeque
  0015e	e8 00 00 00 00	 call	 ??$_Emplace_back_internal@ABV?$basic_string@DU?$char_traits@D@std@@V?$allocator@D@2@@std@@@?$deque@V?$basic_string@DU?$char_traits@D@std@@V?$allocator@D@2@@std@@V?$allocator@V?$basic_string@DU?$char_traits@D@std@@V?$allocator@D@2@@std@@@2@@std@@AAEXABV?$basic_string@DU?$char_traits@D@std@@V?$allocator@D@2@@1@@Z ; std::deque<std::basic_string<char,std::char_traits<char>,std::allocator<char> >,std::allocator<std::basic_string<char,std::char_traits<char>,std::allocator<char> > > >::_Emplace_back_internal<std::basic_string<char,std::char_traits<char>,std::allocator<char> > const &>
; File D:\Metin2 Server Files\mainline\SRC_2014\Metin2Client\EterBase\Utils.cpp

; 485  : 			return true;

  00163	c6 85 77 fe ff
	ff 01		 mov	 BYTE PTR $T9[ebp], 1
  0016a	c6 45 fc 01	 mov	 BYTE PTR __$EHRec$[ebp+8], 1
; File C:\Program Files (x86)\Microsoft Visual Studio\2019\Community\VC\Tools\MSVC\14.28.29333\include\xstring

; 2801 :         _Tidy_deallocate();

  0016e	8d 4d d8	 lea	 ecx, DWORD PTR _strWorkingFolder$[ebp]
  00171	e8 00 00 00 00	 call	 ?_Tidy_deallocate@?$basic_string@DU?$char_traits@D@std@@V?$allocator@D@2@@std@@AAEXXZ ; std::basic_string<char,std::char_traits<char>,std::allocator<char> >::_Tidy_deallocate
; File D:\Metin2 Server Files\mainline\SRC_2014\Metin2Client\EterBase\Utils.cpp

; 485  : 			return true;

  00176	c6 45 fc 00	 mov	 BYTE PTR __$EHRec$[ebp+8], 0

; 467  : 		{

  0017a	c7 85 78 fe ff
	ff 00 00 00 00	 mov	 DWORD PTR _remover$[ebp], OFFSET ??_7CDirRemover@@6B@

; 468  : 		}

  00184	8d 8d 78 fe ff
	ff		 lea	 ecx, DWORD PTR _remover$[ebp]
  0018a	e8 00 00 00 00	 call	 ??1CDir@@UAE@XZ		; CDir::~CDir

; 485  : 			return true;

  0018f	83 4d fc ff	 or	 DWORD PTR __$EHRec$[ebp+8], -1
; File C:\Program Files (x86)\Microsoft Visual Studio\2019\Community\VC\Tools\MSVC\14.28.29333\include\xstring

; 2801 :         _Tidy_deallocate();

  00193	8d 4d c0	 lea	 ecx, DWORD PTR _strFullPathName$[ebp]
  00196	e8 00 00 00 00	 call	 ?_Tidy_deallocate@?$basic_string@DU?$char_traits@D@std@@V?$allocator@D@2@@std@@AAEXXZ ; std::basic_string<char,std::char_traits<char>,std::allocator<char> >::_Tidy_deallocate
; File D:\Metin2 Server Files\mainline\SRC_2014\Metin2Client\EterBase\Utils.cpp

; 485  : 			return true;

  0019b	8a 85 77 fe ff
	ff		 mov	 al, BYTE PTR $T9[ebp]

; 486  : 		}

  001a1	8b 4d f4	 mov	 ecx, DWORD PTR __$EHRec$[ebp]
  001a4	64 89 0d 00 00
	00 00		 mov	 DWORD PTR fs:0, ecx
  001ab	59		 pop	 ecx
  001ac	8b 4d f0	 mov	 ecx, DWORD PTR __$ArrayPad$[ebp]
  001af	33 cd		 xor	 ecx, ebp
  001b1	e8 00 00 00 00	 call	 @__security_check_cookie@4
  001b6	c9		 leave
  001b7	c2 0c 00	 ret	 12			; 0000000cH
_TEXT	ENDS
;	COMDAT text$x
text$x	SEGMENT
__unwindfunclet$?OnFolder@CDirRemover@@UAE_NPBD00@Z$0:
  00000	8d 4d c0	 lea	 ecx, DWORD PTR _strFullPathName$[ebp]
  00003	e9 00 00 00 00	 jmp	 ??1?$basic_string@DU?$char_traits@D@std@@V?$allocator@D@2@@std@@QAE@XZ ; std::basic_string<char,std::char_traits<char>,std::allocator<char> >::~basic_string<char,std::char_traits<char>,std::allocator<char> >
__unwindfunclet$?OnFolder@CDirRemover@@UAE_NPBD00@Z$1:
  00008	8d 8d 78 fe ff
	ff		 lea	 ecx, DWORD PTR _remover$[ebp]
  0000e	e9 00 00 00 00	 jmp	 ??1CDirRemover@@UAE@XZ	; CDirRemover::~CDirRemover
__unwindfunclet$?OnFolder@CDirRemover@@UAE_NPBD00@Z$2:
  00013	8d 4d d8	 lea	 ecx, DWORD PTR _strWorkingFolder$[ebp]
  00016	e9 00 00 00 00	 jmp	 ??1?$basic_string@DU?$char_traits@D@std@@V?$allocator@D@2@@std@@QAE@XZ ; std::basic_string<char,std::char_traits<char>,std::allocator<char> >::~basic_string<char,std::char_traits<char>,std::allocator<char> >
  0001b	cc		 int	 3
  0001c	cc		 int	 3
  0001d	cc		 int	 3
  0001e	cc		 int	 3
  0001f	cc		 int	 3
__ehhandler$?OnFolder@CDirRemover@@UAE_NPBD00@Z:
  00020	90		 npad	 1
  00021	90		 npad	 1
  00022	8b 54 24 08	 mov	 edx, DWORD PTR [esp+8]
  00026	8d 42 0c	 lea	 eax, DWORD PTR [edx+12]
  00029	8b 8a 54 fe ff
	ff		 mov	 ecx, DWORD PTR [edx-428]
  0002f	33 c8		 xor	 ecx, eax
  00031	e8 00 00 00 00	 call	 @__security_check_cookie@4
  00036	8b 4a fc	 mov	 ecx, DWORD PTR [edx-4]
  00039	33 c8		 xor	 ecx, eax
  0003b	e8 00 00 00 00	 call	 @__security_check_cookie@4
  00040	b8 00 00 00 00	 mov	 eax, OFFSET __ehfuncinfo$?OnFolder@CDirRemover@@UAE_NPBD00@Z
  00045	e9 00 00 00 00	 jmp	 ___CxxFrameHandler3
text$x	ENDS
?OnFolder@CDirRemover@@UAE_NPBD00@Z ENDP		; CDirRemover::OnFolder
; Function compile flags: /Odspy
; File D:\Metin2 Server Files\mainline\SRC_2014\Metin2Client\EterBase\Utils.cpp
;	COMDAT ??1CDirRemover@@UAE@XZ
_TEXT	SEGMENT
_this$ = -4						; size = 4
??1CDirRemover@@UAE@XZ PROC				; CDirRemover::~CDirRemover, COMDAT
; _this$ = ecx

; 467  : 		{

  00000	55		 push	 ebp
  00001	8b ec		 mov	 ebp, esp
  00003	51		 push	 ecx
  00004	89 4d fc	 mov	 DWORD PTR _this$[ebp], ecx
  00007	8b 45 fc	 mov	 eax, DWORD PTR _this$[ebp]
  0000a	c7 00 00 00 00
	00		 mov	 DWORD PTR [eax], OFFSET ??_7CDirRemover@@6B@

; 468  : 		}

  00010	8b 4d fc	 mov	 ecx, DWORD PTR _this$[ebp]
  00013	e8 00 00 00 00	 call	 ??1CDir@@UAE@XZ		; CDir::~CDir
  00018	c9		 leave
  00019	c3		 ret	 0
??1CDirRemover@@UAE@XZ ENDP				; CDirRemover::~CDirRemover
_TEXT	ENDS
; Function compile flags: /Odspy
; File C:\Program Files (x86)\Microsoft Visual Studio\2019\Community\VC\Tools\MSVC\14.28.29333\include\xstring
;	COMDAT ??__FstrPathName@?1??GetOnlyPathName@@YAPBDPBD@Z@YAXXZ
text$yd	SEGMENT
??__FstrPathName@?1??GetOnlyPathName@@YAPBDPBD@Z@YAXXZ PROC ; `GetOnlyPathName'::`2'::`dynamic atexit destructor for 'strPathName'', COMDAT
  00000	55		 push	 ebp
  00001	8b ec		 mov	 ebp, esp

; 2801 :         _Tidy_deallocate();

  00003	b9 00 00 00 00	 mov	 ecx, OFFSET ?strPathName@?1??GetOnlyPathName@@YAPBDPBD@Z@4V?$basic_string@DU?$char_traits@D@std@@V?$allocator@D@2@@std@@A
  00008	e8 00 00 00 00	 call	 ?_Tidy_deallocate@?$basic_string@DU?$char_traits@D@std@@V?$allocator@D@2@@std@@AAEXXZ ; std::basic_string<char,std::char_traits<char>,std::allocator<char> >::_Tidy_deallocate
  0000d	5d		 pop	 ebp
  0000e	c3		 ret	 0
??__FstrPathName@?1??GetOnlyPathName@@YAPBDPBD@Z@YAXXZ ENDP ; `GetOnlyPathName'::`2'::`dynamic atexit destructor for 'strPathName''
text$yd	ENDS
; Function compile flags: /Odspy
; File D:\Metin2 Server Files\mainline\SRC_2014\Metin2Client\EterBase\Utils.cpp
; File C:\Program Files (x86)\Microsoft Visual Studio\2019\Community\VC\Tools\MSVC\14.28.29333\include\xstring
; File C:\Program Files (x86)\Microsoft Visual Studio\2019\Community\VC\Tools\MSVC\14.28.29333\include\xmemory
; File C:\Program Files (x86)\Microsoft Visual Studio\2019\Community\VC\Tools\MSVC\14.28.29333\include\xstring
; File D:\Metin2 Server Files\mainline\SRC_2014\Metin2Client\EterBase\Utils.cpp
;	COMDAT ?GetExcutedFileName@@YAXAAV?$basic_string@DU?$char_traits@D@std@@V?$allocator@D@2@@std@@@Z
_TEXT	SEGMENT
$T1 = -128						; size = 4
$T2 = -124						; size = 4
$T3 = -120						; size = 4
_szPath$ = -116						; size = 261
__$ArrayPad$ = 148					; size = 4
_r_str$ = 160						; size = 4
?GetExcutedFileName@@YAXAAV?$basic_string@DU?$char_traits@D@std@@V?$allocator@D@2@@std@@@Z PROC ; GetExcutedFileName, COMDAT

; 577  : {

  00000	55		 push	 ebp
  00001	8d ac 24 68 ff
	ff ff		 lea	 ebp, DWORD PTR [esp-152]
  00008	81 ec 18 01 00
	00		 sub	 esp, 280		; 00000118H
  0000e	a1 00 00 00 00	 mov	 eax, DWORD PTR ___security_cookie
  00013	33 c5		 xor	 eax, ebp
  00015	89 85 94 00 00
	00		 mov	 DWORD PTR __$ArrayPad$[ebp], eax

; 578  : 	char szPath[MAX_PATH+1];
; 579  : 
; 580  : 	GetModuleFileName(NULL, szPath, MAX_PATH);

  0001b	68 04 01 00 00	 push	 260			; 00000104H
  00020	8d 45 8c	 lea	 eax, DWORD PTR _szPath$[ebp]
  00023	50		 push	 eax
  00024	6a 00		 push	 0
  00026	ff 15 00 00 00
	00		 call	 DWORD PTR __imp__GetModuleFileNameA@12

; 581  : 	szPath[MAX_PATH] = '\0';

  0002c	33 c0		 xor	 eax, eax
  0002e	40		 inc	 eax
  0002f	69 c0 04 01 00
	00		 imul	 eax, eax, 260
  00035	89 45 88	 mov	 DWORD PTR $T3[ebp], eax
  00038	81 7d 88 05 01
	00 00		 cmp	 DWORD PTR $T3[ebp], 261	; 00000105H
  0003f	73 02		 jae	 SHORT $LN3@GetExcuted
  00041	eb 05		 jmp	 SHORT $LN4@GetExcuted
$LN3@GetExcuted:
  00043	e8 00 00 00 00	 call	 ___report_rangecheckfailure
$LN4@GetExcuted:
  00048	8b 45 88	 mov	 eax, DWORD PTR $T3[ebp]
  0004b	c6 44 05 8c 00	 mov	 BYTE PTR _szPath$[ebp+eax], 0
; File C:\Program Files (x86)\Microsoft Visual Studio\2019\Community\VC\Tools\MSVC\14.28.29333\include\xstring

; 389  :         return _CSTD strlen(reinterpret_cast<const char*>(_First));

  00050	8d 45 8c	 lea	 eax, DWORD PTR _szPath$[ebp]
  00053	50		 push	 eax
  00054	e8 00 00 00 00	 call	 _strlen
  00059	59		 pop	 ecx
  0005a	89 45 84	 mov	 DWORD PTR $T2[ebp], eax
; File C:\Program Files (x86)\Microsoft Visual Studio\2019\Community\VC\Tools\MSVC\14.28.29333\include\xmemory

; 997  :     return _Len;

  0005d	8b 45 84	 mov	 eax, DWORD PTR $T2[ebp]
  00060	89 45 80	 mov	 DWORD PTR $T1[ebp], eax
; File C:\Program Files (x86)\Microsoft Visual Studio\2019\Community\VC\Tools\MSVC\14.28.29333\include\xstring

; 3062 :         return assign(_Ptr, _Convert_size<size_type>(_Traits::length(_Ptr)));

  00063	ff 75 80	 push	 DWORD PTR $T1[ebp]
  00066	8d 45 8c	 lea	 eax, DWORD PTR _szPath$[ebp]
  00069	50		 push	 eax
  0006a	8b 8d a0 00 00
	00		 mov	 ecx, DWORD PTR _r_str$[ebp]
  00070	e8 00 00 00 00	 call	 ?assign@?$basic_string@DU?$char_traits@D@std@@V?$allocator@D@2@@std@@QAEAAV12@QBDI@Z ; std::basic_string<char,std::char_traits<char>,std::allocator<char> >::assign
$LN2@GetExcuted:
; File D:\Metin2 Server Files\mainline\SRC_2014\Metin2Client\EterBase\Utils.cpp

; 584  : }

  00075	8b 8d 94 00 00
	00		 mov	 ecx, DWORD PTR __$ArrayPad$[ebp]
  0007b	33 cd		 xor	 ecx, ebp
  0007d	e8 00 00 00 00	 call	 @__security_check_cookie@4
  00082	81 c5 98 00 00
	00		 add	 ebp, 152		; 00000098H
  00088	c9		 leave
  00089	c3		 ret	 0
?GetExcutedFileName@@YAXAAV?$basic_string@DU?$char_traits@D@std@@V?$allocator@D@2@@std@@@Z ENDP ; GetExcutedFileName
_TEXT	ENDS
; Function compile flags: /Odspy
; File D:\Metin2 Server Files\mainline\SRC_2014\Metin2Client\EterBase\Utils.cpp
; File C:\Program Files (x86)\Microsoft Visual Studio\2019\Community\VC\Tools\MSVC\14.28.29333\include\xstring
; File D:\Metin2 Server Files\mainline\SRC_2014\Metin2Client\EterBase\Utils.cpp
; File C:\Program Files (x86)\Microsoft Visual Studio\2019\Community\VC\Tools\MSVC\14.28.29333\include\xstddef
; File C:\Program Files (x86)\Microsoft Visual Studio\2019\Community\VC\Tools\MSVC\14.28.29333\include\xstring
; File D:\Metin2 Server Files\mainline\SRC_2014\Metin2Client\EterBase\Utils.cpp
; File C:\Program Files (x86)\Microsoft Visual Studio\2019\Community\VC\Tools\MSVC\14.28.29333\include\xstring
; File D:\Metin2 Server Files\mainline\SRC_2014\Metin2Client\EterBase\Utils.cpp
; File C:\Program Files (x86)\Microsoft Visual Studio\2019\Community\VC\Tools\MSVC\14.28.29333\include\xstring
; File D:\Metin2 Server Files\mainline\SRC_2014\Metin2Client\EterBase\Utils.cpp
;	COMDAT ?StringExceptCharacter@@YAXPAV?$basic_string@DU?$char_traits@D@std@@V?$allocator@D@2@@std@@PBD@Z
_TEXT	SEGMENT
$T2 = -116						; size = 4
$T3 = -112						; size = 1
$T4 = -108						; size = 4
$T5 = -104						; size = 4
$T6 = -100						; size = 4
_icurPos$ = -96						; size = 4
_iNextPos$ = -92					; size = 4
$T7 = -88						; size = 24
_strFront$8 = -64					; size = 24
_strBack$9 = -40					; size = 24
__$ArrayPad$ = -16					; size = 4
__$EHRec$ = -12						; size = 12
_pstrString$ = 8					; size = 4
_c_szCharacter$ = 12					; size = 4
?StringExceptCharacter@@YAXPAV?$basic_string@DU?$char_traits@D@std@@V?$allocator@D@2@@std@@PBD@Z PROC ; StringExceptCharacter, COMDAT

; 525  : {

  00000	55		 push	 ebp
  00001	8b ec		 mov	 ebp, esp
  00003	6a ff		 push	 -1
  00005	68 00 00 00 00	 push	 __ehhandler$?StringExceptCharacter@@YAXPAV?$basic_string@DU?$char_traits@D@std@@V?$allocator@D@2@@std@@PBD@Z
  0000a	64 a1 00 00 00
	00		 mov	 eax, DWORD PTR fs:0
  00010	50		 push	 eax
  00011	83 ec 68	 sub	 esp, 104		; 00000068H
  00014	a1 00 00 00 00	 mov	 eax, DWORD PTR ___security_cookie
  00019	33 c5		 xor	 eax, ebp
  0001b	89 45 f0	 mov	 DWORD PTR __$ArrayPad$[ebp], eax
  0001e	50		 push	 eax
  0001f	8d 45 f4	 lea	 eax, DWORD PTR __$EHRec$[ebp]
  00022	64 a3 00 00 00
	00		 mov	 DWORD PTR fs:0, eax
  00028	83 65 8c 00	 and	 DWORD PTR $T2[ebp], 0

; 526  : 	int icurPos = 0;

  0002c	83 65 a0 00	 and	 DWORD PTR _icurPos$[ebp], 0

; 527  : 	int iNextPos = 0;

  00030	83 65 a4 00	 and	 DWORD PTR _iNextPos$[ebp], 0
$LN2@StringExce:

; 528  : 
; 529  : 	while((iNextPos = pstrString->find_first_of(c_szCharacter, icurPos)) >= 0)

  00034	ff 75 a0	 push	 DWORD PTR _icurPos$[ebp]
  00037	ff 75 0c	 push	 DWORD PTR _c_szCharacter$[ebp]
  0003a	8b 4d 08	 mov	 ecx, DWORD PTR _pstrString$[ebp]
  0003d	e8 00 00 00 00	 call	 ?find_first_of@?$basic_string@DU?$char_traits@D@std@@V?$allocator@D@2@@std@@QBEIQBDI@Z ; std::basic_string<char,std::char_traits<char>,std::allocator<char> >::find_first_of
  00042	89 45 a4	 mov	 DWORD PTR _iNextPos$[ebp], eax
  00045	83 7d a4 00	 cmp	 DWORD PTR _iNextPos$[ebp], 0
  00049	0f 8c 9d 00 00
	00		 jl	 $LN1@StringExce

; 530  : 	{
; 531  : 		std::string strFront = pstrString->substr(icurPos, iNextPos - icurPos);

  0004f	8b 45 a4	 mov	 eax, DWORD PTR _iNextPos$[ebp]
  00052	2b 45 a0	 sub	 eax, DWORD PTR _icurPos$[ebp]
  00055	50		 push	 eax
  00056	ff 75 a0	 push	 DWORD PTR _icurPos$[ebp]
  00059	8d 45 c0	 lea	 eax, DWORD PTR _strFront$8[ebp]
  0005c	50		 push	 eax
  0005d	8b 4d 08	 mov	 ecx, DWORD PTR _pstrString$[ebp]
  00060	e8 00 00 00 00	 call	 ?substr@?$basic_string@DU?$char_traits@D@std@@V?$allocator@D@2@@std@@QBE?AV12@II@Z ; std::basic_string<char,std::char_traits<char>,std::allocator<char> >::substr
  00065	83 65 fc 00	 and	 DWORD PTR __$EHRec$[ebp+8], 0
; File C:\Program Files (x86)\Microsoft Visual Studio\2019\Community\VC\Tools\MSVC\14.28.29333\include\xstring

; 3766 :         return _Mypair._Myval2._Mysize;

  00069	8b 45 08	 mov	 eax, DWORD PTR _pstrString$[ebp]
  0006c	8b 40 10	 mov	 eax, DWORD PTR [eax+16]
  0006f	89 45 98	 mov	 DWORD PTR $T5[ebp], eax
; File D:\Metin2 Server Files\mainline\SRC_2014\Metin2Client\EterBase\Utils.cpp

; 532  : 		std::string strBack = pstrString->substr(iNextPos+1, pstrString->length() - iNextPos - 1);

  00072	8b 45 98	 mov	 eax, DWORD PTR $T5[ebp]
  00075	2b 45 a4	 sub	 eax, DWORD PTR _iNextPos$[ebp]
  00078	48		 dec	 eax
  00079	50		 push	 eax
  0007a	8b 45 a4	 mov	 eax, DWORD PTR _iNextPos$[ebp]
  0007d	40		 inc	 eax
  0007e	50		 push	 eax
  0007f	8d 45 d8	 lea	 eax, DWORD PTR _strBack$9[ebp]
  00082	50		 push	 eax
  00083	8b 4d 08	 mov	 ecx, DWORD PTR _pstrString$[ebp]
  00086	e8 00 00 00 00	 call	 ?substr@?$basic_string@DU?$char_traits@D@std@@V?$allocator@D@2@@std@@QBE?AV12@II@Z ; std::basic_string<char,std::char_traits<char>,std::allocator<char> >::substr
  0008b	c6 45 fc 01	 mov	 BYTE PTR __$EHRec$[ebp+8], 1

; 533  : 		*pstrString = strFront + strBack;

  0008f	8d 45 d8	 lea	 eax, DWORD PTR _strBack$9[ebp]
  00092	50		 push	 eax
  00093	8d 45 c0	 lea	 eax, DWORD PTR _strFront$8[ebp]
  00096	50		 push	 eax
  00097	8d 45 a8	 lea	 eax, DWORD PTR $T7[ebp]
  0009a	50		 push	 eax
  0009b	e8 00 00 00 00	 call	 ??$?HDU?$char_traits@D@std@@V?$allocator@D@1@@std@@YA?AV?$basic_string@DU?$char_traits@D@std@@V?$allocator@D@2@@0@ABV10@0@Z ; std::operator+<char,std::char_traits<char>,std::allocator<char> >
  000a0	83 c4 0c	 add	 esp, 12			; 0000000cH
  000a3	89 45 9c	 mov	 DWORD PTR $T6[ebp], eax
; File C:\Program Files (x86)\Microsoft Visual Studio\2019\Community\VC\Tools\MSVC\14.28.29333\include\xstddef

; 275  :     return __builtin_addressof(_Val);

  000a6	8b 45 9c	 mov	 eax, DWORD PTR $T6[ebp]
  000a9	89 45 94	 mov	 DWORD PTR $T4[ebp], eax
; File C:\Program Files (x86)\Microsoft Visual Studio\2019\Community\VC\Tools\MSVC\14.28.29333\include\xstring

; 2665 :         if (this != _STD addressof(_Right)) {

  000ac	8b 45 08	 mov	 eax, DWORD PTR _pstrString$[ebp]
  000af	3b 45 94	 cmp	 eax, DWORD PTR $T4[ebp]
  000b2	74 13		 je	 SHORT $LN81@StringExce

; 2666 :             _Move_assign(_Right, _Choose_pocma<_Alty>{});

  000b4	33 c0		 xor	 eax, eax
  000b6	88 45 90	 mov	 BYTE PTR $T3[ebp], al
  000b9	ff 75 90	 push	 DWORD PTR $T3[ebp]
  000bc	ff 75 9c	 push	 DWORD PTR $T6[ebp]
  000bf	8b 4d 08	 mov	 ecx, DWORD PTR _pstrString$[ebp]
  000c2	e8 00 00 00 00	 call	 ?_Move_assign@?$basic_string@DU?$char_traits@D@std@@V?$allocator@D@2@@std@@AAEXAAV12@U_Equal_allocators@2@@Z ; std::basic_string<char,std::char_traits<char>,std::allocator<char> >::_Move_assign
$LN81@StringExce:

; 2801 :         _Tidy_deallocate();

  000c7	8d 4d a8	 lea	 ecx, DWORD PTR $T7[ebp]
  000ca	e8 00 00 00 00	 call	 ?_Tidy_deallocate@?$basic_string@DU?$char_traits@D@std@@V?$allocator@D@2@@std@@AAEXXZ ; std::basic_string<char,std::char_traits<char>,std::allocator<char> >::_Tidy_deallocate
; File D:\Metin2 Server Files\mainline\SRC_2014\Metin2Client\EterBase\Utils.cpp

; 534  : 	}

  000cf	c6 45 fc 00	 mov	 BYTE PTR __$EHRec$[ebp+8], 0
; File C:\Program Files (x86)\Microsoft Visual Studio\2019\Community\VC\Tools\MSVC\14.28.29333\include\xstring

; 2801 :         _Tidy_deallocate();

  000d3	8d 4d d8	 lea	 ecx, DWORD PTR _strBack$9[ebp]
  000d6	e8 00 00 00 00	 call	 ?_Tidy_deallocate@?$basic_string@DU?$char_traits@D@std@@V?$allocator@D@2@@std@@AAEXXZ ; std::basic_string<char,std::char_traits<char>,std::allocator<char> >::_Tidy_deallocate
; File D:\Metin2 Server Files\mainline\SRC_2014\Metin2Client\EterBase\Utils.cpp

; 534  : 	}

  000db	83 4d fc ff	 or	 DWORD PTR __$EHRec$[ebp+8], -1
; File C:\Program Files (x86)\Microsoft Visual Studio\2019\Community\VC\Tools\MSVC\14.28.29333\include\xstring

; 2801 :         _Tidy_deallocate();

  000df	8d 4d c0	 lea	 ecx, DWORD PTR _strFront$8[ebp]
  000e2	e8 00 00 00 00	 call	 ?_Tidy_deallocate@?$basic_string@DU?$char_traits@D@std@@V?$allocator@D@2@@std@@AAEXXZ ; std::basic_string<char,std::char_traits<char>,std::allocator<char> >::_Tidy_deallocate
; File D:\Metin2 Server Files\mainline\SRC_2014\Metin2Client\EterBase\Utils.cpp

; 534  : 	}

  000e7	e9 48 ff ff ff	 jmp	 $LN2@StringExce
$LN1@StringExce:

; 535  : }

  000ec	8b 4d f4	 mov	 ecx, DWORD PTR __$EHRec$[ebp]
  000ef	64 89 0d 00 00
	00 00		 mov	 DWORD PTR fs:0, ecx
  000f6	59		 pop	 ecx
  000f7	8b 4d f0	 mov	 ecx, DWORD PTR __$ArrayPad$[ebp]
  000fa	33 cd		 xor	 ecx, ebp
  000fc	e8 00 00 00 00	 call	 @__security_check_cookie@4
  00101	c9		 leave
  00102	c3		 ret	 0
_TEXT	ENDS
;	COMDAT text$x
text$x	SEGMENT
__unwindfunclet$?StringExceptCharacter@@YAXPAV?$basic_string@DU?$char_traits@D@std@@V?$allocator@D@2@@std@@PBD@Z$0:
  00000	8d 4d c0	 lea	 ecx, DWORD PTR _strFront$8[ebp]
  00003	e9 00 00 00 00	 jmp	 ??1?$basic_string@DU?$char_traits@D@std@@V?$allocator@D@2@@std@@QAE@XZ ; std::basic_string<char,std::char_traits<char>,std::allocator<char> >::~basic_string<char,std::char_traits<char>,std::allocator<char> >
__unwindfunclet$?StringExceptCharacter@@YAXPAV?$basic_string@DU?$char_traits@D@std@@V?$allocator@D@2@@std@@PBD@Z$1:
  00008	8d 4d d8	 lea	 ecx, DWORD PTR _strBack$9[ebp]
  0000b	e9 00 00 00 00	 jmp	 ??1?$basic_string@DU?$char_traits@D@std@@V?$allocator@D@2@@std@@QAE@XZ ; std::basic_string<char,std::char_traits<char>,std::allocator<char> >::~basic_string<char,std::char_traits<char>,std::allocator<char> >
  00010	cc		 int	 3
  00011	cc		 int	 3
  00012	cc		 int	 3
  00013	cc		 int	 3
  00014	cc		 int	 3
__ehhandler$?StringExceptCharacter@@YAXPAV?$basic_string@DU?$char_traits@D@std@@V?$allocator@D@2@@std@@PBD@Z:
  00015	90		 npad	 1
  00016	90		 npad	 1
  00017	8b 54 24 08	 mov	 edx, DWORD PTR [esp+8]
  0001b	8d 42 0c	 lea	 eax, DWORD PTR [edx+12]
  0001e	8b 4a 94	 mov	 ecx, DWORD PTR [edx-108]
  00021	33 c8		 xor	 ecx, eax
  00023	e8 00 00 00 00	 call	 @__security_check_cookie@4
  00028	8b 4a fc	 mov	 ecx, DWORD PTR [edx-4]
  0002b	33 c8		 xor	 ecx, eax
  0002d	e8 00 00 00 00	 call	 @__security_check_cookie@4
  00032	b8 00 00 00 00	 mov	 eax, OFFSET __ehfuncinfo$?StringExceptCharacter@@YAXPAV?$basic_string@DU?$char_traits@D@std@@V?$allocator@D@2@@std@@PBD@Z
  00037	e9 00 00 00 00	 jmp	 ___CxxFrameHandler3
text$x	ENDS
?StringExceptCharacter@@YAXPAV?$basic_string@DU?$char_traits@D@std@@V?$allocator@D@2@@std@@PBD@Z ENDP ; StringExceptCharacter
; Function compile flags: /Odspy
; File D:\Metin2 Server Files\mainline\SRC_2014\Metin2Client\EterBase\Utils.cpp
;	COMDAT ?CommandLineToArgv@@YAPAPADPADPAH@Z
_TEXT	SEGMENT
_len$ = -32						; size = 4
tv93 = -28						; size = 4
_argv$ = -24						; size = 4
_i$ = -20						; size = 4
__argv$ = -16						; size = 4
_argc$ = -12						; size = 4
_j$ = -8						; size = 4
_in_QM$ = -4						; size = 1
_in_TEXT$ = -3						; size = 1
_in_SPACE$ = -2						; size = 1
_a$ = -1						; size = 1
_CmdLine$ = 8						; size = 4
__argc$ = 12						; size = 4
?CommandLineToArgv@@YAPAPADPADPAH@Z PROC		; CommandLineToArgv, COMDAT

; 599  : {

  00000	55		 push	 ebp
  00001	8b ec		 mov	 ebp, esp
  00003	83 ec 20	 sub	 esp, 32			; 00000020H

; 600  : 	PCHAR* argv;
; 601  : 	PCHAR  _argv;
; 602  : 	ULONG   len;
; 603  : 	ULONG   argc;
; 604  : 	CHAR   a;
; 605  : 	ULONG   i, j;
; 606  : 
; 607  : 	BOOLEAN  in_QM;
; 608  : 	BOOLEAN  in_TEXT;
; 609  : 	BOOLEAN  in_SPACE;
; 610  : 
; 611  : 	len = strlen(CmdLine);

  00006	ff 75 08	 push	 DWORD PTR _CmdLine$[ebp]
  00009	e8 00 00 00 00	 call	 _strlen
  0000e	59		 pop	 ecx
  0000f	89 45 e0	 mov	 DWORD PTR _len$[ebp], eax

; 612  : 	i = ((len+2)/2)*sizeof(PVOID) + sizeof(PVOID);

  00012	8b 45 e0	 mov	 eax, DWORD PTR _len$[ebp]
  00015	40		 inc	 eax
  00016	40		 inc	 eax
  00017	d1 e8		 shr	 eax, 1
  00019	8d 04 85 04 00
	00 00		 lea	 eax, DWORD PTR [eax*4+4]
  00020	89 45 ec	 mov	 DWORD PTR _i$[ebp], eax

; 613  : 
; 614  : 	argv = (PCHAR*)GlobalAlloc(GMEM_FIXED,

  00023	8b 45 e0	 mov	 eax, DWORD PTR _len$[ebp]
  00026	8b 4d ec	 mov	 ecx, DWORD PTR _i$[ebp]
  00029	8d 44 01 02	 lea	 eax, DWORD PTR [ecx+eax+2]
  0002d	50		 push	 eax
  0002e	6a 00		 push	 0
  00030	ff 15 00 00 00
	00		 call	 DWORD PTR __imp__GlobalAlloc@8
  00036	89 45 e8	 mov	 DWORD PTR _argv$[ebp], eax

; 615  : 		i + (len+2)*sizeof(CHAR));
; 616  : 
; 617  : 	_argv = (PCHAR)(((PUCHAR)argv)+i);

  00039	8b 45 e8	 mov	 eax, DWORD PTR _argv$[ebp]
  0003c	03 45 ec	 add	 eax, DWORD PTR _i$[ebp]
  0003f	89 45 f0	 mov	 DWORD PTR __argv$[ebp], eax

; 618  : 
; 619  : 	argc = 0;

  00042	83 65 f4 00	 and	 DWORD PTR _argc$[ebp], 0

; 620  : 	argv[argc] = _argv;

  00046	8b 45 f4	 mov	 eax, DWORD PTR _argc$[ebp]
  00049	8b 4d e8	 mov	 ecx, DWORD PTR _argv$[ebp]
  0004c	8b 55 f0	 mov	 edx, DWORD PTR __argv$[ebp]
  0004f	89 14 81	 mov	 DWORD PTR [ecx+eax*4], edx

; 621  : 	in_QM = FALSE;

  00052	c6 45 fc 00	 mov	 BYTE PTR _in_QM$[ebp], 0

; 622  : 	in_TEXT = FALSE;

  00056	c6 45 fd 00	 mov	 BYTE PTR _in_TEXT$[ebp], 0

; 623  : 	in_SPACE = TRUE;

  0005a	c6 45 fe 01	 mov	 BYTE PTR _in_SPACE$[ebp], 1

; 624  : 	i = 0;

  0005e	83 65 ec 00	 and	 DWORD PTR _i$[ebp], 0

; 625  : 	j = 0;

  00062	83 65 f8 00	 and	 DWORD PTR _j$[ebp], 0
$LN2@CommandLin:

; 626  : 
; 627  : 	while( a = CmdLine[i] ) {

  00066	8b 45 08	 mov	 eax, DWORD PTR _CmdLine$[ebp]
  00069	03 45 ec	 add	 eax, DWORD PTR _i$[ebp]
  0006c	8a 00		 mov	 al, BYTE PTR [eax]
  0006e	88 45 ff	 mov	 BYTE PTR _a$[ebp], al
  00071	0f be 45 ff	 movsx	 eax, BYTE PTR _a$[ebp]
  00075	85 c0		 test	 eax, eax
  00077	0f 84 e6 00 00
	00		 je	 $LN3@CommandLin

; 628  : 		if(in_QM) {

  0007d	0f b6 45 fc	 movzx	 eax, BYTE PTR _in_QM$[ebp]
  00081	85 c0		 test	 eax, eax
  00083	74 26		 je	 SHORT $LN6@CommandLin

; 629  : 			if(a == '\"') {

  00085	0f be 45 ff	 movsx	 eax, BYTE PTR _a$[ebp]
  00089	83 f8 22	 cmp	 eax, 34			; 00000022H
  0008c	75 06		 jne	 SHORT $LN8@CommandLin

; 630  : 				in_QM = FALSE;

  0008e	c6 45 fc 00	 mov	 BYTE PTR _in_QM$[ebp], 0

; 631  : 			} else {

  00092	eb 12		 jmp	 SHORT $LN9@CommandLin
$LN8@CommandLin:

; 632  : 				_argv[j] = a;

  00094	8b 45 f0	 mov	 eax, DWORD PTR __argv$[ebp]
  00097	03 45 f8	 add	 eax, DWORD PTR _j$[ebp]
  0009a	8a 4d ff	 mov	 cl, BYTE PTR _a$[ebp]
  0009d	88 08		 mov	 BYTE PTR [eax], cl

; 633  : 				j++;

  0009f	8b 45 f8	 mov	 eax, DWORD PTR _j$[ebp]
  000a2	40		 inc	 eax
  000a3	89 45 f8	 mov	 DWORD PTR _j$[ebp], eax
$LN9@CommandLin:

; 634  : 			}
; 635  : 		} else {

  000a6	e9 ac 00 00 00	 jmp	 $LN7@CommandLin
$LN6@CommandLin:

; 636  : 			switch(a) {

  000ab	8a 45 ff	 mov	 al, BYTE PTR _a$[ebp]
  000ae	88 45 e4	 mov	 BYTE PTR tv93[ebp], al
  000b1	80 7d e4 09	 cmp	 BYTE PTR tv93[ebp], 9
  000b5	7c 68		 jl	 SHORT $LN14@CommandLin
  000b7	80 7d e4 0a	 cmp	 BYTE PTR tv93[ebp], 10	; 0000000aH
  000bb	7e 40		 jle	 SHORT $LN12@CommandLin
  000bd	80 7d e4 0d	 cmp	 BYTE PTR tv93[ebp], 13	; 0000000dH
  000c1	74 3a		 je	 SHORT $LN12@CommandLin
  000c3	80 7d e4 20	 cmp	 BYTE PTR tv93[ebp], 32	; 00000020H
  000c7	74 34		 je	 SHORT $LN12@CommandLin
  000c9	80 7d e4 22	 cmp	 BYTE PTR tv93[ebp], 34	; 00000022H
  000cd	74 02		 je	 SHORT $LN10@CommandLin
  000cf	eb 4e		 jmp	 SHORT $LN14@CommandLin
$LN10@CommandLin:

; 637  : 				case '\"':
; 638  : 					in_QM = TRUE;

  000d1	c6 45 fc 01	 mov	 BYTE PTR _in_QM$[ebp], 1

; 639  : 					in_TEXT = TRUE;

  000d5	c6 45 fd 01	 mov	 BYTE PTR _in_TEXT$[ebp], 1

; 640  : 					if(in_SPACE) {

  000d9	0f b6 45 fe	 movzx	 eax, BYTE PTR _in_SPACE$[ebp]
  000dd	85 c0		 test	 eax, eax
  000df	74 16		 je	 SHORT $LN11@CommandLin

; 641  : 						argv[argc] = _argv+j;

  000e1	8b 45 f0	 mov	 eax, DWORD PTR __argv$[ebp]
  000e4	03 45 f8	 add	 eax, DWORD PTR _j$[ebp]
  000e7	8b 4d f4	 mov	 ecx, DWORD PTR _argc$[ebp]
  000ea	8b 55 e8	 mov	 edx, DWORD PTR _argv$[ebp]
  000ed	89 04 8a	 mov	 DWORD PTR [edx+ecx*4], eax

; 642  : 						argc++;

  000f0	8b 45 f4	 mov	 eax, DWORD PTR _argc$[ebp]
  000f3	40		 inc	 eax
  000f4	89 45 f4	 mov	 DWORD PTR _argc$[ebp], eax
$LN11@CommandLin:

; 643  : 					}
; 644  : 					in_SPACE = FALSE;

  000f7	c6 45 fe 00	 mov	 BYTE PTR _in_SPACE$[ebp], 0

; 645  : 					break;

  000fb	eb 5a		 jmp	 SHORT $LN7@CommandLin
$LN12@CommandLin:

; 646  : 				case ' ':
; 647  : 				case '\t':
; 648  : 				case '\n':
; 649  : 				case '\r':
; 650  : 					if(in_TEXT) {

  000fd	0f b6 45 fd	 movzx	 eax, BYTE PTR _in_TEXT$[ebp]
  00101	85 c0		 test	 eax, eax
  00103	74 10		 je	 SHORT $LN13@CommandLin

; 651  : 						_argv[j] = '\0';

  00105	8b 45 f0	 mov	 eax, DWORD PTR __argv$[ebp]
  00108	03 45 f8	 add	 eax, DWORD PTR _j$[ebp]
  0010b	c6 00 00	 mov	 BYTE PTR [eax], 0

; 652  : 						j++;

  0010e	8b 45 f8	 mov	 eax, DWORD PTR _j$[ebp]
  00111	40		 inc	 eax
  00112	89 45 f8	 mov	 DWORD PTR _j$[ebp], eax
$LN13@CommandLin:

; 653  : 					}
; 654  : 					in_TEXT = FALSE;

  00115	c6 45 fd 00	 mov	 BYTE PTR _in_TEXT$[ebp], 0

; 655  : 					in_SPACE = TRUE;

  00119	c6 45 fe 01	 mov	 BYTE PTR _in_SPACE$[ebp], 1

; 656  : 					break;

  0011d	eb 38		 jmp	 SHORT $LN7@CommandLin
$LN14@CommandLin:

; 657  : 				default:
; 658  : 					in_TEXT = TRUE;

  0011f	c6 45 fd 01	 mov	 BYTE PTR _in_TEXT$[ebp], 1

; 659  : 					if(in_SPACE) {

  00123	0f b6 45 fe	 movzx	 eax, BYTE PTR _in_SPACE$[ebp]
  00127	85 c0		 test	 eax, eax
  00129	74 16		 je	 SHORT $LN15@CommandLin

; 660  : 						argv[argc] = _argv+j;

  0012b	8b 45 f0	 mov	 eax, DWORD PTR __argv$[ebp]
  0012e	03 45 f8	 add	 eax, DWORD PTR _j$[ebp]
  00131	8b 4d f4	 mov	 ecx, DWORD PTR _argc$[ebp]
  00134	8b 55 e8	 mov	 edx, DWORD PTR _argv$[ebp]
  00137	89 04 8a	 mov	 DWORD PTR [edx+ecx*4], eax

; 661  : 						argc++;

  0013a	8b 45 f4	 mov	 eax, DWORD PTR _argc$[ebp]
  0013d	40		 inc	 eax
  0013e	89 45 f4	 mov	 DWORD PTR _argc$[ebp], eax
$LN15@CommandLin:

; 662  : 					}
; 663  : 					_argv[j] = a;

  00141	8b 45 f0	 mov	 eax, DWORD PTR __argv$[ebp]
  00144	03 45 f8	 add	 eax, DWORD PTR _j$[ebp]
  00147	8a 4d ff	 mov	 cl, BYTE PTR _a$[ebp]
  0014a	88 08		 mov	 BYTE PTR [eax], cl

; 664  : 					j++;

  0014c	8b 45 f8	 mov	 eax, DWORD PTR _j$[ebp]
  0014f	40		 inc	 eax
  00150	89 45 f8	 mov	 DWORD PTR _j$[ebp], eax

; 665  : 					in_SPACE = FALSE;

  00153	c6 45 fe 00	 mov	 BYTE PTR _in_SPACE$[ebp], 0
$LN7@CommandLin:

; 666  : 					break;
; 667  : 			}
; 668  : 		}
; 669  : 		i++;

  00157	8b 45 ec	 mov	 eax, DWORD PTR _i$[ebp]
  0015a	40		 inc	 eax
  0015b	89 45 ec	 mov	 DWORD PTR _i$[ebp], eax

; 670  : 	}

  0015e	e9 03 ff ff ff	 jmp	 $LN2@CommandLin
$LN3@CommandLin:

; 671  : 	_argv[j] = '\0';

  00163	8b 45 f0	 mov	 eax, DWORD PTR __argv$[ebp]
  00166	03 45 f8	 add	 eax, DWORD PTR _j$[ebp]
  00169	c6 00 00	 mov	 BYTE PTR [eax], 0

; 672  : 	argv[argc] = NULL;

  0016c	8b 45 f4	 mov	 eax, DWORD PTR _argc$[ebp]
  0016f	8b 4d e8	 mov	 ecx, DWORD PTR _argv$[ebp]
  00172	83 24 81 00	 and	 DWORD PTR [ecx+eax*4], 0

; 673  : 
; 674  : 	(*_argc) = argc;

  00176	8b 45 0c	 mov	 eax, DWORD PTR __argc$[ebp]
  00179	8b 4d f4	 mov	 ecx, DWORD PTR _argc$[ebp]
  0017c	89 08		 mov	 DWORD PTR [eax], ecx

; 675  : 	return argv;

  0017e	8b 45 e8	 mov	 eax, DWORD PTR _argv$[ebp]

; 676  : }

  00181	c9		 leave
  00182	c3		 ret	 0
?CommandLineToArgv@@YAPAPADPADPAH@Z ENDP		; CommandLineToArgv
_TEXT	ENDS
; Function compile flags: /Odspy
; File D:\Metin2 Server Files\mainline\SRC_2014\Metin2Client\EterBase\Utils.cpp
; File C:\Program Files (x86)\Windows Kits\10\Include\10.0.18362.0\ucrt\stdio.h
; File D:\Metin2 Server Files\mainline\SRC_2014\Metin2Client\EterBase\Utils.cpp
;	COMDAT ?_getf@@YAPBDPBDZZ
_TEXT	SEGMENT
tv85 = -16						; size = 4
__Format$ = -12						; size = 4
_args$ = -8						; size = 4
__Result$1 = -4						; size = 4
_c_szFormat$ = 8					; size = 4
?_getf@@YAPBDPBDZZ PROC					; _getf, COMDAT

; 587  : {

  00000	55		 push	 ebp
  00001	8b ec		 mov	 ebp, esp
  00003	83 ec 10	 sub	 esp, 16			; 00000010H

; 588  : 	static char szBuf[256];
; 589  : 
; 590  : 	va_list args;
; 591  : 	va_start(args, c_szFormat);

  00006	8d 45 0c	 lea	 eax, DWORD PTR _c_szFormat$[ebp+4]
  00009	89 45 f8	 mov	 DWORD PTR _args$[ebp], eax

; 592  : 	_vsnprintf(szBuf, sizeof(szBuf), c_szFormat, args);

  0000c	8b 45 08	 mov	 eax, DWORD PTR _c_szFormat$[ebp]
  0000f	89 45 f4	 mov	 DWORD PTR __Format$[ebp], eax
; File C:\Program Files (x86)\Windows Kits\10\Include\10.0.18362.0\ucrt\stdio.h

; 1390 :         int const _Result = __stdio_common_vsprintf(

  00012	ff 75 f8	 push	 DWORD PTR _args$[ebp]
  00015	6a 00		 push	 0
  00017	ff 75 f4	 push	 DWORD PTR __Format$[ebp]
  0001a	68 00 01 00 00	 push	 256			; 00000100H
  0001f	68 00 00 00 00	 push	 OFFSET ?szBuf@?1??_getf@@YAPBDPBDZZ@4PADA
  00024	e8 00 00 00 00	 call	 ___local_stdio_printf_options
  00029	8b 08		 mov	 ecx, DWORD PTR [eax]
  0002b	83 c9 01	 or	 ecx, 1
  0002e	8b 40 04	 mov	 eax, DWORD PTR [eax+4]
  00031	50		 push	 eax
  00032	51		 push	 ecx
  00033	e8 00 00 00 00	 call	 ___stdio_common_vsprintf
  00038	83 c4 1c	 add	 esp, 28			; 0000001cH
  0003b	89 45 fc	 mov	 DWORD PTR __Result$1[ebp], eax

; 1391 :             _CRT_INTERNAL_LOCAL_PRINTF_OPTIONS | _CRT_INTERNAL_PRINTF_LEGACY_VSPRINTF_NULL_TERMINATION,
; 1392 :             _Buffer, _BufferCount, _Format, _Locale, _ArgList);
; 1393 : 
; 1394 :         return _Result < 0 ? -1 : _Result;

  0003e	83 7d fc 00	 cmp	 DWORD PTR __Result$1[ebp], 0
  00042	7d 06		 jge	 SHORT $LN7@getf
  00044	83 4d f0 ff	 or	 DWORD PTR tv85[ebp], -1
  00048	eb 06		 jmp	 SHORT $LN3@getf
$LN7@getf:
  0004a	8b 45 fc	 mov	 eax, DWORD PTR __Result$1[ebp]
  0004d	89 45 f0	 mov	 DWORD PTR tv85[ebp], eax
$LN3@getf:
; File D:\Metin2 Server Files\mainline\SRC_2014\Metin2Client\EterBase\Utils.cpp

; 593  : 	va_end(args);

  00050	83 65 f8 00	 and	 DWORD PTR _args$[ebp], 0

; 594  : 
; 595  : 	return szBuf;

  00054	b8 00 00 00 00	 mov	 eax, OFFSET ?szBuf@?1??_getf@@YAPBDPBDZZ@4PADA

; 596  : }

  00059	c9		 leave
  0005a	c3		 ret	 0
?_getf@@YAPBDPBDZZ ENDP					; _getf
_TEXT	ENDS
; Function compile flags: /Odspy
; File D:\Metin2 Server Files\mainline\SRC_2014\Metin2Client\EterBase\Utils.cpp
; File C:\Program Files (x86)\Microsoft Visual Studio\2019\Community\VC\Tools\MSVC\14.28.29333\include\xstring
; File D:\Metin2 Server Files\mainline\SRC_2014\Metin2Client\EterBase\Utils.cpp
; File C:\Program Files (x86)\Microsoft Visual Studio\2019\Community\VC\Tools\MSVC\14.28.29333\include\xstring
; File D:\Metin2 Server Files\mainline\SRC_2014\Metin2Client\EterBase\Utils.cpp
; File C:\Program Files (x86)\Microsoft Visual Studio\2019\Community\VC\Tools\MSVC\14.28.29333\include\type_traits
; File C:\Program Files (x86)\Microsoft Visual Studio\2019\Community\VC\Tools\MSVC\14.28.29333\include\vector
; File D:\Metin2 Server Files\mainline\SRC_2014\Metin2Client\EterBase\Utils.cpp
; File C:\Program Files (x86)\Microsoft Visual Studio\2019\Community\VC\Tools\MSVC\14.28.29333\include\xstring
; File D:\Metin2 Server Files\mainline\SRC_2014\Metin2Client\EterBase\Utils.cpp
; File C:\Program Files (x86)\Microsoft Visual Studio\2019\Community\VC\Tools\MSVC\14.28.29333\include\xstring
; File D:\Metin2 Server Files\mainline\SRC_2014\Metin2Client\EterBase\Utils.cpp
;	COMDAT ?SplitLine@@YA_NPBD0PAV?$vector@V?$basic_string@DU?$char_traits@D@std@@V?$allocator@D@2@@std@@V?$allocator@V?$basic_string@DU?$char_traits@D@std@@V?$allocator@D@2@@std@@@2@@std@@@Z
_TEXT	SEGMENT
$T2 = -100						; size = 4
$T3 = -96						; size = 4
$T4 = -92						; size = 4
$T5 = -88						; size = 4
tv68 = -84						; size = 4
_basePos$ = -80						; size = 4
_endPos$6 = -76						; size = 4
$T7 = -71						; size = 1
$T8 = -70						; size = 1
$T9 = -69						; size = 1
_beginPos$10 = -68					; size = 4
$T11 = -64						; size = 24
_strLine$ = -40						; size = 24
__$ArrayPad$ = -16					; size = 4
__$EHRec$ = -12						; size = 12
_c_szLine$ = 8						; size = 4
_c_szDelimeter$ = 12					; size = 4
_pkVec_strToken$ = 16					; size = 4
?SplitLine@@YA_NPBD0PAV?$vector@V?$basic_string@DU?$char_traits@D@std@@V?$allocator@D@2@@std@@V?$allocator@V?$basic_string@DU?$char_traits@D@std@@V?$allocator@D@2@@std@@@2@@std@@@Z PROC ; SplitLine, COMDAT

; 538  : {

  00000	55		 push	 ebp
  00001	8b ec		 mov	 ebp, esp
  00003	6a ff		 push	 -1
  00005	68 00 00 00 00	 push	 __ehhandler$?SplitLine@@YA_NPBD0PAV?$vector@V?$basic_string@DU?$char_traits@D@std@@V?$allocator@D@2@@std@@V?$allocator@V?$basic_string@DU?$char_traits@D@std@@V?$allocator@D@2@@std@@@2@@std@@@Z
  0000a	64 a1 00 00 00
	00		 mov	 eax, DWORD PTR fs:0
  00010	50		 push	 eax
  00011	83 ec 58	 sub	 esp, 88			; 00000058H
  00014	a1 00 00 00 00	 mov	 eax, DWORD PTR ___security_cookie
  00019	33 c5		 xor	 eax, ebp
  0001b	89 45 f0	 mov	 DWORD PTR __$ArrayPad$[ebp], eax
  0001e	50		 push	 eax
  0001f	8d 45 f4	 lea	 eax, DWORD PTR __$EHRec$[ebp]
  00022	64 a3 00 00 00
	00		 mov	 DWORD PTR fs:0, eax
  00028	83 65 9c 00	 and	 DWORD PTR $T2[ebp], 0

; 539  : 	pkVec_strToken->reserve(10);

  0002c	6a 0a		 push	 10			; 0000000aH
  0002e	8b 4d 10	 mov	 ecx, DWORD PTR _pkVec_strToken$[ebp]
  00031	e8 00 00 00 00	 call	 ?reserve@?$vector@V?$basic_string@DU?$char_traits@D@std@@V?$allocator@D@2@@std@@V?$allocator@V?$basic_string@DU?$char_traits@D@std@@V?$allocator@D@2@@std@@@2@@std@@QAEXI@Z ; std::vector<std::basic_string<char,std::char_traits<char>,std::allocator<char> >,std::allocator<std::basic_string<char,std::char_traits<char>,std::allocator<char> > > >::reserve

; 540  : 	pkVec_strToken->clear();

  00036	8b 4d 10	 mov	 ecx, DWORD PTR _pkVec_strToken$[ebp]
  00039	e8 00 00 00 00	 call	 ?clear@?$vector@V?$basic_string@DU?$char_traits@D@std@@V?$allocator@D@2@@std@@V?$allocator@V?$basic_string@DU?$char_traits@D@std@@V?$allocator@D@2@@std@@@2@@std@@QAEXXZ ; std::vector<std::basic_string<char,std::char_traits<char>,std::allocator<char> >,std::allocator<std::basic_string<char,std::char_traits<char>,std::allocator<char> > > >::clear

; 541  : 
; 542  : 	std::string strLine = c_szLine;

  0003e	ff 75 08	 push	 DWORD PTR _c_szLine$[ebp]
  00041	8d 4d d8	 lea	 ecx, DWORD PTR _strLine$[ebp]
  00044	e8 00 00 00 00	 call	 ??0?$basic_string@DU?$char_traits@D@std@@V?$allocator@D@2@@std@@QAE@QBD@Z ; std::basic_string<char,std::char_traits<char>,std::allocator<char> >::basic_string<char,std::char_traits<char>,std::allocator<char> >
  00049	83 65 fc 00	 and	 DWORD PTR __$EHRec$[ebp+8], 0

; 543  : 
; 544  : 	DWORD basePos = 0;

  0004d	83 65 b0 00	 and	 DWORD PTR _basePos$[ebp], 0
$LN4@SplitLine:

; 545  : 
; 546  : 	do
; 547  : 	{
; 548  : 		int beginPos = strLine.find_first_not_of(c_szDelimeter, basePos);

  00051	ff 75 b0	 push	 DWORD PTR _basePos$[ebp]
  00054	ff 75 0c	 push	 DWORD PTR _c_szDelimeter$[ebp]
  00057	8d 4d d8	 lea	 ecx, DWORD PTR _strLine$[ebp]
  0005a	e8 00 00 00 00	 call	 ?find_first_not_of@?$basic_string@DU?$char_traits@D@std@@V?$allocator@D@2@@std@@QBEIQBDI@Z ; std::basic_string<char,std::char_traits<char>,std::allocator<char> >::find_first_not_of
  0005f	89 45 bc	 mov	 DWORD PTR _beginPos$10[ebp], eax

; 549  : 		if (beginPos < 0)

  00062	83 7d bc 00	 cmp	 DWORD PTR _beginPos$10[ebp], 0
  00066	7d 18		 jge	 SHORT $LN5@SplitLine

; 550  : 			return false;

  00068	c6 45 bb 00	 mov	 BYTE PTR $T9[ebp], 0
  0006c	83 4d fc ff	 or	 DWORD PTR __$EHRec$[ebp+8], -1
; File C:\Program Files (x86)\Microsoft Visual Studio\2019\Community\VC\Tools\MSVC\14.28.29333\include\xstring

; 2801 :         _Tidy_deallocate();

  00070	8d 4d d8	 lea	 ecx, DWORD PTR _strLine$[ebp]
  00073	e8 00 00 00 00	 call	 ?_Tidy_deallocate@?$basic_string@DU?$char_traits@D@std@@V?$allocator@D@2@@std@@AAEXXZ ; std::basic_string<char,std::char_traits<char>,std::allocator<char> >::_Tidy_deallocate
; File D:\Metin2 Server Files\mainline\SRC_2014\Metin2Client\EterBase\Utils.cpp

; 550  : 			return false;

  00078	8a 45 bb	 mov	 al, BYTE PTR $T9[ebp]
  0007b	e9 d0 00 00 00	 jmp	 $LN1@SplitLine
$LN5@SplitLine:

; 551  : 
; 552  : 		int endPos;
; 553  : 
; 554  : 		if (strLine[beginPos] == '"')

  00080	ff 75 bc	 push	 DWORD PTR _beginPos$10[ebp]
  00083	8d 4d d8	 lea	 ecx, DWORD PTR _strLine$[ebp]
  00086	e8 00 00 00 00	 call	 ??A?$basic_string@DU?$char_traits@D@std@@V?$allocator@D@2@@std@@QAEAADI@Z ; std::basic_string<char,std::char_traits<char>,std::allocator<char> >::operator[]
  0008b	0f be 00	 movsx	 eax, BYTE PTR [eax]
  0008e	83 f8 22	 cmp	 eax, 34			; 00000022H
  00091	75 41		 jne	 SHORT $LN6@SplitLine

; 555  : 		{
; 556  : 			++beginPos;

  00093	8b 45 bc	 mov	 eax, DWORD PTR _beginPos$10[ebp]
  00096	40		 inc	 eax
  00097	89 45 bc	 mov	 DWORD PTR _beginPos$10[ebp], eax

; 557  : 			endPos = strLine.find_first_of("\"", beginPos);

  0009a	ff 75 bc	 push	 DWORD PTR _beginPos$10[ebp]
  0009d	68 00 00 00 00	 push	 OFFSET ??_C@_01BJJEKLCA@?$CC@
  000a2	8d 4d d8	 lea	 ecx, DWORD PTR _strLine$[ebp]
  000a5	e8 00 00 00 00	 call	 ?find_first_of@?$basic_string@DU?$char_traits@D@std@@V?$allocator@D@2@@std@@QBEIQBDI@Z ; std::basic_string<char,std::char_traits<char>,std::allocator<char> >::find_first_of
  000aa	89 45 b4	 mov	 DWORD PTR _endPos$6[ebp], eax

; 558  : 
; 559  : 			if (endPos < 0)

  000ad	83 7d b4 00	 cmp	 DWORD PTR _endPos$6[ebp], 0
  000b1	7d 18		 jge	 SHORT $LN8@SplitLine

; 560  : 				return false;

  000b3	c6 45 ba 00	 mov	 BYTE PTR $T8[ebp], 0
  000b7	83 4d fc ff	 or	 DWORD PTR __$EHRec$[ebp+8], -1
; File C:\Program Files (x86)\Microsoft Visual Studio\2019\Community\VC\Tools\MSVC\14.28.29333\include\xstring

; 2801 :         _Tidy_deallocate();

  000bb	8d 4d d8	 lea	 ecx, DWORD PTR _strLine$[ebp]
  000be	e8 00 00 00 00	 call	 ?_Tidy_deallocate@?$basic_string@DU?$char_traits@D@std@@V?$allocator@D@2@@std@@AAEXXZ ; std::basic_string<char,std::char_traits<char>,std::allocator<char> >::_Tidy_deallocate
; File D:\Metin2 Server Files\mainline\SRC_2014\Metin2Client\EterBase\Utils.cpp

; 560  : 				return false;

  000c3	8a 45 ba	 mov	 al, BYTE PTR $T8[ebp]
  000c6	e9 85 00 00 00	 jmp	 $LN1@SplitLine
$LN8@SplitLine:

; 561  : 			
; 562  : 			basePos = endPos + 1;

  000cb	8b 45 b4	 mov	 eax, DWORD PTR _endPos$6[ebp]
  000ce	40		 inc	 eax
  000cf	89 45 b0	 mov	 DWORD PTR _basePos$[ebp], eax

; 563  : 		}

  000d2	eb 17		 jmp	 SHORT $LN7@SplitLine
$LN6@SplitLine:

; 564  : 		else
; 565  : 		{
; 566  : 			endPos = strLine.find_first_of(c_szDelimeter, beginPos);

  000d4	ff 75 bc	 push	 DWORD PTR _beginPos$10[ebp]
  000d7	ff 75 0c	 push	 DWORD PTR _c_szDelimeter$[ebp]
  000da	8d 4d d8	 lea	 ecx, DWORD PTR _strLine$[ebp]
  000dd	e8 00 00 00 00	 call	 ?find_first_of@?$basic_string@DU?$char_traits@D@std@@V?$allocator@D@2@@std@@QBEIQBDI@Z ; std::basic_string<char,std::char_traits<char>,std::allocator<char> >::find_first_of
  000e2	89 45 b4	 mov	 DWORD PTR _endPos$6[ebp], eax

; 567  : 			basePos = endPos;

  000e5	8b 45 b4	 mov	 eax, DWORD PTR _endPos$6[ebp]
  000e8	89 45 b0	 mov	 DWORD PTR _basePos$[ebp], eax
$LN7@SplitLine:

; 570  : 		pkVec_strToken->push_back(strLine.substr(beginPos, endPos - beginPos));

  000eb	8b 45 b4	 mov	 eax, DWORD PTR _endPos$6[ebp]
  000ee	2b 45 bc	 sub	 eax, DWORD PTR _beginPos$10[ebp]
  000f1	50		 push	 eax
  000f2	ff 75 bc	 push	 DWORD PTR _beginPos$10[ebp]
  000f5	8d 45 c0	 lea	 eax, DWORD PTR $T11[ebp]
  000f8	50		 push	 eax
  000f9	8d 4d d8	 lea	 ecx, DWORD PTR _strLine$[ebp]
  000fc	e8 00 00 00 00	 call	 ?substr@?$basic_string@DU?$char_traits@D@std@@V?$allocator@D@2@@std@@QBE?AV12@II@Z ; std::basic_string<char,std::char_traits<char>,std::allocator<char> >::substr
  00101	89 45 ac	 mov	 DWORD PTR tv68[ebp], eax
  00104	8b 45 ac	 mov	 eax, DWORD PTR tv68[ebp]
  00107	89 45 a8	 mov	 DWORD PTR $T5[ebp], eax
  0010a	c6 45 fc 01	 mov	 BYTE PTR __$EHRec$[ebp+8], 1
; File C:\Program Files (x86)\Microsoft Visual Studio\2019\Community\VC\Tools\MSVC\14.28.29333\include\type_traits

; 1455 :     return static_cast<remove_reference_t<_Ty>&&>(_Arg);

  0010e	8b 45 a8	 mov	 eax, DWORD PTR $T5[ebp]
  00111	89 45 a4	 mov	 DWORD PTR $T4[ebp], eax
; File C:\Program Files (x86)\Microsoft Visual Studio\2019\Community\VC\Tools\MSVC\14.28.29333\include\vector

; 721  :         emplace_back(_STD move(_Val));

  00114	ff 75 a4	 push	 DWORD PTR $T4[ebp]
  00117	8b 4d 10	 mov	 ecx, DWORD PTR _pkVec_strToken$[ebp]
  0011a	e8 00 00 00 00	 call	 ??$emplace_back@V?$basic_string@DU?$char_traits@D@std@@V?$allocator@D@2@@std@@@?$vector@V?$basic_string@DU?$char_traits@D@std@@V?$allocator@D@2@@std@@V?$allocator@V?$basic_string@DU?$char_traits@D@std@@V?$allocator@D@2@@std@@@2@@std@@QAEX$$QAV?$basic_string@DU?$char_traits@D@std@@V?$allocator@D@2@@1@@Z ; std::vector<std::basic_string<char,std::char_traits<char>,std::allocator<char> >,std::allocator<std::basic_string<char,std::char_traits<char>,std::allocator<char> > > >::emplace_back<std::basic_string<char,std::char_traits<char>,std::allocator<char> > >
; File D:\Metin2 Server Files\mainline\SRC_2014\Metin2Client\EterBase\Utils.cpp

; 570  : 		pkVec_strToken->push_back(strLine.substr(beginPos, endPos - beginPos));

  0011f	c6 45 fc 00	 mov	 BYTE PTR __$EHRec$[ebp+8], 0
; File C:\Program Files (x86)\Microsoft Visual Studio\2019\Community\VC\Tools\MSVC\14.28.29333\include\xstring

; 2801 :         _Tidy_deallocate();

  00123	8d 4d c0	 lea	 ecx, DWORD PTR $T11[ebp]
  00126	e8 00 00 00 00	 call	 ?_Tidy_deallocate@?$basic_string@DU?$char_traits@D@std@@V?$allocator@D@2@@std@@AAEXXZ ; std::basic_string<char,std::char_traits<char>,std::allocator<char> >::_Tidy_deallocate

; 3766 :         return _Mypair._Myval2._Mysize;

  0012b	8b 45 e8	 mov	 eax, DWORD PTR _strLine$[ebp+16]
  0012e	89 45 a0	 mov	 DWORD PTR $T3[ebp], eax
; File D:\Metin2 Server Files\mainline\SRC_2014\Metin2Client\EterBase\Utils.cpp

; 571  : 	} while (basePos < strLine.length());

  00131	8b 45 b0	 mov	 eax, DWORD PTR _basePos$[ebp]
  00134	3b 45 a0	 cmp	 eax, DWORD PTR $T3[ebp]
  00137	0f 82 14 ff ff
	ff		 jb	 $LN4@SplitLine

; 573  : 	return true;

  0013d	c6 45 b9 01	 mov	 BYTE PTR $T7[ebp], 1
  00141	83 4d fc ff	 or	 DWORD PTR __$EHRec$[ebp+8], -1
; File C:\Program Files (x86)\Microsoft Visual Studio\2019\Community\VC\Tools\MSVC\14.28.29333\include\xstring

; 2801 :         _Tidy_deallocate();

  00145	8d 4d d8	 lea	 ecx, DWORD PTR _strLine$[ebp]
  00148	e8 00 00 00 00	 call	 ?_Tidy_deallocate@?$basic_string@DU?$char_traits@D@std@@V?$allocator@D@2@@std@@AAEXXZ ; std::basic_string<char,std::char_traits<char>,std::allocator<char> >::_Tidy_deallocate
; File D:\Metin2 Server Files\mainline\SRC_2014\Metin2Client\EterBase\Utils.cpp

; 573  : 	return true;

  0014d	8a 45 b9	 mov	 al, BYTE PTR $T7[ebp]
$LN1@SplitLine:

; 574  : }

  00150	8b 4d f4	 mov	 ecx, DWORD PTR __$EHRec$[ebp]
  00153	64 89 0d 00 00
	00 00		 mov	 DWORD PTR fs:0, ecx
  0015a	59		 pop	 ecx
  0015b	8b 4d f0	 mov	 ecx, DWORD PTR __$ArrayPad$[ebp]
  0015e	33 cd		 xor	 ecx, ebp
  00160	e8 00 00 00 00	 call	 @__security_check_cookie@4
  00165	c9		 leave
  00166	c3		 ret	 0
_TEXT	ENDS
;	COMDAT text$x
text$x	SEGMENT
__unwindfunclet$?SplitLine@@YA_NPBD0PAV?$vector@V?$basic_string@DU?$char_traits@D@std@@V?$allocator@D@2@@std@@V?$allocator@V?$basic_string@DU?$char_traits@D@std@@V?$allocator@D@2@@std@@@2@@std@@@Z$0:
  00000	8d 4d d8	 lea	 ecx, DWORD PTR _strLine$[ebp]
  00003	e9 00 00 00 00	 jmp	 ??1?$basic_string@DU?$char_traits@D@std@@V?$allocator@D@2@@std@@QAE@XZ ; std::basic_string<char,std::char_traits<char>,std::allocator<char> >::~basic_string<char,std::char_traits<char>,std::allocator<char> >
__unwindfunclet$?SplitLine@@YA_NPBD0PAV?$vector@V?$basic_string@DU?$char_traits@D@std@@V?$allocator@D@2@@std@@V?$allocator@V?$basic_string@DU?$char_traits@D@std@@V?$allocator@D@2@@std@@@2@@std@@@Z$1:
  00008	8d 4d c0	 lea	 ecx, DWORD PTR $T11[ebp]
  0000b	e9 00 00 00 00	 jmp	 ??1?$basic_string@DU?$char_traits@D@std@@V?$allocator@D@2@@std@@QAE@XZ ; std::basic_string<char,std::char_traits<char>,std::allocator<char> >::~basic_string<char,std::char_traits<char>,std::allocator<char> >
  00010	cc		 int	 3
  00011	cc		 int	 3
  00012	cc		 int	 3
  00013	cc		 int	 3
  00014	cc		 int	 3
__ehhandler$?SplitLine@@YA_NPBD0PAV?$vector@V?$basic_string@DU?$char_traits@D@std@@V?$allocator@D@2@@std@@V?$allocator@V?$basic_string@DU?$char_traits@D@std@@V?$allocator@D@2@@std@@@2@@std@@@Z:
  00015	90		 npad	 1
  00016	90		 npad	 1
  00017	8b 54 24 08	 mov	 edx, DWORD PTR [esp+8]
  0001b	8d 42 0c	 lea	 eax, DWORD PTR [edx+12]
  0001e	8b 4a a4	 mov	 ecx, DWORD PTR [edx-92]
  00021	33 c8		 xor	 ecx, eax
  00023	e8 00 00 00 00	 call	 @__security_check_cookie@4
  00028	8b 4a fc	 mov	 ecx, DWORD PTR [edx-4]
  0002b	33 c8		 xor	 ecx, eax
  0002d	e8 00 00 00 00	 call	 @__security_check_cookie@4
  00032	b8 00 00 00 00	 mov	 eax, OFFSET __ehfuncinfo$?SplitLine@@YA_NPBD0PAV?$vector@V?$basic_string@DU?$char_traits@D@std@@V?$allocator@D@2@@std@@V?$allocator@V?$basic_string@DU?$char_traits@D@std@@V?$allocator@D@2@@std@@@2@@std@@@Z
  00037	e9 00 00 00 00	 jmp	 ___CxxFrameHandler3
text$x	ENDS
?SplitLine@@YA_NPBD0PAV?$vector@V?$basic_string@DU?$char_traits@D@std@@V?$allocator@D@2@@std@@V?$allocator@V?$basic_string@DU?$char_traits@D@std@@V?$allocator@D@2@@std@@@2@@std@@@Z ENDP ; SplitLine
; Function compile flags: /Odspy
; File D:\Metin2 Server Files\mainline\SRC_2014\Metin2Client\EterBase\Utils.cpp
;	COMDAT ?RemoveAllDirectory@@YAXPBD@Z
_TEXT	SEGMENT
_remover$2 = -344					; size = 328
__$ArrayPad$ = -16					; size = 4
__$EHRec$ = -12						; size = 12
_c_szDirectoryName$ = 8					; size = 4
?RemoveAllDirectory@@YAXPBD@Z PROC			; RemoveAllDirectory, COMDAT

; 515  : {

  00000	55		 push	 ebp
  00001	8b ec		 mov	 ebp, esp
  00003	6a ff		 push	 -1
  00005	68 00 00 00 00	 push	 __ehhandler$?RemoveAllDirectory@@YAXPBD@Z
  0000a	64 a1 00 00 00
	00		 mov	 eax, DWORD PTR fs:0
  00010	50		 push	 eax
  00011	81 ec 4c 01 00
	00		 sub	 esp, 332		; 0000014cH
  00017	a1 00 00 00 00	 mov	 eax, DWORD PTR ___security_cookie
  0001c	33 c5		 xor	 eax, ebp
  0001e	89 45 f0	 mov	 DWORD PTR __$ArrayPad$[ebp], eax
  00021	50		 push	 eax
  00022	8d 45 f4	 lea	 eax, DWORD PTR __$EHRec$[ebp]
  00025	64 a3 00 00 00
	00		 mov	 DWORD PTR fs:0, eax

; 463  : 		CDirRemover()

  0002b	8d 8d a8 fe ff
	ff		 lea	 ecx, DWORD PTR _remover$2[ebp]
  00031	e8 00 00 00 00	 call	 ??0CDir@@QAE@XZ		; CDir::CDir
  00036	c7 85 a8 fe ff
	ff 00 00 00 00	 mov	 DWORD PTR _remover$2[ebp], OFFSET ??_7CDirRemover@@6B@

; 516  : 	{
; 517  : 		CDirRemover remover;

  00040	83 65 fc 00	 and	 DWORD PTR __$EHRec$[ebp+8], 0

; 518  : 		remover.Create("*.*", c_szDirectoryName);

  00044	6a 00		 push	 0
  00046	ff 75 08	 push	 DWORD PTR _c_szDirectoryName$[ebp]
  00049	68 00 00 00 00	 push	 OFFSET ??_C@_03EMIMMIHL@?$CK?4?$CK@
  0004e	8d 8d a8 fe ff
	ff		 lea	 ecx, DWORD PTR _remover$2[ebp]
  00054	e8 00 00 00 00	 call	 ?Create@CDir@@QAE_NPBD0H@Z ; CDir::Create

; 519  : 		CDirRemover::RemoveAllDirectory();

  00059	e8 00 00 00 00	 call	 ?RemoveAllDirectory@CDirRemover@@SAXXZ ; CDirRemover::RemoveAllDirectory

; 520  : 	}

  0005e	83 4d fc ff	 or	 DWORD PTR __$EHRec$[ebp+8], -1

; 467  : 		{

  00062	c7 85 a8 fe ff
	ff 00 00 00 00	 mov	 DWORD PTR _remover$2[ebp], OFFSET ??_7CDirRemover@@6B@

; 468  : 		}

  0006c	8d 8d a8 fe ff
	ff		 lea	 ecx, DWORD PTR _remover$2[ebp]
  00072	e8 00 00 00 00	 call	 ??1CDir@@UAE@XZ		; CDir::~CDir

; 521  : 	RemoveDirectory(c_szDirectoryName);

  00077	ff 75 08	 push	 DWORD PTR _c_szDirectoryName$[ebp]
  0007a	ff 15 00 00 00
	00		 call	 DWORD PTR __imp__RemoveDirectoryA@4

; 522  : }

  00080	8b 4d f4	 mov	 ecx, DWORD PTR __$EHRec$[ebp]
  00083	64 89 0d 00 00
	00 00		 mov	 DWORD PTR fs:0, ecx
  0008a	59		 pop	 ecx
  0008b	8b 4d f0	 mov	 ecx, DWORD PTR __$ArrayPad$[ebp]
  0008e	33 cd		 xor	 ecx, ebp
  00090	e8 00 00 00 00	 call	 @__security_check_cookie@4
  00095	c9		 leave
  00096	c3		 ret	 0
_TEXT	ENDS
;	COMDAT text$x
text$x	SEGMENT
__unwindfunclet$?RemoveAllDirectory@@YAXPBD@Z$0:
  00000	8d 8d a8 fe ff
	ff		 lea	 ecx, DWORD PTR _remover$2[ebp]
  00006	e9 00 00 00 00	 jmp	 ??1CDirRemover@@UAE@XZ	; CDirRemover::~CDirRemover
  0000b	cc		 int	 3
  0000c	cc		 int	 3
  0000d	cc		 int	 3
  0000e	cc		 int	 3
  0000f	cc		 int	 3
__ehhandler$?RemoveAllDirectory@@YAXPBD@Z:
  00010	90		 npad	 1
  00011	90		 npad	 1
  00012	8b 54 24 08	 mov	 edx, DWORD PTR [esp+8]
  00016	8d 42 0c	 lea	 eax, DWORD PTR [edx+12]
  00019	8b 8a b0 fe ff
	ff		 mov	 ecx, DWORD PTR [edx-336]
  0001f	33 c8		 xor	 ecx, eax
  00021	e8 00 00 00 00	 call	 @__security_check_cookie@4
  00026	8b 4a fc	 mov	 ecx, DWORD PTR [edx-4]
  00029	33 c8		 xor	 ecx, eax
  0002b	e8 00 00 00 00	 call	 @__security_check_cookie@4
  00030	b8 00 00 00 00	 mov	 eax, OFFSET __ehfuncinfo$?RemoveAllDirectory@@YAXPBD@Z
  00035	e9 00 00 00 00	 jmp	 ___CxxFrameHandler3
text$x	ENDS
?RemoveAllDirectory@@YAXPBD@Z ENDP			; RemoveAllDirectory
; Function compile flags: /Odspy
; File D:\Metin2 Server Files\mainline\SRC_2014\Metin2Client\EterBase\Utils.cpp
;	COMDAT ?MyCreateDirectory@@YAXPBD@Z
_TEXT	SEGMENT
$T1 = -20						; size = 4
$T2 = -16						; size = 4
_len$ = -12						; size = 4
_dir$ = -8						; size = 4
_p$ = -4						; size = 4
_path$ = 8						; size = 4
?MyCreateDirectory@@YAXPBD@Z PROC			; MyCreateDirectory, COMDAT

; 427  : {

  00000	55		 push	 ebp
  00001	8b ec		 mov	 ebp, esp
  00003	83 ec 14	 sub	 esp, 20			; 00000014H

; 428  : 	if (!path || !*path)

  00006	83 7d 08 00	 cmp	 DWORD PTR _path$[ebp], 0
  0000a	74 0a		 je	 SHORT $LN5@MyCreateDi
  0000c	8b 45 08	 mov	 eax, DWORD PTR _path$[ebp]
  0000f	0f be 00	 movsx	 eax, BYTE PTR [eax]
  00012	85 c0		 test	 eax, eax
  00014	75 05		 jne	 SHORT $LN4@MyCreateDi
$LN5@MyCreateDi:

; 429  : 		return;

  00016	e9 b0 00 00 00	 jmp	 $LN1@MyCreateDi
$LN4@MyCreateDi:

; 430  : 
; 431  : 	char * dir;
; 432  : 	const char * p;
; 433  : 
; 434  : 	if (strlen(path) >= 3)

  0001b	ff 75 08	 push	 DWORD PTR _path$[ebp]
  0001e	e8 00 00 00 00	 call	 _strlen
  00023	59		 pop	 ecx
  00024	83 f8 03	 cmp	 eax, 3
  00027	72 15		 jb	 SHORT $LN6@MyCreateDi

; 435  : 	{
; 436  : 		if (*(path + 1) == ':')	// C:, D:   

  00029	8b 45 08	 mov	 eax, DWORD PTR _path$[ebp]
  0002c	0f be 40 01	 movsx	 eax, BYTE PTR [eax+1]
  00030	83 f8 3a	 cmp	 eax, 58			; 0000003aH
  00033	75 09		 jne	 SHORT $LN6@MyCreateDi

; 437  : 			path += 3;

  00035	8b 45 08	 mov	 eax, DWORD PTR _path$[ebp]
  00038	83 c0 03	 add	 eax, 3
  0003b	89 45 08	 mov	 DWORD PTR _path$[ebp], eax
$LN6@MyCreateDi:

; 438  : 	}
; 439  : 
; 440  : 	p = path;

  0003e	8b 45 08	 mov	 eax, DWORD PTR _path$[ebp]
  00041	89 45 fc	 mov	 DWORD PTR _p$[ebp], eax

; 441  : 
; 442  : 	int len = strlen(path) + 1;

  00044	ff 75 08	 push	 DWORD PTR _path$[ebp]
  00047	e8 00 00 00 00	 call	 _strlen
  0004c	59		 pop	 ecx
  0004d	40		 inc	 eax
  0004e	89 45 f4	 mov	 DWORD PTR _len$[ebp], eax

; 443  : 	dir = new char[len];

  00051	ff 75 f4	 push	 DWORD PTR _len$[ebp]
  00054	e8 00 00 00 00	 call	 ??_U@YAPAXI@Z		; operator new[]
  00059	59		 pop	 ecx
  0005a	89 45 f0	 mov	 DWORD PTR $T2[ebp], eax
  0005d	8b 45 f0	 mov	 eax, DWORD PTR $T2[ebp]
  00060	89 45 f8	 mov	 DWORD PTR _dir$[ebp], eax
$LN2@MyCreateDi:

; 444  : 
; 445  : 	while (*p)

  00063	8b 45 fc	 mov	 eax, DWORD PTR _p$[ebp]
  00066	0f be 00	 movsx	 eax, BYTE PTR [eax]
  00069	85 c0		 test	 eax, eax
  0006b	74 4f		 je	 SHORT $LN3@MyCreateDi

; 446  : 	{
; 447  : 		if (*p == '/' || *p == '\\')

  0006d	8b 45 fc	 mov	 eax, DWORD PTR _p$[ebp]
  00070	0f be 00	 movsx	 eax, BYTE PTR [eax]
  00073	83 f8 2f	 cmp	 eax, 47			; 0000002fH
  00076	74 0b		 je	 SHORT $LN9@MyCreateDi
  00078	8b 45 fc	 mov	 eax, DWORD PTR _p$[ebp]
  0007b	0f be 00	 movsx	 eax, BYTE PTR [eax]
  0007e	83 f8 5c	 cmp	 eax, 92			; 0000005cH
  00081	75 30		 jne	 SHORT $LN8@MyCreateDi
$LN9@MyCreateDi:

; 448  : 		{
; 449  : 			memset(dir, 0, len);

  00083	ff 75 f4	 push	 DWORD PTR _len$[ebp]
  00086	6a 00		 push	 0
  00088	ff 75 f8	 push	 DWORD PTR _dir$[ebp]
  0008b	e8 00 00 00 00	 call	 _memset
  00090	83 c4 0c	 add	 esp, 12			; 0000000cH

; 450  : 			strncpy(dir, path, p - path);

  00093	8b 45 fc	 mov	 eax, DWORD PTR _p$[ebp]
  00096	2b 45 08	 sub	 eax, DWORD PTR _path$[ebp]
  00099	50		 push	 eax
  0009a	ff 75 08	 push	 DWORD PTR _path$[ebp]
  0009d	ff 75 f8	 push	 DWORD PTR _dir$[ebp]
  000a0	e8 00 00 00 00	 call	 _strncpy
  000a5	83 c4 0c	 add	 esp, 12			; 0000000cH

; 451  : 			CreateDirectory(dir, NULL);

  000a8	6a 00		 push	 0
  000aa	ff 75 f8	 push	 DWORD PTR _dir$[ebp]
  000ad	ff 15 00 00 00
	00		 call	 DWORD PTR __imp__CreateDirectoryA@8
$LN8@MyCreateDi:

; 452  : 		}
; 453  : 
; 454  : 		++p;

  000b3	8b 45 fc	 mov	 eax, DWORD PTR _p$[ebp]
  000b6	40		 inc	 eax
  000b7	89 45 fc	 mov	 DWORD PTR _p$[ebp], eax

; 455  : 	}

  000ba	eb a7		 jmp	 SHORT $LN2@MyCreateDi
$LN3@MyCreateDi:

; 456  : 
; 457  : 	delete [] dir;

  000bc	8b 45 f8	 mov	 eax, DWORD PTR _dir$[ebp]
  000bf	89 45 ec	 mov	 DWORD PTR $T1[ebp], eax
  000c2	ff 75 ec	 push	 DWORD PTR $T1[ebp]
  000c5	e8 00 00 00 00	 call	 ??_V@YAXPAX@Z		; operator delete[]
  000ca	59		 pop	 ecx
$LN1@MyCreateDi:

; 458  : }

  000cb	c9		 leave
  000cc	c3		 ret	 0
?MyCreateDirectory@@YAXPBD@Z ENDP			; MyCreateDirectory
_TEXT	ENDS
; Function compile flags: /Odspy
; File D:\Metin2 Server Files\mainline\SRC_2014\Metin2Client\EterBase\Utils.cpp
;	COMDAT ?fMINMAX@@YAMMMM@Z
_TEXT	SEGMENT
tv67 = -12						; size = 4
_tv$ = -8						; size = 4
tv65 = -4						; size = 4
_min$ = 8						; size = 4
_value$ = 12						; size = 4
_max$ = 16						; size = 4
?fMINMAX@@YAMMMM@Z PROC					; fMINMAX, COMDAT

; 409  : {               

  00000	55		 push	 ebp
  00001	8b ec		 mov	 ebp, esp
  00003	83 ec 0c	 sub	 esp, 12			; 0000000cH

; 410  :     register float tv;
; 411  : 	
; 412  :     tv = (min > value ? min : value);

  00006	f3 0f 10 45 08	 movss	 xmm0, DWORD PTR _min$[ebp]
  0000b	0f 2f 45 0c	 comiss	 xmm0, DWORD PTR _value$[ebp]
  0000f	76 0c		 jbe	 SHORT $LN3@fMINMAX
  00011	f3 0f 10 45 08	 movss	 xmm0, DWORD PTR _min$[ebp]
  00016	f3 0f 11 45 fc	 movss	 DWORD PTR tv65[ebp], xmm0
  0001b	eb 0a		 jmp	 SHORT $LN4@fMINMAX
$LN3@fMINMAX:
  0001d	f3 0f 10 45 0c	 movss	 xmm0, DWORD PTR _value$[ebp]
  00022	f3 0f 11 45 fc	 movss	 DWORD PTR tv65[ebp], xmm0
$LN4@fMINMAX:
  00027	f3 0f 10 45 fc	 movss	 xmm0, DWORD PTR tv65[ebp]
  0002c	f3 0f 11 45 f8	 movss	 DWORD PTR _tv$[ebp], xmm0

; 413  :     return (max < tv) ? max : tv;

  00031	f3 0f 10 45 f8	 movss	 xmm0, DWORD PTR _tv$[ebp]
  00036	0f 2f 45 10	 comiss	 xmm0, DWORD PTR _max$[ebp]
  0003a	76 0c		 jbe	 SHORT $LN5@fMINMAX
  0003c	f3 0f 10 45 10	 movss	 xmm0, DWORD PTR _max$[ebp]
  00041	f3 0f 11 45 f4	 movss	 DWORD PTR tv67[ebp], xmm0
  00046	eb 0a		 jmp	 SHORT $LN6@fMINMAX
$LN5@fMINMAX:
  00048	f3 0f 10 45 f8	 movss	 xmm0, DWORD PTR _tv$[ebp]
  0004d	f3 0f 11 45 f4	 movss	 DWORD PTR tv67[ebp], xmm0
$LN6@fMINMAX:
  00052	d9 45 f4	 fld	 DWORD PTR tv67[ebp]

; 414  : }

  00055	c9		 leave
  00056	c3		 ret	 0
?fMINMAX@@YAMMMM@Z ENDP					; fMINMAX
_TEXT	ENDS
; Function compile flags: /Odspy
; File D:\Metin2 Server Files\mainline\SRC_2014\Metin2Client\EterBase\Utils.cpp
;	COMDAT ?fMAX@@YAMMM@Z
_TEXT	SEGMENT
tv65 = -4						; size = 4
_a$ = 8							; size = 4
_b$ = 12						; size = 4
?fMAX@@YAMMM@Z PROC					; fMAX, COMDAT

; 404  : {       

  00000	55		 push	 ebp
  00001	8b ec		 mov	 ebp, esp
  00003	51		 push	 ecx

; 405  :     return a > b ? a : b;

  00004	f3 0f 10 45 08	 movss	 xmm0, DWORD PTR _a$[ebp]
  00009	0f 2f 45 0c	 comiss	 xmm0, DWORD PTR _b$[ebp]
  0000d	76 0c		 jbe	 SHORT $LN3@fMAX
  0000f	f3 0f 10 45 08	 movss	 xmm0, DWORD PTR _a$[ebp]
  00014	f3 0f 11 45 fc	 movss	 DWORD PTR tv65[ebp], xmm0
  00019	eb 0a		 jmp	 SHORT $LN4@fMAX
$LN3@fMAX:
  0001b	f3 0f 10 45 0c	 movss	 xmm0, DWORD PTR _b$[ebp]
  00020	f3 0f 11 45 fc	 movss	 DWORD PTR tv65[ebp], xmm0
$LN4@fMAX:
  00025	d9 45 fc	 fld	 DWORD PTR tv65[ebp]

; 406  : }       

  00028	c9		 leave
  00029	c3		 ret	 0
?fMAX@@YAMMM@Z ENDP					; fMAX
_TEXT	ENDS
; Function compile flags: /Odspy
; File D:\Metin2 Server Files\mainline\SRC_2014\Metin2Client\EterBase\Utils.cpp
;	COMDAT ?fMIN@@YAMMM@Z
_TEXT	SEGMENT
tv65 = -4						; size = 4
_a$ = 8							; size = 4
_b$ = 12						; size = 4
?fMIN@@YAMMM@Z PROC					; fMIN, COMDAT

; 399  : {   

  00000	55		 push	 ebp
  00001	8b ec		 mov	 ebp, esp
  00003	51		 push	 ecx

; 400  :     return a < b ? a : b;

  00004	f3 0f 10 45 0c	 movss	 xmm0, DWORD PTR _b$[ebp]
  00009	0f 2f 45 08	 comiss	 xmm0, DWORD PTR _a$[ebp]
  0000d	76 0c		 jbe	 SHORT $LN3@fMIN
  0000f	f3 0f 10 45 08	 movss	 xmm0, DWORD PTR _a$[ebp]
  00014	f3 0f 11 45 fc	 movss	 DWORD PTR tv65[ebp], xmm0
  00019	eb 0a		 jmp	 SHORT $LN4@fMIN
$LN3@fMIN:
  0001b	f3 0f 10 45 0c	 movss	 xmm0, DWORD PTR _b$[ebp]
  00020	f3 0f 11 45 fc	 movss	 DWORD PTR tv65[ebp], xmm0
$LN4@fMIN:
  00025	d9 45 fc	 fld	 DWORD PTR tv65[ebp]

; 401  : }   

  00028	c9		 leave
  00029	c3		 ret	 0
?fMIN@@YAMMM@Z ENDP					; fMIN
_TEXT	ENDS
; Function compile flags: /Odspy
; File D:\Metin2 Server Files\mainline\SRC_2014\Metin2Client\EterBase\Utils.cpp
;	COMDAT ?MINMAX@@YAHHHH@Z
_TEXT	SEGMENT
tv71 = -12						; size = 4
_tv$ = -8						; size = 4
tv69 = -4						; size = 4
_min$ = 8						; size = 4
_value$ = 12						; size = 4
_max$ = 16						; size = 4
?MINMAX@@YAHHHH@Z PROC					; MINMAX, COMDAT

; 389  : {

  00000	55		 push	 ebp
  00001	8b ec		 mov	 ebp, esp
  00003	83 ec 0c	 sub	 esp, 12			; 0000000cH

; 390  : 	if (max < min)

  00006	8b 45 10	 mov	 eax, DWORD PTR _max$[ebp]
  00009	3b 45 08	 cmp	 eax, DWORD PTR _min$[ebp]
  0000c	7d 0f		 jge	 SHORT $LN2@MINMAX

; 391  : 		return MAX(min, value);

  0000e	ff 75 0c	 push	 DWORD PTR _value$[ebp]
  00011	ff 75 08	 push	 DWORD PTR _min$[ebp]
  00014	e8 00 00 00 00	 call	 ?MAX@@YAHHH@Z		; MAX
  00019	59		 pop	 ecx
  0001a	59		 pop	 ecx
  0001b	eb 35		 jmp	 SHORT $LN1@MINMAX
$LN2@MINMAX:

; 392  : 
; 393  :     register int tv;
; 394  :     tv = (min > value ? min : value);

  0001d	8b 45 08	 mov	 eax, DWORD PTR _min$[ebp]
  00020	3b 45 0c	 cmp	 eax, DWORD PTR _value$[ebp]
  00023	7e 08		 jle	 SHORT $LN4@MINMAX
  00025	8b 45 08	 mov	 eax, DWORD PTR _min$[ebp]
  00028	89 45 fc	 mov	 DWORD PTR tv69[ebp], eax
  0002b	eb 06		 jmp	 SHORT $LN5@MINMAX
$LN4@MINMAX:
  0002d	8b 45 0c	 mov	 eax, DWORD PTR _value$[ebp]
  00030	89 45 fc	 mov	 DWORD PTR tv69[ebp], eax
$LN5@MINMAX:
  00033	8b 45 fc	 mov	 eax, DWORD PTR tv69[ebp]
  00036	89 45 f8	 mov	 DWORD PTR _tv$[ebp], eax

; 395  :     return (max < tv) ? max : tv;

  00039	8b 45 10	 mov	 eax, DWORD PTR _max$[ebp]
  0003c	3b 45 f8	 cmp	 eax, DWORD PTR _tv$[ebp]
  0003f	7d 08		 jge	 SHORT $LN6@MINMAX
  00041	8b 45 10	 mov	 eax, DWORD PTR _max$[ebp]
  00044	89 45 f4	 mov	 DWORD PTR tv71[ebp], eax
  00047	eb 06		 jmp	 SHORT $LN7@MINMAX
$LN6@MINMAX:
  00049	8b 45 f8	 mov	 eax, DWORD PTR _tv$[ebp]
  0004c	89 45 f4	 mov	 DWORD PTR tv71[ebp], eax
$LN7@MINMAX:
  0004f	8b 45 f4	 mov	 eax, DWORD PTR tv71[ebp]
$LN1@MINMAX:

; 396  : }

  00052	c9		 leave
  00053	c3		 ret	 0
?MINMAX@@YAHHHH@Z ENDP					; MINMAX
_TEXT	ENDS
; Function compile flags: /Odspy
; File D:\Metin2 Server Files\mainline\SRC_2014\Metin2Client\EterBase\Utils.cpp
;	COMDAT ?MAX@@YAHHH@Z
_TEXT	SEGMENT
tv65 = -4						; size = 4
_a$ = 8							; size = 4
_b$ = 12						; size = 4
?MAX@@YAHHH@Z PROC					; MAX, COMDAT

; 384  : {       

  00000	55		 push	 ebp
  00001	8b ec		 mov	 ebp, esp
  00003	51		 push	 ecx

; 385  :     return a > b ? a : b;

  00004	8b 45 08	 mov	 eax, DWORD PTR _a$[ebp]
  00007	3b 45 0c	 cmp	 eax, DWORD PTR _b$[ebp]
  0000a	7e 08		 jle	 SHORT $LN3@MAX
  0000c	8b 45 08	 mov	 eax, DWORD PTR _a$[ebp]
  0000f	89 45 fc	 mov	 DWORD PTR tv65[ebp], eax
  00012	eb 06		 jmp	 SHORT $LN4@MAX
$LN3@MAX:
  00014	8b 45 0c	 mov	 eax, DWORD PTR _b$[ebp]
  00017	89 45 fc	 mov	 DWORD PTR tv65[ebp], eax
$LN4@MAX:
  0001a	8b 45 fc	 mov	 eax, DWORD PTR tv65[ebp]

; 386  : }       

  0001d	c9		 leave
  0001e	c3		 ret	 0
?MAX@@YAHHH@Z ENDP					; MAX
_TEXT	ENDS
; Function compile flags: /Odspy
; File D:\Metin2 Server Files\mainline\SRC_2014\Metin2Client\EterBase\Utils.cpp
;	COMDAT ?MIN@@YAHHH@Z
_TEXT	SEGMENT
tv65 = -4						; size = 4
_a$ = 8							; size = 4
_b$ = 12						; size = 4
?MIN@@YAHHH@Z PROC					; MIN, COMDAT

; 379  : {   

  00000	55		 push	 ebp
  00001	8b ec		 mov	 ebp, esp
  00003	51		 push	 ecx

; 380  :     return a < b ? a : b;

  00004	8b 45 08	 mov	 eax, DWORD PTR _a$[ebp]
  00007	3b 45 0c	 cmp	 eax, DWORD PTR _b$[ebp]
  0000a	7d 08		 jge	 SHORT $LN3@MIN
  0000c	8b 45 08	 mov	 eax, DWORD PTR _a$[ebp]
  0000f	89 45 fc	 mov	 DWORD PTR tv65[ebp], eax
  00012	eb 06		 jmp	 SHORT $LN4@MIN
$LN3@MIN:
  00014	8b 45 0c	 mov	 eax, DWORD PTR _b$[ebp]
  00017	89 45 fc	 mov	 DWORD PTR tv65[ebp], eax
$LN4@MIN:
  0001a	8b 45 fc	 mov	 eax, DWORD PTR tv65[ebp]

; 381  : }   

  0001d	c9		 leave
  0001e	c3		 ret	 0
?MIN@@YAHHH@Z ENDP					; MIN
_TEXT	ENDS
; Function compile flags: /Odspy
; File D:\Metin2 Server Files\mainline\SRC_2014\Metin2Client\EterBase\Utils.cpp
;	COMDAT ?IsGlobalFileName@@YA_NPBD@Z
_TEXT	SEGMENT
tv68 = -4						; size = 4
_c_szFileName$ = 8					; size = 4
?IsGlobalFileName@@YA_NPBD@Z PROC			; IsGlobalFileName, COMDAT

; 422  : {

  00000	55		 push	 ebp
  00001	8b ec		 mov	 ebp, esp
  00003	51		 push	 ecx

; 423  : 	return strchr(c_szFileName, ':') != NULL;

  00004	6a 3a		 push	 58			; 0000003aH
  00006	ff 75 08	 push	 DWORD PTR _c_szFileName$[ebp]
  00009	e8 00 00 00 00	 call	 _strchr
  0000e	59		 pop	 ecx
  0000f	59		 pop	 ecx
  00010	85 c0		 test	 eax, eax
  00012	74 09		 je	 SHORT $LN3@IsGlobalFi
  00014	c7 45 fc 01 00
	00 00		 mov	 DWORD PTR tv68[ebp], 1
  0001b	eb 04		 jmp	 SHORT $LN4@IsGlobalFi
$LN3@IsGlobalFi:
  0001d	83 65 fc 00	 and	 DWORD PTR tv68[ebp], 0
$LN4@IsGlobalFi:
  00021	8a 45 fc	 mov	 al, BYTE PTR tv68[ebp]

; 424  : }

  00024	c9		 leave
  00025	c3		 ret	 0
?IsGlobalFileName@@YA_NPBD@Z ENDP			; IsGlobalFileName
_TEXT	ENDS
; Function compile flags: /Odspy
; File D:\Metin2 Server Files\mainline\SRC_2014\Metin2Client\EterBase\Utils.cpp
;	COMDAT ?IsFile@@YA_NPBD@Z
_TEXT	SEGMENT
tv68 = -1						; size = 1
_filename$ = 8						; size = 4
?IsFile@@YA_NPBD@Z PROC					; IsFile, COMDAT

; 417  : {

  00000	55		 push	 ebp
  00001	8b ec		 mov	 ebp, esp
  00003	51		 push	 ecx

; 418  : 	return _access(filename, 0) == 0 ? true : false;

  00004	6a 00		 push	 0
  00006	ff 75 08	 push	 DWORD PTR _filename$[ebp]
  00009	e8 00 00 00 00	 call	 __access
  0000e	59		 pop	 ecx
  0000f	59		 pop	 ecx
  00010	85 c0		 test	 eax, eax
  00012	75 06		 jne	 SHORT $LN3@IsFile
  00014	c6 45 ff 01	 mov	 BYTE PTR tv68[ebp], 1
  00018	eb 04		 jmp	 SHORT $LN4@IsFile
$LN3@IsFile:
  0001a	c6 45 ff 00	 mov	 BYTE PTR tv68[ebp], 0
$LN4@IsFile:
  0001e	8a 45 ff	 mov	 al, BYTE PTR tv68[ebp]

; 419  : }

  00021	c9		 leave
  00022	c3		 ret	 0
?IsFile@@YA_NPBD@Z ENDP					; IsFile
_TEXT	ENDS
; Function compile flags: /Odspy
; File D:\Metin2 Server Files\mainline\SRC_2014\Metin2Client\EterBase\Utils.cpp
;	COMDAT ?PrintAsciiData@@YAXPBXH@Z
_TEXT	SEGMENT
tv137 = -28						; size = 4
tv70 = -24						; size = 4
_k$ = -20						; size = 4
_data$ = -16						; size = 4
_j$ = -12						; size = 4
_p$ = -8						; size = 4
_i$ = -4						; size = 4
_void_data$ = 8						; size = 4
_bytes$ = 12						; size = 4
?PrintAsciiData@@YAXPBXH@Z PROC				; PrintAsciiData, COMDAT

; 331  : {

  00000	55		 push	 ebp
  00001	8b ec		 mov	 ebp, esp
  00003	83 ec 1c	 sub	 esp, 28			; 0000001cH

; 332  :     int                 i, j, k;
; 333  :     const unsigned char* p;
; 334  : 	const unsigned char* data;
; 335  : 
; 336  : 	data = (const unsigned char*) void_data;

  00006	8b 45 08	 mov	 eax, DWORD PTR _void_data$[ebp]
  00009	89 45 f0	 mov	 DWORD PTR _data$[ebp], eax

; 337  : 
; 338  :     fprintf(stdout, "------------------------------------------------------------------\n");

  0000c	68 00 00 00 00	 push	 OFFSET ??_C@_0EE@CAMDODON@?9?9?9?9?9?9?9?9?9?9?9?9?9?9?9?9?9?9?9?9?9?9?9?9?9?9?9?9?9?9?9@
  00011	6a 01		 push	 1
  00013	e8 00 00 00 00	 call	 ___acrt_iob_func
  00018	59		 pop	 ecx
  00019	50		 push	 eax
  0001a	e8 00 00 00 00	 call	 _fprintf
  0001f	59		 pop	 ecx
  00020	59		 pop	 ecx

; 339  :     j = bytes;

  00021	8b 45 0c	 mov	 eax, DWORD PTR _bytes$[ebp]
  00024	89 45 f4	 mov	 DWORD PTR _j$[ebp], eax
$LN2@PrintAscii:

; 340  :     while (1)

  00027	33 c0		 xor	 eax, eax
  00029	40		 inc	 eax
  0002a	0f 84 56 01 00
	00		 je	 $LN3@PrintAscii

; 341  :     {
; 342  :         k = j >= 16 ? 16 : j;

  00030	83 7d f4 10	 cmp	 DWORD PTR _j$[ebp], 16	; 00000010H
  00034	7c 09		 jl	 SHORT $LN16@PrintAscii
  00036	c7 45 e8 10 00
	00 00		 mov	 DWORD PTR tv70[ebp], 16	; 00000010H
  0003d	eb 06		 jmp	 SHORT $LN17@PrintAscii
$LN16@PrintAscii:
  0003f	8b 45 f4	 mov	 eax, DWORD PTR _j$[ebp]
  00042	89 45 e8	 mov	 DWORD PTR tv70[ebp], eax
$LN17@PrintAscii:
  00045	8b 45 e8	 mov	 eax, DWORD PTR tv70[ebp]
  00048	89 45 ec	 mov	 DWORD PTR _k$[ebp], eax

; 343  : 
; 344  :         p = data;

  0004b	8b 45 f0	 mov	 eax, DWORD PTR _data$[ebp]
  0004e	89 45 f8	 mov	 DWORD PTR _p$[ebp], eax

; 345  :         for (i = 0; i < 16; ++i)

  00051	83 65 fc 00	 and	 DWORD PTR _i$[ebp], 0
  00055	eb 07		 jmp	 SHORT $LN6@PrintAscii
$LN4@PrintAscii:
  00057	8b 45 fc	 mov	 eax, DWORD PTR _i$[ebp]
  0005a	40		 inc	 eax
  0005b	89 45 fc	 mov	 DWORD PTR _i$[ebp], eax
$LN6@PrintAscii:
  0005e	83 7d fc 10	 cmp	 DWORD PTR _i$[ebp], 16	; 00000010H
  00062	7d 45		 jge	 SHORT $LN5@PrintAscii

; 346  :         {
; 347  :             if (i >= k)

  00064	8b 45 fc	 mov	 eax, DWORD PTR _i$[ebp]
  00067	3b 45 ec	 cmp	 eax, DWORD PTR _k$[ebp]
  0006a	7c 17		 jl	 SHORT $LN10@PrintAscii

; 348  :                 fprintf(stdout, "   ");

  0006c	68 00 00 00 00	 push	 OFFSET ??_C@_03NDEAONJP@?5?5?5@
  00071	6a 01		 push	 1
  00073	e8 00 00 00 00	 call	 ___acrt_iob_func
  00078	59		 pop	 ecx
  00079	50		 push	 eax
  0007a	e8 00 00 00 00	 call	 _fprintf
  0007f	59		 pop	 ecx
  00080	59		 pop	 ecx
  00081	eb 1d		 jmp	 SHORT $LN11@PrintAscii
$LN10@PrintAscii:

; 349  :             else
; 350  :                 fprintf(stdout, "%02x ", *p);

  00083	8b 45 f8	 mov	 eax, DWORD PTR _p$[ebp]
  00086	0f b6 00	 movzx	 eax, BYTE PTR [eax]
  00089	50		 push	 eax
  0008a	68 00 00 00 00	 push	 OFFSET ??_C@_05CNDJFPDP@?$CF02x?5@
  0008f	6a 01		 push	 1
  00091	e8 00 00 00 00	 call	 ___acrt_iob_func
  00096	59		 pop	 ecx
  00097	50		 push	 eax
  00098	e8 00 00 00 00	 call	 _fprintf
  0009d	83 c4 0c	 add	 esp, 12			; 0000000cH
$LN11@PrintAscii:

; 351  :             p++;

  000a0	8b 45 f8	 mov	 eax, DWORD PTR _p$[ebp]
  000a3	40		 inc	 eax
  000a4	89 45 f8	 mov	 DWORD PTR _p$[ebp], eax

; 352  :         }

  000a7	eb ae		 jmp	 SHORT $LN4@PrintAscii
$LN5@PrintAscii:

; 353  : 
; 354  :         fprintf(stdout, "| ");

  000a9	68 00 00 00 00	 push	 OFFSET ??_C@_02MINBJDHL@?$HM?5@
  000ae	6a 01		 push	 1
  000b0	e8 00 00 00 00	 call	 ___acrt_iob_func
  000b5	59		 pop	 ecx
  000b6	50		 push	 eax
  000b7	e8 00 00 00 00	 call	 _fprintf
  000bc	59		 pop	 ecx
  000bd	59		 pop	 ecx

; 355  : 
; 356  :         p = data;

  000be	8b 45 f0	 mov	 eax, DWORD PTR _data$[ebp]
  000c1	89 45 f8	 mov	 DWORD PTR _p$[ebp], eax

; 357  :         for (i = 0; i < k; ++i)

  000c4	83 65 fc 00	 and	 DWORD PTR _i$[ebp], 0
  000c8	eb 07		 jmp	 SHORT $LN9@PrintAscii
$LN7@PrintAscii:
  000ca	8b 45 fc	 mov	 eax, DWORD PTR _i$[ebp]
  000cd	40		 inc	 eax
  000ce	89 45 fc	 mov	 DWORD PTR _i$[ebp], eax
$LN9@PrintAscii:
  000d1	8b 45 fc	 mov	 eax, DWORD PTR _i$[ebp]
  000d4	3b 45 ec	 cmp	 eax, DWORD PTR _k$[ebp]
  000d7	7d 79		 jge	 SHORT $LN8@PrintAscii

; 358  :         {
; 359  :             if (i >= k)

  000d9	8b 45 fc	 mov	 eax, DWORD PTR _i$[ebp]
  000dc	3b 45 ec	 cmp	 eax, DWORD PTR _k$[ebp]
  000df	7c 17		 jl	 SHORT $LN12@PrintAscii

; 360  :                 fprintf(stdout, " ");

  000e1	68 00 00 00 00	 push	 OFFSET ??_C@_01CLKCMJKC@?5@
  000e6	6a 01		 push	 1
  000e8	e8 00 00 00 00	 call	 ___acrt_iob_func
  000ed	59		 pop	 ecx
  000ee	50		 push	 eax
  000ef	e8 00 00 00 00	 call	 _fprintf
  000f4	59		 pop	 ecx
  000f5	59		 pop	 ecx
  000f6	eb 4e		 jmp	 SHORT $LN13@PrintAscii
$LN12@PrintAscii:

; 361  :             else
; 362  :                 fprintf(stdout, "%c", ishprint(*p) ? *p : '.');

  000f8	8b 45 f8	 mov	 eax, DWORD PTR _p$[ebp]
  000fb	0f b6 00	 movzx	 eax, BYTE PTR [eax]
  000fe	25 e0 00 00 00	 and	 eax, 224		; 000000e0H
  00103	3d 90 00 00 00	 cmp	 eax, 144		; 00000090H
  00108	7f 1a		 jg	 SHORT $LN18@PrintAscii
  0010a	8b 45 f8	 mov	 eax, DWORD PTR _p$[ebp]
  0010d	0f b6 00	 movzx	 eax, BYTE PTR [eax]
  00110	50		 push	 eax
  00111	e8 00 00 00 00	 call	 _isprint
  00116	59		 pop	 ecx
  00117	85 c0		 test	 eax, eax
  00119	75 09		 jne	 SHORT $LN18@PrintAscii
  0011b	c7 45 e4 2e 00
	00 00		 mov	 DWORD PTR tv137[ebp], 46 ; 0000002eH
  00122	eb 09		 jmp	 SHORT $LN19@PrintAscii
$LN18@PrintAscii:
  00124	8b 45 f8	 mov	 eax, DWORD PTR _p$[ebp]
  00127	0f b6 00	 movzx	 eax, BYTE PTR [eax]
  0012a	89 45 e4	 mov	 DWORD PTR tv137[ebp], eax
$LN19@PrintAscii:
  0012d	ff 75 e4	 push	 DWORD PTR tv137[ebp]
  00130	68 00 00 00 00	 push	 OFFSET ??_C@_02HAOIJKIC@?$CFc@
  00135	6a 01		 push	 1
  00137	e8 00 00 00 00	 call	 ___acrt_iob_func
  0013c	59		 pop	 ecx
  0013d	50		 push	 eax
  0013e	e8 00 00 00 00	 call	 _fprintf
  00143	83 c4 0c	 add	 esp, 12			; 0000000cH
$LN13@PrintAscii:

; 363  :             p++;

  00146	8b 45 f8	 mov	 eax, DWORD PTR _p$[ebp]
  00149	40		 inc	 eax
  0014a	89 45 f8	 mov	 DWORD PTR _p$[ebp], eax

; 364  :         }

  0014d	e9 78 ff ff ff	 jmp	 $LN7@PrintAscii
$LN8@PrintAscii:

; 365  : 
; 366  :         fprintf(stdout, "\n");

  00152	68 00 00 00 00	 push	 OFFSET ??_C@_01EEMJAFIK@?6@
  00157	6a 01		 push	 1
  00159	e8 00 00 00 00	 call	 ___acrt_iob_func
  0015e	59		 pop	 ecx
  0015f	50		 push	 eax
  00160	e8 00 00 00 00	 call	 _fprintf
  00165	59		 pop	 ecx
  00166	59		 pop	 ecx

; 367  : 
; 368  :         j       -= 16;

  00167	8b 45 f4	 mov	 eax, DWORD PTR _j$[ebp]
  0016a	83 e8 10	 sub	 eax, 16			; 00000010H
  0016d	89 45 f4	 mov	 DWORD PTR _j$[ebp], eax

; 369  :         data    += 16;

  00170	8b 45 f0	 mov	 eax, DWORD PTR _data$[ebp]
  00173	83 c0 10	 add	 eax, 16			; 00000010H
  00176	89 45 f0	 mov	 DWORD PTR _data$[ebp], eax

; 370  : 
; 371  :         if (j <= 0)

  00179	83 7d f4 00	 cmp	 DWORD PTR _j$[ebp], 0
  0017d	7f 02		 jg	 SHORT $LN14@PrintAscii

; 372  :             break;

  0017f	eb 05		 jmp	 SHORT $LN3@PrintAscii
$LN14@PrintAscii:

; 373  :     }

  00181	e9 a1 fe ff ff	 jmp	 $LN2@PrintAscii
$LN3@PrintAscii:

; 374  : 
; 375  :     fprintf(stdout, "------------------------------------------------------------------\n");

  00186	68 00 00 00 00	 push	 OFFSET ??_C@_0EE@CAMDODON@?9?9?9?9?9?9?9?9?9?9?9?9?9?9?9?9?9?9?9?9?9?9?9?9?9?9?9?9?9?9?9@
  0018b	6a 01		 push	 1
  0018d	e8 00 00 00 00	 call	 ___acrt_iob_func
  00192	59		 pop	 ecx
  00193	50		 push	 eax
  00194	e8 00 00 00 00	 call	 _fprintf
  00199	59		 pop	 ecx
  0019a	59		 pop	 ecx

; 376  : }

  0019b	c9		 leave
  0019c	c3		 ret	 0
?PrintAsciiData@@YAXPBXH@Z ENDP				; PrintAsciiData
_TEXT	ENDS
; Function compile flags: /Odspy
; File D:\Metin2 Server Files\mainline\SRC_2014\Metin2Client\EterBase\Utils.cpp
; File C:\Program Files (x86)\Microsoft Visual Studio\2019\Community\VC\Tools\MSVC\14.28.29333\include\xstring
; File C:\Program Files (x86)\Microsoft Visual Studio\2019\Community\VC\Tools\MSVC\14.28.29333\include\xmemory
; File C:\Program Files (x86)\Microsoft Visual Studio\2019\Community\VC\Tools\MSVC\14.28.29333\include\xstring
; File D:\Metin2 Server Files\mainline\SRC_2014\Metin2Client\EterBase\Utils.cpp
; File C:\Program Files (x86)\Microsoft Visual Studio\2019\Community\VC\Tools\MSVC\14.28.29333\include\xstring
; File D:\Metin2 Server Files\mainline\SRC_2014\Metin2Client\EterBase\Utils.cpp
;	COMDAT ?StringPath@@YAXPBDAAV?$basic_string@DU?$char_traits@D@std@@V?$allocator@D@2@@std@@@Z
_TEXT	SEGMENT
$T1 = -20						; size = 4
$T2 = -16						; size = 4
__Old_size$3 = -12					; size = 4
__Newsize$ = -8						; size = 4
_i$4 = -4						; size = 4
_c_szSrc$ = 8						; size = 4
_rString$ = 12						; size = 4
?StringPath@@YAXPBDAAV?$basic_string@DU?$char_traits@D@std@@V?$allocator@D@2@@std@@@Z PROC ; StringPath, COMDAT

; 315  : {

  00000	55		 push	 ebp
  00001	8b ec		 mov	 ebp, esp
  00003	83 ec 14	 sub	 esp, 20			; 00000014H
  00006	53		 push	 ebx
; File C:\Program Files (x86)\Microsoft Visual Studio\2019\Community\VC\Tools\MSVC\14.28.29333\include\xstring

; 389  :         return _CSTD strlen(reinterpret_cast<const char*>(_First));

  00007	68 00 00 00 00	 push	 OFFSET ??_C@_00CNPNBAHC@@
  0000c	e8 00 00 00 00	 call	 _strlen
  00011	59		 pop	 ecx
  00012	89 45 f0	 mov	 DWORD PTR $T2[ebp], eax
; File C:\Program Files (x86)\Microsoft Visual Studio\2019\Community\VC\Tools\MSVC\14.28.29333\include\xmemory

; 997  :     return _Len;

  00015	8b 45 f0	 mov	 eax, DWORD PTR $T2[ebp]
  00018	89 45 ec	 mov	 DWORD PTR $T1[ebp], eax
; File C:\Program Files (x86)\Microsoft Visual Studio\2019\Community\VC\Tools\MSVC\14.28.29333\include\xstring

; 3062 :         return assign(_Ptr, _Convert_size<size_type>(_Traits::length(_Ptr)));

  0001b	ff 75 ec	 push	 DWORD PTR $T1[ebp]
  0001e	68 00 00 00 00	 push	 OFFSET ??_C@_00CNPNBAHC@@
  00023	8b 4d 0c	 mov	 ecx, DWORD PTR _rString$[ebp]
  00026	e8 00 00 00 00	 call	 ?assign@?$basic_string@DU?$char_traits@D@std@@V?$allocator@D@2@@std@@QAEAAV12@QBDI@Z ; std::basic_string<char,std::char_traits<char>,std::allocator<char> >::assign
; File D:\Metin2 Server Files\mainline\SRC_2014\Metin2Client\EterBase\Utils.cpp

; 317  : 	rString.resize(strlen(c_szSrc));

  0002b	ff 75 08	 push	 DWORD PTR _c_szSrc$[ebp]
  0002e	e8 00 00 00 00	 call	 _strlen
  00033	59		 pop	 ecx
  00034	89 45 f8	 mov	 DWORD PTR __Newsize$[ebp], eax
; File C:\Program Files (x86)\Microsoft Visual Studio\2019\Community\VC\Tools\MSVC\14.28.29333\include\xstring

; 3770 :         return _Mypair._Myval2._Mysize;

  00037	8b 45 0c	 mov	 eax, DWORD PTR _rString$[ebp]
  0003a	8b 40 10	 mov	 eax, DWORD PTR [eax+16]
  0003d	89 45 f4	 mov	 DWORD PTR __Old_size$3[ebp], eax

; 3785 :         if (_Newsize <= _Old_size) {

  00040	8b 45 f8	 mov	 eax, DWORD PTR __Newsize$[ebp]
  00043	3b 45 f4	 cmp	 eax, DWORD PTR __Old_size$3[ebp]
  00046	77 0d		 ja	 SHORT $LN40@StringPath

; 3786 :             _Eos(_Newsize);

  00048	ff 75 f8	 push	 DWORD PTR __Newsize$[ebp]
  0004b	8b 4d 0c	 mov	 ecx, DWORD PTR _rString$[ebp]
  0004e	e8 00 00 00 00	 call	 ?_Eos@?$basic_string@DU?$char_traits@D@std@@V?$allocator@D@2@@std@@AAEXI@Z ; std::basic_string<char,std::char_traits<char>,std::allocator<char> >::_Eos

; 3787 :         } else {

  00053	eb 11		 jmp	 SHORT $LN39@StringPath
$LN40@StringPath:

; 3788 :             append(_Newsize - _Old_size, _Ch);

  00055	6a 00		 push	 0
  00057	8b 45 f8	 mov	 eax, DWORD PTR __Newsize$[ebp]
  0005a	2b 45 f4	 sub	 eax, DWORD PTR __Old_size$3[ebp]
  0005d	50		 push	 eax
  0005e	8b 4d 0c	 mov	 ecx, DWORD PTR _rString$[ebp]
  00061	e8 00 00 00 00	 call	 ?append@?$basic_string@DU?$char_traits@D@std@@V?$allocator@D@2@@std@@QAEAAV12@ID@Z ; std::basic_string<char,std::char_traits<char>,std::allocator<char> >::append
$LN39@StringPath:
; File D:\Metin2 Server Files\mainline\SRC_2014\Metin2Client\EterBase\Utils.cpp

; 319  : 	for (DWORD i = 0; i < strlen(c_szSrc); ++i)

  00066	83 65 fc 00	 and	 DWORD PTR _i$4[ebp], 0
  0006a	eb 07		 jmp	 SHORT $LN4@StringPath
$LN2@StringPath:
  0006c	8b 45 fc	 mov	 eax, DWORD PTR _i$4[ebp]
  0006f	40		 inc	 eax
  00070	89 45 fc	 mov	 DWORD PTR _i$4[ebp], eax
$LN4@StringPath:
  00073	ff 75 08	 push	 DWORD PTR _c_szSrc$[ebp]
  00076	e8 00 00 00 00	 call	 _strlen
  0007b	59		 pop	 ecx
  0007c	39 45 fc	 cmp	 DWORD PTR _i$4[ebp], eax
  0007f	73 3f		 jae	 SHORT $LN1@StringPath

; 320  : 	{
; 321  : 		if (c_szSrc[i] == '\\')

  00081	8b 45 08	 mov	 eax, DWORD PTR _c_szSrc$[ebp]
  00084	03 45 fc	 add	 eax, DWORD PTR _i$4[ebp]
  00087	0f be 00	 movsx	 eax, BYTE PTR [eax]
  0008a	83 f8 5c	 cmp	 eax, 92			; 0000005cH
  0008d	75 10		 jne	 SHORT $LN5@StringPath

; 322  : 			rString[i] = '/';

  0008f	ff 75 fc	 push	 DWORD PTR _i$4[ebp]
  00092	8b 4d 0c	 mov	 ecx, DWORD PTR _rString$[ebp]
  00095	e8 00 00 00 00	 call	 ??A?$basic_string@DU?$char_traits@D@std@@V?$allocator@D@2@@std@@QAEAADI@Z ; std::basic_string<char,std::char_traits<char>,std::allocator<char> >::operator[]
  0009a	c6 00 2f	 mov	 BYTE PTR [eax], 47	; 0000002fH
  0009d	eb 1f		 jmp	 SHORT $LN6@StringPath
$LN5@StringPath:

; 323  : 		else
; 324  : 			rString[i] = korean_tolower(c_szSrc[i]);

  0009f	8b 45 08	 mov	 eax, DWORD PTR _c_szSrc$[ebp]
  000a2	03 45 fc	 add	 eax, DWORD PTR _i$4[ebp]
  000a5	0f b6 00	 movzx	 eax, BYTE PTR [eax]
  000a8	50		 push	 eax
  000a9	e8 00 00 00 00	 call	 ?korean_tolower@@YADD@Z	; korean_tolower
  000ae	59		 pop	 ecx
  000af	8a d8		 mov	 bl, al
  000b1	ff 75 fc	 push	 DWORD PTR _i$4[ebp]
  000b4	8b 4d 0c	 mov	 ecx, DWORD PTR _rString$[ebp]
  000b7	e8 00 00 00 00	 call	 ??A?$basic_string@DU?$char_traits@D@std@@V?$allocator@D@2@@std@@QAEAADI@Z ; std::basic_string<char,std::char_traits<char>,std::allocator<char> >::operator[]
  000bc	88 18		 mov	 BYTE PTR [eax], bl
$LN6@StringPath:

; 325  : 	}

  000be	eb ac		 jmp	 SHORT $LN2@StringPath
$LN1@StringPath:

; 326  : }

  000c0	5b		 pop	 ebx
  000c1	c9		 leave
  000c2	c3		 ret	 0
?StringPath@@YAXPBDAAV?$basic_string@DU?$char_traits@D@std@@V?$allocator@D@2@@std@@@Z ENDP ; StringPath
_TEXT	ENDS
; Function compile flags: /Odspy
; File D:\Metin2 Server Files\mainline\SRC_2014\Metin2Client\EterBase\Utils.cpp
;	COMDAT ?StringPath@@YAXPBDPAD@Z
_TEXT	SEGMENT
_i$1 = -4						; size = 4
_c_szSrc$ = 8						; size = 4
_szDest$ = 12						; size = 4
?StringPath@@YAXPBDPAD@Z PROC				; StringPath, COMDAT

; 304  : {

  00000	55		 push	 ebp
  00001	8b ec		 mov	 ebp, esp
  00003	51		 push	 ecx

; 305  : 	for (DWORD i = 0; i < strlen(c_szSrc); ++i)

  00004	83 65 fc 00	 and	 DWORD PTR _i$1[ebp], 0
  00008	eb 07		 jmp	 SHORT $LN4@StringPath
$LN2@StringPath:
  0000a	8b 45 fc	 mov	 eax, DWORD PTR _i$1[ebp]
  0000d	40		 inc	 eax
  0000e	89 45 fc	 mov	 DWORD PTR _i$1[ebp], eax
$LN4@StringPath:
  00011	ff 75 08	 push	 DWORD PTR _c_szSrc$[ebp]
  00014	e8 00 00 00 00	 call	 _strlen
  00019	59		 pop	 ecx
  0001a	39 45 fc	 cmp	 DWORD PTR _i$1[ebp], eax
  0001d	73 33		 jae	 SHORT $LN1@StringPath

; 306  : 	{
; 307  : 		if (c_szSrc[i] == '\\')

  0001f	8b 45 08	 mov	 eax, DWORD PTR _c_szSrc$[ebp]
  00022	03 45 fc	 add	 eax, DWORD PTR _i$1[ebp]
  00025	0f be 00	 movsx	 eax, BYTE PTR [eax]
  00028	83 f8 5c	 cmp	 eax, 92			; 0000005cH
  0002b	75 0b		 jne	 SHORT $LN5@StringPath

; 308  : 			szDest[i] = '/';

  0002d	8b 45 0c	 mov	 eax, DWORD PTR _szDest$[ebp]
  00030	03 45 fc	 add	 eax, DWORD PTR _i$1[ebp]
  00033	c6 00 2f	 mov	 BYTE PTR [eax], 47	; 0000002fH
  00036	eb 18		 jmp	 SHORT $LN6@StringPath
$LN5@StringPath:

; 309  : 		else
; 310  : 			szDest[i] = korean_tolower(c_szSrc[i]);

  00038	8b 45 08	 mov	 eax, DWORD PTR _c_szSrc$[ebp]
  0003b	03 45 fc	 add	 eax, DWORD PTR _i$1[ebp]
  0003e	0f b6 00	 movzx	 eax, BYTE PTR [eax]
  00041	50		 push	 eax
  00042	e8 00 00 00 00	 call	 ?korean_tolower@@YADD@Z	; korean_tolower
  00047	59		 pop	 ecx
  00048	8b 4d 0c	 mov	 ecx, DWORD PTR _szDest$[ebp]
  0004b	03 4d fc	 add	 ecx, DWORD PTR _i$1[ebp]
  0004e	88 01		 mov	 BYTE PTR [ecx], al
$LN6@StringPath:

; 311  : 	}

  00050	eb b8		 jmp	 SHORT $LN2@StringPath
$LN1@StringPath:

; 312  : }

  00052	c9		 leave
  00053	c3		 ret	 0
?StringPath@@YAXPBDPAD@Z ENDP				; StringPath
_TEXT	ENDS
; Function compile flags: /Odspy
; File D:\Metin2 Server Files\mainline\SRC_2014\Metin2Client\EterBase\Utils.cpp
;	COMDAT ?StringPath@@YAXPAD@Z
_TEXT	SEGMENT
_i$1 = -4						; size = 4
_pString$ = 8						; size = 4
?StringPath@@YAXPAD@Z PROC				; StringPath, COMDAT

; 293  : {

  00000	55		 push	 ebp
  00001	8b ec		 mov	 ebp, esp
  00003	51		 push	 ecx

; 294  : 	for (DWORD i = 0; i < strlen(pString); ++i)

  00004	83 65 fc 00	 and	 DWORD PTR _i$1[ebp], 0
  00008	eb 07		 jmp	 SHORT $LN4@StringPath
$LN2@StringPath:
  0000a	8b 45 fc	 mov	 eax, DWORD PTR _i$1[ebp]
  0000d	40		 inc	 eax
  0000e	89 45 fc	 mov	 DWORD PTR _i$1[ebp], eax
$LN4@StringPath:
  00011	ff 75 08	 push	 DWORD PTR _pString$[ebp]
  00014	e8 00 00 00 00	 call	 _strlen
  00019	59		 pop	 ecx
  0001a	39 45 fc	 cmp	 DWORD PTR _i$1[ebp], eax
  0001d	73 33		 jae	 SHORT $LN1@StringPath

; 295  : 	{
; 296  : 		if (pString[i] == '\\')

  0001f	8b 45 08	 mov	 eax, DWORD PTR _pString$[ebp]
  00022	03 45 fc	 add	 eax, DWORD PTR _i$1[ebp]
  00025	0f be 00	 movsx	 eax, BYTE PTR [eax]
  00028	83 f8 5c	 cmp	 eax, 92			; 0000005cH
  0002b	75 0b		 jne	 SHORT $LN5@StringPath

; 297  : 			pString[i] = '/';

  0002d	8b 45 08	 mov	 eax, DWORD PTR _pString$[ebp]
  00030	03 45 fc	 add	 eax, DWORD PTR _i$1[ebp]
  00033	c6 00 2f	 mov	 BYTE PTR [eax], 47	; 0000002fH
  00036	eb 18		 jmp	 SHORT $LN6@StringPath
$LN5@StringPath:

; 298  : 		else
; 299  : 			pString[i] = korean_tolower(pString[i]);

  00038	8b 45 08	 mov	 eax, DWORD PTR _pString$[ebp]
  0003b	03 45 fc	 add	 eax, DWORD PTR _i$1[ebp]
  0003e	0f b6 00	 movzx	 eax, BYTE PTR [eax]
  00041	50		 push	 eax
  00042	e8 00 00 00 00	 call	 ?korean_tolower@@YADD@Z	; korean_tolower
  00047	59		 pop	 ecx
  00048	8b 4d 08	 mov	 ecx, DWORD PTR _pString$[ebp]
  0004b	03 4d fc	 add	 ecx, DWORD PTR _i$1[ebp]
  0004e	88 01		 mov	 BYTE PTR [ecx], al
$LN6@StringPath:

; 300  : 	}

  00050	eb b8		 jmp	 SHORT $LN2@StringPath
$LN1@StringPath:

; 301  : }

  00052	c9		 leave
  00053	c3		 ret	 0
?StringPath@@YAXPAD@Z ENDP				; StringPath
_TEXT	ENDS
; Function compile flags: /Odspy
; File D:\Metin2 Server Files\mainline\SRC_2014\Metin2Client\EterBase\Utils.cpp
; File C:\Program Files (x86)\Microsoft Visual Studio\2019\Community\VC\Tools\MSVC\14.28.29333\include\xstring
; File D:\Metin2 Server Files\mainline\SRC_2014\Metin2Client\EterBase\Utils.cpp
;	COMDAT ?StringPath@@YAXAAV?$basic_string@DU?$char_traits@D@std@@V?$allocator@D@2@@std@@@Z
_TEXT	SEGMENT
$T1 = -8						; size = 4
_i$2 = -4						; size = 4
_rString$ = 8						; size = 4
?StringPath@@YAXAAV?$basic_string@DU?$char_traits@D@std@@V?$allocator@D@2@@std@@@Z PROC ; StringPath, COMDAT

; 282  : {

  00000	55		 push	 ebp
  00001	8b ec		 mov	 ebp, esp
  00003	51		 push	 ecx
  00004	51		 push	 ecx
  00005	53		 push	 ebx

; 283  : 	for (DWORD i = 0; i < rString.length(); ++i)

  00006	83 65 fc 00	 and	 DWORD PTR _i$2[ebp], 0
  0000a	eb 07		 jmp	 SHORT $LN4@StringPath
$LN2@StringPath:
  0000c	8b 45 fc	 mov	 eax, DWORD PTR _i$2[ebp]
  0000f	40		 inc	 eax
  00010	89 45 fc	 mov	 DWORD PTR _i$2[ebp], eax
$LN4@StringPath:
; File C:\Program Files (x86)\Microsoft Visual Studio\2019\Community\VC\Tools\MSVC\14.28.29333\include\xstring

; 3766 :         return _Mypair._Myval2._Mysize;

  00013	8b 45 08	 mov	 eax, DWORD PTR _rString$[ebp]
  00016	8b 40 10	 mov	 eax, DWORD PTR [eax+16]
  00019	89 45 f8	 mov	 DWORD PTR $T1[ebp], eax
; File D:\Metin2 Server Files\mainline\SRC_2014\Metin2Client\EterBase\Utils.cpp

; 283  : 	for (DWORD i = 0; i < rString.length(); ++i)

  0001c	8b 45 fc	 mov	 eax, DWORD PTR _i$2[ebp]
  0001f	3b 45 f8	 cmp	 eax, DWORD PTR $T1[ebp]
  00022	73 4b		 jae	 SHORT $LN1@StringPath

; 284  : 	{
; 285  : 		if (rString[i] == '\\')

  00024	ff 75 fc	 push	 DWORD PTR _i$2[ebp]
  00027	8b 4d 08	 mov	 ecx, DWORD PTR _rString$[ebp]
  0002a	e8 00 00 00 00	 call	 ??A?$basic_string@DU?$char_traits@D@std@@V?$allocator@D@2@@std@@QAEAADI@Z ; std::basic_string<char,std::char_traits<char>,std::allocator<char> >::operator[]
  0002f	0f be 00	 movsx	 eax, BYTE PTR [eax]
  00032	83 f8 5c	 cmp	 eax, 92			; 0000005cH
  00035	75 10		 jne	 SHORT $LN5@StringPath

; 286  : 			rString[i] = '/';

  00037	ff 75 fc	 push	 DWORD PTR _i$2[ebp]
  0003a	8b 4d 08	 mov	 ecx, DWORD PTR _rString$[ebp]
  0003d	e8 00 00 00 00	 call	 ??A?$basic_string@DU?$char_traits@D@std@@V?$allocator@D@2@@std@@QAEAADI@Z ; std::basic_string<char,std::char_traits<char>,std::allocator<char> >::operator[]
  00042	c6 00 2f	 mov	 BYTE PTR [eax], 47	; 0000002fH
  00045	eb 26		 jmp	 SHORT $LN6@StringPath
$LN5@StringPath:

; 287  : 		else
; 288  : 			rString[i] = korean_tolower(rString[i]);

  00047	ff 75 fc	 push	 DWORD PTR _i$2[ebp]
  0004a	8b 4d 08	 mov	 ecx, DWORD PTR _rString$[ebp]
  0004d	e8 00 00 00 00	 call	 ??A?$basic_string@DU?$char_traits@D@std@@V?$allocator@D@2@@std@@QAEAADI@Z ; std::basic_string<char,std::char_traits<char>,std::allocator<char> >::operator[]
  00052	8a 00		 mov	 al, BYTE PTR [eax]
  00054	0f b6 c0	 movzx	 eax, al
  00057	50		 push	 eax
  00058	e8 00 00 00 00	 call	 ?korean_tolower@@YADD@Z	; korean_tolower
  0005d	59		 pop	 ecx
  0005e	8a d8		 mov	 bl, al
  00060	ff 75 fc	 push	 DWORD PTR _i$2[ebp]
  00063	8b 4d 08	 mov	 ecx, DWORD PTR _rString$[ebp]
  00066	e8 00 00 00 00	 call	 ??A?$basic_string@DU?$char_traits@D@std@@V?$allocator@D@2@@std@@QAEAADI@Z ; std::basic_string<char,std::char_traits<char>,std::allocator<char> >::operator[]
  0006b	88 18		 mov	 BYTE PTR [eax], bl
$LN6@StringPath:

; 289  : 	}

  0006d	eb 9d		 jmp	 SHORT $LN2@StringPath
$LN1@StringPath:

; 290  : }

  0006f	5b		 pop	 ebx
  00070	c9		 leave
  00071	c3		 ret	 0
?StringPath@@YAXAAV?$basic_string@DU?$char_traits@D@std@@V?$allocator@D@2@@std@@@Z ENDP ; StringPath
_TEXT	ENDS
; Function compile flags: /Odspy
; File D:\Metin2 Server Files\mainline\SRC_2014\Metin2Client\EterBase\Utils.cpp
;	COMDAT ?StringLowers@@YAXPAD@Z
_TEXT	SEGMENT
_i$1 = -4						; size = 4
_String$ = 8						; size = 4
?StringLowers@@YAXPAD@Z PROC				; StringLowers, COMDAT

; 274  : {

  00000	55		 push	 ebp
  00001	8b ec		 mov	 ebp, esp
  00003	51		 push	 ecx

; 275  : 	for (DWORD i = 0; i < strlen(String); ++i)

  00004	83 65 fc 00	 and	 DWORD PTR _i$1[ebp], 0
  00008	eb 07		 jmp	 SHORT $LN4@StringLowe
$LN2@StringLowe:
  0000a	8b 45 fc	 mov	 eax, DWORD PTR _i$1[ebp]
  0000d	40		 inc	 eax
  0000e	89 45 fc	 mov	 DWORD PTR _i$1[ebp], eax
$LN4@StringLowe:
  00011	ff 75 08	 push	 DWORD PTR _String$[ebp]
  00014	e8 00 00 00 00	 call	 _strlen
  00019	59		 pop	 ecx
  0001a	39 45 fc	 cmp	 DWORD PTR _i$1[ebp], eax
  0001d	73 1a		 jae	 SHORT $LN1@StringLowe

; 276  : 	{
; 277  : 		String[i] = korean_tolower(String[i]);

  0001f	8b 45 08	 mov	 eax, DWORD PTR _String$[ebp]
  00022	03 45 fc	 add	 eax, DWORD PTR _i$1[ebp]
  00025	0f b6 00	 movzx	 eax, BYTE PTR [eax]
  00028	50		 push	 eax
  00029	e8 00 00 00 00	 call	 ?korean_tolower@@YADD@Z	; korean_tolower
  0002e	59		 pop	 ecx
  0002f	8b 4d 08	 mov	 ecx, DWORD PTR _String$[ebp]
  00032	03 4d fc	 add	 ecx, DWORD PTR _i$1[ebp]
  00035	88 01		 mov	 BYTE PTR [ecx], al

; 278  : 	}

  00037	eb d1		 jmp	 SHORT $LN2@StringLowe
$LN1@StringLowe:

; 279  : }

  00039	c9		 leave
  0003a	c3		 ret	 0
?StringLowers@@YAXPAD@Z ENDP				; StringLowers
_TEXT	ENDS
; Function compile flags: /Odspy
; File D:\Metin2 Server Files\mainline\SRC_2014\Metin2Client\EterBase\Utils.cpp
; File C:\Program Files (x86)\Microsoft Visual Studio\2019\Community\VC\Tools\MSVC\14.28.29333\include\xstring
; File C:\Program Files (x86)\Microsoft Visual Studio\2019\Community\VC\Tools\MSVC\14.28.29333\include\xmemory
; File C:\Program Files (x86)\Microsoft Visual Studio\2019\Community\VC\Tools\MSVC\14.28.29333\include\xstring
; File D:\Metin2 Server Files\mainline\SRC_2014\Metin2Client\EterBase\Utils.cpp
;	COMDAT ?GetWorkingFolder@@YAXAAV?$basic_string@DU?$char_traits@D@std@@V?$allocator@D@2@@std@@@Z
_TEXT	SEGMENT
$T1 = -28						; size = 4
$T2 = -24						; size = 4
_buf$ = -20						; size = 129
__$ArrayPad$ = 112					; size = 4
_strFileName$ = 124					; size = 4
?GetWorkingFolder@@YAXAAV?$basic_string@DU?$char_traits@D@std@@V?$allocator@D@2@@std@@@Z PROC ; GetWorkingFolder, COMDAT

; 266  : {

  00000	55		 push	 ebp
  00001	8d 6c 24 8c	 lea	 ebp, DWORD PTR [esp-116]
  00005	81 ec 90 00 00
	00		 sub	 esp, 144		; 00000090H
  0000b	a1 00 00 00 00	 mov	 eax, DWORD PTR ___security_cookie
  00010	33 c5		 xor	 eax, ebp
  00012	89 45 70	 mov	 DWORD PTR __$ArrayPad$[ebp], eax

; 267  : 	char buf[128+1];
; 268  : 	_getcwd(buf, 128);

  00015	68 80 00 00 00	 push	 128			; 00000080H
  0001a	8d 45 ec	 lea	 eax, DWORD PTR _buf$[ebp]
  0001d	50		 push	 eax
  0001e	e8 00 00 00 00	 call	 __getcwd
  00023	59		 pop	 ecx
  00024	59		 pop	 ecx

; 269  : 	strcat(buf, "/");

  00025	68 00 00 00 00	 push	 OFFSET ??_C@_01KMDKNFGN@?1@
  0002a	8d 45 ec	 lea	 eax, DWORD PTR _buf$[ebp]
  0002d	50		 push	 eax
  0002e	e8 00 00 00 00	 call	 _strcat
  00033	59		 pop	 ecx
  00034	59		 pop	 ecx
; File C:\Program Files (x86)\Microsoft Visual Studio\2019\Community\VC\Tools\MSVC\14.28.29333\include\xstring

; 389  :         return _CSTD strlen(reinterpret_cast<const char*>(_First));

  00035	8d 45 ec	 lea	 eax, DWORD PTR _buf$[ebp]
  00038	50		 push	 eax
  00039	e8 00 00 00 00	 call	 _strlen
  0003e	59		 pop	 ecx
  0003f	89 45 e8	 mov	 DWORD PTR $T2[ebp], eax
; File C:\Program Files (x86)\Microsoft Visual Studio\2019\Community\VC\Tools\MSVC\14.28.29333\include\xmemory

; 997  :     return _Len;

  00042	8b 45 e8	 mov	 eax, DWORD PTR $T2[ebp]
  00045	89 45 e4	 mov	 DWORD PTR $T1[ebp], eax
; File C:\Program Files (x86)\Microsoft Visual Studio\2019\Community\VC\Tools\MSVC\14.28.29333\include\xstring

; 3062 :         return assign(_Ptr, _Convert_size<size_type>(_Traits::length(_Ptr)));

  00048	ff 75 e4	 push	 DWORD PTR $T1[ebp]
  0004b	8d 45 ec	 lea	 eax, DWORD PTR _buf$[ebp]
  0004e	50		 push	 eax
  0004f	8b 4d 7c	 mov	 ecx, DWORD PTR _strFileName$[ebp]
  00052	e8 00 00 00 00	 call	 ?assign@?$basic_string@DU?$char_traits@D@std@@V?$allocator@D@2@@std@@QAEAAV12@QBDI@Z ; std::basic_string<char,std::char_traits<char>,std::allocator<char> >::assign
; File D:\Metin2 Server Files\mainline\SRC_2014\Metin2Client\EterBase\Utils.cpp

; 271  : }

  00057	8b 4d 70	 mov	 ecx, DWORD PTR __$ArrayPad$[ebp]
  0005a	33 cd		 xor	 ecx, ebp
  0005c	e8 00 00 00 00	 call	 @__security_check_cookie@4
  00061	83 c5 74	 add	 ebp, 116		; 00000074H
  00064	c9		 leave
  00065	c3		 ret	 0
?GetWorkingFolder@@YAXAAV?$basic_string@DU?$char_traits@D@std@@V?$allocator@D@2@@std@@@Z ENDP ; GetWorkingFolder
_TEXT	ENDS
; Function compile flags: /Odspy
; File D:\Metin2 Server Files\mainline\SRC_2014\Metin2Client\EterBase\Utils.cpp
;	COMDAT ?GetExceptionPathName@@YAXPBDAAV?$basic_string@DU?$char_traits@D@std@@V?$allocator@D@2@@std@@@Z
_TEXT	SEGMENT
_sz_Name$ = 8						; size = 4
_OnlyFileName$ = 12					; size = 4
?GetExceptionPathName@@YAXPBDAAV?$basic_string@DU?$char_traits@D@std@@V?$allocator@D@2@@std@@@Z PROC ; GetExceptionPathName, COMDAT

; 204  : {

  00000	55		 push	 ebp
  00001	8b ec		 mov	 ebp, esp

; 205  : 	GetOnlyFileName(sz_Name, OnlyFileName);

  00003	ff 75 0c	 push	 DWORD PTR _OnlyFileName$[ebp]
  00006	ff 75 08	 push	 DWORD PTR _sz_Name$[ebp]
  00009	e8 00 00 00 00	 call	 ?GetOnlyFileName@@YAXPBDAAV?$basic_string@DU?$char_traits@D@std@@V?$allocator@D@2@@std@@@Z ; GetOnlyFileName
  0000e	59		 pop	 ecx
  0000f	59		 pop	 ecx

; 206  : }

  00010	5d		 pop	 ebp
  00011	c3		 ret	 0
?GetExceptionPathName@@YAXPBDAAV?$basic_string@DU?$char_traits@D@std@@V?$allocator@D@2@@std@@@Z ENDP ; GetExceptionPathName
_TEXT	ENDS
; Function compile flags: /Odspy
; File D:\Metin2 Server Files\mainline\SRC_2014\Metin2Client\EterBase\Utils.cpp
; File C:\Program Files (x86)\Microsoft Visual Studio\2019\Community\VC\Tools\MSVC\14.28.29333\include\xstring
; File D:\Metin2 Server Files\mainline\SRC_2014\Metin2Client\EterBase\Utils.cpp
; File C:\Program Files (x86)\Microsoft Visual Studio\2019\Community\VC\Tools\MSVC\14.28.29333\include\xstring
; File D:\Metin2 Server Files\mainline\SRC_2014\Metin2Client\EterBase\Utils.cpp
; File C:\Program Files (x86)\Microsoft Visual Studio\2019\Community\VC\Tools\MSVC\14.28.29333\include\xstring
; File D:\Metin2 Server Files\mainline\SRC_2014\Metin2Client\EterBase\Utils.cpp
; File C:\Program Files (x86)\Microsoft Visual Studio\2019\Community\VC\Tools\MSVC\14.28.29333\include\xstring
; File D:\Metin2 Server Files\mainline\SRC_2014\Metin2Client\EterBase\Utils.cpp
; File C:\Program Files (x86)\Microsoft Visual Studio\2019\Community\VC\Tools\MSVC\14.28.29333\include\xstring
; File D:\Metin2 Server Files\mainline\SRC_2014\Metin2Client\EterBase\Utils.cpp
; File C:\Program Files (x86)\Microsoft Visual Studio\2019\Community\VC\Tools\MSVC\14.28.29333\include\xstring
; File D:\Metin2 Server Files\mainline\SRC_2014\Metin2Client\EterBase\Utils.cpp
; File C:\Program Files (x86)\Microsoft Visual Studio\2019\Community\VC\Tools\MSVC\14.28.29333\include\xstring
; File D:\Metin2 Server Files\mainline\SRC_2014\Metin2Client\EterBase\Utils.cpp
; File C:\Program Files (x86)\Microsoft Visual Studio\2019\Community\VC\Tools\MSVC\14.28.29333\include\xstring
; File D:\Metin2 Server Files\mainline\SRC_2014\Metin2Client\EterBase\Utils.cpp
; File C:\Program Files (x86)\Microsoft Visual Studio\2019\Community\VC\Tools\MSVC\14.28.29333\include\xstring
; File D:\Metin2 Server Files\mainline\SRC_2014\Metin2Client\EterBase\Utils.cpp
; File C:\Program Files (x86)\Microsoft Visual Studio\2019\Community\VC\Tools\MSVC\14.28.29333\include\xstring
; File D:\Metin2 Server Files\mainline\SRC_2014\Metin2Client\EterBase\Utils.cpp
; File C:\Program Files (x86)\Microsoft Visual Studio\2019\Community\VC\Tools\MSVC\14.28.29333\include\xstring
; File D:\Metin2 Server Files\mainline\SRC_2014\Metin2Client\EterBase\Utils.cpp
; File C:\Program Files (x86)\Microsoft Visual Studio\2019\Community\VC\Tools\MSVC\14.28.29333\include\xstring
; File D:\Metin2 Server Files\mainline\SRC_2014\Metin2Client\EterBase\Utils.cpp
; File C:\Program Files (x86)\Microsoft Visual Studio\2019\Community\VC\Tools\MSVC\14.28.29333\include\xstring
; File D:\Metin2 Server Files\mainline\SRC_2014\Metin2Client\EterBase\Utils.cpp
; File C:\Program Files (x86)\Microsoft Visual Studio\2019\Community\VC\Tools\MSVC\14.28.29333\include\xstring
; File C:\Program Files (x86)\Microsoft Visual Studio\2019\Community\VC\Tools\MSVC\14.28.29333\include\xmemory
; File C:\Program Files (x86)\Microsoft Visual Studio\2019\Community\VC\Tools\MSVC\14.28.29333\include\xstring
; File D:\Metin2 Server Files\mainline\SRC_2014\Metin2Client\EterBase\Utils.cpp
; File C:\Program Files (x86)\Microsoft Visual Studio\2019\Community\VC\Tools\MSVC\14.28.29333\include\xstring
; File D:\Metin2 Server Files\mainline\SRC_2014\Metin2Client\EterBase\Utils.cpp
; File C:\Program Files (x86)\Microsoft Visual Studio\2019\Community\VC\Tools\MSVC\14.28.29333\include\xstring
; File D:\Metin2 Server Files\mainline\SRC_2014\Metin2Client\EterBase\Utils.cpp
; File C:\Program Files (x86)\Microsoft Visual Studio\2019\Community\VC\Tools\MSVC\14.28.29333\include\xstring
; File D:\Metin2 Server Files\mainline\SRC_2014\Metin2Client\EterBase\Utils.cpp
;	COMDAT ?GetLocalFileName@@YA_NPBD0PAV?$basic_string@DU?$char_traits@D@std@@V?$allocator@D@2@@std@@@Z
_TEXT	SEGMENT
$T2 = -44						; size = 4
$T3 = -40						; size = 4
$T4 = -36						; size = 1
$T5 = -32						; size = 1
$T6 = -28						; size = 1
$T7 = -24						; size = 4
$T8 = -20						; size = 4
$T9 = -16						; size = 4
__$EHRec$ = -12						; size = 12
$T10 = 0						; size = 4
$T11 = 4						; size = 4
$T12 = 8						; size = 4
__Ptr$ = 12						; size = 4
_length$ = 16						; size = 4
tv91 = 20						; size = 4
_dwPos$13 = 24						; size = 4
$T14 = 29						; size = 1
$T15 = 30						; size = 1
$T16 = 31						; size = 1
_strLocalFileName$ = 32					; size = 24
_strGlobalPath$ = 56					; size = 24
_strFullPathFileName$ = 80				; size = 24
__$ArrayPad$ = 104					; size = 4
_c_szGlobalPath$ = 116					; size = 4
_c_szFullPathFileName$ = 120				; size = 4
_pstrLocalFileName$ = 124				; size = 4
?GetLocalFileName@@YA_NPBD0PAV?$basic_string@DU?$char_traits@D@std@@V?$allocator@D@2@@std@@@Z PROC ; GetLocalFileName, COMDAT

; 242  : {

  00000	55		 push	 ebp
  00001	8d 6c 24 94	 lea	 ebp, DWORD PTR [esp-108]
  00005	83 ec 6c	 sub	 esp, 108		; 0000006cH
  00008	6a ff		 push	 -1
  0000a	68 00 00 00 00	 push	 __ehhandler$?GetLocalFileName@@YA_NPBD0PAV?$basic_string@DU?$char_traits@D@std@@V?$allocator@D@2@@std@@@Z
  0000f	64 a1 00 00 00
	00		 mov	 eax, DWORD PTR fs:0
  00015	50		 push	 eax
  00016	83 ec 20	 sub	 esp, 32			; 00000020H
  00019	a1 00 00 00 00	 mov	 eax, DWORD PTR ___security_cookie
  0001e	33 c5		 xor	 eax, ebp
  00020	89 45 68	 mov	 DWORD PTR __$ArrayPad$[ebp], eax
  00023	56		 push	 esi
  00024	50		 push	 eax
  00025	8d 45 f4	 lea	 eax, DWORD PTR __$EHRec$[ebp]
  00028	64 a3 00 00 00
	00		 mov	 DWORD PTR fs:0, eax
; File C:\Program Files (x86)\Microsoft Visual Studio\2019\Community\VC\Tools\MSVC\14.28.29333\include\xstring

; 2365 :     basic_string() noexcept(is_nothrow_default_constructible_v<_Alty>) : _Mypair(_Zero_then_variadic_args_t{}) {

  0002e	ff 75 e4	 push	 DWORD PTR $T6[ebp]
  00031	8d 4d 20	 lea	 ecx, DWORD PTR _strLocalFileName$[ebp]
  00034	e8 00 00 00 00	 call	 ??$?0$$V@?$_Compressed_pair@V?$allocator@D@std@@V?$_String_val@U?$_Simple_types@D@std@@@2@$00@std@@QAE@U_Zero_then_variadic_args_t@1@@Z ; std::_Compressed_pair<std::allocator<char>,std::_String_val<std::_Simple_types<char> >,1>::_Compressed_pair<std::allocator<char>,std::_String_val<std::_Simple_types<char> >,1><>

; 2366 :         _Mypair._Myval2._Alloc_proxy(_GET_PROXY_ALLOCATOR(_Alty, _Getal()));
; 2367 :         _Tidy_init();

  00039	8d 4d 20	 lea	 ecx, DWORD PTR _strLocalFileName$[ebp]
  0003c	e8 00 00 00 00	 call	 ?_Tidy_init@?$basic_string@DU?$char_traits@D@std@@V?$allocator@D@2@@std@@AAEXXZ ; std::basic_string<char,std::char_traits<char>,std::allocator<char> >::_Tidy_init
; File D:\Metin2 Server Files\mainline\SRC_2014\Metin2Client\EterBase\Utils.cpp

; 243  : 	std::string strLocalFileName;

  00041	83 65 fc 00	 and	 DWORD PTR __$EHRec$[ebp+8], 0
; File C:\Program Files (x86)\Microsoft Visual Studio\2019\Community\VC\Tools\MSVC\14.28.29333\include\xstring

; 2365 :     basic_string() noexcept(is_nothrow_default_constructible_v<_Alty>) : _Mypair(_Zero_then_variadic_args_t{}) {

  00045	ff 75 e0	 push	 DWORD PTR $T5[ebp]
  00048	8d 4d 38	 lea	 ecx, DWORD PTR _strGlobalPath$[ebp]
  0004b	e8 00 00 00 00	 call	 ??$?0$$V@?$_Compressed_pair@V?$allocator@D@std@@V?$_String_val@U?$_Simple_types@D@std@@@2@$00@std@@QAE@U_Zero_then_variadic_args_t@1@@Z ; std::_Compressed_pair<std::allocator<char>,std::_String_val<std::_Simple_types<char> >,1>::_Compressed_pair<std::allocator<char>,std::_String_val<std::_Simple_types<char> >,1><>

; 2366 :         _Mypair._Myval2._Alloc_proxy(_GET_PROXY_ALLOCATOR(_Alty, _Getal()));
; 2367 :         _Tidy_init();

  00050	8d 4d 38	 lea	 ecx, DWORD PTR _strGlobalPath$[ebp]
  00053	e8 00 00 00 00	 call	 ?_Tidy_init@?$basic_string@DU?$char_traits@D@std@@V?$allocator@D@2@@std@@AAEXXZ ; std::basic_string<char,std::char_traits<char>,std::allocator<char> >::_Tidy_init
; File D:\Metin2 Server Files\mainline\SRC_2014\Metin2Client\EterBase\Utils.cpp

; 245  : 	std::string strGlobalPath;

  00058	c6 45 fc 01	 mov	 BYTE PTR __$EHRec$[ebp+8], 1
; File C:\Program Files (x86)\Microsoft Visual Studio\2019\Community\VC\Tools\MSVC\14.28.29333\include\xstring

; 2365 :     basic_string() noexcept(is_nothrow_default_constructible_v<_Alty>) : _Mypair(_Zero_then_variadic_args_t{}) {

  0005c	ff 75 dc	 push	 DWORD PTR $T4[ebp]
  0005f	8d 4d 50	 lea	 ecx, DWORD PTR _strFullPathFileName$[ebp]
  00062	e8 00 00 00 00	 call	 ??$?0$$V@?$_Compressed_pair@V?$allocator@D@std@@V?$_String_val@U?$_Simple_types@D@std@@@2@$00@std@@QAE@U_Zero_then_variadic_args_t@1@@Z ; std::_Compressed_pair<std::allocator<char>,std::_String_val<std::_Simple_types<char> >,1>::_Compressed_pair<std::allocator<char>,std::_String_val<std::_Simple_types<char> >,1><>

; 2366 :         _Mypair._Myval2._Alloc_proxy(_GET_PROXY_ALLOCATOR(_Alty, _Getal()));
; 2367 :         _Tidy_init();

  00067	8d 4d 50	 lea	 ecx, DWORD PTR _strFullPathFileName$[ebp]
  0006a	e8 00 00 00 00	 call	 ?_Tidy_init@?$basic_string@DU?$char_traits@D@std@@V?$allocator@D@2@@std@@AAEXXZ ; std::basic_string<char,std::char_traits<char>,std::allocator<char> >::_Tidy_init
; File D:\Metin2 Server Files\mainline\SRC_2014\Metin2Client\EterBase\Utils.cpp

; 246  : 	std::string strFullPathFileName;

  0006f	c6 45 fc 02	 mov	 BYTE PTR __$EHRec$[ebp+8], 2

; 247  : 	StringPath(c_szGlobalPath, strGlobalPath);

  00073	8d 45 38	 lea	 eax, DWORD PTR _strGlobalPath$[ebp]
  00076	50		 push	 eax
  00077	ff 75 74	 push	 DWORD PTR _c_szGlobalPath$[ebp]
  0007a	e8 00 00 00 00	 call	 ?StringPath@@YAXPBDAAV?$basic_string@DU?$char_traits@D@std@@V?$allocator@D@2@@std@@@Z ; StringPath
  0007f	59		 pop	 ecx
  00080	59		 pop	 ecx

; 248  : 	StringPath(c_szFullPathFileName, strFullPathFileName);

  00081	8d 45 50	 lea	 eax, DWORD PTR _strFullPathFileName$[ebp]
  00084	50		 push	 eax
  00085	ff 75 78	 push	 DWORD PTR _c_szFullPathFileName$[ebp]
  00088	e8 00 00 00 00	 call	 ?StringPath@@YAXPBDAAV?$basic_string@DU?$char_traits@D@std@@V?$allocator@D@2@@std@@@Z ; StringPath
  0008d	59		 pop	 ecx
  0008e	59		 pop	 ecx
; File C:\Program Files (x86)\Microsoft Visual Studio\2019\Community\VC\Tools\MSVC\14.28.29333\include\xstring

; 3766 :         return _Mypair._Myval2._Mysize;

  0008f	8b 45 48	 mov	 eax, DWORD PTR _strGlobalPath$[ebp+16]
  00092	89 45 08	 mov	 DWORD PTR $T12[ebp], eax
  00095	8b 45 60	 mov	 eax, DWORD PTR _strFullPathFileName$[ebp+16]
  00098	89 45 04	 mov	 DWORD PTR $T11[ebp], eax
; File D:\Metin2 Server Files\mainline\SRC_2014\Metin2Client\EterBase\Utils.cpp

; 250  : 	if (strGlobalPath.length() >= strFullPathFileName.length())

  0009b	8b 45 08	 mov	 eax, DWORD PTR $T12[ebp]
  0009e	3b 45 04	 cmp	 eax, DWORD PTR $T11[ebp]
  000a1	72 30		 jb	 SHORT $LN5@GetLocalFi

; 251  : 		return false;

  000a3	c6 45 1f 00	 mov	 BYTE PTR $T16[ebp], 0
  000a7	c6 45 fc 01	 mov	 BYTE PTR __$EHRec$[ebp+8], 1
; File C:\Program Files (x86)\Microsoft Visual Studio\2019\Community\VC\Tools\MSVC\14.28.29333\include\xstring

; 2801 :         _Tidy_deallocate();

  000ab	8d 4d 50	 lea	 ecx, DWORD PTR _strFullPathFileName$[ebp]
  000ae	e8 00 00 00 00	 call	 ?_Tidy_deallocate@?$basic_string@DU?$char_traits@D@std@@V?$allocator@D@2@@std@@AAEXXZ ; std::basic_string<char,std::char_traits<char>,std::allocator<char> >::_Tidy_deallocate
; File D:\Metin2 Server Files\mainline\SRC_2014\Metin2Client\EterBase\Utils.cpp

; 251  : 		return false;

  000b3	c6 45 fc 00	 mov	 BYTE PTR __$EHRec$[ebp+8], 0
; File C:\Program Files (x86)\Microsoft Visual Studio\2019\Community\VC\Tools\MSVC\14.28.29333\include\xstring

; 2801 :         _Tidy_deallocate();

  000b7	8d 4d 38	 lea	 ecx, DWORD PTR _strGlobalPath$[ebp]
  000ba	e8 00 00 00 00	 call	 ?_Tidy_deallocate@?$basic_string@DU?$char_traits@D@std@@V?$allocator@D@2@@std@@AAEXXZ ; std::basic_string<char,std::char_traits<char>,std::allocator<char> >::_Tidy_deallocate
; File D:\Metin2 Server Files\mainline\SRC_2014\Metin2Client\EterBase\Utils.cpp

; 251  : 		return false;

  000bf	83 4d fc ff	 or	 DWORD PTR __$EHRec$[ebp+8], -1
; File C:\Program Files (x86)\Microsoft Visual Studio\2019\Community\VC\Tools\MSVC\14.28.29333\include\xstring

; 2801 :         _Tidy_deallocate();

  000c3	8d 4d 20	 lea	 ecx, DWORD PTR _strLocalFileName$[ebp]
  000c6	e8 00 00 00 00	 call	 ?_Tidy_deallocate@?$basic_string@DU?$char_traits@D@std@@V?$allocator@D@2@@std@@AAEXXZ ; std::basic_string<char,std::char_traits<char>,std::allocator<char> >::_Tidy_deallocate
; File D:\Metin2 Server Files\mainline\SRC_2014\Metin2Client\EterBase\Utils.cpp

; 251  : 		return false;

  000cb	8a 45 1f	 mov	 al, BYTE PTR $T16[ebp]
  000ce	e9 ec 00 00 00	 jmp	 $LN1@GetLocalFi
$LN5@GetLocalFi:
; File C:\Program Files (x86)\Microsoft Visual Studio\2019\Community\VC\Tools\MSVC\14.28.29333\include\xstring

; 3766 :         return _Mypair._Myval2._Mysize;

  000d3	8b 45 48	 mov	 eax, DWORD PTR _strGlobalPath$[ebp+16]
  000d6	89 45 00	 mov	 DWORD PTR $T10[ebp], eax
  000d9	8b 45 60	 mov	 eax, DWORD PTR _strFullPathFileName$[ebp+16]
  000dc	89 45 f0	 mov	 DWORD PTR $T9[ebp], eax
; File D:\Metin2 Server Files\mainline\SRC_2014\Metin2Client\EterBase\Utils.cpp

; 253  : 	DWORD length = min(strGlobalPath.length(), strFullPathFileName.length());

  000df	8b 45 00	 mov	 eax, DWORD PTR $T10[ebp]
  000e2	3b 45 f0	 cmp	 eax, DWORD PTR $T9[ebp]
  000e5	73 0e		 jae	 SHORT $LN8@GetLocalFi
  000e7	8b 45 d8	 mov	 eax, DWORD PTR $T3[ebp]
  000ea	89 45 14	 mov	 DWORD PTR tv91[ebp], eax
; File C:\Program Files (x86)\Microsoft Visual Studio\2019\Community\VC\Tools\MSVC\14.28.29333\include\xstring

; 3766 :         return _Mypair._Myval2._Mysize;

  000ed	8b 45 48	 mov	 eax, DWORD PTR _strGlobalPath$[ebp+16]
  000f0	89 45 14	 mov	 DWORD PTR tv91[ebp], eax
; File D:\Metin2 Server Files\mainline\SRC_2014\Metin2Client\EterBase\Utils.cpp

; 253  : 	DWORD length = min(strGlobalPath.length(), strFullPathFileName.length());

  000f3	eb 0c		 jmp	 SHORT $LN9@GetLocalFi
$LN8@GetLocalFi:
  000f5	8b 45 d4	 mov	 eax, DWORD PTR $T2[ebp]
  000f8	89 45 14	 mov	 DWORD PTR tv91[ebp], eax
; File C:\Program Files (x86)\Microsoft Visual Studio\2019\Community\VC\Tools\MSVC\14.28.29333\include\xstring

; 3766 :         return _Mypair._Myval2._Mysize;

  000fb	8b 45 60	 mov	 eax, DWORD PTR _strFullPathFileName$[ebp+16]
  000fe	89 45 14	 mov	 DWORD PTR tv91[ebp], eax
$LN9@GetLocalFi:
; File D:\Metin2 Server Files\mainline\SRC_2014\Metin2Client\EterBase\Utils.cpp

; 253  : 	DWORD length = min(strGlobalPath.length(), strFullPathFileName.length());

  00101	8b 45 14	 mov	 eax, DWORD PTR tv91[ebp]
  00104	89 45 10	 mov	 DWORD PTR _length$[ebp], eax

; 254  : 	for (DWORD dwPos = 0; dwPos < length; ++dwPos)

  00107	83 65 18 00	 and	 DWORD PTR _dwPos$13[ebp], 0
  0010b	eb 07		 jmp	 SHORT $LN4@GetLocalFi
$LN2@GetLocalFi:
  0010d	8b 45 18	 mov	 eax, DWORD PTR _dwPos$13[ebp]
  00110	40		 inc	 eax
  00111	89 45 18	 mov	 DWORD PTR _dwPos$13[ebp], eax
$LN4@GetLocalFi:
  00114	8b 45 18	 mov	 eax, DWORD PTR _dwPos$13[ebp]
  00117	3b 45 10	 cmp	 eax, DWORD PTR _length$[ebp]
  0011a	73 4f		 jae	 SHORT $LN3@GetLocalFi

; 255  : 	{
; 256  : 		if (strGlobalPath[dwPos] != strFullPathFileName[dwPos])

  0011c	ff 75 18	 push	 DWORD PTR _dwPos$13[ebp]
  0011f	8d 4d 38	 lea	 ecx, DWORD PTR _strGlobalPath$[ebp]
  00122	e8 00 00 00 00	 call	 ??A?$basic_string@DU?$char_traits@D@std@@V?$allocator@D@2@@std@@QAEAADI@Z ; std::basic_string<char,std::char_traits<char>,std::allocator<char> >::operator[]
  00127	0f be 30	 movsx	 esi, BYTE PTR [eax]
  0012a	ff 75 18	 push	 DWORD PTR _dwPos$13[ebp]
  0012d	8d 4d 50	 lea	 ecx, DWORD PTR _strFullPathFileName$[ebp]
  00130	e8 00 00 00 00	 call	 ??A?$basic_string@DU?$char_traits@D@std@@V?$allocator@D@2@@std@@QAEAADI@Z ; std::basic_string<char,std::char_traits<char>,std::allocator<char> >::operator[]
  00135	0f be 00	 movsx	 eax, BYTE PTR [eax]
  00138	3b f0		 cmp	 esi, eax
  0013a	74 2d		 je	 SHORT $LN6@GetLocalFi

; 257  : 			return false;

  0013c	c6 45 1e 00	 mov	 BYTE PTR $T15[ebp], 0
  00140	c6 45 fc 01	 mov	 BYTE PTR __$EHRec$[ebp+8], 1
; File C:\Program Files (x86)\Microsoft Visual Studio\2019\Community\VC\Tools\MSVC\14.28.29333\include\xstring

; 2801 :         _Tidy_deallocate();

  00144	8d 4d 50	 lea	 ecx, DWORD PTR _strFullPathFileName$[ebp]
  00147	e8 00 00 00 00	 call	 ?_Tidy_deallocate@?$basic_string@DU?$char_traits@D@std@@V?$allocator@D@2@@std@@AAEXXZ ; std::basic_string<char,std::char_traits<char>,std::allocator<char> >::_Tidy_deallocate
; File D:\Metin2 Server Files\mainline\SRC_2014\Metin2Client\EterBase\Utils.cpp

; 257  : 			return false;

  0014c	c6 45 fc 00	 mov	 BYTE PTR __$EHRec$[ebp+8], 0
; File C:\Program Files (x86)\Microsoft Visual Studio\2019\Community\VC\Tools\MSVC\14.28.29333\include\xstring

; 2801 :         _Tidy_deallocate();

  00150	8d 4d 38	 lea	 ecx, DWORD PTR _strGlobalPath$[ebp]
  00153	e8 00 00 00 00	 call	 ?_Tidy_deallocate@?$basic_string@DU?$char_traits@D@std@@V?$allocator@D@2@@std@@AAEXXZ ; std::basic_string<char,std::char_traits<char>,std::allocator<char> >::_Tidy_deallocate
; File D:\Metin2 Server Files\mainline\SRC_2014\Metin2Client\EterBase\Utils.cpp

; 257  : 			return false;

  00158	83 4d fc ff	 or	 DWORD PTR __$EHRec$[ebp+8], -1
; File C:\Program Files (x86)\Microsoft Visual Studio\2019\Community\VC\Tools\MSVC\14.28.29333\include\xstring

; 2801 :         _Tidy_deallocate();

  0015c	8d 4d 20	 lea	 ecx, DWORD PTR _strLocalFileName$[ebp]
  0015f	e8 00 00 00 00	 call	 ?_Tidy_deallocate@?$basic_string@DU?$char_traits@D@std@@V?$allocator@D@2@@std@@AAEXXZ ; std::basic_string<char,std::char_traits<char>,std::allocator<char> >::_Tidy_deallocate
; File D:\Metin2 Server Files\mainline\SRC_2014\Metin2Client\EterBase\Utils.cpp

; 257  : 			return false;

  00164	8a 45 1e	 mov	 al, BYTE PTR $T15[ebp]
  00167	eb 56		 jmp	 SHORT $LN1@GetLocalFi
$LN6@GetLocalFi:

; 258  : 	}

  00169	eb a2		 jmp	 SHORT $LN2@GetLocalFi
$LN3@GetLocalFi:

; 259  : 
; 260  : 	*pstrLocalFileName = &c_szFullPathFileName[length];

  0016b	8b 45 78	 mov	 eax, DWORD PTR _c_szFullPathFileName$[ebp]
  0016e	03 45 10	 add	 eax, DWORD PTR _length$[ebp]
  00171	89 45 0c	 mov	 DWORD PTR __Ptr$[ebp], eax
; File C:\Program Files (x86)\Microsoft Visual Studio\2019\Community\VC\Tools\MSVC\14.28.29333\include\xstring

; 389  :         return _CSTD strlen(reinterpret_cast<const char*>(_First));

  00174	ff 75 0c	 push	 DWORD PTR __Ptr$[ebp]
  00177	e8 00 00 00 00	 call	 _strlen
  0017c	59		 pop	 ecx
  0017d	89 45 ec	 mov	 DWORD PTR $T8[ebp], eax
; File C:\Program Files (x86)\Microsoft Visual Studio\2019\Community\VC\Tools\MSVC\14.28.29333\include\xmemory

; 997  :     return _Len;

  00180	8b 45 ec	 mov	 eax, DWORD PTR $T8[ebp]
  00183	89 45 e8	 mov	 DWORD PTR $T7[ebp], eax
; File C:\Program Files (x86)\Microsoft Visual Studio\2019\Community\VC\Tools\MSVC\14.28.29333\include\xstring

; 3062 :         return assign(_Ptr, _Convert_size<size_type>(_Traits::length(_Ptr)));

  00186	ff 75 e8	 push	 DWORD PTR $T7[ebp]
  00189	ff 75 0c	 push	 DWORD PTR __Ptr$[ebp]
  0018c	8b 4d 7c	 mov	 ecx, DWORD PTR _pstrLocalFileName$[ebp]
  0018f	e8 00 00 00 00	 call	 ?assign@?$basic_string@DU?$char_traits@D@std@@V?$allocator@D@2@@std@@QAEAAV12@QBDI@Z ; std::basic_string<char,std::char_traits<char>,std::allocator<char> >::assign
; File D:\Metin2 Server Files\mainline\SRC_2014\Metin2Client\EterBase\Utils.cpp

; 262  : 	return true;

  00194	c6 45 1d 01	 mov	 BYTE PTR $T14[ebp], 1
  00198	c6 45 fc 01	 mov	 BYTE PTR __$EHRec$[ebp+8], 1
; File C:\Program Files (x86)\Microsoft Visual Studio\2019\Community\VC\Tools\MSVC\14.28.29333\include\xstring

; 2801 :         _Tidy_deallocate();

  0019c	8d 4d 50	 lea	 ecx, DWORD PTR _strFullPathFileName$[ebp]
  0019f	e8 00 00 00 00	 call	 ?_Tidy_deallocate@?$basic_string@DU?$char_traits@D@std@@V?$allocator@D@2@@std@@AAEXXZ ; std::basic_string<char,std::char_traits<char>,std::allocator<char> >::_Tidy_deallocate
; File D:\Metin2 Server Files\mainline\SRC_2014\Metin2Client\EterBase\Utils.cpp

; 262  : 	return true;

  001a4	c6 45 fc 00	 mov	 BYTE PTR __$EHRec$[ebp+8], 0
; File C:\Program Files (x86)\Microsoft Visual Studio\2019\Community\VC\Tools\MSVC\14.28.29333\include\xstring

; 2801 :         _Tidy_deallocate();

  001a8	8d 4d 38	 lea	 ecx, DWORD PTR _strGlobalPath$[ebp]
  001ab	e8 00 00 00 00	 call	 ?_Tidy_deallocate@?$basic_string@DU?$char_traits@D@std@@V?$allocator@D@2@@std@@AAEXXZ ; std::basic_string<char,std::char_traits<char>,std::allocator<char> >::_Tidy_deallocate
; File D:\Metin2 Server Files\mainline\SRC_2014\Metin2Client\EterBase\Utils.cpp

; 262  : 	return true;

  001b0	83 4d fc ff	 or	 DWORD PTR __$EHRec$[ebp+8], -1
; File C:\Program Files (x86)\Microsoft Visual Studio\2019\Community\VC\Tools\MSVC\14.28.29333\include\xstring

; 2801 :         _Tidy_deallocate();

  001b4	8d 4d 20	 lea	 ecx, DWORD PTR _strLocalFileName$[ebp]
  001b7	e8 00 00 00 00	 call	 ?_Tidy_deallocate@?$basic_string@DU?$char_traits@D@std@@V?$allocator@D@2@@std@@AAEXXZ ; std::basic_string<char,std::char_traits<char>,std::allocator<char> >::_Tidy_deallocate
; File D:\Metin2 Server Files\mainline\SRC_2014\Metin2Client\EterBase\Utils.cpp

; 262  : 	return true;

  001bc	8a 45 1d	 mov	 al, BYTE PTR $T14[ebp]
$LN1@GetLocalFi:

; 263  : }

  001bf	8b 4d f4	 mov	 ecx, DWORD PTR __$EHRec$[ebp]
  001c2	64 89 0d 00 00
	00 00		 mov	 DWORD PTR fs:0, ecx
  001c9	59		 pop	 ecx
  001ca	5e		 pop	 esi
  001cb	8b 4d 68	 mov	 ecx, DWORD PTR __$ArrayPad$[ebp]
  001ce	33 cd		 xor	 ecx, ebp
  001d0	e8 00 00 00 00	 call	 @__security_check_cookie@4
  001d5	83 c5 6c	 add	 ebp, 108		; 0000006cH
  001d8	c9		 leave
  001d9	c3		 ret	 0
_TEXT	ENDS
;	COMDAT text$x
text$x	SEGMENT
__unwindfunclet$?GetLocalFileName@@YA_NPBD0PAV?$basic_string@DU?$char_traits@D@std@@V?$allocator@D@2@@std@@@Z$0:
  00000	8d 4d 20	 lea	 ecx, DWORD PTR _strLocalFileName$[ebp]
  00003	e9 00 00 00 00	 jmp	 ??1?$basic_string@DU?$char_traits@D@std@@V?$allocator@D@2@@std@@QAE@XZ ; std::basic_string<char,std::char_traits<char>,std::allocator<char> >::~basic_string<char,std::char_traits<char>,std::allocator<char> >
__unwindfunclet$?GetLocalFileName@@YA_NPBD0PAV?$basic_string@DU?$char_traits@D@std@@V?$allocator@D@2@@std@@@Z$1:
  00008	8d 4d 38	 lea	 ecx, DWORD PTR _strGlobalPath$[ebp]
  0000b	e9 00 00 00 00	 jmp	 ??1?$basic_string@DU?$char_traits@D@std@@V?$allocator@D@2@@std@@QAE@XZ ; std::basic_string<char,std::char_traits<char>,std::allocator<char> >::~basic_string<char,std::char_traits<char>,std::allocator<char> >
__unwindfunclet$?GetLocalFileName@@YA_NPBD0PAV?$basic_string@DU?$char_traits@D@std@@V?$allocator@D@2@@std@@@Z$2:
  00010	8d 4d 50	 lea	 ecx, DWORD PTR _strFullPathFileName$[ebp]
  00013	e9 00 00 00 00	 jmp	 ??1?$basic_string@DU?$char_traits@D@std@@V?$allocator@D@2@@std@@QAE@XZ ; std::basic_string<char,std::char_traits<char>,std::allocator<char> >::~basic_string<char,std::char_traits<char>,std::allocator<char> >
  00018	cc		 int	 3
  00019	cc		 int	 3
  0001a	cc		 int	 3
  0001b	cc		 int	 3
  0001c	cc		 int	 3
__ehhandler$?GetLocalFileName@@YA_NPBD0PAV?$basic_string@DU?$char_traits@D@std@@V?$allocator@D@2@@std@@@Z:
  0001d	90		 npad	 1
  0001e	90		 npad	 1
  0001f	8b 54 24 08	 mov	 edx, DWORD PTR [esp+8]
  00023	8d 42 0c	 lea	 eax, DWORD PTR [edx+12]
  00026	8b 4a d8	 mov	 ecx, DWORD PTR [edx-40]
  00029	33 c8		 xor	 ecx, eax
  0002b	e8 00 00 00 00	 call	 @__security_check_cookie@4
  00030	8b 4a 74	 mov	 ecx, DWORD PTR [edx+116]
  00033	33 c8		 xor	 ecx, eax
  00035	e8 00 00 00 00	 call	 @__security_check_cookie@4
  0003a	b8 00 00 00 00	 mov	 eax, OFFSET __ehfuncinfo$?GetLocalFileName@@YA_NPBD0PAV?$basic_string@DU?$char_traits@D@std@@V?$allocator@D@2@@std@@@Z
  0003f	e9 00 00 00 00	 jmp	 ___CxxFrameHandler3
text$x	ENDS
?GetLocalFileName@@YA_NPBD0PAV?$basic_string@DU?$char_traits@D@std@@V?$allocator@D@2@@std@@@Z ENDP ; GetLocalFileName
; Function compile flags: /Odspy
; File D:\Metin2 Server Files\mainline\SRC_2014\Metin2Client\EterBase\Utils.cpp
; File C:\Program Files (x86)\Microsoft Visual Studio\2019\Community\VC\Tools\MSVC\14.28.29333\include\xstring
; File D:\Metin2 Server Files\mainline\SRC_2014\Metin2Client\EterBase\Utils.cpp
;	COMDAT ?GetOnlyPathName@@YAPBDPBD@Z
_TEXT	SEGMENT
$T1 = -4						; size = 4
_c_szName$ = 8						; size = 4
?GetOnlyPathName@@YAPBDPBD@Z PROC			; GetOnlyPathName, COMDAT

; 234  : {

  00000	55		 push	 ebp
  00001	8b ec		 mov	 ebp, esp
  00003	51		 push	 ecx

; 235  : 	static std::string strPathName;

  00004	a1 00 00 00 00	 mov	 eax, DWORD PTR __tls_index
  00009	64 8b 0d 00 00
	00 00		 mov	 ecx, DWORD PTR fs:__tls_array
  00010	8b 04 81	 mov	 eax, DWORD PTR [ecx+eax*4]
  00013	8b 0d 00 00 00
	00		 mov	 ecx, DWORD PTR ?$TSS0@?1??GetOnlyPathName@@YAPBDPBD@Z@4HA
  00019	3b 88 00 00 00
	00		 cmp	 ecx, DWORD PTR __Init_thread_epoch[eax]
  0001f	7e 34		 jle	 SHORT $LN2@GetOnlyPat
  00021	68 00 00 00 00	 push	 OFFSET ?$TSS0@?1??GetOnlyPathName@@YAPBDPBD@Z@4HA
  00026	e8 00 00 00 00	 call	 __Init_thread_header
  0002b	59		 pop	 ecx
  0002c	83 3d 00 00 00
	00 ff		 cmp	 DWORD PTR ?$TSS0@?1??GetOnlyPathName@@YAPBDPBD@Z@4HA, -1
  00033	75 20		 jne	 SHORT $LN2@GetOnlyPat
  00035	b9 00 00 00 00	 mov	 ecx, OFFSET ?strPathName@?1??GetOnlyPathName@@YAPBDPBD@Z@4V?$basic_string@DU?$char_traits@D@std@@V?$allocator@D@2@@std@@A
  0003a	e8 00 00 00 00	 call	 ??0?$basic_string@DU?$char_traits@D@std@@V?$allocator@D@2@@std@@QAE@XZ ; std::basic_string<char,std::char_traits<char>,std::allocator<char> >::basic_string<char,std::char_traits<char>,std::allocator<char> >
  0003f	68 00 00 00 00	 push	 OFFSET ??__FstrPathName@?1??GetOnlyPathName@@YAPBDPBD@Z@YAXXZ ; `GetOnlyPathName'::`2'::`dynamic atexit destructor for 'strPathName''
  00044	e8 00 00 00 00	 call	 _atexit
  00049	59		 pop	 ecx
  0004a	68 00 00 00 00	 push	 OFFSET ?$TSS0@?1??GetOnlyPathName@@YAPBDPBD@Z@4HA
  0004f	e8 00 00 00 00	 call	 __Init_thread_footer
  00054	59		 pop	 ecx
$LN2@GetOnlyPat:

; 236  : 	GetOnlyPathName(c_szName, strPathName);

  00055	68 00 00 00 00	 push	 OFFSET ?strPathName@?1??GetOnlyPathName@@YAPBDPBD@Z@4V?$basic_string@DU?$char_traits@D@std@@V?$allocator@D@2@@std@@A
  0005a	ff 75 08	 push	 DWORD PTR _c_szName$[ebp]
  0005d	e8 00 00 00 00	 call	 ?GetOnlyPathName@@YAXPBDAAV?$basic_string@DU?$char_traits@D@std@@V?$allocator@D@2@@std@@@Z ; GetOnlyPathName
  00062	59		 pop	 ecx
  00063	59		 pop	 ecx
; File C:\Program Files (x86)\Microsoft Visual Studio\2019\Community\VC\Tools\MSVC\14.28.29333\include\xstring

; 3752 :         return _Mypair._Myval2._Myptr();

  00064	b9 00 00 00 00	 mov	 ecx, OFFSET ?strPathName@?1??GetOnlyPathName@@YAPBDPBD@Z@4V?$basic_string@DU?$char_traits@D@std@@V?$allocator@D@2@@std@@A
  00069	e8 00 00 00 00	 call	 ?_Myptr@?$_String_val@U?$_Simple_types@D@std@@@std@@QBEPBDXZ ; std::_String_val<std::_Simple_types<char> >::_Myptr
  0006e	89 45 fc	 mov	 DWORD PTR $T1[ebp], eax
; File D:\Metin2 Server Files\mainline\SRC_2014\Metin2Client\EterBase\Utils.cpp

; 238  : 	return strPathName.c_str();

  00071	8b 45 fc	 mov	 eax, DWORD PTR $T1[ebp]

; 239  : }

  00074	c9		 leave
  00075	c3		 ret	 0
?GetOnlyPathName@@YAPBDPBD@Z ENDP			; GetOnlyPathName
_TEXT	ENDS
; Function compile flags: /Odspy
; File D:\Metin2 Server Files\mainline\SRC_2014\Metin2Client\EterBase\Utils.cpp
; File C:\Program Files (x86)\Microsoft Visual Studio\2019\Community\VC\Tools\MSVC\14.28.29333\include\xstring
; File C:\Program Files (x86)\Microsoft Visual Studio\2019\Community\VC\Tools\MSVC\14.28.29333\include\xmemory
; File C:\Program Files (x86)\Microsoft Visual Studio\2019\Community\VC\Tools\MSVC\14.28.29333\include\xstring
; File D:\Metin2 Server Files\mainline\SRC_2014\Metin2Client\EterBase\Utils.cpp
; File C:\Program Files (x86)\Microsoft Visual Studio\2019\Community\VC\Tools\MSVC\14.28.29333\include\xstring
; File D:\Metin2 Server Files\mainline\SRC_2014\Metin2Client\EterBase\Utils.cpp
; File C:\Program Files (x86)\Microsoft Visual Studio\2019\Community\VC\Tools\MSVC\14.28.29333\include\xstring
; File C:\Program Files (x86)\Microsoft Visual Studio\2019\Community\VC\Tools\MSVC\14.28.29333\include\xmemory
; File C:\Program Files (x86)\Microsoft Visual Studio\2019\Community\VC\Tools\MSVC\14.28.29333\include\xstring
; File D:\Metin2 Server Files\mainline\SRC_2014\Metin2Client\EterBase\Utils.cpp
;	COMDAT ?GetOnlyPathName@@YAXPBDAAV?$basic_string@DU?$char_traits@D@std@@V?$allocator@D@2@@std@@@Z
_TEXT	SEGMENT
$T1 = -28						; size = 4
$T2 = -24						; size = 4
__Ch$ = -20						; size = 1
$T3 = -16						; size = 4
$T4 = -12						; size = 4
_j$5 = -8						; size = 4
_i$ = -4						; size = 4
_sz_Name$ = 8						; size = 4
_OnlyPathName$ = 12					; size = 4
?GetOnlyPathName@@YAXPBDAAV?$basic_string@DU?$char_traits@D@std@@V?$allocator@D@2@@std@@@Z PROC ; GetOnlyPathName, COMDAT

; 209  : {

  00000	55		 push	 ebp
  00001	8b ec		 mov	 ebp, esp
  00003	83 ec 1c	 sub	 esp, 28			; 0000001cH

; 210  : 	int i;
; 211  : 	for (i = strlen(sz_Name) - 1; i >= 0; --i)

  00006	ff 75 08	 push	 DWORD PTR _sz_Name$[ebp]
  00009	e8 00 00 00 00	 call	 _strlen
  0000e	59		 pop	 ecx
  0000f	48		 dec	 eax
  00010	89 45 fc	 mov	 DWORD PTR _i$[ebp], eax
  00013	eb 07		 jmp	 SHORT $LN4@GetOnlyPat
$LN2@GetOnlyPat:
  00015	8b 45 fc	 mov	 eax, DWORD PTR _i$[ebp]
  00018	48		 dec	 eax
  00019	89 45 fc	 mov	 DWORD PTR _i$[ebp], eax
$LN4@GetOnlyPat:
  0001c	83 7d fc 00	 cmp	 DWORD PTR _i$[ebp], 0
  00020	7c 27		 jl	 SHORT $LN3@GetOnlyPat

; 212  : 	{
; 213  : 		if ('\\' == sz_Name[i] || '/' == sz_Name[i])

  00022	8b 45 08	 mov	 eax, DWORD PTR _sz_Name$[ebp]
  00025	03 45 fc	 add	 eax, DWORD PTR _i$[ebp]
  00028	0f be 00	 movsx	 eax, BYTE PTR [eax]
  0002b	83 f8 5c	 cmp	 eax, 92			; 0000005cH
  0002e	74 0e		 je	 SHORT $LN9@GetOnlyPat
  00030	8b 45 08	 mov	 eax, DWORD PTR _sz_Name$[ebp]
  00033	03 45 fc	 add	 eax, DWORD PTR _i$[ebp]
  00036	0f be 00	 movsx	 eax, BYTE PTR [eax]
  00039	83 f8 2f	 cmp	 eax, 47			; 0000002fH
  0003c	75 09		 jne	 SHORT $LN8@GetOnlyPat
$LN9@GetOnlyPat:

; 214  : 		{
; 215  : 			++i;

  0003e	8b 45 fc	 mov	 eax, DWORD PTR _i$[ebp]
  00041	40		 inc	 eax
  00042	89 45 fc	 mov	 DWORD PTR _i$[ebp], eax

; 216  : 			break;

  00045	eb 02		 jmp	 SHORT $LN3@GetOnlyPat
$LN8@GetOnlyPat:

; 217  : 		}
; 218  : 	}

  00047	eb cc		 jmp	 SHORT $LN2@GetOnlyPat
$LN3@GetOnlyPat:

; 219  : 
; 220  : 	if (i == -1)

  00049	83 7d fc ff	 cmp	 DWORD PTR _i$[ebp], -1
  0004d	75 04		 jne	 SHORT $LN10@GetOnlyPat

; 221  : 		i = 0;

  0004f	83 65 fc 00	 and	 DWORD PTR _i$[ebp], 0
$LN10@GetOnlyPat:

; 222  : 
; 223  : 	OnlyPathName.reserve(strlen(sz_Name));

  00053	ff 75 08	 push	 DWORD PTR _sz_Name$[ebp]
  00056	e8 00 00 00 00	 call	 _strlen
  0005b	59		 pop	 ecx
  0005c	50		 push	 eax
  0005d	8b 4d 0c	 mov	 ecx, DWORD PTR _OnlyPathName$[ebp]
  00060	e8 00 00 00 00	 call	 ?reserve@?$basic_string@DU?$char_traits@D@std@@V?$allocator@D@2@@std@@QAEXI@Z ; std::basic_string<char,std::char_traits<char>,std::allocator<char> >::reserve
; File C:\Program Files (x86)\Microsoft Visual Studio\2019\Community\VC\Tools\MSVC\14.28.29333\include\xstring

; 389  :         return _CSTD strlen(reinterpret_cast<const char*>(_First));

  00065	68 00 00 00 00	 push	 OFFSET ??_C@_00CNPNBAHC@@
  0006a	e8 00 00 00 00	 call	 _strlen
  0006f	59		 pop	 ecx
  00070	89 45 f4	 mov	 DWORD PTR $T4[ebp], eax
; File C:\Program Files (x86)\Microsoft Visual Studio\2019\Community\VC\Tools\MSVC\14.28.29333\include\xmemory

; 997  :     return _Len;

  00073	8b 45 f4	 mov	 eax, DWORD PTR $T4[ebp]
  00076	89 45 f0	 mov	 DWORD PTR $T3[ebp], eax
; File C:\Program Files (x86)\Microsoft Visual Studio\2019\Community\VC\Tools\MSVC\14.28.29333\include\xstring

; 3062 :         return assign(_Ptr, _Convert_size<size_type>(_Traits::length(_Ptr)));

  00079	ff 75 f0	 push	 DWORD PTR $T3[ebp]
  0007c	68 00 00 00 00	 push	 OFFSET ??_C@_00CNPNBAHC@@
  00081	8b 4d 0c	 mov	 ecx, DWORD PTR _OnlyPathName$[ebp]
  00084	e8 00 00 00 00	 call	 ?assign@?$basic_string@DU?$char_traits@D@std@@V?$allocator@D@2@@std@@QAEAAV12@QBDI@Z ; std::basic_string<char,std::char_traits<char>,std::allocator<char> >::assign
; File D:\Metin2 Server Files\mainline\SRC_2014\Metin2Client\EterBase\Utils.cpp

; 226  : 	for (int j=0; j<i; ++j)

  00089	83 65 f8 00	 and	 DWORD PTR _j$5[ebp], 0
  0008d	eb 07		 jmp	 SHORT $LN7@GetOnlyPat
$LN5@GetOnlyPat:
  0008f	8b 45 f8	 mov	 eax, DWORD PTR _j$5[ebp]
  00092	40		 inc	 eax
  00093	89 45 f8	 mov	 DWORD PTR _j$5[ebp], eax
$LN7@GetOnlyPat:
  00096	8b 45 f8	 mov	 eax, DWORD PTR _j$5[ebp]
  00099	3b 45 fc	 cmp	 eax, DWORD PTR _i$[ebp]
  0009c	7d 18		 jge	 SHORT $LN6@GetOnlyPat

; 227  : 	{
; 228  : 		OnlyPathName += sz_Name[j];

  0009e	8b 45 08	 mov	 eax, DWORD PTR _sz_Name$[ebp]
  000a1	03 45 f8	 add	 eax, DWORD PTR _j$5[ebp]
  000a4	8a 00		 mov	 al, BYTE PTR [eax]
  000a6	88 45 ec	 mov	 BYTE PTR __Ch$[ebp], al
; File C:\Program Files (x86)\Microsoft Visual Studio\2019\Community\VC\Tools\MSVC\14.28.29333\include\xstring

; 2905 :         push_back(_Ch);

  000a9	ff 75 ec	 push	 DWORD PTR __Ch$[ebp]
  000ac	8b 4d 0c	 mov	 ecx, DWORD PTR _OnlyPathName$[ebp]
  000af	e8 00 00 00 00	 call	 ?push_back@?$basic_string@DU?$char_traits@D@std@@V?$allocator@D@2@@std@@QAEXD@Z ; std::basic_string<char,std::char_traits<char>,std::allocator<char> >::push_back
; File D:\Metin2 Server Files\mainline\SRC_2014\Metin2Client\EterBase\Utils.cpp

; 229  : 	}

  000b4	eb d9		 jmp	 SHORT $LN5@GetOnlyPat
$LN6@GetOnlyPat:
; File C:\Program Files (x86)\Microsoft Visual Studio\2019\Community\VC\Tools\MSVC\14.28.29333\include\xstring

; 389  :         return _CSTD strlen(reinterpret_cast<const char*>(_First));

  000b6	68 00 00 00 00	 push	 OFFSET ??_C@_01LOCGONAA@?$AA@
  000bb	e8 00 00 00 00	 call	 _strlen
  000c0	59		 pop	 ecx
  000c1	89 45 e8	 mov	 DWORD PTR $T2[ebp], eax
; File C:\Program Files (x86)\Microsoft Visual Studio\2019\Community\VC\Tools\MSVC\14.28.29333\include\xmemory

; 997  :     return _Len;

  000c4	8b 45 e8	 mov	 eax, DWORD PTR $T2[ebp]
  000c7	89 45 e4	 mov	 DWORD PTR $T1[ebp], eax
; File C:\Program Files (x86)\Microsoft Visual Studio\2019\Community\VC\Tools\MSVC\14.28.29333\include\xstring

; 2958 :         return append(_Ptr, _Convert_size<size_type>(_Traits::length(_Ptr)));

  000ca	ff 75 e4	 push	 DWORD PTR $T1[ebp]
  000cd	68 00 00 00 00	 push	 OFFSET ??_C@_01LOCGONAA@?$AA@
  000d2	8b 4d 0c	 mov	 ecx, DWORD PTR _OnlyPathName$[ebp]
  000d5	e8 00 00 00 00	 call	 ?append@?$basic_string@DU?$char_traits@D@std@@V?$allocator@D@2@@std@@QAEAAV12@QBDI@Z ; std::basic_string<char,std::char_traits<char>,std::allocator<char> >::append
; File D:\Metin2 Server Files\mainline\SRC_2014\Metin2Client\EterBase\Utils.cpp

; 231  : }

  000da	c9		 leave
  000db	c3		 ret	 0
?GetOnlyPathName@@YAXPBDAAV?$basic_string@DU?$char_traits@D@std@@V?$allocator@D@2@@std@@@Z ENDP ; GetOnlyPathName
_TEXT	ENDS
; Function compile flags: /Odspy
; File D:\Metin2 Server Files\mainline\SRC_2014\Metin2Client\EterBase\Utils.cpp
; File C:\Program Files (x86)\Microsoft Visual Studio\2019\Community\VC\Tools\MSVC\14.28.29333\include\xstring
; File C:\Program Files (x86)\Microsoft Visual Studio\2019\Community\VC\Tools\MSVC\14.28.29333\include\xmemory
; File C:\Program Files (x86)\Microsoft Visual Studio\2019\Community\VC\Tools\MSVC\14.28.29333\include\xstring
; File D:\Metin2 Server Files\mainline\SRC_2014\Metin2Client\EterBase\Utils.cpp
; File C:\Program Files (x86)\Microsoft Visual Studio\2019\Community\VC\Tools\MSVC\14.28.29333\include\xstring
; File D:\Metin2 Server Files\mainline\SRC_2014\Metin2Client\EterBase\Utils.cpp
; File C:\Program Files (x86)\Microsoft Visual Studio\2019\Community\VC\Tools\MSVC\14.28.29333\include\xstring
; File C:\Program Files (x86)\Microsoft Visual Studio\2019\Community\VC\Tools\MSVC\14.28.29333\include\xmemory
; File C:\Program Files (x86)\Microsoft Visual Studio\2019\Community\VC\Tools\MSVC\14.28.29333\include\xstring
; File D:\Metin2 Server Files\mainline\SRC_2014\Metin2Client\EterBase\Utils.cpp
;	COMDAT ?GetOnlyFileName@@YAXPBDAAV?$basic_string@DU?$char_traits@D@std@@V?$allocator@D@2@@std@@@Z
_TEXT	SEGMENT
$T1 = -28						; size = 4
$T2 = -24						; size = 4
__Ch$ = -20						; size = 1
$T3 = -16						; size = 4
$T4 = -12						; size = 4
_j$5 = -8						; size = 4
_i$ = -4						; size = 4
_sz_Name$ = 8						; size = 4
_strFileName$ = 12					; size = 4
?GetOnlyFileName@@YAXPBDAAV?$basic_string@DU?$char_traits@D@std@@V?$allocator@D@2@@std@@@Z PROC ; GetOnlyFileName, COMDAT

; 179  : {

  00000	55		 push	 ebp
  00001	8b ec		 mov	 ebp, esp
  00003	83 ec 1c	 sub	 esp, 28			; 0000001cH
; File C:\Program Files (x86)\Microsoft Visual Studio\2019\Community\VC\Tools\MSVC\14.28.29333\include\xstring

; 389  :         return _CSTD strlen(reinterpret_cast<const char*>(_First));

  00006	68 00 00 00 00	 push	 OFFSET ??_C@_00CNPNBAHC@@
  0000b	e8 00 00 00 00	 call	 _strlen
  00010	59		 pop	 ecx
  00011	89 45 f4	 mov	 DWORD PTR $T4[ebp], eax
; File C:\Program Files (x86)\Microsoft Visual Studio\2019\Community\VC\Tools\MSVC\14.28.29333\include\xmemory

; 997  :     return _Len;

  00014	8b 45 f4	 mov	 eax, DWORD PTR $T4[ebp]
  00017	89 45 f0	 mov	 DWORD PTR $T3[ebp], eax
; File C:\Program Files (x86)\Microsoft Visual Studio\2019\Community\VC\Tools\MSVC\14.28.29333\include\xstring

; 3062 :         return assign(_Ptr, _Convert_size<size_type>(_Traits::length(_Ptr)));

  0001a	ff 75 f0	 push	 DWORD PTR $T3[ebp]
  0001d	68 00 00 00 00	 push	 OFFSET ??_C@_00CNPNBAHC@@
  00022	8b 4d 0c	 mov	 ecx, DWORD PTR _strFileName$[ebp]
  00025	e8 00 00 00 00	 call	 ?assign@?$basic_string@DU?$char_traits@D@std@@V?$allocator@D@2@@std@@QAEAAV12@QBDI@Z ; std::basic_string<char,std::char_traits<char>,std::allocator<char> >::assign
; File D:\Metin2 Server Files\mainline\SRC_2014\Metin2Client\EterBase\Utils.cpp

; 183  : 	for (i=strlen(sz_Name)-1; i>=0; --i)

  0002a	ff 75 08	 push	 DWORD PTR _sz_Name$[ebp]
  0002d	e8 00 00 00 00	 call	 _strlen
  00032	59		 pop	 ecx
  00033	48		 dec	 eax
  00034	89 45 fc	 mov	 DWORD PTR _i$[ebp], eax
  00037	eb 07		 jmp	 SHORT $LN4@GetOnlyFil
$LN2@GetOnlyFil:
  00039	8b 45 fc	 mov	 eax, DWORD PTR _i$[ebp]
  0003c	48		 dec	 eax
  0003d	89 45 fc	 mov	 DWORD PTR _i$[ebp], eax
$LN4@GetOnlyFil:
  00040	83 7d fc 00	 cmp	 DWORD PTR _i$[ebp], 0
  00044	7c 27		 jl	 SHORT $LN3@GetOnlyFil

; 184  : 	{
; 185  : 		if ('\\' == sz_Name[i] || '/' == sz_Name[i])

  00046	8b 45 08	 mov	 eax, DWORD PTR _sz_Name$[ebp]
  00049	03 45 fc	 add	 eax, DWORD PTR _i$[ebp]
  0004c	0f be 00	 movsx	 eax, BYTE PTR [eax]
  0004f	83 f8 5c	 cmp	 eax, 92			; 0000005cH
  00052	74 0e		 je	 SHORT $LN9@GetOnlyFil
  00054	8b 45 08	 mov	 eax, DWORD PTR _sz_Name$[ebp]
  00057	03 45 fc	 add	 eax, DWORD PTR _i$[ebp]
  0005a	0f be 00	 movsx	 eax, BYTE PTR [eax]
  0005d	83 f8 2f	 cmp	 eax, 47			; 0000002fH
  00060	75 09		 jne	 SHORT $LN8@GetOnlyFil
$LN9@GetOnlyFil:

; 186  : 		{
; 187  : 			++i;

  00062	8b 45 fc	 mov	 eax, DWORD PTR _i$[ebp]
  00065	40		 inc	 eax
  00066	89 45 fc	 mov	 DWORD PTR _i$[ebp], eax

; 188  : 			break;

  00069	eb 02		 jmp	 SHORT $LN3@GetOnlyFil
$LN8@GetOnlyFil:

; 189  : 		}
; 190  : 	}

  0006b	eb cc		 jmp	 SHORT $LN2@GetOnlyFil
$LN3@GetOnlyFil:

; 191  : 	
; 192  : 	if (i == -1)

  0006d	83 7d fc ff	 cmp	 DWORD PTR _i$[ebp], -1
  00071	75 04		 jne	 SHORT $LN10@GetOnlyFil

; 193  : 		i = 0;

  00073	83 65 fc 00	 and	 DWORD PTR _i$[ebp], 0
$LN10@GetOnlyFil:

; 194  : 
; 195  : 	for (size_t j = i; j < strlen(sz_Name); ++j)

  00077	8b 45 fc	 mov	 eax, DWORD PTR _i$[ebp]
  0007a	89 45 f8	 mov	 DWORD PTR _j$5[ebp], eax
  0007d	eb 07		 jmp	 SHORT $LN7@GetOnlyFil
$LN5@GetOnlyFil:
  0007f	8b 45 f8	 mov	 eax, DWORD PTR _j$5[ebp]
  00082	40		 inc	 eax
  00083	89 45 f8	 mov	 DWORD PTR _j$5[ebp], eax
$LN7@GetOnlyFil:
  00086	ff 75 08	 push	 DWORD PTR _sz_Name$[ebp]
  00089	e8 00 00 00 00	 call	 _strlen
  0008e	59		 pop	 ecx
  0008f	39 45 f8	 cmp	 DWORD PTR _j$5[ebp], eax
  00092	73 18		 jae	 SHORT $LN6@GetOnlyFil

; 196  : 	{
; 197  : 		strFileName += sz_Name[j];

  00094	8b 45 08	 mov	 eax, DWORD PTR _sz_Name$[ebp]
  00097	03 45 f8	 add	 eax, DWORD PTR _j$5[ebp]
  0009a	8a 00		 mov	 al, BYTE PTR [eax]
  0009c	88 45 ec	 mov	 BYTE PTR __Ch$[ebp], al
; File C:\Program Files (x86)\Microsoft Visual Studio\2019\Community\VC\Tools\MSVC\14.28.29333\include\xstring

; 2905 :         push_back(_Ch);

  0009f	ff 75 ec	 push	 DWORD PTR __Ch$[ebp]
  000a2	8b 4d 0c	 mov	 ecx, DWORD PTR _strFileName$[ebp]
  000a5	e8 00 00 00 00	 call	 ?push_back@?$basic_string@DU?$char_traits@D@std@@V?$allocator@D@2@@std@@QAEXD@Z ; std::basic_string<char,std::char_traits<char>,std::allocator<char> >::push_back
; File D:\Metin2 Server Files\mainline\SRC_2014\Metin2Client\EterBase\Utils.cpp

; 198  : 	}

  000aa	eb d3		 jmp	 SHORT $LN5@GetOnlyFil
$LN6@GetOnlyFil:
; File C:\Program Files (x86)\Microsoft Visual Studio\2019\Community\VC\Tools\MSVC\14.28.29333\include\xstring

; 389  :         return _CSTD strlen(reinterpret_cast<const char*>(_First));

  000ac	68 00 00 00 00	 push	 OFFSET ??_C@_01LOCGONAA@?$AA@
  000b1	e8 00 00 00 00	 call	 _strlen
  000b6	59		 pop	 ecx
  000b7	89 45 e8	 mov	 DWORD PTR $T2[ebp], eax
; File C:\Program Files (x86)\Microsoft Visual Studio\2019\Community\VC\Tools\MSVC\14.28.29333\include\xmemory

; 997  :     return _Len;

  000ba	8b 45 e8	 mov	 eax, DWORD PTR $T2[ebp]
  000bd	89 45 e4	 mov	 DWORD PTR $T1[ebp], eax
; File C:\Program Files (x86)\Microsoft Visual Studio\2019\Community\VC\Tools\MSVC\14.28.29333\include\xstring

; 2958 :         return append(_Ptr, _Convert_size<size_type>(_Traits::length(_Ptr)));

  000c0	ff 75 e4	 push	 DWORD PTR $T1[ebp]
  000c3	68 00 00 00 00	 push	 OFFSET ??_C@_01LOCGONAA@?$AA@
  000c8	8b 4d 0c	 mov	 ecx, DWORD PTR _strFileName$[ebp]
  000cb	e8 00 00 00 00	 call	 ?append@?$basic_string@DU?$char_traits@D@std@@V?$allocator@D@2@@std@@QAEAAV12@QBDI@Z ; std::basic_string<char,std::char_traits<char>,std::allocator<char> >::append
; File D:\Metin2 Server Files\mainline\SRC_2014\Metin2Client\EterBase\Utils.cpp

; 201  : }

  000d0	c9		 leave
  000d1	c3		 ret	 0
?GetOnlyFileName@@YAXPBDAAV?$basic_string@DU?$char_traits@D@std@@V?$allocator@D@2@@std@@@Z ENDP ; GetOnlyFileName
_TEXT	ENDS
; Function compile flags: /Odspy
; File D:\Metin2 Server Files\mainline\SRC_2014\Metin2Client\EterBase\Utils.cpp
;	COMDAT ?GetIndexingName@@YAXPADK@Z
_TEXT	SEGMENT
_szName$ = 8						; size = 4
_Index$ = 12						; size = 4
?GetIndexingName@@YAXPADK@Z PROC			; GetIndexingName, COMDAT

; 174  : {

  00000	55		 push	 ebp
  00001	8b ec		 mov	 ebp, esp

; 175  : 	sprintf(szName + strlen(szName), "%u", Index);

  00003	ff 75 0c	 push	 DWORD PTR _Index$[ebp]
  00006	68 00 00 00 00	 push	 OFFSET ??_C@_02GMHACPFF@?$CFu@
  0000b	ff 75 08	 push	 DWORD PTR _szName$[ebp]
  0000e	e8 00 00 00 00	 call	 _strlen
  00013	59		 pop	 ecx
  00014	03 45 08	 add	 eax, DWORD PTR _szName$[ebp]
  00017	50		 push	 eax
  00018	e8 00 00 00 00	 call	 _sprintf
  0001d	83 c4 0c	 add	 esp, 12			; 0000000cH

; 176  : }

  00020	5d		 pop	 ebp
  00021	c3		 ret	 0
?GetIndexingName@@YAXPADK@Z ENDP			; GetIndexingName
_TEXT	ENDS
; Function compile flags: /Odspy
; File D:\Metin2 Server Files\mainline\SRC_2014\Metin2Client\EterBase\Utils.cpp
;	COMDAT ?GetOldIndexingName@@YAXPADH@Z
_TEXT	SEGMENT
_sign$ = -128						; size = 4
_dec$ = -124						; size = 4
$T1 = -120						; size = 4
_Temp$ = -116						; size = 512
__$ArrayPad$ = 396					; size = 4
_szName$ = 408						; size = 4
_Index$ = 412						; size = 4
?GetOldIndexingName@@YAXPADH@Z PROC			; GetOldIndexingName, COMDAT

; 163  : {

  00000	55		 push	 ebp
  00001	8d ac 24 70 fe
	ff ff		 lea	 ebp, DWORD PTR [esp-400]
  00008	81 ec 10 02 00
	00		 sub	 esp, 528		; 00000210H
  0000e	a1 00 00 00 00	 mov	 eax, DWORD PTR ___security_cookie
  00013	33 c5		 xor	 eax, ebp
  00015	89 85 8c 01 00
	00		 mov	 DWORD PTR __$ArrayPad$[ebp], eax

; 164  : 	int dec, sign;
; 165  : 	char Temp[512];
; 166  : 	
; 167  : 	strcpy(Temp, _ecvt(Index, 256, &dec, &sign));

  0001b	8d 45 80	 lea	 eax, DWORD PTR _sign$[ebp]
  0001e	50		 push	 eax
  0001f	8d 45 84	 lea	 eax, DWORD PTR _dec$[ebp]
  00022	50		 push	 eax
  00023	68 00 01 00 00	 push	 256			; 00000100H
  00028	f2 0f 2a 85 9c
	01 00 00	 cvtsi2sd xmm0, DWORD PTR _Index$[ebp]
  00030	51		 push	 ecx
  00031	51		 push	 ecx
  00032	f2 0f 11 04 24	 movsd	 QWORD PTR [esp], xmm0
  00037	e8 00 00 00 00	 call	 __ecvt
  0003c	83 c4 14	 add	 esp, 20			; 00000014H
  0003f	50		 push	 eax
  00040	8d 45 8c	 lea	 eax, DWORD PTR _Temp$[ebp]
  00043	50		 push	 eax
  00044	e8 00 00 00 00	 call	 _strcpy
  00049	59		 pop	 ecx
  0004a	59		 pop	 ecx

; 168  : 	Temp[dec] = '\0';

  0004b	8b 45 84	 mov	 eax, DWORD PTR _dec$[ebp]
  0004e	89 45 88	 mov	 DWORD PTR $T1[ebp], eax
  00051	81 7d 88 00 02
	00 00		 cmp	 DWORD PTR $T1[ebp], 512	; 00000200H
  00058	73 02		 jae	 SHORT $LN3@GetOldInde
  0005a	eb 05		 jmp	 SHORT $LN4@GetOldInde
$LN3@GetOldInde:
  0005c	e8 00 00 00 00	 call	 ___report_rangecheckfailure
$LN4@GetOldInde:
  00061	8b 45 88	 mov	 eax, DWORD PTR $T1[ebp]
  00064	c6 44 05 8c 00	 mov	 BYTE PTR _Temp$[ebp+eax], 0

; 169  : 	
; 170  : 	strcat(szName, Temp);

  00069	8d 45 8c	 lea	 eax, DWORD PTR _Temp$[ebp]
  0006c	50		 push	 eax
  0006d	ff b5 98 01 00
	00		 push	 DWORD PTR _szName$[ebp]
  00073	e8 00 00 00 00	 call	 _strcat
  00078	59		 pop	 ecx
  00079	59		 pop	 ecx
$LN1@GetOldInde:

; 171  : }

  0007a	8b 8d 8c 01 00
	00		 mov	 ecx, DWORD PTR __$ArrayPad$[ebp]
  00080	33 cd		 xor	 ecx, ebp
  00082	e8 00 00 00 00	 call	 @__security_check_cookie@4
  00087	81 c5 90 01 00
	00		 add	 ebp, 400		; 00000190H
  0008d	c9		 leave
  0008e	c3		 ret	 0
?GetOldIndexingName@@YAXPADH@Z ENDP			; GetOldIndexingName
_TEXT	ENDS
; Function compile flags: /Odspy
; File D:\Metin2 Server Files\mainline\SRC_2014\Metin2Client\EterBase\Utils.cpp
;	COMDAT ?GetFileNameParts@@YAXPBDHPAD11@Z
_TEXT	SEGMENT
_count$1 = -32						; size = 4
_i$2 = -28						; size = 4
_count$3 = -24						; size = 4
_i$4 = -20						; size = 4
_i$5 = -16						; size = 4
_ext$ = -12						; size = 4
_pos$ = -8						; size = 4
_c$6 = -2						; size = 1
_c$7 = -1						; size = 1
_c_szFile$ = 8						; size = 4
_len$ = 12						; size = 4
_pszPath$ = 16						; size = 4
_pszName$ = 20						; size = 4
_pszExt$ = 24						; size = 4
?GetFileNameParts@@YAXPBDHPAD11@Z PROC			; GetFileNameParts, COMDAT

; 100  : {

  00000	55		 push	 ebp
  00001	8b ec		 mov	 ebp, esp
  00003	83 ec 20	 sub	 esp, 32			; 00000020H

; 101  : 	assert(pszPath!=NULL);
; 102  : 	assert(pszName!=NULL);
; 103  : 	assert(pszExt!=NULL);
; 104  : 
; 105  : 	int ext=len;

  00006	8b 45 0c	 mov	 eax, DWORD PTR _len$[ebp]
  00009	89 45 f4	 mov	 DWORD PTR _ext$[ebp], eax

; 106  : 	int pos=len;

  0000c	8b 45 0c	 mov	 eax, DWORD PTR _len$[ebp]
  0000f	89 45 f8	 mov	 DWORD PTR _pos$[ebp], eax
$LN2@GetFileNam:

; 107  : 	while (pos>0)

  00012	83 7d f8 00	 cmp	 DWORD PTR _pos$[ebp], 0
  00016	7e 45		 jle	 SHORT $LN4@GetFileNam

; 108  : 	{
; 109  : 		--pos;

  00018	8b 45 f8	 mov	 eax, DWORD PTR _pos$[ebp]
  0001b	48		 dec	 eax
  0001c	89 45 f8	 mov	 DWORD PTR _pos$[ebp], eax

; 110  : 		char c=c_szFile[pos];

  0001f	8b 45 08	 mov	 eax, DWORD PTR _c_szFile$[ebp]
  00022	03 45 f8	 add	 eax, DWORD PTR _pos$[ebp]
  00025	8a 00		 mov	 al, BYTE PTR [eax]
  00027	88 45 ff	 mov	 BYTE PTR _c$7[ebp], al

; 111  : 		if (ext==len && c=='.') 

  0002a	8b 45 f4	 mov	 eax, DWORD PTR _ext$[ebp]
  0002d	3b 45 0c	 cmp	 eax, DWORD PTR _len$[ebp]
  00030	75 11		 jne	 SHORT $LN15@GetFileNam
  00032	0f be 45 ff	 movsx	 eax, BYTE PTR _c$7[ebp]
  00036	83 f8 2e	 cmp	 eax, 46			; 0000002eH
  00039	75 08		 jne	 SHORT $LN15@GetFileNam

; 112  : 		{
; 113  : 			ext=pos;			

  0003b	8b 45 f8	 mov	 eax, DWORD PTR _pos$[ebp]
  0003e	89 45 f4	 mov	 DWORD PTR _ext$[ebp], eax

; 114  : 			break;

  00041	eb 1a		 jmp	 SHORT $LN4@GetFileNam
$LN15@GetFileNam:

; 115  : 		}
; 116  : 
; 117  : 		if (c=='/') break;

  00043	0f be 45 ff	 movsx	 eax, BYTE PTR _c$7[ebp]
  00047	83 f8 2f	 cmp	 eax, 47			; 0000002fH
  0004a	75 04		 jne	 SHORT $LN16@GetFileNam
  0004c	eb 0f		 jmp	 SHORT $LN4@GetFileNam
  0004e	eb 0b		 jmp	 SHORT $LN17@GetFileNam
$LN16@GetFileNam:

; 118  : 		else if (c=='\\') break;

  00050	0f be 45 ff	 movsx	 eax, BYTE PTR _c$7[ebp]
  00054	83 f8 5c	 cmp	 eax, 92			; 0000005cH
  00057	75 02		 jne	 SHORT $LN17@GetFileNam
  00059	eb 02		 jmp	 SHORT $LN4@GetFileNam
$LN17@GetFileNam:

; 119  : 	}

  0005b	eb b5		 jmp	 SHORT $LN2@GetFileNam
$LN4@GetFileNam:

; 120  : 
; 121  : 	while (pos>0)

  0005d	83 7d f8 00	 cmp	 DWORD PTR _pos$[ebp], 0
  00061	7e 2c		 jle	 SHORT $LN5@GetFileNam

; 122  : 	{
; 123  : 		--pos;

  00063	8b 45 f8	 mov	 eax, DWORD PTR _pos$[ebp]
  00066	48		 dec	 eax
  00067	89 45 f8	 mov	 DWORD PTR _pos$[ebp], eax

; 124  : 		char c=c_szFile[pos];

  0006a	8b 45 08	 mov	 eax, DWORD PTR _c_szFile$[ebp]
  0006d	03 45 f8	 add	 eax, DWORD PTR _pos$[ebp]
  00070	8a 00		 mov	 al, BYTE PTR [eax]
  00072	88 45 fe	 mov	 BYTE PTR _c$6[ebp], al

; 125  : 
; 126  : 		if (c=='/') break;

  00075	0f be 45 fe	 movsx	 eax, BYTE PTR _c$6[ebp]
  00079	83 f8 2f	 cmp	 eax, 47			; 0000002fH
  0007c	75 04		 jne	 SHORT $LN19@GetFileNam
  0007e	eb 0f		 jmp	 SHORT $LN5@GetFileNam
  00080	eb 0b		 jmp	 SHORT $LN20@GetFileNam
$LN19@GetFileNam:

; 127  : 		else if (c=='\\') break;

  00082	0f be 45 fe	 movsx	 eax, BYTE PTR _c$6[ebp]
  00086	83 f8 5c	 cmp	 eax, 92			; 0000005cH
  00089	75 02		 jne	 SHORT $LN20@GetFileNam
  0008b	eb 02		 jmp	 SHORT $LN5@GetFileNam
$LN20@GetFileNam:

; 128  : 	}

  0008d	eb ce		 jmp	 SHORT $LN4@GetFileNam
$LN5@GetFileNam:

; 129  : 
; 130  : 	if (pos) 

  0008f	83 7d f8 00	 cmp	 DWORD PTR _pos$[ebp], 0
  00093	74 37		 je	 SHORT $LN22@GetFileNam

; 131  : 	{
; 132  : 		++pos;

  00095	8b 45 f8	 mov	 eax, DWORD PTR _pos$[ebp]
  00098	40		 inc	 eax
  00099	89 45 f8	 mov	 DWORD PTR _pos$[ebp], eax

; 133  : 		for (int i = 0; i < pos; ++i)

  0009c	83 65 f0 00	 and	 DWORD PTR _i$5[ebp], 0
  000a0	eb 07		 jmp	 SHORT $LN8@GetFileNam
$LN6@GetFileNam:
  000a2	8b 45 f0	 mov	 eax, DWORD PTR _i$5[ebp]
  000a5	40		 inc	 eax
  000a6	89 45 f0	 mov	 DWORD PTR _i$5[ebp], eax
$LN8@GetFileNam:
  000a9	8b 45 f0	 mov	 eax, DWORD PTR _i$5[ebp]
  000ac	3b 45 f8	 cmp	 eax, DWORD PTR _pos$[ebp]
  000af	7d 12		 jge	 SHORT $LN7@GetFileNam

; 134  : 		{
; 135  : 			pszPath[i] = c_szFile[i];

  000b1	8b 45 10	 mov	 eax, DWORD PTR _pszPath$[ebp]
  000b4	03 45 f0	 add	 eax, DWORD PTR _i$5[ebp]
  000b7	8b 4d 08	 mov	 ecx, DWORD PTR _c_szFile$[ebp]
  000ba	03 4d f0	 add	 ecx, DWORD PTR _i$5[ebp]
  000bd	8a 09		 mov	 cl, BYTE PTR [ecx]
  000bf	88 08		 mov	 BYTE PTR [eax], cl

; 136  : 		}

  000c1	eb df		 jmp	 SHORT $LN6@GetFileNam
$LN7@GetFileNam:

; 137  : 		pszPath[pos] = '\0';

  000c3	8b 45 10	 mov	 eax, DWORD PTR _pszPath$[ebp]
  000c6	03 45 f8	 add	 eax, DWORD PTR _pos$[ebp]
  000c9	c6 00 00	 mov	 BYTE PTR [eax], 0
$LN22@GetFileNam:

; 138  : 	}
; 139  : 
; 140  : 	if (ext>pos)

  000cc	8b 45 f4	 mov	 eax, DWORD PTR _ext$[ebp]
  000cf	3b 45 f8	 cmp	 eax, DWORD PTR _pos$[ebp]
  000d2	7e 3d		 jle	 SHORT $LN23@GetFileNam

; 141  : 	{
; 142  : 		int count = 0;

  000d4	83 65 e8 00	 and	 DWORD PTR _count$3[ebp], 0

; 143  : 		for (int i = pos; i < ext; ++i)

  000d8	8b 45 f8	 mov	 eax, DWORD PTR _pos$[ebp]
  000db	89 45 ec	 mov	 DWORD PTR _i$4[ebp], eax
  000de	eb 07		 jmp	 SHORT $LN11@GetFileNam
$LN9@GetFileNam:
  000e0	8b 45 ec	 mov	 eax, DWORD PTR _i$4[ebp]
  000e3	40		 inc	 eax
  000e4	89 45 ec	 mov	 DWORD PTR _i$4[ebp], eax
$LN11@GetFileNam:
  000e7	8b 45 ec	 mov	 eax, DWORD PTR _i$4[ebp]
  000ea	3b 45 f4	 cmp	 eax, DWORD PTR _ext$[ebp]
  000ed	7d 19		 jge	 SHORT $LN10@GetFileNam

; 144  : 		{
; 145  : 			pszName[count++] = c_szFile[i];

  000ef	8b 45 14	 mov	 eax, DWORD PTR _pszName$[ebp]
  000f2	03 45 e8	 add	 eax, DWORD PTR _count$3[ebp]
  000f5	8b 4d 08	 mov	 ecx, DWORD PTR _c_szFile$[ebp]
  000f8	03 4d ec	 add	 ecx, DWORD PTR _i$4[ebp]
  000fb	8a 09		 mov	 cl, BYTE PTR [ecx]
  000fd	88 08		 mov	 BYTE PTR [eax], cl
  000ff	8b 45 e8	 mov	 eax, DWORD PTR _count$3[ebp]
  00102	40		 inc	 eax
  00103	89 45 e8	 mov	 DWORD PTR _count$3[ebp], eax

; 146  : 		}

  00106	eb d8		 jmp	 SHORT $LN9@GetFileNam
$LN10@GetFileNam:

; 147  : 		pszName[count] = '\0';

  00108	8b 45 14	 mov	 eax, DWORD PTR _pszName$[ebp]
  0010b	03 45 e8	 add	 eax, DWORD PTR _count$3[ebp]
  0010e	c6 00 00	 mov	 BYTE PTR [eax], 0
$LN23@GetFileNam:

; 148  : 	}
; 149  : 
; 150  : 	++ext;		

  00111	8b 45 f4	 mov	 eax, DWORD PTR _ext$[ebp]
  00114	40		 inc	 eax
  00115	89 45 f4	 mov	 DWORD PTR _ext$[ebp], eax

; 151  : 	if (len > ext)

  00118	8b 45 0c	 mov	 eax, DWORD PTR _len$[ebp]
  0011b	3b 45 f4	 cmp	 eax, DWORD PTR _ext$[ebp]
  0011e	7e 3d		 jle	 SHORT $LN1@GetFileNam

; 152  : 	{
; 153  : 		int count = 0;

  00120	83 65 e0 00	 and	 DWORD PTR _count$1[ebp], 0

; 154  : 		for (int i = ext; i < len; ++i)

  00124	8b 45 f4	 mov	 eax, DWORD PTR _ext$[ebp]
  00127	89 45 e4	 mov	 DWORD PTR _i$2[ebp], eax
  0012a	eb 07		 jmp	 SHORT $LN14@GetFileNam
$LN12@GetFileNam:
  0012c	8b 45 e4	 mov	 eax, DWORD PTR _i$2[ebp]
  0012f	40		 inc	 eax
  00130	89 45 e4	 mov	 DWORD PTR _i$2[ebp], eax
$LN14@GetFileNam:
  00133	8b 45 e4	 mov	 eax, DWORD PTR _i$2[ebp]
  00136	3b 45 0c	 cmp	 eax, DWORD PTR _len$[ebp]
  00139	7d 19		 jge	 SHORT $LN13@GetFileNam

; 155  : 		{
; 156  : 			pszExt[count++] = c_szFile[i];

  0013b	8b 45 18	 mov	 eax, DWORD PTR _pszExt$[ebp]
  0013e	03 45 e0	 add	 eax, DWORD PTR _count$1[ebp]
  00141	8b 4d 08	 mov	 ecx, DWORD PTR _c_szFile$[ebp]
  00144	03 4d e4	 add	 ecx, DWORD PTR _i$2[ebp]
  00147	8a 09		 mov	 cl, BYTE PTR [ecx]
  00149	88 08		 mov	 BYTE PTR [eax], cl
  0014b	8b 45 e0	 mov	 eax, DWORD PTR _count$1[ebp]
  0014e	40		 inc	 eax
  0014f	89 45 e0	 mov	 DWORD PTR _count$1[ebp], eax

; 157  : 		}

  00152	eb d8		 jmp	 SHORT $LN12@GetFileNam
$LN13@GetFileNam:

; 158  : 		pszExt[count] = '\0';

  00154	8b 45 18	 mov	 eax, DWORD PTR _pszExt$[ebp]
  00157	03 45 e0	 add	 eax, DWORD PTR _count$1[ebp]
  0015a	c6 00 00	 mov	 BYTE PTR [eax], 0
$LN1@GetFileNam:

; 159  : 	}
; 160  : }

  0015d	c9		 leave
  0015e	c3		 ret	 0
?GetFileNameParts@@YAXPBDHPAD11@Z ENDP			; GetFileNameParts
_TEXT	ENDS
; Function compile flags: /Odspy
; File D:\Metin2 Server Files\mainline\SRC_2014\Metin2Client\EterBase\Utils.cpp
;	COMDAT ?GetFileExtension@@YAXPBDHPAV?$basic_string@DU?$char_traits@D@std@@V?$allocator@D@2@@std@@@Z
_TEXT	SEGMENT
_pos$ = -12						; size = 4
_ext$ = -8						; size = 4
_c$1 = -1						; size = 1
_c_szFile$ = 8						; size = 4
_len$ = 12						; size = 4
_pstExt$ = 16						; size = 4
?GetFileExtension@@YAXPBDHPAV?$basic_string@DU?$char_traits@D@std@@V?$allocator@D@2@@std@@@Z PROC ; GetFileExtension, COMDAT

; 77   : {

  00000	55		 push	 ebp
  00001	8b ec		 mov	 ebp, esp
  00003	83 ec 0c	 sub	 esp, 12			; 0000000cH

; 78   : 	int ext = len;

  00006	8b 45 0c	 mov	 eax, DWORD PTR _len$[ebp]
  00009	89 45 f8	 mov	 DWORD PTR _ext$[ebp], eax

; 79   : 	int pos = len;

  0000c	8b 45 0c	 mov	 eax, DWORD PTR _len$[ebp]
  0000f	89 45 f4	 mov	 DWORD PTR _pos$[ebp], eax
$LN2@GetFileExt:

; 80   : 	while (pos > 0)

  00012	83 7d f4 00	 cmp	 DWORD PTR _pos$[ebp], 0
  00016	7e 45		 jle	 SHORT $LN3@GetFileExt

; 81   : 	{
; 82   : 		--pos;

  00018	8b 45 f4	 mov	 eax, DWORD PTR _pos$[ebp]
  0001b	48		 dec	 eax
  0001c	89 45 f4	 mov	 DWORD PTR _pos$[ebp], eax

; 83   : 		char c=c_szFile[pos];

  0001f	8b 45 08	 mov	 eax, DWORD PTR _c_szFile$[ebp]
  00022	03 45 f4	 add	 eax, DWORD PTR _pos$[ebp]
  00025	8a 00		 mov	 al, BYTE PTR [eax]
  00027	88 45 ff	 mov	 BYTE PTR _c$1[ebp], al

; 84   : 		if (ext==len && c=='.') 

  0002a	8b 45 f8	 mov	 eax, DWORD PTR _ext$[ebp]
  0002d	3b 45 0c	 cmp	 eax, DWORD PTR _len$[ebp]
  00030	75 11		 jne	 SHORT $LN4@GetFileExt
  00032	0f be 45 ff	 movsx	 eax, BYTE PTR _c$1[ebp]
  00036	83 f8 2e	 cmp	 eax, 46			; 0000002eH
  00039	75 08		 jne	 SHORT $LN4@GetFileExt

; 85   : 		{
; 86   : 			ext=pos;			

  0003b	8b 45 f4	 mov	 eax, DWORD PTR _pos$[ebp]
  0003e	89 45 f8	 mov	 DWORD PTR _ext$[ebp], eax

; 87   : 			break;

  00041	eb 1a		 jmp	 SHORT $LN3@GetFileExt
$LN4@GetFileExt:

; 88   : 		}
; 89   : 
; 90   : 		if (c=='/') break;

  00043	0f be 45 ff	 movsx	 eax, BYTE PTR _c$1[ebp]
  00047	83 f8 2f	 cmp	 eax, 47			; 0000002fH
  0004a	75 04		 jne	 SHORT $LN5@GetFileExt
  0004c	eb 0f		 jmp	 SHORT $LN3@GetFileExt
  0004e	eb 0b		 jmp	 SHORT $LN6@GetFileExt
$LN5@GetFileExt:

; 91   : 		else if (c=='\\') break;

  00050	0f be 45 ff	 movsx	 eax, BYTE PTR _c$1[ebp]
  00054	83 f8 5c	 cmp	 eax, 92			; 0000005cH
  00057	75 02		 jne	 SHORT $LN6@GetFileExt
  00059	eb 02		 jmp	 SHORT $LN3@GetFileExt
$LN6@GetFileExt:

; 92   : 	}

  0005b	eb b5		 jmp	 SHORT $LN2@GetFileExt
$LN3@GetFileExt:

; 93   : 
; 94   : 	++ext;		

  0005d	8b 45 f8	 mov	 eax, DWORD PTR _ext$[ebp]
  00060	40		 inc	 eax
  00061	89 45 f8	 mov	 DWORD PTR _ext$[ebp], eax

; 95   : 	if (len>ext)

  00064	8b 45 0c	 mov	 eax, DWORD PTR _len$[ebp]
  00067	3b 45 f8	 cmp	 eax, DWORD PTR _ext$[ebp]
  0006a	7e 16		 jle	 SHORT $LN1@GetFileExt

; 96   : 		pstExt->append(c_szFile+ext, len-ext);

  0006c	8b 45 0c	 mov	 eax, DWORD PTR _len$[ebp]
  0006f	2b 45 f8	 sub	 eax, DWORD PTR _ext$[ebp]
  00072	50		 push	 eax
  00073	8b 45 08	 mov	 eax, DWORD PTR _c_szFile$[ebp]
  00076	03 45 f8	 add	 eax, DWORD PTR _ext$[ebp]
  00079	50		 push	 eax
  0007a	8b 4d 10	 mov	 ecx, DWORD PTR _pstExt$[ebp]
  0007d	e8 00 00 00 00	 call	 ?append@?$basic_string@DU?$char_traits@D@std@@V?$allocator@D@2@@std@@QAEAAV12@QBDI@Z ; std::basic_string<char,std::char_traits<char>,std::allocator<char> >::append
$LN1@GetFileExt:

; 97   : }

  00082	c9		 leave
  00083	c3		 ret	 0
?GetFileExtension@@YAXPBDHPAV?$basic_string@DU?$char_traits@D@std@@V?$allocator@D@2@@std@@@Z ENDP ; GetFileExtension
_TEXT	ENDS
; Function compile flags: /Odspy
; File D:\Metin2 Server Files\mainline\SRC_2014\Metin2Client\EterBase\Utils.cpp
;	COMDAT ?GetFilePathNameExtension@@YAXPBDHPAV?$basic_string@DU?$char_traits@D@std@@V?$allocator@D@2@@std@@11@Z
_TEXT	SEGMENT
_ext$ = -12						; size = 4
_pos$ = -8						; size = 4
_c$1 = -2						; size = 1
_c$2 = -1						; size = 1
_c_szFile$ = 8						; size = 4
_len$ = 12						; size = 4
_pstPath$ = 16						; size = 4
_pstName$ = 20						; size = 4
_pstExt$ = 24						; size = 4
?GetFilePathNameExtension@@YAXPBDHPAV?$basic_string@DU?$char_traits@D@std@@V?$allocator@D@2@@std@@11@Z PROC ; GetFilePathNameExtension, COMDAT

; 29   : {

  00000	55		 push	 ebp
  00001	8b ec		 mov	 ebp, esp
  00003	83 ec 0c	 sub	 esp, 12			; 0000000cH

; 30   : 	assert(pstPath != NULL);
; 31   : 	assert(pstName != NULL);
; 32   : 	assert(pstExt != NULL);
; 33   : 
; 34   : 	int ext = len;

  00006	8b 45 0c	 mov	 eax, DWORD PTR _len$[ebp]
  00009	89 45 f4	 mov	 DWORD PTR _ext$[ebp], eax

; 35   : 	int pos = len;

  0000c	8b 45 0c	 mov	 eax, DWORD PTR _len$[ebp]
  0000f	89 45 f8	 mov	 DWORD PTR _pos$[ebp], eax
$LN2@GetFilePat:

; 36   : 
; 37   : 	while (pos > 0)

  00012	83 7d f8 00	 cmp	 DWORD PTR _pos$[ebp], 0
  00016	7e 41		 jle	 SHORT $LN4@GetFilePat

; 38   : 	{
; 39   : 		--pos;

  00018	8b 45 f8	 mov	 eax, DWORD PTR _pos$[ebp]
  0001b	48		 dec	 eax
  0001c	89 45 f8	 mov	 DWORD PTR _pos$[ebp], eax

; 40   : 		char c = c_szFile[pos];

  0001f	8b 45 08	 mov	 eax, DWORD PTR _c_szFile$[ebp]
  00022	03 45 f8	 add	 eax, DWORD PTR _pos$[ebp]
  00025	8a 00		 mov	 al, BYTE PTR [eax]
  00027	88 45 ff	 mov	 BYTE PTR _c$2[ebp], al

; 41   : 
; 42   : 		if (ext == len && c == '.') 

  0002a	8b 45 f4	 mov	 eax, DWORD PTR _ext$[ebp]
  0002d	3b 45 0c	 cmp	 eax, DWORD PTR _len$[ebp]
  00030	75 11		 jne	 SHORT $LN6@GetFilePat
  00032	0f be 45 ff	 movsx	 eax, BYTE PTR _c$2[ebp]
  00036	83 f8 2e	 cmp	 eax, 46			; 0000002eH
  00039	75 08		 jne	 SHORT $LN6@GetFilePat

; 43   : 		{
; 44   : 			ext = pos;			

  0003b	8b 45 f8	 mov	 eax, DWORD PTR _pos$[ebp]
  0003e	89 45 f4	 mov	 DWORD PTR _ext$[ebp], eax

; 45   : 			break;

  00041	eb 16		 jmp	 SHORT $LN4@GetFilePat
$LN6@GetFilePat:

; 46   : 		}
; 47   : 		
; 48   : 		if (c == '/' || c == '\\')

  00043	0f be 45 ff	 movsx	 eax, BYTE PTR _c$2[ebp]
  00047	83 f8 2f	 cmp	 eax, 47			; 0000002fH
  0004a	74 09		 je	 SHORT $LN8@GetFilePat
  0004c	0f be 45 ff	 movsx	 eax, BYTE PTR _c$2[ebp]
  00050	83 f8 5c	 cmp	 eax, 92			; 0000005cH
  00053	75 02		 jne	 SHORT $LN7@GetFilePat
$LN8@GetFilePat:

; 49   : 			break;

  00055	eb 02		 jmp	 SHORT $LN4@GetFilePat
$LN7@GetFilePat:

; 50   : 	}

  00057	eb b9		 jmp	 SHORT $LN2@GetFilePat
$LN4@GetFilePat:

; 51   : 
; 52   : 	while (pos > 0)

  00059	83 7d f8 00	 cmp	 DWORD PTR _pos$[ebp], 0
  0005d	7e 28		 jle	 SHORT $LN5@GetFilePat

; 53   : 	{
; 54   : 		--pos;

  0005f	8b 45 f8	 mov	 eax, DWORD PTR _pos$[ebp]
  00062	48		 dec	 eax
  00063	89 45 f8	 mov	 DWORD PTR _pos$[ebp], eax

; 55   : 		char c = c_szFile[pos];

  00066	8b 45 08	 mov	 eax, DWORD PTR _c_szFile$[ebp]
  00069	03 45 f8	 add	 eax, DWORD PTR _pos$[ebp]
  0006c	8a 00		 mov	 al, BYTE PTR [eax]
  0006e	88 45 fe	 mov	 BYTE PTR _c$1[ebp], al

; 56   : 
; 57   : 		if (c == '/' || c == '\\')

  00071	0f be 45 fe	 movsx	 eax, BYTE PTR _c$1[ebp]
  00075	83 f8 2f	 cmp	 eax, 47			; 0000002fH
  00078	74 09		 je	 SHORT $LN10@GetFilePat
  0007a	0f be 45 fe	 movsx	 eax, BYTE PTR _c$1[ebp]
  0007e	83 f8 5c	 cmp	 eax, 92			; 0000005cH
  00081	75 02		 jne	 SHORT $LN9@GetFilePat
$LN10@GetFilePat:

; 58   : 			break;

  00083	eb 02		 jmp	 SHORT $LN5@GetFilePat
$LN9@GetFilePat:

; 59   : 	}

  00085	eb d2		 jmp	 SHORT $LN4@GetFilePat
$LN5@GetFilePat:

; 60   : 
; 61   : 	if (pos)

  00087	83 7d f8 00	 cmp	 DWORD PTR _pos$[ebp], 0
  0008b	74 15		 je	 SHORT $LN11@GetFilePat

; 62   : 	{
; 63   : 		++pos;

  0008d	8b 45 f8	 mov	 eax, DWORD PTR _pos$[ebp]
  00090	40		 inc	 eax
  00091	89 45 f8	 mov	 DWORD PTR _pos$[ebp], eax

; 64   : 		pstPath->append(c_szFile, pos);

  00094	ff 75 f8	 push	 DWORD PTR _pos$[ebp]
  00097	ff 75 08	 push	 DWORD PTR _c_szFile$[ebp]
  0009a	8b 4d 10	 mov	 ecx, DWORD PTR _pstPath$[ebp]
  0009d	e8 00 00 00 00	 call	 ?append@?$basic_string@DU?$char_traits@D@std@@V?$allocator@D@2@@std@@QAEAAV12@QBDI@Z ; std::basic_string<char,std::char_traits<char>,std::allocator<char> >::append
$LN11@GetFilePat:

; 65   : 	}
; 66   : 	
; 67   : 	if (ext > pos)

  000a2	8b 45 f4	 mov	 eax, DWORD PTR _ext$[ebp]
  000a5	3b 45 f8	 cmp	 eax, DWORD PTR _pos$[ebp]
  000a8	7e 16		 jle	 SHORT $LN12@GetFilePat

; 68   : 		pstName->append(c_szFile + pos, ext - pos);

  000aa	8b 45 f4	 mov	 eax, DWORD PTR _ext$[ebp]
  000ad	2b 45 f8	 sub	 eax, DWORD PTR _pos$[ebp]
  000b0	50		 push	 eax
  000b1	8b 45 08	 mov	 eax, DWORD PTR _c_szFile$[ebp]
  000b4	03 45 f8	 add	 eax, DWORD PTR _pos$[ebp]
  000b7	50		 push	 eax
  000b8	8b 4d 14	 mov	 ecx, DWORD PTR _pstName$[ebp]
  000bb	e8 00 00 00 00	 call	 ?append@?$basic_string@DU?$char_traits@D@std@@V?$allocator@D@2@@std@@QAEAAV12@QBDI@Z ; std::basic_string<char,std::char_traits<char>,std::allocator<char> >::append
$LN12@GetFilePat:

; 69   : 
; 70   : 	++ext;

  000c0	8b 45 f4	 mov	 eax, DWORD PTR _ext$[ebp]
  000c3	40		 inc	 eax
  000c4	89 45 f4	 mov	 DWORD PTR _ext$[ebp], eax

; 71   : 
; 72   : 	if (len > ext)

  000c7	8b 45 0c	 mov	 eax, DWORD PTR _len$[ebp]
  000ca	3b 45 f4	 cmp	 eax, DWORD PTR _ext$[ebp]
  000cd	7e 16		 jle	 SHORT $LN1@GetFilePat

; 73   : 		pstExt->append(c_szFile + ext, len - ext);

  000cf	8b 45 0c	 mov	 eax, DWORD PTR _len$[ebp]
  000d2	2b 45 f4	 sub	 eax, DWORD PTR _ext$[ebp]
  000d5	50		 push	 eax
  000d6	8b 45 08	 mov	 eax, DWORD PTR _c_szFile$[ebp]
  000d9	03 45 f4	 add	 eax, DWORD PTR _ext$[ebp]
  000dc	50		 push	 eax
  000dd	8b 4d 18	 mov	 ecx, DWORD PTR _pstExt$[ebp]
  000e0	e8 00 00 00 00	 call	 ?append@?$basic_string@DU?$char_traits@D@std@@V?$allocator@D@2@@std@@QAEAAV12@QBDI@Z ; std::basic_string<char,std::char_traits<char>,std::allocator<char> >::append
$LN1@GetFilePat:

; 74   : }

  000e5	c9		 leave
  000e6	c3		 ret	 0
?GetFilePathNameExtension@@YAXPBDHPAV?$basic_string@DU?$char_traits@D@std@@V?$allocator@D@2@@std@@11@Z ENDP ; GetFilePathNameExtension
_TEXT	ENDS
; Function compile flags: /Odspy
; File D:\Metin2 Server Files\mainline\SRC_2014\Metin2Client\EterBase\Utils.cpp
;	COMDAT ?CreateTempFileName@@YAPBDPBD@Z
_TEXT	SEGMENT
tv73 = -128						; size = 4
tv69 = -121						; size = 1
_szTempPath$ = -120					; size = 261
__$ArrayPad$ = 144					; size = 4
_c_pszPrefix$ = 156					; size = 4
?CreateTempFileName@@YAPBDPBD@Z PROC			; CreateTempFileName, COMDAT

; 14   : {

  00000	55		 push	 ebp
  00001	8d ac 24 6c ff
	ff ff		 lea	 ebp, DWORD PTR [esp-148]
  00008	81 ec 14 01 00
	00		 sub	 esp, 276		; 00000114H
  0000e	a1 00 00 00 00	 mov	 eax, DWORD PTR ___security_cookie
  00013	33 c5		 xor	 eax, ebp
  00015	89 85 90 00 00
	00		 mov	 DWORD PTR __$ArrayPad$[ebp], eax

; 15   : 	char szTempPath[MAX_PATH + 1];
; 16   : 	static char szTempName[MAX_PATH + 1];
; 17   : 
; 18   : 	GetTempPath(MAX_PATH, szTempPath);

  0001b	8d 45 88	 lea	 eax, DWORD PTR _szTempPath$[ebp]
  0001e	50		 push	 eax
  0001f	68 04 01 00 00	 push	 260			; 00000104H
  00024	ff 15 00 00 00
	00		 call	 DWORD PTR __imp__GetTempPathA@8

; 19   : 
; 20   : 	GetTempFileName(szTempPath,									// directory for temp files 

  0002a	83 bd 9c 00 00
	00 00		 cmp	 DWORD PTR _c_pszPrefix$[ebp], 0
  00031	74 06		 je	 SHORT $LN3@CreateTemp
  00033	c6 45 87 01	 mov	 BYTE PTR tv69[ebp], 1
  00037	eb 04		 jmp	 SHORT $LN4@CreateTemp
$LN3@CreateTemp:
  00039	c6 45 87 00	 mov	 BYTE PTR tv69[ebp], 0
$LN4@CreateTemp:
  0003d	83 bd 9c 00 00
	00 00		 cmp	 DWORD PTR _c_pszPrefix$[ebp], 0
  00044	74 0b		 je	 SHORT $LN5@CreateTemp
  00046	8b 85 9c 00 00
	00		 mov	 eax, DWORD PTR _c_pszPrefix$[ebp]
  0004c	89 45 80	 mov	 DWORD PTR tv73[ebp], eax
  0004f	eb 07		 jmp	 SHORT $LN6@CreateTemp
$LN5@CreateTemp:
  00051	c7 45 80 00 00
	00 00		 mov	 DWORD PTR tv73[ebp], OFFSET ??_C@_03NGHAOOHL@etb@
$LN6@CreateTemp:
  00058	68 00 00 00 00	 push	 OFFSET ?szTempName@?1??CreateTempFileName@@YAPBDPBD@Z@4PADA
  0005d	0f b6 45 87	 movzx	 eax, BYTE PTR tv69[ebp]
  00061	50		 push	 eax
  00062	ff 75 80	 push	 DWORD PTR tv73[ebp]
  00065	8d 45 88	 lea	 eax, DWORD PTR _szTempPath$[ebp]
  00068	50		 push	 eax
  00069	ff 15 00 00 00
	00		 call	 DWORD PTR __imp__GetTempFileNameA@16

; 21   : 					c_pszPrefix ? c_pszPrefix : "etb",		    // temp file name prefix 
; 22   : 					c_pszPrefix ? true : false,					// create unique name 
; 23   : 					szTempName);								// buffer for name 
; 24   : 
; 25   : 	return (szTempName);

  0006f	b8 00 00 00 00	 mov	 eax, OFFSET ?szTempName@?1??CreateTempFileName@@YAPBDPBD@Z@4PADA

; 26   : }

  00074	8b 8d 90 00 00
	00		 mov	 ecx, DWORD PTR __$ArrayPad$[ebp]
  0007a	33 cd		 xor	 ecx, ebp
  0007c	e8 00 00 00 00	 call	 @__security_check_cookie@4
  00081	81 c5 94 00 00
	00		 add	 ebp, 148		; 00000094H
  00087	c9		 leave
  00088	c3		 ret	 0
?CreateTempFileName@@YAPBDPBD@Z ENDP			; CreateTempFileName
_TEXT	ENDS
; Function compile flags: /Odspy
;	COMDAT ??1?$_Compressed_pair@V?$allocator@D@std@@V?$_String_val@U?$_Simple_types@D@std@@@2@$00@std@@QAE@XZ
_TEXT	SEGMENT
_this$ = -4						; size = 4
??1?$_Compressed_pair@V?$allocator@D@std@@V?$_String_val@U?$_Simple_types@D@std@@@2@$00@std@@QAE@XZ PROC ; std::_Compressed_pair<std::allocator<char>,std::_String_val<std::_Simple_types<char> >,1>::~_Compressed_pair<std::allocator<char>,std::_String_val<std::_Simple_types<char> >,1>, COMDAT
; _this$ = ecx
  00000	55		 push	 ebp
  00001	8b ec		 mov	 ebp, esp
  00003	51		 push	 ecx
  00004	89 4d fc	 mov	 DWORD PTR _this$[ebp], ecx
  00007	c9		 leave
  00008	c3		 ret	 0
??1?$_Compressed_pair@V?$allocator@D@std@@V?$_String_val@U?$_Simple_types@D@std@@@2@$00@std@@QAE@XZ ENDP ; std::_Compressed_pair<std::allocator<char>,std::_String_val<std::_Simple_types<char> >,1>::~_Compressed_pair<std::allocator<char>,std::_String_val<std::_Simple_types<char> >,1>
_TEXT	ENDS
; Function compile flags: /Odspy
; File C:\Program Files (x86)\Microsoft Visual Studio\2019\Community\VC\Tools\MSVC\14.28.29333\include\xstring
; File C:\Program Files (x86)\Microsoft Visual Studio\2019\Community\VC\Tools\MSVC\14.28.29333\include\xmemory
; File C:\Program Files (x86)\Microsoft Visual Studio\2019\Community\VC\Tools\MSVC\14.28.29333\include\xstring
; File C:\Program Files (x86)\Microsoft Visual Studio\2019\Community\VC\Tools\MSVC\14.28.29333\include\xmemory
; File C:\Program Files (x86)\Microsoft Visual Studio\2019\Community\VC\Tools\MSVC\14.28.29333\include\xstring
;	COMDAT ?_Tidy_deallocate@?$basic_string@DU?$char_traits@D@std@@V?$allocator@D@2@@std@@AAEXXZ
_TEXT	SEGMENT
__Al$1 = -28						; size = 4
__Ptr$2 = -24						; size = 4
__Count$ = -20						; size = 4
$T3 = -16						; size = 4
tv68 = -12						; size = 4
_this$ = -8						; size = 4
$T4 = -2						; size = 1
$T5 = -1						; size = 1
?_Tidy_deallocate@?$basic_string@DU?$char_traits@D@std@@V?$allocator@D@2@@std@@AAEXXZ PROC ; std::basic_string<char,std::char_traits<char>,std::allocator<char> >::_Tidy_deallocate, COMDAT
; _this$ = ecx

; 4383 :     void _Tidy_deallocate() noexcept { // initialize buffer, deallocating any storage

  00000	55		 push	 ebp
  00001	8b ec		 mov	 ebp, esp
  00003	83 ec 1c	 sub	 esp, 28			; 0000001cH
  00006	89 4d f8	 mov	 DWORD PTR _this$[ebp], ecx

; 2227 :         return _BUF_SIZE <= _Myres;

  00009	8b 45 f8	 mov	 eax, DWORD PTR _this$[ebp]
  0000c	83 78 14 10	 cmp	 DWORD PTR [eax+20], 16	; 00000010H
  00010	72 09		 jb	 SHORT $LN9@Tidy_deall
  00012	c7 45 f4 01 00
	00 00		 mov	 DWORD PTR tv68[ebp], 1
  00019	eb 04		 jmp	 SHORT $LN10@Tidy_deall
$LN9@Tidy_deall:
  0001b	83 65 f4 00	 and	 DWORD PTR tv68[ebp], 0
$LN10@Tidy_deall:
  0001f	8a 45 f4	 mov	 al, BYTE PTR tv68[ebp]
  00022	88 45 ff	 mov	 BYTE PTR $T5[ebp], al

; 4384 :         _Mypair._Myval2._Orphan_all();
; 4385 :         if (_Mypair._Myval2._Large_string_engaged()) {

  00025	0f b6 45 ff	 movzx	 eax, BYTE PTR $T5[ebp]
  00029	85 c0		 test	 eax, eax
  0002b	74 34		 je	 SHORT $LN2@Tidy_deall

; 4386 :             const pointer _Ptr = _Mypair._Myval2._Bx._Ptr;

  0002d	8b 45 f8	 mov	 eax, DWORD PTR _this$[ebp]
  00030	8b 00		 mov	 eax, DWORD PTR [eax]
  00032	89 45 e8	 mov	 DWORD PTR __Ptr$2[ebp], eax

; 4409 :         return _Mypair._Get_first();

  00035	8b 45 f8	 mov	 eax, DWORD PTR _this$[ebp]
; File C:\Program Files (x86)\Microsoft Visual Studio\2019\Community\VC\Tools\MSVC\14.28.29333\include\xmemory

; 1347 :         return *this;

  00038	89 45 f0	 mov	 DWORD PTR $T3[ebp], eax
; File C:\Program Files (x86)\Microsoft Visual Studio\2019\Community\VC\Tools\MSVC\14.28.29333\include\xstring

; 4409 :         return _Mypair._Get_first();

  0003b	8b 45 f0	 mov	 eax, DWORD PTR $T3[ebp]
  0003e	89 45 e4	 mov	 DWORD PTR __Al$1[ebp], eax

; 4387 :             auto& _Al          = _Getal();
; 4388 :             _Destroy_in_place(_Mypair._Myval2._Bx._Ptr);

  00041	ff 75 f8	 push	 DWORD PTR _this$[ebp]
  00044	e8 00 00 00 00	 call	 ??$_Destroy_in_place@PAD@std@@YAXAAPAD@Z ; std::_Destroy_in_place<char *>
  00049	59		 pop	 ecx

; 4389 :             _Al.deallocate(_Ptr, _Mypair._Myval2._Myres + 1);

  0004a	8b 45 f8	 mov	 eax, DWORD PTR _this$[ebp]
  0004d	8b 40 14	 mov	 eax, DWORD PTR [eax+20]
  00050	40		 inc	 eax
  00051	89 45 ec	 mov	 DWORD PTR __Count$[ebp], eax
; File C:\Program Files (x86)\Microsoft Visual Studio\2019\Community\VC\Tools\MSVC\14.28.29333\include\xmemory

; 810  :         _Deallocate<_New_alignof<_Ty>>(_Ptr, sizeof(_Ty) * _Count);

  00054	ff 75 ec	 push	 DWORD PTR __Count$[ebp]
  00057	ff 75 e8	 push	 DWORD PTR __Ptr$2[ebp]
  0005a	e8 00 00 00 00	 call	 ??$_Deallocate@$07$0A@@std@@YAXPAXI@Z ; std::_Deallocate<8,0>
  0005f	59		 pop	 ecx
  00060	59		 pop	 ecx
$LN2@Tidy_deall:
; File C:\Program Files (x86)\Microsoft Visual Studio\2019\Community\VC\Tools\MSVC\14.28.29333\include\xstring

; 4392 :         _Mypair._Myval2._Mysize = 0;

  00061	8b 45 f8	 mov	 eax, DWORD PTR _this$[ebp]
  00064	83 60 10 00	 and	 DWORD PTR [eax+16], 0

; 4393 :         _Mypair._Myval2._Myres  = _BUF_SIZE - 1;

  00068	8b 45 f8	 mov	 eax, DWORD PTR _this$[ebp]
  0006b	c7 40 14 0f 00
	00 00		 mov	 DWORD PTR [eax+20], 15	; 0000000fH

; 4394 :         // the _Traits::assign is last so the codegen doesn't think the char write can alias this
; 4395 :         _Traits::assign(_Mypair._Myval2._Bx._Buf[0], _Elem());

  00072	c6 45 fe 00	 mov	 BYTE PTR $T4[ebp], 0
  00076	33 c0		 xor	 eax, eax
  00078	40		 inc	 eax
  00079	6b c0 00	 imul	 eax, eax, 0

; 428  :         _Left = _Right;

  0007c	8b 4d f8	 mov	 ecx, DWORD PTR _this$[ebp]
  0007f	8a 55 fe	 mov	 dl, BYTE PTR $T4[ebp]
  00082	88 14 01	 mov	 BYTE PTR [ecx+eax], dl

; 4396 :     }

  00085	c9		 leave
  00086	c3		 ret	 0
?_Tidy_deallocate@?$basic_string@DU?$char_traits@D@std@@V?$allocator@D@2@@std@@AAEXXZ ENDP ; std::basic_string<char,std::char_traits<char>,std::allocator<char> >::_Tidy_deallocate
_TEXT	ENDS
; Function compile flags: /Odspy
; File C:\Program Files (x86)\Microsoft Visual Studio\2019\Community\VC\Tools\MSVC\14.28.29333\include\xstring
;	COMDAT ?_Tidy_init@?$basic_string@DU?$char_traits@D@std@@V?$allocator@D@2@@std@@AAEXXZ
_TEXT	SEGMENT
_this$ = -8						; size = 4
$T1 = -1						; size = 1
?_Tidy_init@?$basic_string@DU?$char_traits@D@std@@V?$allocator@D@2@@std@@AAEXXZ PROC ; std::basic_string<char,std::char_traits<char>,std::allocator<char> >::_Tidy_init, COMDAT
; _this$ = ecx

; 4376 :     void _Tidy_init() noexcept { // initialize basic_string data members

  00000	55		 push	 ebp
  00001	8b ec		 mov	 ebp, esp
  00003	51		 push	 ecx
  00004	51		 push	 ecx
  00005	89 4d f8	 mov	 DWORD PTR _this$[ebp], ecx

; 4377 :         _Mypair._Myval2._Mysize = 0;

  00008	8b 45 f8	 mov	 eax, DWORD PTR _this$[ebp]
  0000b	83 60 10 00	 and	 DWORD PTR [eax+16], 0

; 4378 :         _Mypair._Myval2._Myres  = _BUF_SIZE - 1;

  0000f	8b 45 f8	 mov	 eax, DWORD PTR _this$[ebp]
  00012	c7 40 14 0f 00
	00 00		 mov	 DWORD PTR [eax+20], 15	; 0000000fH

; 4379 :         // the _Traits::assign is last so the codegen doesn't think the char write can alias this
; 4380 :         _Traits::assign(_Mypair._Myval2._Bx._Buf[0], _Elem());

  00019	c6 45 ff 00	 mov	 BYTE PTR $T1[ebp], 0
  0001d	33 c0		 xor	 eax, eax
  0001f	40		 inc	 eax
  00020	6b c0 00	 imul	 eax, eax, 0

; 428  :         _Left = _Right;

  00023	8b 4d f8	 mov	 ecx, DWORD PTR _this$[ebp]
  00026	8a 55 ff	 mov	 dl, BYTE PTR $T1[ebp]
  00029	88 14 01	 mov	 BYTE PTR [ecx+eax], dl

; 4381 :     }

  0002c	c9		 leave
  0002d	c3		 ret	 0
?_Tidy_init@?$basic_string@DU?$char_traits@D@std@@V?$allocator@D@2@@std@@AAEXXZ ENDP ; std::basic_string<char,std::char_traits<char>,std::allocator<char> >::_Tidy_init
_TEXT	ENDS
; Function compile flags: /Odspy
; File C:\Program Files (x86)\Microsoft Visual Studio\2019\Community\VC\Tools\MSVC\14.28.29333\include\xstring
;	COMDAT ?_Eos@?$basic_string@DU?$char_traits@D@std@@V?$allocator@D@2@@std@@AAEXI@Z
_TEXT	SEGMENT
__Left$ = -12						; size = 4
_this$ = -8						; size = 4
$T1 = -1						; size = 1
__Newsize$ = 8						; size = 4
?_Eos@?$basic_string@DU?$char_traits@D@std@@V?$allocator@D@2@@std@@AAEXI@Z PROC ; std::basic_string<char,std::char_traits<char>,std::allocator<char> >::_Eos, COMDAT
; _this$ = ecx

; 4372 :     void _Eos(const size_type _Newsize) { // set new length and null terminator

  00000	55		 push	 ebp
  00001	8b ec		 mov	 ebp, esp
  00003	83 ec 0c	 sub	 esp, 12			; 0000000cH
  00006	89 4d f8	 mov	 DWORD PTR _this$[ebp], ecx

; 4373 :         _Traits::assign(_Mypair._Myval2._Myptr()[_Mypair._Myval2._Mysize = _Newsize], _Elem());

  00009	c6 45 ff 00	 mov	 BYTE PTR $T1[ebp], 0
  0000d	8b 45 f8	 mov	 eax, DWORD PTR _this$[ebp]
  00010	8b 4d 08	 mov	 ecx, DWORD PTR __Newsize$[ebp]
  00013	89 48 10	 mov	 DWORD PTR [eax+16], ecx
  00016	8b 4d f8	 mov	 ecx, DWORD PTR _this$[ebp]
  00019	e8 00 00 00 00	 call	 ?_Myptr@?$_String_val@U?$_Simple_types@D@std@@@std@@QAEPADXZ ; std::_String_val<std::_Simple_types<char> >::_Myptr
  0001e	03 45 08	 add	 eax, DWORD PTR __Newsize$[ebp]
  00021	89 45 f4	 mov	 DWORD PTR __Left$[ebp], eax

; 428  :         _Left = _Right;

  00024	8b 45 f4	 mov	 eax, DWORD PTR __Left$[ebp]
  00027	8a 4d ff	 mov	 cl, BYTE PTR $T1[ebp]
  0002a	88 08		 mov	 BYTE PTR [eax], cl

; 4374 :     }

  0002c	c9		 leave
  0002d	c2 04 00	 ret	 4
?_Eos@?$basic_string@DU?$char_traits@D@std@@V?$allocator@D@2@@std@@AAEXI@Z ENDP ; std::basic_string<char,std::char_traits<char>,std::allocator<char> >::_Eos
_TEXT	ENDS
; Function compile flags: /Odspy
; File C:\Program Files (x86)\Microsoft Visual Studio\2019\Community\VC\Tools\MSVC\14.28.29333\include\xstring
; File C:\Program Files (x86)\Microsoft Visual Studio\2019\Community\VC\Tools\MSVC\14.28.29333\include\xmemory
; File C:\Program Files (x86)\Microsoft Visual Studio\2019\Community\VC\Tools\MSVC\14.28.29333\include\xstring
; File C:\Program Files (x86)\Microsoft Visual Studio\2019\Community\VC\Tools\MSVC\14.28.29333\include\xstddef
; File C:\Program Files (x86)\Microsoft Visual Studio\2019\Community\VC\Tools\MSVC\14.28.29333\include\xstring
; File C:\Program Files (x86)\Microsoft Visual Studio\2019\Community\VC\Tools\MSVC\14.28.29333\include\xmemory
; File C:\Program Files (x86)\Microsoft Visual Studio\2019\Community\VC\Tools\MSVC\14.28.29333\include\xstring
;	COMDAT ?_Become_small@?$basic_string@DU?$char_traits@D@std@@V?$allocator@D@2@@std@@AAEXXZ
_TEXT	SEGMENT
__Al$ = -32						; size = 4
__Count$ = -28						; size = 4
__First1$ = -24						; size = 4
$T1 = -20						; size = 4
__Count$ = -16						; size = 4
$T2 = -12						; size = 4
__Ptr$ = -8						; size = 4
_this$ = -4						; size = 4
?_Become_small@?$basic_string@DU?$char_traits@D@std@@V?$allocator@D@2@@std@@AAEXXZ PROC ; std::basic_string<char,std::char_traits<char>,std::allocator<char> >::_Become_small, COMDAT
; _this$ = ecx

; 4359 :     void _Become_small() {

  00000	55		 push	 ebp
  00001	8b ec		 mov	 ebp, esp
  00003	83 ec 20	 sub	 esp, 32			; 00000020H
  00006	89 4d fc	 mov	 DWORD PTR _this$[ebp], ecx

; 4360 :         // release any held storage and return to small string mode
; 4361 :         // pre: *this is in large string mode
; 4362 :         // pre: this is small enough to return to small string mode
; 4363 :         _Mypair._Myval2._Orphan_all();
; 4364 :         const pointer _Ptr = _Mypair._Myval2._Bx._Ptr;

  00009	8b 45 fc	 mov	 eax, DWORD PTR _this$[ebp]
  0000c	8b 00		 mov	 eax, DWORD PTR [eax]
  0000e	89 45 f8	 mov	 DWORD PTR __Ptr$[ebp], eax

; 4409 :         return _Mypair._Get_first();

  00011	8b 45 fc	 mov	 eax, DWORD PTR _this$[ebp]
; File C:\Program Files (x86)\Microsoft Visual Studio\2019\Community\VC\Tools\MSVC\14.28.29333\include\xmemory

; 1347 :         return *this;

  00014	89 45 f4	 mov	 DWORD PTR $T2[ebp], eax
; File C:\Program Files (x86)\Microsoft Visual Studio\2019\Community\VC\Tools\MSVC\14.28.29333\include\xstring

; 4409 :         return _Mypair._Get_first();

  00017	8b 45 f4	 mov	 eax, DWORD PTR $T2[ebp]
  0001a	89 45 e0	 mov	 DWORD PTR __Al$[ebp], eax

; 4365 :         auto& _Al          = _Getal();
; 4366 :         _Destroy_in_place(_Mypair._Myval2._Bx._Ptr);

  0001d	ff 75 fc	 push	 DWORD PTR _this$[ebp]
  00020	e8 00 00 00 00	 call	 ??$_Destroy_in_place@PAD@std@@YAXAAPAD@Z ; std::_Destroy_in_place<char *>
  00025	59		 pop	 ecx
; File C:\Program Files (x86)\Microsoft Visual Studio\2019\Community\VC\Tools\MSVC\14.28.29333\include\xstddef

; 289  :     return _Ptr;

  00026	8b 45 f8	 mov	 eax, DWORD PTR __Ptr$[ebp]
  00029	89 45 ec	 mov	 DWORD PTR $T1[ebp], eax
; File C:\Program Files (x86)\Microsoft Visual Studio\2019\Community\VC\Tools\MSVC\14.28.29333\include\xstring

; 4367 :         _Traits::copy(_Mypair._Myval2._Bx._Buf, _Unfancy(_Ptr), _Mypair._Myval2._Mysize + 1);

  0002c	8b 45 fc	 mov	 eax, DWORD PTR _this$[ebp]
  0002f	8b 40 10	 mov	 eax, DWORD PTR [eax+16]
  00032	40		 inc	 eax
  00033	89 45 f0	 mov	 DWORD PTR __Count$[ebp], eax
  00036	8b 45 fc	 mov	 eax, DWORD PTR _this$[ebp]
  00039	89 45 e8	 mov	 DWORD PTR __First1$[ebp], eax

; 62   :         _CSTD memcpy(_First1, _First2, _Count * sizeof(_Elem));

  0003c	ff 75 f0	 push	 DWORD PTR __Count$[ebp]
  0003f	ff 75 ec	 push	 DWORD PTR $T1[ebp]
  00042	ff 75 e8	 push	 DWORD PTR __First1$[ebp]
  00045	e8 00 00 00 00	 call	 _memcpy
  0004a	83 c4 0c	 add	 esp, 12			; 0000000cH

; 4368 :         _Al.deallocate(_Ptr, _Mypair._Myval2._Myres + 1);

  0004d	8b 45 fc	 mov	 eax, DWORD PTR _this$[ebp]
  00050	8b 40 14	 mov	 eax, DWORD PTR [eax+20]
  00053	40		 inc	 eax
  00054	89 45 e4	 mov	 DWORD PTR __Count$[ebp], eax
; File C:\Program Files (x86)\Microsoft Visual Studio\2019\Community\VC\Tools\MSVC\14.28.29333\include\xmemory

; 810  :         _Deallocate<_New_alignof<_Ty>>(_Ptr, sizeof(_Ty) * _Count);

  00057	ff 75 e4	 push	 DWORD PTR __Count$[ebp]
  0005a	ff 75 f8	 push	 DWORD PTR __Ptr$[ebp]
  0005d	e8 00 00 00 00	 call	 ??$_Deallocate@$07$0A@@std@@YAXPAXI@Z ; std::_Deallocate<8,0>
  00062	59		 pop	 ecx
  00063	59		 pop	 ecx
; File C:\Program Files (x86)\Microsoft Visual Studio\2019\Community\VC\Tools\MSVC\14.28.29333\include\xstring

; 4369 :         _Mypair._Myval2._Myres = _BUF_SIZE - 1;

  00064	8b 45 fc	 mov	 eax, DWORD PTR _this$[ebp]
  00067	c7 40 14 0f 00
	00 00		 mov	 DWORD PTR [eax+20], 15	; 0000000fH

; 4370 :     }

  0006e	c9		 leave
  0006f	c3		 ret	 0
?_Become_small@?$basic_string@DU?$char_traits@D@std@@V?$allocator@D@2@@std@@AAEXXZ ENDP ; std::basic_string<char,std::char_traits<char>,std::allocator<char> >::_Become_small
_TEXT	ENDS
; Function compile flags: /Odspy
; File C:\Program Files (x86)\Microsoft Visual Studio\2019\Community\VC\Tools\MSVC\14.28.29333\include\xstring
; File C:\Program Files (x86)\Microsoft Visual Studio\2019\Community\VC\Tools\MSVC\14.28.29333\include\utility
; File C:\Program Files (x86)\Microsoft Visual Studio\2019\Community\VC\Tools\MSVC\14.28.29333\include\xstring
;	COMDAT ?_Calculate_growth@?$basic_string@DU?$char_traits@D@std@@V?$allocator@D@2@@std@@ABEII@Z
_TEXT	SEGMENT
$T1 = -36						; size = 4
$T2 = -32						; size = 4
tv93 = -28						; size = 4
$T3 = -24						; size = 4
_this$ = -20						; size = 4
$T4 = -16						; size = 4
__Masked$5 = -12					; size = 4
__Old$ = -8						; size = 4
__Max$ = -4						; size = 4
__Requested$ = 8					; size = 4
?_Calculate_growth@?$basic_string@DU?$char_traits@D@std@@V?$allocator@D@2@@std@@ABEII@Z PROC ; std::basic_string<char,std::char_traits<char>,std::allocator<char> >::_Calculate_growth, COMDAT
; _this$ = ecx

; 4297 :     _NODISCARD size_type _Calculate_growth(const size_type _Requested) const noexcept {

  00000	55		 push	 ebp
  00001	8b ec		 mov	 ebp, esp
  00003	83 ec 24	 sub	 esp, 36			; 00000024H
  00006	89 4d ec	 mov	 DWORD PTR _this$[ebp], ecx

; 4298 :         return _Calculate_growth(_Requested, _Mypair._Myval2._Myres, max_size());

  00009	8b 4d ec	 mov	 ecx, DWORD PTR _this$[ebp]
  0000c	e8 00 00 00 00	 call	 ?max_size@?$basic_string@DU?$char_traits@D@std@@V?$allocator@D@2@@std@@QBEIXZ ; std::basic_string<char,std::char_traits<char>,std::allocator<char> >::max_size
  00011	89 45 fc	 mov	 DWORD PTR __Max$[ebp], eax
  00014	8b 45 ec	 mov	 eax, DWORD PTR _this$[ebp]
  00017	8b 40 14	 mov	 eax, DWORD PTR [eax+20]
  0001a	89 45 f8	 mov	 DWORD PTR __Old$[ebp], eax

; 4285 :         const size_type _Masked = _Requested | _ALLOC_MASK;

  0001d	8b 45 08	 mov	 eax, DWORD PTR __Requested$[ebp]
  00020	83 c8 0f	 or	 eax, 15			; 0000000fH
  00023	89 45 f4	 mov	 DWORD PTR __Masked$5[ebp], eax

; 4286 :         if (_Masked > _Max) { // the mask overflows, settle for max_size()

  00026	8b 45 f4	 mov	 eax, DWORD PTR __Masked$5[ebp]
  00029	3b 45 fc	 cmp	 eax, DWORD PTR __Max$[ebp]
  0002c	76 08		 jbe	 SHORT $LN29@Calculate_

; 4287 :             return _Max;

  0002e	8b 45 fc	 mov	 eax, DWORD PTR __Max$[ebp]
  00031	89 45 f0	 mov	 DWORD PTR $T4[ebp], eax
  00034	eb 4c		 jmp	 SHORT $LN31@Calculate_
$LN29@Calculate_:

; 4288 :         }
; 4289 : 
; 4290 :         if (_Old > _Max - _Old / 2) { // similarly, geometric overflows

  00036	8b 45 f8	 mov	 eax, DWORD PTR __Old$[ebp]
  00039	d1 e8		 shr	 eax, 1
  0003b	8b 4d fc	 mov	 ecx, DWORD PTR __Max$[ebp]
  0003e	2b c8		 sub	 ecx, eax
  00040	39 4d f8	 cmp	 DWORD PTR __Old$[ebp], ecx
  00043	76 08		 jbe	 SHORT $LN30@Calculate_

; 4291 :             return _Max;

  00045	8b 45 fc	 mov	 eax, DWORD PTR __Max$[ebp]
  00048	89 45 f0	 mov	 DWORD PTR $T4[ebp], eax
  0004b	eb 35		 jmp	 SHORT $LN31@Calculate_
$LN30@Calculate_:

; 4294 :         return (_STD max)(_Masked, _Old + _Old / 2);

  0004d	8b 45 f8	 mov	 eax, DWORD PTR __Old$[ebp]
  00050	d1 e8		 shr	 eax, 1
  00052	03 45 f8	 add	 eax, DWORD PTR __Old$[ebp]
  00055	89 45 e8	 mov	 DWORD PTR $T3[ebp], eax
; File C:\Program Files (x86)\Microsoft Visual Studio\2019\Community\VC\Tools\MSVC\14.28.29333\include\utility

; 44   :     return _Left < _Right ? _Right : _Left;

  00058	8b 45 f4	 mov	 eax, DWORD PTR __Masked$5[ebp]
  0005b	3b 45 e8	 cmp	 eax, DWORD PTR $T3[ebp]
  0005e	73 08		 jae	 SHORT $LN35@Calculate_
  00060	8d 45 e8	 lea	 eax, DWORD PTR $T3[ebp]
  00063	89 45 e4	 mov	 DWORD PTR tv93[ebp], eax
  00066	eb 06		 jmp	 SHORT $LN36@Calculate_
$LN35@Calculate_:
  00068	8d 45 f4	 lea	 eax, DWORD PTR __Masked$5[ebp]
  0006b	89 45 e4	 mov	 DWORD PTR tv93[ebp], eax
$LN36@Calculate_:
  0006e	8b 45 e4	 mov	 eax, DWORD PTR tv93[ebp]
  00071	89 45 e0	 mov	 DWORD PTR $T2[ebp], eax
  00074	8b 45 e0	 mov	 eax, DWORD PTR $T2[ebp]
  00077	89 45 dc	 mov	 DWORD PTR $T1[ebp], eax
; File C:\Program Files (x86)\Microsoft Visual Studio\2019\Community\VC\Tools\MSVC\14.28.29333\include\xstring

; 4294 :         return (_STD max)(_Masked, _Old + _Old / 2);

  0007a	8b 45 dc	 mov	 eax, DWORD PTR $T1[ebp]
  0007d	8b 00		 mov	 eax, DWORD PTR [eax]
  0007f	89 45 f0	 mov	 DWORD PTR $T4[ebp], eax
$LN31@Calculate_:

; 4298 :         return _Calculate_growth(_Requested, _Mypair._Myval2._Myres, max_size());

  00082	8b 45 f0	 mov	 eax, DWORD PTR $T4[ebp]

; 4299 :     }

  00085	c9		 leave
  00086	c2 04 00	 ret	 4
?_Calculate_growth@?$basic_string@DU?$char_traits@D@std@@V?$allocator@D@2@@std@@ABEII@Z ENDP ; std::basic_string<char,std::char_traits<char>,std::allocator<char> >::_Calculate_growth
_TEXT	ENDS
; Function compile flags: /Odspy
; File C:\Program Files (x86)\Microsoft Visual Studio\2019\Community\VC\Tools\MSVC\14.28.29333\include\xstring
; File C:\Program Files (x86)\Microsoft Visual Studio\2019\Community\VC\Tools\MSVC\14.28.29333\include\utility
; File C:\Program Files (x86)\Microsoft Visual Studio\2019\Community\VC\Tools\MSVC\14.28.29333\include\xstring
;	COMDAT ?_Calculate_growth@?$basic_string@DU?$char_traits@D@std@@V?$allocator@D@2@@std@@CAIIII@Z
_TEXT	SEGMENT
$T1 = -20						; size = 4
$T2 = -16						; size = 4
tv75 = -12						; size = 4
$T3 = -8						; size = 4
__Masked$ = -4						; size = 4
__Requested$ = 8					; size = 4
__Old$ = 12						; size = 4
__Max$ = 16						; size = 4
?_Calculate_growth@?$basic_string@DU?$char_traits@D@std@@V?$allocator@D@2@@std@@CAIIII@Z PROC ; std::basic_string<char,std::char_traits<char>,std::allocator<char> >::_Calculate_growth, COMDAT

; 4284 :         const size_type _Requested, const size_type _Old, const size_type _Max) noexcept {

  00000	55		 push	 ebp
  00001	8b ec		 mov	 ebp, esp
  00003	83 ec 14	 sub	 esp, 20			; 00000014H

; 4285 :         const size_type _Masked = _Requested | _ALLOC_MASK;

  00006	8b 45 08	 mov	 eax, DWORD PTR __Requested$[ebp]
  00009	83 c8 0f	 or	 eax, 15			; 0000000fH
  0000c	89 45 fc	 mov	 DWORD PTR __Masked$[ebp], eax

; 4286 :         if (_Masked > _Max) { // the mask overflows, settle for max_size()

  0000f	8b 45 fc	 mov	 eax, DWORD PTR __Masked$[ebp]
  00012	3b 45 10	 cmp	 eax, DWORD PTR __Max$[ebp]
  00015	76 05		 jbe	 SHORT $LN2@Calculate_

; 4287 :             return _Max;

  00017	8b 45 10	 mov	 eax, DWORD PTR __Max$[ebp]
  0001a	eb 46		 jmp	 SHORT $LN4@Calculate_
$LN2@Calculate_:

; 4288 :         }
; 4289 : 
; 4290 :         if (_Old > _Max - _Old / 2) { // similarly, geometric overflows

  0001c	8b 45 0c	 mov	 eax, DWORD PTR __Old$[ebp]
  0001f	d1 e8		 shr	 eax, 1
  00021	8b 4d 10	 mov	 ecx, DWORD PTR __Max$[ebp]
  00024	2b c8		 sub	 ecx, eax
  00026	39 4d 0c	 cmp	 DWORD PTR __Old$[ebp], ecx
  00029	76 05		 jbe	 SHORT $LN3@Calculate_

; 4291 :             return _Max;

  0002b	8b 45 10	 mov	 eax, DWORD PTR __Max$[ebp]
  0002e	eb 32		 jmp	 SHORT $LN4@Calculate_
$LN3@Calculate_:

; 4294 :         return (_STD max)(_Masked, _Old + _Old / 2);

  00030	8b 45 0c	 mov	 eax, DWORD PTR __Old$[ebp]
  00033	d1 e8		 shr	 eax, 1
  00035	03 45 0c	 add	 eax, DWORD PTR __Old$[ebp]
  00038	89 45 f8	 mov	 DWORD PTR $T3[ebp], eax
; File C:\Program Files (x86)\Microsoft Visual Studio\2019\Community\VC\Tools\MSVC\14.28.29333\include\utility

; 44   :     return _Left < _Right ? _Right : _Left;

  0003b	8b 45 fc	 mov	 eax, DWORD PTR __Masked$[ebp]
  0003e	3b 45 f8	 cmp	 eax, DWORD PTR $T3[ebp]
  00041	73 08		 jae	 SHORT $LN7@Calculate_
  00043	8d 45 f8	 lea	 eax, DWORD PTR $T3[ebp]
  00046	89 45 f4	 mov	 DWORD PTR tv75[ebp], eax
  00049	eb 06		 jmp	 SHORT $LN8@Calculate_
$LN7@Calculate_:
  0004b	8d 45 fc	 lea	 eax, DWORD PTR __Masked$[ebp]
  0004e	89 45 f4	 mov	 DWORD PTR tv75[ebp], eax
$LN8@Calculate_:
  00051	8b 45 f4	 mov	 eax, DWORD PTR tv75[ebp]
  00054	89 45 f0	 mov	 DWORD PTR $T2[ebp], eax
  00057	8b 45 f0	 mov	 eax, DWORD PTR $T2[ebp]
  0005a	89 45 ec	 mov	 DWORD PTR $T1[ebp], eax
; File C:\Program Files (x86)\Microsoft Visual Studio\2019\Community\VC\Tools\MSVC\14.28.29333\include\xstring

; 4294 :         return (_STD max)(_Masked, _Old + _Old / 2);

  0005d	8b 45 ec	 mov	 eax, DWORD PTR $T1[ebp]
  00060	8b 00		 mov	 eax, DWORD PTR [eax]
$LN4@Calculate_:

; 4295 :     }

  00062	c9		 leave
  00063	c3		 ret	 0
?_Calculate_growth@?$basic_string@DU?$char_traits@D@std@@V?$allocator@D@2@@std@@CAIIII@Z ENDP ; std::basic_string<char,std::char_traits<char>,std::allocator<char> >::_Calculate_growth
_TEXT	ENDS
; Function compile flags: /Odspy
; File C:\Program Files (x86)\Microsoft Visual Studio\2019\Community\VC\Tools\MSVC\14.28.29333\include\xstring
; File C:\Program Files (x86)\Microsoft Visual Studio\2019\Community\VC\Tools\MSVC\14.28.29333\include\xmemory
; File C:\Program Files (x86)\Microsoft Visual Studio\2019\Community\VC\Tools\MSVC\14.28.29333\include\xstring
; File C:\Program Files (x86)\Microsoft Visual Studio\2019\Community\VC\Tools\MSVC\14.28.29333\include\xmemory
; File C:\Program Files (x86)\Microsoft Visual Studio\2019\Community\VC\Tools\MSVC\14.28.29333\include\xstring
;	COMDAT ?substr@?$basic_string@DU?$char_traits@D@std@@V?$allocator@D@2@@std@@QBE?AV12@II@Z
_TEXT	SEGMENT
__Alproxy$2 = -44					; size = 4
$T3 = -40						; size = 4
$T4 = -36						; size = 4
_this$ = -32						; size = 4
$T5 = -28						; size = 4
_this$ = -24						; size = 4
_this$6 = -20						; size = 4
_$S8$7 = -14						; size = 1
$T8 = -13						; size = 1
__$EHRec$ = -12						; size = 12
___$ReturnUdt$ = 8					; size = 4
__Off$ = 12						; size = 4
__Count$ = 16						; size = 4
?substr@?$basic_string@DU?$char_traits@D@std@@V?$allocator@D@2@@std@@QBE?AV12@II@Z PROC ; std::basic_string<char,std::char_traits<char>,std::allocator<char> >::substr, COMDAT
; _this$ = ecx

; 4169 :     _NODISCARD basic_string substr(const size_type _Off = 0, const size_type _Count = npos) const {

  00000	55		 push	 ebp
  00001	8b ec		 mov	 ebp, esp
  00003	6a ff		 push	 -1
  00005	68 00 00 00 00	 push	 __ehhandler$?substr@?$basic_string@DU?$char_traits@D@std@@V?$allocator@D@2@@std@@QBE?AV12@II@Z
  0000a	64 a1 00 00 00
	00		 mov	 eax, DWORD PTR fs:0
  00010	50		 push	 eax
  00011	83 ec 20	 sub	 esp, 32			; 00000020H
  00014	a1 00 00 00 00	 mov	 eax, DWORD PTR ___security_cookie
  00019	33 c5		 xor	 eax, ebp
  0001b	50		 push	 eax
  0001c	8d 45 f4	 lea	 eax, DWORD PTR __$EHRec$[ebp]
  0001f	64 a3 00 00 00
	00		 mov	 DWORD PTR fs:0, eax
  00025	89 4d e8	 mov	 DWORD PTR _this$[ebp], ecx
  00028	83 65 e4 00	 and	 DWORD PTR $T5[ebp], 0

; 4413 :         return _Mypair._Get_first();

  0002c	8b 45 e8	 mov	 eax, DWORD PTR _this$[ebp]
; File C:\Program Files (x86)\Microsoft Visual Studio\2019\Community\VC\Tools\MSVC\14.28.29333\include\xmemory

; 1351 :         return *this;

  0002f	89 45 dc	 mov	 DWORD PTR $T4[ebp], eax
; File C:\Program Files (x86)\Microsoft Visual Studio\2019\Community\VC\Tools\MSVC\14.28.29333\include\xstring

; 4279 :         return static_cast<allocator_type>(_Getal());

  00032	8d 45 f3	 lea	 eax, DWORD PTR $T8[ebp]
  00035	89 45 d8	 mov	 DWORD PTR $T3[ebp], eax

; 2386 :         : _Mypair(_One_then_variadic_args_t{}, _Al) { // construct from _Right [_Roff, _Roff + _Count)

  00038	8b 45 08	 mov	 eax, DWORD PTR ___$ReturnUdt$[ebp]
  0003b	89 45 e0	 mov	 DWORD PTR _this$[ebp], eax
; File C:\Program Files (x86)\Microsoft Visual Studio\2019\Community\VC\Tools\MSVC\14.28.29333\include\xmemory

; 1344 :         : _Ty1(_STD forward<_Other1>(_Val1)), _Myval2(_STD forward<_Other2>(_Val2)...) {}

  0003e	8b 45 e0	 mov	 eax, DWORD PTR _this$[ebp]
  00041	89 45 ec	 mov	 DWORD PTR _this$6[ebp], eax
; File C:\Program Files (x86)\Microsoft Visual Studio\2019\Community\VC\Tools\MSVC\14.28.29333\include\xstring

; 2198 :     _String_val() noexcept : _Bx(), _Mysize(0), _Myres(0) {}

  00044	8b 45 ec	 mov	 eax, DWORD PTR _this$6[ebp]
  00047	83 60 10 00	 and	 DWORD PTR [eax+16], 0
  0004b	8b 45 ec	 mov	 eax, DWORD PTR _this$6[ebp]
  0004e	83 60 14 00	 and	 DWORD PTR [eax+20], 0

; 2386 :         : _Mypair(_One_then_variadic_args_t{}, _Al) { // construct from _Right [_Roff, _Roff + _Count)

  00052	83 65 fc 00	 and	 DWORD PTR __$EHRec$[ebp+8], 0

; 2387 :         auto&& _Alproxy = _GET_PROXY_ALLOCATOR(_Alty, _Getal());

  00056	8d 45 f2	 lea	 eax, DWORD PTR _$S8$7[ebp]
  00059	89 45 d4	 mov	 DWORD PTR __Alproxy$2[ebp], eax

; 2388 :         _Container_proxy_ptr<_Alty> _Proxy(_Alproxy, _Mypair._Myval2);
; 2389 :         _Tidy_init();

  0005c	8b 4d 08	 mov	 ecx, DWORD PTR ___$ReturnUdt$[ebp]
  0005f	e8 00 00 00 00	 call	 ?_Tidy_init@?$basic_string@DU?$char_traits@D@std@@V?$allocator@D@2@@std@@AAEXXZ ; std::basic_string<char,std::char_traits<char>,std::allocator<char> >::_Tidy_init

; 2390 :         assign(_Right, _Roff, _Count);

  00064	ff 75 10	 push	 DWORD PTR __Count$[ebp]
  00067	ff 75 0c	 push	 DWORD PTR __Off$[ebp]
  0006a	ff 75 e8	 push	 DWORD PTR _this$[ebp]
  0006d	8b 4d 08	 mov	 ecx, DWORD PTR ___$ReturnUdt$[ebp]
  00070	e8 00 00 00 00	 call	 ?assign@?$basic_string@DU?$char_traits@D@std@@V?$allocator@D@2@@std@@QAEAAV12@ABV12@II@Z ; std::basic_string<char,std::char_traits<char>,std::allocator<char> >::assign

; 2391 :         _Proxy._Release();
; 2392 :     }

  00075	83 4d fc ff	 or	 DWORD PTR __$EHRec$[ebp+8], -1

; 4170 :         // return [_Off, _Off + _Count) as new string
; 4171 :         return basic_string(*this, _Off, _Count, get_allocator());

  00079	8b 45 e4	 mov	 eax, DWORD PTR $T5[ebp]
  0007c	83 c8 01	 or	 eax, 1
  0007f	89 45 e4	 mov	 DWORD PTR $T5[ebp], eax
  00082	8b 45 08	 mov	 eax, DWORD PTR ___$ReturnUdt$[ebp]

; 4172 :     }

  00085	8b 4d f4	 mov	 ecx, DWORD PTR __$EHRec$[ebp]
  00088	64 89 0d 00 00
	00 00		 mov	 DWORD PTR fs:0, ecx
  0008f	59		 pop	 ecx
  00090	c9		 leave
  00091	c2 0c 00	 ret	 12			; 0000000cH
_TEXT	ENDS
;	COMDAT text$x
text$x	SEGMENT
__unwindfunclet$?substr@?$basic_string@DU?$char_traits@D@std@@V?$allocator@D@2@@std@@QBE?AV12@II@Z$4:
  00000	8b 4d 08	 mov	 ecx, DWORD PTR ___$ReturnUdt$[ebp]
  00003	e9 00 00 00 00	 jmp	 ??1?$_Compressed_pair@V?$allocator@D@std@@V?$_String_val@U?$_Simple_types@D@std@@@2@$00@std@@QAE@XZ
  00008	cc		 int	 3
  00009	cc		 int	 3
  0000a	cc		 int	 3
  0000b	cc		 int	 3
  0000c	cc		 int	 3
__ehhandler$?substr@?$basic_string@DU?$char_traits@D@std@@V?$allocator@D@2@@std@@QBE?AV12@II@Z:
  0000d	90		 npad	 1
  0000e	90		 npad	 1
  0000f	8b 54 24 08	 mov	 edx, DWORD PTR [esp+8]
  00013	8d 42 0c	 lea	 eax, DWORD PTR [edx+12]
  00016	8b 4a dc	 mov	 ecx, DWORD PTR [edx-36]
  00019	33 c8		 xor	 ecx, eax
  0001b	e8 00 00 00 00	 call	 @__security_check_cookie@4
  00020	b8 00 00 00 00	 mov	 eax, OFFSET __ehfuncinfo$?substr@?$basic_string@DU?$char_traits@D@std@@V?$allocator@D@2@@std@@QBE?AV12@II@Z
  00025	e9 00 00 00 00	 jmp	 ___CxxFrameHandler3
text$x	ENDS
?substr@?$basic_string@DU?$char_traits@D@std@@V?$allocator@D@2@@std@@QBE?AV12@II@Z ENDP ; std::basic_string<char,std::char_traits<char>,std::allocator<char> >::substr
; Function compile flags: /Odspy
; File C:\Program Files (x86)\Microsoft Visual Studio\2019\Community\VC\Tools\MSVC\14.28.29333\include\xstring
; File C:\Program Files (x86)\Microsoft Visual Studio\2019\Community\VC\Tools\MSVC\14.28.29333\include\xstddef
; File C:\Program Files (x86)\Microsoft Visual Studio\2019\Community\VC\Tools\MSVC\14.28.29333\include\xstring
;	COMDAT ?find_first_not_of@?$basic_string@DU?$char_traits@D@std@@V?$allocator@D@2@@std@@QBEIQBDI@Z
_TEXT	SEGMENT
$T1 = -36						; size = 1
$T2 = -32						; size = 4
$T3 = -28						; size = 4
__Ptr$ = -24						; size = 4
_this$ = -20						; size = 4
__Result$4 = -16					; size = 4
tv129 = -12						; size = 4
_this$ = -8						; size = 4
$T5 = -1						; size = 1
__Ptr$ = 8						; size = 4
__Off$ = 12						; size = 4
?find_first_not_of@?$basic_string@DU?$char_traits@D@std@@V?$allocator@D@2@@std@@QBEIQBDI@Z PROC ; std::basic_string<char,std::char_traits<char>,std::allocator<char> >::find_first_not_of, COMDAT
; _this$ = ecx

; 4111 :     /* strengthened */ {

  00000	55		 push	 ebp
  00001	8b ec		 mov	 ebp, esp
  00003	83 ec 24	 sub	 esp, 36			; 00000024H
  00006	89 4d ec	 mov	 DWORD PTR _this$[ebp], ecx

; 389  :         return _CSTD strlen(reinterpret_cast<const char*>(_First));

  00009	ff 75 08	 push	 DWORD PTR __Ptr$[ebp]
  0000c	e8 00 00 00 00	 call	 _strlen
  00011	59		 pop	 ecx
  00012	89 45 e4	 mov	 DWORD PTR $T3[ebp], eax

; 4112 :         // look for one of [_Ptr, <null>) at or after _Off
; 4113 :         return static_cast<size_type>(_Traits_find_first_not_of<_Traits>(_Mypair._Myval2._Myptr(),

  00015	8b 45 ec	 mov	 eax, DWORD PTR _this$[ebp]
  00018	89 45 f8	 mov	 DWORD PTR _this$[ebp], eax

; 2218 :         const value_type* _Result = _Bx._Buf;

  0001b	8b 45 f8	 mov	 eax, DWORD PTR _this$[ebp]
  0001e	89 45 f0	 mov	 DWORD PTR __Result$4[ebp], eax

; 2227 :         return _BUF_SIZE <= _Myres;

  00021	8b 45 f8	 mov	 eax, DWORD PTR _this$[ebp]
  00024	83 78 14 10	 cmp	 DWORD PTR [eax+20], 16	; 00000010H
  00028	72 09		 jb	 SHORT $LN12@find_first
  0002a	c7 45 f4 01 00
	00 00		 mov	 DWORD PTR tv129[ebp], 1
  00031	eb 04		 jmp	 SHORT $LN13@find_first
$LN12@find_first:
  00033	83 65 f4 00	 and	 DWORD PTR tv129[ebp], 0
$LN13@find_first:
  00037	8a 45 f4	 mov	 al, BYTE PTR tv129[ebp]
  0003a	88 45 ff	 mov	 BYTE PTR $T5[ebp], al

; 2219 :         if (_Large_string_engaged()) {

  0003d	0f b6 45 ff	 movzx	 eax, BYTE PTR $T5[ebp]
  00041	85 c0		 test	 eax, eax
  00043	74 0e		 je	 SHORT $LN7@find_first

; 2220 :             _Result = _Unfancy(_Bx._Ptr);

  00045	8b 45 f8	 mov	 eax, DWORD PTR _this$[ebp]
  00048	8b 00		 mov	 eax, DWORD PTR [eax]
  0004a	89 45 e8	 mov	 DWORD PTR __Ptr$[ebp], eax
; File C:\Program Files (x86)\Microsoft Visual Studio\2019\Community\VC\Tools\MSVC\14.28.29333\include\xstddef

; 289  :     return _Ptr;

  0004d	8b 45 e8	 mov	 eax, DWORD PTR __Ptr$[ebp]
  00050	89 45 f0	 mov	 DWORD PTR __Result$4[ebp], eax
$LN7@find_first:
; File C:\Program Files (x86)\Microsoft Visual Studio\2019\Community\VC\Tools\MSVC\14.28.29333\include\xstring

; 2223 :         return _Result;

  00053	8b 45 f0	 mov	 eax, DWORD PTR __Result$4[ebp]
  00056	89 45 e0	 mov	 DWORD PTR $T2[ebp], eax

; 4112 :         // look for one of [_Ptr, <null>) at or after _Off
; 4113 :         return static_cast<size_type>(_Traits_find_first_not_of<_Traits>(_Mypair._Myval2._Myptr(),

  00059	ff 75 dc	 push	 DWORD PTR $T1[ebp]
  0005c	ff 75 e4	 push	 DWORD PTR $T3[ebp]
  0005f	ff 75 08	 push	 DWORD PTR __Ptr$[ebp]
  00062	ff 75 0c	 push	 DWORD PTR __Off$[ebp]
  00065	8b 45 ec	 mov	 eax, DWORD PTR _this$[ebp]
  00068	ff 70 10	 push	 DWORD PTR [eax+16]
  0006b	ff 75 e0	 push	 DWORD PTR $T2[ebp]
  0006e	e8 00 00 00 00	 call	 ??$_Traits_find_first_not_of@U?$char_traits@D@std@@@std@@YAIQBDII0IU?$integral_constant@_N$00@0@@Z ; std::_Traits_find_first_not_of<std::char_traits<char> >
  00073	83 c4 18	 add	 esp, 24			; 00000018H

; 4114 :             _Mypair._Myval2._Mysize, _Off, _Ptr, _Traits::length(_Ptr), _Is_specialization<_Traits, char_traits>{}));
; 4115 :     }

  00076	c9		 leave
  00077	c2 08 00	 ret	 8
?find_first_not_of@?$basic_string@DU?$char_traits@D@std@@V?$allocator@D@2@@std@@QBEIQBDI@Z ENDP ; std::basic_string<char,std::char_traits<char>,std::allocator<char> >::find_first_not_of
_TEXT	ENDS
; Function compile flags: /Odspy
; File C:\Program Files (x86)\Microsoft Visual Studio\2019\Community\VC\Tools\MSVC\14.28.29333\include\xstring
; File C:\Program Files (x86)\Microsoft Visual Studio\2019\Community\VC\Tools\MSVC\14.28.29333\include\xstddef
; File C:\Program Files (x86)\Microsoft Visual Studio\2019\Community\VC\Tools\MSVC\14.28.29333\include\xstring
;	COMDAT ?find_first_of@?$basic_string@DU?$char_traits@D@std@@V?$allocator@D@2@@std@@QBEIQBDI@Z
_TEXT	SEGMENT
$T1 = -36						; size = 1
$T2 = -32						; size = 4
$T3 = -28						; size = 4
__Ptr$ = -24						; size = 4
_this$ = -20						; size = 4
__Result$4 = -16					; size = 4
tv129 = -12						; size = 4
_this$ = -8						; size = 4
$T5 = -1						; size = 1
__Ptr$ = 8						; size = 4
__Off$ = 12						; size = 4
?find_first_of@?$basic_string@DU?$char_traits@D@std@@V?$allocator@D@2@@std@@QBEIQBDI@Z PROC ; std::basic_string<char,std::char_traits<char>,std::allocator<char> >::find_first_of, COMDAT
; _this$ = ecx

; 4036 :     /* strengthened */ {

  00000	55		 push	 ebp
  00001	8b ec		 mov	 ebp, esp
  00003	83 ec 24	 sub	 esp, 36			; 00000024H
  00006	89 4d ec	 mov	 DWORD PTR _this$[ebp], ecx

; 389  :         return _CSTD strlen(reinterpret_cast<const char*>(_First));

  00009	ff 75 08	 push	 DWORD PTR __Ptr$[ebp]
  0000c	e8 00 00 00 00	 call	 _strlen
  00011	59		 pop	 ecx
  00012	89 45 e4	 mov	 DWORD PTR $T3[ebp], eax

; 4037 :         // look for one of [_Ptr, <null>) at or after _Off
; 4038 :         return static_cast<size_type>(_Traits_find_first_of<_Traits>(_Mypair._Myval2._Myptr(), _Mypair._Myval2._Mysize,

  00015	8b 45 ec	 mov	 eax, DWORD PTR _this$[ebp]
  00018	89 45 f8	 mov	 DWORD PTR _this$[ebp], eax

; 2218 :         const value_type* _Result = _Bx._Buf;

  0001b	8b 45 f8	 mov	 eax, DWORD PTR _this$[ebp]
  0001e	89 45 f0	 mov	 DWORD PTR __Result$4[ebp], eax

; 2227 :         return _BUF_SIZE <= _Myres;

  00021	8b 45 f8	 mov	 eax, DWORD PTR _this$[ebp]
  00024	83 78 14 10	 cmp	 DWORD PTR [eax+20], 16	; 00000010H
  00028	72 09		 jb	 SHORT $LN12@find_first
  0002a	c7 45 f4 01 00
	00 00		 mov	 DWORD PTR tv129[ebp], 1
  00031	eb 04		 jmp	 SHORT $LN13@find_first
$LN12@find_first:
  00033	83 65 f4 00	 and	 DWORD PTR tv129[ebp], 0
$LN13@find_first:
  00037	8a 45 f4	 mov	 al, BYTE PTR tv129[ebp]
  0003a	88 45 ff	 mov	 BYTE PTR $T5[ebp], al

; 2219 :         if (_Large_string_engaged()) {

  0003d	0f b6 45 ff	 movzx	 eax, BYTE PTR $T5[ebp]
  00041	85 c0		 test	 eax, eax
  00043	74 0e		 je	 SHORT $LN7@find_first

; 2220 :             _Result = _Unfancy(_Bx._Ptr);

  00045	8b 45 f8	 mov	 eax, DWORD PTR _this$[ebp]
  00048	8b 00		 mov	 eax, DWORD PTR [eax]
  0004a	89 45 e8	 mov	 DWORD PTR __Ptr$[ebp], eax
; File C:\Program Files (x86)\Microsoft Visual Studio\2019\Community\VC\Tools\MSVC\14.28.29333\include\xstddef

; 289  :     return _Ptr;

  0004d	8b 45 e8	 mov	 eax, DWORD PTR __Ptr$[ebp]
  00050	89 45 f0	 mov	 DWORD PTR __Result$4[ebp], eax
$LN7@find_first:
; File C:\Program Files (x86)\Microsoft Visual Studio\2019\Community\VC\Tools\MSVC\14.28.29333\include\xstring

; 2223 :         return _Result;

  00053	8b 45 f0	 mov	 eax, DWORD PTR __Result$4[ebp]
  00056	89 45 e0	 mov	 DWORD PTR $T2[ebp], eax

; 4037 :         // look for one of [_Ptr, <null>) at or after _Off
; 4038 :         return static_cast<size_type>(_Traits_find_first_of<_Traits>(_Mypair._Myval2._Myptr(), _Mypair._Myval2._Mysize,

  00059	ff 75 dc	 push	 DWORD PTR $T1[ebp]
  0005c	ff 75 e4	 push	 DWORD PTR $T3[ebp]
  0005f	ff 75 08	 push	 DWORD PTR __Ptr$[ebp]
  00062	ff 75 0c	 push	 DWORD PTR __Off$[ebp]
  00065	8b 45 ec	 mov	 eax, DWORD PTR _this$[ebp]
  00068	ff 70 10	 push	 DWORD PTR [eax+16]
  0006b	ff 75 e0	 push	 DWORD PTR $T2[ebp]
  0006e	e8 00 00 00 00	 call	 ??$_Traits_find_first_of@U?$char_traits@D@std@@@std@@YAIQBDII0IU?$integral_constant@_N$00@0@@Z ; std::_Traits_find_first_of<std::char_traits<char> >
  00073	83 c4 18	 add	 esp, 24			; 00000018H

; 4039 :             _Off, _Ptr, _Traits::length(_Ptr), _Is_specialization<_Traits, char_traits>{}));
; 4040 :     }

  00076	c9		 leave
  00077	c2 08 00	 ret	 8
?find_first_of@?$basic_string@DU?$char_traits@D@std@@V?$allocator@D@2@@std@@QBEIQBDI@Z ENDP ; std::basic_string<char,std::char_traits<char>,std::allocator<char> >::find_first_of
_TEXT	ENDS
; Function compile flags: /Odspy
; File C:\Program Files (x86)\Microsoft Visual Studio\2019\Community\VC\Tools\MSVC\14.28.29333\include\xstring
;	COMDAT ?reserve@?$basic_string@DU?$char_traits@D@std@@V?$allocator@D@2@@std@@QAEXI@Z
_TEXT	SEGMENT
$T1 = -20						; size = 1
tv131 = -16						; size = 4
__Old_size$2 = -12					; size = 4
_this$ = -8						; size = 4
$T3 = -1						; size = 1
__Newcap$ = 8						; size = 4
?reserve@?$basic_string@DU?$char_traits@D@std@@V?$allocator@D@2@@std@@QAEXI@Z PROC ; std::basic_string<char,std::char_traits<char>,std::allocator<char> >::reserve, COMDAT
; _this$ = ecx

; 3817 :     void reserve(_CRT_GUARDOVERFLOW const size_type _Newcap = 0) { // determine new minimum length of allocated storage

  00000	55		 push	 ebp
  00001	8b ec		 mov	 ebp, esp
  00003	83 ec 14	 sub	 esp, 20			; 00000014H
  00006	89 4d f8	 mov	 DWORD PTR _this$[ebp], ecx

; 3818 :         if (_Mypair._Myval2._Mysize > _Newcap) { // requested capacity is not large enough for current size, ignore

  00009	8b 45 f8	 mov	 eax, DWORD PTR _this$[ebp]
  0000c	8b 40 10	 mov	 eax, DWORD PTR [eax+16]
  0000f	3b 45 08	 cmp	 eax, DWORD PTR __Newcap$[ebp]
  00012	76 02		 jbe	 SHORT $LN2@reserve

; 3819 :             return; // nothing to do

  00014	eb 75		 jmp	 SHORT $LN1@reserve
$LN2@reserve:

; 3820 :         }
; 3821 : 
; 3822 :         if (_Mypair._Myval2._Myres == _Newcap) { // we're already at the requested capacity

  00016	8b 45 f8	 mov	 eax, DWORD PTR _this$[ebp]
  00019	8b 40 14	 mov	 eax, DWORD PTR [eax+20]
  0001c	3b 45 08	 cmp	 eax, DWORD PTR __Newcap$[ebp]
  0001f	75 02		 jne	 SHORT $LN3@reserve

; 3823 :             return; // nothing to do

  00021	eb 68		 jmp	 SHORT $LN1@reserve
$LN3@reserve:

; 3824 :         }
; 3825 : 
; 3826 :         if (_Mypair._Myval2._Myres < _Newcap) { // reallocate to grow

  00023	8b 45 f8	 mov	 eax, DWORD PTR _this$[ebp]
  00026	8b 40 14	 mov	 eax, DWORD PTR [eax+20]
  00029	3b 45 08	 cmp	 eax, DWORD PTR __Newcap$[ebp]
  0002c	73 2b		 jae	 SHORT $LN4@reserve

; 3827 :             const size_type _Old_size = _Mypair._Myval2._Mysize;

  0002e	8b 45 f8	 mov	 eax, DWORD PTR _this$[ebp]
  00031	8b 40 10	 mov	 eax, DWORD PTR [eax+16]
  00034	89 45 f4	 mov	 DWORD PTR __Old_size$2[ebp], eax

; 3828 :             _Reallocate_grow_by(

  00037	33 c0		 xor	 eax, eax
  00039	88 45 ec	 mov	 BYTE PTR $T1[ebp], al
  0003c	ff 75 ec	 push	 DWORD PTR $T1[ebp]
  0003f	8b 45 08	 mov	 eax, DWORD PTR __Newcap$[ebp]
  00042	2b 45 f4	 sub	 eax, DWORD PTR __Old_size$2[ebp]
  00045	50		 push	 eax
  00046	8b 4d f8	 mov	 ecx, DWORD PTR _this$[ebp]
  00049	e8 00 00 00 00	 call	 ??$_Reallocate_grow_by@V<lambda_67d87d4aa1269033985980465fd1d824>@@$$V@?$basic_string@DU?$char_traits@D@std@@V?$allocator@D@2@@std@@AAEAAV01@IV<lambda_67d87d4aa1269033985980465fd1d824>@@@Z ; std::basic_string<char,std::char_traits<char>,std::allocator<char> >::_Reallocate_grow_by<<lambda_67d87d4aa1269033985980465fd1d824> >

; 3829 :                 _Newcap - _Old_size, [](_Elem* const _New_ptr, const _Elem* const _Old_ptr, const size_type _Old_size) {
; 3830 :                     _Traits::copy(_New_ptr, _Old_ptr, _Old_size + 1);
; 3831 :                 });
; 3832 : 
; 3833 :             _Mypair._Myval2._Mysize = _Old_size;

  0004e	8b 45 f8	 mov	 eax, DWORD PTR _this$[ebp]
  00051	8b 4d f4	 mov	 ecx, DWORD PTR __Old_size$2[ebp]
  00054	89 48 10	 mov	 DWORD PTR [eax+16], ecx

; 3834 :             return;

  00057	eb 32		 jmp	 SHORT $LN1@reserve
$LN4@reserve:

; 3835 :         }
; 3836 : 
; 3837 :         if (_BUF_SIZE > _Newcap && _Mypair._Myval2._Large_string_engaged()) {

  00059	83 7d 08 10	 cmp	 DWORD PTR __Newcap$[ebp], 16 ; 00000010H
  0005d	73 2c		 jae	 SHORT $LN1@reserve

; 2227 :         return _BUF_SIZE <= _Myres;

  0005f	8b 45 f8	 mov	 eax, DWORD PTR _this$[ebp]
  00062	83 78 14 10	 cmp	 DWORD PTR [eax+20], 16	; 00000010H
  00066	72 09		 jb	 SHORT $LN9@reserve
  00068	c7 45 f0 01 00
	00 00		 mov	 DWORD PTR tv131[ebp], 1
  0006f	eb 04		 jmp	 SHORT $LN10@reserve
$LN9@reserve:
  00071	83 65 f0 00	 and	 DWORD PTR tv131[ebp], 0
$LN10@reserve:
  00075	8a 45 f0	 mov	 al, BYTE PTR tv131[ebp]
  00078	88 45 ff	 mov	 BYTE PTR $T3[ebp], al

; 3835 :         }
; 3836 : 
; 3837 :         if (_BUF_SIZE > _Newcap && _Mypair._Myval2._Large_string_engaged()) {

  0007b	0f b6 45 ff	 movzx	 eax, BYTE PTR $T3[ebp]
  0007f	85 c0		 test	 eax, eax
  00081	74 08		 je	 SHORT $LN1@reserve

; 3838 :             // deallocate everything; switch back to "small" mode
; 3839 :             _Become_small();

  00083	8b 4d f8	 mov	 ecx, DWORD PTR _this$[ebp]
  00086	e8 00 00 00 00	 call	 ?_Become_small@?$basic_string@DU?$char_traits@D@std@@V?$allocator@D@2@@std@@AAEXXZ ; std::basic_string<char,std::char_traits<char>,std::allocator<char> >::_Become_small
$LN1@reserve:

; 3840 :             return;
; 3841 :         }
; 3842 : 
; 3843 :         // ignore requests to reserve to [_BUF_SIZE, _Myres)
; 3844 :     }

  0008b	c9		 leave
  0008c	c2 04 00	 ret	 4
?reserve@?$basic_string@DU?$char_traits@D@std@@V?$allocator@D@2@@std@@QAEXI@Z ENDP ; std::basic_string<char,std::char_traits<char>,std::allocator<char> >::reserve
_TEXT	ENDS
; Function compile flags: /Odspy
; File C:\Program Files (x86)\Microsoft Visual Studio\2019\Community\VC\Tools\MSVC\14.28.29333\include\xstring
; File C:\Program Files (x86)\Microsoft Visual Studio\2019\Community\VC\Tools\MSVC\14.28.29333\include\xmemory
; File C:\Program Files (x86)\Microsoft Visual Studio\2019\Community\VC\Tools\MSVC\14.28.29333\include\xstring
; File C:\Program Files (x86)\Microsoft Visual Studio\2019\Community\VC\Tools\MSVC\14.28.29333\include\xmemory
; File C:\Program Files (x86)\Microsoft Visual Studio\2019\Community\VC\Tools\MSVC\14.28.29333\include\xstring
; File C:\Program Files (x86)\Microsoft Visual Studio\2019\Community\VC\Tools\MSVC\14.28.29333\include\utility
; File C:\Program Files (x86)\Microsoft Visual Studio\2019\Community\VC\Tools\MSVC\14.28.29333\include\xstring
; File C:\Program Files (x86)\Microsoft Visual Studio\2019\Community\VC\Tools\MSVC\14.28.29333\include\limits
; File C:\Program Files (x86)\Microsoft Visual Studio\2019\Community\VC\Tools\MSVC\14.28.29333\include\xstring
; File C:\Program Files (x86)\Microsoft Visual Studio\2019\Community\VC\Tools\MSVC\14.28.29333\include\utility
; File C:\Program Files (x86)\Microsoft Visual Studio\2019\Community\VC\Tools\MSVC\14.28.29333\include\xstring
;	COMDAT ?max_size@?$basic_string@DU?$char_traits@D@std@@V?$allocator@D@2@@std@@QBEIXZ
_TEXT	SEGMENT
$T1 = -60						; size = 4
$T2 = -56						; size = 4
$T3 = -52						; size = 4
$T4 = -48						; size = 4
__Storage_max$ = -44					; size = 4
$T5 = -40						; size = 4
$T6 = -36						; size = 4
$T7 = -32						; size = 4
_this$ = -28						; size = 4
tv70 = -24						; size = 4
$T8 = -20						; size = 4
$T9 = -16						; size = 4
tv67 = -12						; size = 4
__Alloc_max$ = -8					; size = 4
$T10 = -4						; size = 4
?max_size@?$basic_string@DU?$char_traits@D@std@@V?$allocator@D@2@@std@@QBEIXZ PROC ; std::basic_string<char,std::char_traits<char>,std::allocator<char> >::max_size, COMDAT
; _this$ = ecx

; 3773 :     _NODISCARD size_type max_size() const noexcept {

  00000	55		 push	 ebp
  00001	8b ec		 mov	 ebp, esp
  00003	83 ec 3c	 sub	 esp, 60			; 0000003cH
  00006	89 4d e4	 mov	 DWORD PTR _this$[ebp], ecx

; 4413 :         return _Mypair._Get_first();

  00009	8b 45 e4	 mov	 eax, DWORD PTR _this$[ebp]
; File C:\Program Files (x86)\Microsoft Visual Studio\2019\Community\VC\Tools\MSVC\14.28.29333\include\xmemory

; 1351 :         return *this;

  0000c	89 45 e0	 mov	 DWORD PTR $T7[ebp], eax
; File C:\Program Files (x86)\Microsoft Visual Studio\2019\Community\VC\Tools\MSVC\14.28.29333\include\xstring

; 4413 :         return _Mypair._Get_first();

  0000f	8b 45 e0	 mov	 eax, DWORD PTR $T7[ebp]
  00012	89 45 c4	 mov	 DWORD PTR $T1[ebp], eax
; File C:\Program Files (x86)\Microsoft Visual Studio\2019\Community\VC\Tools\MSVC\14.28.29333\include\xmemory

; 710  :         return static_cast<size_t>(-1) / sizeof(value_type);

  00015	83 4d f8 ff	 or	 DWORD PTR __Alloc_max$[ebp], -1
; File C:\Program Files (x86)\Microsoft Visual Studio\2019\Community\VC\Tools\MSVC\14.28.29333\include\xstring

; 3775 :         const size_type _Storage_max = // can always store small string

  00019	c7 45 fc 10 00
	00 00		 mov	 DWORD PTR $T10[ebp], 16	; 00000010H
; File C:\Program Files (x86)\Microsoft Visual Studio\2019\Community\VC\Tools\MSVC\14.28.29333\include\utility

; 44   :     return _Left < _Right ? _Right : _Left;

  00020	8b 45 f8	 mov	 eax, DWORD PTR __Alloc_max$[ebp]
  00023	3b 45 fc	 cmp	 eax, DWORD PTR $T10[ebp]
  00026	73 08		 jae	 SHORT $LN14@max_size
  00028	8d 45 fc	 lea	 eax, DWORD PTR $T10[ebp]
  0002b	89 45 f4	 mov	 DWORD PTR tv67[ebp], eax
  0002e	eb 06		 jmp	 SHORT $LN15@max_size
$LN14@max_size:
  00030	8d 45 f8	 lea	 eax, DWORD PTR __Alloc_max$[ebp]
  00033	89 45 f4	 mov	 DWORD PTR tv67[ebp], eax
$LN15@max_size:
  00036	8b 45 f4	 mov	 eax, DWORD PTR tv67[ebp]
  00039	89 45 dc	 mov	 DWORD PTR $T6[ebp], eax
  0003c	8b 45 dc	 mov	 eax, DWORD PTR $T6[ebp]
  0003f	89 45 d8	 mov	 DWORD PTR $T5[ebp], eax
; File C:\Program Files (x86)\Microsoft Visual Studio\2019\Community\VC\Tools\MSVC\14.28.29333\include\xstring

; 3775 :         const size_type _Storage_max = // can always store small string

  00042	8b 45 d8	 mov	 eax, DWORD PTR $T5[ebp]
  00045	8b 00		 mov	 eax, DWORD PTR [eax]
  00047	89 45 d4	 mov	 DWORD PTR __Storage_max$[ebp], eax

; 3777 :         return (_STD min)(static_cast<size_type>((numeric_limits<difference_type>::max)()),

  0004a	8b 45 d4	 mov	 eax, DWORD PTR __Storage_max$[ebp]
  0004d	48		 dec	 eax
  0004e	89 45 f0	 mov	 DWORD PTR $T9[ebp], eax
; File C:\Program Files (x86)\Microsoft Visual Studio\2019\Community\VC\Tools\MSVC\14.28.29333\include\limits

; 557  :         return INT_MAX;

  00051	c7 45 d0 ff ff
	ff 7f		 mov	 DWORD PTR $T4[ebp], 2147483647 ; 7fffffffH
; File C:\Program Files (x86)\Microsoft Visual Studio\2019\Community\VC\Tools\MSVC\14.28.29333\include\xstring

; 3777 :         return (_STD min)(static_cast<size_type>((numeric_limits<difference_type>::max)()),

  00058	8b 45 d0	 mov	 eax, DWORD PTR $T4[ebp]
  0005b	89 45 ec	 mov	 DWORD PTR $T8[ebp], eax
; File C:\Program Files (x86)\Microsoft Visual Studio\2019\Community\VC\Tools\MSVC\14.28.29333\include\utility

; 68   :     return _Right < _Left ? _Right : _Left;

  0005e	8b 45 f0	 mov	 eax, DWORD PTR $T9[ebp]
  00061	3b 45 ec	 cmp	 eax, DWORD PTR $T8[ebp]
  00064	73 08		 jae	 SHORT $LN22@max_size
  00066	8d 45 f0	 lea	 eax, DWORD PTR $T9[ebp]
  00069	89 45 e8	 mov	 DWORD PTR tv70[ebp], eax
  0006c	eb 06		 jmp	 SHORT $LN23@max_size
$LN22@max_size:
  0006e	8d 45 ec	 lea	 eax, DWORD PTR $T8[ebp]
  00071	89 45 e8	 mov	 DWORD PTR tv70[ebp], eax
$LN23@max_size:
  00074	8b 45 e8	 mov	 eax, DWORD PTR tv70[ebp]
  00077	89 45 cc	 mov	 DWORD PTR $T3[ebp], eax
  0007a	8b 45 cc	 mov	 eax, DWORD PTR $T3[ebp]
  0007d	89 45 c8	 mov	 DWORD PTR $T2[ebp], eax
; File C:\Program Files (x86)\Microsoft Visual Studio\2019\Community\VC\Tools\MSVC\14.28.29333\include\xstring

; 3777 :         return (_STD min)(static_cast<size_type>((numeric_limits<difference_type>::max)()),

  00080	8b 45 c8	 mov	 eax, DWORD PTR $T2[ebp]
  00083	8b 00		 mov	 eax, DWORD PTR [eax]

; 3778 :             _Storage_max - 1 // -1 is for null terminator and/or npos
; 3779 :         );
; 3780 :     }

  00085	c9		 leave
  00086	c3		 ret	 0
?max_size@?$basic_string@DU?$char_traits@D@std@@V?$allocator@D@2@@std@@QBEIXZ ENDP ; std::basic_string<char,std::char_traits<char>,std::allocator<char> >::max_size
_TEXT	ENDS
; Function compile flags: /Odspy
; File C:\Program Files (x86)\Microsoft Visual Studio\2019\Community\VC\Tools\MSVC\14.28.29333\include\xstring
; File C:\Program Files (x86)\Microsoft Visual Studio\2019\Community\VC\Tools\MSVC\14.28.29333\include\xstddef
; File C:\Program Files (x86)\Microsoft Visual Studio\2019\Community\VC\Tools\MSVC\14.28.29333\include\xstring
;	COMDAT ?c_str@?$basic_string@DU?$char_traits@D@std@@V?$allocator@D@2@@std@@QBEPBDXZ
_TEXT	SEGMENT
$T1 = -28						; size = 4
__Ptr$ = -24						; size = 4
_this$ = -20						; size = 4
__Result$2 = -16					; size = 4
tv80 = -12						; size = 4
_this$ = -8						; size = 4
$T3 = -1						; size = 1
?c_str@?$basic_string@DU?$char_traits@D@std@@V?$allocator@D@2@@std@@QBEPBDXZ PROC ; std::basic_string<char,std::char_traits<char>,std::allocator<char> >::c_str, COMDAT
; _this$ = ecx

; 3751 :     _NODISCARD _Ret_z_ const _Elem* c_str() const noexcept {

  00000	55		 push	 ebp
  00001	8b ec		 mov	 ebp, esp
  00003	83 ec 1c	 sub	 esp, 28			; 0000001cH
  00006	89 4d ec	 mov	 DWORD PTR _this$[ebp], ecx

; 3752 :         return _Mypair._Myval2._Myptr();

  00009	8b 45 ec	 mov	 eax, DWORD PTR _this$[ebp]
  0000c	89 45 f8	 mov	 DWORD PTR _this$[ebp], eax

; 2218 :         const value_type* _Result = _Bx._Buf;

  0000f	8b 45 f8	 mov	 eax, DWORD PTR _this$[ebp]
  00012	89 45 f0	 mov	 DWORD PTR __Result$2[ebp], eax

; 2227 :         return _BUF_SIZE <= _Myres;

  00015	8b 45 f8	 mov	 eax, DWORD PTR _this$[ebp]
  00018	83 78 14 10	 cmp	 DWORD PTR [eax+20], 16	; 00000010H
  0001c	72 09		 jb	 SHORT $LN9@c_str
  0001e	c7 45 f4 01 00
	00 00		 mov	 DWORD PTR tv80[ebp], 1
  00025	eb 04		 jmp	 SHORT $LN10@c_str
$LN9@c_str:
  00027	83 65 f4 00	 and	 DWORD PTR tv80[ebp], 0
$LN10@c_str:
  0002b	8a 45 f4	 mov	 al, BYTE PTR tv80[ebp]
  0002e	88 45 ff	 mov	 BYTE PTR $T3[ebp], al

; 2219 :         if (_Large_string_engaged()) {

  00031	0f b6 45 ff	 movzx	 eax, BYTE PTR $T3[ebp]
  00035	85 c0		 test	 eax, eax
  00037	74 0e		 je	 SHORT $LN4@c_str

; 2220 :             _Result = _Unfancy(_Bx._Ptr);

  00039	8b 45 f8	 mov	 eax, DWORD PTR _this$[ebp]
  0003c	8b 00		 mov	 eax, DWORD PTR [eax]
  0003e	89 45 e8	 mov	 DWORD PTR __Ptr$[ebp], eax
; File C:\Program Files (x86)\Microsoft Visual Studio\2019\Community\VC\Tools\MSVC\14.28.29333\include\xstddef

; 289  :     return _Ptr;

  00041	8b 45 e8	 mov	 eax, DWORD PTR __Ptr$[ebp]
  00044	89 45 f0	 mov	 DWORD PTR __Result$2[ebp], eax
$LN4@c_str:
; File C:\Program Files (x86)\Microsoft Visual Studio\2019\Community\VC\Tools\MSVC\14.28.29333\include\xstring

; 2223 :         return _Result;

  00047	8b 45 f0	 mov	 eax, DWORD PTR __Result$2[ebp]
  0004a	89 45 e4	 mov	 DWORD PTR $T1[ebp], eax

; 3752 :         return _Mypair._Myval2._Myptr();

  0004d	8b 45 e4	 mov	 eax, DWORD PTR $T1[ebp]

; 3753 :     }

  00050	c9		 leave
  00051	c3		 ret	 0
?c_str@?$basic_string@DU?$char_traits@D@std@@V?$allocator@D@2@@std@@QBEPBDXZ ENDP ; std::basic_string<char,std::char_traits<char>,std::allocator<char> >::c_str
_TEXT	ENDS
; Function compile flags: /Odspy
; File C:\Program Files (x86)\Microsoft Visual Studio\2019\Community\VC\Tools\MSVC\14.28.29333\include\xstring
;	COMDAT ?push_back@?$basic_string@DU?$char_traits@D@std@@V?$allocator@D@2@@std@@QAEXD@Z
_TEXT	SEGMENT
$T1 = -20						; size = 1
__Ptr$2 = -16						; size = 4
__Old_size$ = -12					; size = 4
_this$ = -8						; size = 4
$T3 = -1						; size = 1
__Ch$ = 8						; size = 1
?push_back@?$basic_string@DU?$char_traits@D@std@@V?$allocator@D@2@@std@@QAEXD@Z PROC ; std::basic_string<char,std::char_traits<char>,std::allocator<char> >::push_back, COMDAT
; _this$ = ecx

; 3691 :     void push_back(const _Elem _Ch) { // insert element at end

  00000	55		 push	 ebp
  00001	8b ec		 mov	 ebp, esp
  00003	83 ec 14	 sub	 esp, 20			; 00000014H
  00006	89 4d f8	 mov	 DWORD PTR _this$[ebp], ecx

; 3692 :         const size_type _Old_size = _Mypair._Myval2._Mysize;

  00009	8b 45 f8	 mov	 eax, DWORD PTR _this$[ebp]
  0000c	8b 40 10	 mov	 eax, DWORD PTR [eax+16]
  0000f	89 45 f4	 mov	 DWORD PTR __Old_size$[ebp], eax

; 3693 :         if (_Old_size < _Mypair._Myval2._Myres) {

  00012	8b 45 f8	 mov	 eax, DWORD PTR _this$[ebp]
  00015	8b 4d f4	 mov	 ecx, DWORD PTR __Old_size$[ebp]
  00018	3b 48 14	 cmp	 ecx, DWORD PTR [eax+20]
  0001b	73 32		 jae	 SHORT $LN2@push_back

; 3694 :             _Mypair._Myval2._Mysize = _Old_size + 1;

  0001d	8b 45 f4	 mov	 eax, DWORD PTR __Old_size$[ebp]
  00020	40		 inc	 eax
  00021	8b 4d f8	 mov	 ecx, DWORD PTR _this$[ebp]
  00024	89 41 10	 mov	 DWORD PTR [ecx+16], eax

; 3695 :             _Elem* const _Ptr       = _Mypair._Myval2._Myptr();

  00027	8b 4d f8	 mov	 ecx, DWORD PTR _this$[ebp]
  0002a	e8 00 00 00 00	 call	 ?_Myptr@?$_String_val@U?$_Simple_types@D@std@@@std@@QAEPADXZ ; std::_String_val<std::_Simple_types<char> >::_Myptr
  0002f	89 45 f0	 mov	 DWORD PTR __Ptr$2[ebp], eax

; 428  :         _Left = _Right;

  00032	8b 45 f0	 mov	 eax, DWORD PTR __Ptr$2[ebp]
  00035	03 45 f4	 add	 eax, DWORD PTR __Old_size$[ebp]
  00038	8a 4d 08	 mov	 cl, BYTE PTR __Ch$[ebp]
  0003b	88 08		 mov	 BYTE PTR [eax], cl

; 3696 :             _Traits::assign(_Ptr[_Old_size], _Ch);
; 3697 :             _Traits::assign(_Ptr[_Old_size + 1], _Elem());

  0003d	c6 45 ff 00	 mov	 BYTE PTR $T3[ebp], 0

; 428  :         _Left = _Right;

  00041	8b 45 f0	 mov	 eax, DWORD PTR __Ptr$2[ebp]
  00044	03 45 f4	 add	 eax, DWORD PTR __Old_size$[ebp]
  00047	8a 4d ff	 mov	 cl, BYTE PTR $T3[ebp]
  0004a	88 48 01	 mov	 BYTE PTR [eax+1], cl

; 3698 :             return;

  0004d	eb 15		 jmp	 SHORT $LN1@push_back
$LN2@push_back:

; 3699 :         }
; 3700 : 
; 3701 :         _Reallocate_grow_by(

  0004f	33 c0		 xor	 eax, eax
  00051	88 45 ec	 mov	 BYTE PTR $T1[ebp], al
  00054	ff 75 08	 push	 DWORD PTR __Ch$[ebp]
  00057	ff 75 ec	 push	 DWORD PTR $T1[ebp]
  0005a	6a 01		 push	 1
  0005c	8b 4d f8	 mov	 ecx, DWORD PTR _this$[ebp]
  0005f	e8 00 00 00 00	 call	 ??$_Reallocate_grow_by@V<lambda_15711c68e099a15a58f4d77303cb286d>@@D@?$basic_string@DU?$char_traits@D@std@@V?$allocator@D@2@@std@@AAEAAV01@IV<lambda_15711c68e099a15a58f4d77303cb286d>@@D@Z ; std::basic_string<char,std::char_traits<char>,std::allocator<char> >::_Reallocate_grow_by<<lambda_15711c68e099a15a58f4d77303cb286d>,char>
$LN1@push_back:

; 3702 :             1,
; 3703 :             [](_Elem* const _New_ptr, const _Elem* const _Old_ptr, const size_type _Old_size, const _Elem _Ch) {
; 3704 :                 _Traits::copy(_New_ptr, _Old_ptr, _Old_size);
; 3705 :                 _Traits::assign(_New_ptr[_Old_size], _Ch);
; 3706 :                 _Traits::assign(_New_ptr[_Old_size + 1], _Elem());
; 3707 :             },
; 3708 :             _Ch);
; 3709 :     }

  00064	c9		 leave
  00065	c2 04 00	 ret	 4
?push_back@?$basic_string@DU?$char_traits@D@std@@V?$allocator@D@2@@std@@QAEXD@Z ENDP ; std::basic_string<char,std::char_traits<char>,std::allocator<char> >::push_back
_TEXT	ENDS
; Function compile flags: /Odspy
; File C:\Program Files (x86)\Microsoft Visual Studio\2019\Community\VC\Tools\MSVC\14.28.29333\include\xstring
; File C:\Program Files (x86)\Microsoft Visual Studio\2019\Community\VC\Tools\MSVC\14.28.29333\include\xstddef
; File C:\Program Files (x86)\Microsoft Visual Studio\2019\Community\VC\Tools\MSVC\14.28.29333\include\xstring
;	COMDAT ??A?$basic_string@DU?$char_traits@D@std@@V?$allocator@D@2@@std@@QAEAADI@Z
_TEXT	SEGMENT
$T1 = -28						; size = 4
__Ptr$ = -24						; size = 4
_this$ = -20						; size = 4
__Result$2 = -16					; size = 4
tv82 = -12						; size = 4
_this$ = -8						; size = 4
$T3 = -1						; size = 1
__Off$ = 8						; size = 4
??A?$basic_string@DU?$char_traits@D@std@@V?$allocator@D@2@@std@@QAEAADI@Z PROC ; std::basic_string<char,std::char_traits<char>,std::allocator<char> >::operator[], COMDAT
; _this$ = ecx

; 3670 :     _NODISCARD reference operator[](const size_type _Off) noexcept /* strengthened */ {

  00000	55		 push	 ebp
  00001	8b ec		 mov	 ebp, esp
  00003	83 ec 1c	 sub	 esp, 28			; 0000001cH
  00006	89 4d ec	 mov	 DWORD PTR _this$[ebp], ecx

; 3671 : #if _CONTAINER_DEBUG_LEVEL > 0
; 3672 :         _STL_VERIFY(_Off <= _Mypair._Myval2._Mysize, "string subscript out of range");
; 3673 : #endif // _CONTAINER_DEBUG_LEVEL > 0
; 3674 :         return _Mypair._Myval2._Myptr()[_Off];

  00009	8b 45 ec	 mov	 eax, DWORD PTR _this$[ebp]
  0000c	89 45 f8	 mov	 DWORD PTR _this$[ebp], eax

; 2209 :         value_type* _Result = _Bx._Buf;

  0000f	8b 45 f8	 mov	 eax, DWORD PTR _this$[ebp]
  00012	89 45 f0	 mov	 DWORD PTR __Result$2[ebp], eax

; 2227 :         return _BUF_SIZE <= _Myres;

  00015	8b 45 f8	 mov	 eax, DWORD PTR _this$[ebp]
  00018	83 78 14 10	 cmp	 DWORD PTR [eax+20], 16	; 00000010H
  0001c	72 09		 jb	 SHORT $LN9@operator
  0001e	c7 45 f4 01 00
	00 00		 mov	 DWORD PTR tv82[ebp], 1
  00025	eb 04		 jmp	 SHORT $LN10@operator
$LN9@operator:
  00027	83 65 f4 00	 and	 DWORD PTR tv82[ebp], 0
$LN10@operator:
  0002b	8a 45 f4	 mov	 al, BYTE PTR tv82[ebp]
  0002e	88 45 ff	 mov	 BYTE PTR $T3[ebp], al

; 2210 :         if (_Large_string_engaged()) {

  00031	0f b6 45 ff	 movzx	 eax, BYTE PTR $T3[ebp]
  00035	85 c0		 test	 eax, eax
  00037	74 0e		 je	 SHORT $LN4@operator

; 2211 :             _Result = _Unfancy(_Bx._Ptr);

  00039	8b 45 f8	 mov	 eax, DWORD PTR _this$[ebp]
  0003c	8b 00		 mov	 eax, DWORD PTR [eax]
  0003e	89 45 e8	 mov	 DWORD PTR __Ptr$[ebp], eax
; File C:\Program Files (x86)\Microsoft Visual Studio\2019\Community\VC\Tools\MSVC\14.28.29333\include\xstddef

; 289  :     return _Ptr;

  00041	8b 45 e8	 mov	 eax, DWORD PTR __Ptr$[ebp]
  00044	89 45 f0	 mov	 DWORD PTR __Result$2[ebp], eax
$LN4@operator:
; File C:\Program Files (x86)\Microsoft Visual Studio\2019\Community\VC\Tools\MSVC\14.28.29333\include\xstring

; 2214 :         return _Result;

  00047	8b 45 f0	 mov	 eax, DWORD PTR __Result$2[ebp]
  0004a	89 45 e4	 mov	 DWORD PTR $T1[ebp], eax

; 3671 : #if _CONTAINER_DEBUG_LEVEL > 0
; 3672 :         _STL_VERIFY(_Off <= _Mypair._Myval2._Mysize, "string subscript out of range");
; 3673 : #endif // _CONTAINER_DEBUG_LEVEL > 0
; 3674 :         return _Mypair._Myval2._Myptr()[_Off];

  0004d	8b 45 e4	 mov	 eax, DWORD PTR $T1[ebp]
  00050	03 45 08	 add	 eax, DWORD PTR __Off$[ebp]

; 3675 :     }

  00053	c9		 leave
  00054	c2 04 00	 ret	 4
??A?$basic_string@DU?$char_traits@D@std@@V?$allocator@D@2@@std@@QAEAADI@Z ENDP ; std::basic_string<char,std::char_traits<char>,std::allocator<char> >::operator[]
_TEXT	ENDS
; Function compile flags: /Odspy
; File C:\Program Files (x86)\Microsoft Visual Studio\2019\Community\VC\Tools\MSVC\14.28.29333\include\xstring
;	COMDAT ?assign@?$basic_string@DU?$char_traits@D@std@@V?$allocator@D@2@@std@@QAEAAV12@QBDI@Z
_TEXT	SEGMENT
$T1 = -16						; size = 1
__Old_ptr$2 = -12					; size = 4
_this$ = -8						; size = 4
$T3 = -1						; size = 1
__Ptr$ = 8						; size = 4
__Count$ = 12						; size = 4
?assign@?$basic_string@DU?$char_traits@D@std@@V?$allocator@D@2@@std@@QAEAAV12@QBDI@Z PROC ; std::basic_string<char,std::char_traits<char>,std::allocator<char> >::assign, COMDAT
; _this$ = ecx

; 3042 :     basic_string& assign(_In_reads_(_Count) const _Elem* const _Ptr, _CRT_GUARDOVERFLOW const size_type _Count) {

  00000	55		 push	 ebp
  00001	8b ec		 mov	 ebp, esp
  00003	83 ec 10	 sub	 esp, 16			; 00000010H
  00006	89 4d f8	 mov	 DWORD PTR _this$[ebp], ecx

; 3043 :         // assign [_Ptr, _Ptr + _Count)
; 3044 :         if (_Count <= _Mypair._Myval2._Myres) {

  00009	8b 45 f8	 mov	 eax, DWORD PTR _this$[ebp]
  0000c	8b 4d 0c	 mov	 ecx, DWORD PTR __Count$[ebp]
  0000f	3b 48 14	 cmp	 ecx, DWORD PTR [eax+20]
  00012	77 39		 ja	 SHORT $LN2@assign

; 3045 :             _Elem* const _Old_ptr   = _Mypair._Myval2._Myptr();

  00014	8b 4d f8	 mov	 ecx, DWORD PTR _this$[ebp]
  00017	e8 00 00 00 00	 call	 ?_Myptr@?$_String_val@U?$_Simple_types@D@std@@@std@@QAEPADXZ ; std::_String_val<std::_Simple_types<char> >::_Myptr
  0001c	89 45 f4	 mov	 DWORD PTR __Old_ptr$2[ebp], eax

; 3046 :             _Mypair._Myval2._Mysize = _Count;

  0001f	8b 45 f8	 mov	 eax, DWORD PTR _this$[ebp]
  00022	8b 4d 0c	 mov	 ecx, DWORD PTR __Count$[ebp]
  00025	89 48 10	 mov	 DWORD PTR [eax+16], ecx

; 119  :         _CSTD memmove(_First1, _First2, _Count * sizeof(_Elem));

  00028	ff 75 0c	 push	 DWORD PTR __Count$[ebp]
  0002b	ff 75 08	 push	 DWORD PTR __Ptr$[ebp]
  0002e	ff 75 f4	 push	 DWORD PTR __Old_ptr$2[ebp]
  00031	e8 00 00 00 00	 call	 _memmove
  00036	83 c4 0c	 add	 esp, 12			; 0000000cH

; 3047 :             _Traits::move(_Old_ptr, _Ptr, _Count);
; 3048 :             _Traits::assign(_Old_ptr[_Count], _Elem());

  00039	c6 45 ff 00	 mov	 BYTE PTR $T3[ebp], 0

; 428  :         _Left = _Right;

  0003d	8b 45 f4	 mov	 eax, DWORD PTR __Old_ptr$2[ebp]
  00040	03 45 0c	 add	 eax, DWORD PTR __Count$[ebp]
  00043	8a 4d ff	 mov	 cl, BYTE PTR $T3[ebp]
  00046	88 08		 mov	 BYTE PTR [eax], cl

; 3049 :             return *this;

  00048	8b 45 f8	 mov	 eax, DWORD PTR _this$[ebp]
  0004b	eb 16		 jmp	 SHORT $LN1@assign
$LN2@assign:

; 3050 :         }
; 3051 : 
; 3052 :         return _Reallocate_for(

  0004d	33 c0		 xor	 eax, eax
  0004f	88 45 f0	 mov	 BYTE PTR $T1[ebp], al
  00052	ff 75 08	 push	 DWORD PTR __Ptr$[ebp]
  00055	ff 75 f0	 push	 DWORD PTR $T1[ebp]
  00058	ff 75 0c	 push	 DWORD PTR __Count$[ebp]
  0005b	8b 4d f8	 mov	 ecx, DWORD PTR _this$[ebp]
  0005e	e8 00 00 00 00	 call	 ??$_Reallocate_for@V<lambda_9366063389c5f42a00a5088cf24e69de>@@PBD@?$basic_string@DU?$char_traits@D@std@@V?$allocator@D@2@@std@@AAEAAV01@IV<lambda_9366063389c5f42a00a5088cf24e69de>@@PBD@Z ; std::basic_string<char,std::char_traits<char>,std::allocator<char> >::_Reallocate_for<<lambda_9366063389c5f42a00a5088cf24e69de>,char const *>
$LN1@assign:

; 3053 :             _Count,
; 3054 :             [](_Elem* const _New_ptr, const size_type _Count, const _Elem* const _Ptr) {
; 3055 :                 _Traits::copy(_New_ptr, _Ptr, _Count);
; 3056 :                 _Traits::assign(_New_ptr[_Count], _Elem());
; 3057 :             },
; 3058 :             _Ptr);
; 3059 :     }

  00063	c9		 leave
  00064	c2 08 00	 ret	 8
?assign@?$basic_string@DU?$char_traits@D@std@@V?$allocator@D@2@@std@@QAEAAV12@QBDI@Z ENDP ; std::basic_string<char,std::char_traits<char>,std::allocator<char> >::assign
_TEXT	ENDS
; Function compile flags: /Odspy
; File C:\Program Files (x86)\Microsoft Visual Studio\2019\Community\VC\Tools\MSVC\14.28.29333\include\xstring
; File C:\Program Files (x86)\Microsoft Visual Studio\2019\Community\VC\Tools\MSVC\14.28.29333\include\utility
; File C:\Program Files (x86)\Microsoft Visual Studio\2019\Community\VC\Tools\MSVC\14.28.29333\include\xstring
; File C:\Program Files (x86)\Microsoft Visual Studio\2019\Community\VC\Tools\MSVC\14.28.29333\include\xstddef
; File C:\Program Files (x86)\Microsoft Visual Studio\2019\Community\VC\Tools\MSVC\14.28.29333\include\xstring
;	COMDAT ?assign@?$basic_string@DU?$char_traits@D@std@@V?$allocator@D@2@@std@@QAEAAV12@ABV12@II@Z
_TEXT	SEGMENT
_this$ = -48						; size = 4
$T1 = -44						; size = 4
__Ptr$ = -40						; size = 4
$T2 = -36						; size = 4
$T3 = -32						; size = 4
__Result$4 = -28					; size = 4
tv128 = -24						; size = 4
tv89 = -20						; size = 4
__Size$ = -16						; size = 4
$T5 = -12						; size = 4
_this$ = -8						; size = 4
$T6 = -1						; size = 1
__Right$ = 8						; size = 4
__Roff$ = 12						; size = 4
__Count$ = 16						; size = 4
?assign@?$basic_string@DU?$char_traits@D@std@@V?$allocator@D@2@@std@@QAEAAV12@ABV12@II@Z PROC ; std::basic_string<char,std::char_traits<char>,std::allocator<char> >::assign, COMDAT
; _this$ = ecx

; 3020 :     basic_string& assign(const basic_string& _Right, const size_type _Roff, size_type _Count = npos) {

  00000	55		 push	 ebp
  00001	8b ec		 mov	 ebp, esp
  00003	83 ec 30	 sub	 esp, 48			; 00000030H
  00006	89 4d d0	 mov	 DWORD PTR _this$[ebp], ecx

; 2231 :         if (_Mysize < _Off) {

  00009	8b 45 08	 mov	 eax, DWORD PTR __Right$[ebp]
  0000c	8b 40 10	 mov	 eax, DWORD PTR [eax+16]
  0000f	3b 45 0c	 cmp	 eax, DWORD PTR __Roff$[ebp]
  00012	73 05		 jae	 SHORT $LN5@assign

; 2232 :             _Xran();

  00014	e8 00 00 00 00	 call	 ?_Xran@?$_String_val@U?$_Simple_types@D@std@@@std@@SAXXZ ; std::_String_val<std::_Simple_types<char> >::_Xran
$LN5@assign:

; 3021 :         // assign _Right [_Roff, _Roff + _Count)
; 3022 :         _Right._Mypair._Myval2._Check_offset(_Roff);
; 3023 :         _Count = _Right._Mypair._Myval2._Clamp_suffix_size(_Roff, _Count);

  00019	8b 45 10	 mov	 eax, DWORD PTR __Count$[ebp]
  0001c	89 45 f0	 mov	 DWORD PTR __Size$[ebp], eax

; 2248 :         return (_STD min)(_Size, _Mysize - _Off);

  0001f	8b 45 08	 mov	 eax, DWORD PTR __Right$[ebp]
  00022	8b 40 10	 mov	 eax, DWORD PTR [eax+16]
  00025	2b 45 0c	 sub	 eax, DWORD PTR __Roff$[ebp]
  00028	89 45 f4	 mov	 DWORD PTR $T5[ebp], eax
; File C:\Program Files (x86)\Microsoft Visual Studio\2019\Community\VC\Tools\MSVC\14.28.29333\include\utility

; 68   :     return _Right < _Left ? _Right : _Left;

  0002b	8b 45 f4	 mov	 eax, DWORD PTR $T5[ebp]
  0002e	3b 45 f0	 cmp	 eax, DWORD PTR __Size$[ebp]
  00031	73 08		 jae	 SHORT $LN12@assign
  00033	8d 45 f4	 lea	 eax, DWORD PTR $T5[ebp]
  00036	89 45 ec	 mov	 DWORD PTR tv89[ebp], eax
  00039	eb 06		 jmp	 SHORT $LN13@assign
$LN12@assign:
  0003b	8d 45 f0	 lea	 eax, DWORD PTR __Size$[ebp]
  0003e	89 45 ec	 mov	 DWORD PTR tv89[ebp], eax
$LN13@assign:
  00041	8b 45 ec	 mov	 eax, DWORD PTR tv89[ebp]
  00044	89 45 e0	 mov	 DWORD PTR $T3[ebp], eax
  00047	8b 45 e0	 mov	 eax, DWORD PTR $T3[ebp]
  0004a	89 45 dc	 mov	 DWORD PTR $T2[ebp], eax
; File C:\Program Files (x86)\Microsoft Visual Studio\2019\Community\VC\Tools\MSVC\14.28.29333\include\xstring

; 2248 :         return (_STD min)(_Size, _Mysize - _Off);

  0004d	8b 45 dc	 mov	 eax, DWORD PTR $T2[ebp]
  00050	8b 00		 mov	 eax, DWORD PTR [eax]
  00052	89 45 10	 mov	 DWORD PTR __Count$[ebp], eax

; 3024 :         return assign(_Right._Mypair._Myval2._Myptr() + _Roff, _Count);

  00055	8b 45 08	 mov	 eax, DWORD PTR __Right$[ebp]
  00058	89 45 f8	 mov	 DWORD PTR _this$[ebp], eax

; 2218 :         const value_type* _Result = _Bx._Buf;

  0005b	8b 45 f8	 mov	 eax, DWORD PTR _this$[ebp]
  0005e	89 45 e4	 mov	 DWORD PTR __Result$4[ebp], eax

; 2227 :         return _BUF_SIZE <= _Myres;

  00061	8b 45 f8	 mov	 eax, DWORD PTR _this$[ebp]
  00064	83 78 14 10	 cmp	 DWORD PTR [eax+20], 16	; 00000010H
  00068	72 09		 jb	 SHORT $LN21@assign
  0006a	c7 45 e8 01 00
	00 00		 mov	 DWORD PTR tv128[ebp], 1
  00071	eb 04		 jmp	 SHORT $LN22@assign
$LN21@assign:
  00073	83 65 e8 00	 and	 DWORD PTR tv128[ebp], 0
$LN22@assign:
  00077	8a 45 e8	 mov	 al, BYTE PTR tv128[ebp]
  0007a	88 45 ff	 mov	 BYTE PTR $T6[ebp], al

; 2219 :         if (_Large_string_engaged()) {

  0007d	0f b6 45 ff	 movzx	 eax, BYTE PTR $T6[ebp]
  00081	85 c0		 test	 eax, eax
  00083	74 0e		 je	 SHORT $LN16@assign

; 2220 :             _Result = _Unfancy(_Bx._Ptr);

  00085	8b 45 f8	 mov	 eax, DWORD PTR _this$[ebp]
  00088	8b 00		 mov	 eax, DWORD PTR [eax]
  0008a	89 45 d8	 mov	 DWORD PTR __Ptr$[ebp], eax
; File C:\Program Files (x86)\Microsoft Visual Studio\2019\Community\VC\Tools\MSVC\14.28.29333\include\xstddef

; 289  :     return _Ptr;

  0008d	8b 45 d8	 mov	 eax, DWORD PTR __Ptr$[ebp]
  00090	89 45 e4	 mov	 DWORD PTR __Result$4[ebp], eax
$LN16@assign:
; File C:\Program Files (x86)\Microsoft Visual Studio\2019\Community\VC\Tools\MSVC\14.28.29333\include\xstring

; 2223 :         return _Result;

  00093	8b 45 e4	 mov	 eax, DWORD PTR __Result$4[ebp]
  00096	89 45 d4	 mov	 DWORD PTR $T1[ebp], eax

; 3024 :         return assign(_Right._Mypair._Myval2._Myptr() + _Roff, _Count);

  00099	ff 75 10	 push	 DWORD PTR __Count$[ebp]
  0009c	8b 45 d4	 mov	 eax, DWORD PTR $T1[ebp]
  0009f	03 45 0c	 add	 eax, DWORD PTR __Roff$[ebp]
  000a2	50		 push	 eax
  000a3	8b 4d d0	 mov	 ecx, DWORD PTR _this$[ebp]
  000a6	e8 00 00 00 00	 call	 ?assign@?$basic_string@DU?$char_traits@D@std@@V?$allocator@D@2@@std@@QAEAAV12@QBDI@Z ; std::basic_string<char,std::char_traits<char>,std::allocator<char> >::assign
$LN6@assign:

; 3025 :     }

  000ab	c9		 leave
  000ac	c2 0c 00	 ret	 12			; 0000000cH
?assign@?$basic_string@DU?$char_traits@D@std@@V?$allocator@D@2@@std@@QAEAAV12@ABV12@II@Z ENDP ; std::basic_string<char,std::char_traits<char>,std::allocator<char> >::assign
_TEXT	ENDS
; Function compile flags: /Odspy
; File C:\Program Files (x86)\Microsoft Visual Studio\2019\Community\VC\Tools\MSVC\14.28.29333\include\xstring
;	COMDAT ?append@?$basic_string@DU?$char_traits@D@std@@V?$allocator@D@2@@std@@QAEAAV12@ID@Z
_TEXT	SEGMENT
$T1 = -20						; size = 1
__Old_ptr$2 = -16					; size = 4
__Old_size$ = -12					; size = 4
_this$ = -8						; size = 4
$T3 = -1						; size = 1
__Count$ = 8						; size = 4
__Ch$ = 12						; size = 1
?append@?$basic_string@DU?$char_traits@D@std@@V?$allocator@D@2@@std@@QAEAAV12@ID@Z PROC ; std::basic_string<char,std::char_traits<char>,std::allocator<char> >::append, COMDAT
; _this$ = ecx

; 2961 :     basic_string& append(_CRT_GUARDOVERFLOW const size_type _Count, const _Elem _Ch) { // append _Count * _Ch

  00000	55		 push	 ebp
  00001	8b ec		 mov	 ebp, esp
  00003	83 ec 14	 sub	 esp, 20			; 00000014H
  00006	89 4d f8	 mov	 DWORD PTR _this$[ebp], ecx

; 2962 :         const size_type _Old_size = _Mypair._Myval2._Mysize;

  00009	8b 45 f8	 mov	 eax, DWORD PTR _this$[ebp]
  0000c	8b 40 10	 mov	 eax, DWORD PTR [eax+16]
  0000f	89 45 f4	 mov	 DWORD PTR __Old_size$[ebp], eax

; 2963 :         if (_Count <= _Mypair._Myval2._Myres - _Old_size) {

  00012	8b 45 f8	 mov	 eax, DWORD PTR _this$[ebp]
  00015	8b 40 14	 mov	 eax, DWORD PTR [eax+20]
  00018	2b 45 f4	 sub	 eax, DWORD PTR __Old_size$[ebp]
  0001b	39 45 08	 cmp	 DWORD PTR __Count$[ebp], eax
  0001e	77 46		 ja	 SHORT $LN2@append

; 2964 :             _Mypair._Myval2._Mysize = _Old_size + _Count;

  00020	8b 45 f4	 mov	 eax, DWORD PTR __Old_size$[ebp]
  00023	03 45 08	 add	 eax, DWORD PTR __Count$[ebp]
  00026	8b 4d f8	 mov	 ecx, DWORD PTR _this$[ebp]
  00029	89 41 10	 mov	 DWORD PTR [ecx+16], eax

; 2965 :             _Elem* const _Old_ptr   = _Mypair._Myval2._Myptr();

  0002c	8b 4d f8	 mov	 ecx, DWORD PTR _this$[ebp]
  0002f	e8 00 00 00 00	 call	 ?_Myptr@?$_String_val@U?$_Simple_types@D@std@@@std@@QAEPADXZ ; std::_String_val<std::_Simple_types<char> >::_Myptr
  00034	89 45 f0	 mov	 DWORD PTR __Old_ptr$2[ebp], eax

; 424  :         return static_cast<_Elem*>(_CSTD memset(_First, _Ch, _Count));

  00037	ff 75 08	 push	 DWORD PTR __Count$[ebp]
  0003a	0f be 45 0c	 movsx	 eax, BYTE PTR __Ch$[ebp]
  0003e	50		 push	 eax

; 2966 :             _Traits::assign(_Old_ptr + _Old_size, _Count, _Ch);

  0003f	8b 45 f0	 mov	 eax, DWORD PTR __Old_ptr$2[ebp]
  00042	03 45 f4	 add	 eax, DWORD PTR __Old_size$[ebp]

; 424  :         return static_cast<_Elem*>(_CSTD memset(_First, _Ch, _Count));

  00045	50		 push	 eax
  00046	e8 00 00 00 00	 call	 _memset
  0004b	83 c4 0c	 add	 esp, 12			; 0000000cH

; 2967 :             _Traits::assign(_Old_ptr[_Old_size + _Count], _Elem());

  0004e	c6 45 ff 00	 mov	 BYTE PTR $T3[ebp], 0
  00052	8b 45 f4	 mov	 eax, DWORD PTR __Old_size$[ebp]
  00055	03 45 08	 add	 eax, DWORD PTR __Count$[ebp]

; 428  :         _Left = _Right;

  00058	8b 4d f0	 mov	 ecx, DWORD PTR __Old_ptr$2[ebp]
  0005b	8a 55 ff	 mov	 dl, BYTE PTR $T3[ebp]
  0005e	88 14 01	 mov	 BYTE PTR [ecx+eax], dl

; 2968 :             return *this;

  00061	8b 45 f8	 mov	 eax, DWORD PTR _this$[ebp]
  00064	eb 19		 jmp	 SHORT $LN1@append
$LN2@append:

; 2969 :         }
; 2970 : 
; 2971 :         return _Reallocate_grow_by(

  00066	33 c0		 xor	 eax, eax
  00068	88 45 ec	 mov	 BYTE PTR $T1[ebp], al
  0006b	ff 75 0c	 push	 DWORD PTR __Ch$[ebp]
  0006e	ff 75 08	 push	 DWORD PTR __Count$[ebp]
  00071	ff 75 ec	 push	 DWORD PTR $T1[ebp]
  00074	ff 75 08	 push	 DWORD PTR __Count$[ebp]
  00077	8b 4d f8	 mov	 ecx, DWORD PTR _this$[ebp]
  0007a	e8 00 00 00 00	 call	 ??$_Reallocate_grow_by@V<lambda_c1b8c41cb4019640539cfd828748c4d4>@@ID@?$basic_string@DU?$char_traits@D@std@@V?$allocator@D@2@@std@@AAEAAV01@IV<lambda_c1b8c41cb4019640539cfd828748c4d4>@@ID@Z ; std::basic_string<char,std::char_traits<char>,std::allocator<char> >::_Reallocate_grow_by<<lambda_c1b8c41cb4019640539cfd828748c4d4>,unsigned int,char>
$LN1@append:

; 2972 :             _Count,
; 2973 :             [](_Elem* const _New_ptr, const _Elem* const _Old_ptr, const size_type _Old_size, const size_type _Count,
; 2974 :                 const _Elem _Ch) {
; 2975 :                 _Traits::copy(_New_ptr, _Old_ptr, _Old_size);
; 2976 :                 _Traits::assign(_New_ptr + _Old_size, _Count, _Ch);
; 2977 :                 _Traits::assign(_New_ptr[_Old_size + _Count], _Elem());
; 2978 :             },
; 2979 :             _Count, _Ch);
; 2980 :     }

  0007f	c9		 leave
  00080	c2 08 00	 ret	 8
?append@?$basic_string@DU?$char_traits@D@std@@V?$allocator@D@2@@std@@QAEAAV12@ID@Z ENDP ; std::basic_string<char,std::char_traits<char>,std::allocator<char> >::append
_TEXT	ENDS
; Function compile flags: /Odspy
; File C:\Program Files (x86)\Microsoft Visual Studio\2019\Community\VC\Tools\MSVC\14.28.29333\include\xstring
;	COMDAT ?append@?$basic_string@DU?$char_traits@D@std@@V?$allocator@D@2@@std@@QAEAAV12@QBDI@Z
_TEXT	SEGMENT
$T1 = -24						; size = 1
__First1$ = -20						; size = 4
__Old_ptr$2 = -16					; size = 4
__Old_size$ = -12					; size = 4
_this$ = -8						; size = 4
$T3 = -1						; size = 1
__Ptr$ = 8						; size = 4
__Count$ = 12						; size = 4
?append@?$basic_string@DU?$char_traits@D@std@@V?$allocator@D@2@@std@@QAEAAV12@QBDI@Z PROC ; std::basic_string<char,std::char_traits<char>,std::allocator<char> >::append, COMDAT
; _this$ = ecx

; 2935 :     basic_string& append(_In_reads_(_Count) const _Elem* const _Ptr, _CRT_GUARDOVERFLOW const size_type _Count) {

  00000	55		 push	 ebp
  00001	8b ec		 mov	 ebp, esp
  00003	83 ec 18	 sub	 esp, 24			; 00000018H
  00006	89 4d f8	 mov	 DWORD PTR _this$[ebp], ecx

; 2936 :         // append [_Ptr, _Ptr + _Count)
; 2937 :         const size_type _Old_size = _Mypair._Myval2._Mysize;

  00009	8b 45 f8	 mov	 eax, DWORD PTR _this$[ebp]
  0000c	8b 40 10	 mov	 eax, DWORD PTR [eax+16]
  0000f	89 45 f4	 mov	 DWORD PTR __Old_size$[ebp], eax

; 2938 :         if (_Count <= _Mypair._Myval2._Myres - _Old_size) {

  00012	8b 45 f8	 mov	 eax, DWORD PTR _this$[ebp]
  00015	8b 40 14	 mov	 eax, DWORD PTR [eax+20]
  00018	2b 45 f4	 sub	 eax, DWORD PTR __Old_size$[ebp]
  0001b	39 45 0c	 cmp	 DWORD PTR __Count$[ebp], eax
  0001e	77 49		 ja	 SHORT $LN2@append

; 2939 :             _Mypair._Myval2._Mysize = _Old_size + _Count;

  00020	8b 45 f4	 mov	 eax, DWORD PTR __Old_size$[ebp]
  00023	03 45 0c	 add	 eax, DWORD PTR __Count$[ebp]
  00026	8b 4d f8	 mov	 ecx, DWORD PTR _this$[ebp]
  00029	89 41 10	 mov	 DWORD PTR [ecx+16], eax

; 2940 :             _Elem* const _Old_ptr   = _Mypair._Myval2._Myptr();

  0002c	8b 4d f8	 mov	 ecx, DWORD PTR _this$[ebp]
  0002f	e8 00 00 00 00	 call	 ?_Myptr@?$_String_val@U?$_Simple_types@D@std@@@std@@QAEPADXZ ; std::_String_val<std::_Simple_types<char> >::_Myptr
  00034	89 45 f0	 mov	 DWORD PTR __Old_ptr$2[ebp], eax

; 2941 :             _Traits::move(_Old_ptr + _Old_size, _Ptr, _Count);

  00037	8b 45 f0	 mov	 eax, DWORD PTR __Old_ptr$2[ebp]
  0003a	03 45 f4	 add	 eax, DWORD PTR __Old_size$[ebp]
  0003d	89 45 ec	 mov	 DWORD PTR __First1$[ebp], eax

; 119  :         _CSTD memmove(_First1, _First2, _Count * sizeof(_Elem));

  00040	ff 75 0c	 push	 DWORD PTR __Count$[ebp]
  00043	ff 75 08	 push	 DWORD PTR __Ptr$[ebp]
  00046	ff 75 ec	 push	 DWORD PTR __First1$[ebp]
  00049	e8 00 00 00 00	 call	 _memmove
  0004e	83 c4 0c	 add	 esp, 12			; 0000000cH

; 2942 :             _Traits::assign(_Old_ptr[_Old_size + _Count], _Elem());

  00051	c6 45 ff 00	 mov	 BYTE PTR $T3[ebp], 0
  00055	8b 45 f4	 mov	 eax, DWORD PTR __Old_size$[ebp]
  00058	03 45 0c	 add	 eax, DWORD PTR __Count$[ebp]

; 428  :         _Left = _Right;

  0005b	8b 4d f0	 mov	 ecx, DWORD PTR __Old_ptr$2[ebp]
  0005e	8a 55 ff	 mov	 dl, BYTE PTR $T3[ebp]
  00061	88 14 01	 mov	 BYTE PTR [ecx+eax], dl

; 2943 :             return *this;

  00064	8b 45 f8	 mov	 eax, DWORD PTR _this$[ebp]
  00067	eb 19		 jmp	 SHORT $LN1@append
$LN2@append:

; 2944 :         }
; 2945 : 
; 2946 :         return _Reallocate_grow_by(

  00069	33 c0		 xor	 eax, eax
  0006b	88 45 e8	 mov	 BYTE PTR $T1[ebp], al
  0006e	ff 75 0c	 push	 DWORD PTR __Count$[ebp]
  00071	ff 75 08	 push	 DWORD PTR __Ptr$[ebp]
  00074	ff 75 e8	 push	 DWORD PTR $T1[ebp]
  00077	ff 75 0c	 push	 DWORD PTR __Count$[ebp]
  0007a	8b 4d f8	 mov	 ecx, DWORD PTR _this$[ebp]
  0007d	e8 00 00 00 00	 call	 ??$_Reallocate_grow_by@V<lambda_ab246b20b9526e2ef7792587e4298a77>@@PBDI@?$basic_string@DU?$char_traits@D@std@@V?$allocator@D@2@@std@@AAEAAV01@IV<lambda_ab246b20b9526e2ef7792587e4298a77>@@PBDI@Z ; std::basic_string<char,std::char_traits<char>,std::allocator<char> >::_Reallocate_grow_by<<lambda_ab246b20b9526e2ef7792587e4298a77>,char const *,unsigned int>
$LN1@append:

; 2947 :             _Count,
; 2948 :             [](_Elem* const _New_ptr, const _Elem* const _Old_ptr, const size_type _Old_size, const _Elem* const _Ptr,
; 2949 :                 const size_type _Count) {
; 2950 :                 _Traits::copy(_New_ptr, _Old_ptr, _Old_size);
; 2951 :                 _Traits::copy(_New_ptr + _Old_size, _Ptr, _Count);
; 2952 :                 _Traits::assign(_New_ptr[_Old_size + _Count], _Elem());
; 2953 :             },
; 2954 :             _Ptr, _Count);
; 2955 :     }

  00082	c9		 leave
  00083	c2 08 00	 ret	 8
?append@?$basic_string@DU?$char_traits@D@std@@V?$allocator@D@2@@std@@QAEAAV12@QBDI@Z ENDP ; std::basic_string<char,std::char_traits<char>,std::allocator<char> >::append
_TEXT	ENDS
; Function compile flags: /Odspy
; File C:\Program Files (x86)\Microsoft Visual Studio\2019\Community\VC\Tools\MSVC\14.28.29333\include\xstring
;	COMDAT ?append@?$basic_string@DU?$char_traits@D@std@@V?$allocator@D@2@@std@@QAEAAV12@ABV12@@Z
_TEXT	SEGMENT
_this$ = -4						; size = 4
__Right$ = 8						; size = 4
?append@?$basic_string@DU?$char_traits@D@std@@V?$allocator@D@2@@std@@QAEAAV12@ABV12@@Z PROC ; std::basic_string<char,std::char_traits<char>,std::allocator<char> >::append, COMDAT
; _this$ = ecx

; 2909 :     basic_string& append(const basic_string& _Right) {

  00000	55		 push	 ebp
  00001	8b ec		 mov	 ebp, esp
  00003	51		 push	 ecx
  00004	89 4d fc	 mov	 DWORD PTR _this$[ebp], ecx

; 2910 :         return append(_Right._Mypair._Myval2._Myptr(), _Right._Mypair._Myval2._Mysize);

  00007	8b 45 08	 mov	 eax, DWORD PTR __Right$[ebp]
  0000a	ff 70 10	 push	 DWORD PTR [eax+16]
  0000d	8b 4d 08	 mov	 ecx, DWORD PTR __Right$[ebp]
  00010	e8 00 00 00 00	 call	 ?_Myptr@?$_String_val@U?$_Simple_types@D@std@@@std@@QBEPBDXZ ; std::_String_val<std::_Simple_types<char> >::_Myptr
  00015	50		 push	 eax
  00016	8b 4d fc	 mov	 ecx, DWORD PTR _this$[ebp]
  00019	e8 00 00 00 00	 call	 ?append@?$basic_string@DU?$char_traits@D@std@@V?$allocator@D@2@@std@@QAEAAV12@QBDI@Z ; std::basic_string<char,std::char_traits<char>,std::allocator<char> >::append

; 2911 :     }

  0001e	c9		 leave
  0001f	c2 04 00	 ret	 4
?append@?$basic_string@DU?$char_traits@D@std@@V?$allocator@D@2@@std@@QAEAAV12@ABV12@@Z ENDP ; std::basic_string<char,std::char_traits<char>,std::allocator<char> >::append
_TEXT	ENDS
; Function compile flags: /Odspy
; File C:\Program Files (x86)\Microsoft Visual Studio\2019\Community\VC\Tools\MSVC\14.28.29333\include\xstring
;	COMDAT ??1?$basic_string@DU?$char_traits@D@std@@V?$allocator@D@2@@std@@QAE@XZ
_TEXT	SEGMENT
_this$ = -4						; size = 4
??1?$basic_string@DU?$char_traits@D@std@@V?$allocator@D@2@@std@@QAE@XZ PROC ; std::basic_string<char,std::char_traits<char>,std::allocator<char> >::~basic_string<char,std::char_traits<char>,std::allocator<char> >, COMDAT
; _this$ = ecx

; 2800 :     ~basic_string() noexcept {

  00000	55		 push	 ebp
  00001	8b ec		 mov	 ebp, esp
  00003	51		 push	 ecx
  00004	89 4d fc	 mov	 DWORD PTR _this$[ebp], ecx

; 2801 :         _Tidy_deallocate();

  00007	8b 4d fc	 mov	 ecx, DWORD PTR _this$[ebp]
  0000a	e8 00 00 00 00	 call	 ?_Tidy_deallocate@?$basic_string@DU?$char_traits@D@std@@V?$allocator@D@2@@std@@AAEXXZ ; std::basic_string<char,std::char_traits<char>,std::allocator<char> >::_Tidy_deallocate

; 2802 : #if _ITERATOR_DEBUG_LEVEL != 0
; 2803 :         auto&& _Alproxy          = _GET_PROXY_ALLOCATOR(_Alty, _Getal());
; 2804 :         const auto _To_delete    = _Mypair._Myval2._Myproxy;
; 2805 :         _Mypair._Myval2._Myproxy = nullptr;
; 2806 :         _Delete_plain_internal(_Alproxy, _To_delete);
; 2807 : #endif // _ITERATOR_DEBUG_LEVEL != 0
; 2808 :     }

  0000f	c9		 leave
  00010	c3		 ret	 0
??1?$basic_string@DU?$char_traits@D@std@@V?$allocator@D@2@@std@@QAE@XZ ENDP ; std::basic_string<char,std::char_traits<char>,std::allocator<char> >::~basic_string<char,std::char_traits<char>,std::allocator<char> >
_TEXT	ENDS
; Function compile flags: /Odspy
; File C:\Program Files (x86)\Microsoft Visual Studio\2019\Community\VC\Tools\MSVC\14.28.29333\include\xstring
; File C:\Program Files (x86)\Microsoft Visual Studio\2019\Community\VC\Tools\MSVC\14.28.29333\include\xmemory
; File C:\Program Files (x86)\Microsoft Visual Studio\2019\Community\VC\Tools\MSVC\14.28.29333\include\xstring
; File C:\Program Files (x86)\Microsoft Visual Studio\2019\Community\VC\Tools\MSVC\14.28.29333\include\utility
; File C:\Program Files (x86)\Microsoft Visual Studio\2019\Community\VC\Tools\MSVC\14.28.29333\include\xstring
; File C:\Program Files (x86)\Microsoft Visual Studio\2019\Community\VC\Tools\MSVC\14.28.29333\include\xmemory
; File C:\Program Files (x86)\Microsoft Visual Studio\2019\Community\VC\Tools\MSVC\14.28.29333\include\xstring
; File C:\Program Files (x86)\Microsoft Visual Studio\2019\Community\VC\Tools\MSVC\14.28.29333\include\xmemory
; File C:\Program Files (x86)\Microsoft Visual Studio\2019\Community\VC\Tools\MSVC\14.28.29333\include\xstring
; File C:\Program Files (x86)\Microsoft Visual Studio\2019\Community\VC\Tools\MSVC\14.28.29333\include\xstddef
; File C:\Program Files (x86)\Microsoft Visual Studio\2019\Community\VC\Tools\MSVC\14.28.29333\include\xstring
;	COMDAT ?_Construct_lv_contents@?$basic_string@DU?$char_traits@D@std@@V?$allocator@D@2@@std@@AAEXABV12@@Z
_TEXT	SEGMENT
__Al$ = -72						; size = 4
$T1 = -68						; size = 4
__Ptr$ = -64						; size = 4
$T2 = -60						; size = 4
$T3 = -56						; size = 4
$T4 = -52						; size = 4
__First1$ = -48						; size = 4
__New_capacity$ = -44					; size = 4
__Right_ptr$ = -40					; size = 4
__New_array$ = -36					; size = 4
tv138 = -32						; size = 4
$T5 = -28						; size = 4
$T6 = -24						; size = 4
__Right_data$ = -20					; size = 4
_this$ = -16						; size = 4
__Right_size$ = -12					; size = 4
__My_data$ = -8						; size = 4
__Overflow_is_possible$7 = -1				; size = 1
__Right$ = 8						; size = 4
?_Construct_lv_contents@?$basic_string@DU?$char_traits@D@std@@V?$allocator@D@2@@std@@AAEXABV12@@Z PROC ; std::basic_string<char,std::char_traits<char>,std::allocator<char> >::_Construct_lv_contents, COMDAT
; _this$ = ecx

; 2728 :     void _Construct_lv_contents(const basic_string& _Right) {

  00000	55		 push	 ebp
  00001	8b ec		 mov	 ebp, esp
  00003	83 ec 48	 sub	 esp, 72			; 00000048H
  00006	89 4d f0	 mov	 DWORD PTR _this$[ebp], ecx

; 2729 :         // assign by copying data stored in _Right
; 2730 :         // pre: this != &_Right
; 2731 :         // pre: *this owns no memory, iterators orphaned (note:
; 2732 :         // _Buf/_Ptr/_Mysize/_Myres may be garbage init)
; 2733 :         auto& _Right_data             = _Right._Mypair._Myval2;

  00009	8b 45 08	 mov	 eax, DWORD PTR __Right$[ebp]
  0000c	89 45 ec	 mov	 DWORD PTR __Right_data$[ebp], eax

; 2734 :         const size_type _Right_size   = _Right_data._Mysize;

  0000f	8b 45 ec	 mov	 eax, DWORD PTR __Right_data$[ebp]
  00012	8b 40 10	 mov	 eax, DWORD PTR [eax+16]
  00015	89 45 f4	 mov	 DWORD PTR __Right_size$[ebp], eax

; 2735 :         const _Elem* const _Right_ptr = _Right_data._Myptr();

  00018	8b 4d ec	 mov	 ecx, DWORD PTR __Right_data$[ebp]
  0001b	e8 00 00 00 00	 call	 ?_Myptr@?$_String_val@U?$_Simple_types@D@std@@@std@@QBEPBDXZ ; std::_String_val<std::_Simple_types<char> >::_Myptr
  00020	89 45 d8	 mov	 DWORD PTR __Right_ptr$[ebp], eax

; 2736 :         auto& _My_data                = _Mypair._Myval2;

  00023	8b 45 f0	 mov	 eax, DWORD PTR _this$[ebp]
  00026	89 45 f8	 mov	 DWORD PTR __My_data$[ebp], eax

; 2737 :         if (_Right_size < _BUF_SIZE) { // stay small, don't allocate

  00029	83 7d f4 10	 cmp	 DWORD PTR __Right_size$[ebp], 16 ; 00000010H
  0002d	73 2e		 jae	 SHORT $LN2@Construct_

; 2738 :             _Traits::copy(_My_data._Bx._Buf, _Right_ptr, _BUF_SIZE);

  0002f	8b 45 f8	 mov	 eax, DWORD PTR __My_data$[ebp]
  00032	89 45 d0	 mov	 DWORD PTR __First1$[ebp], eax

; 62   :         _CSTD memcpy(_First1, _First2, _Count * sizeof(_Elem));

  00035	6a 10		 push	 16			; 00000010H
  00037	ff 75 d8	 push	 DWORD PTR __Right_ptr$[ebp]
  0003a	ff 75 d0	 push	 DWORD PTR __First1$[ebp]
  0003d	e8 00 00 00 00	 call	 _memcpy
  00042	83 c4 0c	 add	 esp, 12			; 0000000cH

; 2739 :             _My_data._Mysize = _Right_size;

  00045	8b 45 f8	 mov	 eax, DWORD PTR __My_data$[ebp]
  00048	8b 4d f4	 mov	 ecx, DWORD PTR __Right_size$[ebp]
  0004b	89 48 10	 mov	 DWORD PTR [eax+16], ecx

; 2740 :             _My_data._Myres  = _BUF_SIZE - 1;

  0004e	8b 45 f8	 mov	 eax, DWORD PTR __My_data$[ebp]
  00051	c7 40 14 0f 00
	00 00		 mov	 DWORD PTR [eax+20], 15	; 0000000fH

; 2741 :             return;

  00058	e9 9b 00 00 00	 jmp	 $LN1@Construct_
$LN2@Construct_:

; 4409 :         return _Mypair._Get_first();

  0005d	8b 45 f0	 mov	 eax, DWORD PTR _this$[ebp]
; File C:\Program Files (x86)\Microsoft Visual Studio\2019\Community\VC\Tools\MSVC\14.28.29333\include\xmemory

; 1347 :         return *this;

  00060	89 45 cc	 mov	 DWORD PTR $T4[ebp], eax
; File C:\Program Files (x86)\Microsoft Visual Studio\2019\Community\VC\Tools\MSVC\14.28.29333\include\xstring

; 4409 :         return _Mypair._Get_first();

  00063	8b 45 cc	 mov	 eax, DWORD PTR $T4[ebp]
  00066	89 45 b8	 mov	 DWORD PTR __Al$[ebp], eax

; 2745 :         const size_type _New_capacity = (_STD min)(_Right_size | _ALLOC_MASK, max_size());

  00069	8b 4d f0	 mov	 ecx, DWORD PTR _this$[ebp]
  0006c	e8 00 00 00 00	 call	 ?max_size@?$basic_string@DU?$char_traits@D@std@@V?$allocator@D@2@@std@@QBEIXZ ; std::basic_string<char,std::char_traits<char>,std::allocator<char> >::max_size
  00071	89 45 e8	 mov	 DWORD PTR $T6[ebp], eax
  00074	8b 45 f4	 mov	 eax, DWORD PTR __Right_size$[ebp]
  00077	83 c8 0f	 or	 eax, 15			; 0000000fH
  0007a	89 45 e4	 mov	 DWORD PTR $T5[ebp], eax
; File C:\Program Files (x86)\Microsoft Visual Studio\2019\Community\VC\Tools\MSVC\14.28.29333\include\utility

; 68   :     return _Right < _Left ? _Right : _Left;

  0007d	8b 45 e8	 mov	 eax, DWORD PTR $T6[ebp]
  00080	3b 45 e4	 cmp	 eax, DWORD PTR $T5[ebp]
  00083	73 08		 jae	 SHORT $LN52@Construct_
  00085	8d 45 e8	 lea	 eax, DWORD PTR $T6[ebp]
  00088	89 45 e0	 mov	 DWORD PTR tv138[ebp], eax
  0008b	eb 06		 jmp	 SHORT $LN53@Construct_
$LN52@Construct_:
  0008d	8d 45 e4	 lea	 eax, DWORD PTR $T5[ebp]
  00090	89 45 e0	 mov	 DWORD PTR tv138[ebp], eax
$LN53@Construct_:
  00093	8b 45 e0	 mov	 eax, DWORD PTR tv138[ebp]
  00096	89 45 c8	 mov	 DWORD PTR $T3[ebp], eax
  00099	8b 45 c8	 mov	 eax, DWORD PTR $T3[ebp]
  0009c	89 45 c4	 mov	 DWORD PTR $T2[ebp], eax
; File C:\Program Files (x86)\Microsoft Visual Studio\2019\Community\VC\Tools\MSVC\14.28.29333\include\xstring

; 2745 :         const size_type _New_capacity = (_STD min)(_Right_size | _ALLOC_MASK, max_size());

  0009f	8b 45 c4	 mov	 eax, DWORD PTR $T2[ebp]
  000a2	8b 00		 mov	 eax, DWORD PTR [eax]
  000a4	89 45 d4	 mov	 DWORD PTR __New_capacity$[ebp], eax
; File C:\Program Files (x86)\Microsoft Visual Studio\2019\Community\VC\Tools\MSVC\14.28.29333\include\xmemory

; 56   :     constexpr bool _Overflow_is_possible = _Ty_size > 1;

  000a7	c6 45 ff 00	 mov	 BYTE PTR __Overflow_is_possible$7[ebp], 0
; File C:\Program Files (x86)\Microsoft Visual Studio\2019\Community\VC\Tools\MSVC\14.28.29333\include\xstring

; 2746 :         const pointer _New_array      = _Al.allocate(_New_capacity + 1); // throws

  000ab	8b 45 d4	 mov	 eax, DWORD PTR __New_capacity$[ebp]
  000ae	40		 inc	 eax
; File C:\Program Files (x86)\Microsoft Visual Studio\2019\Community\VC\Tools\MSVC\14.28.29333\include\xmemory

; 814  :         return static_cast<_Ty*>(_Allocate<_New_alignof<_Ty>>(_Get_size_of_n<sizeof(_Ty)>(_Count)));

  000af	50		 push	 eax
  000b0	e8 00 00 00 00	 call	 ??$_Allocate@$07U_Default_allocate_traits@std@@$0A@@std@@YAPAXI@Z ; std::_Allocate<8,std::_Default_allocate_traits,0>
  000b5	59		 pop	 ecx
; File C:\Program Files (x86)\Microsoft Visual Studio\2019\Community\VC\Tools\MSVC\14.28.29333\include\xstring

; 2746 :         const pointer _New_array      = _Al.allocate(_New_capacity + 1); // throws

  000b6	89 45 dc	 mov	 DWORD PTR __New_array$[ebp], eax

; 2747 :         _Construct_in_place(_My_data._Bx._Ptr, _New_array);

  000b9	8d 45 dc	 lea	 eax, DWORD PTR __New_array$[ebp]
  000bc	50		 push	 eax
  000bd	ff 75 f8	 push	 DWORD PTR __My_data$[ebp]
  000c0	e8 00 00 00 00	 call	 ??$_Construct_in_place@PADABQAD@std@@YAXAAPADABQAD@Z ; std::_Construct_in_place<char *,char * const &>
  000c5	59		 pop	 ecx
  000c6	59		 pop	 ecx

; 2748 :         _Traits::copy(_Unfancy(_New_array), _Right_ptr, _Right_size + 1);

  000c7	8b 45 dc	 mov	 eax, DWORD PTR __New_array$[ebp]
  000ca	89 45 c0	 mov	 DWORD PTR __Ptr$[ebp], eax
; File C:\Program Files (x86)\Microsoft Visual Studio\2019\Community\VC\Tools\MSVC\14.28.29333\include\xstddef

; 289  :     return _Ptr;

  000cd	8b 45 c0	 mov	 eax, DWORD PTR __Ptr$[ebp]
  000d0	89 45 bc	 mov	 DWORD PTR $T1[ebp], eax
; File C:\Program Files (x86)\Microsoft Visual Studio\2019\Community\VC\Tools\MSVC\14.28.29333\include\xstring

; 2748 :         _Traits::copy(_Unfancy(_New_array), _Right_ptr, _Right_size + 1);

  000d3	8b 45 f4	 mov	 eax, DWORD PTR __Right_size$[ebp]
  000d6	40		 inc	 eax

; 62   :         _CSTD memcpy(_First1, _First2, _Count * sizeof(_Elem));

  000d7	50		 push	 eax
  000d8	ff 75 d8	 push	 DWORD PTR __Right_ptr$[ebp]
  000db	ff 75 bc	 push	 DWORD PTR $T1[ebp]
  000de	e8 00 00 00 00	 call	 _memcpy
  000e3	83 c4 0c	 add	 esp, 12			; 0000000cH

; 2749 :         _My_data._Mysize = _Right_size;

  000e6	8b 45 f8	 mov	 eax, DWORD PTR __My_data$[ebp]
  000e9	8b 4d f4	 mov	 ecx, DWORD PTR __Right_size$[ebp]
  000ec	89 48 10	 mov	 DWORD PTR [eax+16], ecx

; 2750 :         _My_data._Myres  = _New_capacity;

  000ef	8b 45 f8	 mov	 eax, DWORD PTR __My_data$[ebp]
  000f2	8b 4d d4	 mov	 ecx, DWORD PTR __New_capacity$[ebp]
  000f5	89 48 14	 mov	 DWORD PTR [eax+20], ecx
$LN1@Construct_:

; 2751 :     }

  000f8	c9		 leave
  000f9	c2 04 00	 ret	 4
?_Construct_lv_contents@?$basic_string@DU?$char_traits@D@std@@V?$allocator@D@2@@std@@AAEXABV12@@Z ENDP ; std::basic_string<char,std::char_traits<char>,std::allocator<char> >::_Construct_lv_contents
_TEXT	ENDS
; Function compile flags: /Odspy
; File C:\Program Files (x86)\Microsoft Visual Studio\2019\Community\VC\Tools\MSVC\14.28.29333\include\xstring
; File C:\Program Files (x86)\Microsoft Visual Studio\2019\Community\VC\Tools\MSVC\14.28.29333\include\xmemory
; File C:\Program Files (x86)\Microsoft Visual Studio\2019\Community\VC\Tools\MSVC\14.28.29333\include\xstring
; File C:\Program Files (x86)\Microsoft Visual Studio\2019\Community\VC\Tools\MSVC\14.28.29333\include\xmemory
; File C:\Program Files (x86)\Microsoft Visual Studio\2019\Community\VC\Tools\MSVC\14.28.29333\include\xstring
; File C:\Program Files (x86)\Microsoft Visual Studio\2019\Community\VC\Tools\MSVC\14.28.29333\include\xstddef
; File C:\Program Files (x86)\Microsoft Visual Studio\2019\Community\VC\Tools\MSVC\14.28.29333\include\xstring
; File C:\Program Files (x86)\Microsoft Visual Studio\2019\Community\VC\Tools\MSVC\14.28.29333\include\xstddef
; File C:\Program Files (x86)\Microsoft Visual Studio\2019\Community\VC\Tools\MSVC\14.28.29333\include\xstring
;	COMDAT ?_Move_assign@?$basic_string@DU?$char_traits@D@std@@V?$allocator@D@2@@std@@AAEXAAV12@U_Equal_allocators@2@@Z
_TEXT	SEGMENT
__My_data_mem$1 = -36					; size = 4
__Right_data_mem$2 = -32				; size = 4
$T3 = -28						; size = 4
$T4 = -24						; size = 4
$T5 = -20						; size = 4
$T6 = -16						; size = 4
_this$ = -12						; size = 4
___formal$ = -8						; size = 1
$T7 = -1						; size = 1
__Right$ = 8						; size = 4
___formal$ = 12						; size = 1
?_Move_assign@?$basic_string@DU?$char_traits@D@std@@V?$allocator@D@2@@std@@AAEXAAV12@U_Equal_allocators@2@@Z PROC ; std::basic_string<char,std::char_traits<char>,std::allocator<char> >::_Move_assign, COMDAT
; _this$ = ecx

; 2636 :     void _Move_assign(basic_string& _Right, _Equal_allocators) noexcept {

  00000	55		 push	 ebp
  00001	8b ec		 mov	 ebp, esp
  00003	83 ec 24	 sub	 esp, 36			; 00000024H
  00006	89 4d f4	 mov	 DWORD PTR _this$[ebp], ecx

; 2637 :         _Tidy_deallocate();

  00009	8b 4d f4	 mov	 ecx, DWORD PTR _this$[ebp]
  0000c	e8 00 00 00 00	 call	 ?_Tidy_deallocate@?$basic_string@DU?$char_traits@D@std@@V?$allocator@D@2@@std@@AAEXXZ ; std::basic_string<char,std::char_traits<char>,std::allocator<char> >::_Tidy_deallocate

; 4409 :         return _Mypair._Get_first();

  00011	8b 45 08	 mov	 eax, DWORD PTR __Right$[ebp]
; File C:\Program Files (x86)\Microsoft Visual Studio\2019\Community\VC\Tools\MSVC\14.28.29333\include\xmemory

; 1347 :         return *this;

  00014	89 45 f0	 mov	 DWORD PTR $T6[ebp], eax
; File C:\Program Files (x86)\Microsoft Visual Studio\2019\Community\VC\Tools\MSVC\14.28.29333\include\xstring

; 4409 :         return _Mypair._Get_first();

  00017	8b 45 f0	 mov	 eax, DWORD PTR $T6[ebp]
  0001a	89 45 e8	 mov	 DWORD PTR $T4[ebp], eax
  0001d	8b 45 f4	 mov	 eax, DWORD PTR _this$[ebp]
; File C:\Program Files (x86)\Microsoft Visual Studio\2019\Community\VC\Tools\MSVC\14.28.29333\include\xmemory

; 1347 :         return *this;

  00020	89 45 ec	 mov	 DWORD PTR $T5[ebp], eax
; File C:\Program Files (x86)\Microsoft Visual Studio\2019\Community\VC\Tools\MSVC\14.28.29333\include\xstring

; 4409 :         return _Mypair._Get_first();

  00023	8b 45 ec	 mov	 eax, DWORD PTR $T5[ebp]
  00026	89 45 e4	 mov	 DWORD PTR $T3[ebp], eax

; 2638 :         _Pocma(_Getal(), _Right._Getal());

  00029	ff 75 e8	 push	 DWORD PTR $T4[ebp]
  0002c	ff 75 e4	 push	 DWORD PTR $T3[ebp]
  0002f	e8 00 00 00 00	 call	 ??$_Pocma@V?$allocator@D@std@@@std@@YAXAAV?$allocator@D@0@0@Z ; std::_Pocma<std::allocator<char> >
  00034	59		 pop	 ecx
  00035	59		 pop	 ecx

; 2639 :         _Take_contents(_Right, bool_constant<_Can_memcpy_val>{});

  00036	33 c0		 xor	 eax, eax
  00038	88 45 ff	 mov	 BYTE PTR $T7[ebp], al
  0003b	8a 45 ff	 mov	 al, BYTE PTR $T7[ebp]
  0003e	88 45 f8	 mov	 BYTE PTR ___formal$[ebp], al

; 2680 :         const auto _My_data_mem =

  00041	8b 45 f4	 mov	 eax, DWORD PTR _this$[ebp]
; File C:\Program Files (x86)\Microsoft Visual Studio\2019\Community\VC\Tools\MSVC\14.28.29333\include\xstddef

; 275  :     return __builtin_addressof(_Val);

  00044	89 45 dc	 mov	 DWORD PTR __My_data_mem$1[ebp], eax
; File C:\Program Files (x86)\Microsoft Visual Studio\2019\Community\VC\Tools\MSVC\14.28.29333\include\xstring

; 2682 :         const auto _Right_data_mem =

  00047	8b 45 08	 mov	 eax, DWORD PTR __Right$[ebp]
; File C:\Program Files (x86)\Microsoft Visual Studio\2019\Community\VC\Tools\MSVC\14.28.29333\include\xstddef

; 275  :     return __builtin_addressof(_Val);

  0004a	89 45 e0	 mov	 DWORD PTR __Right_data_mem$2[ebp], eax
; File C:\Program Files (x86)\Microsoft Visual Studio\2019\Community\VC\Tools\MSVC\14.28.29333\include\xstring

; 2684 :         _CSTD memcpy(_My_data_mem, _Right_data_mem, _Memcpy_val_size);

  0004d	6a 18		 push	 24			; 00000018H
  0004f	ff 75 e0	 push	 DWORD PTR __Right_data_mem$2[ebp]
  00052	ff 75 dc	 push	 DWORD PTR __My_data_mem$1[ebp]
  00055	e8 00 00 00 00	 call	 _memcpy
  0005a	83 c4 0c	 add	 esp, 12			; 0000000cH

; 2703 :         _Right._Tidy_init();

  0005d	8b 4d 08	 mov	 ecx, DWORD PTR __Right$[ebp]
  00060	e8 00 00 00 00	 call	 ?_Tidy_init@?$basic_string@DU?$char_traits@D@std@@V?$allocator@D@2@@std@@AAEXXZ ; std::basic_string<char,std::char_traits<char>,std::allocator<char> >::_Tidy_init

; 2640 :     }

  00065	c9		 leave
  00066	c2 08 00	 ret	 8
?_Move_assign@?$basic_string@DU?$char_traits@D@std@@V?$allocator@D@2@@std@@AAEXAAV12@U_Equal_allocators@2@@Z ENDP ; std::basic_string<char,std::char_traits<char>,std::allocator<char> >::_Move_assign
_TEXT	ENDS
; Function compile flags: /Odspy
; File C:\Program Files (x86)\Microsoft Visual Studio\2019\Community\VC\Tools\MSVC\14.28.29333\include\xstring
; File C:\Program Files (x86)\Microsoft Visual Studio\2019\Community\VC\Tools\MSVC\14.28.29333\include\xmemory
; File C:\Program Files (x86)\Microsoft Visual Studio\2019\Community\VC\Tools\MSVC\14.28.29333\include\xstring
; File C:\Program Files (x86)\Microsoft Visual Studio\2019\Community\VC\Tools\MSVC\14.28.29333\include\xmemory
; File C:\Program Files (x86)\Microsoft Visual Studio\2019\Community\VC\Tools\MSVC\14.28.29333\include\xstring
; File C:\Program Files (x86)\Microsoft Visual Studio\2019\Community\VC\Tools\MSVC\14.28.29333\include\utility
; File C:\Program Files (x86)\Microsoft Visual Studio\2019\Community\VC\Tools\MSVC\14.28.29333\include\xstring
; File C:\Program Files (x86)\Microsoft Visual Studio\2019\Community\VC\Tools\MSVC\14.28.29333\include\xmemory
; File C:\Program Files (x86)\Microsoft Visual Studio\2019\Community\VC\Tools\MSVC\14.28.29333\include\xstring
; File C:\Program Files (x86)\Microsoft Visual Studio\2019\Community\VC\Tools\MSVC\14.28.29333\include\xmemory
; File C:\Program Files (x86)\Microsoft Visual Studio\2019\Community\VC\Tools\MSVC\14.28.29333\include\xstring
; File C:\Program Files (x86)\Microsoft Visual Studio\2019\Community\VC\Tools\MSVC\14.28.29333\include\xmemory
; File C:\Program Files (x86)\Microsoft Visual Studio\2019\Community\VC\Tools\MSVC\14.28.29333\include\xstring
; File C:\Program Files (x86)\Microsoft Visual Studio\2019\Community\VC\Tools\MSVC\14.28.29333\include\xstddef
; File C:\Program Files (x86)\Microsoft Visual Studio\2019\Community\VC\Tools\MSVC\14.28.29333\include\xstring
;	COMDAT ??0?$basic_string@DU?$char_traits@D@std@@V?$allocator@D@2@@std@@QAE@U_String_constructor_concat_tag@1@ABV01@QBDI2I@Z
_TEXT	SEGMENT
$T2 = -100						; size = 4
__Alproxy$ = -96					; size = 4
$T3 = -92						; size = 4
__First1$ = -88						; size = 4
__Ptr$ = -84						; size = 4
$T4 = -80						; size = 4
$T5 = -76						; size = 4
$T6 = -72						; size = 4
_this$ = -68						; size = 4
$T7 = -64						; size = 4
__Fancyptr$8 = -60					; size = 4
tv190 = -56						; size = 4
$T9 = -52						; size = 4
_this$ = -48						; size = 4
__Masked$10 = -44					; size = 4
__New_size$ = -40					; size = 4
__Ptr$ = -36						; size = 4
__My_data$ = -32					; size = 4
__Max$ = -28						; size = 4
_this$ = -24						; size = 4
__New_capacity$ = -20					; size = 4
__Overflow_is_possible$11 = -15				; size = 1
_$S10$ = -14						; size = 1
$T12 = -13						; size = 1
__$EHRec$ = -12						; size = 12
___formal$ = 8						; size = 1
__Source_of_al$ = 12					; size = 4
__Left_ptr$ = 16					; size = 4
__Left_size$ = 20					; size = 4
__Right_ptr$ = 24					; size = 4
__Right_size$ = 28					; size = 4
??0?$basic_string@DU?$char_traits@D@std@@V?$allocator@D@2@@std@@QAE@U_String_constructor_concat_tag@1@ABV01@QBDI2I@Z PROC ; std::basic_string<char,std::char_traits<char>,std::allocator<char> >::basic_string<char,std::char_traits<char>,std::allocator<char> >, COMDAT
; _this$ = ecx

; 2521 :             _One_then_variadic_args_t{}, _Alty_traits::select_on_container_copy_construction(_Source_of_al._Getal())) {

  00000	55		 push	 ebp
  00001	8b ec		 mov	 ebp, esp
  00003	6a ff		 push	 -1
  00005	68 00 00 00 00	 push	 __ehhandler$??0?$basic_string@DU?$char_traits@D@std@@V?$allocator@D@2@@std@@QAE@U_String_constructor_concat_tag@1@ABV01@QBDI2I@Z
  0000a	64 a1 00 00 00
	00		 mov	 eax, DWORD PTR fs:0
  00010	50		 push	 eax
  00011	83 ec 58	 sub	 esp, 88			; 00000058H
  00014	a1 00 00 00 00	 mov	 eax, DWORD PTR ___security_cookie
  00019	33 c5		 xor	 eax, ebp
  0001b	50		 push	 eax
  0001c	8d 45 f4	 lea	 eax, DWORD PTR __$EHRec$[ebp]
  0001f	64 a3 00 00 00
	00		 mov	 DWORD PTR fs:0, eax
  00025	89 4d e8	 mov	 DWORD PTR _this$[ebp], ecx

; 4413 :         return _Mypair._Get_first();

  00028	8b 45 0c	 mov	 eax, DWORD PTR __Source_of_al$[ebp]
; File C:\Program Files (x86)\Microsoft Visual Studio\2019\Community\VC\Tools\MSVC\14.28.29333\include\xmemory

; 1351 :         return *this;

  0002b	89 45 c0	 mov	 DWORD PTR $T7[ebp], eax
; File C:\Program Files (x86)\Microsoft Visual Studio\2019\Community\VC\Tools\MSVC\14.28.29333\include\xstring

; 4413 :         return _Mypair._Get_first();

  0002e	8b 45 c0	 mov	 eax, DWORD PTR $T7[ebp]
  00031	89 45 a4	 mov	 DWORD PTR $T3[ebp], eax

; 2199 : 
; 2200 :     // length of internal buffer, [1, 16]:
; 2201 :     static constexpr size_type _BUF_SIZE = 16 / sizeof(value_type) < 1 ? 1 : 16 / sizeof(value_type);
; 2202 :     // roundup mask for allocated buffers, [0, 15]:
; 2203 :     static constexpr size_type _ALLOC_MASK =
; 2204 :         sizeof(value_type) <= 1
; 2205 :             ? 15
; 2206 :             : sizeof(value_type) <= 2 ? 7 : sizeof(value_type) <= 4 ? 3 : sizeof(value_type) <= 8 ? 1 : 0;
; 2207 : 
; 2208 :     value_type* _Myptr() noexcept {
; 2209 :         value_type* _Result = _Bx._Buf;
; 2210 :         if (_Large_string_engaged()) {
; 2211 :             _Result = _Unfancy(_Bx._Ptr);
; 2212 :         }
; 2213 : 
; 2214 :         return _Result;
; 2215 :     }
; 2216 : 
; 2217 :     const value_type* _Myptr() const noexcept {
; 2218 :         const value_type* _Result = _Bx._Buf;
; 2219 :         if (_Large_string_engaged()) {
; 2220 :             _Result = _Unfancy(_Bx._Ptr);
; 2221 :         }
; 2222 : 
; 2223 :         return _Result;
; 2224 :     }
; 2225 : 
; 2226 :     bool _Large_string_engaged() const noexcept {
; 2227 :         return _BUF_SIZE <= _Myres;
; 2228 :     }
; 2229 : 
; 2230 :     void _Check_offset(const size_type _Off) const { // checks whether _Off is in the bounds of [0, size()]
; 2231 :         if (_Mysize < _Off) {
; 2232 :             _Xran();
; 2233 :         }
; 2234 :     }
; 2235 : 
; 2236 :     void _Check_offset_exclusive(const size_type _Off) const { // checks whether _Off is in the bounds of [0, size())
; 2237 :         if (_Mysize <= _Off) {
; 2238 :             _Xran();
; 2239 :         }
; 2240 :     }
; 2241 : 
; 2242 :     [[noreturn]] static void _Xran() {
; 2243 :         _Xout_of_range("invalid string position");
; 2244 :     }
; 2245 : 
; 2246 :     size_type _Clamp_suffix_size(const size_type _Off, const size_type _Size) const noexcept {
; 2247 :         // trims _Size to the longest it can be assuming a string at/after _Off
; 2248 :         return (_STD min)(_Size, _Mysize - _Off);
; 2249 :     }
; 2250 : 
; 2251 :     union _Bxty { // storage for small buffer or pointer to larger one
; 2252 :         _Bxty() noexcept {} // user-provided, for fancy pointers
; 2253 : 
; 2254 :         ~_Bxty() noexcept {} // user-provided, for fancy pointers
; 2255 : 
; 2256 :         value_type _Buf[_BUF_SIZE];
; 2257 :         pointer _Ptr;
; 2258 :         char _Alias[_BUF_SIZE]; // TRANSITION, ABI: _Alias is preserved for binary compatibility (especially /clr)
; 2259 :     } _Bx;
; 2260 : 
; 2261 :     size_type _Mysize; // current length of string
; 2262 :     size_type _Myres; // current storage reserved for string
; 2263 : };
; 2264 : 
; 2265 : // CLASS TEMPLATE basic_string
; 2266 : template <class _Ty>
; 2267 : constexpr size_t _Size_after_ebco_v = is_empty_v<_Ty> ? 0 : sizeof(_Ty); // get _Ty's size after being EBCO'd
; 2268 : 
; 2269 : struct _String_constructor_concat_tag {
; 2270 :     // tag to select constructors used by basic_string's concatenation operators (operator+)
; 2271 :     explicit _String_constructor_concat_tag() = default;
; 2272 : };
; 2273 : 
; 2274 : [[noreturn]] inline void _Xlen_string() {
; 2275 :     _Xlength_error("string too long");
; 2276 : }
; 2277 : 
; 2278 : template <class _Elem, class _Traits = char_traits<_Elem>, class _Alloc = allocator<_Elem>>
; 2279 : class basic_string { // null-terminated transparent array of elements
; 2280 : private:
; 2281 :     friend _Tidy_deallocate_guard<basic_string>;
; 2282 : 
; 2283 :     using _Alty        = _Rebind_alloc_t<_Alloc, _Elem>;
; 2284 :     using _Alty_traits = allocator_traits<_Alty>;
; 2285 : 
; 2286 :     using _Scary_val = _String_val<conditional_t<_Is_simple_alloc_v<_Alty>, _Simple_types<_Elem>,
; 2287 :         _String_iter_types<_Elem, typename _Alty_traits::size_type, typename _Alty_traits::difference_type,
; 2288 :             typename _Alty_traits::pointer, typename _Alty_traits::const_pointer, _Elem&, const _Elem&>>>;
; 2289 : 
; 2290 :     static_assert(!_ENFORCE_MATCHING_ALLOCATORS || is_same_v<_Elem, typename _Alloc::value_type>,
; 2291 :         _MISMATCHED_ALLOCATOR_MESSAGE("basic_string<T, Traits, Allocator>", "T"));
; 2292 : 
; 2293 :     static_assert(is_same_v<_Elem, typename _Traits::char_type>,
; 2294 :         "N4659 24.3.2.1 [string.require]/3 requires that the supplied "
; 2295 :         "char_traits character type match the string's character type.");
; 2296 : 
; 2297 :     static_assert(!is_array_v<_Elem> && is_trivial_v<_Elem> && is_standard_layout_v<_Elem>,
; 2298 :         "The character type of basic_string must be a non-array trivial standard-layout type. See N4861 "
; 2299 :         "[strings.general]/1.");
; 2300 : 
; 2301 : public:
; 2302 :     using traits_type    = _Traits;
; 2303 :     using allocator_type = _Alloc;
; 2304 : 
; 2305 :     using value_type      = _Elem;
; 2306 :     using size_type       = typename _Alty_traits::size_type;
; 2307 :     using difference_type = typename _Alty_traits::difference_type;
; 2308 :     using pointer         = typename _Alty_traits::pointer;
; 2309 :     using const_pointer   = typename _Alty_traits::const_pointer;
; 2310 :     using reference       = value_type&;
; 2311 :     using const_reference = const value_type&;
; 2312 : 
; 2313 :     using iterator       = _String_iterator<_Scary_val>;
; 2314 :     using const_iterator = _String_const_iterator<_Scary_val>;
; 2315 : 
; 2316 :     using reverse_iterator       = _STD reverse_iterator<iterator>;
; 2317 :     using const_reverse_iterator = _STD reverse_iterator<const_iterator>;
; 2318 : 
; 2319 : private:
; 2320 :     static constexpr auto _BUF_SIZE   = _Scary_val::_BUF_SIZE;
; 2321 :     static constexpr auto _ALLOC_MASK = _Scary_val::_ALLOC_MASK;
; 2322 : 
; 2323 :     // When doing _String_val operations by memcpy, we are touching:
; 2324 :     //   _String_val::_Bx::_Buf (type is array of _Elem)
; 2325 :     //   _String_val::_Bx::_Ptr (type is pointer)
; 2326 :     //   _String_val::_Mysize   (type is size_type)
; 2327 :     //   _String_val::_Myres    (type is size_type)
; 2328 :     // N4810 21.1 [strings.general]/1 says _Elem must be trivial standard-layout, so memcpy is safe.
; 2329 :     // We need to ask if pointer is safe to memcpy.
; 2330 :     // size_type must be an unsigned integral type so memcpy is safe.
; 2331 :     // We also need to disable memcpy if the user has supplied _Traits, since
; 2332 :     //   they can observe traits::assign and similar.
; 2333 :     static constexpr bool _Can_memcpy_val = _Is_specialization_v<_Traits, char_traits> && is_trivial_v<pointer>;
; 2334 :     // This offset skips over the _Container_base members, if any
; 2335 :     static constexpr size_t _Memcpy_val_offset = _Size_after_ebco_v<_Container_base>;
; 2336 :     static constexpr size_t _Memcpy_val_size   = sizeof(_Scary_val) - _Memcpy_val_offset;
; 2337 : 
; 2338 :     template <class _Iter>
; 2339 :     using _Is_elem_cptr = bool_constant<_Is_any_of_v<_Iter, const _Elem* const, _Elem* const, const _Elem*, _Elem*>>;
; 2340 : 
; 2341 : #if _HAS_CXX17
; 2342 :     template <class _StringViewIsh>
; 2343 :     using _Is_string_view_ish =
; 2344 :         enable_if_t<conjunction_v<is_convertible<const _StringViewIsh&, basic_string_view<_Elem, _Traits>>,
; 2345 :                         negation<is_convertible<const _StringViewIsh&, const _Elem*>>>,
; 2346 :             int>;
; 2347 : #endif // _HAS_CXX17
; 2348 : 
; 2349 : public:
; 2350 :     basic_string(const basic_string& _Right)
; 2351 :         : _Mypair(_One_then_variadic_args_t{}, _Alty_traits::select_on_container_copy_construction(_Right._Getal())) {
; 2352 :         auto&& _Alproxy = _GET_PROXY_ALLOCATOR(_Alty, _Getal());
; 2353 :         _Container_proxy_ptr<_Alty> _Proxy(_Alproxy, _Mypair._Myval2);
; 2354 :         _Construct_lv_contents(_Right);
; 2355 :         _Proxy._Release();
; 2356 :     }
; 2357 : 
; 2358 :     basic_string(const basic_string& _Right, const _Alloc& _Al) : _Mypair(_One_then_variadic_args_t{}, _Al) {
; 2359 :         auto&& _Alproxy = _GET_PROXY_ALLOCATOR(_Alty, _Getal());
; 2360 :         _Container_proxy_ptr<_Alty> _Proxy(_Alproxy, _Mypair._Myval2);
; 2361 :         _Construct_lv_contents(_Right);
; 2362 :         _Proxy._Release();
; 2363 :     }
; 2364 : 
; 2365 :     basic_string() noexcept(is_nothrow_default_constructible_v<_Alty>) : _Mypair(_Zero_then_variadic_args_t{}) {
; 2366 :         _Mypair._Myval2._Alloc_proxy(_GET_PROXY_ALLOCATOR(_Alty, _Getal()));
; 2367 :         _Tidy_init();
; 2368 :     }
; 2369 : 
; 2370 :     explicit basic_string(const _Alloc& _Al) noexcept : _Mypair(_One_then_variadic_args_t{}, _Al) {
; 2371 :         _Mypair._Myval2._Alloc_proxy(_GET_PROXY_ALLOCATOR(_Alty, _Getal()));
; 2372 :         _Tidy_init();
; 2373 :     }
; 2374 : 
; 2375 :     basic_string(const basic_string& _Right, const size_type _Roff, const _Alloc& _Al = _Alloc())
; 2376 :         : _Mypair(_One_then_variadic_args_t{}, _Al) { // construct from _Right [_Roff, <end>)
; 2377 :         auto&& _Alproxy = _GET_PROXY_ALLOCATOR(_Alty, _Getal());
; 2378 :         _Container_proxy_ptr<_Alty> _Proxy(_Alproxy, _Mypair._Myval2);
; 2379 :         _Tidy_init();
; 2380 :         assign(_Right, _Roff, npos);
; 2381 :         _Proxy._Release();
; 2382 :     }
; 2383 : 
; 2384 :     basic_string(
; 2385 :         const basic_string& _Right, const size_type _Roff, const size_type _Count, const _Alloc& _Al = _Alloc())
; 2386 :         : _Mypair(_One_then_variadic_args_t{}, _Al) { // construct from _Right [_Roff, _Roff + _Count)
; 2387 :         auto&& _Alproxy = _GET_PROXY_ALLOCATOR(_Alty, _Getal());
; 2388 :         _Container_proxy_ptr<_Alty> _Proxy(_Alproxy, _Mypair._Myval2);
; 2389 :         _Tidy_init();
; 2390 :         assign(_Right, _Roff, _Count);
; 2391 :         _Proxy._Release();
; 2392 :     }
; 2393 : 
; 2394 :     basic_string(_In_reads_(_Count) const _Elem* const _Ptr, _CRT_GUARDOVERFLOW const size_type _Count)
; 2395 :         : _Mypair(_Zero_then_variadic_args_t{}) {
; 2396 :         auto&& _Alproxy = _GET_PROXY_ALLOCATOR(_Alty, _Getal());
; 2397 :         _Container_proxy_ptr<_Alty> _Proxy(_Alproxy, _Mypair._Myval2);
; 2398 :         _Tidy_init();
; 2399 :         assign(_Ptr, _Count);
; 2400 :         _Proxy._Release();
; 2401 :     }
; 2402 : 
; 2403 :     basic_string(
; 2404 :         _In_reads_(_Count) const _Elem* const _Ptr, _CRT_GUARDOVERFLOW const size_type _Count, const _Alloc& _Al)
; 2405 :         : _Mypair(_One_then_variadic_args_t{}, _Al) {
; 2406 :         auto&& _Alproxy = _GET_PROXY_ALLOCATOR(_Alty, _Getal());
; 2407 :         _Container_proxy_ptr<_Alty> _Proxy(_Alproxy, _Mypair._Myval2);
; 2408 :         _Tidy_init();
; 2409 :         assign(_Ptr, _Count);
; 2410 :         _Proxy._Release();
; 2411 :     }
; 2412 : 
; 2413 :     basic_string(_In_z_ const _Elem* const _Ptr) : _Mypair(_Zero_then_variadic_args_t{}) {
; 2414 :         auto&& _Alproxy = _GET_PROXY_ALLOCATOR(_Alty, _Getal());
; 2415 :         _Container_proxy_ptr<_Alty> _Proxy(_Alproxy, _Mypair._Myval2);
; 2416 :         _Tidy_init();
; 2417 :         assign(_Ptr);
; 2418 :         _Proxy._Release();
; 2419 :     }
; 2420 : 
; 2421 : #if _HAS_CXX17
; 2422 :     template <class _Alloc2 = _Alloc, enable_if_t<_Is_allocator<_Alloc2>::value, int> = 0>
; 2423 : #endif // _HAS_CXX17
; 2424 :     basic_string(_In_z_ const _Elem* const _Ptr, const _Alloc& _Al) : _Mypair(_One_then_variadic_args_t{}, _Al) {
; 2425 :         auto&& _Alproxy = _GET_PROXY_ALLOCATOR(_Alty, _Getal());
; 2426 :         _Container_proxy_ptr<_Alty> _Proxy(_Alproxy, _Mypair._Myval2);
; 2427 :         _Tidy_init();
; 2428 :         assign(_Ptr);
; 2429 :         _Proxy._Release();
; 2430 :     }
; 2431 : 
; 2432 :     basic_string(_CRT_GUARDOVERFLOW const size_type _Count, const _Elem _Ch) : _Mypair(_Zero_then_variadic_args_t{}) {
; 2433 :         // construct from _Count * _Ch
; 2434 :         auto&& _Alproxy = _GET_PROXY_ALLOCATOR(_Alty, _Getal());
; 2435 :         _Container_proxy_ptr<_Alty> _Proxy(_Alproxy, _Mypair._Myval2);
; 2436 :         _Tidy_init();
; 2437 :         assign(_Count, _Ch);
; 2438 :         _Proxy._Release();
; 2439 :     }
; 2440 : 
; 2441 : #if _HAS_CXX17
; 2442 :     template <class _Alloc2 = _Alloc, enable_if_t<_Is_allocator<_Alloc2>::value, int> = 0>
; 2443 : #endif // _HAS_CXX17
; 2444 :     basic_string(_CRT_GUARDOVERFLOW const size_type _Count, const _Elem _Ch, const _Alloc& _Al)
; 2445 :         : _Mypair(_One_then_variadic_args_t{}, _Al) { // construct from _Count * _Ch with allocator
; 2446 :         auto&& _Alproxy = _GET_PROXY_ALLOCATOR(_Alty, _Getal());
; 2447 :         _Container_proxy_ptr<_Alty> _Proxy(_Alproxy, _Mypair._Myval2);
; 2448 :         _Tidy_init();
; 2449 :         assign(_Count, _Ch);
; 2450 :         _Proxy._Release();
; 2451 :     }
; 2452 : 
; 2453 :     template <class _Iter, enable_if_t<_Is_iterator_v<_Iter>, int> = 0>
; 2454 :     basic_string(_Iter _First, _Iter _Last, const _Alloc& _Al = _Alloc()) : _Mypair(_One_then_variadic_args_t{}, _Al) {
; 2455 :         auto&& _Alproxy = _GET_PROXY_ALLOCATOR(_Alty, _Getal());
; 2456 :         _Container_proxy_ptr<_Alty> _Proxy(_Alproxy, _Mypair._Myval2);
; 2457 :         _Tidy_init();
; 2458 :         _Adl_verify_range(_First, _Last);
; 2459 :         _Construct(_Get_unwrapped(_First), _Get_unwrapped(_Last), _Iter_cat_t<_Iter>{});
; 2460 :         _Proxy._Release();
; 2461 :     }
; 2462 : 
; 2463 :     template <class _Iter>
; 2464 :     void _Construct(_Iter _First, const _Iter _Last, input_iterator_tag) {
; 2465 :         // initialize from [_First, _Last), input iterators
; 2466 :         _Tidy_deallocate_guard<basic_string> _Guard{this};
; 2467 :         for (; _First != _Last; ++_First) {
; 2468 :             push_back(*_First);
; 2469 :         }
; 2470 : 
; 2471 :         _Guard._Target = nullptr;
; 2472 :     }
; 2473 : 
; 2474 :     template <class _Iter>
; 2475 :     void _Construct(const _Iter _First, const _Iter _Last, forward_iterator_tag) {
; 2476 :         // initialize from [_First, _Last), forward iterators
; 2477 :         const size_type _Count = _Convert_size<size_type>(static_cast<size_t>(_STD distance(_First, _Last)));
; 2478 :         reserve(_Count);
; 2479 :         _Construct(_First, _Last, input_iterator_tag{});
; 2480 :     }
; 2481 : 
; 2482 :     void _Construct(_Elem* const _First, _Elem* const _Last, random_access_iterator_tag) {
; 2483 :         // initialize from [_First, _Last), pointers
; 2484 :         if (_First != _Last) {
; 2485 :             assign(_First, _Convert_size<size_type>(static_cast<size_t>(_Last - _First)));
; 2486 :         }
; 2487 :     }
; 2488 : 
; 2489 :     void _Construct(const _Elem* const _First, const _Elem* const _Last, random_access_iterator_tag) {
; 2490 :         // initialize from [_First, _Last), const pointers
; 2491 :         if (_First != _Last) {
; 2492 :             assign(_First, _Convert_size<size_type>(static_cast<size_t>(_Last - _First)));
; 2493 :         }
; 2494 :     }
; 2495 : 
; 2496 :     basic_string(basic_string&& _Right) noexcept : _Mypair(_One_then_variadic_args_t{}, _STD move(_Right._Getal())) {
; 2497 :         _Mypair._Myval2._Alloc_proxy(_GET_PROXY_ALLOCATOR(_Alty, _Getal()));
; 2498 :         _Take_contents(_Right, bool_constant<_Can_memcpy_val>{});
; 2499 :     }
; 2500 : 
; 2501 :     basic_string(basic_string&& _Right, const _Alloc& _Al) noexcept(
; 2502 :         _Alty_traits::is_always_equal::value) // strengthened
; 2503 :         : _Mypair(_One_then_variadic_args_t{}, _Al) {
; 2504 :         auto&& _Alproxy = _GET_PROXY_ALLOCATOR(_Alty, _Getal());
; 2505 :         _Container_proxy_ptr<_Alty> _Proxy(_Alproxy, _Mypair._Myval2);
; 2506 :         if _CONSTEXPR_IF (!_Alty_traits::is_always_equal::value) {
; 2507 :             if (_Getal() != _Right._Getal()) {
; 2508 :                 _Construct_lv_contents(_Right);
; 2509 :                 _Proxy._Release();
; 2510 :                 return;
; 2511 :             }
; 2512 :         }
; 2513 : 
; 2514 :         _Take_contents(_Right, bool_constant<_Can_memcpy_val>{});
; 2515 :         _Proxy._Release();
; 2516 :     }
; 2517 : 
; 2518 :     basic_string(_String_constructor_concat_tag, const basic_string& _Source_of_al, const _Elem* const _Left_ptr,
; 2519 :         const size_type _Left_size, const _Elem* const _Right_ptr, const size_type _Right_size)
; 2520 :         : _Mypair(

  00034	8b 45 e8	 mov	 eax, DWORD PTR _this$[ebp]
  00037	89 45 bc	 mov	 DWORD PTR _this$[ebp], eax
; File C:\Program Files (x86)\Microsoft Visual Studio\2019\Community\VC\Tools\MSVC\14.28.29333\include\xmemory

; 1344 :         : _Ty1(_STD forward<_Other1>(_Val1)), _Myval2(_STD forward<_Other2>(_Val2)...) {}

  0003a	8b 45 bc	 mov	 eax, DWORD PTR _this$[ebp]
  0003d	89 45 d0	 mov	 DWORD PTR _this$[ebp], eax
; File C:\Program Files (x86)\Microsoft Visual Studio\2019\Community\VC\Tools\MSVC\14.28.29333\include\xstring

; 2198 :     _String_val() noexcept : _Bx(), _Mysize(0), _Myres(0) {}

  00040	8b 45 d0	 mov	 eax, DWORD PTR _this$[ebp]
  00043	83 60 10 00	 and	 DWORD PTR [eax+16], 0
  00047	8b 45 d0	 mov	 eax, DWORD PTR _this$[ebp]
  0004a	83 60 14 00	 and	 DWORD PTR [eax+20], 0

; 2199 : 
; 2200 :     // length of internal buffer, [1, 16]:
; 2201 :     static constexpr size_type _BUF_SIZE = 16 / sizeof(value_type) < 1 ? 1 : 16 / sizeof(value_type);
; 2202 :     // roundup mask for allocated buffers, [0, 15]:
; 2203 :     static constexpr size_type _ALLOC_MASK =
; 2204 :         sizeof(value_type) <= 1
; 2205 :             ? 15
; 2206 :             : sizeof(value_type) <= 2 ? 7 : sizeof(value_type) <= 4 ? 3 : sizeof(value_type) <= 8 ? 1 : 0;
; 2207 : 
; 2208 :     value_type* _Myptr() noexcept {
; 2209 :         value_type* _Result = _Bx._Buf;
; 2210 :         if (_Large_string_engaged()) {
; 2211 :             _Result = _Unfancy(_Bx._Ptr);
; 2212 :         }
; 2213 : 
; 2214 :         return _Result;
; 2215 :     }
; 2216 : 
; 2217 :     const value_type* _Myptr() const noexcept {
; 2218 :         const value_type* _Result = _Bx._Buf;
; 2219 :         if (_Large_string_engaged()) {
; 2220 :             _Result = _Unfancy(_Bx._Ptr);
; 2221 :         }
; 2222 : 
; 2223 :         return _Result;
; 2224 :     }
; 2225 : 
; 2226 :     bool _Large_string_engaged() const noexcept {
; 2227 :         return _BUF_SIZE <= _Myres;
; 2228 :     }
; 2229 : 
; 2230 :     void _Check_offset(const size_type _Off) const { // checks whether _Off is in the bounds of [0, size()]
; 2231 :         if (_Mysize < _Off) {
; 2232 :             _Xran();
; 2233 :         }
; 2234 :     }
; 2235 : 
; 2236 :     void _Check_offset_exclusive(const size_type _Off) const { // checks whether _Off is in the bounds of [0, size())
; 2237 :         if (_Mysize <= _Off) {
; 2238 :             _Xran();
; 2239 :         }
; 2240 :     }
; 2241 : 
; 2242 :     [[noreturn]] static void _Xran() {
; 2243 :         _Xout_of_range("invalid string position");
; 2244 :     }
; 2245 : 
; 2246 :     size_type _Clamp_suffix_size(const size_type _Off, const size_type _Size) const noexcept {
; 2247 :         // trims _Size to the longest it can be assuming a string at/after _Off
; 2248 :         return (_STD min)(_Size, _Mysize - _Off);
; 2249 :     }
; 2250 : 
; 2251 :     union _Bxty { // storage for small buffer or pointer to larger one
; 2252 :         _Bxty() noexcept {} // user-provided, for fancy pointers
; 2253 : 
; 2254 :         ~_Bxty() noexcept {} // user-provided, for fancy pointers
; 2255 : 
; 2256 :         value_type _Buf[_BUF_SIZE];
; 2257 :         pointer _Ptr;
; 2258 :         char _Alias[_BUF_SIZE]; // TRANSITION, ABI: _Alias is preserved for binary compatibility (especially /clr)
; 2259 :     } _Bx;
; 2260 : 
; 2261 :     size_type _Mysize; // current length of string
; 2262 :     size_type _Myres; // current storage reserved for string
; 2263 : };
; 2264 : 
; 2265 : // CLASS TEMPLATE basic_string
; 2266 : template <class _Ty>
; 2267 : constexpr size_t _Size_after_ebco_v = is_empty_v<_Ty> ? 0 : sizeof(_Ty); // get _Ty's size after being EBCO'd
; 2268 : 
; 2269 : struct _String_constructor_concat_tag {
; 2270 :     // tag to select constructors used by basic_string's concatenation operators (operator+)
; 2271 :     explicit _String_constructor_concat_tag() = default;
; 2272 : };
; 2273 : 
; 2274 : [[noreturn]] inline void _Xlen_string() {
; 2275 :     _Xlength_error("string too long");
; 2276 : }
; 2277 : 
; 2278 : template <class _Elem, class _Traits = char_traits<_Elem>, class _Alloc = allocator<_Elem>>
; 2279 : class basic_string { // null-terminated transparent array of elements
; 2280 : private:
; 2281 :     friend _Tidy_deallocate_guard<basic_string>;
; 2282 : 
; 2283 :     using _Alty        = _Rebind_alloc_t<_Alloc, _Elem>;
; 2284 :     using _Alty_traits = allocator_traits<_Alty>;
; 2285 : 
; 2286 :     using _Scary_val = _String_val<conditional_t<_Is_simple_alloc_v<_Alty>, _Simple_types<_Elem>,
; 2287 :         _String_iter_types<_Elem, typename _Alty_traits::size_type, typename _Alty_traits::difference_type,
; 2288 :             typename _Alty_traits::pointer, typename _Alty_traits::const_pointer, _Elem&, const _Elem&>>>;
; 2289 : 
; 2290 :     static_assert(!_ENFORCE_MATCHING_ALLOCATORS || is_same_v<_Elem, typename _Alloc::value_type>,
; 2291 :         _MISMATCHED_ALLOCATOR_MESSAGE("basic_string<T, Traits, Allocator>", "T"));
; 2292 : 
; 2293 :     static_assert(is_same_v<_Elem, typename _Traits::char_type>,
; 2294 :         "N4659 24.3.2.1 [string.require]/3 requires that the supplied "
; 2295 :         "char_traits character type match the string's character type.");
; 2296 : 
; 2297 :     static_assert(!is_array_v<_Elem> && is_trivial_v<_Elem> && is_standard_layout_v<_Elem>,
; 2298 :         "The character type of basic_string must be a non-array trivial standard-layout type. See N4861 "
; 2299 :         "[strings.general]/1.");
; 2300 : 
; 2301 : public:
; 2302 :     using traits_type    = _Traits;
; 2303 :     using allocator_type = _Alloc;
; 2304 : 
; 2305 :     using value_type      = _Elem;
; 2306 :     using size_type       = typename _Alty_traits::size_type;
; 2307 :     using difference_type = typename _Alty_traits::difference_type;
; 2308 :     using pointer         = typename _Alty_traits::pointer;
; 2309 :     using const_pointer   = typename _Alty_traits::const_pointer;
; 2310 :     using reference       = value_type&;
; 2311 :     using const_reference = const value_type&;
; 2312 : 
; 2313 :     using iterator       = _String_iterator<_Scary_val>;
; 2314 :     using const_iterator = _String_const_iterator<_Scary_val>;
; 2315 : 
; 2316 :     using reverse_iterator       = _STD reverse_iterator<iterator>;
; 2317 :     using const_reverse_iterator = _STD reverse_iterator<const_iterator>;
; 2318 : 
; 2319 : private:
; 2320 :     static constexpr auto _BUF_SIZE   = _Scary_val::_BUF_SIZE;
; 2321 :     static constexpr auto _ALLOC_MASK = _Scary_val::_ALLOC_MASK;
; 2322 : 
; 2323 :     // When doing _String_val operations by memcpy, we are touching:
; 2324 :     //   _String_val::_Bx::_Buf (type is array of _Elem)
; 2325 :     //   _String_val::_Bx::_Ptr (type is pointer)
; 2326 :     //   _String_val::_Mysize   (type is size_type)
; 2327 :     //   _String_val::_Myres    (type is size_type)
; 2328 :     // N4810 21.1 [strings.general]/1 says _Elem must be trivial standard-layout, so memcpy is safe.
; 2329 :     // We need to ask if pointer is safe to memcpy.
; 2330 :     // size_type must be an unsigned integral type so memcpy is safe.
; 2331 :     // We also need to disable memcpy if the user has supplied _Traits, since
; 2332 :     //   they can observe traits::assign and similar.
; 2333 :     static constexpr bool _Can_memcpy_val = _Is_specialization_v<_Traits, char_traits> && is_trivial_v<pointer>;
; 2334 :     // This offset skips over the _Container_base members, if any
; 2335 :     static constexpr size_t _Memcpy_val_offset = _Size_after_ebco_v<_Container_base>;
; 2336 :     static constexpr size_t _Memcpy_val_size   = sizeof(_Scary_val) - _Memcpy_val_offset;
; 2337 : 
; 2338 :     template <class _Iter>
; 2339 :     using _Is_elem_cptr = bool_constant<_Is_any_of_v<_Iter, const _Elem* const, _Elem* const, const _Elem*, _Elem*>>;
; 2340 : 
; 2341 : #if _HAS_CXX17
; 2342 :     template <class _StringViewIsh>
; 2343 :     using _Is_string_view_ish =
; 2344 :         enable_if_t<conjunction_v<is_convertible<const _StringViewIsh&, basic_string_view<_Elem, _Traits>>,
; 2345 :                         negation<is_convertible<const _StringViewIsh&, const _Elem*>>>,
; 2346 :             int>;
; 2347 : #endif // _HAS_CXX17
; 2348 : 
; 2349 : public:
; 2350 :     basic_string(const basic_string& _Right)
; 2351 :         : _Mypair(_One_then_variadic_args_t{}, _Alty_traits::select_on_container_copy_construction(_Right._Getal())) {
; 2352 :         auto&& _Alproxy = _GET_PROXY_ALLOCATOR(_Alty, _Getal());
; 2353 :         _Container_proxy_ptr<_Alty> _Proxy(_Alproxy, _Mypair._Myval2);
; 2354 :         _Construct_lv_contents(_Right);
; 2355 :         _Proxy._Release();
; 2356 :     }
; 2357 : 
; 2358 :     basic_string(const basic_string& _Right, const _Alloc& _Al) : _Mypair(_One_then_variadic_args_t{}, _Al) {
; 2359 :         auto&& _Alproxy = _GET_PROXY_ALLOCATOR(_Alty, _Getal());
; 2360 :         _Container_proxy_ptr<_Alty> _Proxy(_Alproxy, _Mypair._Myval2);
; 2361 :         _Construct_lv_contents(_Right);
; 2362 :         _Proxy._Release();
; 2363 :     }
; 2364 : 
; 2365 :     basic_string() noexcept(is_nothrow_default_constructible_v<_Alty>) : _Mypair(_Zero_then_variadic_args_t{}) {
; 2366 :         _Mypair._Myval2._Alloc_proxy(_GET_PROXY_ALLOCATOR(_Alty, _Getal()));
; 2367 :         _Tidy_init();
; 2368 :     }
; 2369 : 
; 2370 :     explicit basic_string(const _Alloc& _Al) noexcept : _Mypair(_One_then_variadic_args_t{}, _Al) {
; 2371 :         _Mypair._Myval2._Alloc_proxy(_GET_PROXY_ALLOCATOR(_Alty, _Getal()));
; 2372 :         _Tidy_init();
; 2373 :     }
; 2374 : 
; 2375 :     basic_string(const basic_string& _Right, const size_type _Roff, const _Alloc& _Al = _Alloc())
; 2376 :         : _Mypair(_One_then_variadic_args_t{}, _Al) { // construct from _Right [_Roff, <end>)
; 2377 :         auto&& _Alproxy = _GET_PROXY_ALLOCATOR(_Alty, _Getal());
; 2378 :         _Container_proxy_ptr<_Alty> _Proxy(_Alproxy, _Mypair._Myval2);
; 2379 :         _Tidy_init();
; 2380 :         assign(_Right, _Roff, npos);
; 2381 :         _Proxy._Release();
; 2382 :     }
; 2383 : 
; 2384 :     basic_string(
; 2385 :         const basic_string& _Right, const size_type _Roff, const size_type _Count, const _Alloc& _Al = _Alloc())
; 2386 :         : _Mypair(_One_then_variadic_args_t{}, _Al) { // construct from _Right [_Roff, _Roff + _Count)
; 2387 :         auto&& _Alproxy = _GET_PROXY_ALLOCATOR(_Alty, _Getal());
; 2388 :         _Container_proxy_ptr<_Alty> _Proxy(_Alproxy, _Mypair._Myval2);
; 2389 :         _Tidy_init();
; 2390 :         assign(_Right, _Roff, _Count);
; 2391 :         _Proxy._Release();
; 2392 :     }
; 2393 : 
; 2394 :     basic_string(_In_reads_(_Count) const _Elem* const _Ptr, _CRT_GUARDOVERFLOW const size_type _Count)
; 2395 :         : _Mypair(_Zero_then_variadic_args_t{}) {
; 2396 :         auto&& _Alproxy = _GET_PROXY_ALLOCATOR(_Alty, _Getal());
; 2397 :         _Container_proxy_ptr<_Alty> _Proxy(_Alproxy, _Mypair._Myval2);
; 2398 :         _Tidy_init();
; 2399 :         assign(_Ptr, _Count);
; 2400 :         _Proxy._Release();
; 2401 :     }
; 2402 : 
; 2403 :     basic_string(
; 2404 :         _In_reads_(_Count) const _Elem* const _Ptr, _CRT_GUARDOVERFLOW const size_type _Count, const _Alloc& _Al)
; 2405 :         : _Mypair(_One_then_variadic_args_t{}, _Al) {
; 2406 :         auto&& _Alproxy = _GET_PROXY_ALLOCATOR(_Alty, _Getal());
; 2407 :         _Container_proxy_ptr<_Alty> _Proxy(_Alproxy, _Mypair._Myval2);
; 2408 :         _Tidy_init();
; 2409 :         assign(_Ptr, _Count);
; 2410 :         _Proxy._Release();
; 2411 :     }
; 2412 : 
; 2413 :     basic_string(_In_z_ const _Elem* const _Ptr) : _Mypair(_Zero_then_variadic_args_t{}) {
; 2414 :         auto&& _Alproxy = _GET_PROXY_ALLOCATOR(_Alty, _Getal());
; 2415 :         _Container_proxy_ptr<_Alty> _Proxy(_Alproxy, _Mypair._Myval2);
; 2416 :         _Tidy_init();
; 2417 :         assign(_Ptr);
; 2418 :         _Proxy._Release();
; 2419 :     }
; 2420 : 
; 2421 : #if _HAS_CXX17
; 2422 :     template <class _Alloc2 = _Alloc, enable_if_t<_Is_allocator<_Alloc2>::value, int> = 0>
; 2423 : #endif // _HAS_CXX17
; 2424 :     basic_string(_In_z_ const _Elem* const _Ptr, const _Alloc& _Al) : _Mypair(_One_then_variadic_args_t{}, _Al) {
; 2425 :         auto&& _Alproxy = _GET_PROXY_ALLOCATOR(_Alty, _Getal());
; 2426 :         _Container_proxy_ptr<_Alty> _Proxy(_Alproxy, _Mypair._Myval2);
; 2427 :         _Tidy_init();
; 2428 :         assign(_Ptr);
; 2429 :         _Proxy._Release();
; 2430 :     }
; 2431 : 
; 2432 :     basic_string(_CRT_GUARDOVERFLOW const size_type _Count, const _Elem _Ch) : _Mypair(_Zero_then_variadic_args_t{}) {
; 2433 :         // construct from _Count * _Ch
; 2434 :         auto&& _Alproxy = _GET_PROXY_ALLOCATOR(_Alty, _Getal());
; 2435 :         _Container_proxy_ptr<_Alty> _Proxy(_Alproxy, _Mypair._Myval2);
; 2436 :         _Tidy_init();
; 2437 :         assign(_Count, _Ch);
; 2438 :         _Proxy._Release();
; 2439 :     }
; 2440 : 
; 2441 : #if _HAS_CXX17
; 2442 :     template <class _Alloc2 = _Alloc, enable_if_t<_Is_allocator<_Alloc2>::value, int> = 0>
; 2443 : #endif // _HAS_CXX17
; 2444 :     basic_string(_CRT_GUARDOVERFLOW const size_type _Count, const _Elem _Ch, const _Alloc& _Al)
; 2445 :         : _Mypair(_One_then_variadic_args_t{}, _Al) { // construct from _Count * _Ch with allocator
; 2446 :         auto&& _Alproxy = _GET_PROXY_ALLOCATOR(_Alty, _Getal());
; 2447 :         _Container_proxy_ptr<_Alty> _Proxy(_Alproxy, _Mypair._Myval2);
; 2448 :         _Tidy_init();
; 2449 :         assign(_Count, _Ch);
; 2450 :         _Proxy._Release();
; 2451 :     }
; 2452 : 
; 2453 :     template <class _Iter, enable_if_t<_Is_iterator_v<_Iter>, int> = 0>
; 2454 :     basic_string(_Iter _First, _Iter _Last, const _Alloc& _Al = _Alloc()) : _Mypair(_One_then_variadic_args_t{}, _Al) {
; 2455 :         auto&& _Alproxy = _GET_PROXY_ALLOCATOR(_Alty, _Getal());
; 2456 :         _Container_proxy_ptr<_Alty> _Proxy(_Alproxy, _Mypair._Myval2);
; 2457 :         _Tidy_init();
; 2458 :         _Adl_verify_range(_First, _Last);
; 2459 :         _Construct(_Get_unwrapped(_First), _Get_unwrapped(_Last), _Iter_cat_t<_Iter>{});
; 2460 :         _Proxy._Release();
; 2461 :     }
; 2462 : 
; 2463 :     template <class _Iter>
; 2464 :     void _Construct(_Iter _First, const _Iter _Last, input_iterator_tag) {
; 2465 :         // initialize from [_First, _Last), input iterators
; 2466 :         _Tidy_deallocate_guard<basic_string> _Guard{this};
; 2467 :         for (; _First != _Last; ++_First) {
; 2468 :             push_back(*_First);
; 2469 :         }
; 2470 : 
; 2471 :         _Guard._Target = nullptr;
; 2472 :     }
; 2473 : 
; 2474 :     template <class _Iter>
; 2475 :     void _Construct(const _Iter _First, const _Iter _Last, forward_iterator_tag) {
; 2476 :         // initialize from [_First, _Last), forward iterators
; 2477 :         const size_type _Count = _Convert_size<size_type>(static_cast<size_t>(_STD distance(_First, _Last)));
; 2478 :         reserve(_Count);
; 2479 :         _Construct(_First, _Last, input_iterator_tag{});
; 2480 :     }
; 2481 : 
; 2482 :     void _Construct(_Elem* const _First, _Elem* const _Last, random_access_iterator_tag) {
; 2483 :         // initialize from [_First, _Last), pointers
; 2484 :         if (_First != _Last) {
; 2485 :             assign(_First, _Convert_size<size_type>(static_cast<size_t>(_Last - _First)));
; 2486 :         }
; 2487 :     }
; 2488 : 
; 2489 :     void _Construct(const _Elem* const _First, const _Elem* const _Last, random_access_iterator_tag) {
; 2490 :         // initialize from [_First, _Last), const pointers
; 2491 :         if (_First != _Last) {
; 2492 :             assign(_First, _Convert_size<size_type>(static_cast<size_t>(_Last - _First)));
; 2493 :         }
; 2494 :     }
; 2495 : 
; 2496 :     basic_string(basic_string&& _Right) noexcept : _Mypair(_One_then_variadic_args_t{}, _STD move(_Right._Getal())) {
; 2497 :         _Mypair._Myval2._Alloc_proxy(_GET_PROXY_ALLOCATOR(_Alty, _Getal()));
; 2498 :         _Take_contents(_Right, bool_constant<_Can_memcpy_val>{});
; 2499 :     }
; 2500 : 
; 2501 :     basic_string(basic_string&& _Right, const _Alloc& _Al) noexcept(
; 2502 :         _Alty_traits::is_always_equal::value) // strengthened
; 2503 :         : _Mypair(_One_then_variadic_args_t{}, _Al) {
; 2504 :         auto&& _Alproxy = _GET_PROXY_ALLOCATOR(_Alty, _Getal());
; 2505 :         _Container_proxy_ptr<_Alty> _Proxy(_Alproxy, _Mypair._Myval2);
; 2506 :         if _CONSTEXPR_IF (!_Alty_traits::is_always_equal::value) {
; 2507 :             if (_Getal() != _Right._Getal()) {
; 2508 :                 _Construct_lv_contents(_Right);
; 2509 :                 _Proxy._Release();
; 2510 :                 return;
; 2511 :             }
; 2512 :         }
; 2513 : 
; 2514 :         _Take_contents(_Right, bool_constant<_Can_memcpy_val>{});
; 2515 :         _Proxy._Release();
; 2516 :     }
; 2517 : 
; 2518 :     basic_string(_String_constructor_concat_tag, const basic_string& _Source_of_al, const _Elem* const _Left_ptr,
; 2519 :         const size_type _Left_size, const _Elem* const _Right_ptr, const size_type _Right_size)
; 2520 :         : _Mypair(

  0004e	83 65 fc 00	 and	 DWORD PTR __$EHRec$[ebp+8], 0

; 2522 :         _STL_INTERNAL_CHECK(_Left_size <= max_size());
; 2523 :         _STL_INTERNAL_CHECK(_Right_size <= max_size());
; 2524 :         _STL_INTERNAL_CHECK(_Right_size <= max_size() - _Left_size);
; 2525 :         const auto _New_size    = static_cast<size_type>(_Left_size + _Right_size);

  00052	8b 45 14	 mov	 eax, DWORD PTR __Left_size$[ebp]
  00055	03 45 1c	 add	 eax, DWORD PTR __Right_size$[ebp]
  00058	89 45 d8	 mov	 DWORD PTR __New_size$[ebp], eax

; 2526 :         size_type _New_capacity = _BUF_SIZE - 1;

  0005b	c7 45 ec 0f 00
	00 00		 mov	 DWORD PTR __New_capacity$[ebp], 15 ; 0000000fH

; 2527 :         auto& _My_data          = _Mypair._Myval2;

  00062	8b 45 e8	 mov	 eax, DWORD PTR _this$[ebp]
  00065	89 45 e0	 mov	 DWORD PTR __My_data$[ebp], eax

; 2528 :         _Elem* _Ptr             = _My_data._Bx._Buf;

  00068	8b 45 e0	 mov	 eax, DWORD PTR __My_data$[ebp]
  0006b	89 45 dc	 mov	 DWORD PTR __Ptr$[ebp], eax

; 2529 :         auto&& _Alproxy         = _GET_PROXY_ALLOCATOR(_Alty, _Getal());

  0006e	8d 45 f2	 lea	 eax, DWORD PTR _$S10$[ebp]
  00071	89 45 a0	 mov	 DWORD PTR __Alproxy$[ebp], eax

; 2530 :         _Container_proxy_ptr<_Alty> _Proxy(_Alproxy, _My_data); // throws
; 2531 :         if (_New_capacity < _New_size) {

  00074	8b 45 ec	 mov	 eax, DWORD PTR __New_capacity$[ebp]
  00077	3b 45 d8	 cmp	 eax, DWORD PTR __New_size$[ebp]
  0007a	0f 83 a8 00 00
	00		 jae	 $LN2@basic_stri

; 2532 :             _New_capacity           = _Calculate_growth(_New_size, _BUF_SIZE - 1, max_size());

  00080	8b 4d e8	 mov	 ecx, DWORD PTR _this$[ebp]
  00083	e8 00 00 00 00	 call	 ?max_size@?$basic_string@DU?$char_traits@D@std@@V?$allocator@D@2@@std@@QBEIXZ ; std::basic_string<char,std::char_traits<char>,std::allocator<char> >::max_size
  00088	89 45 e4	 mov	 DWORD PTR __Max$[ebp], eax

; 4285 :         const size_type _Masked = _Requested | _ALLOC_MASK;

  0008b	8b 45 d8	 mov	 eax, DWORD PTR __New_size$[ebp]
  0008e	83 c8 0f	 or	 eax, 15			; 0000000fH
  00091	89 45 d4	 mov	 DWORD PTR __Masked$10[ebp], eax

; 4286 :         if (_Masked > _Max) { // the mask overflows, settle for max_size()

  00094	8b 45 d4	 mov	 eax, DWORD PTR __Masked$10[ebp]
  00097	3b 45 e4	 cmp	 eax, DWORD PTR __Max$[ebp]
  0009a	76 08		 jbe	 SHORT $LN54@basic_stri

; 4287 :             return _Max;

  0009c	8b 45 e4	 mov	 eax, DWORD PTR __Max$[ebp]
  0009f	89 45 ec	 mov	 DWORD PTR __New_capacity$[ebp], eax
  000a2	eb 4c		 jmp	 SHORT $LN56@basic_stri
$LN54@basic_stri:

; 4288 :         }
; 4289 : 
; 4290 :         if (_Old > _Max - _Old / 2) { // similarly, geometric overflows

  000a4	6a 0f		 push	 15			; 0000000fH
  000a6	58		 pop	 eax
  000a7	d1 e8		 shr	 eax, 1
  000a9	8b 4d e4	 mov	 ecx, DWORD PTR __Max$[ebp]
  000ac	2b c8		 sub	 ecx, eax
  000ae	83 f9 0f	 cmp	 ecx, 15			; 0000000fH
  000b1	73 08		 jae	 SHORT $LN55@basic_stri

; 4291 :             return _Max;

  000b3	8b 45 e4	 mov	 eax, DWORD PTR __Max$[ebp]
  000b6	89 45 ec	 mov	 DWORD PTR __New_capacity$[ebp], eax
  000b9	eb 35		 jmp	 SHORT $LN56@basic_stri
$LN55@basic_stri:

; 4294 :         return (_STD max)(_Masked, _Old + _Old / 2);

  000bb	6a 0f		 push	 15			; 0000000fH
  000bd	58		 pop	 eax
  000be	d1 e8		 shr	 eax, 1
  000c0	83 c0 0f	 add	 eax, 15			; 0000000fH
  000c3	89 45 cc	 mov	 DWORD PTR $T9[ebp], eax
; File C:\Program Files (x86)\Microsoft Visual Studio\2019\Community\VC\Tools\MSVC\14.28.29333\include\utility

; 44   :     return _Left < _Right ? _Right : _Left;

  000c6	8b 45 d4	 mov	 eax, DWORD PTR __Masked$10[ebp]
  000c9	3b 45 cc	 cmp	 eax, DWORD PTR $T9[ebp]
  000cc	73 08		 jae	 SHORT $LN60@basic_stri
  000ce	8d 45 cc	 lea	 eax, DWORD PTR $T9[ebp]
  000d1	89 45 c8	 mov	 DWORD PTR tv190[ebp], eax
  000d4	eb 06		 jmp	 SHORT $LN61@basic_stri
$LN60@basic_stri:
  000d6	8d 45 d4	 lea	 eax, DWORD PTR __Masked$10[ebp]
  000d9	89 45 c8	 mov	 DWORD PTR tv190[ebp], eax
$LN61@basic_stri:
  000dc	8b 45 c8	 mov	 eax, DWORD PTR tv190[ebp]
  000df	89 45 b8	 mov	 DWORD PTR $T6[ebp], eax
  000e2	8b 45 b8	 mov	 eax, DWORD PTR $T6[ebp]
  000e5	89 45 b4	 mov	 DWORD PTR $T5[ebp], eax
; File C:\Program Files (x86)\Microsoft Visual Studio\2019\Community\VC\Tools\MSVC\14.28.29333\include\xstring

; 4294 :         return (_STD max)(_Masked, _Old + _Old / 2);

  000e8	8b 45 b4	 mov	 eax, DWORD PTR $T5[ebp]
  000eb	8b 00		 mov	 eax, DWORD PTR [eax]
  000ed	89 45 ec	 mov	 DWORD PTR __New_capacity$[ebp], eax
$LN56@basic_stri:

; 4409 :         return _Mypair._Get_first();

  000f0	8b 45 e8	 mov	 eax, DWORD PTR _this$[ebp]
; File C:\Program Files (x86)\Microsoft Visual Studio\2019\Community\VC\Tools\MSVC\14.28.29333\include\xmemory

; 1347 :         return *this;

  000f3	89 45 b0	 mov	 DWORD PTR $T4[ebp], eax
; File C:\Program Files (x86)\Microsoft Visual Studio\2019\Community\VC\Tools\MSVC\14.28.29333\include\xstring

; 4409 :         return _Mypair._Get_first();

  000f6	8b 45 b0	 mov	 eax, DWORD PTR $T4[ebp]
  000f9	89 45 9c	 mov	 DWORD PTR $T2[ebp], eax
; File C:\Program Files (x86)\Microsoft Visual Studio\2019\Community\VC\Tools\MSVC\14.28.29333\include\xmemory

; 56   :     constexpr bool _Overflow_is_possible = _Ty_size > 1;

  000fc	c6 45 f1 00	 mov	 BYTE PTR __Overflow_is_possible$11[ebp], 0
; File C:\Program Files (x86)\Microsoft Visual Studio\2019\Community\VC\Tools\MSVC\14.28.29333\include\xstring

; 2533 :             const pointer _Fancyptr = _Getal().allocate(_New_capacity + 1); // throws

  00100	8b 45 ec	 mov	 eax, DWORD PTR __New_capacity$[ebp]
  00103	40		 inc	 eax
; File C:\Program Files (x86)\Microsoft Visual Studio\2019\Community\VC\Tools\MSVC\14.28.29333\include\xmemory

; 814  :         return static_cast<_Ty*>(_Allocate<_New_alignof<_Ty>>(_Get_size_of_n<sizeof(_Ty)>(_Count)));

  00104	50		 push	 eax
  00105	e8 00 00 00 00	 call	 ??$_Allocate@$07U_Default_allocate_traits@std@@$0A@@std@@YAPAXI@Z ; std::_Allocate<8,std::_Default_allocate_traits,0>
  0010a	59		 pop	 ecx
; File C:\Program Files (x86)\Microsoft Visual Studio\2019\Community\VC\Tools\MSVC\14.28.29333\include\xstring

; 2533 :             const pointer _Fancyptr = _Getal().allocate(_New_capacity + 1); // throws

  0010b	89 45 c4	 mov	 DWORD PTR __Fancyptr$8[ebp], eax

; 2534 :             _Ptr                    = _Unfancy(_Fancyptr);

  0010e	8b 45 c4	 mov	 eax, DWORD PTR __Fancyptr$8[ebp]
  00111	89 45 ac	 mov	 DWORD PTR __Ptr$[ebp], eax
; File C:\Program Files (x86)\Microsoft Visual Studio\2019\Community\VC\Tools\MSVC\14.28.29333\include\xstddef

; 289  :     return _Ptr;

  00114	8b 45 ac	 mov	 eax, DWORD PTR __Ptr$[ebp]
  00117	89 45 dc	 mov	 DWORD PTR __Ptr$[ebp], eax
; File C:\Program Files (x86)\Microsoft Visual Studio\2019\Community\VC\Tools\MSVC\14.28.29333\include\xstring

; 2535 :             _Construct_in_place(_My_data._Bx._Ptr, _Fancyptr);

  0011a	8d 45 c4	 lea	 eax, DWORD PTR __Fancyptr$8[ebp]
  0011d	50		 push	 eax
  0011e	ff 75 e0	 push	 DWORD PTR __My_data$[ebp]
  00121	e8 00 00 00 00	 call	 ??$_Construct_in_place@PADABQAD@std@@YAXAAPADABQAD@Z ; std::_Construct_in_place<char *,char * const &>
  00126	59		 pop	 ecx
  00127	59		 pop	 ecx
$LN2@basic_stri:

; 2536 :         }
; 2537 : 
; 2538 :         _My_data._Mysize = _New_size;

  00128	8b 45 e0	 mov	 eax, DWORD PTR __My_data$[ebp]
  0012b	8b 4d d8	 mov	 ecx, DWORD PTR __New_size$[ebp]
  0012e	89 48 10	 mov	 DWORD PTR [eax+16], ecx

; 2539 :         _My_data._Myres  = _New_capacity;

  00131	8b 45 e0	 mov	 eax, DWORD PTR __My_data$[ebp]
  00134	8b 4d ec	 mov	 ecx, DWORD PTR __New_capacity$[ebp]
  00137	89 48 14	 mov	 DWORD PTR [eax+20], ecx

; 62   :         _CSTD memcpy(_First1, _First2, _Count * sizeof(_Elem));

  0013a	ff 75 14	 push	 DWORD PTR __Left_size$[ebp]
  0013d	ff 75 10	 push	 DWORD PTR __Left_ptr$[ebp]
  00140	ff 75 dc	 push	 DWORD PTR __Ptr$[ebp]
  00143	e8 00 00 00 00	 call	 _memcpy
  00148	83 c4 0c	 add	 esp, 12			; 0000000cH

; 2540 :         _Traits::copy(_Ptr, _Left_ptr, _Left_size);
; 2541 :         _Traits::copy(_Ptr + static_cast<ptrdiff_t>(_Left_size), _Right_ptr, _Right_size);

  0014b	8b 45 dc	 mov	 eax, DWORD PTR __Ptr$[ebp]
  0014e	03 45 14	 add	 eax, DWORD PTR __Left_size$[ebp]
  00151	89 45 a8	 mov	 DWORD PTR __First1$[ebp], eax

; 62   :         _CSTD memcpy(_First1, _First2, _Count * sizeof(_Elem));

  00154	ff 75 1c	 push	 DWORD PTR __Right_size$[ebp]
  00157	ff 75 18	 push	 DWORD PTR __Right_ptr$[ebp]
  0015a	ff 75 a8	 push	 DWORD PTR __First1$[ebp]
  0015d	e8 00 00 00 00	 call	 _memcpy
  00162	83 c4 0c	 add	 esp, 12			; 0000000cH

; 2542 :         _Traits::assign(_Ptr[_New_size], _Elem());

  00165	c6 45 f3 00	 mov	 BYTE PTR $T12[ebp], 0

; 428  :         _Left = _Right;

  00169	8b 45 dc	 mov	 eax, DWORD PTR __Ptr$[ebp]
  0016c	03 45 d8	 add	 eax, DWORD PTR __New_size$[ebp]
  0016f	8a 4d f3	 mov	 cl, BYTE PTR $T12[ebp]
  00172	88 08		 mov	 BYTE PTR [eax], cl

; 2543 :         _Proxy._Release();
; 2544 :     }

  00174	83 4d fc ff	 or	 DWORD PTR __$EHRec$[ebp+8], -1
  00178	8b 45 e8	 mov	 eax, DWORD PTR _this$[ebp]
  0017b	8b 4d f4	 mov	 ecx, DWORD PTR __$EHRec$[ebp]
  0017e	64 89 0d 00 00
	00 00		 mov	 DWORD PTR fs:0, ecx
  00185	59		 pop	 ecx
  00186	c9		 leave
  00187	c2 18 00	 ret	 24			; 00000018H
_TEXT	ENDS
;	COMDAT text$x
text$x	SEGMENT
__unwindfunclet$??0?$basic_string@DU?$char_traits@D@std@@V?$allocator@D@2@@std@@QAE@U_String_constructor_concat_tag@1@ABV01@QBDI2I@Z$0:
  00000	8b 4d e8	 mov	 ecx, DWORD PTR _this$[ebp]
  00003	e9 00 00 00 00	 jmp	 ??1?$_Compressed_pair@V?$allocator@D@std@@V?$_String_val@U?$_Simple_types@D@std@@@2@$00@std@@QAE@XZ
  00008	cc		 int	 3
  00009	cc		 int	 3
  0000a	cc		 int	 3
  0000b	cc		 int	 3
  0000c	cc		 int	 3
__ehhandler$??0?$basic_string@DU?$char_traits@D@std@@V?$allocator@D@2@@std@@QAE@U_String_constructor_concat_tag@1@ABV01@QBDI2I@Z:
  0000d	90		 npad	 1
  0000e	90		 npad	 1
  0000f	8b 54 24 08	 mov	 edx, DWORD PTR [esp+8]
  00013	8d 42 0c	 lea	 eax, DWORD PTR [edx+12]
  00016	8b 4a a4	 mov	 ecx, DWORD PTR [edx-92]
  00019	33 c8		 xor	 ecx, eax
  0001b	e8 00 00 00 00	 call	 @__security_check_cookie@4
  00020	b8 00 00 00 00	 mov	 eax, OFFSET __ehfuncinfo$??0?$basic_string@DU?$char_traits@D@std@@V?$allocator@D@2@@std@@QAE@U_String_constructor_concat_tag@1@ABV01@QBDI2I@Z
  00025	e9 00 00 00 00	 jmp	 ___CxxFrameHandler3
text$x	ENDS
??0?$basic_string@DU?$char_traits@D@std@@V?$allocator@D@2@@std@@QAE@U_String_constructor_concat_tag@1@ABV01@QBDI2I@Z ENDP ; std::basic_string<char,std::char_traits<char>,std::allocator<char> >::basic_string<char,std::char_traits<char>,std::allocator<char> >
; Function compile flags: /Odspy
; File C:\Program Files (x86)\Microsoft Visual Studio\2019\Community\VC\Tools\MSVC\14.28.29333\include\xstring
; File C:\Program Files (x86)\Microsoft Visual Studio\2019\Community\VC\Tools\MSVC\14.28.29333\include\xmemory
; File C:\Program Files (x86)\Microsoft Visual Studio\2019\Community\VC\Tools\MSVC\14.28.29333\include\xstring
; File C:\Program Files (x86)\Microsoft Visual Studio\2019\Community\VC\Tools\MSVC\14.28.29333\include\type_traits
; File C:\Program Files (x86)\Microsoft Visual Studio\2019\Community\VC\Tools\MSVC\14.28.29333\include\xstring
; File C:\Program Files (x86)\Microsoft Visual Studio\2019\Community\VC\Tools\MSVC\14.28.29333\include\xmemory
; File C:\Program Files (x86)\Microsoft Visual Studio\2019\Community\VC\Tools\MSVC\14.28.29333\include\xstring
; File C:\Program Files (x86)\Microsoft Visual Studio\2019\Community\VC\Tools\MSVC\14.28.29333\include\xstddef
; File C:\Program Files (x86)\Microsoft Visual Studio\2019\Community\VC\Tools\MSVC\14.28.29333\include\xstring
; File C:\Program Files (x86)\Microsoft Visual Studio\2019\Community\VC\Tools\MSVC\14.28.29333\include\xstddef
; File C:\Program Files (x86)\Microsoft Visual Studio\2019\Community\VC\Tools\MSVC\14.28.29333\include\xstring
;	COMDAT ??0?$basic_string@DU?$char_traits@D@std@@V?$allocator@D@2@@std@@QAE@$$QAV01@@Z
_TEXT	SEGMENT
$T1 = -40						; size = 4
__My_data_mem$2 = -36					; size = 4
__Right_data_mem$3 = -32				; size = 4
_this$ = -28						; size = 4
$T4 = -24						; size = 4
$T5 = -20						; size = 4
_this$ = -16						; size = 4
_this$ = -12						; size = 4
___formal$ = -8						; size = 1
$T6 = -1						; size = 1
__Right$ = 8						; size = 4
??0?$basic_string@DU?$char_traits@D@std@@V?$allocator@D@2@@std@@QAE@$$QAV01@@Z PROC ; std::basic_string<char,std::char_traits<char>,std::allocator<char> >::basic_string<char,std::char_traits<char>,std::allocator<char> >, COMDAT
; _this$ = ecx

; 2496 :     basic_string(basic_string&& _Right) noexcept : _Mypair(_One_then_variadic_args_t{}, _STD move(_Right._Getal())) {

  00000	55		 push	 ebp
  00001	8b ec		 mov	 ebp, esp
  00003	83 ec 28	 sub	 esp, 40			; 00000028H
  00006	89 4d f4	 mov	 DWORD PTR _this$[ebp], ecx

; 4409 :         return _Mypair._Get_first();

  00009	8b 45 08	 mov	 eax, DWORD PTR __Right$[ebp]
; File C:\Program Files (x86)\Microsoft Visual Studio\2019\Community\VC\Tools\MSVC\14.28.29333\include\xmemory

; 1347 :         return *this;

  0000c	89 45 ec	 mov	 DWORD PTR $T5[ebp], eax
; File C:\Program Files (x86)\Microsoft Visual Studio\2019\Community\VC\Tools\MSVC\14.28.29333\include\xstring

; 4409 :         return _Mypair._Get_first();

  0000f	8b 45 ec	 mov	 eax, DWORD PTR $T5[ebp]
  00012	89 45 e8	 mov	 DWORD PTR $T4[ebp], eax
; File C:\Program Files (x86)\Microsoft Visual Studio\2019\Community\VC\Tools\MSVC\14.28.29333\include\type_traits

; 1455 :     return static_cast<remove_reference_t<_Ty>&&>(_Arg);

  00015	8b 45 e8	 mov	 eax, DWORD PTR $T4[ebp]
  00018	89 45 d8	 mov	 DWORD PTR $T1[ebp], eax
; File C:\Program Files (x86)\Microsoft Visual Studio\2019\Community\VC\Tools\MSVC\14.28.29333\include\xstring

; 2496 :     basic_string(basic_string&& _Right) noexcept : _Mypair(_One_then_variadic_args_t{}, _STD move(_Right._Getal())) {

  0001b	8b 45 f4	 mov	 eax, DWORD PTR _this$[ebp]
  0001e	89 45 e4	 mov	 DWORD PTR _this$[ebp], eax
; File C:\Program Files (x86)\Microsoft Visual Studio\2019\Community\VC\Tools\MSVC\14.28.29333\include\xmemory

; 1344 :         : _Ty1(_STD forward<_Other1>(_Val1)), _Myval2(_STD forward<_Other2>(_Val2)...) {}

  00021	8b 45 e4	 mov	 eax, DWORD PTR _this$[ebp]
  00024	89 45 f0	 mov	 DWORD PTR _this$[ebp], eax
; File C:\Program Files (x86)\Microsoft Visual Studio\2019\Community\VC\Tools\MSVC\14.28.29333\include\xstring

; 2198 :     _String_val() noexcept : _Bx(), _Mysize(0), _Myres(0) {}

  00027	8b 45 f0	 mov	 eax, DWORD PTR _this$[ebp]
  0002a	83 60 10 00	 and	 DWORD PTR [eax+16], 0
  0002e	8b 45 f0	 mov	 eax, DWORD PTR _this$[ebp]
  00031	83 60 14 00	 and	 DWORD PTR [eax+20], 0

; 2497 :         _Mypair._Myval2._Alloc_proxy(_GET_PROXY_ALLOCATOR(_Alty, _Getal()));
; 2498 :         _Take_contents(_Right, bool_constant<_Can_memcpy_val>{});

  00035	33 c0		 xor	 eax, eax
  00037	88 45 ff	 mov	 BYTE PTR $T6[ebp], al
  0003a	8a 45 ff	 mov	 al, BYTE PTR $T6[ebp]
  0003d	88 45 f8	 mov	 BYTE PTR ___formal$[ebp], al

; 2680 :         const auto _My_data_mem =

  00040	8b 45 f4	 mov	 eax, DWORD PTR _this$[ebp]
; File C:\Program Files (x86)\Microsoft Visual Studio\2019\Community\VC\Tools\MSVC\14.28.29333\include\xstddef

; 275  :     return __builtin_addressof(_Val);

  00043	89 45 dc	 mov	 DWORD PTR __My_data_mem$2[ebp], eax
; File C:\Program Files (x86)\Microsoft Visual Studio\2019\Community\VC\Tools\MSVC\14.28.29333\include\xstring

; 2682 :         const auto _Right_data_mem =

  00046	8b 45 08	 mov	 eax, DWORD PTR __Right$[ebp]
; File C:\Program Files (x86)\Microsoft Visual Studio\2019\Community\VC\Tools\MSVC\14.28.29333\include\xstddef

; 275  :     return __builtin_addressof(_Val);

  00049	89 45 e0	 mov	 DWORD PTR __Right_data_mem$3[ebp], eax
; File C:\Program Files (x86)\Microsoft Visual Studio\2019\Community\VC\Tools\MSVC\14.28.29333\include\xstring

; 2684 :         _CSTD memcpy(_My_data_mem, _Right_data_mem, _Memcpy_val_size);

  0004c	6a 18		 push	 24			; 00000018H
  0004e	ff 75 e0	 push	 DWORD PTR __Right_data_mem$3[ebp]
  00051	ff 75 dc	 push	 DWORD PTR __My_data_mem$2[ebp]
  00054	e8 00 00 00 00	 call	 _memcpy
  00059	83 c4 0c	 add	 esp, 12			; 0000000cH

; 2703 :         _Right._Tidy_init();

  0005c	8b 4d 08	 mov	 ecx, DWORD PTR __Right$[ebp]
  0005f	e8 00 00 00 00	 call	 ?_Tidy_init@?$basic_string@DU?$char_traits@D@std@@V?$allocator@D@2@@std@@AAEXXZ ; std::basic_string<char,std::char_traits<char>,std::allocator<char> >::_Tidy_init

; 2499 :     }

  00064	8b 45 f4	 mov	 eax, DWORD PTR _this$[ebp]
  00067	c9		 leave
  00068	c2 04 00	 ret	 4
??0?$basic_string@DU?$char_traits@D@std@@V?$allocator@D@2@@std@@QAE@$$QAV01@@Z ENDP ; std::basic_string<char,std::char_traits<char>,std::allocator<char> >::basic_string<char,std::char_traits<char>,std::allocator<char> >
_TEXT	ENDS
; Function compile flags: /Odspy
; File C:\Program Files (x86)\Microsoft Visual Studio\2019\Community\VC\Tools\MSVC\14.28.29333\include\xstring
; File C:\Program Files (x86)\Microsoft Visual Studio\2019\Community\VC\Tools\MSVC\14.28.29333\include\xmemory
; File C:\Program Files (x86)\Microsoft Visual Studio\2019\Community\VC\Tools\MSVC\14.28.29333\include\xstring
; File C:\Program Files (x86)\Microsoft Visual Studio\2019\Community\VC\Tools\MSVC\14.28.29333\include\xmemory
; File C:\Program Files (x86)\Microsoft Visual Studio\2019\Community\VC\Tools\MSVC\14.28.29333\include\xstring
;	COMDAT ??0?$basic_string@DU?$char_traits@D@std@@V?$allocator@D@2@@std@@QAE@QBD@Z
_TEXT	SEGMENT
__Alproxy$ = -40					; size = 4
$T2 = -36						; size = 4
$T3 = -32						; size = 4
_this$ = -28						; size = 4
_this$ = -24						; size = 4
_this$ = -20						; size = 4
_$S6$ = -13						; size = 1
__$EHRec$ = -12						; size = 12
__Ptr$ = 8						; size = 4
??0?$basic_string@DU?$char_traits@D@std@@V?$allocator@D@2@@std@@QAE@QBD@Z PROC ; std::basic_string<char,std::char_traits<char>,std::allocator<char> >::basic_string<char,std::char_traits<char>,std::allocator<char> >, COMDAT
; _this$ = ecx

; 2413 :     basic_string(_In_z_ const _Elem* const _Ptr) : _Mypair(_Zero_then_variadic_args_t{}) {

  00000	55		 push	 ebp
  00001	8b ec		 mov	 ebp, esp
  00003	6a ff		 push	 -1
  00005	68 00 00 00 00	 push	 __ehhandler$??0?$basic_string@DU?$char_traits@D@std@@V?$allocator@D@2@@std@@QAE@QBD@Z
  0000a	64 a1 00 00 00
	00		 mov	 eax, DWORD PTR fs:0
  00010	50		 push	 eax
  00011	83 ec 1c	 sub	 esp, 28			; 0000001cH
  00014	a1 00 00 00 00	 mov	 eax, DWORD PTR ___security_cookie
  00019	33 c5		 xor	 eax, ebp
  0001b	50		 push	 eax
  0001c	8d 45 f4	 lea	 eax, DWORD PTR __$EHRec$[ebp]
  0001f	64 a3 00 00 00
	00		 mov	 DWORD PTR fs:0, eax
  00025	89 4d ec	 mov	 DWORD PTR _this$[ebp], ecx
  00028	8b 45 ec	 mov	 eax, DWORD PTR _this$[ebp]
  0002b	89 45 e4	 mov	 DWORD PTR _this$[ebp], eax
; File C:\Program Files (x86)\Microsoft Visual Studio\2019\Community\VC\Tools\MSVC\14.28.29333\include\xmemory

; 1339 :         : _Ty1(), _Myval2(_STD forward<_Other2>(_Val2)...) {}

  0002e	8b 45 e4	 mov	 eax, DWORD PTR _this$[ebp]
  00031	89 45 e8	 mov	 DWORD PTR _this$[ebp], eax
; File C:\Program Files (x86)\Microsoft Visual Studio\2019\Community\VC\Tools\MSVC\14.28.29333\include\xstring

; 2198 :     _String_val() noexcept : _Bx(), _Mysize(0), _Myres(0) {}

  00034	8b 45 e8	 mov	 eax, DWORD PTR _this$[ebp]
  00037	83 60 10 00	 and	 DWORD PTR [eax+16], 0
  0003b	8b 45 e8	 mov	 eax, DWORD PTR _this$[ebp]
  0003e	83 60 14 00	 and	 DWORD PTR [eax+20], 0

; 2413 :     basic_string(_In_z_ const _Elem* const _Ptr) : _Mypair(_Zero_then_variadic_args_t{}) {

  00042	83 65 fc 00	 and	 DWORD PTR __$EHRec$[ebp+8], 0

; 2414 :         auto&& _Alproxy = _GET_PROXY_ALLOCATOR(_Alty, _Getal());

  00046	8d 45 f3	 lea	 eax, DWORD PTR _$S6$[ebp]
  00049	89 45 d8	 mov	 DWORD PTR __Alproxy$[ebp], eax

; 2415 :         _Container_proxy_ptr<_Alty> _Proxy(_Alproxy, _Mypair._Myval2);
; 2416 :         _Tidy_init();

  0004c	8b 4d ec	 mov	 ecx, DWORD PTR _this$[ebp]
  0004f	e8 00 00 00 00	 call	 ?_Tidy_init@?$basic_string@DU?$char_traits@D@std@@V?$allocator@D@2@@std@@AAEXXZ ; std::basic_string<char,std::char_traits<char>,std::allocator<char> >::_Tidy_init

; 389  :         return _CSTD strlen(reinterpret_cast<const char*>(_First));

  00054	ff 75 08	 push	 DWORD PTR __Ptr$[ebp]
  00057	e8 00 00 00 00	 call	 _strlen
  0005c	59		 pop	 ecx
  0005d	89 45 e0	 mov	 DWORD PTR $T3[ebp], eax
; File C:\Program Files (x86)\Microsoft Visual Studio\2019\Community\VC\Tools\MSVC\14.28.29333\include\xmemory

; 997  :     return _Len;

  00060	8b 45 e0	 mov	 eax, DWORD PTR $T3[ebp]
  00063	89 45 dc	 mov	 DWORD PTR $T2[ebp], eax
; File C:\Program Files (x86)\Microsoft Visual Studio\2019\Community\VC\Tools\MSVC\14.28.29333\include\xstring

; 3062 :         return assign(_Ptr, _Convert_size<size_type>(_Traits::length(_Ptr)));

  00066	ff 75 dc	 push	 DWORD PTR $T2[ebp]
  00069	ff 75 08	 push	 DWORD PTR __Ptr$[ebp]
  0006c	8b 4d ec	 mov	 ecx, DWORD PTR _this$[ebp]
  0006f	e8 00 00 00 00	 call	 ?assign@?$basic_string@DU?$char_traits@D@std@@V?$allocator@D@2@@std@@QAEAAV12@QBDI@Z ; std::basic_string<char,std::char_traits<char>,std::allocator<char> >::assign

; 2417 :         assign(_Ptr);
; 2418 :         _Proxy._Release();
; 2419 :     }

  00074	83 4d fc ff	 or	 DWORD PTR __$EHRec$[ebp+8], -1
  00078	8b 45 ec	 mov	 eax, DWORD PTR _this$[ebp]
  0007b	8b 4d f4	 mov	 ecx, DWORD PTR __$EHRec$[ebp]
  0007e	64 89 0d 00 00
	00 00		 mov	 DWORD PTR fs:0, ecx
  00085	59		 pop	 ecx
  00086	c9		 leave
  00087	c2 04 00	 ret	 4
_TEXT	ENDS
;	COMDAT text$x
text$x	SEGMENT
__unwindfunclet$??0?$basic_string@DU?$char_traits@D@std@@V?$allocator@D@2@@std@@QAE@QBD@Z$0:
  00000	8b 4d ec	 mov	 ecx, DWORD PTR _this$[ebp]
  00003	e9 00 00 00 00	 jmp	 ??1?$_Compressed_pair@V?$allocator@D@std@@V?$_String_val@U?$_Simple_types@D@std@@@2@$00@std@@QAE@XZ
  00008	cc		 int	 3
  00009	cc		 int	 3
  0000a	cc		 int	 3
  0000b	cc		 int	 3
  0000c	cc		 int	 3
__ehhandler$??0?$basic_string@DU?$char_traits@D@std@@V?$allocator@D@2@@std@@QAE@QBD@Z:
  0000d	90		 npad	 1
  0000e	90		 npad	 1
  0000f	8b 54 24 08	 mov	 edx, DWORD PTR [esp+8]
  00013	8d 42 0c	 lea	 eax, DWORD PTR [edx+12]
  00016	8b 4a e0	 mov	 ecx, DWORD PTR [edx-32]
  00019	33 c8		 xor	 ecx, eax
  0001b	e8 00 00 00 00	 call	 @__security_check_cookie@4
  00020	b8 00 00 00 00	 mov	 eax, OFFSET __ehfuncinfo$??0?$basic_string@DU?$char_traits@D@std@@V?$allocator@D@2@@std@@QAE@QBD@Z
  00025	e9 00 00 00 00	 jmp	 ___CxxFrameHandler3
text$x	ENDS
??0?$basic_string@DU?$char_traits@D@std@@V?$allocator@D@2@@std@@QAE@QBD@Z ENDP ; std::basic_string<char,std::char_traits<char>,std::allocator<char> >::basic_string<char,std::char_traits<char>,std::allocator<char> >
; Function compile flags: /Odspy
; File C:\Program Files (x86)\Microsoft Visual Studio\2019\Community\VC\Tools\MSVC\14.28.29333\include\xstring
; File C:\Program Files (x86)\Microsoft Visual Studio\2019\Community\VC\Tools\MSVC\14.28.29333\include\xmemory
; File C:\Program Files (x86)\Microsoft Visual Studio\2019\Community\VC\Tools\MSVC\14.28.29333\include\xstring
;	COMDAT ??0?$basic_string@DU?$char_traits@D@std@@V?$allocator@D@2@@std@@QAE@XZ
_TEXT	SEGMENT
_this$ = -12						; size = 4
_this$ = -8						; size = 4
_this$ = -4						; size = 4
??0?$basic_string@DU?$char_traits@D@std@@V?$allocator@D@2@@std@@QAE@XZ PROC ; std::basic_string<char,std::char_traits<char>,std::allocator<char> >::basic_string<char,std::char_traits<char>,std::allocator<char> >, COMDAT
; _this$ = ecx

; 2365 :     basic_string() noexcept(is_nothrow_default_constructible_v<_Alty>) : _Mypair(_Zero_then_variadic_args_t{}) {

  00000	55		 push	 ebp
  00001	8b ec		 mov	 ebp, esp
  00003	83 ec 0c	 sub	 esp, 12			; 0000000cH
  00006	89 4d fc	 mov	 DWORD PTR _this$[ebp], ecx
  00009	8b 45 fc	 mov	 eax, DWORD PTR _this$[ebp]
  0000c	89 45 f4	 mov	 DWORD PTR _this$[ebp], eax
; File C:\Program Files (x86)\Microsoft Visual Studio\2019\Community\VC\Tools\MSVC\14.28.29333\include\xmemory

; 1339 :         : _Ty1(), _Myval2(_STD forward<_Other2>(_Val2)...) {}

  0000f	8b 45 f4	 mov	 eax, DWORD PTR _this$[ebp]
  00012	89 45 f8	 mov	 DWORD PTR _this$[ebp], eax
; File C:\Program Files (x86)\Microsoft Visual Studio\2019\Community\VC\Tools\MSVC\14.28.29333\include\xstring

; 2198 :     _String_val() noexcept : _Bx(), _Mysize(0), _Myres(0) {}

  00015	8b 45 f8	 mov	 eax, DWORD PTR _this$[ebp]
  00018	83 60 10 00	 and	 DWORD PTR [eax+16], 0
  0001c	8b 45 f8	 mov	 eax, DWORD PTR _this$[ebp]
  0001f	83 60 14 00	 and	 DWORD PTR [eax+20], 0

; 2366 :         _Mypair._Myval2._Alloc_proxy(_GET_PROXY_ALLOCATOR(_Alty, _Getal()));
; 2367 :         _Tidy_init();

  00023	8b 4d fc	 mov	 ecx, DWORD PTR _this$[ebp]
  00026	e8 00 00 00 00	 call	 ?_Tidy_init@?$basic_string@DU?$char_traits@D@std@@V?$allocator@D@2@@std@@AAEXXZ ; std::basic_string<char,std::char_traits<char>,std::allocator<char> >::_Tidy_init

; 2368 :     }

  0002b	8b 45 fc	 mov	 eax, DWORD PTR _this$[ebp]
  0002e	c9		 leave
  0002f	c3		 ret	 0
??0?$basic_string@DU?$char_traits@D@std@@V?$allocator@D@2@@std@@QAE@XZ ENDP ; std::basic_string<char,std::char_traits<char>,std::allocator<char> >::basic_string<char,std::char_traits<char>,std::allocator<char> >
_TEXT	ENDS
; Function compile flags: /Odspy
; File C:\Program Files (x86)\Microsoft Visual Studio\2019\Community\VC\Tools\MSVC\14.28.29333\include\xstring
; File C:\Program Files (x86)\Microsoft Visual Studio\2019\Community\VC\Tools\MSVC\14.28.29333\include\xmemory
; File C:\Program Files (x86)\Microsoft Visual Studio\2019\Community\VC\Tools\MSVC\14.28.29333\include\xstring
; File C:\Program Files (x86)\Microsoft Visual Studio\2019\Community\VC\Tools\MSVC\14.28.29333\include\xmemory
; File C:\Program Files (x86)\Microsoft Visual Studio\2019\Community\VC\Tools\MSVC\14.28.29333\include\xstring
;	COMDAT ??0?$basic_string@DU?$char_traits@D@std@@V?$allocator@D@2@@std@@QAE@ABV01@@Z
_TEXT	SEGMENT
__Alproxy$ = -40					; size = 4
$T2 = -36						; size = 4
_this$ = -32						; size = 4
$T3 = -28						; size = 4
_this$ = -24						; size = 4
_this$ = -20						; size = 4
_$S9$ = -13						; size = 1
__$EHRec$ = -12						; size = 12
__Right$ = 8						; size = 4
??0?$basic_string@DU?$char_traits@D@std@@V?$allocator@D@2@@std@@QAE@ABV01@@Z PROC ; std::basic_string<char,std::char_traits<char>,std::allocator<char> >::basic_string<char,std::char_traits<char>,std::allocator<char> >, COMDAT
; _this$ = ecx

; 2351 :         : _Mypair(_One_then_variadic_args_t{}, _Alty_traits::select_on_container_copy_construction(_Right._Getal())) {

  00000	55		 push	 ebp
  00001	8b ec		 mov	 ebp, esp
  00003	6a ff		 push	 -1
  00005	68 00 00 00 00	 push	 __ehhandler$??0?$basic_string@DU?$char_traits@D@std@@V?$allocator@D@2@@std@@QAE@ABV01@@Z
  0000a	64 a1 00 00 00
	00		 mov	 eax, DWORD PTR fs:0
  00010	50		 push	 eax
  00011	83 ec 1c	 sub	 esp, 28			; 0000001cH
  00014	a1 00 00 00 00	 mov	 eax, DWORD PTR ___security_cookie
  00019	33 c5		 xor	 eax, ebp
  0001b	50		 push	 eax
  0001c	8d 45 f4	 lea	 eax, DWORD PTR __$EHRec$[ebp]
  0001f	64 a3 00 00 00
	00		 mov	 DWORD PTR fs:0, eax
  00025	89 4d ec	 mov	 DWORD PTR _this$[ebp], ecx

; 4413 :         return _Mypair._Get_first();

  00028	8b 45 08	 mov	 eax, DWORD PTR __Right$[ebp]
; File C:\Program Files (x86)\Microsoft Visual Studio\2019\Community\VC\Tools\MSVC\14.28.29333\include\xmemory

; 1351 :         return *this;

  0002b	89 45 e4	 mov	 DWORD PTR $T3[ebp], eax
; File C:\Program Files (x86)\Microsoft Visual Studio\2019\Community\VC\Tools\MSVC\14.28.29333\include\xstring

; 4413 :         return _Mypair._Get_first();

  0002e	8b 45 e4	 mov	 eax, DWORD PTR $T3[ebp]
  00031	89 45 dc	 mov	 DWORD PTR $T2[ebp], eax

; 2351 :         : _Mypair(_One_then_variadic_args_t{}, _Alty_traits::select_on_container_copy_construction(_Right._Getal())) {

  00034	8b 45 ec	 mov	 eax, DWORD PTR _this$[ebp]
  00037	89 45 e0	 mov	 DWORD PTR _this$[ebp], eax
; File C:\Program Files (x86)\Microsoft Visual Studio\2019\Community\VC\Tools\MSVC\14.28.29333\include\xmemory

; 1344 :         : _Ty1(_STD forward<_Other1>(_Val1)), _Myval2(_STD forward<_Other2>(_Val2)...) {}

  0003a	8b 45 e0	 mov	 eax, DWORD PTR _this$[ebp]
  0003d	89 45 e8	 mov	 DWORD PTR _this$[ebp], eax
; File C:\Program Files (x86)\Microsoft Visual Studio\2019\Community\VC\Tools\MSVC\14.28.29333\include\xstring

; 2198 :     _String_val() noexcept : _Bx(), _Mysize(0), _Myres(0) {}

  00040	8b 45 e8	 mov	 eax, DWORD PTR _this$[ebp]
  00043	83 60 10 00	 and	 DWORD PTR [eax+16], 0
  00047	8b 45 e8	 mov	 eax, DWORD PTR _this$[ebp]
  0004a	83 60 14 00	 and	 DWORD PTR [eax+20], 0

; 2351 :         : _Mypair(_One_then_variadic_args_t{}, _Alty_traits::select_on_container_copy_construction(_Right._Getal())) {

  0004e	83 65 fc 00	 and	 DWORD PTR __$EHRec$[ebp+8], 0

; 2352 :         auto&& _Alproxy = _GET_PROXY_ALLOCATOR(_Alty, _Getal());

  00052	8d 45 f3	 lea	 eax, DWORD PTR _$S9$[ebp]
  00055	89 45 d8	 mov	 DWORD PTR __Alproxy$[ebp], eax

; 2353 :         _Container_proxy_ptr<_Alty> _Proxy(_Alproxy, _Mypair._Myval2);
; 2354 :         _Construct_lv_contents(_Right);

  00058	ff 75 08	 push	 DWORD PTR __Right$[ebp]
  0005b	8b 4d ec	 mov	 ecx, DWORD PTR _this$[ebp]
  0005e	e8 00 00 00 00	 call	 ?_Construct_lv_contents@?$basic_string@DU?$char_traits@D@std@@V?$allocator@D@2@@std@@AAEXABV12@@Z ; std::basic_string<char,std::char_traits<char>,std::allocator<char> >::_Construct_lv_contents

; 2355 :         _Proxy._Release();
; 2356 :     }

  00063	83 4d fc ff	 or	 DWORD PTR __$EHRec$[ebp+8], -1
  00067	8b 45 ec	 mov	 eax, DWORD PTR _this$[ebp]
  0006a	8b 4d f4	 mov	 ecx, DWORD PTR __$EHRec$[ebp]
  0006d	64 89 0d 00 00
	00 00		 mov	 DWORD PTR fs:0, ecx
  00074	59		 pop	 ecx
  00075	c9		 leave
  00076	c2 04 00	 ret	 4
_TEXT	ENDS
;	COMDAT text$x
text$x	SEGMENT
__unwindfunclet$??0?$basic_string@DU?$char_traits@D@std@@V?$allocator@D@2@@std@@QAE@ABV01@@Z$0:
  00000	8b 4d ec	 mov	 ecx, DWORD PTR _this$[ebp]
  00003	e9 00 00 00 00	 jmp	 ??1?$_Compressed_pair@V?$allocator@D@std@@V?$_String_val@U?$_Simple_types@D@std@@@2@$00@std@@QAE@XZ
  00008	cc		 int	 3
  00009	cc		 int	 3
  0000a	cc		 int	 3
  0000b	cc		 int	 3
  0000c	cc		 int	 3
__ehhandler$??0?$basic_string@DU?$char_traits@D@std@@V?$allocator@D@2@@std@@QAE@ABV01@@Z:
  0000d	90		 npad	 1
  0000e	90		 npad	 1
  0000f	8b 54 24 08	 mov	 edx, DWORD PTR [esp+8]
  00013	8d 42 0c	 lea	 eax, DWORD PTR [edx+12]
  00016	8b 4a e0	 mov	 ecx, DWORD PTR [edx-32]
  00019	33 c8		 xor	 ecx, eax
  0001b	e8 00 00 00 00	 call	 @__security_check_cookie@4
  00020	b8 00 00 00 00	 mov	 eax, OFFSET __ehfuncinfo$??0?$basic_string@DU?$char_traits@D@std@@V?$allocator@D@2@@std@@QAE@ABV01@@Z
  00025	e9 00 00 00 00	 jmp	 ___CxxFrameHandler3
text$x	ENDS
??0?$basic_string@DU?$char_traits@D@std@@V?$allocator@D@2@@std@@QAE@ABV01@@Z ENDP ; std::basic_string<char,std::char_traits<char>,std::allocator<char> >::basic_string<char,std::char_traits<char>,std::allocator<char> >
; Function compile flags: /Odspy
; File C:\Program Files (x86)\Microsoft Visual Studio\2019\Community\VC\Tools\MSVC\14.28.29333\include\xstring
;	COMDAT ?_Xran@?$_String_val@U?$_Simple_types@D@std@@@std@@SAXXZ
_TEXT	SEGMENT
?_Xran@?$_String_val@U?$_Simple_types@D@std@@@std@@SAXXZ PROC ; std::_String_val<std::_Simple_types<char> >::_Xran, COMDAT

; 2242 :     [[noreturn]] static void _Xran() {

  00000	55		 push	 ebp
  00001	8b ec		 mov	 ebp, esp

; 2243 :         _Xout_of_range("invalid string position");

  00003	68 00 00 00 00	 push	 OFFSET ??_C@_0BI@CFPLBAOH@invalid?5string?5position@
  00008	e8 00 00 00 00	 call	 ?_Xout_of_range@std@@YAXPBD@Z ; std::_Xout_of_range
$LN2@Xran:

; 2244 :     }

  0000d	5d		 pop	 ebp
  0000e	c3		 ret	 0
?_Xran@?$_String_val@U?$_Simple_types@D@std@@@std@@SAXXZ ENDP ; std::_String_val<std::_Simple_types<char> >::_Xran
_TEXT	ENDS
; Function compile flags: /Odspy
; File C:\Program Files (x86)\Microsoft Visual Studio\2019\Community\VC\Tools\MSVC\14.28.29333\include\xstring
; File C:\Program Files (x86)\Microsoft Visual Studio\2019\Community\VC\Tools\MSVC\14.28.29333\include\xstddef
; File C:\Program Files (x86)\Microsoft Visual Studio\2019\Community\VC\Tools\MSVC\14.28.29333\include\xstring
;	COMDAT ?_Myptr@?$_String_val@U?$_Simple_types@D@std@@@std@@QBEPBDXZ
_TEXT	SEGMENT
__Ptr$ = -20						; size = 4
__Result$ = -16						; size = 4
tv76 = -12						; size = 4
_this$ = -8						; size = 4
$T1 = -1						; size = 1
?_Myptr@?$_String_val@U?$_Simple_types@D@std@@@std@@QBEPBDXZ PROC ; std::_String_val<std::_Simple_types<char> >::_Myptr, COMDAT
; _this$ = ecx

; 2217 :     const value_type* _Myptr() const noexcept {

  00000	55		 push	 ebp
  00001	8b ec		 mov	 ebp, esp
  00003	83 ec 14	 sub	 esp, 20			; 00000014H
  00006	89 4d f8	 mov	 DWORD PTR _this$[ebp], ecx

; 2218 :         const value_type* _Result = _Bx._Buf;

  00009	8b 45 f8	 mov	 eax, DWORD PTR _this$[ebp]
  0000c	89 45 f0	 mov	 DWORD PTR __Result$[ebp], eax

; 2227 :         return _BUF_SIZE <= _Myres;

  0000f	8b 45 f8	 mov	 eax, DWORD PTR _this$[ebp]
  00012	83 78 14 10	 cmp	 DWORD PTR [eax+20], 16	; 00000010H
  00016	72 09		 jb	 SHORT $LN6@Myptr
  00018	c7 45 f4 01 00
	00 00		 mov	 DWORD PTR tv76[ebp], 1
  0001f	eb 04		 jmp	 SHORT $LN7@Myptr
$LN6@Myptr:
  00021	83 65 f4 00	 and	 DWORD PTR tv76[ebp], 0
$LN7@Myptr:
  00025	8a 45 f4	 mov	 al, BYTE PTR tv76[ebp]
  00028	88 45 ff	 mov	 BYTE PTR $T1[ebp], al

; 2219 :         if (_Large_string_engaged()) {

  0002b	0f b6 45 ff	 movzx	 eax, BYTE PTR $T1[ebp]
  0002f	85 c0		 test	 eax, eax
  00031	74 0e		 je	 SHORT $LN2@Myptr

; 2220 :             _Result = _Unfancy(_Bx._Ptr);

  00033	8b 45 f8	 mov	 eax, DWORD PTR _this$[ebp]
  00036	8b 00		 mov	 eax, DWORD PTR [eax]
  00038	89 45 ec	 mov	 DWORD PTR __Ptr$[ebp], eax
; File C:\Program Files (x86)\Microsoft Visual Studio\2019\Community\VC\Tools\MSVC\14.28.29333\include\xstddef

; 289  :     return _Ptr;

  0003b	8b 45 ec	 mov	 eax, DWORD PTR __Ptr$[ebp]
  0003e	89 45 f0	 mov	 DWORD PTR __Result$[ebp], eax
$LN2@Myptr:
; File C:\Program Files (x86)\Microsoft Visual Studio\2019\Community\VC\Tools\MSVC\14.28.29333\include\xstring

; 2223 :         return _Result;

  00041	8b 45 f0	 mov	 eax, DWORD PTR __Result$[ebp]

; 2224 :     }

  00044	c9		 leave
  00045	c3		 ret	 0
?_Myptr@?$_String_val@U?$_Simple_types@D@std@@@std@@QBEPBDXZ ENDP ; std::_String_val<std::_Simple_types<char> >::_Myptr
_TEXT	ENDS
; Function compile flags: /Odspy
; File C:\Program Files (x86)\Microsoft Visual Studio\2019\Community\VC\Tools\MSVC\14.28.29333\include\xstring
; File C:\Program Files (x86)\Microsoft Visual Studio\2019\Community\VC\Tools\MSVC\14.28.29333\include\xstddef
; File C:\Program Files (x86)\Microsoft Visual Studio\2019\Community\VC\Tools\MSVC\14.28.29333\include\xstring
;	COMDAT ?_Myptr@?$_String_val@U?$_Simple_types@D@std@@@std@@QAEPADXZ
_TEXT	SEGMENT
__Ptr$ = -20						; size = 4
__Result$ = -16						; size = 4
tv76 = -12						; size = 4
_this$ = -8						; size = 4
$T1 = -1						; size = 1
?_Myptr@?$_String_val@U?$_Simple_types@D@std@@@std@@QAEPADXZ PROC ; std::_String_val<std::_Simple_types<char> >::_Myptr, COMDAT
; _this$ = ecx

; 2208 :     value_type* _Myptr() noexcept {

  00000	55		 push	 ebp
  00001	8b ec		 mov	 ebp, esp
  00003	83 ec 14	 sub	 esp, 20			; 00000014H
  00006	89 4d f8	 mov	 DWORD PTR _this$[ebp], ecx

; 2209 :         value_type* _Result = _Bx._Buf;

  00009	8b 45 f8	 mov	 eax, DWORD PTR _this$[ebp]
  0000c	89 45 f0	 mov	 DWORD PTR __Result$[ebp], eax

; 2227 :         return _BUF_SIZE <= _Myres;

  0000f	8b 45 f8	 mov	 eax, DWORD PTR _this$[ebp]
  00012	83 78 14 10	 cmp	 DWORD PTR [eax+20], 16	; 00000010H
  00016	72 09		 jb	 SHORT $LN6@Myptr
  00018	c7 45 f4 01 00
	00 00		 mov	 DWORD PTR tv76[ebp], 1
  0001f	eb 04		 jmp	 SHORT $LN7@Myptr
$LN6@Myptr:
  00021	83 65 f4 00	 and	 DWORD PTR tv76[ebp], 0
$LN7@Myptr:
  00025	8a 45 f4	 mov	 al, BYTE PTR tv76[ebp]
  00028	88 45 ff	 mov	 BYTE PTR $T1[ebp], al

; 2210 :         if (_Large_string_engaged()) {

  0002b	0f b6 45 ff	 movzx	 eax, BYTE PTR $T1[ebp]
  0002f	85 c0		 test	 eax, eax
  00031	74 0e		 je	 SHORT $LN2@Myptr

; 2211 :             _Result = _Unfancy(_Bx._Ptr);

  00033	8b 45 f8	 mov	 eax, DWORD PTR _this$[ebp]
  00036	8b 00		 mov	 eax, DWORD PTR [eax]
  00038	89 45 ec	 mov	 DWORD PTR __Ptr$[ebp], eax
; File C:\Program Files (x86)\Microsoft Visual Studio\2019\Community\VC\Tools\MSVC\14.28.29333\include\xstddef

; 289  :     return _Ptr;

  0003b	8b 45 ec	 mov	 eax, DWORD PTR __Ptr$[ebp]
  0003e	89 45 f0	 mov	 DWORD PTR __Result$[ebp], eax
$LN2@Myptr:
; File C:\Program Files (x86)\Microsoft Visual Studio\2019\Community\VC\Tools\MSVC\14.28.29333\include\xstring

; 2214 :         return _Result;

  00041	8b 45 f0	 mov	 eax, DWORD PTR __Result$[ebp]

; 2215 :     }

  00044	c9		 leave
  00045	c3		 ret	 0
?_Myptr@?$_String_val@U?$_Simple_types@D@std@@@std@@QAEPADXZ ENDP ; std::_String_val<std::_Simple_types<char> >::_Myptr
_TEXT	ENDS
; Function compile flags: /Odspy
; File C:\Program Files (x86)\Microsoft Visual Studio\2019\Community\VC\Tools\MSVC\14.28.29333\include\xstring
;	COMDAT ??0?$_String_val@U?$_Simple_types@D@std@@@std@@QAE@XZ
_TEXT	SEGMENT
_this$ = -4						; size = 4
??0?$_String_val@U?$_Simple_types@D@std@@@std@@QAE@XZ PROC ; std::_String_val<std::_Simple_types<char> >::_String_val<std::_Simple_types<char> >, COMDAT
; _this$ = ecx

; 2198 :     _String_val() noexcept : _Bx(), _Mysize(0), _Myres(0) {}

  00000	55		 push	 ebp
  00001	8b ec		 mov	 ebp, esp
  00003	51		 push	 ecx
  00004	89 4d fc	 mov	 DWORD PTR _this$[ebp], ecx
  00007	8b 45 fc	 mov	 eax, DWORD PTR _this$[ebp]
  0000a	83 60 10 00	 and	 DWORD PTR [eax+16], 0
  0000e	8b 45 fc	 mov	 eax, DWORD PTR _this$[ebp]
  00011	83 60 14 00	 and	 DWORD PTR [eax+20], 0
  00015	8b 45 fc	 mov	 eax, DWORD PTR _this$[ebp]
  00018	c9		 leave
  00019	c3		 ret	 0
??0?$_String_val@U?$_Simple_types@D@std@@@std@@QAE@XZ ENDP ; std::_String_val<std::_Simple_types<char> >::_String_val<std::_Simple_types<char> >
_TEXT	ENDS
; Function compile flags: /Odspy
; File C:\Program Files (x86)\Microsoft Visual Studio\2019\Community\VC\Tools\MSVC\14.28.29333\include\xstring
;	COMDAT ?_Xlen_string@std@@YAXXZ
_TEXT	SEGMENT
?_Xlen_string@std@@YAXXZ PROC				; std::_Xlen_string, COMDAT

; 2274 : [[noreturn]] inline void _Xlen_string() {

  00000	55		 push	 ebp
  00001	8b ec		 mov	 ebp, esp

; 2275 :     _Xlength_error("string too long");

  00003	68 00 00 00 00	 push	 OFFSET ??_C@_0BA@JFNIOLAK@string?5too?5long@
  00008	e8 00 00 00 00	 call	 ?_Xlength_error@std@@YAXPBD@Z ; std::_Xlength_error
$LN2@Xlen_strin:

; 2276 : }

  0000d	5d		 pop	 ebp
  0000e	c3		 ret	 0
?_Xlen_string@std@@YAXXZ ENDP				; std::_Xlen_string
_TEXT	ENDS
; Function compile flags: /Odspy
; File C:\Program Files (x86)\Microsoft Visual Studio\2019\Community\VC\Tools\MSVC\14.28.29333\include\xmemory
;	COMDAT ?_Adjust_manually_vector_aligned@std@@YAXAAPAXAAI@Z
_TEXT	SEGMENT
__Min_back_shift$ = -16					; size = 4
__Ptr_user$ = -12					; size = 4
__Ptr_container$ = -8					; size = 4
__Back_shift$ = -4					; size = 4
__Ptr$ = 8						; size = 4
__Bytes$ = 12						; size = 4
?_Adjust_manually_vector_aligned@std@@YAXAAPAXAAI@Z PROC ; std::_Adjust_manually_vector_aligned, COMDAT

; 132  : inline void _Adjust_manually_vector_aligned(void*& _Ptr, size_t& _Bytes) {

  00000	55		 push	 ebp
  00001	8b ec		 mov	 ebp, esp
  00003	83 ec 10	 sub	 esp, 16			; 00000010H

; 133  :     // adjust parameters from _Allocate_manually_vector_aligned to pass to operator delete
; 134  :     _Bytes += _Non_user_size;

  00006	8b 45 0c	 mov	 eax, DWORD PTR __Bytes$[ebp]
  00009	8b 00		 mov	 eax, DWORD PTR [eax]
  0000b	83 c0 23	 add	 eax, 35			; 00000023H
  0000e	8b 4d 0c	 mov	 ecx, DWORD PTR __Bytes$[ebp]
  00011	89 01		 mov	 DWORD PTR [ecx], eax

; 135  : 
; 136  :     const uintptr_t* const _Ptr_user = reinterpret_cast<uintptr_t*>(_Ptr);

  00013	8b 45 08	 mov	 eax, DWORD PTR __Ptr$[ebp]
  00016	8b 00		 mov	 eax, DWORD PTR [eax]
  00018	89 45 f4	 mov	 DWORD PTR __Ptr_user$[ebp], eax

; 137  :     const uintptr_t _Ptr_container   = _Ptr_user[-1];

  0001b	6a 04		 push	 4
  0001d	58		 pop	 eax
  0001e	6b c0 ff	 imul	 eax, eax, -1
  00021	8b 4d f4	 mov	 ecx, DWORD PTR __Ptr_user$[ebp]
  00024	8b 04 01	 mov	 eax, DWORD PTR [ecx+eax]
  00027	89 45 f8	 mov	 DWORD PTR __Ptr_container$[ebp], eax

; 138  : 
; 139  :     // If the following asserts, it likely means that we are performing
; 140  :     // an aligned delete on memory coming from an unaligned allocation.
; 141  :     _STL_ASSERT(_Ptr_user[-2] == _Big_allocation_sentinel, "invalid argument");
; 142  : 
; 143  :     // Extra paranoia on aligned allocation/deallocation; ensure _Ptr_container is
; 144  :     // in range [_Min_back_shift, _Non_user_size]
; 145  : #ifdef _DEBUG
; 146  :     constexpr uintptr_t _Min_back_shift = 2 * sizeof(void*);
; 147  : #else // ^^^ _DEBUG ^^^ // vvv !_DEBUG vvv
; 148  :     constexpr uintptr_t _Min_back_shift = sizeof(void*);

  0002a	c7 45 f0 04 00
	00 00		 mov	 DWORD PTR __Min_back_shift$[ebp], 4

; 149  : #endif // _DEBUG
; 150  :     const uintptr_t _Back_shift = reinterpret_cast<uintptr_t>(_Ptr) - _Ptr_container;

  00031	8b 45 08	 mov	 eax, DWORD PTR __Ptr$[ebp]
  00034	8b 00		 mov	 eax, DWORD PTR [eax]
  00036	2b 45 f8	 sub	 eax, DWORD PTR __Ptr_container$[ebp]
  00039	89 45 fc	 mov	 DWORD PTR __Back_shift$[ebp], eax
$LN4@Adjust_man:

; 151  :     _STL_VERIFY(_Back_shift >= _Min_back_shift && _Back_shift <= _Non_user_size, "invalid argument");

  0003c	83 7d fc 04	 cmp	 DWORD PTR __Back_shift$[ebp], 4
  00040	72 08		 jb	 SHORT $LN7@Adjust_man
  00042	83 7d fc 23	 cmp	 DWORD PTR __Back_shift$[ebp], 35 ; 00000023H
  00046	77 02		 ja	 SHORT $LN7@Adjust_man
  00048	eb 09		 jmp	 SHORT $LN2@Adjust_man
$LN7@Adjust_man:
  0004a	e8 00 00 00 00	 call	 __invalid_parameter_noinfo_noreturn
  0004f	33 c0		 xor	 eax, eax
  00051	75 f7		 jne	 SHORT $LN7@Adjust_man
$LN2@Adjust_man:
  00053	33 c0		 xor	 eax, eax
  00055	75 e5		 jne	 SHORT $LN4@Adjust_man

; 152  :     _Ptr = reinterpret_cast<void*>(_Ptr_container);

  00057	8b 45 08	 mov	 eax, DWORD PTR __Ptr$[ebp]
  0005a	8b 4d f8	 mov	 ecx, DWORD PTR __Ptr_container$[ebp]
  0005d	89 08		 mov	 DWORD PTR [eax], ecx
$LN10@Adjust_man:

; 153  : }

  0005f	c9		 leave
  00060	c3		 ret	 0
?_Adjust_manually_vector_aligned@std@@YAXAAPAXAAI@Z ENDP ; std::_Adjust_manually_vector_aligned
_TEXT	ENDS
; Function compile flags: /Odspy
; File C:\Program Files (x86)\Microsoft Visual Studio\2019\Community\VC\Tools\MSVC\14.28.29333\include\exception
;	COMDAT ?_Throw_bad_array_new_length@std@@YAXXZ
_TEXT	SEGMENT
$T1 = -12						; size = 12
?_Throw_bad_array_new_length@std@@YAXXZ PROC		; std::_Throw_bad_array_new_length, COMDAT

; 320  : [[noreturn]] inline void _Throw_bad_array_new_length() {

  00000	55		 push	 ebp
  00001	8b ec		 mov	 ebp, esp
  00003	83 ec 0c	 sub	 esp, 12			; 0000000cH

; 321  :     _THROW(bad_array_new_length{});

  00006	8d 4d f4	 lea	 ecx, DWORD PTR $T1[ebp]
  00009	e8 00 00 00 00	 call	 ??0bad_array_new_length@std@@QAE@XZ ; std::bad_array_new_length::bad_array_new_length
  0000e	68 00 00 00 00	 push	 OFFSET __TI3?AVbad_array_new_length@std@@
  00013	8d 45 f4	 lea	 eax, DWORD PTR $T1[ebp]
  00016	50		 push	 eax
  00017	e8 00 00 00 00	 call	 __CxxThrowException@8
$LN2@Throw_bad_:

; 322  : }

  0001c	c9		 leave
  0001d	c3		 ret	 0
?_Throw_bad_array_new_length@std@@YAXXZ ENDP		; std::_Throw_bad_array_new_length
_TEXT	ENDS
; Function compile flags: /Odspy
; File C:\Program Files (x86)\Microsoft Visual Studio\2019\Community\VC\Tools\MSVC\14.28.29333\include\vcruntime_exception.h
;	COMDAT ??_Gbad_array_new_length@std@@UAEPAXI@Z
_TEXT	SEGMENT
_this$ = -4						; size = 4
___flags$ = 8						; size = 4
??_Gbad_array_new_length@std@@UAEPAXI@Z PROC		; std::bad_array_new_length::`scalar deleting destructor', COMDAT
; _this$ = ecx
  00000	55		 push	 ebp
  00001	8b ec		 mov	 ebp, esp
  00003	51		 push	 ecx
  00004	89 4d fc	 mov	 DWORD PTR _this$[ebp], ecx

; 89   :     {

  00007	8b 45 fc	 mov	 eax, DWORD PTR _this$[ebp]
  0000a	c7 00 00 00 00
	00		 mov	 DWORD PTR [eax], OFFSET ??_7exception@std@@6B@

; 90   :         __std_exception_destroy(&_Data);

  00010	8b 45 fc	 mov	 eax, DWORD PTR _this$[ebp]
  00013	83 c0 04	 add	 eax, 4
  00016	50		 push	 eax
  00017	e8 00 00 00 00	 call	 ___std_exception_destroy
  0001c	59		 pop	 ecx
  0001d	8b 45 08	 mov	 eax, DWORD PTR ___flags$[ebp]
  00020	83 e0 01	 and	 eax, 1
  00023	74 0c		 je	 SHORT $LN2@scalar
  00025	6a 0c		 push	 12			; 0000000cH
  00027	ff 75 fc	 push	 DWORD PTR _this$[ebp]
  0002a	e8 00 00 00 00	 call	 ??3@YAXPAXI@Z		; operator delete
  0002f	59		 pop	 ecx
  00030	59		 pop	 ecx
$LN2@scalar:
  00031	8b 45 fc	 mov	 eax, DWORD PTR _this$[ebp]
  00034	c9		 leave
  00035	c2 04 00	 ret	 4
??_Gbad_array_new_length@std@@UAEPAXI@Z ENDP		; std::bad_array_new_length::`scalar deleting destructor'
_TEXT	ENDS
; Function compile flags: /Odspy
;	COMDAT ??0bad_array_new_length@std@@QAE@ABV01@@Z
_TEXT	SEGMENT
_this$ = -4						; size = 4
___that$ = 8						; size = 4
??0bad_array_new_length@std@@QAE@ABV01@@Z PROC		; std::bad_array_new_length::bad_array_new_length, COMDAT
; _this$ = ecx
  00000	55		 push	 ebp
  00001	8b ec		 mov	 ebp, esp
  00003	51		 push	 ecx
  00004	89 4d fc	 mov	 DWORD PTR _this$[ebp], ecx
  00007	ff 75 08	 push	 DWORD PTR ___that$[ebp]
  0000a	8b 4d fc	 mov	 ecx, DWORD PTR _this$[ebp]
  0000d	e8 00 00 00 00	 call	 ??0exception@std@@QAE@ABV01@@Z ; std::exception::exception
  00012	8b 45 fc	 mov	 eax, DWORD PTR _this$[ebp]
  00015	c7 00 00 00 00
	00		 mov	 DWORD PTR [eax], OFFSET ??_7bad_alloc@std@@6B@
  0001b	8b 45 fc	 mov	 eax, DWORD PTR _this$[ebp]
  0001e	c7 00 00 00 00
	00		 mov	 DWORD PTR [eax], OFFSET ??_7bad_array_new_length@std@@6B@
  00024	8b 45 fc	 mov	 eax, DWORD PTR _this$[ebp]
  00027	c9		 leave
  00028	c2 04 00	 ret	 4
??0bad_array_new_length@std@@QAE@ABV01@@Z ENDP		; std::bad_array_new_length::bad_array_new_length
_TEXT	ENDS
; Function compile flags: /Odspy
; File C:\Program Files (x86)\Microsoft Visual Studio\2019\Community\VC\Tools\MSVC\14.28.29333\include\vcruntime_exception.h
;	COMDAT ??1bad_array_new_length@std@@UAE@XZ
_TEXT	SEGMENT
_this$ = -4						; size = 4
??1bad_array_new_length@std@@UAE@XZ PROC		; std::bad_array_new_length::~bad_array_new_length, COMDAT
; _this$ = ecx
  00000	55		 push	 ebp
  00001	8b ec		 mov	 ebp, esp
  00003	51		 push	 ecx
  00004	89 4d fc	 mov	 DWORD PTR _this$[ebp], ecx

; 89   :     {

  00007	8b 45 fc	 mov	 eax, DWORD PTR _this$[ebp]
  0000a	c7 00 00 00 00
	00		 mov	 DWORD PTR [eax], OFFSET ??_7exception@std@@6B@

; 90   :         __std_exception_destroy(&_Data);

  00010	8b 45 fc	 mov	 eax, DWORD PTR _this$[ebp]
  00013	83 c0 04	 add	 eax, 4
  00016	50		 push	 eax
  00017	e8 00 00 00 00	 call	 ___std_exception_destroy
  0001c	59		 pop	 ecx
  0001d	c9		 leave
  0001e	c3		 ret	 0
??1bad_array_new_length@std@@UAE@XZ ENDP		; std::bad_array_new_length::~bad_array_new_length
_TEXT	ENDS
; Function compile flags: /Odspy
; File C:\Program Files (x86)\Microsoft Visual Studio\2019\Community\VC\Tools\MSVC\14.28.29333\include\vcruntime_exception.h
;	COMDAT ??0bad_array_new_length@std@@QAE@XZ
_TEXT	SEGMENT
_this$ = -4						; size = 4
??0bad_array_new_length@std@@QAE@XZ PROC		; std::bad_array_new_length::bad_array_new_length, COMDAT
; _this$ = ecx

; 141  :     {

  00000	55		 push	 ebp
  00001	8b ec		 mov	 ebp, esp
  00003	51		 push	 ecx
  00004	89 4d fc	 mov	 DWORD PTR _this$[ebp], ecx

; 66   :     {

  00007	8b 45 fc	 mov	 eax, DWORD PTR _this$[ebp]
  0000a	c7 00 00 00 00
	00		 mov	 DWORD PTR [eax], OFFSET ??_7exception@std@@6B@

; 65   :         : _Data()

  00010	33 c0		 xor	 eax, eax
  00012	8b 4d fc	 mov	 ecx, DWORD PTR _this$[ebp]
  00015	83 c1 04	 add	 ecx, 4
  00018	89 01		 mov	 DWORD PTR [ecx], eax
  0001a	89 41 04	 mov	 DWORD PTR [ecx+4], eax

; 67   :         _Data._What = _Message;

  0001d	8b 45 fc	 mov	 eax, DWORD PTR _this$[ebp]
  00020	c7 40 04 00 00
	00 00		 mov	 DWORD PTR [eax+4], OFFSET ??_C@_0BF@KINCDENJ@bad?5array?5new?5length@

; 130  :     {

  00027	8b 45 fc	 mov	 eax, DWORD PTR _this$[ebp]
  0002a	c7 00 00 00 00
	00		 mov	 DWORD PTR [eax], OFFSET ??_7bad_alloc@std@@6B@

; 141  :     {

  00030	8b 45 fc	 mov	 eax, DWORD PTR _this$[ebp]
  00033	c7 00 00 00 00
	00		 mov	 DWORD PTR [eax], OFFSET ??_7bad_array_new_length@std@@6B@

; 142  :     }

  00039	8b 45 fc	 mov	 eax, DWORD PTR _this$[ebp]
  0003c	c9		 leave
  0003d	c3		 ret	 0
??0bad_array_new_length@std@@QAE@XZ ENDP		; std::bad_array_new_length::bad_array_new_length
_TEXT	ENDS
; Function compile flags: /Odspy
; File C:\Program Files (x86)\Microsoft Visual Studio\2019\Community\VC\Tools\MSVC\14.28.29333\include\vcruntime_exception.h
;	COMDAT ??_Gbad_alloc@std@@UAEPAXI@Z
_TEXT	SEGMENT
_this$ = -4						; size = 4
___flags$ = 8						; size = 4
??_Gbad_alloc@std@@UAEPAXI@Z PROC			; std::bad_alloc::`scalar deleting destructor', COMDAT
; _this$ = ecx
  00000	55		 push	 ebp
  00001	8b ec		 mov	 ebp, esp
  00003	51		 push	 ecx
  00004	89 4d fc	 mov	 DWORD PTR _this$[ebp], ecx

; 89   :     {

  00007	8b 45 fc	 mov	 eax, DWORD PTR _this$[ebp]
  0000a	c7 00 00 00 00
	00		 mov	 DWORD PTR [eax], OFFSET ??_7exception@std@@6B@

; 90   :         __std_exception_destroy(&_Data);

  00010	8b 45 fc	 mov	 eax, DWORD PTR _this$[ebp]
  00013	83 c0 04	 add	 eax, 4
  00016	50		 push	 eax
  00017	e8 00 00 00 00	 call	 ___std_exception_destroy
  0001c	59		 pop	 ecx
  0001d	8b 45 08	 mov	 eax, DWORD PTR ___flags$[ebp]
  00020	83 e0 01	 and	 eax, 1
  00023	74 0c		 je	 SHORT $LN2@scalar
  00025	6a 0c		 push	 12			; 0000000cH
  00027	ff 75 fc	 push	 DWORD PTR _this$[ebp]
  0002a	e8 00 00 00 00	 call	 ??3@YAXPAXI@Z		; operator delete
  0002f	59		 pop	 ecx
  00030	59		 pop	 ecx
$LN2@scalar:
  00031	8b 45 fc	 mov	 eax, DWORD PTR _this$[ebp]
  00034	c9		 leave
  00035	c2 04 00	 ret	 4
??_Gbad_alloc@std@@UAEPAXI@Z ENDP			; std::bad_alloc::`scalar deleting destructor'
_TEXT	ENDS
; Function compile flags: /Odspy
;	COMDAT ??0bad_alloc@std@@QAE@ABV01@@Z
_TEXT	SEGMENT
_this$ = -4						; size = 4
___that$ = 8						; size = 4
??0bad_alloc@std@@QAE@ABV01@@Z PROC			; std::bad_alloc::bad_alloc, COMDAT
; _this$ = ecx
  00000	55		 push	 ebp
  00001	8b ec		 mov	 ebp, esp
  00003	51		 push	 ecx
  00004	89 4d fc	 mov	 DWORD PTR _this$[ebp], ecx
  00007	ff 75 08	 push	 DWORD PTR ___that$[ebp]
  0000a	8b 4d fc	 mov	 ecx, DWORD PTR _this$[ebp]
  0000d	e8 00 00 00 00	 call	 ??0exception@std@@QAE@ABV01@@Z ; std::exception::exception
  00012	8b 45 fc	 mov	 eax, DWORD PTR _this$[ebp]
  00015	c7 00 00 00 00
	00		 mov	 DWORD PTR [eax], OFFSET ??_7bad_alloc@std@@6B@
  0001b	8b 45 fc	 mov	 eax, DWORD PTR _this$[ebp]
  0001e	c9		 leave
  0001f	c2 04 00	 ret	 4
??0bad_alloc@std@@QAE@ABV01@@Z ENDP			; std::bad_alloc::bad_alloc
_TEXT	ENDS
; Function compile flags: /Odspy
; File C:\Program Files (x86)\Microsoft Visual Studio\2019\Community\VC\Tools\MSVC\14.28.29333\include\vcruntime_exception.h
;	COMDAT ??_Gexception@std@@UAEPAXI@Z
_TEXT	SEGMENT
_this$ = -4						; size = 4
___flags$ = 8						; size = 4
??_Gexception@std@@UAEPAXI@Z PROC			; std::exception::`scalar deleting destructor', COMDAT
; _this$ = ecx
  00000	55		 push	 ebp
  00001	8b ec		 mov	 ebp, esp
  00003	51		 push	 ecx
  00004	89 4d fc	 mov	 DWORD PTR _this$[ebp], ecx

; 89   :     {

  00007	8b 45 fc	 mov	 eax, DWORD PTR _this$[ebp]
  0000a	c7 00 00 00 00
	00		 mov	 DWORD PTR [eax], OFFSET ??_7exception@std@@6B@

; 90   :         __std_exception_destroy(&_Data);

  00010	8b 45 fc	 mov	 eax, DWORD PTR _this$[ebp]
  00013	83 c0 04	 add	 eax, 4
  00016	50		 push	 eax
  00017	e8 00 00 00 00	 call	 ___std_exception_destroy
  0001c	59		 pop	 ecx
  0001d	8b 45 08	 mov	 eax, DWORD PTR ___flags$[ebp]
  00020	83 e0 01	 and	 eax, 1
  00023	74 0c		 je	 SHORT $LN2@scalar
  00025	6a 0c		 push	 12			; 0000000cH
  00027	ff 75 fc	 push	 DWORD PTR _this$[ebp]
  0002a	e8 00 00 00 00	 call	 ??3@YAXPAXI@Z		; operator delete
  0002f	59		 pop	 ecx
  00030	59		 pop	 ecx
$LN2@scalar:
  00031	8b 45 fc	 mov	 eax, DWORD PTR _this$[ebp]
  00034	c9		 leave
  00035	c2 04 00	 ret	 4
??_Gexception@std@@UAEPAXI@Z ENDP			; std::exception::`scalar deleting destructor'
_TEXT	ENDS
; Function compile flags: /Odspy
; File C:\Program Files (x86)\Microsoft Visual Studio\2019\Community\VC\Tools\MSVC\14.28.29333\include\vcruntime_exception.h
;	COMDAT ?what@exception@std@@UBEPBDXZ
_TEXT	SEGMENT
tv69 = -8						; size = 4
_this$ = -4						; size = 4
?what@exception@std@@UBEPBDXZ PROC			; std::exception::what, COMDAT
; _this$ = ecx

; 94   :     {

  00000	55		 push	 ebp
  00001	8b ec		 mov	 ebp, esp
  00003	51		 push	 ecx
  00004	51		 push	 ecx
  00005	89 4d fc	 mov	 DWORD PTR _this$[ebp], ecx

; 95   :         return _Data._What ? _Data._What : "Unknown exception";

  00008	8b 45 fc	 mov	 eax, DWORD PTR _this$[ebp]
  0000b	83 78 04 00	 cmp	 DWORD PTR [eax+4], 0
  0000f	74 0b		 je	 SHORT $LN3@what
  00011	8b 45 fc	 mov	 eax, DWORD PTR _this$[ebp]
  00014	8b 40 04	 mov	 eax, DWORD PTR [eax+4]
  00017	89 45 f8	 mov	 DWORD PTR tv69[ebp], eax
  0001a	eb 07		 jmp	 SHORT $LN4@what
$LN3@what:
  0001c	c7 45 f8 00 00
	00 00		 mov	 DWORD PTR tv69[ebp], OFFSET ??_C@_0BC@EOODALEL@Unknown?5exception@
$LN4@what:
  00023	8b 45 f8	 mov	 eax, DWORD PTR tv69[ebp]

; 96   :     }

  00026	c9		 leave
  00027	c3		 ret	 0
?what@exception@std@@UBEPBDXZ ENDP			; std::exception::what
_TEXT	ENDS
; Function compile flags: /Odspy
; File C:\Program Files (x86)\Microsoft Visual Studio\2019\Community\VC\Tools\MSVC\14.28.29333\include\vcruntime_exception.h
;	COMDAT ??0exception@std@@QAE@ABV01@@Z
_TEXT	SEGMENT
_this$ = -4						; size = 4
__Other$ = 8						; size = 4
??0exception@std@@QAE@ABV01@@Z PROC			; std::exception::exception, COMDAT
; _this$ = ecx

; 72   :     {

  00000	55		 push	 ebp
  00001	8b ec		 mov	 ebp, esp
  00003	51		 push	 ecx
  00004	89 4d fc	 mov	 DWORD PTR _this$[ebp], ecx
  00007	8b 45 fc	 mov	 eax, DWORD PTR _this$[ebp]
  0000a	c7 00 00 00 00
	00		 mov	 DWORD PTR [eax], OFFSET ??_7exception@std@@6B@

; 71   :         : _Data()

  00010	33 c0		 xor	 eax, eax
  00012	8b 4d fc	 mov	 ecx, DWORD PTR _this$[ebp]
  00015	83 c1 04	 add	 ecx, 4
  00018	89 01		 mov	 DWORD PTR [ecx], eax
  0001a	89 41 04	 mov	 DWORD PTR [ecx+4], eax

; 73   :         __std_exception_copy(&_Other._Data, &_Data);

  0001d	8b 45 fc	 mov	 eax, DWORD PTR _this$[ebp]
  00020	83 c0 04	 add	 eax, 4
  00023	50		 push	 eax
  00024	8b 45 08	 mov	 eax, DWORD PTR __Other$[ebp]
  00027	83 c0 04	 add	 eax, 4
  0002a	50		 push	 eax
  0002b	e8 00 00 00 00	 call	 ___std_exception_copy
  00030	59		 pop	 ecx
  00031	59		 pop	 ecx

; 74   :     }

  00032	8b 45 fc	 mov	 eax, DWORD PTR _this$[ebp]
  00035	c9		 leave
  00036	c2 04 00	 ret	 4
??0exception@std@@QAE@ABV01@@Z ENDP			; std::exception::exception
_TEXT	ENDS
; Function compile flags: /Odspy
; File C:\Program Files (x86)\Windows Kits\10\Include\10.0.18362.0\ucrt\stdio.h
;	COMDAT _sprintf
_TEXT	SEGMENT
__Result$ = -20						; size = 4
__Format$ = -16						; size = 4
__ArgList$ = -12					; size = 4
tv86 = -8						; size = 4
__Result$1 = -4						; size = 4
__Buffer$ = 8						; size = 4
__Format$ = 12						; size = 4
_sprintf PROC						; COMDAT

; 1781 :     {

  00000	55		 push	 ebp
  00001	8b ec		 mov	 ebp, esp
  00003	83 ec 14	 sub	 esp, 20			; 00000014H

; 1782 :         int _Result;
; 1783 :         va_list _ArgList;
; 1784 :         __crt_va_start(_ArgList, _Format);

  00006	8d 45 10	 lea	 eax, DWORD PTR __Format$[ebp+4]
  00009	89 45 f4	 mov	 DWORD PTR __ArgList$[ebp], eax

; 1785 : 
; 1786 :         #pragma warning(push)
; 1787 :         #pragma warning(disable: 4996) // Deprecation
; 1788 :         _Result = _vsprintf_l(_Buffer, _Format, NULL, _ArgList);

  0000c	8b 45 0c	 mov	 eax, DWORD PTR __Format$[ebp]
  0000f	89 45 f0	 mov	 DWORD PTR __Format$[ebp], eax

; 1390 :         int const _Result = __stdio_common_vsprintf(

  00012	ff 75 f4	 push	 DWORD PTR __ArgList$[ebp]
  00015	6a 00		 push	 0
  00017	ff 75 f0	 push	 DWORD PTR __Format$[ebp]
  0001a	6a ff		 push	 -1
  0001c	ff 75 08	 push	 DWORD PTR __Buffer$[ebp]
  0001f	e8 00 00 00 00	 call	 ___local_stdio_printf_options
  00024	8b 08		 mov	 ecx, DWORD PTR [eax]
  00026	83 c9 01	 or	 ecx, 1
  00029	8b 40 04	 mov	 eax, DWORD PTR [eax+4]
  0002c	50		 push	 eax
  0002d	51		 push	 ecx
  0002e	e8 00 00 00 00	 call	 ___stdio_common_vsprintf
  00033	83 c4 1c	 add	 esp, 28			; 0000001cH
  00036	89 45 fc	 mov	 DWORD PTR __Result$1[ebp], eax

; 1391 :             _CRT_INTERNAL_LOCAL_PRINTF_OPTIONS | _CRT_INTERNAL_PRINTF_LEGACY_VSPRINTF_NULL_TERMINATION,
; 1392 :             _Buffer, _BufferCount, _Format, _Locale, _ArgList);
; 1393 : 
; 1394 :         return _Result < 0 ? -1 : _Result;

  00039	83 7d fc 00	 cmp	 DWORD PTR __Result$1[ebp], 0
  0003d	7d 06		 jge	 SHORT $LN7@sprintf
  0003f	83 4d f8 ff	 or	 DWORD PTR tv86[ebp], -1
  00043	eb 06		 jmp	 SHORT $LN3@sprintf
$LN7@sprintf:
  00045	8b 45 fc	 mov	 eax, DWORD PTR __Result$1[ebp]
  00048	89 45 f8	 mov	 DWORD PTR tv86[ebp], eax
$LN3@sprintf:

; 1785 : 
; 1786 :         #pragma warning(push)
; 1787 :         #pragma warning(disable: 4996) // Deprecation
; 1788 :         _Result = _vsprintf_l(_Buffer, _Format, NULL, _ArgList);

  0004b	8b 45 f8	 mov	 eax, DWORD PTR tv86[ebp]
  0004e	89 45 ec	 mov	 DWORD PTR __Result$[ebp], eax

; 1789 :         #pragma warning(pop)
; 1790 : 
; 1791 :         __crt_va_end(_ArgList);

  00051	83 65 f4 00	 and	 DWORD PTR __ArgList$[ebp], 0

; 1792 :         return _Result;

  00055	8b 45 ec	 mov	 eax, DWORD PTR __Result$[ebp]

; 1793 :     }

  00058	c9		 leave
  00059	c3		 ret	 0
_sprintf ENDP
_TEXT	ENDS
; Function compile flags: /Odspy
; File C:\Program Files (x86)\Windows Kits\10\Include\10.0.18362.0\ucrt\stdio.h
;	COMDAT _fprintf
_TEXT	SEGMENT
__Result$ = -12						; size = 4
__Format$ = -8						; size = 4
__ArgList$ = -4						; size = 4
__Stream$ = 8						; size = 4
__Format$ = 12						; size = 4
_fprintf PROC						; COMDAT

; 835  :     {

  00000	55		 push	 ebp
  00001	8b ec		 mov	 ebp, esp
  00003	83 ec 0c	 sub	 esp, 12			; 0000000cH

; 836  :         int _Result;
; 837  :         va_list _ArgList;
; 838  :         __crt_va_start(_ArgList, _Format);

  00006	8d 45 10	 lea	 eax, DWORD PTR __Format$[ebp+4]
  00009	89 45 fc	 mov	 DWORD PTR __ArgList$[ebp], eax

; 839  :         _Result = _vfprintf_l(_Stream, _Format, NULL, _ArgList);

  0000c	8b 45 0c	 mov	 eax, DWORD PTR __Format$[ebp]
  0000f	89 45 f8	 mov	 DWORD PTR __Format$[ebp], eax

; 643  :         return __stdio_common_vfprintf(_CRT_INTERNAL_LOCAL_PRINTF_OPTIONS, _Stream, _Format, _Locale, _ArgList);

  00012	ff 75 fc	 push	 DWORD PTR __ArgList$[ebp]
  00015	6a 00		 push	 0
  00017	ff 75 f8	 push	 DWORD PTR __Format$[ebp]
  0001a	ff 75 08	 push	 DWORD PTR __Stream$[ebp]
  0001d	e8 00 00 00 00	 call	 ___local_stdio_printf_options
  00022	ff 70 04	 push	 DWORD PTR [eax+4]
  00025	ff 30		 push	 DWORD PTR [eax]
  00027	e8 00 00 00 00	 call	 ___stdio_common_vfprintf
  0002c	83 c4 18	 add	 esp, 24			; 00000018H

; 839  :         _Result = _vfprintf_l(_Stream, _Format, NULL, _ArgList);

  0002f	89 45 f4	 mov	 DWORD PTR __Result$[ebp], eax

; 840  :         __crt_va_end(_ArgList);

  00032	83 65 fc 00	 and	 DWORD PTR __ArgList$[ebp], 0

; 841  :         return _Result;

  00036	8b 45 f4	 mov	 eax, DWORD PTR __Result$[ebp]

; 842  :     }

  00039	c9		 leave
  0003a	c3		 ret	 0
_fprintf ENDP
_TEXT	ENDS
; Function compile flags: /Odspy
; File C:\Program Files (x86)\Windows Kits\10\Include\10.0.18362.0\ucrt\corecrt_stdio_config.h
;	COMDAT ___local_stdio_printf_options
_TEXT	SEGMENT
___local_stdio_printf_options PROC			; COMDAT

; 86   :     {

  00000	55		 push	 ebp
  00001	8b ec		 mov	 ebp, esp

; 87   :         static unsigned __int64 _OptionsStorage;
; 88   :         return &_OptionsStorage;

  00003	b8 00 00 00 00	 mov	 eax, OFFSET ?_OptionsStorage@?1??__local_stdio_printf_options@@9@4_KA ; `__local_stdio_printf_options'::`2'::_OptionsStorage

; 89   :     }

  00008	5d		 pop	 ebp
  00009	c3		 ret	 0
___local_stdio_printf_options ENDP
_TEXT	ENDS
END
